Archive member included because of file (symbol)

/nfs/nfs5/home/research/hardware/arm2/gcc-arm-embedded/gcc-arm-none-eabi-4_8-2014q2/bin/../lib/gcc/arm-none-eabi/4.8.4/../../../../arm-none-eabi/lib/armv7e-m/libg.a(lib_a-memcpy.o)
                              build/obj/hal_buffers.o (memcpy)
/nfs/nfs5/home/research/hardware/arm2/gcc-arm-embedded/gcc-arm-none-eabi-4_8-2014q2/bin/../lib/gcc/arm-none-eabi/4.8.4/../../../../arm-none-eabi/lib/armv7e-m/libg.a(lib_a-memset.o)
                              build/obj/syscalls.o (memset)
/nfs/nfs5/home/research/hardware/arm2/gcc-arm-embedded/gcc-arm-none-eabi-4_8-2014q2/bin/../lib/gcc/arm-none-eabi/4.8.4/../../../../arm-none-eabi/lib/armv7e-m/libg.a(lib_a-sprintf.o)
                              build/obj/main.o (sprintf)
/nfs/nfs5/home/research/hardware/arm2/gcc-arm-embedded/gcc-arm-none-eabi-4_8-2014q2/bin/../lib/gcc/arm-none-eabi/4.8.4/../../../../arm-none-eabi/lib/armv7e-m/libg.a(lib_a-strcmp.o)
                              build/obj/shell.o (strcmp)
/nfs/nfs5/home/research/hardware/arm2/gcc-arm-embedded/gcc-arm-none-eabi-4_8-2014q2/bin/../lib/gcc/arm-none-eabi/4.8.4/../../../../arm-none-eabi/lib/armv7e-m/libg.a(lib_a-strpbrk.o)
                              build/obj/shell.o (strpbrk)
/nfs/nfs5/home/research/hardware/arm2/gcc-arm-embedded/gcc-arm-none-eabi-4_8-2014q2/bin/../lib/gcc/arm-none-eabi/4.8.4/../../../../arm-none-eabi/lib/armv7e-m/libg.a(lib_a-strspn.o)
                              build/obj/shell.o (strspn)
/nfs/nfs5/home/research/hardware/arm2/gcc-arm-embedded/gcc-arm-none-eabi-4_8-2014q2/bin/../lib/gcc/arm-none-eabi/4.8.4/../../../../arm-none-eabi/lib/armv7e-m/libg.a(lib_a-svfprintf.o)
                              /nfs/nfs5/home/research/hardware/arm2/gcc-arm-embedded/gcc-arm-none-eabi-4_8-2014q2/bin/../lib/gcc/arm-none-eabi/4.8.4/../../../../arm-none-eabi/lib/armv7e-m/libg.a(lib_a-sprintf.o) (_svfprintf_r)
/nfs/nfs5/home/research/hardware/arm2/gcc-arm-embedded/gcc-arm-none-eabi-4_8-2014q2/bin/../lib/gcc/arm-none-eabi/4.8.4/../../../../arm-none-eabi/lib/armv7e-m/libg.a(lib_a-dtoa.o)
                              /nfs/nfs5/home/research/hardware/arm2/gcc-arm-embedded/gcc-arm-none-eabi-4_8-2014q2/bin/../lib/gcc/arm-none-eabi/4.8.4/../../../../arm-none-eabi/lib/armv7e-m/libg.a(lib_a-svfprintf.o) (_dtoa_r)
/nfs/nfs5/home/research/hardware/arm2/gcc-arm-embedded/gcc-arm-none-eabi-4_8-2014q2/bin/../lib/gcc/arm-none-eabi/4.8.4/../../../../arm-none-eabi/lib/armv7e-m/libg.a(lib_a-impure.o)
                              /nfs/nfs5/home/research/hardware/arm2/gcc-arm-embedded/gcc-arm-none-eabi-4_8-2014q2/bin/../lib/gcc/arm-none-eabi/4.8.4/../../../../arm-none-eabi/lib/armv7e-m/libg.a(lib_a-sprintf.o) (_impure_ptr)
/nfs/nfs5/home/research/hardware/arm2/gcc-arm-embedded/gcc-arm-none-eabi-4_8-2014q2/bin/../lib/gcc/arm-none-eabi/4.8.4/../../../../arm-none-eabi/lib/armv7e-m/libg.a(lib_a-locale.o)
                              /nfs/nfs5/home/research/hardware/arm2/gcc-arm-embedded/gcc-arm-none-eabi-4_8-2014q2/bin/../lib/gcc/arm-none-eabi/4.8.4/../../../../arm-none-eabi/lib/armv7e-m/libg.a(lib_a-svfprintf.o) (_localeconv_r)
/nfs/nfs5/home/research/hardware/arm2/gcc-arm-embedded/gcc-arm-none-eabi-4_8-2014q2/bin/../lib/gcc/arm-none-eabi/4.8.4/../../../../arm-none-eabi/lib/armv7e-m/libg.a(lib_a-mallocr.o)
                              /nfs/nfs5/home/research/hardware/arm2/gcc-arm-embedded/gcc-arm-none-eabi-4_8-2014q2/bin/../lib/gcc/arm-none-eabi/4.8.4/../../../../arm-none-eabi/lib/armv7e-m/libg.a(lib_a-svfprintf.o) (_malloc_r)
/nfs/nfs5/home/research/hardware/arm2/gcc-arm-embedded/gcc-arm-none-eabi-4_8-2014q2/bin/../lib/gcc/arm-none-eabi/4.8.4/../../../../arm-none-eabi/lib/armv7e-m/libg.a(lib_a-memchr-stub.o)
                              /nfs/nfs5/home/research/hardware/arm2/gcc-arm-embedded/gcc-arm-none-eabi-4_8-2014q2/bin/../lib/gcc/arm-none-eabi/4.8.4/../../../../arm-none-eabi/lib/armv7e-m/libg.a(lib_a-svfprintf.o) (memchr)
/nfs/nfs5/home/research/hardware/arm2/gcc-arm-embedded/gcc-arm-none-eabi-4_8-2014q2/bin/../lib/gcc/arm-none-eabi/4.8.4/../../../../arm-none-eabi/lib/armv7e-m/libg.a(lib_a-mlock.o)
                              /nfs/nfs5/home/research/hardware/arm2/gcc-arm-embedded/gcc-arm-none-eabi-4_8-2014q2/bin/../lib/gcc/arm-none-eabi/4.8.4/../../../../arm-none-eabi/lib/armv7e-m/libg.a(lib_a-mallocr.o) (__malloc_lock)
/nfs/nfs5/home/research/hardware/arm2/gcc-arm-embedded/gcc-arm-none-eabi-4_8-2014q2/bin/../lib/gcc/arm-none-eabi/4.8.4/../../../../arm-none-eabi/lib/armv7e-m/libg.a(lib_a-mprec.o)
                              /nfs/nfs5/home/research/hardware/arm2/gcc-arm-embedded/gcc-arm-none-eabi-4_8-2014q2/bin/../lib/gcc/arm-none-eabi/4.8.4/../../../../arm-none-eabi/lib/armv7e-m/libg.a(lib_a-dtoa.o) (_Balloc)
/nfs/nfs5/home/research/hardware/arm2/gcc-arm-embedded/gcc-arm-none-eabi-4_8-2014q2/bin/../lib/gcc/arm-none-eabi/4.8.4/../../../../arm-none-eabi/lib/armv7e-m/libg.a(lib_a-s_fpclassify.o)
                              /nfs/nfs5/home/research/hardware/arm2/gcc-arm-embedded/gcc-arm-none-eabi-4_8-2014q2/bin/../lib/gcc/arm-none-eabi/4.8.4/../../../../arm-none-eabi/lib/armv7e-m/libg.a(lib_a-svfprintf.o) (__fpclassifyd)
/nfs/nfs5/home/research/hardware/arm2/gcc-arm-embedded/gcc-arm-none-eabi-4_8-2014q2/bin/../lib/gcc/arm-none-eabi/4.8.4/../../../../arm-none-eabi/lib/armv7e-m/libg.a(lib_a-strlen.o)
                              /nfs/nfs5/home/research/hardware/arm2/gcc-arm-embedded/gcc-arm-none-eabi-4_8-2014q2/bin/../lib/gcc/arm-none-eabi/4.8.4/../../../../arm-none-eabi/lib/armv7e-m/libg.a(lib_a-svfprintf.o) (strlen)
/nfs/nfs5/home/research/hardware/arm2/gcc-arm-embedded/gcc-arm-none-eabi-4_8-2014q2/bin/../lib/gcc/arm-none-eabi/4.8.4/../../../../arm-none-eabi/lib/armv7e-m/libg.a(lib_a-svfiprintf.o)
                              /nfs/nfs5/home/research/hardware/arm2/gcc-arm-embedded/gcc-arm-none-eabi-4_8-2014q2/bin/../lib/gcc/arm-none-eabi/4.8.4/../../../../arm-none-eabi/lib/armv7e-m/libg.a(lib_a-svfprintf.o) (__ssprint_r)
/nfs/nfs5/home/research/hardware/arm2/gcc-arm-embedded/gcc-arm-none-eabi-4_8-2014q2/bin/../lib/gcc/arm-none-eabi/4.8.4/../../../../arm-none-eabi/lib/armv7e-m/libg.a(lib_a-callocr.o)
                              /nfs/nfs5/home/research/hardware/arm2/gcc-arm-embedded/gcc-arm-none-eabi-4_8-2014q2/bin/../lib/gcc/arm-none-eabi/4.8.4/../../../../arm-none-eabi/lib/armv7e-m/libg.a(lib_a-mprec.o) (_calloc_r)
/nfs/nfs5/home/research/hardware/arm2/gcc-arm-embedded/gcc-arm-none-eabi-4_8-2014q2/bin/../lib/gcc/arm-none-eabi/4.8.4/../../../../arm-none-eabi/lib/armv7e-m/libg.a(lib_a-freer.o)
                              /nfs/nfs5/home/research/hardware/arm2/gcc-arm-embedded/gcc-arm-none-eabi-4_8-2014q2/bin/../lib/gcc/arm-none-eabi/4.8.4/../../../../arm-none-eabi/lib/armv7e-m/libg.a(lib_a-mallocr.o) (_free_r)
/nfs/nfs5/home/research/hardware/arm2/gcc-arm-embedded/gcc-arm-none-eabi-4_8-2014q2/bin/../lib/gcc/arm-none-eabi/4.8.4/../../../../arm-none-eabi/lib/armv7e-m/libg.a(lib_a-memmove.o)
                              /nfs/nfs5/home/research/hardware/arm2/gcc-arm-embedded/gcc-arm-none-eabi-4_8-2014q2/bin/../lib/gcc/arm-none-eabi/4.8.4/../../../../arm-none-eabi/lib/armv7e-m/libg.a(lib_a-svfiprintf.o) (memmove)
/nfs/nfs5/home/research/hardware/arm2/gcc-arm-embedded/gcc-arm-none-eabi-4_8-2014q2/bin/../lib/gcc/arm-none-eabi/4.8.4/../../../../arm-none-eabi/lib/armv7e-m/libg.a(lib_a-reallocr.o)
                              /nfs/nfs5/home/research/hardware/arm2/gcc-arm-embedded/gcc-arm-none-eabi-4_8-2014q2/bin/../lib/gcc/arm-none-eabi/4.8.4/../../../../arm-none-eabi/lib/armv7e-m/libg.a(lib_a-svfiprintf.o) (_realloc_r)
/nfs/nfs5/home/research/hardware/arm2/gcc-arm-embedded/gcc-arm-none-eabi-4_8-2014q2/bin/../lib/gcc/arm-none-eabi/4.8.4/armv7e-m/libgcc.a(_arm_addsubdf3.o)
                              /nfs/nfs5/home/research/hardware/arm2/gcc-arm-embedded/gcc-arm-none-eabi-4_8-2014q2/bin/../lib/gcc/arm-none-eabi/4.8.4/../../../../arm-none-eabi/lib/armv7e-m/libg.a(lib_a-dtoa.o) (__aeabi_dsub)
/nfs/nfs5/home/research/hardware/arm2/gcc-arm-embedded/gcc-arm-none-eabi-4_8-2014q2/bin/../lib/gcc/arm-none-eabi/4.8.4/armv7e-m/libgcc.a(_arm_muldivdf3.o)
                              /nfs/nfs5/home/research/hardware/arm2/gcc-arm-embedded/gcc-arm-none-eabi-4_8-2014q2/bin/../lib/gcc/arm-none-eabi/4.8.4/../../../../arm-none-eabi/lib/armv7e-m/libg.a(lib_a-dtoa.o) (__aeabi_dmul)
/nfs/nfs5/home/research/hardware/arm2/gcc-arm-embedded/gcc-arm-none-eabi-4_8-2014q2/bin/../lib/gcc/arm-none-eabi/4.8.4/armv7e-m/libgcc.a(_arm_cmpdf2.o)
                              /nfs/nfs5/home/research/hardware/arm2/gcc-arm-embedded/gcc-arm-none-eabi-4_8-2014q2/bin/../lib/gcc/arm-none-eabi/4.8.4/../../../../arm-none-eabi/lib/armv7e-m/libg.a(lib_a-svfprintf.o) (__aeabi_dcmpeq)
/nfs/nfs5/home/research/hardware/arm2/gcc-arm-embedded/gcc-arm-none-eabi-4_8-2014q2/bin/../lib/gcc/arm-none-eabi/4.8.4/armv7e-m/libgcc.a(_arm_fixdfsi.o)
                              /nfs/nfs5/home/research/hardware/arm2/gcc-arm-embedded/gcc-arm-none-eabi-4_8-2014q2/bin/../lib/gcc/arm-none-eabi/4.8.4/../../../../arm-none-eabi/lib/armv7e-m/libg.a(lib_a-dtoa.o) (__aeabi_d2iz)
/nfs/nfs5/home/research/hardware/arm2/gcc-arm-embedded/gcc-arm-none-eabi-4_8-2014q2/bin/../lib/gcc/arm-none-eabi/4.8.4/armv7e-m/libgcc.a(_aeabi_uldivmod.o)
                              /nfs/nfs5/home/research/hardware/arm2/gcc-arm-embedded/gcc-arm-none-eabi-4_8-2014q2/bin/../lib/gcc/arm-none-eabi/4.8.4/../../../../arm-none-eabi/lib/armv7e-m/libg.a(lib_a-svfprintf.o) (__aeabi_uldivmod)
/nfs/nfs5/home/research/hardware/arm2/gcc-arm-embedded/gcc-arm-none-eabi-4_8-2014q2/bin/../lib/gcc/arm-none-eabi/4.8.4/armv7e-m/libgcc.a(bpabi.o)
                              /nfs/nfs5/home/research/hardware/arm2/gcc-arm-embedded/gcc-arm-none-eabi-4_8-2014q2/bin/../lib/gcc/arm-none-eabi/4.8.4/armv7e-m/libgcc.a(_aeabi_uldivmod.o) (__gnu_uldivmod_helper)
/nfs/nfs5/home/research/hardware/arm2/gcc-arm-embedded/gcc-arm-none-eabi-4_8-2014q2/bin/../lib/gcc/arm-none-eabi/4.8.4/armv7e-m/libgcc.a(_dvmd_tls.o)
                              /nfs/nfs5/home/research/hardware/arm2/gcc-arm-embedded/gcc-arm-none-eabi-4_8-2014q2/bin/../lib/gcc/arm-none-eabi/4.8.4/armv7e-m/libgcc.a(_aeabi_uldivmod.o) (__aeabi_ldiv0)
/nfs/nfs5/home/research/hardware/arm2/gcc-arm-embedded/gcc-arm-none-eabi-4_8-2014q2/bin/../lib/gcc/arm-none-eabi/4.8.4/armv7e-m/libgcc.a(_divdi3.o)
                              /nfs/nfs5/home/research/hardware/arm2/gcc-arm-embedded/gcc-arm-none-eabi-4_8-2014q2/bin/../lib/gcc/arm-none-eabi/4.8.4/armv7e-m/libgcc.a(bpabi.o) (__divdi3)
/nfs/nfs5/home/research/hardware/arm2/gcc-arm-embedded/gcc-arm-none-eabi-4_8-2014q2/bin/../lib/gcc/arm-none-eabi/4.8.4/armv7e-m/libgcc.a(_udivdi3.o)
                              /nfs/nfs5/home/research/hardware/arm2/gcc-arm-embedded/gcc-arm-none-eabi-4_8-2014q2/bin/../lib/gcc/arm-none-eabi/4.8.4/armv7e-m/libgcc.a(bpabi.o) (__udivdi3)

Discarded input sections

 .data          0x00000000        0x0 build/obj/crt0_v7m.o
 .bss           0x00000000        0x0 build/obj/crt0_v7m.o
 .data          0x00000000        0x0 build/obj/chcoreasm_v7m.o
 .bss           0x00000000        0x0 build/obj/chcoreasm_v7m.o
 .text          0x00000000        0x0 build/obj/crt1.o
 .data          0x00000000        0x0 build/obj/crt1.o
 .bss           0x00000000        0x0 build/obj/crt1.o
 .text.__early_init
                0x00000000       0x10 build/obj/crt1.o
 .text          0x00000000        0x0 build/obj/vectors.o
 .data          0x00000000        0x0 build/obj/vectors.o
 .bss           0x00000000        0x0 build/obj/vectors.o
 .text          0x00000000        0x0 build/obj/chsys.o
 .data          0x00000000        0x0 build/obj/chsys.o
 .bss           0x00000000        0x0 build/obj/chsys.o
 .text.chSysIntegrityCheckI
                0x00000000       0xb0 build/obj/chsys.o
 .text.chSysGetStatusAndLockX
                0x00000000       0x20 build/obj/chsys.o
 .text.chSysRestoreStatusX
                0x00000000       0x20 build/obj/chsys.o
 .text.chSysIsCounterWithinX
                0x00000000       0x10 build/obj/chsys.o
 .text          0x00000000        0x0 build/obj/chdebug.o
 .data          0x00000000        0x0 build/obj/chdebug.o
 .bss           0x00000000        0x0 build/obj/chdebug.o
 .debug_info    0x00000000      0x62a build/obj/chdebug.o
 .debug_abbrev  0x00000000      0x125 build/obj/chdebug.o
 .debug_aranges
                0x00000000       0x18 build/obj/chdebug.o
 .debug_line    0x00000000      0x20f build/obj/chdebug.o
 .debug_str     0x00000000      0x546 build/obj/chdebug.o
 .comment       0x00000000       0x71 build/obj/chdebug.o
 .ARM.attributes
                0x00000000       0x33 build/obj/chdebug.o
 .text          0x00000000        0x0 build/obj/chvt.o
 .data          0x00000000        0x0 build/obj/chvt.o
 .bss           0x00000000        0x0 build/obj/chvt.o
 .text          0x00000000        0x0 build/obj/chschd.o
 .data          0x00000000        0x0 build/obj/chschd.o
 .bss           0x00000000        0x0 build/obj/chschd.o
 .text          0x00000000        0x0 build/obj/chthreads.o
 .data          0x00000000        0x0 build/obj/chthreads.o
 .bss           0x00000000        0x0 build/obj/chthreads.o
 .text.chThdStart
                0x00000000       0x20 build/obj/chthreads.o
 .text.chThdSetPriority
                0x00000000       0x30 build/obj/chthreads.o
 .text.chThdTerminate
                0x00000000       0x20 build/obj/chthreads.o
 .text.chThdSleepUntil
                0x00000000       0x20 build/obj/chthreads.o
 .text.chThdSleepUntilWindowed
                0x00000000       0x30 build/obj/chthreads.o
 .text.chThdSuspendTimeoutS
                0x00000000       0x20 build/obj/chthreads.o
 .text.chThdResumeS
                0x00000000       0x10 build/obj/chthreads.o
 .text.chThdResume
                0x00000000       0x20 build/obj/chthreads.o
 .text.chThdDequeueAllI
                0x00000000       0x30 build/obj/chthreads.o
 .text          0x00000000        0x0 build/obj/chtm.o
 .data          0x00000000        0x0 build/obj/chtm.o
 .bss           0x00000000        0x0 build/obj/chtm.o
 .text.chTMObjectInit
                0x00000000       0x20 build/obj/chtm.o
 .text.chTMChainMeasurementToX
                0x00000000       0x40 build/obj/chtm.o
 .text          0x00000000        0x0 build/obj/chdynamic.o
 .data          0x00000000        0x0 build/obj/chdynamic.o
 .bss           0x00000000        0x0 build/obj/chdynamic.o
 .text.chThdAddRef
                0x00000000       0x20 build/obj/chdynamic.o
 .text.chThdCreateFromMemoryPool
                0x00000000       0x40 build/obj/chdynamic.o
 .text          0x00000000        0x0 build/obj/chregistry.o
 .data          0x00000000        0x0 build/obj/chregistry.o
 .bss           0x00000000        0x0 build/obj/chregistry.o
 .text.chRegFirstThread
                0x00000000       0x20 build/obj/chregistry.o
 .text.chRegNextThread
                0x00000000       0x30 build/obj/chregistry.o
 .text          0x00000000        0x0 build/obj/chsem.o
 .data          0x00000000        0x0 build/obj/chsem.o
 .bss           0x00000000        0x0 build/obj/chsem.o
 .text.chSemResetI
                0x00000000       0x30 build/obj/chsem.o
 .text.chSemReset
                0x00000000       0x20 build/obj/chsem.o
 .text.chSemWaitTimeoutS
                0x00000000       0x40 build/obj/chsem.o
 .text.chSemWaitTimeout
                0x00000000       0x20 build/obj/chsem.o
 .text.chSemSignal
                0x00000000       0x40 build/obj/chsem.o
 .text.chSemAddCounterI
                0x00000000       0x30 build/obj/chsem.o
 .text.chSemSignalWait
                0x00000000       0x70 build/obj/chsem.o
 .text          0x00000000        0x0 build/obj/chmtx.o
 .data          0x00000000        0x0 build/obj/chmtx.o
 .bss           0x00000000        0x0 build/obj/chmtx.o
 .text.chMtxTryLock
                0x00000000       0x30 build/obj/chmtx.o
 .text.chMtxTryLockS
                0x00000000       0x20 build/obj/chmtx.o
 .text.chMtxUnlockS
                0x00000000       0x50 build/obj/chmtx.o
 .text.chMtxUnlockAll
                0x00000000       0x60 build/obj/chmtx.o
 .text          0x00000000        0x0 build/obj/chcond.o
 .data          0x00000000        0x0 build/obj/chcond.o
 .bss           0x00000000        0x0 build/obj/chcond.o
 .text.chCondObjectInit
                0x00000000       0x10 build/obj/chcond.o
 .text.chCondSignal
                0x00000000       0x30 build/obj/chcond.o
 .text.chCondSignalI
                0x00000000       0x20 build/obj/chcond.o
 .text.chCondBroadcastI
                0x00000000       0x30 build/obj/chcond.o
 .text.chCondBroadcast
                0x00000000       0x20 build/obj/chcond.o
 .text.chCondWaitS
                0x00000000       0x50 build/obj/chcond.o
 .text.chCondWait
                0x00000000       0x20 build/obj/chcond.o
 .text.chCondWaitTimeoutS
                0x00000000       0x60 build/obj/chcond.o
 .text.chCondWaitTimeout
                0x00000000       0x20 build/obj/chcond.o
 .debug_info    0x00000000      0xf0c build/obj/chcond.o
 .debug_abbrev  0x00000000      0x3da build/obj/chcond.o
 .debug_loc     0x00000000      0x36c build/obj/chcond.o
 .debug_aranges
                0x00000000       0x60 build/obj/chcond.o
 .debug_ranges  0x00000000       0xf0 build/obj/chcond.o
 .debug_line    0x00000000      0x450 build/obj/chcond.o
 .debug_str     0x00000000      0x716 build/obj/chcond.o
 .comment       0x00000000       0x71 build/obj/chcond.o
 .ARM.attributes
                0x00000000       0x33 build/obj/chcond.o
 .debug_frame   0x00000000      0x108 build/obj/chcond.o
 .text          0x00000000        0x0 build/obj/chevents.o
 .data          0x00000000        0x0 build/obj/chevents.o
 .bss           0x00000000        0x0 build/obj/chevents.o
 .text.chEvtRegisterMaskWithFlags
                0x00000000       0x30 build/obj/chevents.o
 .text.chEvtUnregister
                0x00000000       0x30 build/obj/chevents.o
 .text.chEvtGetAndClearEvents
                0x00000000       0x20 build/obj/chevents.o
 .text.chEvtAddEvents
                0x00000000       0x20 build/obj/chevents.o
 .text.chEvtGetAndClearFlags
                0x00000000       0x20 build/obj/chevents.o
 .text.chEvtSignal
                0x00000000       0x20 build/obj/chevents.o
 .text.chEvtBroadcastFlags
                0x00000000       0x20 build/obj/chevents.o
 .text.chEvtGetAndClearFlagsI
                0x00000000       0x10 build/obj/chevents.o
 .text.chEvtWaitAny
                0x00000000       0x40 build/obj/chevents.o
 .text.chEvtWaitAll
                0x00000000       0x40 build/obj/chevents.o
 .text.chEvtWaitOneTimeout
                0x00000000       0x50 build/obj/chevents.o
 .text.chEvtWaitAnyTimeout
                0x00000000       0x50 build/obj/chevents.o
 .text.chEvtWaitAllTimeout
                0x00000000       0x50 build/obj/chevents.o
 .text          0x00000000        0x0 build/obj/chmsg.o
 .data          0x00000000        0x0 build/obj/chmsg.o
 .bss           0x00000000        0x0 build/obj/chmsg.o
 .text.chMsgSend
                0x00000000       0x40 build/obj/chmsg.o
 .text.chMsgWait
                0x00000000       0x40 build/obj/chmsg.o
 .text.chMsgRelease
                0x00000000       0x20 build/obj/chmsg.o
 .debug_info    0x00000000      0xaaa build/obj/chmsg.o
 .debug_abbrev  0x00000000      0x31f build/obj/chmsg.o
 .debug_loc     0x00000000      0x19a build/obj/chmsg.o
 .debug_aranges
                0x00000000       0x30 build/obj/chmsg.o
 .debug_ranges  0x00000000       0x80 build/obj/chmsg.o
 .debug_line    0x00000000      0x321 build/obj/chmsg.o
 .debug_str     0x00000000      0x618 build/obj/chmsg.o
 .comment       0x00000000       0x71 build/obj/chmsg.o
 .ARM.attributes
                0x00000000       0x33 build/obj/chmsg.o
 .debug_frame   0x00000000       0x68 build/obj/chmsg.o
 .text          0x00000000        0x0 build/obj/chmboxes.o
 .data          0x00000000        0x0 build/obj/chmboxes.o
 .bss           0x00000000        0x0 build/obj/chmboxes.o
 .text.chMBObjectInit
                0x00000000       0x30 build/obj/chmboxes.o
 .text.chMBResetI
                0x00000000       0x30 build/obj/chmboxes.o
 .text.chMBReset
                0x00000000       0x20 build/obj/chmboxes.o
 .text.chMBPostS
                0x00000000       0x40 build/obj/chmboxes.o
 .text.chMBPost
                0x00000000       0x20 build/obj/chmboxes.o
 .text.chMBPostI
                0x00000000       0x40 build/obj/chmboxes.o
 .text.chMBPostAheadS
                0x00000000       0x40 build/obj/chmboxes.o
 .text.chMBPostAhead
                0x00000000       0x20 build/obj/chmboxes.o
 .text.chMBPostAheadI
                0x00000000       0x30 build/obj/chmboxes.o
 .text.chMBFetchS
                0x00000000       0x40 build/obj/chmboxes.o
 .text.chMBFetch
                0x00000000       0x20 build/obj/chmboxes.o
 .text.chMBFetchI
                0x00000000       0x40 build/obj/chmboxes.o
 .debug_info    0x00000000      0xfb7 build/obj/chmboxes.o
 .debug_abbrev  0x00000000      0x365 build/obj/chmboxes.o
 .debug_loc     0x00000000      0x574 build/obj/chmboxes.o
 .debug_aranges
                0x00000000       0x78 build/obj/chmboxes.o
 .debug_ranges  0x00000000       0xb0 build/obj/chmboxes.o
 .debug_line    0x00000000      0x42e build/obj/chmboxes.o
 .debug_str     0x00000000      0x6e6 build/obj/chmboxes.o
 .comment       0x00000000       0x71 build/obj/chmboxes.o
 .ARM.attributes
                0x00000000       0x33 build/obj/chmboxes.o
 .debug_frame   0x00000000      0x170 build/obj/chmboxes.o
 .text          0x00000000        0x0 build/obj/chqueues.o
 .data          0x00000000        0x0 build/obj/chqueues.o
 .bss           0x00000000        0x0 build/obj/chqueues.o
 .text.chIQResetI
                0x00000000       0x20 build/obj/chqueues.o
 .text.chOQResetI
                0x00000000       0x20 build/obj/chqueues.o
 .text          0x00000000        0x0 build/obj/chmemcore.o
 .data          0x00000000        0x0 build/obj/chmemcore.o
 .bss           0x00000000        0x0 build/obj/chmemcore.o
 .text.chCoreAllocI
                0x00000000       0x30 build/obj/chmemcore.o
 .text.chCoreGetStatusX
                0x00000000       0x20 build/obj/chmemcore.o
 .text          0x00000000        0x0 build/obj/chheap.o
 .data          0x00000000        0x0 build/obj/chheap.o
 .bss           0x00000000        0x0 build/obj/chheap.o
 .text.chHeapObjectInit
                0x00000000       0x20 build/obj/chheap.o
 .text.chHeapStatus
                0x00000000       0x40 build/obj/chheap.o
 .text          0x00000000        0x0 build/obj/chmempools.o
 .data          0x00000000        0x0 build/obj/chmempools.o
 .bss           0x00000000        0x0 build/obj/chmempools.o
 .text.chPoolObjectInit
                0x00000000       0x10 build/obj/chmempools.o
 .text.chPoolLoadArray
                0x00000000       0x30 build/obj/chmempools.o
 .text.chPoolAllocI
                0x00000000       0x20 build/obj/chmempools.o
 .text.chPoolAlloc
                0x00000000       0x30 build/obj/chmempools.o
 .text.chPoolFreeI
                0x00000000       0x10 build/obj/chmempools.o
 .text          0x00000000        0x0 build/obj/chcore.o
 .data          0x00000000        0x0 build/obj/chcore.o
 .bss           0x00000000        0x0 build/obj/chcore.o
 .debug_info    0x00000000      0x62a build/obj/chcore.o
 .debug_abbrev  0x00000000      0x125 build/obj/chcore.o
 .debug_aranges
                0x00000000       0x18 build/obj/chcore.o
 .debug_line    0x00000000      0x20f build/obj/chcore.o
 .debug_str     0x00000000      0x54e build/obj/chcore.o
 .comment       0x00000000       0x71 build/obj/chcore.o
 .ARM.attributes
                0x00000000       0x33 build/obj/chcore.o
 .text          0x00000000        0x0 build/obj/chcore_v7m.o
 .data          0x00000000        0x0 build/obj/chcore_v7m.o
 .bss           0x00000000        0x0 build/obj/chcore_v7m.o
 .text          0x00000000        0x0 build/obj/osal.o
 .data          0x00000000        0x0 build/obj/osal.o
 .bss           0x00000000        0x0 build/obj/osal.o
 .debug_info    0x00000000      0x62a build/obj/osal.o
 .debug_abbrev  0x00000000      0x125 build/obj/osal.o
 .debug_aranges
                0x00000000       0x18 build/obj/osal.o
 .debug_line    0x00000000      0x20f build/obj/osal.o
 .debug_str     0x00000000      0x548 build/obj/osal.o
 .comment       0x00000000       0x71 build/obj/osal.o
 .ARM.attributes
                0x00000000       0x33 build/obj/osal.o
 .text          0x00000000        0x0 build/obj/hal.o
 .data          0x00000000        0x0 build/obj/hal.o
 .bss           0x00000000        0x0 build/obj/hal.o
 .text          0x00000000        0x0 build/obj/st.o
 .data          0x00000000        0x0 build/obj/st.o
 .bss           0x00000000        0x0 build/obj/st.o
 .text.stGetAlarm
                0x00000000       0x10 build/obj/st.o
 .text          0x00000000        0x0 build/obj/hal_buffers.o
 .data          0x00000000        0x0 build/obj/hal_buffers.o
 .bss           0x00000000        0x0 build/obj/hal_buffers.o
 .text.ibqObjectInit
                0x00000000       0x30 build/obj/hal_buffers.o
 .text.ibqResetI
                0x00000000       0x20 build/obj/hal_buffers.o
 .text.ibqGetEmptyBufferI
                0x00000000       0x20 build/obj/hal_buffers.o
 .text.ibqPostFullBufferI
                0x00000000       0x30 build/obj/hal_buffers.o
 .text.ibqGetFullBufferTimeoutS
                0x00000000       0x30 build/obj/hal_buffers.o
 .text.ibqGetFullBufferTimeout
                0x00000000       0x20 build/obj/hal_buffers.o
 .text.ibqReleaseEmptyBufferS
                0x00000000       0x30 build/obj/hal_buffers.o
 .text.ibqReleaseEmptyBuffer
                0x00000000       0x20 build/obj/hal_buffers.o
 .text.ibqGetTimeout
                0x00000000       0x50 build/obj/hal_buffers.o
 .text.ibqReadTimeout
                0x00000000      0x110 build/obj/hal_buffers.o
 .text.obqObjectInit
                0x00000000       0x30 build/obj/hal_buffers.o
 .text.obqResetI
                0x00000000       0x20 build/obj/hal_buffers.o
 .text.obqGetFullBufferI
                0x00000000       0x20 build/obj/hal_buffers.o
 .text.obqReleaseEmptyBufferI
                0x00000000       0x30 build/obj/hal_buffers.o
 .text.obqGetEmptyBufferTimeoutS
                0x00000000       0x30 build/obj/hal_buffers.o
 .text.obqGetEmptyBufferTimeout
                0x00000000       0x20 build/obj/hal_buffers.o
 .text.obqPostFullBufferS
                0x00000000       0x30 build/obj/hal_buffers.o
 .text.obqPostFullBuffer
                0x00000000       0x20 build/obj/hal_buffers.o
 .text.obqPutTimeout
                0x00000000       0x50 build/obj/hal_buffers.o
 .text.obqWriteTimeout
                0x00000000      0x110 build/obj/hal_buffers.o
 .text.obqTryFlushI
                0x00000000       0x50 build/obj/hal_buffers.o
 .text.obqFlush
                0x00000000       0x20 build/obj/hal_buffers.o
 .debug_info    0x00000000     0x1ff9 build/obj/hal_buffers.o
 .debug_abbrev  0x00000000      0x4a5 build/obj/hal_buffers.o
 .debug_loc     0x00000000      0xb5f build/obj/hal_buffers.o
 .debug_aranges
                0x00000000       0xc8 build/obj/hal_buffers.o
 .debug_ranges  0x00000000      0x310 build/obj/hal_buffers.o
 .debug_line    0x00000000      0x8b6 build/obj/hal_buffers.o
 .debug_str     0x00000000      0x968 build/obj/hal_buffers.o
 .comment       0x00000000       0x71 build/obj/hal_buffers.o
 .ARM.attributes
                0x00000000       0x33 build/obj/hal_buffers.o
 .debug_frame   0x00000000      0x28c build/obj/hal_buffers.o
 .text          0x00000000        0x0 build/obj/hal_queues.o
 .data          0x00000000        0x0 build/obj/hal_queues.o
 .bss           0x00000000        0x0 build/obj/hal_queues.o
 .debug_info    0x00000000      0x631 build/obj/hal_queues.o
 .debug_abbrev  0x00000000      0x125 build/obj/hal_queues.o
 .debug_aranges
                0x00000000       0x18 build/obj/hal_queues.o
 .debug_line    0x00000000      0x20f build/obj/hal_queues.o
 .debug_str     0x00000000      0x550 build/obj/hal_queues.o
 .comment       0x00000000       0x71 build/obj/hal_queues.o
 .ARM.attributes
                0x00000000       0x33 build/obj/hal_queues.o
 .text          0x00000000        0x0 build/obj/hal_mmcsd.o
 .data          0x00000000        0x0 build/obj/hal_mmcsd.o
 .bss           0x00000000        0x0 build/obj/hal_mmcsd.o
 .text._mmcsd_get_capacity_ext
                0x00000000       0x20 build/obj/hal_mmcsd.o
 .text._mmcsd_unpack_sdc_cid
                0x00000000       0xb0 build/obj/hal_mmcsd.o
 .text._mmcsd_unpack_mmc_cid
                0x00000000       0xc0 build/obj/hal_mmcsd.o
 .text._mmcsd_unpack_csd_mmc
                0x00000000      0x190 build/obj/hal_mmcsd.o
 .text._mmcsd_unpack_csd_v10
                0x00000000      0x140 build/obj/hal_mmcsd.o
 .text._mmcsd_unpack_csd_v20
                0x00000000      0x130 build/obj/hal_mmcsd.o
 .text          0x00000000        0x0 build/obj/adc.o
 .data          0x00000000        0x0 build/obj/adc.o
 .bss           0x00000000        0x0 build/obj/adc.o
 .text.adcStop  0x00000000       0x20 build/obj/adc.o
 .text.adcStartConversionI
                0x00000000       0x20 build/obj/adc.o
 .text.adcStopConversion
                0x00000000       0x30 build/obj/adc.o
 .text.adcStopConversionI
                0x00000000       0x30 build/obj/adc.o
 .text.adcConvert
                0x00000000       0x30 build/obj/adc.o
 .text.adcAcquireBus
                0x00000000       0x10 build/obj/adc.o
 .text.adcReleaseBus
                0x00000000       0x10 build/obj/adc.o
 .text          0x00000000        0x0 build/obj/gpt.o
 .data          0x00000000        0x0 build/obj/gpt.o
 .bss           0x00000000        0x0 build/obj/gpt.o
 .text.gptStop  0x00000000       0x20 build/obj/gpt.o
 .text.gptChangeInterval
                0x00000000       0x20 build/obj/gpt.o
 .text.gptStartContinuousI
                0x00000000       0x10 build/obj/gpt.o
 .text.gptStartOneShot
                0x00000000       0x20 build/obj/gpt.o
 .text.gptStartOneShotI
                0x00000000       0x10 build/obj/gpt.o
 .text.gptStopTimer
                0x00000000       0x20 build/obj/gpt.o
 .text.gptStopTimerI
                0x00000000       0x10 build/obj/gpt.o
 .text.gptPolledDelay
                0x00000000       0x20 build/obj/gpt.o
 .text          0x00000000        0x0 build/obj/mmc_spi.o
 .data          0x00000000        0x0 build/obj/mmc_spi.o
 .bss           0x00000000        0x0 build/obj/mmc_spi.o
 .text.mmcStop  0x00000000       0x20 build/obj/mmc_spi.o
 .text.mmcErase
                0x00000000       0x50 build/obj/mmc_spi.o
 .text          0x00000000        0x0 build/obj/pal.o
 .data          0x00000000        0x0 build/obj/pal.o
 .bss           0x00000000        0x0 build/obj/pal.o
 .text.palReadBus
                0x00000000       0x10 build/obj/pal.o
 .text.palWriteBus
                0x00000000       0x20 build/obj/pal.o
 .text.palSetBusMode
                0x00000000       0x20 build/obj/pal.o
 .debug_info    0x00000000      0x8b2 build/obj/pal.o
 .debug_abbrev  0x00000000      0x1dc build/obj/pal.o
 .debug_loc     0x00000000       0x8f build/obj/pal.o
 .debug_aranges
                0x00000000       0x30 build/obj/pal.o
 .debug_ranges  0x00000000       0x20 build/obj/pal.o
 .debug_line    0x00000000      0x2c1 build/obj/pal.o
 .debug_str     0x00000000      0x62d build/obj/pal.o
 .comment       0x00000000       0x71 build/obj/pal.o
 .ARM.attributes
                0x00000000       0x33 build/obj/pal.o
 .debug_frame   0x00000000       0x54 build/obj/pal.o
 .text          0x00000000        0x0 build/obj/serial.o
 .data          0x00000000        0x0 build/obj/serial.o
 .bss           0x00000000        0x0 build/obj/serial.o
 .text.sdStop   0x00000000       0x30 build/obj/serial.o
 .text.sdRequestDataI
                0x00000000       0x20 build/obj/serial.o
 .text.sdPutWouldBlock
                0x00000000       0x20 build/obj/serial.o
 .text.sdGetWouldBlock
                0x00000000       0x20 build/obj/serial.o
 .text          0x00000000        0x0 build/obj/spi.o
 .data          0x00000000        0x0 build/obj/spi.o
 .bss           0x00000000        0x0 build/obj/spi.o
 .text.spiStartIgnore
                0x00000000       0x20 build/obj/spi.o
 .text.spiStartExchange
                0x00000000       0x20 build/obj/spi.o
 .text.spiStartSend
                0x00000000       0x20 build/obj/spi.o
 .text.spiStartReceive
                0x00000000       0x20 build/obj/spi.o
 .text.spiExchange
                0x00000000       0x30 build/obj/spi.o
 .text.spiAcquireBus
                0x00000000       0x10 build/obj/spi.o
 .text.spiReleaseBus
                0x00000000       0x10 build/obj/spi.o
 .text          0x00000000        0x0 build/obj/nvic.o
 .data          0x00000000        0x0 build/obj/nvic.o
 .bss           0x00000000        0x0 build/obj/nvic.o
 .text.nvicSetSystemHandlerPriority
                0x00000000       0x10 build/obj/nvic.o
 .text.nvicClearPending
                0x00000000       0x20 build/obj/nvic.o
 .text          0x00000000        0x0 build/obj/hal_lld.o
 .data          0x00000000        0x0 build/obj/hal_lld.o
 .bss           0x00000000        0x0 build/obj/hal_lld.o
 .data.SystemCoreClock
                0x00000000        0x4 build/obj/hal_lld.o
 .text          0x00000000        0x0 build/obj/stm32_dma.o
 .data          0x00000000        0x0 build/obj/stm32_dma.o
 .bss           0x00000000        0x0 build/obj/stm32_dma.o
 .text          0x00000000        0x0 build/obj/st_lld.o
 .data          0x00000000        0x0 build/obj/st_lld.o
 .bss           0x00000000        0x0 build/obj/st_lld.o
 .text          0x00000000        0x0 build/obj/adc_lld.o
 .data          0x00000000        0x0 build/obj/adc_lld.o
 .bss           0x00000000        0x0 build/obj/adc_lld.o
 .text.adc_lld_stop
                0x00000000       0x90 build/obj/adc_lld.o
 .text.adcSTM32EnableVREF
                0x00000000       0x10 build/obj/adc_lld.o
 .text.adcSTM32DisableVREF
                0x00000000       0x10 build/obj/adc_lld.o
 .text.adcSTM32EnableTS
                0x00000000       0x10 build/obj/adc_lld.o
 .text.adcSTM32DisableTS
                0x00000000       0x10 build/obj/adc_lld.o
 .text.adcSTM32EnableVBAT
                0x00000000       0x10 build/obj/adc_lld.o
 .text.adcSTM32DisableVBAT
                0x00000000       0x10 build/obj/adc_lld.o
 .text          0x00000000        0x0 build/obj/pal_lld.o
 .data          0x00000000        0x0 build/obj/pal_lld.o
 .bss           0x00000000        0x0 build/obj/pal_lld.o
 .text          0x00000000        0x0 build/obj/spi_lld.o
 .data          0x00000000        0x0 build/obj/spi_lld.o
 .bss           0x00000000        0x0 build/obj/spi_lld.o
 .text.spi_lld_exchange
                0x00000000       0x40 build/obj/spi_lld.o
 .text.spi_lld_polled_exchange
                0x00000000       0x40 build/obj/spi_lld.o
 .text          0x00000000        0x0 build/obj/gpt_lld.o
 .data          0x00000000        0x0 build/obj/gpt_lld.o
 .bss           0x00000000        0x0 build/obj/gpt_lld.o
 .text.gpt_lld_stop
                0x00000000       0x40 build/obj/gpt_lld.o
 .text.gpt_lld_stop_timer
                0x00000000       0x20 build/obj/gpt_lld.o
 .text.gpt_lld_polled_delay
                0x00000000       0x20 build/obj/gpt_lld.o
 .text          0x00000000        0x0 build/obj/serial_lld.o
 .data          0x00000000        0x0 build/obj/serial_lld.o
 .bss           0x00000000        0x0 build/obj/serial_lld.o
 .text.sd_lld_stop
                0x00000000       0x30 build/obj/serial_lld.o
 .text          0x00000000        0x0 build/obj/board.o
 .data          0x00000000        0x0 build/obj/board.o
 .bss           0x00000000        0x0 build/obj/board.o
 .text          0x00000000        0x0 build/obj/test.o
 .data          0x00000000        0x0 build/obj/test.o
 .bss           0x00000000        0x0 build/obj/test.o
 .text.tmr      0x00000000       0x10 build/obj/test.o
 .text.print_line
                0x00000000       0x30 build/obj/test.o
 .text.test_printn
                0x00000000       0x70 build/obj/test.o
 .text.test_print
                0x00000000       0x20 build/obj/test.o
 .text.test_println
                0x00000000       0x30 build/obj/test.o
 .text.test_emit_token
                0x00000000       0x20 build/obj/test.o
 .text._test_fail
                0x00000000       0x20 build/obj/test.o
 .text._test_assert
                0x00000000       0x30 build/obj/test.o
 .text._test_assert_sequence
                0x00000000       0x50 build/obj/test.o
 .text._test_assert_time_window
                0x00000000       0x40 build/obj/test.o
 .text.test_terminate_threads
                0x00000000       0x20 build/obj/test.o
 .text.test_wait_threads
                0x00000000       0x30 build/obj/test.o
 .text.test_wait_tick
                0x00000000       0x20 build/obj/test.o
 .text.test_start_timer
                0x00000000       0x50 build/obj/test.o
 .text.TestThread
                0x00000000      0x320 build/obj/test.o
 .bss.test      0x00000000      0x668 build/obj/test.o
 .bss.failpoint
                0x00000000        0x4 build/obj/test.o
 .bss.local_fail
                0x00000000        0x1 build/obj/test.o
 .bss.test_timer_done
                0x00000000        0x1 build/obj/test.o
 .rodata.wa     0x00000000       0x14 build/obj/test.o
 .bss.tokp      0x00000000        0x4 build/obj/test.o
 .rodata.patterns
                0x00000000       0x34 build/obj/test.o
 .rodata.str1.4
                0x00000000      0x210 build/obj/test.o
 .bss.vt        0x00000000       0x14 build/obj/test.o
 .bss.threads   0x00000000       0x14 build/obj/test.o
 .bss.chp       0x00000000        0x4 build/obj/test.o
 .bss.tokens_buffer
                0x00000000       0x10 build/obj/test.o
 .bss.test_global_fail
                0x00000000        0x1 build/obj/test.o
 .debug_info    0x00000000     0x19c9 build/obj/test.o
 .debug_abbrev  0x00000000      0x602 build/obj/test.o
 .debug_loc     0x00000000      0x92a build/obj/test.o
 .debug_aranges
                0x00000000       0x90 build/obj/test.o
 .debug_ranges  0x00000000      0x178 build/obj/test.o
 .debug_line    0x00000000      0x6d3 build/obj/test.o
 .debug_str     0x00000000      0x956 build/obj/test.o
 .comment       0x00000000       0x71 build/obj/test.o
 .ARM.attributes
                0x00000000       0x33 build/obj/test.o
 .debug_frame   0x00000000      0x1c0 build/obj/test.o
 .text          0x00000000        0x0 build/obj/testthd.o
 .data          0x00000000        0x0 build/obj/testthd.o
 .bss           0x00000000        0x0 build/obj/testthd.o
 .text.thd1_execute
                0x00000000       0xd0 build/obj/testthd.o
 .text.thread   0x00000000       0x10 build/obj/testthd.o
 .text.thd2_execute
                0x00000000       0xe0 build/obj/testthd.o
 .text.thd3_execute
                0x00000000      0x140 build/obj/testthd.o
 .text.thd4_execute
                0x00000000       0xa0 build/obj/testthd.o
 .rodata.testthd1
                0x00000000       0x10 build/obj/testthd.o
 .rodata.testthd2
                0x00000000       0x10 build/obj/testthd.o
 .rodata.testthd3
                0x00000000       0x10 build/obj/testthd.o
 .rodata.testthd4
                0x00000000       0x10 build/obj/testthd.o
 .rodata.patternthd
                0x00000000       0x14 build/obj/testthd.o
 .rodata.str1.4
                0x00000000       0x80 build/obj/testthd.o
 .debug_info    0x00000000     0x1542 build/obj/testthd.o
 .debug_abbrev  0x00000000      0x38b build/obj/testthd.o
 .debug_loc     0x00000000       0x89 build/obj/testthd.o
 .debug_aranges
                0x00000000       0x40 build/obj/testthd.o
 .debug_ranges  0x00000000       0xd8 build/obj/testthd.o
 .debug_line    0x00000000      0x547 build/obj/testthd.o
 .debug_str     0x00000000      0x7b6 build/obj/testthd.o
 .comment       0x00000000       0x71 build/obj/testthd.o
 .ARM.attributes
                0x00000000       0x33 build/obj/testthd.o
 .debug_frame   0x00000000       0xb8 build/obj/testthd.o
 .text          0x00000000        0x0 build/obj/testsem.o
 .data          0x00000000        0x0 build/obj/testsem.o
 .bss           0x00000000        0x0 build/obj/testsem.o
 .text.sem1_execute
                0x00000000      0x150 build/obj/testsem.o
 .text.thread3  0x00000000       0x20 build/obj/testsem.o
 .text.thread1  0x00000000       0x20 build/obj/testsem.o
 .text.sem1_setup
                0x00000000       0x10 build/obj/testsem.o
 .text.sem2_setup
                0x00000000       0x10 build/obj/testsem.o
 .text.sem3_setup
                0x00000000       0x10 build/obj/testsem.o
 .text.thread2  0x00000000       0x30 build/obj/testsem.o
 .text.sem2_execute
                0x00000000      0x160 build/obj/testsem.o
 .text.sem3_execute
                0x00000000       0xa0 build/obj/testsem.o
 .text.thread4  0x00000000       0x30 build/obj/testsem.o
 .text.sem4_execute
                0x00000000      0x150 build/obj/testsem.o
 .rodata.testsem1
                0x00000000       0x10 build/obj/testsem.o
 .rodata.testsem2
                0x00000000       0x10 build/obj/testsem.o
 .rodata.testsem3
                0x00000000       0x10 build/obj/testsem.o
 .rodata.testsem4
                0x00000000       0x10 build/obj/testsem.o
 .data.sem1     0x00000000        0xc build/obj/testsem.o
 .rodata.patternsem
                0x00000000       0x14 build/obj/testsem.o
 .rodata.str1.4
                0x00000000       0x8c build/obj/testsem.o
 .debug_info    0x00000000     0x1ebf build/obj/testsem.o
 .debug_abbrev  0x00000000      0x42a build/obj/testsem.o
 .debug_loc     0x00000000      0x61a build/obj/testsem.o
 .debug_aranges
                0x00000000       0x70 build/obj/testsem.o
 .debug_ranges  0x00000000      0x180 build/obj/testsem.o
 .debug_line    0x00000000      0x66a build/obj/testsem.o
 .debug_str     0x00000000      0x8e2 build/obj/testsem.o
 .comment       0x00000000       0x71 build/obj/testsem.o
 .ARM.attributes
                0x00000000       0x33 build/obj/testsem.o
 .debug_frame   0x00000000      0x140 build/obj/testsem.o
 .text          0x00000000        0x0 build/obj/testmtx.o
 .data          0x00000000        0x0 build/obj/testmtx.o
 .bss           0x00000000        0x0 build/obj/testmtx.o
 .text.mtx1_execute
                0x00000000       0xe0 build/obj/testmtx.o
 .text.thread1  0x00000000       0x20 build/obj/testmtx.o
 .text.thread12
                0x00000000       0x20 build/obj/testmtx.o
 .text.mtx1_setup
                0x00000000       0x10 build/obj/testmtx.o
 .text.mtx4_setup
                0x00000000       0x20 build/obj/testmtx.o
 .text.mtx5_setup
                0x00000000       0x10 build/obj/testmtx.o
 .text.thread4b
                0x00000000       0x20 build/obj/testmtx.o
 .text.thread4a
                0x00000000       0x20 build/obj/testmtx.o
 .text.mtx4_execute
                0x00000000      0x270 build/obj/testmtx.o
 .text.mtx5_execute
                0x00000000       0xc0 build/obj/testmtx.o
 .text.mtx6_execute
                0x00000000       0xf0 build/obj/testmtx.o
 .text.thread10
                0x00000000       0x30 build/obj/testmtx.o
 .text.mtx6_setup
                0x00000000       0x20 build/obj/testmtx.o
 .text.mtx7_setup
                0x00000000       0x20 build/obj/testmtx.o
 .text.mtx8_setup
                0x00000000       0x30 build/obj/testmtx.o
 .text.mtx7_execute
                0x00000000       0xc0 build/obj/testmtx.o
 .text.mtx8_execute
                0x00000000       0xa0 build/obj/testmtx.o
 .text.thread11
                0x00000000       0x40 build/obj/testmtx.o
 .rodata.testmtx5
                0x00000000       0x10 build/obj/testmtx.o
 .rodata.testmtx6
                0x00000000       0x10 build/obj/testmtx.o
 .rodata.testmtx7
                0x00000000       0x10 build/obj/testmtx.o
 .rodata.testmtx8
                0x00000000       0x10 build/obj/testmtx.o
 .data.m1       0x00000000       0x10 build/obj/testmtx.o
 .data.m2       0x00000000       0x10 build/obj/testmtx.o
 .rodata.str1.4
                0x00000000       0xb4 build/obj/testmtx.o
 .rodata.patternmtx
                0x00000000       0x1c build/obj/testmtx.o
 .data.c1       0x00000000        0x8 build/obj/testmtx.o
 .rodata.testmtx1
                0x00000000       0x10 build/obj/testmtx.o
 .rodata.testmtx4
                0x00000000       0x10 build/obj/testmtx.o
 .debug_info    0x00000000     0x1b63 build/obj/testmtx.o
 .debug_abbrev  0x00000000      0x3a5 build/obj/testmtx.o
 .debug_loc     0x00000000      0x141 build/obj/testmtx.o
 .debug_aranges
                0x00000000       0xa8 build/obj/testmtx.o
 .debug_ranges  0x00000000      0x170 build/obj/testmtx.o
 .debug_line    0x00000000      0x6c1 build/obj/testmtx.o
 .debug_str     0x00000000      0x853 build/obj/testmtx.o
 .comment       0x00000000       0x71 build/obj/testmtx.o
 .ARM.attributes
                0x00000000       0x33 build/obj/testmtx.o
 .debug_frame   0x00000000      0x24c build/obj/testmtx.o
 .text          0x00000000        0x0 build/obj/testmsg.o
 .data          0x00000000        0x0 build/obj/testmsg.o
 .bss           0x00000000        0x0 build/obj/testmsg.o
 .text.msg1_execute
                0x00000000       0x80 build/obj/testmsg.o
 .text.thread   0x00000000       0x20 build/obj/testmsg.o
 .rodata.testmsg1
                0x00000000       0x10 build/obj/testmsg.o
 .rodata.str1.4
                0x00000000       0x14 build/obj/testmsg.o
 .rodata.patternmsg
                0x00000000        0x8 build/obj/testmsg.o
 .debug_info    0x00000000      0x979 build/obj/testmsg.o
 .debug_abbrev  0x00000000      0x289 build/obj/testmsg.o
 .debug_loc     0x00000000       0x60 build/obj/testmsg.o
 .debug_aranges
                0x00000000       0x28 build/obj/testmsg.o
 .debug_ranges  0x00000000       0x48 build/obj/testmsg.o
 .debug_line    0x00000000      0x334 build/obj/testmsg.o
 .debug_str     0x00000000      0x639 build/obj/testmsg.o
 .comment       0x00000000       0x71 build/obj/testmsg.o
 .ARM.attributes
                0x00000000       0x33 build/obj/testmsg.o
 .debug_frame   0x00000000       0x48 build/obj/testmsg.o
 .text          0x00000000        0x0 build/obj/testmbox.o
 .data          0x00000000        0x0 build/obj/testmbox.o
 .bss           0x00000000        0x0 build/obj/testmbox.o
 .text.mbox1_execute
                0x00000000      0x610 build/obj/testmbox.o
 .text.mbox1_setup
                0x00000000       0x20 build/obj/testmbox.o
 .data.mb1      0x00000000       0x28 build/obj/testmbox.o
 .rodata.patternmbox
                0x00000000        0x8 build/obj/testmbox.o
 .rodata.str1.4
                0x00000000       0x28 build/obj/testmbox.o
 .rodata.testmbox1
                0x00000000       0x10 build/obj/testmbox.o
 .debug_info    0x00000000     0x1ee8 build/obj/testmbox.o
 .debug_abbrev  0x00000000      0x334 build/obj/testmbox.o
 .debug_loc     0x00000000      0x71d build/obj/testmbox.o
 .debug_aranges
                0x00000000       0x28 build/obj/testmbox.o
 .debug_ranges  0x00000000       0x90 build/obj/testmbox.o
 .debug_line    0x00000000      0x527 build/obj/testmbox.o
 .debug_str     0x00000000      0x729 build/obj/testmbox.o
 .comment       0x00000000       0x71 build/obj/testmbox.o
 .ARM.attributes
                0x00000000       0x33 build/obj/testmbox.o
 .debug_frame   0x00000000       0x48 build/obj/testmbox.o
 .text          0x00000000        0x0 build/obj/testevt.o
 .data          0x00000000        0x0 build/obj/testevt.o
 .bss           0x00000000        0x0 build/obj/testevt.o
 .text.h3       0x00000000       0x10 build/obj/testevt.o
 .text.h2       0x00000000       0x10 build/obj/testevt.o
 .text.h1       0x00000000       0x10 build/obj/testevt.o
 .text.evt1_execute
                0x00000000       0x90 build/obj/testevt.o
 .text.evt1_setup
                0x00000000       0x10 build/obj/testevt.o
 .text.evt2_setup
                0x00000000       0x10 build/obj/testevt.o
 .text.evt3_setup
                0x00000000       0x10 build/obj/testevt.o
 .text.evt2_execute
                0x00000000      0x2b0 build/obj/testevt.o
 .text.thread2  0x00000000       0x30 build/obj/testevt.o
 .text.thread1  0x00000000       0x20 build/obj/testevt.o
 .text.evt3_execute
                0x00000000       0xb0 build/obj/testevt.o
 .rodata.patternevt
                0x00000000       0x10 build/obj/testevt.o
 .rodata.testevt2
                0x00000000       0x10 build/obj/testevt.o
 .rodata.str1.4
                0x00000000       0x5c build/obj/testevt.o
 .rodata.testevt1
                0x00000000       0x10 build/obj/testevt.o
 .rodata.evhndl
                0x00000000        0xc build/obj/testevt.o
 .rodata.testevt3
                0x00000000       0x10 build/obj/testevt.o
 .data.es1      0x00000000        0x4 build/obj/testevt.o
 .data.es2      0x00000000        0x4 build/obj/testevt.o
 .debug_info    0x00000000     0x1927 build/obj/testevt.o
 .debug_abbrev  0x00000000      0x3fa build/obj/testevt.o
 .debug_loc     0x00000000      0x35c build/obj/testevt.o
 .debug_aranges
                0x00000000       0x70 build/obj/testevt.o
 .debug_ranges  0x00000000      0x138 build/obj/testevt.o
 .debug_line    0x00000000      0x51e build/obj/testevt.o
 .debug_str     0x00000000      0x95e build/obj/testevt.o
 .comment       0x00000000       0x71 build/obj/testevt.o
 .ARM.attributes
                0x00000000       0x33 build/obj/testevt.o
 .debug_frame   0x00000000      0x114 build/obj/testevt.o
 .text          0x00000000        0x0 build/obj/testheap.o
 .data          0x00000000        0x0 build/obj/testheap.o
 .bss           0x00000000        0x0 build/obj/testheap.o
 .text.heap1_execute
                0x00000000      0x250 build/obj/testheap.o
 .text.heap1_setup
                0x00000000       0x20 build/obj/testheap.o
 .rodata.patternheap
                0x00000000        0x8 build/obj/testheap.o
 .rodata.str1.4
                0x00000000       0x28 build/obj/testheap.o
 .rodata.testheap1
                0x00000000       0x10 build/obj/testheap.o
 .bss.test_heap
                0x00000000       0x20 build/obj/testheap.o
 .debug_info    0x00000000      0xe61 build/obj/testheap.o
 .debug_abbrev  0x00000000      0x288 build/obj/testheap.o
 .debug_loc     0x00000000      0x157 build/obj/testheap.o
 .debug_aranges
                0x00000000       0x28 build/obj/testheap.o
 .debug_ranges  0x00000000       0x18 build/obj/testheap.o
 .debug_line    0x00000000      0x347 build/obj/testheap.o
 .debug_str     0x00000000      0x67d build/obj/testheap.o
 .comment       0x00000000       0x71 build/obj/testheap.o
 .ARM.attributes
                0x00000000       0x33 build/obj/testheap.o
 .debug_frame   0x00000000       0x44 build/obj/testheap.o
 .text          0x00000000        0x0 build/obj/testpools.o
 .data          0x00000000        0x0 build/obj/testpools.o
 .bss           0x00000000        0x0 build/obj/testpools.o
 .text.null_provider
                0x00000000       0x10 build/obj/testpools.o
 .text.pools1_setup
                0x00000000       0x10 build/obj/testpools.o
 .text.pools1_execute
                0x00000000       0xc0 build/obj/testpools.o
 .rodata.str1.4
                0x00000000       0x1c build/obj/testpools.o
 .rodata.patternpools
                0x00000000        0x8 build/obj/testpools.o
 .data.mp1      0x00000000        0xc build/obj/testpools.o
 .rodata.testpools1
                0x00000000       0x10 build/obj/testpools.o
 .debug_info    0x00000000      0x9d3 build/obj/testpools.o
 .debug_abbrev  0x00000000      0x25f build/obj/testpools.o
 .debug_loc     0x00000000       0xa6 build/obj/testpools.o
 .debug_aranges
                0x00000000       0x30 build/obj/testpools.o
 .debug_ranges  0x00000000       0x40 build/obj/testpools.o
 .debug_line    0x00000000      0x320 build/obj/testpools.o
 .debug_str     0x00000000      0x656 build/obj/testpools.o
 .comment       0x00000000       0x71 build/obj/testpools.o
 .ARM.attributes
                0x00000000       0x33 build/obj/testpools.o
 .debug_frame   0x00000000       0x50 build/obj/testpools.o
 .text          0x00000000        0x0 build/obj/testdyn.o
 .data          0x00000000        0x0 build/obj/testdyn.o
 .bss           0x00000000        0x0 build/obj/testdyn.o
 .text.dyn1_execute
                0x00000000       0xf0 build/obj/testdyn.o
 .text.thread   0x00000000       0x10 build/obj/testdyn.o
 .text.dyn1_setup
                0x00000000       0x20 build/obj/testdyn.o
 .text.dyn3_setup
                0x00000000       0x20 build/obj/testdyn.o
 .text.dyn2_execute
                0x00000000      0x100 build/obj/testdyn.o
 .text.dyn2_setup
                0x00000000       0x10 build/obj/testdyn.o
 .text.regfind  0x00000000       0x30 build/obj/testdyn.o
 .text.dyn3_execute
                0x00000000      0x140 build/obj/testdyn.o
 .rodata.testdyn1
                0x00000000       0x10 build/obj/testdyn.o
 .rodata.testdyn2
                0x00000000       0x10 build/obj/testdyn.o
 .rodata.testdyn3
                0x00000000       0x10 build/obj/testdyn.o
 .bss.mp1       0x00000000        0xc build/obj/testdyn.o
 .rodata.str1.4
                0x00000000       0xa4 build/obj/testdyn.o
 .rodata.patterndyn
                0x00000000       0x10 build/obj/testdyn.o
 .bss.heap1     0x00000000       0x20 build/obj/testdyn.o
 .debug_info    0x00000000     0x11c8 build/obj/testdyn.o
 .debug_abbrev  0x00000000      0x333 build/obj/testdyn.o
 .debug_loc     0x00000000      0x104 build/obj/testdyn.o
 .debug_aranges
                0x00000000       0x58 build/obj/testdyn.o
 .debug_ranges  0x00000000       0x98 build/obj/testdyn.o
 .debug_line    0x00000000      0x471 build/obj/testdyn.o
 .debug_str     0x00000000      0x807 build/obj/testdyn.o
 .comment       0x00000000       0x71 build/obj/testdyn.o
 .ARM.attributes
                0x00000000       0x33 build/obj/testdyn.o
 .debug_frame   0x00000000       0xd0 build/obj/testdyn.o
 .text          0x00000000        0x0 build/obj/testqueues.o
 .data          0x00000000        0x0 build/obj/testqueues.o
 .bss           0x00000000        0x0 build/obj/testqueues.o
 .text.notify   0x00000000       0x10 build/obj/testqueues.o
 .text.thread1  0x00000000       0x10 build/obj/testqueues.o
 .text.queues1_setup
                0x00000000       0x30 build/obj/testqueues.o
 .text.thread2  0x00000000       0x10 build/obj/testqueues.o
 .text.queues2_setup
                0x00000000       0x30 build/obj/testqueues.o
 .text.queues1_execute
                0x00000000      0x270 build/obj/testqueues.o
 .text.queues2_execute
                0x00000000      0x260 build/obj/testqueues.o
 .rodata.testqueues1
                0x00000000       0x10 build/obj/testqueues.o
 .rodata.testqueues2
                0x00000000       0x10 build/obj/testqueues.o
 .rodata.str1.4
                0x00000000       0x38 build/obj/testqueues.o
 .rodata.patternqueues
                0x00000000        0xc build/obj/testqueues.o
 .data.oq       0x00000000       0x24 build/obj/testqueues.o
 .data.iq       0x00000000       0x24 build/obj/testqueues.o
 .debug_info    0x00000000     0x2285 build/obj/testqueues.o
 .debug_abbrev  0x00000000      0x3c0 build/obj/testqueues.o
 .debug_loc     0x00000000      0x61d build/obj/testqueues.o
 .debug_aranges
                0x00000000       0x50 build/obj/testqueues.o
 .debug_ranges  0x00000000      0x148 build/obj/testqueues.o
 .debug_line    0x00000000      0x613 build/obj/testqueues.o
 .debug_str     0x00000000      0x83a build/obj/testqueues.o
 .comment       0x00000000       0x71 build/obj/testqueues.o
 .ARM.attributes
                0x00000000       0x33 build/obj/testqueues.o
 .debug_frame   0x00000000       0xcc build/obj/testqueues.o
 .text          0x00000000        0x0 build/obj/testsys.o
 .data          0x00000000        0x0 build/obj/testsys.o
 .bss           0x00000000        0x0 build/obj/testsys.o
 .text.sys2_execute
                0x00000000       0x20 build/obj/testsys.o
 .text.vtcb     0x00000000       0x20 build/obj/testsys.o
 .text.sys3_execute
                0x00000000       0x90 build/obj/testsys.o
 .text.sys1_execute
                0x00000000       0xb0 build/obj/testsys.o
 .rodata.testsys1
                0x00000000       0x10 build/obj/testsys.o
 .rodata.testsys2
                0x00000000       0x10 build/obj/testsys.o
 .rodata.testsys3
                0x00000000       0x10 build/obj/testsys.o
 .rodata.str1.4
                0x00000000       0x48 build/obj/testsys.o
 .rodata.patternsys
                0x00000000       0x10 build/obj/testsys.o
 .debug_info    0x00000000     0x1566 build/obj/testsys.o
 .debug_abbrev  0x00000000      0x38c build/obj/testsys.o
 .debug_loc     0x00000000      0x1fc build/obj/testsys.o
 .debug_aranges
                0x00000000       0x38 build/obj/testsys.o
 .debug_ranges  0x00000000       0x58 build/obj/testsys.o
 .debug_line    0x00000000      0x451 build/obj/testsys.o
 .debug_str     0x00000000      0x7f8 build/obj/testsys.o
 .comment       0x00000000       0x71 build/obj/testsys.o
 .ARM.attributes
                0x00000000       0x33 build/obj/testsys.o
 .debug_frame   0x00000000       0x78 build/obj/testsys.o
 .text          0x00000000        0x0 build/obj/testbmk.o
 .data          0x00000000        0x0 build/obj/testbmk.o
 .bss           0x00000000        0x0 build/obj/testbmk.o
 .text.tmo      0x00000000       0x10 build/obj/testbmk.o
 .text.bmk13_execute
                0x00000000       0xf0 build/obj/testbmk.o
 .text.thread2  0x00000000       0x20 build/obj/testbmk.o
 .text.bmk6_execute
                0x00000000       0x70 build/obj/testbmk.o
 .text.msg_loop_test
                0x00000000       0x40 build/obj/testbmk.o
 .text.bmk1_execute
                0x00000000       0x70 build/obj/testbmk.o
 .text.bmk2_execute
                0x00000000       0x70 build/obj/testbmk.o
 .text.bmk3_execute
                0x00000000       0xe0 build/obj/testbmk.o
 .text.thread1  0x00000000       0x10 build/obj/testbmk.o
 .text.bmk4_execute
                0x00000000       0xc0 build/obj/testbmk.o
 .text.thread4  0x00000000       0x30 build/obj/testbmk.o
 .text.bmk5_execute
                0x00000000       0x80 build/obj/testbmk.o
 .text.bmk7_execute
                0x00000000      0x110 build/obj/testbmk.o
 .text.thread3  0x00000000       0x30 build/obj/testbmk.o
 .text.bmk7_setup
                0x00000000       0x10 build/obj/testbmk.o
 .text.bmk11_setup
                0x00000000       0x10 build/obj/testbmk.o
 .text.bmk8_execute
                0x00000000       0xe0 build/obj/testbmk.o
 .text.thread8  0x00000000       0x30 build/obj/testbmk.o
 .text.bmk9_execute
                0x00000000       0xb0 build/obj/testbmk.o
 .text.bmk10_execute
                0x00000000       0x80 build/obj/testbmk.o
 .text.bmk11_execute
                0x00000000       0x70 build/obj/testbmk.o
 .text.bmk12_execute
                0x00000000       0x70 build/obj/testbmk.o
 .text.bmk12_setup
                0x00000000       0x10 build/obj/testbmk.o
 .bss.vt1.6551  0x00000000       0x14 build/obj/testbmk.o
 .rodata.patternbmk
                0x00000000       0x38 build/obj/testbmk.o
 .rodata.testbmk8
                0x00000000       0x10 build/obj/testbmk.o
 .rodata.testbmk3
                0x00000000       0x10 build/obj/testbmk.o
 .rodata.testbmk10
                0x00000000       0x10 build/obj/testbmk.o
 .rodata.testbmk4
                0x00000000       0x10 build/obj/testbmk.o
 .bss.iq.6541   0x00000000       0x24 build/obj/testbmk.o
 .bss.mtx1      0x00000000       0x10 build/obj/testbmk.o
 .rodata.testbmk12
                0x00000000       0x10 build/obj/testbmk.o
 .rodata.testbmk2
                0x00000000       0x10 build/obj/testbmk.o
 .rodata.str1.4
                0x00000000      0x2c8 build/obj/testbmk.o
 .bss.vt2.6552  0x00000000       0x14 build/obj/testbmk.o
 .rodata.testbmk9
                0x00000000       0x10 build/obj/testbmk.o
 .bss.sem1      0x00000000        0xc build/obj/testbmk.o
 .rodata.testbmk1
                0x00000000       0x10 build/obj/testbmk.o
 .rodata.testbmk11
                0x00000000       0x10 build/obj/testbmk.o
 .bss.ib.6540   0x00000000       0x10 build/obj/testbmk.o
 .rodata.testbmk13
                0x00000000       0x10 build/obj/testbmk.o
 .rodata.testbmk5
                0x00000000       0x10 build/obj/testbmk.o
 .rodata.testbmk6
                0x00000000       0x10 build/obj/testbmk.o
 .rodata.testbmk7
                0x00000000       0x10 build/obj/testbmk.o
 .debug_info    0x00000000     0x24aa build/obj/testbmk.o
 .debug_abbrev  0x00000000      0x465 build/obj/testbmk.o
 .debug_loc     0x00000000      0x2e9 build/obj/testbmk.o
 .debug_aranges
                0x00000000       0xd0 build/obj/testbmk.o
 .debug_ranges  0x00000000      0x1e0 build/obj/testbmk.o
 .debug_line    0x00000000      0x8c3 build/obj/testbmk.o
 .debug_str     0x00000000      0x9c0 build/obj/testbmk.o
 .comment       0x00000000       0x71 build/obj/testbmk.o
 .ARM.attributes
                0x00000000       0x33 build/obj/testbmk.o
 .debug_frame   0x00000000      0x2c8 build/obj/testbmk.o
 .text          0x00000000        0x0 build/obj/shell.o
 .data          0x00000000        0x0 build/obj/shell.o
 .bss           0x00000000        0x0 build/obj/shell.o
 .text.shellCreateStatic
                0x00000000       0x20 build/obj/shell.o
 .text          0x00000000        0x0 build/obj/evtimer.o
 .data          0x00000000        0x0 build/obj/evtimer.o
 .bss           0x00000000        0x0 build/obj/evtimer.o
 .text.tmrcb    0x00000000       0x30 build/obj/evtimer.o
 .text.evtObjectInit
                0x00000000       0x10 build/obj/evtimer.o
 .text.evtStart
                0x00000000       0x30 build/obj/evtimer.o
 .debug_info    0x00000000      0xbbf build/obj/evtimer.o
 .debug_abbrev  0x00000000      0x2f5 build/obj/evtimer.o
 .debug_loc     0x00000000      0x15f build/obj/evtimer.o
 .debug_aranges
                0x00000000       0x30 build/obj/evtimer.o
 .debug_ranges  0x00000000       0x80 build/obj/evtimer.o
 .debug_line    0x00000000      0x301 build/obj/evtimer.o
 .debug_str     0x00000000      0x73e build/obj/evtimer.o
 .comment       0x00000000       0x71 build/obj/evtimer.o
 .ARM.attributes
                0x00000000       0x33 build/obj/evtimer.o
 .debug_frame   0x00000000       0x5c build/obj/evtimer.o
 .text          0x00000000        0x0 build/obj/syscalls.o
 .data          0x00000000        0x0 build/obj/syscalls.o
 .bss           0x00000000        0x0 build/obj/syscalls.o
 .text._read_r  0x00000000       0x10 build/obj/syscalls.o
 .text._lseek_r
                0x00000000       0x10 build/obj/syscalls.o
 .text._write_r
                0x00000000       0x10 build/obj/syscalls.o
 .text._close_r
                0x00000000       0x10 build/obj/syscalls.o
 .text._fstat_r
                0x00000000       0x20 build/obj/syscalls.o
 .text._isatty_r
                0x00000000       0x10 build/obj/syscalls.o
 .text          0x00000000        0x0 build/obj/memstreams.o
 .data          0x00000000        0x0 build/obj/memstreams.o
 .bss           0x00000000        0x0 build/obj/memstreams.o
 .text.put      0x00000000       0x20 build/obj/memstreams.o
 .text.get      0x00000000       0x20 build/obj/memstreams.o
 .text.reads    0x00000000       0x30 build/obj/memstreams.o
 .text.writes   0x00000000       0x30 build/obj/memstreams.o
 .text.msObjectInit
                0x00000000       0x20 build/obj/memstreams.o
 .rodata.vmt    0x00000000       0x10 build/obj/memstreams.o
 .debug_info    0x00000000      0x939 build/obj/memstreams.o
 .debug_abbrev  0x00000000      0x20b build/obj/memstreams.o
 .debug_loc     0x00000000      0x1f4 build/obj/memstreams.o
 .debug_aranges
                0x00000000       0x40 build/obj/memstreams.o
 .debug_ranges  0x00000000       0x30 build/obj/memstreams.o
 .debug_line    0x00000000      0x342 build/obj/memstreams.o
 .debug_str     0x00000000      0x5b1 build/obj/memstreams.o
 .comment       0x00000000       0x71 build/obj/memstreams.o
 .ARM.attributes
                0x00000000       0x33 build/obj/memstreams.o
 .debug_frame   0x00000000       0x88 build/obj/memstreams.o
 .text          0x00000000        0x0 build/obj/chprintf.o
 .data          0x00000000        0x0 build/obj/chprintf.o
 .bss           0x00000000        0x0 build/obj/chprintf.o
 .text.chsnprintf
                0x00000000       0x60 build/obj/chprintf.o
 .text          0x00000000        0x0 build/obj/ff.o
 .data          0x00000000        0x0 build/obj/ff.o
 .bss           0x00000000        0x0 build/obj/ff.o
 .text.get_fileinfo.isra.1
                0x00000000       0x70 build/obj/ff.o
 .text.dir_remove
                0x00000000       0x40 build/obj/ff.o
 .text.dir_read.constprop.11
                0x00000000       0x60 build/obj/ff.o
 .text.clust2sect
                0x00000000       0x20 build/obj/ff.o
 .text.get_fat  0x00000000       0x20 build/obj/ff.o
 .text.put_fat  0x00000000       0x20 build/obj/ff.o
 .text.f_read   0x00000000      0x170 build/obj/ff.o
 .text.f_opendir
                0x00000000       0x80 build/obj/ff.o
 .text.f_closedir
                0x00000000       0x10 build/obj/ff.o
 .text.f_readdir
                0x00000000       0x60 build/obj/ff.o
 .text.f_stat   0x00000000       0x50 build/obj/ff.o
 .text.f_getfree
                0x00000000      0x100 build/obj/ff.o
 .text.f_truncate
                0x00000000       0xe0 build/obj/ff.o
 .text.f_unlink
                0x00000000       0xd0 build/obj/ff.o
 .text.f_mkdir  0x00000000      0x210 build/obj/ff.o
 .text.f_chmod  0x00000000       0x60 build/obj/ff.o
 .text.f_utime  0x00000000       0x60 build/obj/ff.o
 .text.f_rename
                0x00000000      0x150 build/obj/ff.o
 .text          0x00000000        0x0 build/obj/fatfs_diskio.o
 .data          0x00000000        0x0 build/obj/fatfs_diskio.o
 .bss           0x00000000        0x0 build/obj/fatfs_diskio.o
 .text          0x00000000        0x0 build/obj/fatfs_syscall.o
 .data          0x00000000        0x0 build/obj/fatfs_syscall.o
 .bss           0x00000000        0x0 build/obj/fatfs_syscall.o
 .debug_info    0x00000000      0x631 build/obj/fatfs_syscall.o
 .debug_abbrev  0x00000000      0x125 build/obj/fatfs_syscall.o
 .debug_aranges
                0x00000000       0x18 build/obj/fatfs_syscall.o
 .debug_line    0x00000000      0x20f build/obj/fatfs_syscall.o
 .debug_str     0x00000000      0x562 build/obj/fatfs_syscall.o
 .comment       0x00000000       0x71 build/obj/fatfs_syscall.o
 .ARM.attributes
                0x00000000       0x33 build/obj/fatfs_syscall.o
 .text          0x00000000        0x0 build/obj/main.o
 .data          0x00000000        0x0 build/obj/main.o
 .bss           0x00000000        0x0 build/obj/main.o
 .text.die      0x00000000       0x20 build/obj/main.o
 .bss.dir       0x00000000       0x1c build/obj/main.o
 .bss.bw        0x00000000        0x4 build/obj/main.o
 .bss.fno       0x00000000       0x18 build/obj/main.o
 .bss.j         0x00000000        0x4 build/obj/main.o
 .bss.br        0x00000000        0x4 build/obj/main.o
 .data          0x00000000        0x0 /nfs/nfs5/home/research/hardware/arm2/gcc-arm-embedded/gcc-arm-none-eabi-4_8-2014q2/bin/../lib/gcc/arm-none-eabi/4.8.4/../../../../arm-none-eabi/lib/armv7e-m/libg.a(lib_a-memcpy.o)
 .bss           0x00000000        0x0 /nfs/nfs5/home/research/hardware/arm2/gcc-arm-embedded/gcc-arm-none-eabi-4_8-2014q2/bin/../lib/gcc/arm-none-eabi/4.8.4/../../../../arm-none-eabi/lib/armv7e-m/libg.a(lib_a-memcpy.o)
 .text          0x00000000        0x0 /nfs/nfs5/home/research/hardware/arm2/gcc-arm-embedded/gcc-arm-none-eabi-4_8-2014q2/bin/../lib/gcc/arm-none-eabi/4.8.4/../../../../arm-none-eabi/lib/armv7e-m/libg.a(lib_a-memset.o)
 .data          0x00000000        0x0 /nfs/nfs5/home/research/hardware/arm2/gcc-arm-embedded/gcc-arm-none-eabi-4_8-2014q2/bin/../lib/gcc/arm-none-eabi/4.8.4/../../../../arm-none-eabi/lib/armv7e-m/libg.a(lib_a-memset.o)
 .bss           0x00000000        0x0 /nfs/nfs5/home/research/hardware/arm2/gcc-arm-embedded/gcc-arm-none-eabi-4_8-2014q2/bin/../lib/gcc/arm-none-eabi/4.8.4/../../../../arm-none-eabi/lib/armv7e-m/libg.a(lib_a-memset.o)
 .text          0x00000000        0x0 /nfs/nfs5/home/research/hardware/arm2/gcc-arm-embedded/gcc-arm-none-eabi-4_8-2014q2/bin/../lib/gcc/arm-none-eabi/4.8.4/../../../../arm-none-eabi/lib/armv7e-m/libg.a(lib_a-sprintf.o)
 .data          0x00000000        0x0 /nfs/nfs5/home/research/hardware/arm2/gcc-arm-embedded/gcc-arm-none-eabi-4_8-2014q2/bin/../lib/gcc/arm-none-eabi/4.8.4/../../../../arm-none-eabi/lib/armv7e-m/libg.a(lib_a-sprintf.o)
 .bss           0x00000000        0x0 /nfs/nfs5/home/research/hardware/arm2/gcc-arm-embedded/gcc-arm-none-eabi-4_8-2014q2/bin/../lib/gcc/arm-none-eabi/4.8.4/../../../../arm-none-eabi/lib/armv7e-m/libg.a(lib_a-sprintf.o)
 .text._sprintf_r
                0x00000000       0x44 /nfs/nfs5/home/research/hardware/arm2/gcc-arm-embedded/gcc-arm-none-eabi-4_8-2014q2/bin/../lib/gcc/arm-none-eabi/4.8.4/../../../../arm-none-eabi/lib/armv7e-m/libg.a(lib_a-sprintf.o)
 .data          0x00000000        0x0 /nfs/nfs5/home/research/hardware/arm2/gcc-arm-embedded/gcc-arm-none-eabi-4_8-2014q2/bin/../lib/gcc/arm-none-eabi/4.8.4/../../../../arm-none-eabi/lib/armv7e-m/libg.a(lib_a-strcmp.o)
 .bss           0x00000000        0x0 /nfs/nfs5/home/research/hardware/arm2/gcc-arm-embedded/gcc-arm-none-eabi-4_8-2014q2/bin/../lib/gcc/arm-none-eabi/4.8.4/../../../../arm-none-eabi/lib/armv7e-m/libg.a(lib_a-strcmp.o)
 .text          0x00000000        0x0 /nfs/nfs5/home/research/hardware/arm2/gcc-arm-embedded/gcc-arm-none-eabi-4_8-2014q2/bin/../lib/gcc/arm-none-eabi/4.8.4/../../../../arm-none-eabi/lib/armv7e-m/libg.a(lib_a-strpbrk.o)
 .data          0x00000000        0x0 /nfs/nfs5/home/research/hardware/arm2/gcc-arm-embedded/gcc-arm-none-eabi-4_8-2014q2/bin/../lib/gcc/arm-none-eabi/4.8.4/../../../../arm-none-eabi/lib/armv7e-m/libg.a(lib_a-strpbrk.o)
 .bss           0x00000000        0x0 /nfs/nfs5/home/research/hardware/arm2/gcc-arm-embedded/gcc-arm-none-eabi-4_8-2014q2/bin/../lib/gcc/arm-none-eabi/4.8.4/../../../../arm-none-eabi/lib/armv7e-m/libg.a(lib_a-strpbrk.o)
 .text          0x00000000        0x0 /nfs/nfs5/home/research/hardware/arm2/gcc-arm-embedded/gcc-arm-none-eabi-4_8-2014q2/bin/../lib/gcc/arm-none-eabi/4.8.4/../../../../arm-none-eabi/lib/armv7e-m/libg.a(lib_a-strspn.o)
 .data          0x00000000        0x0 /nfs/nfs5/home/research/hardware/arm2/gcc-arm-embedded/gcc-arm-none-eabi-4_8-2014q2/bin/../lib/gcc/arm-none-eabi/4.8.4/../../../../arm-none-eabi/lib/armv7e-m/libg.a(lib_a-strspn.o)
 .bss           0x00000000        0x0 /nfs/nfs5/home/research/hardware/arm2/gcc-arm-embedded/gcc-arm-none-eabi-4_8-2014q2/bin/../lib/gcc/arm-none-eabi/4.8.4/../../../../arm-none-eabi/lib/armv7e-m/libg.a(lib_a-strspn.o)
 .text          0x00000000        0x0 /nfs/nfs5/home/research/hardware/arm2/gcc-arm-embedded/gcc-arm-none-eabi-4_8-2014q2/bin/../lib/gcc/arm-none-eabi/4.8.4/../../../../arm-none-eabi/lib/armv7e-m/libg.a(lib_a-svfprintf.o)
 .data          0x00000000        0x0 /nfs/nfs5/home/research/hardware/arm2/gcc-arm-embedded/gcc-arm-none-eabi-4_8-2014q2/bin/../lib/gcc/arm-none-eabi/4.8.4/../../../../arm-none-eabi/lib/armv7e-m/libg.a(lib_a-svfprintf.o)
 .bss           0x00000000        0x0 /nfs/nfs5/home/research/hardware/arm2/gcc-arm-embedded/gcc-arm-none-eabi-4_8-2014q2/bin/../lib/gcc/arm-none-eabi/4.8.4/../../../../arm-none-eabi/lib/armv7e-m/libg.a(lib_a-svfprintf.o)
 .text          0x00000000        0x0 /nfs/nfs5/home/research/hardware/arm2/gcc-arm-embedded/gcc-arm-none-eabi-4_8-2014q2/bin/../lib/gcc/arm-none-eabi/4.8.4/../../../../arm-none-eabi/lib/armv7e-m/libg.a(lib_a-dtoa.o)
 .data          0x00000000        0x0 /nfs/nfs5/home/research/hardware/arm2/gcc-arm-embedded/gcc-arm-none-eabi-4_8-2014q2/bin/../lib/gcc/arm-none-eabi/4.8.4/../../../../arm-none-eabi/lib/armv7e-m/libg.a(lib_a-dtoa.o)
 .bss           0x00000000        0x0 /nfs/nfs5/home/research/hardware/arm2/gcc-arm-embedded/gcc-arm-none-eabi-4_8-2014q2/bin/../lib/gcc/arm-none-eabi/4.8.4/../../../../arm-none-eabi/lib/armv7e-m/libg.a(lib_a-dtoa.o)
 .text          0x00000000        0x0 /nfs/nfs5/home/research/hardware/arm2/gcc-arm-embedded/gcc-arm-none-eabi-4_8-2014q2/bin/../lib/gcc/arm-none-eabi/4.8.4/../../../../arm-none-eabi/lib/armv7e-m/libg.a(lib_a-impure.o)
 .data          0x00000000        0x0 /nfs/nfs5/home/research/hardware/arm2/gcc-arm-embedded/gcc-arm-none-eabi-4_8-2014q2/bin/../lib/gcc/arm-none-eabi/4.8.4/../../../../arm-none-eabi/lib/armv7e-m/libg.a(lib_a-impure.o)
 .bss           0x00000000        0x0 /nfs/nfs5/home/research/hardware/arm2/gcc-arm-embedded/gcc-arm-none-eabi-4_8-2014q2/bin/../lib/gcc/arm-none-eabi/4.8.4/../../../../arm-none-eabi/lib/armv7e-m/libg.a(lib_a-impure.o)
 .rodata._global_impure_ptr
                0x00000000        0x4 /nfs/nfs5/home/research/hardware/arm2/gcc-arm-embedded/gcc-arm-none-eabi-4_8-2014q2/bin/../lib/gcc/arm-none-eabi/4.8.4/../../../../arm-none-eabi/lib/armv7e-m/libg.a(lib_a-impure.o)
 .text          0x00000000        0x0 /nfs/nfs5/home/research/hardware/arm2/gcc-arm-embedded/gcc-arm-none-eabi-4_8-2014q2/bin/../lib/gcc/arm-none-eabi/4.8.4/../../../../arm-none-eabi/lib/armv7e-m/libg.a(lib_a-locale.o)
 .data          0x00000000        0x0 /nfs/nfs5/home/research/hardware/arm2/gcc-arm-embedded/gcc-arm-none-eabi-4_8-2014q2/bin/../lib/gcc/arm-none-eabi/4.8.4/../../../../arm-none-eabi/lib/armv7e-m/libg.a(lib_a-locale.o)
 .bss           0x00000000        0x0 /nfs/nfs5/home/research/hardware/arm2/gcc-arm-embedded/gcc-arm-none-eabi-4_8-2014q2/bin/../lib/gcc/arm-none-eabi/4.8.4/../../../../arm-none-eabi/lib/armv7e-m/libg.a(lib_a-locale.o)
 .text._setlocale_r
                0x00000000       0x40 /nfs/nfs5/home/research/hardware/arm2/gcc-arm-embedded/gcc-arm-none-eabi-4_8-2014q2/bin/../lib/gcc/arm-none-eabi/4.8.4/../../../../arm-none-eabi/lib/armv7e-m/libg.a(lib_a-locale.o)
 .text.__locale_charset
                0x00000000        0x8 /nfs/nfs5/home/research/hardware/arm2/gcc-arm-embedded/gcc-arm-none-eabi-4_8-2014q2/bin/../lib/gcc/arm-none-eabi/4.8.4/../../../../arm-none-eabi/lib/armv7e-m/libg.a(lib_a-locale.o)
 .text.__locale_mb_cur_max
                0x00000000        0xc /nfs/nfs5/home/research/hardware/arm2/gcc-arm-embedded/gcc-arm-none-eabi-4_8-2014q2/bin/../lib/gcc/arm-none-eabi/4.8.4/../../../../arm-none-eabi/lib/armv7e-m/libg.a(lib_a-locale.o)
 .text.__locale_msgcharset
                0x00000000        0x8 /nfs/nfs5/home/research/hardware/arm2/gcc-arm-embedded/gcc-arm-none-eabi-4_8-2014q2/bin/../lib/gcc/arm-none-eabi/4.8.4/../../../../arm-none-eabi/lib/armv7e-m/libg.a(lib_a-locale.o)
 .text.__locale_cjk_lang
                0x00000000        0x4 /nfs/nfs5/home/research/hardware/arm2/gcc-arm-embedded/gcc-arm-none-eabi-4_8-2014q2/bin/../lib/gcc/arm-none-eabi/4.8.4/../../../../arm-none-eabi/lib/armv7e-m/libg.a(lib_a-locale.o)
 .text.setlocale
                0x00000000       0x10 /nfs/nfs5/home/research/hardware/arm2/gcc-arm-embedded/gcc-arm-none-eabi-4_8-2014q2/bin/../lib/gcc/arm-none-eabi/4.8.4/../../../../arm-none-eabi/lib/armv7e-m/libg.a(lib_a-locale.o)
 .text.localeconv
                0x00000000        0x8 /nfs/nfs5/home/research/hardware/arm2/gcc-arm-embedded/gcc-arm-none-eabi-4_8-2014q2/bin/../lib/gcc/arm-none-eabi/4.8.4/../../../../arm-none-eabi/lib/armv7e-m/libg.a(lib_a-locale.o)
 .data.lc_message_charset
                0x00000000       0x20 /nfs/nfs5/home/research/hardware/arm2/gcc-arm-embedded/gcc-arm-none-eabi-4_8-2014q2/bin/../lib/gcc/arm-none-eabi/4.8.4/../../../../arm-none-eabi/lib/armv7e-m/libg.a(lib_a-locale.o)
 .bss._PathLocale
                0x00000000        0x4 /nfs/nfs5/home/research/hardware/arm2/gcc-arm-embedded/gcc-arm-none-eabi-4_8-2014q2/bin/../lib/gcc/arm-none-eabi/4.8.4/../../../../arm-none-eabi/lib/armv7e-m/libg.a(lib_a-locale.o)
 .bss.__nlocale_changed
                0x00000000        0x4 /nfs/nfs5/home/research/hardware/arm2/gcc-arm-embedded/gcc-arm-none-eabi-4_8-2014q2/bin/../lib/gcc/arm-none-eabi/4.8.4/../../../../arm-none-eabi/lib/armv7e-m/libg.a(lib_a-locale.o)
 .bss.__mlocale_changed
                0x00000000        0x4 /nfs/nfs5/home/research/hardware/arm2/gcc-arm-embedded/gcc-arm-none-eabi-4_8-2014q2/bin/../lib/gcc/arm-none-eabi/4.8.4/../../../../arm-none-eabi/lib/armv7e-m/libg.a(lib_a-locale.o)
 .data.lc_ctype_charset
                0x00000000       0x20 /nfs/nfs5/home/research/hardware/arm2/gcc-arm-embedded/gcc-arm-none-eabi-4_8-2014q2/bin/../lib/gcc/arm-none-eabi/4.8.4/../../../../arm-none-eabi/lib/armv7e-m/libg.a(lib_a-locale.o)
 .data.__mb_cur_max
                0x00000000        0x4 /nfs/nfs5/home/research/hardware/arm2/gcc-arm-embedded/gcc-arm-none-eabi-4_8-2014q2/bin/../lib/gcc/arm-none-eabi/4.8.4/../../../../arm-none-eabi/lib/armv7e-m/libg.a(lib_a-locale.o)
 .text          0x00000000        0x0 /nfs/nfs5/home/research/hardware/arm2/gcc-arm-embedded/gcc-arm-none-eabi-4_8-2014q2/bin/../lib/gcc/arm-none-eabi/4.8.4/../../../../arm-none-eabi/lib/armv7e-m/libg.a(lib_a-mallocr.o)
 .data          0x00000000        0x0 /nfs/nfs5/home/research/hardware/arm2/gcc-arm-embedded/gcc-arm-none-eabi-4_8-2014q2/bin/../lib/gcc/arm-none-eabi/4.8.4/../../../../arm-none-eabi/lib/armv7e-m/libg.a(lib_a-mallocr.o)
 .bss           0x00000000        0x0 /nfs/nfs5/home/research/hardware/arm2/gcc-arm-embedded/gcc-arm-none-eabi-4_8-2014q2/bin/../lib/gcc/arm-none-eabi/4.8.4/../../../../arm-none-eabi/lib/armv7e-m/libg.a(lib_a-mallocr.o)
 .text          0x00000000        0x0 /nfs/nfs5/home/research/hardware/arm2/gcc-arm-embedded/gcc-arm-none-eabi-4_8-2014q2/bin/../lib/gcc/arm-none-eabi/4.8.4/../../../../arm-none-eabi/lib/armv7e-m/libg.a(lib_a-memchr-stub.o)
 .data          0x00000000        0x0 /nfs/nfs5/home/research/hardware/arm2/gcc-arm-embedded/gcc-arm-none-eabi-4_8-2014q2/bin/../lib/gcc/arm-none-eabi/4.8.4/../../../../arm-none-eabi/lib/armv7e-m/libg.a(lib_a-memchr-stub.o)
 .bss           0x00000000        0x0 /nfs/nfs5/home/research/hardware/arm2/gcc-arm-embedded/gcc-arm-none-eabi-4_8-2014q2/bin/../lib/gcc/arm-none-eabi/4.8.4/../../../../arm-none-eabi/lib/armv7e-m/libg.a(lib_a-memchr-stub.o)
 .text          0x00000000        0x0 /nfs/nfs5/home/research/hardware/arm2/gcc-arm-embedded/gcc-arm-none-eabi-4_8-2014q2/bin/../lib/gcc/arm-none-eabi/4.8.4/../../../../arm-none-eabi/lib/armv7e-m/libg.a(lib_a-mlock.o)
 .data          0x00000000        0x0 /nfs/nfs5/home/research/hardware/arm2/gcc-arm-embedded/gcc-arm-none-eabi-4_8-2014q2/bin/../lib/gcc/arm-none-eabi/4.8.4/../../../../arm-none-eabi/lib/armv7e-m/libg.a(lib_a-mlock.o)
 .bss           0x00000000        0x0 /nfs/nfs5/home/research/hardware/arm2/gcc-arm-embedded/gcc-arm-none-eabi-4_8-2014q2/bin/../lib/gcc/arm-none-eabi/4.8.4/../../../../arm-none-eabi/lib/armv7e-m/libg.a(lib_a-mlock.o)
 .text          0x00000000        0x0 /nfs/nfs5/home/research/hardware/arm2/gcc-arm-embedded/gcc-arm-none-eabi-4_8-2014q2/bin/../lib/gcc/arm-none-eabi/4.8.4/../../../../arm-none-eabi/lib/armv7e-m/libg.a(lib_a-mprec.o)
 .data          0x00000000        0x0 /nfs/nfs5/home/research/hardware/arm2/gcc-arm-embedded/gcc-arm-none-eabi-4_8-2014q2/bin/../lib/gcc/arm-none-eabi/4.8.4/../../../../arm-none-eabi/lib/armv7e-m/libg.a(lib_a-mprec.o)
 .bss           0x00000000        0x0 /nfs/nfs5/home/research/hardware/arm2/gcc-arm-embedded/gcc-arm-none-eabi-4_8-2014q2/bin/../lib/gcc/arm-none-eabi/4.8.4/../../../../arm-none-eabi/lib/armv7e-m/libg.a(lib_a-mprec.o)
 .text.__s2b    0x00000000       0x98 /nfs/nfs5/home/research/hardware/arm2/gcc-arm-embedded/gcc-arm-none-eabi-4_8-2014q2/bin/../lib/gcc/arm-none-eabi/4.8.4/../../../../arm-none-eabi/lib/armv7e-m/libg.a(lib_a-mprec.o)
 .text.__ulp    0x00000000       0x40 /nfs/nfs5/home/research/hardware/arm2/gcc-arm-embedded/gcc-arm-none-eabi-4_8-2014q2/bin/../lib/gcc/arm-none-eabi/4.8.4/../../../../arm-none-eabi/lib/armv7e-m/libg.a(lib_a-mprec.o)
 .text.__b2d    0x00000000       0xb4 /nfs/nfs5/home/research/hardware/arm2/gcc-arm-embedded/gcc-arm-none-eabi-4_8-2014q2/bin/../lib/gcc/arm-none-eabi/4.8.4/../../../../arm-none-eabi/lib/armv7e-m/libg.a(lib_a-mprec.o)
 .text.__ratio  0x00000000       0x50 /nfs/nfs5/home/research/hardware/arm2/gcc-arm-embedded/gcc-arm-none-eabi-4_8-2014q2/bin/../lib/gcc/arm-none-eabi/4.8.4/../../../../arm-none-eabi/lib/armv7e-m/libg.a(lib_a-mprec.o)
 .text._mprec_log10
                0x00000000       0x34 /nfs/nfs5/home/research/hardware/arm2/gcc-arm-embedded/gcc-arm-none-eabi-4_8-2014q2/bin/../lib/gcc/arm-none-eabi/4.8.4/../../../../arm-none-eabi/lib/armv7e-m/libg.a(lib_a-mprec.o)
 .text.__copybits
                0x00000000       0x48 /nfs/nfs5/home/research/hardware/arm2/gcc-arm-embedded/gcc-arm-none-eabi-4_8-2014q2/bin/../lib/gcc/arm-none-eabi/4.8.4/../../../../arm-none-eabi/lib/armv7e-m/libg.a(lib_a-mprec.o)
 .text.__any_on
                0x00000000       0x60 /nfs/nfs5/home/research/hardware/arm2/gcc-arm-embedded/gcc-arm-none-eabi-4_8-2014q2/bin/../lib/gcc/arm-none-eabi/4.8.4/../../../../arm-none-eabi/lib/armv7e-m/libg.a(lib_a-mprec.o)
 .rodata.__mprec_tinytens
                0x00000000       0x28 /nfs/nfs5/home/research/hardware/arm2/gcc-arm-embedded/gcc-arm-none-eabi-4_8-2014q2/bin/../lib/gcc/arm-none-eabi/4.8.4/../../../../arm-none-eabi/lib/armv7e-m/libg.a(lib_a-mprec.o)
 .text          0x00000000        0x0 /nfs/nfs5/home/research/hardware/arm2/gcc-arm-embedded/gcc-arm-none-eabi-4_8-2014q2/bin/../lib/gcc/arm-none-eabi/4.8.4/../../../../arm-none-eabi/lib/armv7e-m/libg.a(lib_a-s_fpclassify.o)
 .data          0x00000000        0x0 /nfs/nfs5/home/research/hardware/arm2/gcc-arm-embedded/gcc-arm-none-eabi-4_8-2014q2/bin/../lib/gcc/arm-none-eabi/4.8.4/../../../../arm-none-eabi/lib/armv7e-m/libg.a(lib_a-s_fpclassify.o)
 .bss           0x00000000        0x0 /nfs/nfs5/home/research/hardware/arm2/gcc-arm-embedded/gcc-arm-none-eabi-4_8-2014q2/bin/../lib/gcc/arm-none-eabi/4.8.4/../../../../arm-none-eabi/lib/armv7e-m/libg.a(lib_a-s_fpclassify.o)
 .text          0x00000000        0x0 /nfs/nfs5/home/research/hardware/arm2/gcc-arm-embedded/gcc-arm-none-eabi-4_8-2014q2/bin/../lib/gcc/arm-none-eabi/4.8.4/../../../../arm-none-eabi/lib/armv7e-m/libg.a(lib_a-strlen.o)
 .data          0x00000000        0x0 /nfs/nfs5/home/research/hardware/arm2/gcc-arm-embedded/gcc-arm-none-eabi-4_8-2014q2/bin/../lib/gcc/arm-none-eabi/4.8.4/../../../../arm-none-eabi/lib/armv7e-m/libg.a(lib_a-strlen.o)
 .bss           0x00000000        0x0 /nfs/nfs5/home/research/hardware/arm2/gcc-arm-embedded/gcc-arm-none-eabi-4_8-2014q2/bin/../lib/gcc/arm-none-eabi/4.8.4/../../../../arm-none-eabi/lib/armv7e-m/libg.a(lib_a-strlen.o)
 .text          0x00000000        0x0 /nfs/nfs5/home/research/hardware/arm2/gcc-arm-embedded/gcc-arm-none-eabi-4_8-2014q2/bin/../lib/gcc/arm-none-eabi/4.8.4/../../../../arm-none-eabi/lib/armv7e-m/libg.a(lib_a-svfiprintf.o)
 .data          0x00000000        0x0 /nfs/nfs5/home/research/hardware/arm2/gcc-arm-embedded/gcc-arm-none-eabi-4_8-2014q2/bin/../lib/gcc/arm-none-eabi/4.8.4/../../../../arm-none-eabi/lib/armv7e-m/libg.a(lib_a-svfiprintf.o)
 .bss           0x00000000        0x0 /nfs/nfs5/home/research/hardware/arm2/gcc-arm-embedded/gcc-arm-none-eabi-4_8-2014q2/bin/../lib/gcc/arm-none-eabi/4.8.4/../../../../arm-none-eabi/lib/armv7e-m/libg.a(lib_a-svfiprintf.o)
 .text._svfiprintf_r
                0x00000000      0xb3c /nfs/nfs5/home/research/hardware/arm2/gcc-arm-embedded/gcc-arm-none-eabi-4_8-2014q2/bin/../lib/gcc/arm-none-eabi/4.8.4/../../../../arm-none-eabi/lib/armv7e-m/libg.a(lib_a-svfiprintf.o)
 .rodata.zeroes.6707
                0x00000000       0x10 /nfs/nfs5/home/research/hardware/arm2/gcc-arm-embedded/gcc-arm-none-eabi-4_8-2014q2/bin/../lib/gcc/arm-none-eabi/4.8.4/../../../../arm-none-eabi/lib/armv7e-m/libg.a(lib_a-svfiprintf.o)
 .rodata.str1.4
                0x00000000       0x30 /nfs/nfs5/home/research/hardware/arm2/gcc-arm-embedded/gcc-arm-none-eabi-4_8-2014q2/bin/../lib/gcc/arm-none-eabi/4.8.4/../../../../arm-none-eabi/lib/armv7e-m/libg.a(lib_a-svfiprintf.o)
 .rodata.blanks.6706
                0x00000000       0x10 /nfs/nfs5/home/research/hardware/arm2/gcc-arm-embedded/gcc-arm-none-eabi-4_8-2014q2/bin/../lib/gcc/arm-none-eabi/4.8.4/../../../../arm-none-eabi/lib/armv7e-m/libg.a(lib_a-svfiprintf.o)
 .text          0x00000000        0x0 /nfs/nfs5/home/research/hardware/arm2/gcc-arm-embedded/gcc-arm-none-eabi-4_8-2014q2/bin/../lib/gcc/arm-none-eabi/4.8.4/../../../../arm-none-eabi/lib/armv7e-m/libg.a(lib_a-callocr.o)
 .data          0x00000000        0x0 /nfs/nfs5/home/research/hardware/arm2/gcc-arm-embedded/gcc-arm-none-eabi-4_8-2014q2/bin/../lib/gcc/arm-none-eabi/4.8.4/../../../../arm-none-eabi/lib/armv7e-m/libg.a(lib_a-callocr.o)
 .bss           0x00000000        0x0 /nfs/nfs5/home/research/hardware/arm2/gcc-arm-embedded/gcc-arm-none-eabi-4_8-2014q2/bin/../lib/gcc/arm-none-eabi/4.8.4/../../../../arm-none-eabi/lib/armv7e-m/libg.a(lib_a-callocr.o)
 .text          0x00000000        0x0 /nfs/nfs5/home/research/hardware/arm2/gcc-arm-embedded/gcc-arm-none-eabi-4_8-2014q2/bin/../lib/gcc/arm-none-eabi/4.8.4/../../../../arm-none-eabi/lib/armv7e-m/libg.a(lib_a-freer.o)
 .data          0x00000000        0x0 /nfs/nfs5/home/research/hardware/arm2/gcc-arm-embedded/gcc-arm-none-eabi-4_8-2014q2/bin/../lib/gcc/arm-none-eabi/4.8.4/../../../../arm-none-eabi/lib/armv7e-m/libg.a(lib_a-freer.o)
 .bss           0x00000000        0x0 /nfs/nfs5/home/research/hardware/arm2/gcc-arm-embedded/gcc-arm-none-eabi-4_8-2014q2/bin/../lib/gcc/arm-none-eabi/4.8.4/../../../../arm-none-eabi/lib/armv7e-m/libg.a(lib_a-freer.o)
 .text          0x00000000        0x0 /nfs/nfs5/home/research/hardware/arm2/gcc-arm-embedded/gcc-arm-none-eabi-4_8-2014q2/bin/../lib/gcc/arm-none-eabi/4.8.4/../../../../arm-none-eabi/lib/armv7e-m/libg.a(lib_a-memmove.o)
 .data          0x00000000        0x0 /nfs/nfs5/home/research/hardware/arm2/gcc-arm-embedded/gcc-arm-none-eabi-4_8-2014q2/bin/../lib/gcc/arm-none-eabi/4.8.4/../../../../arm-none-eabi/lib/armv7e-m/libg.a(lib_a-memmove.o)
 .bss           0x00000000        0x0 /nfs/nfs5/home/research/hardware/arm2/gcc-arm-embedded/gcc-arm-none-eabi-4_8-2014q2/bin/../lib/gcc/arm-none-eabi/4.8.4/../../../../arm-none-eabi/lib/armv7e-m/libg.a(lib_a-memmove.o)
 .text          0x00000000        0x0 /nfs/nfs5/home/research/hardware/arm2/gcc-arm-embedded/gcc-arm-none-eabi-4_8-2014q2/bin/../lib/gcc/arm-none-eabi/4.8.4/../../../../arm-none-eabi/lib/armv7e-m/libg.a(lib_a-reallocr.o)
 .data          0x00000000        0x0 /nfs/nfs5/home/research/hardware/arm2/gcc-arm-embedded/gcc-arm-none-eabi-4_8-2014q2/bin/../lib/gcc/arm-none-eabi/4.8.4/../../../../arm-none-eabi/lib/armv7e-m/libg.a(lib_a-reallocr.o)
 .bss           0x00000000        0x0 /nfs/nfs5/home/research/hardware/arm2/gcc-arm-embedded/gcc-arm-none-eabi-4_8-2014q2/bin/../lib/gcc/arm-none-eabi/4.8.4/../../../../arm-none-eabi/lib/armv7e-m/libg.a(lib_a-reallocr.o)
 .data          0x00000000        0x0 /nfs/nfs5/home/research/hardware/arm2/gcc-arm-embedded/gcc-arm-none-eabi-4_8-2014q2/bin/../lib/gcc/arm-none-eabi/4.8.4/armv7e-m/libgcc.a(_arm_addsubdf3.o)
 .bss           0x00000000        0x0 /nfs/nfs5/home/research/hardware/arm2/gcc-arm-embedded/gcc-arm-none-eabi-4_8-2014q2/bin/../lib/gcc/arm-none-eabi/4.8.4/armv7e-m/libgcc.a(_arm_addsubdf3.o)
 .data          0x00000000        0x0 /nfs/nfs5/home/research/hardware/arm2/gcc-arm-embedded/gcc-arm-none-eabi-4_8-2014q2/bin/../lib/gcc/arm-none-eabi/4.8.4/armv7e-m/libgcc.a(_arm_muldivdf3.o)
 .bss           0x00000000        0x0 /nfs/nfs5/home/research/hardware/arm2/gcc-arm-embedded/gcc-arm-none-eabi-4_8-2014q2/bin/../lib/gcc/arm-none-eabi/4.8.4/armv7e-m/libgcc.a(_arm_muldivdf3.o)
 .data          0x00000000        0x0 /nfs/nfs5/home/research/hardware/arm2/gcc-arm-embedded/gcc-arm-none-eabi-4_8-2014q2/bin/../lib/gcc/arm-none-eabi/4.8.4/armv7e-m/libgcc.a(_arm_cmpdf2.o)
 .bss           0x00000000        0x0 /nfs/nfs5/home/research/hardware/arm2/gcc-arm-embedded/gcc-arm-none-eabi-4_8-2014q2/bin/../lib/gcc/arm-none-eabi/4.8.4/armv7e-m/libgcc.a(_arm_cmpdf2.o)
 .data          0x00000000        0x0 /nfs/nfs5/home/research/hardware/arm2/gcc-arm-embedded/gcc-arm-none-eabi-4_8-2014q2/bin/../lib/gcc/arm-none-eabi/4.8.4/armv7e-m/libgcc.a(_arm_fixdfsi.o)
 .bss           0x00000000        0x0 /nfs/nfs5/home/research/hardware/arm2/gcc-arm-embedded/gcc-arm-none-eabi-4_8-2014q2/bin/../lib/gcc/arm-none-eabi/4.8.4/armv7e-m/libgcc.a(_arm_fixdfsi.o)
 .data          0x00000000        0x0 /nfs/nfs5/home/research/hardware/arm2/gcc-arm-embedded/gcc-arm-none-eabi-4_8-2014q2/bin/../lib/gcc/arm-none-eabi/4.8.4/armv7e-m/libgcc.a(_aeabi_uldivmod.o)
 .bss           0x00000000        0x0 /nfs/nfs5/home/research/hardware/arm2/gcc-arm-embedded/gcc-arm-none-eabi-4_8-2014q2/bin/../lib/gcc/arm-none-eabi/4.8.4/armv7e-m/libgcc.a(_aeabi_uldivmod.o)
 .data          0x00000000        0x0 /nfs/nfs5/home/research/hardware/arm2/gcc-arm-embedded/gcc-arm-none-eabi-4_8-2014q2/bin/../lib/gcc/arm-none-eabi/4.8.4/armv7e-m/libgcc.a(bpabi.o)
 .bss           0x00000000        0x0 /nfs/nfs5/home/research/hardware/arm2/gcc-arm-embedded/gcc-arm-none-eabi-4_8-2014q2/bin/../lib/gcc/arm-none-eabi/4.8.4/armv7e-m/libgcc.a(bpabi.o)
 .data          0x00000000        0x0 /nfs/nfs5/home/research/hardware/arm2/gcc-arm-embedded/gcc-arm-none-eabi-4_8-2014q2/bin/../lib/gcc/arm-none-eabi/4.8.4/armv7e-m/libgcc.a(_dvmd_tls.o)
 .bss           0x00000000        0x0 /nfs/nfs5/home/research/hardware/arm2/gcc-arm-embedded/gcc-arm-none-eabi-4_8-2014q2/bin/../lib/gcc/arm-none-eabi/4.8.4/armv7e-m/libgcc.a(_dvmd_tls.o)
 .data          0x00000000        0x0 /nfs/nfs5/home/research/hardware/arm2/gcc-arm-embedded/gcc-arm-none-eabi-4_8-2014q2/bin/../lib/gcc/arm-none-eabi/4.8.4/armv7e-m/libgcc.a(_divdi3.o)
 .bss           0x00000000        0x0 /nfs/nfs5/home/research/hardware/arm2/gcc-arm-embedded/gcc-arm-none-eabi-4_8-2014q2/bin/../lib/gcc/arm-none-eabi/4.8.4/armv7e-m/libgcc.a(_divdi3.o)
 .ARM.extab     0x00000000        0x0 /nfs/nfs5/home/research/hardware/arm2/gcc-arm-embedded/gcc-arm-none-eabi-4_8-2014q2/bin/../lib/gcc/arm-none-eabi/4.8.4/armv7e-m/libgcc.a(_divdi3.o)
 .data          0x00000000        0x0 /nfs/nfs5/home/research/hardware/arm2/gcc-arm-embedded/gcc-arm-none-eabi-4_8-2014q2/bin/../lib/gcc/arm-none-eabi/4.8.4/armv7e-m/libgcc.a(_udivdi3.o)
 .bss           0x00000000        0x0 /nfs/nfs5/home/research/hardware/arm2/gcc-arm-embedded/gcc-arm-none-eabi-4_8-2014q2/bin/../lib/gcc/arm-none-eabi/4.8.4/armv7e-m/libgcc.a(_udivdi3.o)
 .ARM.extab     0x00000000        0x0 /nfs/nfs5/home/research/hardware/arm2/gcc-arm-embedded/gcc-arm-none-eabi-4_8-2014q2/bin/../lib/gcc/arm-none-eabi/4.8.4/armv7e-m/libgcc.a(_udivdi3.o)

Memory Configuration

Name             Origin             Length             Attributes
flash            0x08000000         0x00040000
ram0             0x20000000         0x0000a000
ram1             0x00000000         0x00000000
ram2             0x00000000         0x00000000
ram3             0x00000000         0x00000000
ram4             0x10000000         0x00002000
ram5             0x00000000         0x00000000
ram6             0x00000000         0x00000000
ram7             0x00000000         0x00000000
*default*        0x00000000         0xffffffff

Linker script and memory map

LOAD build/obj/crt0_v7m.o
LOAD build/obj/chcoreasm_v7m.o
LOAD build/obj/crt1.o
LOAD build/obj/vectors.o
LOAD build/obj/chsys.o
LOAD build/obj/chdebug.o
LOAD build/obj/chvt.o
LOAD build/obj/chschd.o
LOAD build/obj/chthreads.o
LOAD build/obj/chtm.o
LOAD build/obj/chdynamic.o
LOAD build/obj/chregistry.o
LOAD build/obj/chsem.o
LOAD build/obj/chmtx.o
LOAD build/obj/chcond.o
LOAD build/obj/chevents.o
LOAD build/obj/chmsg.o
LOAD build/obj/chmboxes.o
LOAD build/obj/chqueues.o
LOAD build/obj/chmemcore.o
LOAD build/obj/chheap.o
LOAD build/obj/chmempools.o
LOAD build/obj/chcore.o
LOAD build/obj/chcore_v7m.o
LOAD build/obj/osal.o
LOAD build/obj/hal.o
LOAD build/obj/st.o
LOAD build/obj/hal_buffers.o
LOAD build/obj/hal_queues.o
LOAD build/obj/hal_mmcsd.o
LOAD build/obj/adc.o
LOAD build/obj/gpt.o
LOAD build/obj/mmc_spi.o
LOAD build/obj/pal.o
LOAD build/obj/serial.o
LOAD build/obj/spi.o
LOAD build/obj/nvic.o
LOAD build/obj/hal_lld.o
LOAD build/obj/stm32_dma.o
LOAD build/obj/st_lld.o
LOAD build/obj/adc_lld.o
LOAD build/obj/pal_lld.o
LOAD build/obj/spi_lld.o
LOAD build/obj/gpt_lld.o
LOAD build/obj/serial_lld.o
LOAD build/obj/board.o
LOAD build/obj/test.o
LOAD build/obj/testthd.o
LOAD build/obj/testsem.o
LOAD build/obj/testmtx.o
LOAD build/obj/testmsg.o
LOAD build/obj/testmbox.o
LOAD build/obj/testevt.o
LOAD build/obj/testheap.o
LOAD build/obj/testpools.o
LOAD build/obj/testdyn.o
LOAD build/obj/testqueues.o
LOAD build/obj/testsys.o
LOAD build/obj/testbmk.o
LOAD build/obj/shell.o
LOAD build/obj/evtimer.o
LOAD build/obj/syscalls.o
LOAD build/obj/memstreams.o
LOAD build/obj/chprintf.o
LOAD build/obj/ff.o
LOAD build/obj/fatfs_diskio.o
LOAD build/obj/fatfs_syscall.o
LOAD build/obj/main.o
                0x20000000                __ram0_start__ = ORIGIN (ram0)
                0x0000a000                __ram0_size__ = 0xa000
                0x2000a000                __ram0_end__ = (__ram0_start__ + __ram0_size__)
                0x00000000                __ram1_start__ = ORIGIN (ram1)
                0x00000000                __ram1_size__ = 0x0
                0x00000000                __ram1_end__ = (__ram1_start__ + __ram1_size__)
                0x00000000                __ram2_start__ = ORIGIN (ram2)
                0x00000000                __ram2_size__ = 0x0
                0x00000000                __ram2_end__ = (__ram2_start__ + __ram2_size__)
                0x00000000                __ram3_start__ = ORIGIN (ram3)
                0x00000000                __ram3_size__ = 0x0
                0x00000000                __ram3_end__ = (__ram3_start__ + __ram3_size__)
                0x10000000                __ram4_start__ = ORIGIN (ram4)
                0x00002000                __ram4_size__ = 0x2000
                0x10002000                __ram4_end__ = (__ram4_start__ + __ram4_size__)
                0x00000000                __ram5_start__ = ORIGIN (ram5)
                0x00000000                __ram5_size__ = 0x0
                0x00000000                __ram5_end__ = (__ram5_start__ + __ram5_size__)
                0x00000000                __ram6_start__ = ORIGIN (ram6)
                0x00000000                __ram6_size__ = 0x0
                0x00000000                __ram6_end__ = (__ram6_start__ + __ram6_size__)
                0x00000000                __ram7_start__ = ORIGIN (ram7)
                0x00000000                __ram7_size__ = 0x0
                0x00000000                __ram7_end__ = (__ram7_start__ + __ram7_size__)
                0x00000000                . = 0x0
                0x00000000                _text = .

startup         0x08000000      0x200
 *(.vectors)
 .vectors       0x08000000      0x200 build/obj/vectors.o
                0x08000000                _vectors

constructors    0x08000200        0x0
                0x08000200                __init_array_start = .
 *(SORT(.init_array.*))
 *(.init_array)
                0x08000200                __init_array_end = .

destructors     0x08000200        0x0
                0x08000200                __fini_array_start = .
 *(.fini_array)
 *(SORT(.fini_array.*))
                0x08000200                __fini_array_end = .

.text           0x08000200     0xa87c
 *(.text)
 .text          0x08000200       0xd4 build/obj/crt0_v7m.o
                0x08000200                Reset_Handler
 *fill*         0x080002d4        0xc 
 .text          0x080002e0       0x28 build/obj/chcoreasm_v7m.o
                0x080002e0                _port_switch
                0x080002f0                _port_thread_start
                0x08000300                _port_switch_from_isr
                0x08000304                _port_exit_from_isr
 *fill*         0x08000308        0x8 
 .text          0x08000310      0x134 /nfs/nfs5/home/research/hardware/arm2/gcc-arm-embedded/gcc-arm-none-eabi-4_8-2014q2/bin/../lib/gcc/arm-none-eabi/4.8.4/../../../../arm-none-eabi/lib/armv7e-m/libg.a(lib_a-memcpy.o)
                0x08000310                memcpy
 *fill*         0x08000444        0xc 
 .text          0x08000450      0x21c /nfs/nfs5/home/research/hardware/arm2/gcc-arm-embedded/gcc-arm-none-eabi-4_8-2014q2/bin/../lib/gcc/arm-none-eabi/4.8.4/../../../../arm-none-eabi/lib/armv7e-m/libg.a(lib_a-strcmp.o)
                0x08000450                strcmp
 *fill*         0x0800066c        0x4 
 .text          0x08000670      0x370 /nfs/nfs5/home/research/hardware/arm2/gcc-arm-embedded/gcc-arm-none-eabi-4_8-2014q2/bin/../lib/gcc/arm-none-eabi/4.8.4/armv7e-m/libgcc.a(_arm_addsubdf3.o)
                0x08000670                __aeabi_drsub
                0x08000678                __aeabi_dsub
                0x08000678                __subdf3
                0x0800067c                __adddf3
                0x0800067c                __aeabi_dadd
                0x080008f4                __aeabi_ui2d
                0x080008f4                __floatunsidf
                0x08000914                __floatsidf
                0x08000914                __aeabi_i2d
                0x08000938                __extendsfdf2
                0x08000938                __aeabi_f2d
                0x08000974                __aeabi_ul2d
                0x08000974                __floatundidf
                0x08000984                __floatdidf
                0x08000984                __aeabi_l2d
 .text          0x080009e0      0x424 /nfs/nfs5/home/research/hardware/arm2/gcc-arm-embedded/gcc-arm-none-eabi-4_8-2014q2/bin/../lib/gcc/arm-none-eabi/4.8.4/armv7e-m/libgcc.a(_arm_muldivdf3.o)
                0x080009e0                __aeabi_dmul
                0x080009e0                __muldf3
                0x08000c34                __aeabi_ddiv
                0x08000c34                __divdf3
 *fill*         0x08000e04        0xc 
 .text          0x08000e10      0x110 /nfs/nfs5/home/research/hardware/arm2/gcc-arm-embedded/gcc-arm-none-eabi-4_8-2014q2/bin/../lib/gcc/arm-none-eabi/4.8.4/armv7e-m/libgcc.a(_arm_cmpdf2.o)
                0x08000e10                __gtdf2
                0x08000e10                __gedf2
                0x08000e18                __ltdf2
                0x08000e18                __ledf2
                0x08000e20                __cmpdf2
                0x08000e20                __eqdf2
                0x08000e20                __nedf2
                0x08000e9c                __aeabi_cdrcmple
                0x08000eac                __aeabi_cdcmple
                0x08000eac                __aeabi_cdcmpeq
                0x08000ebc                __aeabi_dcmpeq
                0x08000ed0                __aeabi_dcmplt
                0x08000ee4                __aeabi_dcmple
                0x08000ef8                __aeabi_dcmpge
                0x08000f0c                __aeabi_dcmpgt
 .text          0x08000f20       0x50 /nfs/nfs5/home/research/hardware/arm2/gcc-arm-embedded/gcc-arm-none-eabi-4_8-2014q2/bin/../lib/gcc/arm-none-eabi/4.8.4/armv7e-m/libgcc.a(_arm_fixdfsi.o)
                0x08000f20                __fixdfsi
                0x08000f20                __aeabi_d2iz
 .text          0x08000f70       0x2c /nfs/nfs5/home/research/hardware/arm2/gcc-arm-embedded/gcc-arm-none-eabi-4_8-2014q2/bin/../lib/gcc/arm-none-eabi/4.8.4/armv7e-m/libgcc.a(_aeabi_uldivmod.o)
                0x08000f70                __aeabi_uldivmod
 *fill*         0x08000f9c        0x4 
 .text          0x08000fa0       0x60 /nfs/nfs5/home/research/hardware/arm2/gcc-arm-embedded/gcc-arm-none-eabi-4_8-2014q2/bin/../lib/gcc/arm-none-eabi/4.8.4/armv7e-m/libgcc.a(bpabi.o)
                0x08000fa0                __gnu_ldivmod_helper
                0x08000fd0                __gnu_uldivmod_helper
 .text          0x08001000        0x4 /nfs/nfs5/home/research/hardware/arm2/gcc-arm-embedded/gcc-arm-none-eabi-4_8-2014q2/bin/../lib/gcc/arm-none-eabi/4.8.4/armv7e-m/libgcc.a(_dvmd_tls.o)
                0x08001000                __aeabi_ldiv0
                0x08001000                __aeabi_idiv0
 *fill*         0x08001004        0xc 
 .text          0x08001010      0x298 /nfs/nfs5/home/research/hardware/arm2/gcc-arm-embedded/gcc-arm-none-eabi-4_8-2014q2/bin/../lib/gcc/arm-none-eabi/4.8.4/armv7e-m/libgcc.a(_divdi3.o)
                0x08001010                __divdi3
 *fill*         0x080012a8        0x8 
 .text          0x080012b0      0x284 /nfs/nfs5/home/research/hardware/arm2/gcc-arm-embedded/gcc-arm-none-eabi-4_8-2014q2/bin/../lib/gcc/arm-none-eabi/4.8.4/armv7e-m/libgcc.a(_udivdi3.o)
                0x080012b0                __udivdi3
 *(.text.*)
 *fill*         0x08001534        0xc 
 .text.__core_init
                0x08001540       0x10 build/obj/crt1.o
                0x08001540                __core_init
 .text.__late_init
                0x08001550       0x10 build/obj/crt1.o
                0x08001550                __late_init
 .text.__default_exit
                0x08001560       0x10 build/obj/crt1.o
                0x08001560                __default_exit
 .text.__init_ram_areas
                0x08001570       0x60 build/obj/crt1.o
                0x08001570                __init_ram_areas
 .text._unhandled_exception
                0x080015d0       0x10 build/obj/vectors.o
                0x080015d0                Vector58
                0x080015d0                VectorE8
                0x080015d0                Vector9C
                0x080015d0                VectorAC
                0x080015d0                DebugMon_Handler
                0x080015d0                Vector5C
                0x080015d0                Vector11C
                0x080015d0                HardFault_Handler
                0x080015d0                Vector19C
                0x080015d0                Vector8C
                0x080015d0                SysTick_Handler
                0x080015d0                VectorDC
                0x080015d0                PendSV_Handler
                0x080015d0                Vector168
                0x080015d0                NMI_Handler
                0x080015d0                Vector110
                0x080015d0                VectorC8
                0x080015d0                Vector94
                0x080015d0                VectorA8
                0x080015d0                VectorB4
                0x080015d0                Vector160
                0x080015d0                UsageFault_Handler
                0x080015d0                VectorEC
                0x080015d0                Vector40
                0x080015d0                VectorF8
                0x080015d0                Vector108
                0x080015d0                VectorBC
                0x080015d0                Vector190
                0x080015d0                Vector150
                0x080015d0                Vector148
                0x080015d0                Vector188
                0x080015d0                Vector198
                0x080015d0                Vector118
                0x080015d0                Vector64
                0x080015d0                VectorCC
                0x080015d0                Vector54
                0x080015d0                Vector98
                0x080015d0                VectorD8
                0x080015d0                Vector138
                0x080015d0                Vector24
                0x080015d0                Vector178
                0x080015d0                VectorD0
                0x080015d0                Vector140
                0x080015d0                VectorE4
                0x080015d0                VectorC0
                0x080015d0                Vector158
                0x080015d0                VectorF0
                0x080015d0                Vector13C
                0x080015d0                Vector100
                0x080015d0                VectorE0
                0x080015d0                VectorF4
                0x080015d0                MemManage_Handler
                0x080015d0                VectorA0
                0x080015d0                VectorC4
                0x080015d0                Vector180
                0x080015d0                Vector90
                0x080015d0                Vector114
                0x080015d0                Vector164
                0x080015d0                Vector60
                0x080015d0                Vector1C
                0x080015d0                Vector17C
                0x080015d0                Vector48
                0x080015d0                Vector16C
                0x080015d0                Vector4C
                0x080015d0                Vector144
                0x080015d0                Vector15C
                0x080015d0                Vector68
                0x080015d0                _unhandled_exception
                0x080015d0                Vector170
                0x080015d0                Vector104
                0x080015d0                Vector184
                0x080015d0                Vector10C
                0x080015d0                Vector14C
                0x080015d0                BusFault_Handler
                0x080015d0                Vector50
                0x080015d0                Vector194
                0x080015d0                Vector154
                0x080015d0                Vector44
                0x080015d0                Vector28
                0x080015d0                VectorB8
                0x080015d0                Vector34
                0x080015d0                Vector20
                0x080015d0                Vector18C
                0x080015d0                Vector174
 .text._idle_thread
                0x080015e0       0x10 build/obj/chsys.o
 .text.chSysInit
                0x080015f0       0xa0 build/obj/chsys.o
                0x080015f0                chSysInit
 .text.chSysHalt
                0x08001690       0x10 build/obj/chsys.o
                0x08001690                chSysHalt
 .text.chSysTimerHandlerI
                0x080016a0       0x80 build/obj/chsys.o
                0x080016a0                chSysTimerHandlerI
 .text.chSysPolledDelayX
                0x08001720       0x20 build/obj/chsys.o
                0x08001720                chSysPolledDelayX
 .text._vt_init
                0x08001740       0x20 build/obj/chvt.o
                0x08001740                _vt_init
 .text.chVTDoSetI
                0x08001760       0x80 build/obj/chvt.o
                0x08001760                chVTDoSetI
 .text.chVTDoResetI
                0x080017e0       0x80 build/obj/chvt.o
                0x080017e0                chVTDoResetI
 .text.wakeup   0x08001860       0x70 build/obj/chschd.o
 .text._scheduler_init
                0x080018d0       0x20 build/obj/chschd.o
                0x080018d0                _scheduler_init
 .text.chSchReadyI
                0x080018f0       0x30 build/obj/chschd.o
                0x080018f0                chSchReadyI
 .text.chSchGoSleepS
                0x08001920       0x30 build/obj/chschd.o
                0x08001920                chSchGoSleepS
 .text.chSchGoSleepTimeoutS
                0x08001950       0x50 build/obj/chschd.o
                0x08001950                chSchGoSleepTimeoutS
 .text.chSchWakeupS
                0x080019a0       0x60 build/obj/chschd.o
                0x080019a0                chSchWakeupS
 .text.chSchIsPreemptionRequired
                0x08001a00       0x20 build/obj/chschd.o
                0x08001a00                chSchIsPreemptionRequired
 .text.chSchDoRescheduleBehind
                0x08001a20       0x40 build/obj/chschd.o
                0x08001a20                chSchDoRescheduleBehind
 .text.chSchDoRescheduleAhead
                0x08001a60       0x40 build/obj/chschd.o
                0x08001a60                chSchDoRescheduleAhead
 .text.chSchRescheduleS
                0x08001aa0       0x20 build/obj/chschd.o
                0x08001aa0                chSchRescheduleS
 .text.chSchDoReschedule
                0x08001ac0       0x10 build/obj/chschd.o
                0x08001ac0                chSchDoReschedule
 .text._thread_init
                0x08001ad0       0x50 build/obj/chthreads.o
                0x08001ad0                _thread_init
 .text.chThdCreateI
                0x08001b20       0x70 build/obj/chthreads.o
                0x08001b20                chThdCreateI
 .text.chThdCreateStatic
                0x08001b90       0x80 build/obj/chthreads.o
                0x08001b90                chThdCreateStatic
 .text.chThdSleep
                0x08001c10       0x20 build/obj/chthreads.o
                0x08001c10                chThdSleep
 .text.chThdYield
                0x08001c30       0x30 build/obj/chthreads.o
                0x08001c30                chThdYield
 .text.chThdExitS
                0x08001c60       0x40 build/obj/chthreads.o
                0x08001c60                chThdExitS
 .text.chThdExit
                0x08001ca0       0x10 build/obj/chthreads.o
                0x08001ca0                chThdExit
 .text.chThdWait
                0x08001cb0       0x40 build/obj/chthreads.o
                0x08001cb0                chThdWait
 .text.chThdSuspendS
                0x08001cf0       0x20 build/obj/chthreads.o
                0x08001cf0                chThdSuspendS
 .text.chThdResumeI
                0x08001d10       0x20 build/obj/chthreads.o
                0x08001d10                chThdResumeI
 .text.chThdEnqueueTimeoutS
                0x08001d30       0x30 build/obj/chthreads.o
                0x08001d30                chThdEnqueueTimeoutS
 .text.chThdDequeueNextI
                0x08001d60       0x30 build/obj/chthreads.o
                0x08001d60                chThdDequeueNextI
 .text.chTMStartMeasurementX
                0x08001d90       0x10 build/obj/chtm.o
                0x08001d90                chTMStartMeasurementX
 .text.chTMStopMeasurementX
                0x08001da0       0x50 build/obj/chtm.o
                0x08001da0                chTMStopMeasurementX
 .text._tm_init
                0x08001df0       0x40 build/obj/chtm.o
                0x08001df0                _tm_init
 .text.chThdRelease
                0x08001e30       0x50 build/obj/chdynamic.o
                0x08001e30                chThdRelease
 .text.chThdCreateFromHeap
                0x08001e80       0x40 build/obj/chdynamic.o
                0x08001e80                chThdCreateFromHeap
 .text.chSemObjectInit
                0x08001ec0       0x10 build/obj/chsem.o
                0x08001ec0                chSemObjectInit
 .text.chSemWaitS
                0x08001ed0       0x40 build/obj/chsem.o
                0x08001ed0                chSemWaitS
 .text.chSemWait
                0x08001f10       0x20 build/obj/chsem.o
                0x08001f10                chSemWait
 .text.chSemSignalI
                0x08001f30       0x20 build/obj/chsem.o
                0x08001f30                chSemSignalI
 .text.chMtxObjectInit
                0x08001f50       0x10 build/obj/chmtx.o
                0x08001f50                chMtxObjectInit
 .text.chMtxLockS
                0x08001f60       0xd0 build/obj/chmtx.o
                0x08001f60                chMtxLockS
 .text.chMtxLock
                0x08002030       0x20 build/obj/chmtx.o
                0x08002030                chMtxLock
 .text.chMtxUnlock
                0x08002050       0x70 build/obj/chmtx.o
                0x08002050                chMtxUnlock
 .text.chEvtSignalI
                0x080020c0       0x30 build/obj/chevents.o
                0x080020c0                chEvtSignalI
 .text.chEvtBroadcastFlagsI
                0x080020f0       0x30 build/obj/chevents.o
                0x080020f0                chEvtBroadcastFlagsI
 .text.chEvtDispatch
                0x08002120       0x40 build/obj/chevents.o
                0x08002120                chEvtDispatch
 .text.chEvtWaitOne
                0x08002160       0x40 build/obj/chevents.o
                0x08002160                chEvtWaitOne
 .text.chIQObjectInit
                0x080021a0       0x20 build/obj/chqueues.o
                0x080021a0                chIQObjectInit
 .text.chIQPutI
                0x080021c0       0x40 build/obj/chqueues.o
                0x080021c0                chIQPutI
 .text.chIQGetTimeout
                0x08002200       0x50 build/obj/chqueues.o
                0x08002200                chIQGetTimeout
 .text.chIQReadTimeout
                0x08002250       0x80 build/obj/chqueues.o
                0x08002250                chIQReadTimeout
 .text.chOQObjectInit
                0x080022d0       0x20 build/obj/chqueues.o
                0x080022d0                chOQObjectInit
 .text.chOQPutTimeout
                0x080022f0       0x60 build/obj/chqueues.o
                0x080022f0                chOQPutTimeout
 .text.chOQGetI
                0x08002350       0x40 build/obj/chqueues.o
                0x08002350                chOQGetI
 .text.chOQWriteTimeout
                0x08002390       0x90 build/obj/chqueues.o
                0x08002390                chOQWriteTimeout
 .text._core_init
                0x08002420       0x30 build/obj/chmemcore.o
                0x08002420                _core_init
 .text.chCoreAlloc
                0x08002450       0x40 build/obj/chmemcore.o
                0x08002450                chCoreAlloc
 .text._heap_init
                0x08002490       0x20 build/obj/chheap.o
                0x08002490                _heap_init
 .text.chHeapAlloc
                0x080024b0       0x90 build/obj/chheap.o
                0x080024b0                chHeapAlloc
 .text.chHeapFree
                0x08002540       0xa0 build/obj/chheap.o
                0x08002540                chHeapFree
 .text.chPoolFree
                0x080025e0       0x20 build/obj/chmempools.o
                0x080025e0                chPoolFree
 .text.SVC_Handler
                0x08002600       0x20 build/obj/chcore_v7m.o
                0x08002600                SVC_Handler
 .text._port_irq_epilogue
                0x08002620       0x50 build/obj/chcore_v7m.o
                0x08002620                _port_irq_epilogue
 .text.halInit  0x08002670       0x30 build/obj/hal.o
                0x08002670                halInit
 .text.stInit   0x080026a0       0x10 build/obj/st.o
                0x080026a0                stInit
 .text.stStartAlarm
                0x080026b0       0x10 build/obj/st.o
                0x080026b0                stStartAlarm
 .text.stStopAlarm
                0x080026c0       0x10 build/obj/st.o
                0x080026c0                stStopAlarm
 .text.stSetAlarm
                0x080026d0       0x10 build/obj/st.o
                0x080026d0                stSetAlarm
 .text._mmcsd_get_slice
                0x080026e0       0x50 build/obj/hal_mmcsd.o
                0x080026e0                _mmcsd_get_slice
 .text._mmcsd_get_capacity
                0x08002730       0x60 build/obj/hal_mmcsd.o
                0x08002730                _mmcsd_get_capacity
 .text.adcInit  0x08002790       0x10 build/obj/adc.o
                0x08002790                adcInit
 .text.adcObjectInit
                0x080027a0       0x20 build/obj/adc.o
                0x080027a0                adcObjectInit
 .text.adcStart
                0x080027c0       0x20 build/obj/adc.o
                0x080027c0                adcStart
 .text.adcStartConversion
                0x080027e0       0x20 build/obj/adc.o
                0x080027e0                adcStartConversion
 .text.gptInit  0x08002800       0x10 build/obj/gpt.o
                0x08002800                gptInit
 .text.gptObjectInit
                0x08002810       0x10 build/obj/gpt.o
                0x08002810                gptObjectInit
 .text.gptStart
                0x08002820       0x20 build/obj/gpt.o
                0x08002820                gptStart
 .text.gptStartContinuous
                0x08002840       0x20 build/obj/gpt.o
                0x08002840                gptStartContinuous
 .text.mmcGetInfo
                0x08002860       0x20 build/obj/mmc_spi.o
                0x08002860                mmcGetInfo
 .text.recvr1.isra.0
                0x08002880       0x30 build/obj/mmc_spi.o
 .text.wait.isra.1
                0x080028b0       0x40 build/obj/mmc_spi.o
 .text.send_hdr
                0x080028f0       0x70 build/obj/mmc_spi.o
 .text.send_command_R3
                0x08002960       0x40 build/obj/mmc_spi.o
 .text.send_command_R1
                0x080029a0       0x30 build/obj/mmc_spi.o
 .text.read_CxD
                0x080029d0       0xb0 build/obj/mmc_spi.o
 .text.mmcConnect
                0x08002a80      0x120 build/obj/mmc_spi.o
                0x08002a80                mmcConnect
 .text.sync.isra.2
                0x08002ba0       0x40 build/obj/mmc_spi.o
 .text.mmcDisconnect
                0x08002be0       0x50 build/obj/mmc_spi.o
                0x08002be0                mmcDisconnect
 .text.mmcSync  0x08002c30       0x30 build/obj/mmc_spi.o
                0x08002c30                mmcSync
 .text.mmcInit  0x08002c60       0x10 build/obj/mmc_spi.o
                0x08002c60                mmcInit
 .text.mmcObjectInit
                0x08002c70       0x20 build/obj/mmc_spi.o
                0x08002c70                mmcObjectInit
 .text.mmcStart
                0x08002c90       0x10 build/obj/mmc_spi.o
                0x08002c90                mmcStart
 .text.mmcStartSequentialRead
                0x08002ca0       0x60 build/obj/mmc_spi.o
                0x08002ca0                mmcStartSequentialRead
 .text.mmcSequentialRead
                0x08002d00       0x60 build/obj/mmc_spi.o
                0x08002d00                mmcSequentialRead
 .text.mmcStopSequentialRead
                0x08002d60       0x40 build/obj/mmc_spi.o
                0x08002d60                mmcStopSequentialRead
 .text.mmc_read
                0x08002da0       0x40 build/obj/mmc_spi.o
 .text.mmcStartSequentialWrite
                0x08002de0       0x60 build/obj/mmc_spi.o
                0x08002de0                mmcStartSequentialWrite
 .text.mmcSequentialWrite
                0x08002e40       0x80 build/obj/mmc_spi.o
                0x08002e40                mmcSequentialWrite
 .text.mmcStopSequentialWrite
                0x08002ec0       0x30 build/obj/mmc_spi.o
                0x08002ec0                mmcStopSequentialWrite
 .text.mmc_write
                0x08002ef0       0x40 build/obj/mmc_spi.o
 .text.readt    0x08002f30       0x10 build/obj/serial.o
 .text.read     0x08002f40       0x10 build/obj/serial.o
 .text.writet   0x08002f50       0x10 build/obj/serial.o
 .text.write    0x08002f60       0x10 build/obj/serial.o
 .text.gett     0x08002f70       0x10 build/obj/serial.o
 .text.get      0x08002f80       0x10 build/obj/serial.o
 .text.putt     0x08002f90       0x10 build/obj/serial.o
 .text.put      0x08002fa0       0x10 build/obj/serial.o
 .text.sdInit   0x08002fb0       0x10 build/obj/serial.o
                0x08002fb0                sdInit
 .text.sdObjectInit
                0x08002fc0       0x40 build/obj/serial.o
                0x08002fc0                sdObjectInit
 .text.sdStart  0x08003000       0x20 build/obj/serial.o
                0x08003000                sdStart
 .text.sdIncomingDataI
                0x08003020       0x40 build/obj/serial.o
                0x08003020                sdIncomingDataI
 .text.spiInit  0x08003060       0x10 build/obj/spi.o
                0x08003060                spiInit
 .text.spiObjectInit
                0x08003070       0x10 build/obj/spi.o
                0x08003070                spiObjectInit
 .text.spiStart
                0x08003080       0x20 build/obj/spi.o
                0x08003080                spiStart
 .text.spiStop  0x080030a0       0x20 build/obj/spi.o
                0x080030a0                spiStop
 .text.spiSelect
                0x080030c0       0x20 build/obj/spi.o
                0x080030c0                spiSelect
 .text.spiUnselect
                0x080030e0       0x20 build/obj/spi.o
                0x080030e0                spiUnselect
 .text.spiIgnore
                0x08003100       0x30 build/obj/spi.o
                0x08003100                spiIgnore
 .text.spiSend  0x08003130       0x30 build/obj/spi.o
                0x08003130                spiSend
 .text.spiReceive
                0x08003160       0x30 build/obj/spi.o
                0x08003160                spiReceive
 .text.nvicEnableVector
                0x08003190       0x40 build/obj/nvic.o
                0x08003190                nvicEnableVector
 .text.nvicDisableVector
                0x080031d0       0x30 build/obj/nvic.o
                0x080031d0                nvicDisableVector
 .text.hal_lld_init
                0x08003200       0x80 build/obj/hal_lld.o
                0x08003200                hal_lld_init
 .text.stm32_clock_init
                0x08003280       0xa0 build/obj/hal_lld.o
                0x08003280                stm32_clock_init
 .text.Vector6C
                0x08003320       0x30 build/obj/stm32_dma.o
                0x08003320                Vector6C
 .text.Vector70
                0x08003350       0x30 build/obj/stm32_dma.o
                0x08003350                Vector70
 .text.Vector74
                0x08003380       0x30 build/obj/stm32_dma.o
                0x08003380                Vector74
 .text.Vector78
                0x080033b0       0x30 build/obj/stm32_dma.o
                0x080033b0                Vector78
 .text.Vector7C
                0x080033e0       0x30 build/obj/stm32_dma.o
                0x080033e0                Vector7C
 .text.Vector80
                0x08003410       0x30 build/obj/stm32_dma.o
                0x08003410                Vector80
 .text.Vector84
                0x08003440       0x30 build/obj/stm32_dma.o
                0x08003440                Vector84
 .text.Vector120
                0x08003470       0x30 build/obj/stm32_dma.o
                0x08003470                Vector120
 .text.Vector124
                0x080034a0       0x30 build/obj/stm32_dma.o
                0x080034a0                Vector124
 .text.Vector128
                0x080034d0       0x30 build/obj/stm32_dma.o
                0x080034d0                Vector128
 .text.Vector12C
                0x08003500       0x30 build/obj/stm32_dma.o
                0x08003500                Vector12C
 .text.Vector130
                0x08003530       0x30 build/obj/stm32_dma.o
                0x08003530                Vector130
 .text.dmaInit  0x08003560       0x50 build/obj/stm32_dma.o
                0x08003560                dmaInit
 .text.dmaStreamAllocate
                0x080035b0       0xa0 build/obj/stm32_dma.o
                0x080035b0                dmaStreamAllocate
 .text.dmaStreamRelease
                0x08003650       0x60 build/obj/stm32_dma.o
                0x08003650                dmaStreamRelease
 .text.VectorB0
                0x080036b0       0x30 build/obj/st_lld.o
                0x080036b0                VectorB0
 .text.st_lld_init
                0x080036e0       0x50 build/obj/st_lld.o
                0x080036e0                st_lld_init
 .text.adc_lld_init
                0x08003730      0x120 build/obj/adc_lld.o
                0x08003730                adc_lld_init
 .text.adc_lld_start
                0x08003850      0x120 build/obj/adc_lld.o
                0x08003850                adc_lld_start
 .text.adc_lld_start_conversion
                0x08003970       0x90 build/obj/adc_lld.o
                0x08003970                adc_lld_start_conversion
 .text.adc_lld_stop_conversion
                0x08003a00       0x40 build/obj/adc_lld.o
                0x08003a00                adc_lld_stop_conversion
 .text.adc_lld_serve_interrupt
                0x08003a40      0x120 build/obj/adc_lld.o
 .text.Vector88
                0x08003b60       0x30 build/obj/adc_lld.o
                0x08003b60                Vector88
 .text.VectorFC
                0x08003b90       0x20 build/obj/adc_lld.o
                0x08003b90                VectorFC
 .text.Vector134
                0x08003bb0       0x20 build/obj/adc_lld.o
                0x08003bb0                Vector134
 .text.adc_lld_serve_dma_interrupt
                0x08003bd0       0xd0 build/obj/adc_lld.o
 .text._pal_lld_init
                0x08003ca0      0x100 build/obj/pal_lld.o
                0x08003ca0                _pal_lld_init
 .text._pal_lld_setgroupmode
                0x08003da0       0xd0 build/obj/pal_lld.o
                0x08003da0                _pal_lld_setgroupmode
 .text.spi_lld_serve_tx_interrupt
                0x08003e70       0x10 build/obj/spi_lld.o
 .text.spi_lld_serve_rx_interrupt
                0x08003e80       0x80 build/obj/spi_lld.o
 .text.spi_lld_init
                0x08003f00       0x60 build/obj/spi_lld.o
                0x08003f00                spi_lld_init
 .text.spi_lld_start
                0x08003f60       0xe0 build/obj/spi_lld.o
                0x08003f60                spi_lld_start
 .text.spi_lld_stop
                0x08004040       0x50 build/obj/spi_lld.o
                0x08004040                spi_lld_stop
 .text.spi_lld_select
                0x08004090       0x20 build/obj/spi_lld.o
                0x08004090                spi_lld_select
 .text.spi_lld_unselect
                0x080040b0       0x20 build/obj/spi_lld.o
                0x080040b0                spi_lld_unselect
 .text.spi_lld_ignore
                0x080040d0       0x40 build/obj/spi_lld.o
                0x080040d0                spi_lld_ignore
 .text.spi_lld_send
                0x08004110       0x40 build/obj/spi_lld.o
                0x08004110                spi_lld_send
 .text.spi_lld_receive
                0x08004150       0x40 build/obj/spi_lld.o
                0x08004150                spi_lld_receive
 .text.gpt_lld_init
                0x08004190       0x20 build/obj/gpt_lld.o
                0x08004190                gpt_lld_init
 .text.gpt_lld_start
                0x080041b0       0x70 build/obj/gpt_lld.o
                0x080041b0                gpt_lld_start
 .text.gpt_lld_start_timer
                0x08004220       0x30 build/obj/gpt_lld.o
                0x08004220                gpt_lld_start_timer
 .text.gpt_lld_serve_interrupt
                0x08004250       0x30 build/obj/gpt_lld.o
                0x08004250                gpt_lld_serve_interrupt
 .text.VectorA4
                0x08004280       0x20 build/obj/gpt_lld.o
                0x08004280                VectorA4
 .text.notify1  0x080042a0       0x10 build/obj/serial_lld.o
 .text.VectorD4
                0x080042b0      0x100 build/obj/serial_lld.o
                0x080042b0                VectorD4
 .text.sd_lld_init
                0x080043b0       0x40 build/obj/serial_lld.o
                0x080043b0                sd_lld_init
 .text.sd_lld_start
                0x080043f0       0x60 build/obj/serial_lld.o
                0x080043f0                sd_lld_start
 .text.__early_init
                0x08004450       0x10 build/obj/board.o
                0x08004450                __early_init
 .text.mmc_lld_is_card_inserted
                0x08004460       0x10 build/obj/board.o
                0x08004460                mmc_lld_is_card_inserted
 .text.mmc_lld_is_write_protected
                0x08004470       0x10 build/obj/board.o
                0x08004470                mmc_lld_is_write_protected
 .text.boardInit
                0x08004480       0x10 build/obj/board.o
                0x08004480                boardInit
 .text.cmd_systime
                0x08004490       0x30 build/obj/shell.o
 .text.cmd_info
                0x080044c0       0xc0 build/obj/shell.o
 .text._strtok.constprop.2
                0x08004580       0x40 build/obj/shell.o
 .text.shellInit
                0x080045c0       0x10 build/obj/shell.o
                0x080045c0                shellInit
 .text.shellExit
                0x080045d0       0x20 build/obj/shell.o
                0x080045d0                shellExit
 .text.shellCreate
                0x080045f0       0x20 build/obj/shell.o
                0x080045f0                shellCreate
 .text.shellGetLine
                0x08004610       0xa0 build/obj/shell.o
                0x08004610                shellGetLine
 .text.shell_thread
                0x080046b0      0x1a0 build/obj/shell.o
 .text._sbrk_r  0x08004850       0x20 build/obj/syscalls.o
                0x08004850                _sbrk_r
 .text.long_to_string_with_divisor.constprop.0
                0x08004870       0x50 build/obj/chprintf.o
 .text.chvprintf
                0x080048c0      0x280 build/obj/chprintf.o
                0x080048c0                chvprintf
 .text.chprintf
                0x08004b40       0x20 build/obj/chprintf.o
                0x08004b40                chprintf
 .text.get_ldnumber
                0x08004b60       0x50 build/obj/ff.o
 .text.validate
                0x08004bb0       0x30 build/obj/ff.o
 .text.sync_window.part.3
                0x08004be0       0x50 build/obj/ff.o
 .text.sync_fs  0x08004c30       0xe0 build/obj/ff.o
 .text.move_window
                0x08004d10       0x40 build/obj/ff.o
 .text.check_fs
                0x08004d50       0x90 build/obj/ff.o
 .text.find_volume
                0x08004de0      0x330 build/obj/ff.o
 .text.get_fat.part.6
                0x08005110       0xd0 build/obj/ff.o
 .text.dir_sdi  0x080051e0       0xa0 build/obj/ff.o
 .text.put_fat.part.8
                0x08005280      0x100 build/obj/ff.o
 .text.create_chain
                0x08005380       0xd0 build/obj/ff.o
 .text.dir_next
                0x08005450      0x140 build/obj/ff.o
 .text.follow_path
                0x08005590      0x200 build/obj/ff.o
 .text.remove_chain.part.10
                0x08005790       0x60 build/obj/ff.o
 .text.dir_register
                0x080057f0       0x70 build/obj/ff.o
 .text.f_mount  0x08005860       0x60 build/obj/ff.o
                0x08005860                f_mount
 .text.f_open   0x080058c0      0x180 build/obj/ff.o
                0x080058c0                f_open
 .text.f_write  0x08005a40      0x1d0 build/obj/ff.o
                0x08005a40                f_write
 .text.f_sync   0x08005c10       0xb0 build/obj/ff.o
                0x08005c10                f_sync
 .text.f_close  0x08005cc0       0x20 build/obj/ff.o
                0x08005cc0                f_close
 .text.f_lseek  0x08005ce0      0x170 build/obj/ff.o
                0x08005ce0                f_lseek
 .text.disk_initialize
                0x08005e50       0x30 build/obj/fatfs_diskio.o
                0x08005e50                disk_initialize
 .text.disk_status
                0x08005e80       0x30 build/obj/fatfs_diskio.o
                0x08005e80                disk_status
 .text.disk_read
                0x08005eb0       0x60 build/obj/fatfs_diskio.o
                0x08005eb0                disk_read
 .text.disk_write
                0x08005f10       0x70 build/obj/fatfs_diskio.o
                0x08005f10                disk_write
 .text.disk_ioctl
                0x08005f80       0x20 build/obj/fatfs_diskio.o
                0x08005f80                disk_ioctl
 .text.get_fattime
                0x08005fa0       0x10 build/obj/fatfs_diskio.o
                0x08005fa0                get_fattime
 .text.termination_handler
                0x08005fb0       0x50 build/obj/main.o
 .text.counterThread
                0x08006000       0x30 build/obj/main.o
 .text.collector
                0x08006030      0x130 build/obj/main.o
 .text.init_mmc
                0x08006160       0x80 build/obj/main.o
                0x08006160                init_mmc
 .text.appendToCard
                0x080061e0       0xa0 build/obj/main.o
                0x080061e0                appendToCard
 .text.printerThread
                0x08006280      0x110 build/obj/main.o
 .text.initSDcard
                0x08006390       0x50 build/obj/main.o
                0x08006390                initSDcard
 .text.startup.main
                0x080063e0      0x170 build/obj/main.o
                0x080063e0                main
 .text.memset   0x08006550       0x94 /nfs/nfs5/home/research/hardware/arm2/gcc-arm-embedded/gcc-arm-none-eabi-4_8-2014q2/bin/../lib/gcc/arm-none-eabi/4.8.4/../../../../arm-none-eabi/lib/armv7e-m/libg.a(lib_a-memset.o)
                0x08006550                memset
 *fill*         0x080065e4        0xc 
 .text.sprintf  0x080065f0       0x4c /nfs/nfs5/home/research/hardware/arm2/gcc-arm-embedded/gcc-arm-none-eabi-4_8-2014q2/bin/../lib/gcc/arm-none-eabi/4.8.4/../../../../arm-none-eabi/lib/armv7e-m/libg.a(lib_a-sprintf.o)
                0x080065f0                sprintf
 *fill*         0x0800663c        0x4 
 .text.strpbrk  0x08006640       0x50 /nfs/nfs5/home/research/hardware/arm2/gcc-arm-embedded/gcc-arm-none-eabi-4_8-2014q2/bin/../lib/gcc/arm-none-eabi/4.8.4/../../../../arm-none-eabi/lib/armv7e-m/libg.a(lib_a-strpbrk.o)
                0x08006640                strpbrk
 .text.strspn   0x08006690       0x40 /nfs/nfs5/home/research/hardware/arm2/gcc-arm-embedded/gcc-arm-none-eabi-4_8-2014q2/bin/../lib/gcc/arm-none-eabi/4.8.4/../../../../arm-none-eabi/lib/armv7e-m/libg.a(lib_a-strspn.o)
                0x08006690                strspn
 .text._svfprintf_r
                0x080066d0     0x14f8 /nfs/nfs5/home/research/hardware/arm2/gcc-arm-embedded/gcc-arm-none-eabi-4_8-2014q2/bin/../lib/gcc/arm-none-eabi/4.8.4/../../../../arm-none-eabi/lib/armv7e-m/libg.a(lib_a-svfprintf.o)
                0x080066d0                _svfprintf_r
 *fill*         0x08007bc8        0x8 
 .text.quorem   0x08007bd0      0x130 /nfs/nfs5/home/research/hardware/arm2/gcc-arm-embedded/gcc-arm-none-eabi-4_8-2014q2/bin/../lib/gcc/arm-none-eabi/4.8.4/../../../../arm-none-eabi/lib/armv7e-m/libg.a(lib_a-dtoa.o)
 .text._dtoa_r  0x08007d00      0xe38 /nfs/nfs5/home/research/hardware/arm2/gcc-arm-embedded/gcc-arm-none-eabi-4_8-2014q2/bin/../lib/gcc/arm-none-eabi/4.8.4/../../../../arm-none-eabi/lib/armv7e-m/libg.a(lib_a-dtoa.o)
                0x08007d00                _dtoa_r
 *fill*         0x08008b38        0x8 
 .text._localeconv_r
                0x08008b40        0x8 /nfs/nfs5/home/research/hardware/arm2/gcc-arm-embedded/gcc-arm-none-eabi-4_8-2014q2/bin/../lib/gcc/arm-none-eabi/4.8.4/../../../../arm-none-eabi/lib/armv7e-m/libg.a(lib_a-locale.o)
                0x08008b40                _localeconv_r
 *fill*         0x08008b48        0x8 
 .text._malloc_r
                0x08008b50      0x538 /nfs/nfs5/home/research/hardware/arm2/gcc-arm-embedded/gcc-arm-none-eabi-4_8-2014q2/bin/../lib/gcc/arm-none-eabi/4.8.4/../../../../arm-none-eabi/lib/armv7e-m/libg.a(lib_a-mallocr.o)
                0x08008b50                _malloc_r
 *fill*         0x08009088        0x8 
 .text.memchr   0x08009090       0x90 /nfs/nfs5/home/research/hardware/arm2/gcc-arm-embedded/gcc-arm-none-eabi-4_8-2014q2/bin/../lib/gcc/arm-none-eabi/4.8.4/../../../../arm-none-eabi/lib/armv7e-m/libg.a(lib_a-memchr-stub.o)
                0x08009090                memchr
 .text.__malloc_lock
                0x08009120        0x4 /nfs/nfs5/home/research/hardware/arm2/gcc-arm-embedded/gcc-arm-none-eabi-4_8-2014q2/bin/../lib/gcc/arm-none-eabi/4.8.4/../../../../arm-none-eabi/lib/armv7e-m/libg.a(lib_a-mlock.o)
                0x08009120                __malloc_lock
 *fill*         0x08009124        0xc 
 .text.__malloc_unlock
                0x08009130        0x4 /nfs/nfs5/home/research/hardware/arm2/gcc-arm-embedded/gcc-arm-none-eabi-4_8-2014q2/bin/../lib/gcc/arm-none-eabi/4.8.4/../../../../arm-none-eabi/lib/armv7e-m/libg.a(lib_a-mlock.o)
                0x08009130                __malloc_unlock
 *fill*         0x08009134        0xc 
 .text._Balloc  0x08009140       0x4c /nfs/nfs5/home/research/hardware/arm2/gcc-arm-embedded/gcc-arm-none-eabi-4_8-2014q2/bin/../lib/gcc/arm-none-eabi/4.8.4/../../../../arm-none-eabi/lib/armv7e-m/libg.a(lib_a-mprec.o)
                0x08009140                _Balloc
 *fill*         0x0800918c        0x4 
 .text._Bfree   0x08009190       0x14 /nfs/nfs5/home/research/hardware/arm2/gcc-arm-embedded/gcc-arm-none-eabi-4_8-2014q2/bin/../lib/gcc/arm-none-eabi/4.8.4/../../../../arm-none-eabi/lib/armv7e-m/libg.a(lib_a-mprec.o)
                0x08009190                _Bfree
 *fill*         0x080091a4        0xc 
 .text.__multadd
                0x080091b0       0x98 /nfs/nfs5/home/research/hardware/arm2/gcc-arm-embedded/gcc-arm-none-eabi-4_8-2014q2/bin/../lib/gcc/arm-none-eabi/4.8.4/../../../../arm-none-eabi/lib/armv7e-m/libg.a(lib_a-mprec.o)
                0x080091b0                __multadd
 *fill*         0x08009248        0x8 
 .text.__hi0bits
                0x08009250       0x40 /nfs/nfs5/home/research/hardware/arm2/gcc-arm-embedded/gcc-arm-none-eabi-4_8-2014q2/bin/../lib/gcc/arm-none-eabi/4.8.4/../../../../arm-none-eabi/lib/armv7e-m/libg.a(lib_a-mprec.o)
                0x08009250                __hi0bits
 .text.__lo0bits
                0x08009290       0x5c /nfs/nfs5/home/research/hardware/arm2/gcc-arm-embedded/gcc-arm-none-eabi-4_8-2014q2/bin/../lib/gcc/arm-none-eabi/4.8.4/../../../../arm-none-eabi/lib/armv7e-m/libg.a(lib_a-mprec.o)
                0x08009290                __lo0bits
 *fill*         0x080092ec        0x4 
 .text.__i2b    0x080092f0       0x14 /nfs/nfs5/home/research/hardware/arm2/gcc-arm-embedded/gcc-arm-none-eabi-4_8-2014q2/bin/../lib/gcc/arm-none-eabi/4.8.4/../../../../arm-none-eabi/lib/armv7e-m/libg.a(lib_a-mprec.o)
                0x080092f0                __i2b
 *fill*         0x08009304        0xc 
 .text.__multiply
                0x08009310      0x13c /nfs/nfs5/home/research/hardware/arm2/gcc-arm-embedded/gcc-arm-none-eabi-4_8-2014q2/bin/../lib/gcc/arm-none-eabi/4.8.4/../../../../arm-none-eabi/lib/armv7e-m/libg.a(lib_a-mprec.o)
                0x08009310                __multiply
 *fill*         0x0800944c        0x4 
 .text.__pow5mult
                0x08009450       0x9c /nfs/nfs5/home/research/hardware/arm2/gcc-arm-embedded/gcc-arm-none-eabi-4_8-2014q2/bin/../lib/gcc/arm-none-eabi/4.8.4/../../../../arm-none-eabi/lib/armv7e-m/libg.a(lib_a-mprec.o)
                0x08009450                __pow5mult
 *fill*         0x080094ec        0x4 
 .text.__lshift
                0x080094f0       0xbc /nfs/nfs5/home/research/hardware/arm2/gcc-arm-embedded/gcc-arm-none-eabi-4_8-2014q2/bin/../lib/gcc/arm-none-eabi/4.8.4/../../../../arm-none-eabi/lib/armv7e-m/libg.a(lib_a-mprec.o)
                0x080094f0                __lshift
 *fill*         0x080095ac        0x4 
 .text.__mcmp   0x080095b0       0x48 /nfs/nfs5/home/research/hardware/arm2/gcc-arm-embedded/gcc-arm-none-eabi-4_8-2014q2/bin/../lib/gcc/arm-none-eabi/4.8.4/../../../../arm-none-eabi/lib/armv7e-m/libg.a(lib_a-mprec.o)
                0x080095b0                __mcmp
 *fill*         0x080095f8        0x8 
 .text.__mdiff  0x08009600       0xd4 /nfs/nfs5/home/research/hardware/arm2/gcc-arm-embedded/gcc-arm-none-eabi-4_8-2014q2/bin/../lib/gcc/arm-none-eabi/4.8.4/../../../../arm-none-eabi/lib/armv7e-m/libg.a(lib_a-mprec.o)
                0x08009600                __mdiff
 *fill*         0x080096d4        0xc 
 .text.__d2b    0x080096e0       0xbc /nfs/nfs5/home/research/hardware/arm2/gcc-arm-embedded/gcc-arm-none-eabi-4_8-2014q2/bin/../lib/gcc/arm-none-eabi/4.8.4/../../../../arm-none-eabi/lib/armv7e-m/libg.a(lib_a-mprec.o)
                0x080096e0                __d2b
 *fill*         0x0800979c        0x4 
 .text.__fpclassifyd
                0x080097a0       0x50 /nfs/nfs5/home/research/hardware/arm2/gcc-arm-embedded/gcc-arm-none-eabi-4_8-2014q2/bin/../lib/gcc/arm-none-eabi/4.8.4/../../../../arm-none-eabi/lib/armv7e-m/libg.a(lib_a-s_fpclassify.o)
                0x080097a0                __fpclassifyd
 .text.strlen   0x080097f0       0x60 /nfs/nfs5/home/research/hardware/arm2/gcc-arm-embedded/gcc-arm-none-eabi-4_8-2014q2/bin/../lib/gcc/arm-none-eabi/4.8.4/../../../../arm-none-eabi/lib/armv7e-m/libg.a(lib_a-strlen.o)
                0x080097f0                strlen
 .text.__ssprint_r
                0x08009850      0x100 /nfs/nfs5/home/research/hardware/arm2/gcc-arm-embedded/gcc-arm-none-eabi-4_8-2014q2/bin/../lib/gcc/arm-none-eabi/4.8.4/../../../../arm-none-eabi/lib/armv7e-m/libg.a(lib_a-svfiprintf.o)
                0x08009850                __ssprint_r
 .text._calloc_r
                0x08009950       0x60 /nfs/nfs5/home/research/hardware/arm2/gcc-arm-embedded/gcc-arm-none-eabi-4_8-2014q2/bin/../lib/gcc/arm-none-eabi/4.8.4/../../../../arm-none-eabi/lib/armv7e-m/libg.a(lib_a-callocr.o)
                0x08009950                _calloc_r
 .text._malloc_trim_r
                0x080099b0       0x9c /nfs/nfs5/home/research/hardware/arm2/gcc-arm-embedded/gcc-arm-none-eabi-4_8-2014q2/bin/../lib/gcc/arm-none-eabi/4.8.4/../../../../arm-none-eabi/lib/armv7e-m/libg.a(lib_a-freer.o)
                0x080099b0                _malloc_trim_r
 *fill*         0x08009a4c        0x4 
 .text._free_r  0x08009a50      0x19c /nfs/nfs5/home/research/hardware/arm2/gcc-arm-embedded/gcc-arm-none-eabi-4_8-2014q2/bin/../lib/gcc/arm-none-eabi/4.8.4/../../../../arm-none-eabi/lib/armv7e-m/libg.a(lib_a-freer.o)
                0x08009a50                _free_r
 *fill*         0x08009bec        0x4 
 .text.memmove  0x08009bf0       0xc0 /nfs/nfs5/home/research/hardware/arm2/gcc-arm-embedded/gcc-arm-none-eabi-4_8-2014q2/bin/../lib/gcc/arm-none-eabi/4.8.4/../../../../arm-none-eabi/lib/armv7e-m/libg.a(lib_a-memmove.o)
                0x08009bf0                memmove
 .text._realloc_r
                0x08009cb0      0x3cc /nfs/nfs5/home/research/hardware/arm2/gcc-arm-embedded/gcc-arm-none-eabi-4_8-2014q2/bin/../lib/gcc/arm-none-eabi/4.8.4/../../../../arm-none-eabi/lib/armv7e-m/libg.a(lib_a-reallocr.o)
                0x08009cb0                _realloc_r
 *(.rodata)
 *(.rodata.*)
 *fill*         0x0800a07c        0x4 
 .rodata.ram_areas
                0x0800a080       0x80 build/obj/crt1.o
 .rodata.str1.4
                0x0800a100        0x5 build/obj/chsys.o
                                  0x8 (size before relaxing)
 *fill*         0x0800a105        0xb 
 .rodata.ch_debug
                0x0800a110       0x18 build/obj/chregistry.o
                0x0800a110                ch_debug
 *fill*         0x0800a128        0x8 
 .rodata.start.7945
                0x0800a130        0x4 build/obj/mmc_spi.o
 *fill*         0x0800a134        0xc 
 .rodata.crc7_lookup_table
                0x0800a140      0x100 build/obj/mmc_spi.o
 .rodata.stopcmd.7934
                0x0800a240        0x8 build/obj/mmc_spi.o
 *fill*         0x0800a248        0x8 
 .rodata.stop.7951
                0x0800a250        0x4 build/obj/mmc_spi.o
 *fill*         0x0800a254        0xc 
 .rodata.mmc_vmt
                0x0800a260       0x20 build/obj/mmc_spi.o
 .rodata.vmt    0x0800a280       0x20 build/obj/serial.o
 .rodata._stm32_dma_streams
                0x0800a2a0       0xf0 build/obj/stm32_dma.o
                0x0800a2a0                _stm32_dma_streams
 .rodata.default_config
                0x0800a390        0x4 build/obj/adc_lld.o
 *fill*         0x0800a394        0xc 
 .rodata.dummytx
                0x0800a3a0        0x2 build/obj/spi_lld.o
 *fill*         0x0800a3a2        0xe 
 .rodata.str1.4
                0x0800a3b0        0xc build/obj/spi_lld.o
 *fill*         0x0800a3bc        0x4 
 .rodata.default_config
                0x0800a3c0       0x10 build/obj/serial_lld.o
 .rodata.pal_default_config
                0x0800a3d0       0xa8 build/obj/board.o
                0x0800a3d0                pal_default_config
 *fill*         0x0800a478        0x8 
 .rodata.str1.4
                0x0800a480      0x231 build/obj/shell.o
                                0x238 (size before relaxing)
 *fill*         0x0800a6b1        0xf 
 .rodata.str1.4
                0x0800a6c0        0x7 build/obj/chprintf.o
                                  0x8 (size before relaxing)
 *fill*         0x0800a6c7        0x9 
 .rodata.str1.4
                0x0800a6d0        0xf build/obj/ff.o
                                 0x10 (size before relaxing)
 *fill*         0x0800a6df        0x1 
 .rodata.ExCvt  0x0800a6e0       0x80 build/obj/ff.o
 .rodata.adcgrpcfg
                0x0800a760       0x2c build/obj/main.o
 *fill*         0x0800a78c        0x4 
 .rodata.commands
                0x0800a790        0x8 build/obj/main.o
 *fill*         0x0800a798        0x8 
 .rodata.lowSdcSpiConfig
                0x0800a7a0       0x10 build/obj/main.o
 .rodata.str1.4
                0x0800a7b0       0xf1 build/obj/main.o
                                 0xf8 (size before relaxing)
 *fill*         0x0800a8a1        0xf 
 .rodata.mmcConfig
                0x0800a8b0        0xc build/obj/main.o
 *fill*         0x0800a8bc        0x4 
 .rodata.highSdcSpiConfig
                0x0800a8c0       0x10 build/obj/main.o
 .rodata.shell_cfg1
                0x0800a8d0        0x8 build/obj/main.o
 *fill*         0x0800a8d8        0x8 
 .rodata.zeroes.6763
                0x0800a8e0       0x10 /nfs/nfs5/home/research/hardware/arm2/gcc-arm-embedded/gcc-arm-none-eabi-4_8-2014q2/bin/../lib/gcc/arm-none-eabi/4.8.4/../../../../arm-none-eabi/lib/armv7e-m/libg.a(lib_a-svfprintf.o)
 .rodata.str1.4
                0x0800a8f0       0x35 /nfs/nfs5/home/research/hardware/arm2/gcc-arm-embedded/gcc-arm-none-eabi-4_8-2014q2/bin/../lib/gcc/arm-none-eabi/4.8.4/../../../../arm-none-eabi/lib/armv7e-m/libg.a(lib_a-svfprintf.o)
                                 0x44 (size before relaxing)
 *fill*         0x0800a925        0xb 
 .rodata.blanks.6762
                0x0800a930       0x10 /nfs/nfs5/home/research/hardware/arm2/gcc-arm-embedded/gcc-arm-none-eabi-4_8-2014q2/bin/../lib/gcc/arm-none-eabi/4.8.4/../../../../arm-none-eabi/lib/armv7e-m/libg.a(lib_a-svfprintf.o)
 .rodata.str1.4
                0x0800a940       0x10 /nfs/nfs5/home/research/hardware/arm2/gcc-arm-embedded/gcc-arm-none-eabi-4_8-2014q2/bin/../lib/gcc/arm-none-eabi/4.8.4/../../../../arm-none-eabi/lib/armv7e-m/libg.a(lib_a-dtoa.o)
                                 0x14 (size before relaxing)
 .rodata.str1.4
                0x0800a950        0x2 /nfs/nfs5/home/research/hardware/arm2/gcc-arm-embedded/gcc-arm-none-eabi-4_8-2014q2/bin/../lib/gcc/arm-none-eabi/4.8.4/../../../../arm-none-eabi/lib/armv7e-m/libg.a(lib_a-impure.o)
                                  0x4 (size before relaxing)
 *fill*         0x0800a952        0xe 
 .rodata.str1.4
                0x0800a960        0xc /nfs/nfs5/home/research/hardware/arm2/gcc-arm-embedded/gcc-arm-none-eabi-4_8-2014q2/bin/../lib/gcc/arm-none-eabi/4.8.4/../../../../arm-none-eabi/lib/armv7e-m/libg.a(lib_a-locale.o)
                                 0x14 (size before relaxing)
 *fill*         0x0800a96c        0x4 
 .rodata.__mprec_tens
                0x0800a970       0xc8 /nfs/nfs5/home/research/hardware/arm2/gcc-arm-embedded/gcc-arm-none-eabi-4_8-2014q2/bin/../lib/gcc/arm-none-eabi/4.8.4/../../../../arm-none-eabi/lib/armv7e-m/libg.a(lib_a-mprec.o)
                0x0800a970                __mprec_tens
 *fill*         0x0800aa38        0x8 
 .rodata.__mprec_bigtens
                0x0800aa40       0x28 /nfs/nfs5/home/research/hardware/arm2/gcc-arm-embedded/gcc-arm-none-eabi-4_8-2014q2/bin/../lib/gcc/arm-none-eabi/4.8.4/../../../../arm-none-eabi/lib/armv7e-m/libg.a(lib_a-mprec.o)
                0x0800aa40                __mprec_bigtens
 *fill*         0x0800aa68        0x8 
 .rodata.p05.5269
                0x0800aa70        0xc /nfs/nfs5/home/research/hardware/arm2/gcc-arm-embedded/gcc-arm-none-eabi-4_8-2014q2/bin/../lib/gcc/arm-none-eabi/4.8.4/../../../../arm-none-eabi/lib/armv7e-m/libg.a(lib_a-mprec.o)
 *(.glue_7t)
 .glue_7t       0x00000000        0x0 linker stubs
 *(.glue_7)
 .glue_7        0x00000000        0x0 linker stubs
 *(.gcc*)

.vfp11_veneer   0x0800aa7c        0x0
 .vfp11_veneer  0x00000000        0x0 linker stubs

.v4_bx          0x0800aa7c        0x0
 .v4_bx         0x00000000        0x0 linker stubs

.iplt           0x0800aa7c        0x0
 .iplt          0x00000000        0x0 build/obj/crt0_v7m.o

.ARM.extab
 *(.ARM.extab* .gnu.linkonce.armextab.*)

.ARM.exidx      0x0800aa7c        0x8
                0x0800aa7c                __exidx_start = .
 *(.ARM.exidx* .gnu.linkonce.armexidx.*)
 .ARM.exidx     0x0800aa7c        0x8 /nfs/nfs5/home/research/hardware/arm2/gcc-arm-embedded/gcc-arm-none-eabi-4_8-2014q2/bin/../lib/gcc/arm-none-eabi/4.8.4/armv7e-m/libgcc.a(_divdi3.o)
 .ARM.exidx     0x0800aa84        0x0 /nfs/nfs5/home/research/hardware/arm2/gcc-arm-embedded/gcc-arm-none-eabi-4_8-2014q2/bin/../lib/gcc/arm-none-eabi/4.8.4/armv7e-m/libgcc.a(_udivdi3.o)
                                  0x8 (size before relaxing)
                0x0800aa84                __exidx_end = .

.rel.dyn        0x0800aa84        0x0
 .rel.iplt      0x00000000        0x0 build/obj/crt0_v7m.o

.eh_frame_hdr
 *(.eh_frame_hdr)

.eh_frame
 *(.eh_frame)

.textalign      0x0800aa84        0x4
                0x0800aa88                . = ALIGN (0x8)
 *fill*         0x0800aa84        0x4 
                0x0800aa88                . = ALIGN (0x4)
                0x0800aa88                PROVIDE (_etext, .)

.mstack         0x20000000      0x400
                0x20000000                . = ALIGN (0x8)
                0x20000000                __main_stack_base__ = .
                0x20000400                . = (. + __main_stack_size__)
 *fill*         0x20000000      0x400 
                0x20000400                . = ALIGN (0x8)
                0x20000400                __main_stack_end__ = .

.pstack         0x20000400      0x400
                0x20000400                __process_stack_base__ = .
                0x20000400                __main_thread_stack_base__ = .
                0x20000800                . = (. + __process_stack_size__)
 *fill*         0x20000400      0x400 
                0x20000800                . = ALIGN (0x8)
                0x20000800                __process_stack_end__ = .
                0x20000800                __main_thread_stack_end__ = .

.data           0x20000800      0x8a4 load address 0x0800aa88
                0x20000800                . = ALIGN (0x4)
                0x0800aa88                PROVIDE (_textdata, LOADADDR (.data))
                0x20000800                PROVIDE (_data, .)
                0x0800aa88                _textdata_start = LOADADDR (.data)
                0x20000800                _data_start = .
 *(.data)
 *(.data.*)
 .data.local_commands
                0x20000800       0x18 build/obj/shell.o
 .data.gpt_adc_config
                0x20000818       0x10 build/obj/main.o
 .data.fhandlers
                0x20000828        0x4 build/obj/main.o
 *fill*         0x2000082c        0x4 
 .data.impure_data
                0x20000830      0x428 /nfs/nfs5/home/research/hardware/arm2/gcc-arm-embedded/gcc-arm-none-eabi-4_8-2014q2/bin/../lib/gcc/arm-none-eabi/4.8.4/../../../../arm-none-eabi/lib/armv7e-m/libg.a(lib_a-impure.o)
 .data._impure_ptr
                0x20000c58        0x4 /nfs/nfs5/home/research/hardware/arm2/gcc-arm-embedded/gcc-arm-none-eabi-4_8-2014q2/bin/../lib/gcc/arm-none-eabi/4.8.4/../../../../arm-none-eabi/lib/armv7e-m/libg.a(lib_a-impure.o)
                0x20000c58                _impure_ptr
 .data.lconv    0x20000c5c       0x38 /nfs/nfs5/home/research/hardware/arm2/gcc-arm-embedded/gcc-arm-none-eabi-4_8-2014q2/bin/../lib/gcc/arm-none-eabi/4.8.4/../../../../arm-none-eabi/lib/armv7e-m/libg.a(lib_a-locale.o)
 .data.__malloc_av_
                0x20000c94      0x408 /nfs/nfs5/home/research/hardware/arm2/gcc-arm-embedded/gcc-arm-none-eabi-4_8-2014q2/bin/../lib/gcc/arm-none-eabi/4.8.4/../../../../arm-none-eabi/lib/armv7e-m/libg.a(lib_a-mallocr.o)
                0x20000c94                __malloc_av_
 .data.__malloc_trim_threshold
                0x2000109c        0x4 /nfs/nfs5/home/research/hardware/arm2/gcc-arm-embedded/gcc-arm-none-eabi-4_8-2014q2/bin/../lib/gcc/arm-none-eabi/4.8.4/../../../../arm-none-eabi/lib/armv7e-m/libg.a(lib_a-mallocr.o)
                0x2000109c                __malloc_trim_threshold
 .data.__malloc_sbrk_base
                0x200010a0        0x4 /nfs/nfs5/home/research/hardware/arm2/gcc-arm-embedded/gcc-arm-none-eabi-4_8-2014q2/bin/../lib/gcc/arm-none-eabi/4.8.4/../../../../arm-none-eabi/lib/armv7e-m/libg.a(lib_a-mallocr.o)
                0x200010a0                __malloc_sbrk_base
 *(.ramtext)
                0x200010a4                . = ALIGN (0x4)
                0x200010a4                PROVIDE (_edata, .)
                0x200010a4                _data_end = .

.igot.plt       0x200010a4        0x0 load address 0x0800b32c
 .igot.plt      0x00000000        0x0 build/obj/crt0_v7m.o

.bss            0x200010a8     0x5f30 load address 0x0800b32c
                0x200010a8                . = ALIGN (0x4)
                0x200010a8                _bss_start = .
 *(.bss)
 *(.bss.*)
 .bss.ch        0x200010a8      0x150 build/obj/chschd.o
                0x200010a8                ch
 .bss.endmem    0x200011f8        0x4 build/obj/chmemcore.o
 .bss.nextmem   0x200011fc        0x4 build/obj/chmemcore.o
 .bss.default_heap
                0x20001200       0x20 build/obj/chheap.o
 .bss._stm32_dma_isr_redir
                0x20001220       0x60 build/obj/stm32_dma.o
                0x20001220                _stm32_dma_isr_redir
 .bss.dma_streams_mask
                0x20001280        0x4 build/obj/stm32_dma.o
 .bss.ADCD1     0x20001284       0x38 build/obj/adc_lld.o
                0x20001284                ADCD1
 .bss.ADCD2     0x200012bc       0x38 build/obj/adc_lld.o
                0x200012bc                ADCD2
 .bss.ADCD3     0x200012f4       0x38 build/obj/adc_lld.o
                0x200012f4                ADCD3
 .bss.ADCD4     0x2000132c       0x38 build/obj/adc_lld.o
                0x2000132c                ADCD4
 .bss.clkmask   0x20001364        0x4 build/obj/adc_lld.o
 .bss.SPID1     0x20001368       0x34 build/obj/spi_lld.o
                0x20001368                SPID1
 .bss.SPID2     0x2000139c       0x34 build/obj/spi_lld.o
                0x2000139c                SPID2
 .bss.dummyrx   0x200013d0        0x2 build/obj/spi_lld.o
 *fill*         0x200013d2        0x2 
 .bss.GPTD1     0x200013d4       0x10 build/obj/gpt_lld.o
                0x200013d4                GPTD1
 .bss.SD1       0x200013e4       0x7c build/obj/serial_lld.o
                0x200013e4                SD1
 .bss.shell_terminated
                0x20001460        0x4 build/obj/shell.o
                0x20001460                shell_terminated
 .bss.Fsid      0x20001464        0x2 build/obj/ff.o
 *fill*         0x20001466        0x2 
 .bss.FatFs     0x20001468        0x4 build/obj/ff.o
 .bss.arrays_spot
                0x2000146c        0x4 build/obj/main.o
                0x2000146c                arrays_spot
 .bss.samples_buf
                0x20001470        0x8 build/obj/main.o
 .bss.diff      0x20001478        0x2 build/obj/main.o
                0x20001478                diff
 .bss.potential_0
                0x2000147a        0x2 build/obj/main.o
                0x2000147a                potential_0
 .bss.potential_1
                0x2000147c        0x2 build/obj/main.o
                0x2000147c                potential_1
 *fill*         0x2000147e        0x2 
 .bss.amperage1
                0x20001480      0x3e8 build/obj/main.o
                0x20001480                amperage1
 .bss.amperage2
                0x20001868      0x3e8 build/obj/main.o
                0x20001868                amperage2
 .bss.MODE      0x20001c50        0x4 build/obj/main.o
                0x20001c50                MODE
 .bss.MMCD1     0x20001c54       0x34 build/obj/main.o
                0x20001c54                MMCD1
 .bss.SDC_FS    0x20001c88      0x230 build/obj/main.o
                0x20001c88                SDC_FS
 .bss.waCounterThread
                0x20001eb8      0x148 build/obj/main.o
 .bss.shelltp1  0x20002000        0x4 build/obj/main.o
 .bss.buf       0x20002004     0x2cec build/obj/main.o
                0x20002004                buf
 .bss.waPrinterThread
                0x20004cf0     0x10c8 build/obj/main.o
 .bss.RUN_MODE1
                0x20005db8      0x7d0 build/obj/main.o
                0x20005db8                RUN_MODE1
 .bss.RUN_MODE2
                0x20006588      0x7d0 build/obj/main.o
                0x20006588                RUN_MODE2
 .bss.rc        0x20006d58        0x1 build/obj/main.o
                0x20006d58                rc
 *fill*         0x20006d59        0x3 
 .bss.arrayuse  0x20006d5c        0x4 build/obj/main.o
                0x20006d5c                arrayuse
 .bss.adccfg    0x20006d60        0x4 build/obj/main.o
 .bss.sdMutex   0x20006d64       0x10 build/obj/main.o
 .bss.buff_sem  0x20006d74        0xc build/obj/main.o
                0x20006d74                buff_sem
 .bss.fil       0x20006d80      0x224 build/obj/main.o
                0x20006d80                fil
 .bss.__malloc_max_total_mem
                0x20006fa4        0x4 /nfs/nfs5/home/research/hardware/arm2/gcc-arm-embedded/gcc-arm-none-eabi-4_8-2014q2/bin/../lib/gcc/arm-none-eabi/4.8.4/../../../../arm-none-eabi/lib/armv7e-m/libg.a(lib_a-mallocr.o)
                0x20006fa4                __malloc_max_total_mem
 .bss.__malloc_max_sbrked_mem
                0x20006fa8        0x4 /nfs/nfs5/home/research/hardware/arm2/gcc-arm-embedded/gcc-arm-none-eabi-4_8-2014q2/bin/../lib/gcc/arm-none-eabi/4.8.4/../../../../arm-none-eabi/lib/armv7e-m/libg.a(lib_a-mallocr.o)
                0x20006fa8                __malloc_max_sbrked_mem
 .bss.__malloc_top_pad
                0x20006fac        0x4 /nfs/nfs5/home/research/hardware/arm2/gcc-arm-embedded/gcc-arm-none-eabi-4_8-2014q2/bin/../lib/gcc/arm-none-eabi/4.8.4/../../../../arm-none-eabi/lib/armv7e-m/libg.a(lib_a-mallocr.o)
                0x20006fac                __malloc_top_pad
 .bss.__malloc_current_mallinfo
                0x20006fb0       0x28 /nfs/nfs5/home/research/hardware/arm2/gcc-arm-embedded/gcc-arm-none-eabi-4_8-2014q2/bin/../lib/gcc/arm-none-eabi/4.8.4/../../../../arm-none-eabi/lib/armv7e-m/libg.a(lib_a-mallocr.o)
                0x20006fb0                __malloc_current_mallinfo
 *(COMMON)
                0x20006fd8                . = ALIGN (0x4)
                0x20006fd8                _bss_end = .
                0x20006fd8                PROVIDE (end, .)

.ram0_init      0x20006fd8        0x0 load address 0x0800b32c
                0x20006fd8                . = ALIGN (0x4)
                0x0800b32c                __ram0_init_text__ = LOADADDR (.ram0_init)
                0x20006fd8                __ram0_init__ = .
 *(.ram0_init)
 *(.ram0_init.*)
                0x20006fd8                . = ALIGN (0x4)

.ram0           0x20006fd8        0x0 load address 0x0800b32c
                0x20006fd8                . = ALIGN (0x4)
                0x20006fd8                __ram0_clear__ = .
 *(.ram0_clear)
 *(.ram0_clear.*)
                0x20006fd8                . = ALIGN (0x4)
                0x20006fd8                __ram0_noinit__ = .
 *(.ram0)
 *(.ram0.*)
                0x20006fd8                . = ALIGN (0x4)
                0x20006fd8                __ram0_free__ = .

.ram1_init      0x00000000        0x0 load address 0x0800b32c
                0x00000000                . = ALIGN (0x4)
                0x0800b32c                __ram1_init_text__ = LOADADDR (.ram1_init)
                0x00000000                __ram1_init__ = .
 *(.ram1_init)
 *(.ram1_init.*)
                0x00000000                . = ALIGN (0x4)

.ram1           0x00000000        0x0 load address 0x0800b32c
                0x00000000                . = ALIGN (0x4)
                0x00000000                __ram1_clear__ = .
 *(.ram1_clear)
 *(.ram1_clear.*)
                0x00000000                . = ALIGN (0x4)
                0x00000000                __ram1_noinit__ = .
 *(.ram1)
 *(.ram1.*)
                0x00000000                . = ALIGN (0x4)
                0x00000000                __ram1_free__ = .

.ram2_init      0x00000000        0x0 load address 0x0800b32c
                0x00000000                . = ALIGN (0x4)
                0x0800b32c                __ram2_init_text__ = LOADADDR (.ram2_init)
                0x00000000                __ram2_init__ = .
 *(.ram2_init)
 *(.ram2_init.*)
                0x00000000                . = ALIGN (0x4)

.ram2           0x00000000        0x0 load address 0x0800b32c
                0x00000000                . = ALIGN (0x4)
                0x00000000                __ram2_clear__ = .
 *(.ram2_clear)
 *(.ram2_clear.*)
                0x00000000                . = ALIGN (0x4)
                0x00000000                __ram2_noinit__ = .
 *(.ram2)
 *(.ram2.*)
                0x00000000                . = ALIGN (0x4)
                0x00000000                __ram2_free__ = .

.ram3_init      0x00000000        0x0 load address 0x0800b32c
                0x00000000                . = ALIGN (0x4)
                0x0800b32c                __ram3_init_text__ = LOADADDR (.ram3_init)
                0x00000000                __ram3_init__ = .
 *(.ram3_init)
 *(.ram3_init.*)
                0x00000000                . = ALIGN (0x4)

.ram3           0x00000000        0x0 load address 0x0800b32c
                0x00000000                . = ALIGN (0x4)
                0x00000000                __ram3_clear__ = .
 *(.ram3_clear)
 *(.ram3_clear.*)
                0x00000000                . = ALIGN (0x4)
                0x00000000                __ram3_noinit__ = .
 *(.ram3)
 *(.ram3.*)
                0x00000000                . = ALIGN (0x4)
                0x00000000                __ram3_free__ = .

.ram4_init      0x10000000        0x0 load address 0x0800b32c
                0x10000000                . = ALIGN (0x4)
                0x0800b32c                __ram4_init_text__ = LOADADDR (.ram4_init)
                0x10000000                __ram4_init__ = .
 *(.ram4_init)
 *(.ram4_init.*)
                0x10000000                . = ALIGN (0x4)

.ram4           0x10000000        0x0 load address 0x0800b32c
                0x10000000                . = ALIGN (0x4)
                0x10000000                __ram4_clear__ = .
 *(.ram4_clear)
 *(.ram4_clear.*)
                0x10000000                . = ALIGN (0x4)
                0x10000000                __ram4_noinit__ = .
 *(.ram4)
 *(.ram4.*)
                0x10000000                . = ALIGN (0x4)
                0x10000000                __ram4_free__ = .

.ram5_init      0x00000000        0x0 load address 0x0800b32c
                0x00000000                . = ALIGN (0x4)
                0x0800b32c                __ram5_init_text__ = LOADADDR (.ram5_init)
                0x00000000                __ram5_init__ = .
 *(.ram5_init)
 *(.ram5_init.*)
                0x00000000                . = ALIGN (0x4)

.ram5           0x00000000        0x0 load address 0x0800b32c
                0x00000000                . = ALIGN (0x4)
                0x00000000                __ram5_clear__ = .
 *(.ram5_clear)
 *(.ram5_clear.*)
                0x00000000                . = ALIGN (0x4)
                0x00000000                __ram5_noinit__ = .
 *(.ram5)
 *(.ram5.*)
                0x00000000                . = ALIGN (0x4)
                0x00000000                __ram5_free__ = .

.ram6_init      0x00000000        0x0 load address 0x0800b32c
                0x00000000                . = ALIGN (0x4)
                0x0800b32c                __ram6_init_text__ = LOADADDR (.ram6_init)
                0x00000000                __ram6_init__ = .
 *(.ram6_init)
 *(.ram6_init.*)
                0x00000000                . = ALIGN (0x4)

.ram6           0x00000000        0x0 load address 0x0800b32c
                0x00000000                . = ALIGN (0x4)
                0x00000000                __ram6_clear__ = .
 *(.ram6_clear)
 *(.ram6_clear.*)
                0x00000000                . = ALIGN (0x4)
                0x00000000                __ram6_noinit__ = .
 *(.ram6)
 *(.ram6.*)
                0x00000000                . = ALIGN (0x4)
                0x00000000                __ram6_free__ = .

.ram7_init      0x00000000        0x0 load address 0x0800b32c
                0x00000000                . = ALIGN (0x4)
                0x0800b32c                __ram7_init_text__ = LOADADDR (.ram7_init)
                0x00000000                __ram7_init__ = .
 *(.ram7_init)
 *(.ram7_init.*)
                0x00000000                . = ALIGN (0x4)

.ram7           0x00000000        0x0 load address 0x0800b32c
                0x00000000                . = ALIGN (0x4)
                0x00000000                __ram7_clear__ = .
 *(.ram7_clear)
 *(.ram7_clear.*)
                0x00000000                . = ALIGN (0x4)
                0x00000000                __ram7_noinit__ = .
 *(.ram7)
 *(.ram7.*)
                0x00000000                . = ALIGN (0x4)
                0x00000000                __ram7_free__ = .

.heap           0x20006fd8     0x3028
                0x20006fd8                . = ALIGN (0x8)
                0x20006fd8                __heap_base__ = .
                0x2000a000                . = (ORIGIN (HEAP_RAM) + 0xa000)
 *fill*         0x20006fd8     0x3028 
                0x2000a000                __heap_end__ = .
                0x00000400                __process_stack_size__ = 0x400
                0x00000400                __main_stack_size__ = 0x400
START GROUP
LOAD /nfs/nfs5/home/research/hardware/arm2/gcc-arm-embedded/gcc-arm-none-eabi-4_8-2014q2/bin/../lib/gcc/arm-none-eabi/4.8.4/armv7e-m/libgcc.a
LOAD /nfs/nfs5/home/research/hardware/arm2/gcc-arm-embedded/gcc-arm-none-eabi-4_8-2014q2/bin/../lib/gcc/arm-none-eabi/4.8.4/../../../../arm-none-eabi/lib/armv7e-m/libg.a
LOAD /nfs/nfs5/home/research/hardware/arm2/gcc-arm-embedded/gcc-arm-none-eabi-4_8-2014q2/bin/../lib/gcc/arm-none-eabi/4.8.4/../../../../arm-none-eabi/lib/armv7e-m/libc.a
END GROUP
OUTPUT(build/lab1.elf elf32-littlearm)

.ARM.attributes
                0x00000000       0x2f
 .ARM.attributes
                0x00000000       0x21 build/obj/crt0_v7m.o
 .ARM.attributes
                0x00000021       0x21 build/obj/chcoreasm_v7m.o
 .ARM.attributes
                0x00000042       0x33 build/obj/crt1.o
 .ARM.attributes
                0x00000075       0x33 build/obj/vectors.o
 .ARM.attributes
                0x000000a8       0x33 build/obj/chsys.o
 .ARM.attributes
                0x000000db       0x33 build/obj/chvt.o
 .ARM.attributes
                0x0000010e       0x33 build/obj/chschd.o
 .ARM.attributes
                0x00000141       0x33 build/obj/chthreads.o
 .ARM.attributes
                0x00000174       0x33 build/obj/chtm.o
 .ARM.attributes
                0x000001a7       0x33 build/obj/chdynamic.o
 .ARM.attributes
                0x000001da       0x33 build/obj/chregistry.o
 .ARM.attributes
                0x0000020d       0x33 build/obj/chsem.o
 .ARM.attributes
                0x00000240       0x33 build/obj/chmtx.o
 .ARM.attributes
                0x00000273       0x33 build/obj/chevents.o
 .ARM.attributes
                0x000002a6       0x33 build/obj/chqueues.o
 .ARM.attributes
                0x000002d9       0x33 build/obj/chmemcore.o
 .ARM.attributes
                0x0000030c       0x33 build/obj/chheap.o
 .ARM.attributes
                0x0000033f       0x33 build/obj/chmempools.o
 .ARM.attributes
                0x00000372       0x33 build/obj/chcore_v7m.o
 .ARM.attributes
                0x000003a5       0x33 build/obj/hal.o
 .ARM.attributes
                0x000003d8       0x33 build/obj/st.o
 .ARM.attributes
                0x0000040b       0x33 build/obj/hal_mmcsd.o
 .ARM.attributes
                0x0000043e       0x33 build/obj/adc.o
 .ARM.attributes
                0x00000471       0x33 build/obj/gpt.o
 .ARM.attributes
                0x000004a4       0x33 build/obj/mmc_spi.o
 .ARM.attributes
                0x000004d7       0x33 build/obj/serial.o
 .ARM.attributes
                0x0000050a       0x33 build/obj/spi.o
 .ARM.attributes
                0x0000053d       0x33 build/obj/nvic.o
 .ARM.attributes
                0x00000570       0x33 build/obj/hal_lld.o
 .ARM.attributes
                0x000005a3       0x33 build/obj/stm32_dma.o
 .ARM.attributes
                0x000005d6       0x33 build/obj/st_lld.o
 .ARM.attributes
                0x00000609       0x33 build/obj/adc_lld.o
 .ARM.attributes
                0x0000063c       0x33 build/obj/pal_lld.o
 .ARM.attributes
                0x0000066f       0x33 build/obj/spi_lld.o
 .ARM.attributes
                0x000006a2       0x33 build/obj/gpt_lld.o
 .ARM.attributes
                0x000006d5       0x33 build/obj/serial_lld.o
 .ARM.attributes
                0x00000708       0x33 build/obj/board.o
 .ARM.attributes
                0x0000073b       0x33 build/obj/shell.o
 .ARM.attributes
                0x0000076e       0x33 build/obj/syscalls.o
 .ARM.attributes
                0x000007a1       0x33 build/obj/chprintf.o
 .ARM.attributes
                0x000007d4       0x33 build/obj/ff.o
 .ARM.attributes
                0x00000807       0x33 build/obj/fatfs_diskio.o
 .ARM.attributes
                0x0000083a       0x33 build/obj/main.o
 .ARM.attributes
                0x0000086d       0x1c /nfs/nfs5/home/research/hardware/arm2/gcc-arm-embedded/gcc-arm-none-eabi-4_8-2014q2/bin/../lib/gcc/arm-none-eabi/4.8.4/../../../../arm-none-eabi/lib/armv7e-m/libg.a(lib_a-memcpy.o)
 .ARM.attributes
                0x00000889       0x2e /nfs/nfs5/home/research/hardware/arm2/gcc-arm-embedded/gcc-arm-none-eabi-4_8-2014q2/bin/../lib/gcc/arm-none-eabi/4.8.4/../../../../arm-none-eabi/lib/armv7e-m/libg.a(lib_a-memset.o)
 .ARM.attributes
                0x000008b7       0x2e /nfs/nfs5/home/research/hardware/arm2/gcc-arm-embedded/gcc-arm-none-eabi-4_8-2014q2/bin/../lib/gcc/arm-none-eabi/4.8.4/../../../../arm-none-eabi/lib/armv7e-m/libg.a(lib_a-sprintf.o)
 .ARM.attributes
                0x000008e5       0x1c /nfs/nfs5/home/research/hardware/arm2/gcc-arm-embedded/gcc-arm-none-eabi-4_8-2014q2/bin/../lib/gcc/arm-none-eabi/4.8.4/../../../../arm-none-eabi/lib/armv7e-m/libg.a(lib_a-strcmp.o)
 .ARM.attributes
                0x00000901       0x2e /nfs/nfs5/home/research/hardware/arm2/gcc-arm-embedded/gcc-arm-none-eabi-4_8-2014q2/bin/../lib/gcc/arm-none-eabi/4.8.4/../../../../arm-none-eabi/lib/armv7e-m/libg.a(lib_a-strpbrk.o)
 .ARM.attributes
                0x0000092f       0x2e /nfs/nfs5/home/research/hardware/arm2/gcc-arm-embedded/gcc-arm-none-eabi-4_8-2014q2/bin/../lib/gcc/arm-none-eabi/4.8.4/../../../../arm-none-eabi/lib/armv7e-m/libg.a(lib_a-strspn.o)
 .ARM.attributes
                0x0000095d       0x2e /nfs/nfs5/home/research/hardware/arm2/gcc-arm-embedded/gcc-arm-none-eabi-4_8-2014q2/bin/../lib/gcc/arm-none-eabi/4.8.4/../../../../arm-none-eabi/lib/armv7e-m/libg.a(lib_a-svfprintf.o)
 .ARM.attributes
                0x0000098b       0x2e /nfs/nfs5/home/research/hardware/arm2/gcc-arm-embedded/gcc-arm-none-eabi-4_8-2014q2/bin/../lib/gcc/arm-none-eabi/4.8.4/../../../../arm-none-eabi/lib/armv7e-m/libg.a(lib_a-dtoa.o)
 .ARM.attributes
                0x000009b9       0x2e /nfs/nfs5/home/research/hardware/arm2/gcc-arm-embedded/gcc-arm-none-eabi-4_8-2014q2/bin/../lib/gcc/arm-none-eabi/4.8.4/../../../../arm-none-eabi/lib/armv7e-m/libg.a(lib_a-impure.o)
 .ARM.attributes
                0x000009e7       0x2e /nfs/nfs5/home/research/hardware/arm2/gcc-arm-embedded/gcc-arm-none-eabi-4_8-2014q2/bin/../lib/gcc/arm-none-eabi/4.8.4/../../../../arm-none-eabi/lib/armv7e-m/libg.a(lib_a-locale.o)
 .ARM.attributes
                0x00000a15       0x2e /nfs/nfs5/home/research/hardware/arm2/gcc-arm-embedded/gcc-arm-none-eabi-4_8-2014q2/bin/../lib/gcc/arm-none-eabi/4.8.4/../../../../arm-none-eabi/lib/armv7e-m/libg.a(lib_a-mallocr.o)
 .ARM.attributes
                0x00000a43       0x2e /nfs/nfs5/home/research/hardware/arm2/gcc-arm-embedded/gcc-arm-none-eabi-4_8-2014q2/bin/../lib/gcc/arm-none-eabi/4.8.4/../../../../arm-none-eabi/lib/armv7e-m/libg.a(lib_a-memchr-stub.o)
 .ARM.attributes
                0x00000a71       0x2e /nfs/nfs5/home/research/hardware/arm2/gcc-arm-embedded/gcc-arm-none-eabi-4_8-2014q2/bin/../lib/gcc/arm-none-eabi/4.8.4/../../../../arm-none-eabi/lib/armv7e-m/libg.a(lib_a-mlock.o)
 .ARM.attributes
                0x00000a9f       0x2e /nfs/nfs5/home/research/hardware/arm2/gcc-arm-embedded/gcc-arm-none-eabi-4_8-2014q2/bin/../lib/gcc/arm-none-eabi/4.8.4/../../../../arm-none-eabi/lib/armv7e-m/libg.a(lib_a-mprec.o)
 .ARM.attributes
                0x00000acd       0x2e /nfs/nfs5/home/research/hardware/arm2/gcc-arm-embedded/gcc-arm-none-eabi-4_8-2014q2/bin/../lib/gcc/arm-none-eabi/4.8.4/../../../../arm-none-eabi/lib/armv7e-m/libg.a(lib_a-s_fpclassify.o)
 .ARM.attributes
                0x00000afb       0x2e /nfs/nfs5/home/research/hardware/arm2/gcc-arm-embedded/gcc-arm-none-eabi-4_8-2014q2/bin/../lib/gcc/arm-none-eabi/4.8.4/../../../../arm-none-eabi/lib/armv7e-m/libg.a(lib_a-strlen.o)
 .ARM.attributes
                0x00000b29       0x2e /nfs/nfs5/home/research/hardware/arm2/gcc-arm-embedded/gcc-arm-none-eabi-4_8-2014q2/bin/../lib/gcc/arm-none-eabi/4.8.4/../../../../arm-none-eabi/lib/armv7e-m/libg.a(lib_a-svfiprintf.o)
 .ARM.attributes
                0x00000b57       0x2e /nfs/nfs5/home/research/hardware/arm2/gcc-arm-embedded/gcc-arm-none-eabi-4_8-2014q2/bin/../lib/gcc/arm-none-eabi/4.8.4/../../../../arm-none-eabi/lib/armv7e-m/libg.a(lib_a-callocr.o)
 .ARM.attributes
                0x00000b85       0x2e /nfs/nfs5/home/research/hardware/arm2/gcc-arm-embedded/gcc-arm-none-eabi-4_8-2014q2/bin/../lib/gcc/arm-none-eabi/4.8.4/../../../../arm-none-eabi/lib/armv7e-m/libg.a(lib_a-freer.o)
 .ARM.attributes
                0x00000bb3       0x2e /nfs/nfs5/home/research/hardware/arm2/gcc-arm-embedded/gcc-arm-none-eabi-4_8-2014q2/bin/../lib/gcc/arm-none-eabi/4.8.4/../../../../arm-none-eabi/lib/armv7e-m/libg.a(lib_a-memmove.o)
 .ARM.attributes
                0x00000be1       0x2e /nfs/nfs5/home/research/hardware/arm2/gcc-arm-embedded/gcc-arm-none-eabi-4_8-2014q2/bin/../lib/gcc/arm-none-eabi/4.8.4/../../../../arm-none-eabi/lib/armv7e-m/libg.a(lib_a-reallocr.o)
 .ARM.attributes
                0x00000c0f       0x1e /nfs/nfs5/home/research/hardware/arm2/gcc-arm-embedded/gcc-arm-none-eabi-4_8-2014q2/bin/../lib/gcc/arm-none-eabi/4.8.4/armv7e-m/libgcc.a(_arm_addsubdf3.o)
 .ARM.attributes
                0x00000c2d       0x1e /nfs/nfs5/home/research/hardware/arm2/gcc-arm-embedded/gcc-arm-none-eabi-4_8-2014q2/bin/../lib/gcc/arm-none-eabi/4.8.4/armv7e-m/libgcc.a(_arm_muldivdf3.o)
 .ARM.attributes
                0x00000c4b       0x1e /nfs/nfs5/home/research/hardware/arm2/gcc-arm-embedded/gcc-arm-none-eabi-4_8-2014q2/bin/../lib/gcc/arm-none-eabi/4.8.4/armv7e-m/libgcc.a(_arm_cmpdf2.o)
 .ARM.attributes
                0x00000c69       0x1e /nfs/nfs5/home/research/hardware/arm2/gcc-arm-embedded/gcc-arm-none-eabi-4_8-2014q2/bin/../lib/gcc/arm-none-eabi/4.8.4/armv7e-m/libgcc.a(_arm_fixdfsi.o)
 .ARM.attributes
                0x00000c87       0x1e /nfs/nfs5/home/research/hardware/arm2/gcc-arm-embedded/gcc-arm-none-eabi-4_8-2014q2/bin/../lib/gcc/arm-none-eabi/4.8.4/armv7e-m/libgcc.a(_aeabi_uldivmod.o)
 .ARM.attributes
                0x00000ca5       0x2e /nfs/nfs5/home/research/hardware/arm2/gcc-arm-embedded/gcc-arm-none-eabi-4_8-2014q2/bin/../lib/gcc/arm-none-eabi/4.8.4/armv7e-m/libgcc.a(bpabi.o)
 .ARM.attributes
                0x00000cd3       0x1e /nfs/nfs5/home/research/hardware/arm2/gcc-arm-embedded/gcc-arm-none-eabi-4_8-2014q2/bin/../lib/gcc/arm-none-eabi/4.8.4/armv7e-m/libgcc.a(_dvmd_tls.o)
 .ARM.attributes
                0x00000cf1       0x2e /nfs/nfs5/home/research/hardware/arm2/gcc-arm-embedded/gcc-arm-none-eabi-4_8-2014q2/bin/../lib/gcc/arm-none-eabi/4.8.4/armv7e-m/libgcc.a(_divdi3.o)
 .ARM.attributes
                0x00000d1f       0x2e /nfs/nfs5/home/research/hardware/arm2/gcc-arm-embedded/gcc-arm-none-eabi-4_8-2014q2/bin/../lib/gcc/arm-none-eabi/4.8.4/armv7e-m/libgcc.a(_udivdi3.o)

.comment        0x00000000       0x70
 .comment       0x00000000       0x70 build/obj/crt1.o
                                 0x71 (size before relaxing)
 .comment       0x00000000       0x71 build/obj/vectors.o
 .comment       0x00000000       0x71 build/obj/chsys.o
 .comment       0x00000000       0x71 build/obj/chvt.o
 .comment       0x00000000       0x71 build/obj/chschd.o
 .comment       0x00000000       0x71 build/obj/chthreads.o
 .comment       0x00000000       0x71 build/obj/chtm.o
 .comment       0x00000000       0x71 build/obj/chdynamic.o
 .comment       0x00000000       0x71 build/obj/chregistry.o
 .comment       0x00000000       0x71 build/obj/chsem.o
 .comment       0x00000000       0x71 build/obj/chmtx.o
 .comment       0x00000000       0x71 build/obj/chevents.o
 .comment       0x00000000       0x71 build/obj/chqueues.o
 .comment       0x00000000       0x71 build/obj/chmemcore.o
 .comment       0x00000000       0x71 build/obj/chheap.o
 .comment       0x00000000       0x71 build/obj/chmempools.o
 .comment       0x00000000       0x71 build/obj/chcore_v7m.o
 .comment       0x00000000       0x71 build/obj/hal.o
 .comment       0x00000000       0x71 build/obj/st.o
 .comment       0x00000000       0x71 build/obj/hal_mmcsd.o
 .comment       0x00000000       0x71 build/obj/adc.o
 .comment       0x00000000       0x71 build/obj/gpt.o
 .comment       0x00000000       0x71 build/obj/mmc_spi.o
 .comment       0x00000000       0x71 build/obj/serial.o
 .comment       0x00000000       0x71 build/obj/spi.o
 .comment       0x00000000       0x71 build/obj/nvic.o
 .comment       0x00000000       0x71 build/obj/hal_lld.o
 .comment       0x00000000       0x71 build/obj/stm32_dma.o
 .comment       0x00000000       0x71 build/obj/st_lld.o
 .comment       0x00000000       0x71 build/obj/adc_lld.o
 .comment       0x00000000       0x71 build/obj/pal_lld.o
 .comment       0x00000000       0x71 build/obj/spi_lld.o
 .comment       0x00000000       0x71 build/obj/gpt_lld.o
 .comment       0x00000000       0x71 build/obj/serial_lld.o
 .comment       0x00000000       0x71 build/obj/board.o
 .comment       0x00000000       0x71 build/obj/shell.o
 .comment       0x00000000       0x71 build/obj/syscalls.o
 .comment       0x00000000       0x71 build/obj/chprintf.o
 .comment       0x00000000       0x71 build/obj/ff.o
 .comment       0x00000000       0x71 build/obj/fatfs_diskio.o
 .comment       0x00000000       0x71 build/obj/main.o

.debug_info     0x00000000    0x2c9f4
 .debug_info    0x00000000      0x319 build/obj/crt1.o
 .debug_info    0x00000319      0x1e7 build/obj/vectors.o
 .debug_info    0x00000500     0x18fd build/obj/chsys.o
 .debug_info    0x00001dfd      0x9fa build/obj/chvt.o
 .debug_info    0x000027f7      0xd48 build/obj/chschd.o
 .debug_info    0x0000353f     0x1c21 build/obj/chthreads.o
 .debug_info    0x00005160      0x9bd build/obj/chtm.o
 .debug_info    0x00005b1d      0xcdb build/obj/chdynamic.o
 .debug_info    0x000067f8      0x96d build/obj/chregistry.o
 .debug_info    0x00007165      0xfa9 build/obj/chsem.o
 .debug_info    0x0000810e      0xfb4 build/obj/chmtx.o
 .debug_info    0x000090c2     0x15b2 build/obj/chevents.o
 .debug_info    0x0000a674     0x1151 build/obj/chqueues.o
 .debug_info    0x0000b7c5      0x85a build/obj/chmemcore.o
 .debug_info    0x0000c01f      0x9bc build/obj/chheap.o
 .debug_info    0x0000c9db      0xbbb build/obj/chmempools.o
 .debug_info    0x0000d596      0xa55 build/obj/chcore_v7m.o
 .debug_info    0x0000dfeb      0x7dd build/obj/hal.o
 .debug_info    0x0000e7c8      0x8f6 build/obj/st.o
 .debug_info    0x0000f0be     0x1ed7 build/obj/hal_mmcsd.o
 .debug_info    0x00010f95     0x167e build/obj/adc.o
 .debug_info    0x00012613     0x11ea build/obj/gpt.o
 .debug_info    0x000137fd     0x20ee build/obj/mmc_spi.o
 .debug_info    0x000158eb     0x1769 build/obj/serial.o
 .debug_info    0x00017054     0x1b19 build/obj/spi.o
 .debug_info    0x00018b6d      0x9ce build/obj/nvic.o
 .debug_info    0x0001953b      0x87d build/obj/hal_lld.o
 .debug_info    0x00019db8      0xd1d build/obj/stm32_dma.o
 .debug_info    0x0001aad5      0xa3d build/obj/st_lld.o
 .debug_info    0x0001b512     0x1c14 build/obj/adc_lld.o
 .debug_info    0x0001d126      0xaf9 build/obj/pal_lld.o
 .debug_info    0x0001dc1f     0x1191 build/obj/spi_lld.o
 .debug_info    0x0001edb0      0xbb8 build/obj/gpt_lld.o
 .debug_info    0x0001f968     0x1543 build/obj/serial_lld.o
 .debug_info    0x00020eab      0xdd7 build/obj/board.o
 .debug_info    0x00021c82     0x1852 build/obj/shell.o
 .debug_info    0x000234d4     0x11cd build/obj/syscalls.o
 .debug_info    0x000246a1      0xc58 build/obj/chprintf.o
 .debug_info    0x000252f9     0x3944 build/obj/ff.o
 .debug_info    0x00028c3d      0xf93 build/obj/fatfs_diskio.o
 .debug_info    0x00029bd0     0x2e24 build/obj/main.o

.debug_abbrev   0x00000000     0x7a63
 .debug_abbrev  0x00000000       0xf7 build/obj/crt1.o
 .debug_abbrev  0x000000f7       0xc7 build/obj/vectors.o
 .debug_abbrev  0x000001be      0x557 build/obj/chsys.o
 .debug_abbrev  0x00000715      0x2a3 build/obj/chvt.o
 .debug_abbrev  0x000009b8      0x3fe build/obj/chschd.o
 .debug_abbrev  0x00000db6      0x4ad build/obj/chthreads.o
 .debug_abbrev  0x00001263      0x286 build/obj/chtm.o
 .debug_abbrev  0x000014e9      0x304 build/obj/chdynamic.o
 .debug_abbrev  0x000017ed      0x238 build/obj/chregistry.o
 .debug_abbrev  0x00001a25      0x3da build/obj/chsem.o
 .debug_abbrev  0x00001dff      0x3d2 build/obj/chmtx.o
 .debug_abbrev  0x000021d1      0x3b8 build/obj/chevents.o
 .debug_abbrev  0x00002589      0x3e0 build/obj/chqueues.o
 .debug_abbrev  0x00002969      0x28b build/obj/chmemcore.o
 .debug_abbrev  0x00002bf4      0x292 build/obj/chheap.o
 .debug_abbrev  0x00002e86      0x31e build/obj/chmempools.o
 .debug_abbrev  0x000031a4      0x22a build/obj/chcore_v7m.o
 .debug_abbrev  0x000033ce      0x1ba build/obj/hal.o
 .debug_abbrev  0x00003588      0x217 build/obj/st.o
 .debug_abbrev  0x0000379f      0x24c build/obj/hal_mmcsd.o
 .debug_abbrev  0x000039eb      0x393 build/obj/adc.o
 .debug_abbrev  0x00003d7e      0x2e1 build/obj/gpt.o
 .debug_abbrev  0x0000405f      0x48c build/obj/mmc_spi.o
 .debug_abbrev  0x000044eb      0x407 build/obj/serial.o
 .debug_abbrev  0x000048f2      0x36c build/obj/spi.o
 .debug_abbrev  0x00004c5e      0x1ba build/obj/nvic.o
 .debug_abbrev  0x00004e18      0x1c0 build/obj/hal_lld.o
 .debug_abbrev  0x00004fd8      0x294 build/obj/stm32_dma.o
 .debug_abbrev  0x0000526c      0x222 build/obj/st_lld.o
 .debug_abbrev  0x0000548e      0x3a8 build/obj/adc_lld.o
 .debug_abbrev  0x00005836      0x20c build/obj/pal_lld.o
 .debug_abbrev  0x00005a42      0x39f build/obj/spi_lld.o
 .debug_abbrev  0x00005de1      0x289 build/obj/gpt_lld.o
 .debug_abbrev  0x0000606a      0x3b6 build/obj/serial_lld.o
 .debug_abbrev  0x00006420      0x1fe build/obj/board.o
 .debug_abbrev  0x0000661e      0x44d build/obj/shell.o
 .debug_abbrev  0x00006a6b      0x24b build/obj/syscalls.o
 .debug_abbrev  0x00006cb6      0x316 build/obj/chprintf.o
 .debug_abbrev  0x00006fcc      0x3ab build/obj/ff.o
 .debug_abbrev  0x00007377      0x24e build/obj/fatfs_diskio.o
 .debug_abbrev  0x000075c5      0x49e build/obj/main.o

.debug_loc      0x00000000     0xc99d
 .debug_loc     0x00000000       0xda build/obj/crt1.o
 .debug_loc     0x000000da      0x2e9 build/obj/chsys.o
 .debug_loc     0x000003c3      0x28f build/obj/chvt.o
 .debug_loc     0x00000652      0x2ed build/obj/chschd.o
 .debug_loc     0x0000093f      0xa29 build/obj/chthreads.o
 .debug_loc     0x00001368       0x92 build/obj/chtm.o
 .debug_loc     0x000013fa      0x20d build/obj/chdynamic.o
 .debug_loc     0x00001607       0x3f build/obj/chregistry.o
 .debug_loc     0x00001646      0x4fc build/obj/chsem.o
 .debug_loc     0x00001b42      0x580 build/obj/chmtx.o
 .debug_loc     0x000020c2      0x59f build/obj/chevents.o
 .debug_loc     0x00002661      0x69b build/obj/chqueues.o
 .debug_loc     0x00002cfc       0xcc build/obj/chmemcore.o
 .debug_loc     0x00002dc8      0x37d build/obj/chheap.o
 .debug_loc     0x00003145      0x200 build/obj/chmempools.o
 .debug_loc     0x00003345       0xc1 build/obj/chcore_v7m.o
 .debug_loc     0x00003406      0x31a build/obj/hal_mmcsd.o
 .debug_loc     0x00003720      0x4da build/obj/adc.o
 .debug_loc     0x00003bfa      0x2ab build/obj/gpt.o
 .debug_loc     0x00003ea5      0xaf9 build/obj/mmc_spi.o
 .debug_loc     0x0000499e      0x6a2 build/obj/serial.o
 .debug_loc     0x00005040      0x4cd build/obj/spi.o
 .debug_loc     0x0000550d       0xe0 build/obj/nvic.o
 .debug_loc     0x000055ed      0x1e8 build/obj/stm32_dma.o
 .debug_loc     0x000057d5       0x29 build/obj/st_lld.o
 .debug_loc     0x000057fe      0x657 build/obj/adc_lld.o
 .debug_loc     0x00005e55      0x1b2 build/obj/pal_lld.o
 .debug_loc     0x00006007      0x376 build/obj/spi_lld.o
 .debug_loc     0x0000637d      0x163 build/obj/gpt_lld.o
 .debug_loc     0x000064e0      0x508 build/obj/serial_lld.o
 .debug_loc     0x000069e8       0x42 build/obj/board.o
 .debug_loc     0x00006a2a      0x784 build/obj/shell.o
 .debug_loc     0x000071ae      0x183 build/obj/syscalls.o
 .debug_loc     0x00007331      0x8ca build/obj/chprintf.o
 .debug_loc     0x00007bfb     0x45b1 build/obj/ff.o
 .debug_loc     0x0000c1ac      0x31a build/obj/fatfs_diskio.o
 .debug_loc     0x0000c4c6      0x4d7 build/obj/main.o

.debug_aranges  0x00000000      0xf20
 .debug_aranges
                0x00000000       0x40 build/obj/crt1.o
 .debug_aranges
                0x00000040       0x20 build/obj/vectors.o
 .debug_aranges
                0x00000060       0x60 build/obj/chsys.o
 .debug_aranges
                0x000000c0       0x30 build/obj/chvt.o
 .debug_aranges
                0x000000f0       0x70 build/obj/chschd.o
 .debug_aranges
                0x00000160       0xc0 build/obj/chthreads.o
 .debug_aranges
                0x00000220       0x40 build/obj/chtm.o
 .debug_aranges
                0x00000260       0x38 build/obj/chdynamic.o
 .debug_aranges
                0x00000298       0x28 build/obj/chregistry.o
 .debug_aranges
                0x000002c0       0x70 build/obj/chsem.o
 .debug_aranges
                0x00000330       0x58 build/obj/chmtx.o
 .debug_aranges
                0x00000388       0xa0 build/obj/chevents.o
 .debug_aranges
                0x00000428       0x68 build/obj/chqueues.o
 .debug_aranges
                0x00000490       0x38 build/obj/chmemcore.o
 .debug_aranges
                0x000004c8       0x40 build/obj/chheap.o
 .debug_aranges
                0x00000508       0x48 build/obj/chmempools.o
 .debug_aranges
                0x00000550       0x28 build/obj/chcore_v7m.o
 .debug_aranges
                0x00000578       0x20 build/obj/hal.o
 .debug_aranges
                0x00000598       0x40 build/obj/st.o
 .debug_aranges
                0x000005d8       0x58 build/obj/hal_mmcsd.o
 .debug_aranges
                0x00000630       0x70 build/obj/adc.o
 .debug_aranges
                0x000006a0       0x78 build/obj/gpt.o
 .debug_aranges
                0x00000718       0xd8 build/obj/mmc_spi.o
 .debug_aranges
                0x000007f0       0x98 build/obj/serial.o
 .debug_aranges
                0x00000888       0x98 build/obj/spi.o
 .debug_aranges
                0x00000920       0x38 build/obj/nvic.o
 .debug_aranges
                0x00000958       0x28 build/obj/hal_lld.o
 .debug_aranges
                0x00000980       0x90 build/obj/stm32_dma.o
 .debug_aranges
                0x00000a10       0x28 build/obj/st_lld.o
 .debug_aranges
                0x00000a38       0x98 build/obj/adc_lld.o
 .debug_aranges
                0x00000ad0       0x28 build/obj/pal_lld.o
 .debug_aranges
                0x00000af8       0x78 build/obj/spi_lld.o
 .debug_aranges
                0x00000b70       0x58 build/obj/gpt_lld.o
 .debug_aranges
                0x00000bc8       0x40 build/obj/serial_lld.o
 .debug_aranges
                0x00000c08       0x38 build/obj/board.o
 .debug_aranges
                0x00000c40       0x60 build/obj/shell.o
 .debug_aranges
                0x00000ca0       0x50 build/obj/syscalls.o
 .debug_aranges
                0x00000cf0       0x38 build/obj/chprintf.o
 .debug_aranges
                0x00000d28      0x150 build/obj/ff.o
 .debug_aranges
                0x00000e78       0x48 build/obj/fatfs_diskio.o
 .debug_aranges
                0x00000ec0       0x60 build/obj/main.o

.debug_ranges   0x00000000     0x1f08
 .debug_ranges  0x00000000       0x30 build/obj/crt1.o
 .debug_ranges  0x00000030       0x10 build/obj/vectors.o
 .debug_ranges  0x00000040      0x158 build/obj/chsys.o
 .debug_ranges  0x00000198       0xb0 build/obj/chvt.o
 .debug_ranges  0x00000248      0x178 build/obj/chschd.o
 .debug_ranges  0x000003c0      0x238 build/obj/chthreads.o
 .debug_ranges  0x000005f8       0x98 build/obj/chtm.o
 .debug_ranges  0x00000690       0x28 build/obj/chdynamic.o
 .debug_ranges  0x000006b8       0x18 build/obj/chregistry.o
 .debug_ranges  0x000006d0      0x120 build/obj/chsem.o
 .debug_ranges  0x000007f0      0x180 build/obj/chmtx.o
 .debug_ranges  0x00000970       0xc0 build/obj/chevents.o
 .debug_ranges  0x00000a30      0x120 build/obj/chqueues.o
 .debug_ranges  0x00000b50       0x28 build/obj/chmemcore.o
 .debug_ranges  0x00000b78       0x30 build/obj/chheap.o
 .debug_ranges  0x00000ba8       0xe0 build/obj/chmempools.o
 .debug_ranges  0x00000c88       0x18 build/obj/chcore_v7m.o
 .debug_ranges  0x00000ca0       0x10 build/obj/hal.o
 .debug_ranges  0x00000cb0       0x30 build/obj/st.o
 .debug_ranges  0x00000ce0       0x48 build/obj/hal_mmcsd.o
 .debug_ranges  0x00000d28       0xd8 build/obj/adc.o
 .debug_ranges  0x00000e00       0x98 build/obj/gpt.o
 .debug_ranges  0x00000e98      0x128 build/obj/mmc_spi.o
 .debug_ranges  0x00000fc0      0x100 build/obj/serial.o
 .debug_ranges  0x000010c0      0x100 build/obj/spi.o
 .debug_ranges  0x000011c0       0x28 build/obj/nvic.o
 .debug_ranges  0x000011e8       0x30 build/obj/hal_lld.o
 .debug_ranges  0x00001218      0x170 build/obj/stm32_dma.o
 .debug_ranges  0x00001388       0x18 build/obj/st_lld.o
 .debug_ranges  0x000013a0       0xd0 build/obj/adc_lld.o
 .debug_ranges  0x00001470       0xc0 build/obj/pal_lld.o
 .debug_ranges  0x00001530       0x80 build/obj/spi_lld.o
 .debug_ranges  0x000015b0       0x48 build/obj/gpt_lld.o
 .debug_ranges  0x000015f8       0xa8 build/obj/serial_lld.o
 .debug_ranges  0x000016a0       0x28 build/obj/board.o
 .debug_ranges  0x000016c8      0x148 build/obj/shell.o
 .debug_ranges  0x00001810       0x40 build/obj/syscalls.o
 .debug_ranges  0x00001850       0x40 build/obj/chprintf.o
 .debug_ranges  0x00001890      0x558 build/obj/ff.o
 .debug_ranges  0x00001de8       0x38 build/obj/fatfs_diskio.o
 .debug_ranges  0x00001e20       0xe8 build/obj/main.o

.debug_line     0x00000000     0xc493
 .debug_line    0x00000000      0x1e4 build/obj/crt1.o
 .debug_line    0x000001e4      0x1a0 build/obj/vectors.o
 .debug_line    0x00000384      0x5e5 build/obj/chsys.o
 .debug_line    0x00000969      0x39e build/obj/chvt.o
 .debug_line    0x00000d07      0x549 build/obj/chschd.o
 .debug_line    0x00001250      0x7a9 build/obj/chthreads.o
 .debug_line    0x000019f9      0x311 build/obj/chtm.o
 .debug_line    0x00001d0a      0x3cd build/obj/chdynamic.o
 .debug_line    0x000020d7      0x349 build/obj/chregistry.o
 .debug_line    0x00002420      0x481 build/obj/chsem.o
 .debug_line    0x000028a1      0x4c2 build/obj/chmtx.o
 .debug_line    0x00002d63      0x555 build/obj/chevents.o
 .debug_line    0x000032b8      0x583 build/obj/chqueues.o
 .debug_line    0x0000383b      0x341 build/obj/chmemcore.o
 .debug_line    0x00003b7c      0x3ad build/obj/chheap.o
 .debug_line    0x00003f29      0x3d2 build/obj/chmempools.o
 .debug_line    0x000042fb      0x290 build/obj/chcore_v7m.o
 .debug_line    0x0000458b      0x36f build/obj/hal.o
 .debug_line    0x000048fa      0x2e3 build/obj/st.o
 .debug_line    0x00004bdd      0x45a build/obj/hal_mmcsd.o
 .debug_line    0x00005037      0x567 build/obj/adc.o
 .debug_line    0x0000559e      0x42e build/obj/gpt.o
 .debug_line    0x000059cc      0x7c8 build/obj/mmc_spi.o
 .debug_line    0x00006194      0x572 build/obj/serial.o
 .debug_line    0x00006706      0x642 build/obj/spi.o
 .debug_line    0x00006d48      0x297 build/obj/nvic.o
 .debug_line    0x00006fdf      0x3a6 build/obj/hal_lld.o
 .debug_line    0x00007385      0x517 build/obj/stm32_dma.o
 .debug_line    0x0000789c      0x35e build/obj/st_lld.o
 .debug_line    0x00007bfa      0x7d0 build/obj/adc_lld.o
 .debug_line    0x000083ca      0x319 build/obj/pal_lld.o
 .debug_line    0x000086e3      0x5ce build/obj/spi_lld.o
 .debug_line    0x00008cb1      0x44e build/obj/gpt_lld.o
 .debug_line    0x000090ff      0x4f6 build/obj/serial_lld.o
 .debug_line    0x000095f5      0x45d build/obj/board.o
 .debug_line    0x00009a52      0x594 build/obj/shell.o
 .debug_line    0x00009fe6      0x3f4 build/obj/syscalls.o
 .debug_line    0x0000a3da      0x432 build/obj/chprintf.o
 .debug_line    0x0000a80c     0x1027 build/obj/ff.o
 .debug_line    0x0000b833      0x4d6 build/obj/fatfs_diskio.o
 .debug_line    0x0000bd09      0x78a build/obj/main.o

.debug_str      0x00000000     0x4701
 .debug_str     0x00000000      0x43b build/obj/crt1.o
                                0x494 (size before relaxing)
 .debug_str     0x0000043b      0x15c build/obj/vectors.o
                                0x331 (size before relaxing)
 .debug_str     0x00000597      0xda5 build/obj/chsys.o
                                0xff9 (size before relaxing)
 .debug_str     0x0000133c       0x68 build/obj/chvt.o
                                0x66a (size before relaxing)
 .debug_str     0x000013a4      0x130 build/obj/chschd.o
                                0x72d (size before relaxing)
 .debug_str     0x000014d4      0x211 build/obj/chthreads.o
                                0x8cc (size before relaxing)
 .debug_str     0x000016e5       0xb9 build/obj/chtm.o
                                0x6be (size before relaxing)
 .debug_str     0x0000179e      0x11f build/obj/chdynamic.o
                                0x6e4 (size before relaxing)
 .debug_str     0x000018bd       0x43 build/obj/chregistry.o
                                0x6ca (size before relaxing)
 .debug_str     0x00001900       0xc8 build/obj/chsem.o
                                0x6c0 (size before relaxing)
 .debug_str     0x000019c8       0xab build/obj/chmtx.o
                                0x68e (size before relaxing)
 .debug_str     0x00001a73      0x1e9 build/obj/chevents.o
                                0x7bb (size before relaxing)
 .debug_str     0x00001c5c      0x174 build/obj/chqueues.o
                                0x746 (size before relaxing)
 .debug_str     0x00001dd0       0x75 build/obj/chmemcore.o
                                0x5fc (size before relaxing)
 .debug_str     0x00001e45       0x4f build/obj/chheap.o
                                0x634 (size before relaxing)
 .debug_str     0x00001e94       0x66 build/obj/chmempools.o
                                0x659 (size before relaxing)
 .debug_str     0x00001efa       0x8a build/obj/chcore_v7m.o
                                0x688 (size before relaxing)
 .debug_str     0x00001f84       0xff build/obj/hal.o
                                0x62c (size before relaxing)
 .debug_str     0x00002083       0x81 build/obj/st.o
                                0x623 (size before relaxing)
 .debug_str     0x00002104      0x42d build/obj/hal_mmcsd.o
                                0x9a9 (size before relaxing)
 .debug_str     0x00002531      0x417 build/obj/adc.o
                                0xa69 (size before relaxing)
 .debug_str     0x00002948      0x1c8 build/obj/gpt.o
                                0x7a9 (size before relaxing)
 .debug_str     0x00002b10      0x348 build/obj/mmc_spi.o
                                0xab3 (size before relaxing)
 .debug_str     0x00002e58      0x196 build/obj/serial.o
                                0x952 (size before relaxing)
 .debug_str     0x00002fee      0x120 build/obj/spi.o
                                0x93a (size before relaxing)
 .debug_str     0x0000310e       0x7e build/obj/nvic.o
                                0x678 (size before relaxing)
 .debug_str     0x0000318c      0x107 build/obj/hal_lld.o
                                0x65b (size before relaxing)
 .debug_str     0x00003293      0x133 build/obj/stm32_dma.o
                                0x795 (size before relaxing)
 .debug_str     0x000033c6       0x9a build/obj/st_lld.o
                                0x70f (size before relaxing)
 .debug_str     0x00003460      0x1a0 build/obj/adc_lld.o
                                0xbf2 (size before relaxing)
 .debug_str     0x00003600       0x7c build/obj/pal_lld.o
                                0x6ed (size before relaxing)
 .debug_str     0x0000367c       0xb4 build/obj/spi_lld.o
                                0x9c7 (size before relaxing)
 .debug_str     0x00003730       0x59 build/obj/gpt_lld.o
                                0x793 (size before relaxing)
 .debug_str     0x00003789       0x6a build/obj/serial_lld.o
                                0x942 (size before relaxing)
 .debug_str     0x000037f3       0x6a build/obj/board.o
                                0x92d (size before relaxing)
 .debug_str     0x0000385d      0x1a8 build/obj/shell.o
                                0x910 (size before relaxing)
 .debug_str     0x00003a05      0x49c build/obj/syscalls.o
                                0xa57 (size before relaxing)
 .debug_str     0x00003ea1      0x111 build/obj/chprintf.o
                                0x6a2 (size before relaxing)
 .debug_str     0x00003fb2      0x4ef build/obj/ff.o
                                0xa76 (size before relaxing)
 .debug_str     0x000044a1       0x3f build/obj/fatfs_diskio.o
                                0x9a7 (size before relaxing)
 .debug_str     0x000044e0      0x221 build/obj/main.o
                               0x137a (size before relaxing)

.debug_frame    0x00000000     0x2f8c
 .debug_frame   0x00000000       0x70 build/obj/crt1.o
 .debug_frame   0x00000070       0x20 build/obj/vectors.o
 .debug_frame   0x00000090       0xe8 build/obj/chsys.o
 .debug_frame   0x00000178       0x60 build/obj/chvt.o
 .debug_frame   0x000001d8      0x114 build/obj/chschd.o
 .debug_frame   0x000002ec      0x24c build/obj/chthreads.o
 .debug_frame   0x00000538       0x8c build/obj/chtm.o
 .debug_frame   0x000005c4       0x80 build/obj/chdynamic.o
 .debug_frame   0x00000644       0x3c build/obj/chregistry.o
 .debug_frame   0x00000680      0x130 build/obj/chsem.o
 .debug_frame   0x000007b0       0xd8 build/obj/chmtx.o
 .debug_frame   0x00000888      0x1cc build/obj/chevents.o
 .debug_frame   0x00000a54      0x158 build/obj/chqueues.o
 .debug_frame   0x00000bac       0x50 build/obj/chmemcore.o
 .debug_frame   0x00000bfc       0xa8 build/obj/chheap.o
 .debug_frame   0x00000ca4       0x94 build/obj/chmempools.o
 .debug_frame   0x00000d38       0x3c build/obj/chcore_v7m.o
 .debug_frame   0x00000d74       0x2c build/obj/hal.o
 .debug_frame   0x00000da0       0x60 build/obj/st.o
 .debug_frame   0x00000e00       0xf8 build/obj/hal_mmcsd.o
 .debug_frame   0x00000ef8      0x11c build/obj/adc.o
 .debug_frame   0x00001014      0x118 build/obj/gpt.o
 .debug_frame   0x0000112c      0x2dc build/obj/mmc_spi.o
 .debug_frame   0x00001408      0x15c build/obj/serial.o
 .debug_frame   0x00001564      0x1a8 build/obj/spi.o
 .debug_frame   0x0000170c       0x60 build/obj/nvic.o
 .debug_frame   0x0000176c       0x3c build/obj/hal_lld.o
 .debug_frame   0x000017a8      0x1c4 build/obj/stm32_dma.o
 .debug_frame   0x0000196c       0x48 build/obj/st_lld.o
 .debug_frame   0x000019b4      0x1b8 build/obj/adc_lld.o
 .debug_frame   0x00001b6c       0x5c build/obj/pal_lld.o
 .debug_frame   0x00001bc8      0x158 build/obj/spi_lld.o
 .debug_frame   0x00001d20       0xc4 build/obj/gpt_lld.o
 .debug_frame   0x00001de4       0x90 build/obj/serial_lld.o
 .debug_frame   0x00001e74       0x50 build/obj/board.o
 .debug_frame   0x00001ec4      0x110 build/obj/shell.o
 .debug_frame   0x00001fd4       0x98 build/obj/syscalls.o
 .debug_frame   0x0000206c       0xb8 build/obj/chprintf.o
 .debug_frame   0x00002124      0x564 build/obj/ff.o
 .debug_frame   0x00002688       0xa4 build/obj/fatfs_diskio.o
 .debug_frame   0x0000272c      0x140 build/obj/main.o
 .debug_frame   0x0000286c       0x2c /nfs/nfs5/home/research/hardware/arm2/gcc-arm-embedded/gcc-arm-none-eabi-4_8-2014q2/bin/../lib/gcc/arm-none-eabi/4.8.4/../../../../arm-none-eabi/lib/armv7e-m/libg.a(lib_a-memset.o)
 .debug_frame   0x00002898       0x64 /nfs/nfs5/home/research/hardware/arm2/gcc-arm-embedded/gcc-arm-none-eabi-4_8-2014q2/bin/../lib/gcc/arm-none-eabi/4.8.4/../../../../arm-none-eabi/lib/armv7e-m/libg.a(lib_a-sprintf.o)
 .debug_frame   0x000028fc       0x2c /nfs/nfs5/home/research/hardware/arm2/gcc-arm-embedded/gcc-arm-none-eabi-4_8-2014q2/bin/../lib/gcc/arm-none-eabi/4.8.4/../../../../arm-none-eabi/lib/armv7e-m/libg.a(lib_a-strpbrk.o)
 .debug_frame   0x00002928       0x2c /nfs/nfs5/home/research/hardware/arm2/gcc-arm-embedded/gcc-arm-none-eabi-4_8-2014q2/bin/../lib/gcc/arm-none-eabi/4.8.4/../../../../arm-none-eabi/lib/armv7e-m/libg.a(lib_a-strspn.o)
 .debug_frame   0x00002954       0x3c /nfs/nfs5/home/research/hardware/arm2/gcc-arm-embedded/gcc-arm-none-eabi-4_8-2014q2/bin/../lib/gcc/arm-none-eabi/4.8.4/../../../../arm-none-eabi/lib/armv7e-m/libg.a(lib_a-svfprintf.o)
 .debug_frame   0x00002990       0x64 /nfs/nfs5/home/research/hardware/arm2/gcc-arm-embedded/gcc-arm-none-eabi-4_8-2014q2/bin/../lib/gcc/arm-none-eabi/4.8.4/../../../../arm-none-eabi/lib/armv7e-m/libg.a(lib_a-dtoa.o)
 .debug_frame   0x000029f4       0x98 /nfs/nfs5/home/research/hardware/arm2/gcc-arm-embedded/gcc-arm-none-eabi-4_8-2014q2/bin/../lib/gcc/arm-none-eabi/4.8.4/../../../../arm-none-eabi/lib/armv7e-m/libg.a(lib_a-locale.o)
 .debug_frame   0x00002a8c       0x38 /nfs/nfs5/home/research/hardware/arm2/gcc-arm-embedded/gcc-arm-none-eabi-4_8-2014q2/bin/../lib/gcc/arm-none-eabi/4.8.4/../../../../arm-none-eabi/lib/armv7e-m/libg.a(lib_a-mallocr.o)
 .debug_frame   0x00002ac4       0x2c /nfs/nfs5/home/research/hardware/arm2/gcc-arm-embedded/gcc-arm-none-eabi-4_8-2014q2/bin/../lib/gcc/arm-none-eabi/4.8.4/../../../../arm-none-eabi/lib/armv7e-m/libg.a(lib_a-memchr-stub.o)
 .debug_frame   0x00002af0       0x30 /nfs/nfs5/home/research/hardware/arm2/gcc-arm-embedded/gcc-arm-none-eabi-4_8-2014q2/bin/../lib/gcc/arm-none-eabi/4.8.4/../../../../arm-none-eabi/lib/armv7e-m/libg.a(lib_a-mlock.o)
 .debug_frame   0x00002b20      0x22c /nfs/nfs5/home/research/hardware/arm2/gcc-arm-embedded/gcc-arm-none-eabi-4_8-2014q2/bin/../lib/gcc/arm-none-eabi/4.8.4/../../../../arm-none-eabi/lib/armv7e-m/libg.a(lib_a-mprec.o)
 .debug_frame   0x00002d4c       0x28 /nfs/nfs5/home/research/hardware/arm2/gcc-arm-embedded/gcc-arm-none-eabi-4_8-2014q2/bin/../lib/gcc/arm-none-eabi/4.8.4/../../../../arm-none-eabi/lib/armv7e-m/libg.a(lib_a-s_fpclassify.o)
 .debug_frame   0x00002d74       0x20 /nfs/nfs5/home/research/hardware/arm2/gcc-arm-embedded/gcc-arm-none-eabi-4_8-2014q2/bin/../lib/gcc/arm-none-eabi/4.8.4/../../../../arm-none-eabi/lib/armv7e-m/libg.a(lib_a-strlen.o)
 .debug_frame   0x00002d94       0x64 /nfs/nfs5/home/research/hardware/arm2/gcc-arm-embedded/gcc-arm-none-eabi-4_8-2014q2/bin/../lib/gcc/arm-none-eabi/4.8.4/../../../../arm-none-eabi/lib/armv7e-m/libg.a(lib_a-svfiprintf.o)
 .debug_frame   0x00002df8       0x28 /nfs/nfs5/home/research/hardware/arm2/gcc-arm-embedded/gcc-arm-none-eabi-4_8-2014q2/bin/../lib/gcc/arm-none-eabi/4.8.4/../../../../arm-none-eabi/lib/armv7e-m/libg.a(lib_a-callocr.o)
 .debug_frame   0x00002e20       0x50 /nfs/nfs5/home/research/hardware/arm2/gcc-arm-embedded/gcc-arm-none-eabi-4_8-2014q2/bin/../lib/gcc/arm-none-eabi/4.8.4/../../../../arm-none-eabi/lib/armv7e-m/libg.a(lib_a-freer.o)
 .debug_frame   0x00002e70       0x2c /nfs/nfs5/home/research/hardware/arm2/gcc-arm-embedded/gcc-arm-none-eabi-4_8-2014q2/bin/../lib/gcc/arm-none-eabi/4.8.4/../../../../arm-none-eabi/lib/armv7e-m/libg.a(lib_a-memmove.o)
 .debug_frame   0x00002e9c       0x38 /nfs/nfs5/home/research/hardware/arm2/gcc-arm-embedded/gcc-arm-none-eabi-4_8-2014q2/bin/../lib/gcc/arm-none-eabi/4.8.4/../../../../arm-none-eabi/lib/armv7e-m/libg.a(lib_a-reallocr.o)
 .debug_frame   0x00002ed4       0x50 /nfs/nfs5/home/research/hardware/arm2/gcc-arm-embedded/gcc-arm-none-eabi-4_8-2014q2/bin/../lib/gcc/arm-none-eabi/4.8.4/armv7e-m/libgcc.a(bpabi.o)
 .debug_frame   0x00002f24       0x34 /nfs/nfs5/home/research/hardware/arm2/gcc-arm-embedded/gcc-arm-none-eabi-4_8-2014q2/bin/../lib/gcc/arm-none-eabi/4.8.4/armv7e-m/libgcc.a(_divdi3.o)
 .debug_frame   0x00002f58       0x34 /nfs/nfs5/home/research/hardware/arm2/gcc-arm-embedded/gcc-arm-none-eabi-4_8-2014q2/bin/../lib/gcc/arm-none-eabi/4.8.4/armv7e-m/libgcc.a(_udivdi3.o)

Cross Reference Table

Symbol                                            File
ADCD1                                             build/obj/adc_lld.o
                                                  build/obj/main.o
ADCD2                                             build/obj/adc_lld.o
ADCD3                                             build/obj/adc_lld.o
ADCD4                                             build/obj/adc_lld.o
BusFault_Handler                                  build/obj/vectors.o
DebugMon_Handler                                  build/obj/vectors.o
GPTD1                                             build/obj/gpt_lld.o
                                                  build/obj/main.o
HardFault_Handler                                 build/obj/vectors.o
MMCD1                                             build/obj/main.o
                                                  build/obj/fatfs_diskio.o
MODE                                              build/obj/main.o
MemManage_Handler                                 build/obj/vectors.o
NMI_Handler                                       build/obj/vectors.o
PendSV_Handler                                    build/obj/vectors.o
RUN_MODE1                                         build/obj/main.o
RUN_MODE2                                         build/obj/main.o
Reset_Handler                                     build/obj/crt0_v7m.o
SD1                                               build/obj/serial_lld.o
                                                  build/obj/main.o
SDC_FS                                            build/obj/main.o
SPID1                                             build/obj/spi_lld.o
SPID2                                             build/obj/spi_lld.o
                                                  build/obj/main.o
SVC_Handler                                       build/obj/chcore_v7m.o
                                                  build/obj/vectors.o
SysTick_Handler                                   build/obj/vectors.o
SystemCoreClock                                   build/obj/hal_lld.o
TestThread                                        build/obj/test.o
UsageFault_Handler                                build/obj/vectors.o
Vector100                                         build/obj/vectors.o
Vector104                                         build/obj/vectors.o
Vector108                                         build/obj/vectors.o
Vector10C                                         build/obj/vectors.o
Vector110                                         build/obj/vectors.o
Vector114                                         build/obj/vectors.o
Vector118                                         build/obj/vectors.o
Vector11C                                         build/obj/vectors.o
Vector120                                         build/obj/stm32_dma.o
                                                  build/obj/vectors.o
Vector124                                         build/obj/stm32_dma.o
                                                  build/obj/vectors.o
Vector128                                         build/obj/stm32_dma.o
                                                  build/obj/vectors.o
Vector12C                                         build/obj/stm32_dma.o
                                                  build/obj/vectors.o
Vector130                                         build/obj/stm32_dma.o
                                                  build/obj/vectors.o
Vector134                                         build/obj/adc_lld.o
                                                  build/obj/vectors.o
Vector138                                         build/obj/vectors.o
Vector13C                                         build/obj/vectors.o
Vector140                                         build/obj/vectors.o
Vector144                                         build/obj/vectors.o
Vector148                                         build/obj/vectors.o
Vector14C                                         build/obj/vectors.o
Vector150                                         build/obj/vectors.o
Vector154                                         build/obj/vectors.o
Vector158                                         build/obj/vectors.o
Vector15C                                         build/obj/vectors.o
Vector160                                         build/obj/vectors.o
Vector164                                         build/obj/vectors.o
Vector168                                         build/obj/vectors.o
Vector16C                                         build/obj/vectors.o
Vector170                                         build/obj/vectors.o
Vector174                                         build/obj/vectors.o
Vector178                                         build/obj/vectors.o
Vector17C                                         build/obj/vectors.o
Vector180                                         build/obj/vectors.o
Vector184                                         build/obj/vectors.o
Vector188                                         build/obj/vectors.o
Vector18C                                         build/obj/vectors.o
Vector190                                         build/obj/vectors.o
Vector194                                         build/obj/vectors.o
Vector198                                         build/obj/vectors.o
Vector19C                                         build/obj/vectors.o
Vector1C                                          build/obj/vectors.o
Vector20                                          build/obj/vectors.o
Vector24                                          build/obj/vectors.o
Vector28                                          build/obj/vectors.o
Vector34                                          build/obj/vectors.o
Vector40                                          build/obj/vectors.o
Vector44                                          build/obj/vectors.o
Vector48                                          build/obj/vectors.o
Vector4C                                          build/obj/vectors.o
Vector50                                          build/obj/vectors.o
Vector54                                          build/obj/vectors.o
Vector58                                          build/obj/vectors.o
Vector5C                                          build/obj/vectors.o
Vector60                                          build/obj/vectors.o
Vector64                                          build/obj/vectors.o
Vector68                                          build/obj/vectors.o
Vector6C                                          build/obj/stm32_dma.o
                                                  build/obj/vectors.o
Vector70                                          build/obj/stm32_dma.o
                                                  build/obj/vectors.o
Vector74                                          build/obj/stm32_dma.o
                                                  build/obj/vectors.o
Vector78                                          build/obj/stm32_dma.o
                                                  build/obj/vectors.o
Vector7C                                          build/obj/stm32_dma.o
                                                  build/obj/vectors.o
Vector80                                          build/obj/stm32_dma.o
                                                  build/obj/vectors.o
Vector84                                          build/obj/stm32_dma.o
                                                  build/obj/vectors.o
Vector88                                          build/obj/adc_lld.o
                                                  build/obj/vectors.o
Vector8C                                          build/obj/vectors.o
Vector90                                          build/obj/vectors.o
Vector94                                          build/obj/vectors.o
Vector98                                          build/obj/vectors.o
Vector9C                                          build/obj/vectors.o
VectorA0                                          build/obj/vectors.o
VectorA4                                          build/obj/gpt_lld.o
                                                  build/obj/vectors.o
VectorA8                                          build/obj/vectors.o
VectorAC                                          build/obj/vectors.o
VectorB0                                          build/obj/st_lld.o
                                                  build/obj/vectors.o
VectorB4                                          build/obj/vectors.o
VectorB8                                          build/obj/vectors.o
VectorBC                                          build/obj/vectors.o
VectorC0                                          build/obj/vectors.o
VectorC4                                          build/obj/vectors.o
VectorC8                                          build/obj/vectors.o
VectorCC                                          build/obj/vectors.o
VectorD0                                          build/obj/vectors.o
VectorD4                                          build/obj/serial_lld.o
                                                  build/obj/vectors.o
VectorD8                                          build/obj/vectors.o
VectorDC                                          build/obj/vectors.o
VectorE0                                          build/obj/vectors.o
VectorE4                                          build/obj/vectors.o
VectorE8                                          build/obj/vectors.o
VectorEC                                          build/obj/vectors.o
VectorF0                                          build/obj/vectors.o
VectorF4                                          build/obj/vectors.o
VectorF8                                          build/obj/vectors.o
VectorFC                                          build/obj/adc_lld.o
                                                  build/obj/vectors.o
_Balloc                                           /nfs/nfs5/home/research/hardware/arm2/gcc-arm-embedded/gcc-arm-none-eabi-4_8-2014q2/bin/../lib/gcc/arm-none-eabi/4.8.4/../../../../arm-none-eabi/lib/armv7e-m/libg.a(lib_a-mprec.o)
                                                  /nfs/nfs5/home/research/hardware/arm2/gcc-arm-embedded/gcc-arm-none-eabi-4_8-2014q2/bin/../lib/gcc/arm-none-eabi/4.8.4/../../../../arm-none-eabi/lib/armv7e-m/libg.a(lib_a-dtoa.o)
_Bfree                                            /nfs/nfs5/home/research/hardware/arm2/gcc-arm-embedded/gcc-arm-none-eabi-4_8-2014q2/bin/../lib/gcc/arm-none-eabi/4.8.4/../../../../arm-none-eabi/lib/armv7e-m/libg.a(lib_a-mprec.o)
                                                  /nfs/nfs5/home/research/hardware/arm2/gcc-arm-embedded/gcc-arm-none-eabi-4_8-2014q2/bin/../lib/gcc/arm-none-eabi/4.8.4/../../../../arm-none-eabi/lib/armv7e-m/libg.a(lib_a-dtoa.o)
_PathLocale                                       /nfs/nfs5/home/research/hardware/arm2/gcc-arm-embedded/gcc-arm-none-eabi-4_8-2014q2/bin/../lib/gcc/arm-none-eabi/4.8.4/../../../../arm-none-eabi/lib/armv7e-m/libg.a(lib_a-locale.o)
__adddf3                                          /nfs/nfs5/home/research/hardware/arm2/gcc-arm-embedded/gcc-arm-none-eabi-4_8-2014q2/bin/../lib/gcc/arm-none-eabi/4.8.4/armv7e-m/libgcc.a(_arm_addsubdf3.o)
__aeabi_cdcmpeq                                   /nfs/nfs5/home/research/hardware/arm2/gcc-arm-embedded/gcc-arm-none-eabi-4_8-2014q2/bin/../lib/gcc/arm-none-eabi/4.8.4/armv7e-m/libgcc.a(_arm_cmpdf2.o)
__aeabi_cdcmple                                   /nfs/nfs5/home/research/hardware/arm2/gcc-arm-embedded/gcc-arm-none-eabi-4_8-2014q2/bin/../lib/gcc/arm-none-eabi/4.8.4/armv7e-m/libgcc.a(_arm_cmpdf2.o)
__aeabi_cdrcmple                                  /nfs/nfs5/home/research/hardware/arm2/gcc-arm-embedded/gcc-arm-none-eabi-4_8-2014q2/bin/../lib/gcc/arm-none-eabi/4.8.4/armv7e-m/libgcc.a(_arm_cmpdf2.o)
__aeabi_d2iz                                      /nfs/nfs5/home/research/hardware/arm2/gcc-arm-embedded/gcc-arm-none-eabi-4_8-2014q2/bin/../lib/gcc/arm-none-eabi/4.8.4/armv7e-m/libgcc.a(_arm_fixdfsi.o)
                                                  /nfs/nfs5/home/research/hardware/arm2/gcc-arm-embedded/gcc-arm-none-eabi-4_8-2014q2/bin/../lib/gcc/arm-none-eabi/4.8.4/../../../../arm-none-eabi/lib/armv7e-m/libg.a(lib_a-dtoa.o)
__aeabi_dadd                                      /nfs/nfs5/home/research/hardware/arm2/gcc-arm-embedded/gcc-arm-none-eabi-4_8-2014q2/bin/../lib/gcc/arm-none-eabi/4.8.4/armv7e-m/libgcc.a(_arm_addsubdf3.o)
                                                  /nfs/nfs5/home/research/hardware/arm2/gcc-arm-embedded/gcc-arm-none-eabi-4_8-2014q2/bin/../lib/gcc/arm-none-eabi/4.8.4/../../../../arm-none-eabi/lib/armv7e-m/libg.a(lib_a-dtoa.o)
__aeabi_dcmpeq                                    /nfs/nfs5/home/research/hardware/arm2/gcc-arm-embedded/gcc-arm-none-eabi-4_8-2014q2/bin/../lib/gcc/arm-none-eabi/4.8.4/armv7e-m/libgcc.a(_arm_cmpdf2.o)
                                                  /nfs/nfs5/home/research/hardware/arm2/gcc-arm-embedded/gcc-arm-none-eabi-4_8-2014q2/bin/../lib/gcc/arm-none-eabi/4.8.4/../../../../arm-none-eabi/lib/armv7e-m/libg.a(lib_a-dtoa.o)
                                                  /nfs/nfs5/home/research/hardware/arm2/gcc-arm-embedded/gcc-arm-none-eabi-4_8-2014q2/bin/../lib/gcc/arm-none-eabi/4.8.4/../../../../arm-none-eabi/lib/armv7e-m/libg.a(lib_a-svfprintf.o)
__aeabi_dcmpge                                    /nfs/nfs5/home/research/hardware/arm2/gcc-arm-embedded/gcc-arm-none-eabi-4_8-2014q2/bin/../lib/gcc/arm-none-eabi/4.8.4/armv7e-m/libgcc.a(_arm_cmpdf2.o)
                                                  /nfs/nfs5/home/research/hardware/arm2/gcc-arm-embedded/gcc-arm-none-eabi-4_8-2014q2/bin/../lib/gcc/arm-none-eabi/4.8.4/../../../../arm-none-eabi/lib/armv7e-m/libg.a(lib_a-dtoa.o)
__aeabi_dcmpgt                                    /nfs/nfs5/home/research/hardware/arm2/gcc-arm-embedded/gcc-arm-none-eabi-4_8-2014q2/bin/../lib/gcc/arm-none-eabi/4.8.4/armv7e-m/libgcc.a(_arm_cmpdf2.o)
                                                  /nfs/nfs5/home/research/hardware/arm2/gcc-arm-embedded/gcc-arm-none-eabi-4_8-2014q2/bin/../lib/gcc/arm-none-eabi/4.8.4/../../../../arm-none-eabi/lib/armv7e-m/libg.a(lib_a-dtoa.o)
__aeabi_dcmple                                    /nfs/nfs5/home/research/hardware/arm2/gcc-arm-embedded/gcc-arm-none-eabi-4_8-2014q2/bin/../lib/gcc/arm-none-eabi/4.8.4/armv7e-m/libgcc.a(_arm_cmpdf2.o)
__aeabi_dcmplt                                    /nfs/nfs5/home/research/hardware/arm2/gcc-arm-embedded/gcc-arm-none-eabi-4_8-2014q2/bin/../lib/gcc/arm-none-eabi/4.8.4/armv7e-m/libgcc.a(_arm_cmpdf2.o)
                                                  /nfs/nfs5/home/research/hardware/arm2/gcc-arm-embedded/gcc-arm-none-eabi-4_8-2014q2/bin/../lib/gcc/arm-none-eabi/4.8.4/../../../../arm-none-eabi/lib/armv7e-m/libg.a(lib_a-dtoa.o)
                                                  /nfs/nfs5/home/research/hardware/arm2/gcc-arm-embedded/gcc-arm-none-eabi-4_8-2014q2/bin/../lib/gcc/arm-none-eabi/4.8.4/../../../../arm-none-eabi/lib/armv7e-m/libg.a(lib_a-svfprintf.o)
__aeabi_ddiv                                      /nfs/nfs5/home/research/hardware/arm2/gcc-arm-embedded/gcc-arm-none-eabi-4_8-2014q2/bin/../lib/gcc/arm-none-eabi/4.8.4/armv7e-m/libgcc.a(_arm_muldivdf3.o)
                                                  /nfs/nfs5/home/research/hardware/arm2/gcc-arm-embedded/gcc-arm-none-eabi-4_8-2014q2/bin/../lib/gcc/arm-none-eabi/4.8.4/../../../../arm-none-eabi/lib/armv7e-m/libg.a(lib_a-mprec.o)
                                                  /nfs/nfs5/home/research/hardware/arm2/gcc-arm-embedded/gcc-arm-none-eabi-4_8-2014q2/bin/../lib/gcc/arm-none-eabi/4.8.4/../../../../arm-none-eabi/lib/armv7e-m/libg.a(lib_a-dtoa.o)
__aeabi_dmul                                      /nfs/nfs5/home/research/hardware/arm2/gcc-arm-embedded/gcc-arm-none-eabi-4_8-2014q2/bin/../lib/gcc/arm-none-eabi/4.8.4/armv7e-m/libgcc.a(_arm_muldivdf3.o)
                                                  /nfs/nfs5/home/research/hardware/arm2/gcc-arm-embedded/gcc-arm-none-eabi-4_8-2014q2/bin/../lib/gcc/arm-none-eabi/4.8.4/../../../../arm-none-eabi/lib/armv7e-m/libg.a(lib_a-mprec.o)
                                                  /nfs/nfs5/home/research/hardware/arm2/gcc-arm-embedded/gcc-arm-none-eabi-4_8-2014q2/bin/../lib/gcc/arm-none-eabi/4.8.4/../../../../arm-none-eabi/lib/armv7e-m/libg.a(lib_a-dtoa.o)
__aeabi_drsub                                     /nfs/nfs5/home/research/hardware/arm2/gcc-arm-embedded/gcc-arm-none-eabi-4_8-2014q2/bin/../lib/gcc/arm-none-eabi/4.8.4/armv7e-m/libgcc.a(_arm_addsubdf3.o)
__aeabi_dsub                                      /nfs/nfs5/home/research/hardware/arm2/gcc-arm-embedded/gcc-arm-none-eabi-4_8-2014q2/bin/../lib/gcc/arm-none-eabi/4.8.4/armv7e-m/libgcc.a(_arm_addsubdf3.o)
                                                  /nfs/nfs5/home/research/hardware/arm2/gcc-arm-embedded/gcc-arm-none-eabi-4_8-2014q2/bin/../lib/gcc/arm-none-eabi/4.8.4/../../../../arm-none-eabi/lib/armv7e-m/libg.a(lib_a-dtoa.o)
__aeabi_f2d                                       /nfs/nfs5/home/research/hardware/arm2/gcc-arm-embedded/gcc-arm-none-eabi-4_8-2014q2/bin/../lib/gcc/arm-none-eabi/4.8.4/armv7e-m/libgcc.a(_arm_addsubdf3.o)
__aeabi_i2d                                       /nfs/nfs5/home/research/hardware/arm2/gcc-arm-embedded/gcc-arm-none-eabi-4_8-2014q2/bin/../lib/gcc/arm-none-eabi/4.8.4/armv7e-m/libgcc.a(_arm_addsubdf3.o)
                                                  /nfs/nfs5/home/research/hardware/arm2/gcc-arm-embedded/gcc-arm-none-eabi-4_8-2014q2/bin/../lib/gcc/arm-none-eabi/4.8.4/../../../../arm-none-eabi/lib/armv7e-m/libg.a(lib_a-dtoa.o)
__aeabi_idiv0                                     /nfs/nfs5/home/research/hardware/arm2/gcc-arm-embedded/gcc-arm-none-eabi-4_8-2014q2/bin/../lib/gcc/arm-none-eabi/4.8.4/armv7e-m/libgcc.a(_dvmd_tls.o)
__aeabi_l2d                                       /nfs/nfs5/home/research/hardware/arm2/gcc-arm-embedded/gcc-arm-none-eabi-4_8-2014q2/bin/../lib/gcc/arm-none-eabi/4.8.4/armv7e-m/libgcc.a(_arm_addsubdf3.o)
__aeabi_ldiv0                                     /nfs/nfs5/home/research/hardware/arm2/gcc-arm-embedded/gcc-arm-none-eabi-4_8-2014q2/bin/../lib/gcc/arm-none-eabi/4.8.4/armv7e-m/libgcc.a(_dvmd_tls.o)
                                                  /nfs/nfs5/home/research/hardware/arm2/gcc-arm-embedded/gcc-arm-none-eabi-4_8-2014q2/bin/../lib/gcc/arm-none-eabi/4.8.4/armv7e-m/libgcc.a(_aeabi_uldivmod.o)
__aeabi_ui2d                                      /nfs/nfs5/home/research/hardware/arm2/gcc-arm-embedded/gcc-arm-none-eabi-4_8-2014q2/bin/../lib/gcc/arm-none-eabi/4.8.4/armv7e-m/libgcc.a(_arm_addsubdf3.o)
                                                  /nfs/nfs5/home/research/hardware/arm2/gcc-arm-embedded/gcc-arm-none-eabi-4_8-2014q2/bin/../lib/gcc/arm-none-eabi/4.8.4/../../../../arm-none-eabi/lib/armv7e-m/libg.a(lib_a-dtoa.o)
__aeabi_ul2d                                      /nfs/nfs5/home/research/hardware/arm2/gcc-arm-embedded/gcc-arm-none-eabi-4_8-2014q2/bin/../lib/gcc/arm-none-eabi/4.8.4/armv7e-m/libgcc.a(_arm_addsubdf3.o)
__aeabi_uldivmod                                  /nfs/nfs5/home/research/hardware/arm2/gcc-arm-embedded/gcc-arm-none-eabi-4_8-2014q2/bin/../lib/gcc/arm-none-eabi/4.8.4/armv7e-m/libgcc.a(_aeabi_uldivmod.o)
                                                  /nfs/nfs5/home/research/hardware/arm2/gcc-arm-embedded/gcc-arm-none-eabi-4_8-2014q2/bin/../lib/gcc/arm-none-eabi/4.8.4/../../../../arm-none-eabi/lib/armv7e-m/libg.a(lib_a-svfiprintf.o)
                                                  /nfs/nfs5/home/research/hardware/arm2/gcc-arm-embedded/gcc-arm-none-eabi-4_8-2014q2/bin/../lib/gcc/arm-none-eabi/4.8.4/../../../../arm-none-eabi/lib/armv7e-m/libg.a(lib_a-svfprintf.o)
__any_on                                          /nfs/nfs5/home/research/hardware/arm2/gcc-arm-embedded/gcc-arm-none-eabi-4_8-2014q2/bin/../lib/gcc/arm-none-eabi/4.8.4/../../../../arm-none-eabi/lib/armv7e-m/libg.a(lib_a-mprec.o)
__b2d                                             /nfs/nfs5/home/research/hardware/arm2/gcc-arm-embedded/gcc-arm-none-eabi-4_8-2014q2/bin/../lib/gcc/arm-none-eabi/4.8.4/../../../../arm-none-eabi/lib/armv7e-m/libg.a(lib_a-mprec.o)
__cmpdf2                                          /nfs/nfs5/home/research/hardware/arm2/gcc-arm-embedded/gcc-arm-none-eabi-4_8-2014q2/bin/../lib/gcc/arm-none-eabi/4.8.4/armv7e-m/libgcc.a(_arm_cmpdf2.o)
__copybits                                        /nfs/nfs5/home/research/hardware/arm2/gcc-arm-embedded/gcc-arm-none-eabi-4_8-2014q2/bin/../lib/gcc/arm-none-eabi/4.8.4/../../../../arm-none-eabi/lib/armv7e-m/libg.a(lib_a-mprec.o)
__core_init                                       build/obj/crt1.o
                                                  build/obj/crt0_v7m.o
__d2b                                             /nfs/nfs5/home/research/hardware/arm2/gcc-arm-embedded/gcc-arm-none-eabi-4_8-2014q2/bin/../lib/gcc/arm-none-eabi/4.8.4/../../../../arm-none-eabi/lib/armv7e-m/libg.a(lib_a-mprec.o)
                                                  /nfs/nfs5/home/research/hardware/arm2/gcc-arm-embedded/gcc-arm-none-eabi-4_8-2014q2/bin/../lib/gcc/arm-none-eabi/4.8.4/../../../../arm-none-eabi/lib/armv7e-m/libg.a(lib_a-dtoa.o)
__default_exit                                    build/obj/crt1.o
                                                  build/obj/crt0_v7m.o
__divdf3                                          /nfs/nfs5/home/research/hardware/arm2/gcc-arm-embedded/gcc-arm-none-eabi-4_8-2014q2/bin/../lib/gcc/arm-none-eabi/4.8.4/armv7e-m/libgcc.a(_arm_muldivdf3.o)
__divdi3                                          /nfs/nfs5/home/research/hardware/arm2/gcc-arm-embedded/gcc-arm-none-eabi-4_8-2014q2/bin/../lib/gcc/arm-none-eabi/4.8.4/armv7e-m/libgcc.a(_divdi3.o)
                                                  /nfs/nfs5/home/research/hardware/arm2/gcc-arm-embedded/gcc-arm-none-eabi-4_8-2014q2/bin/../lib/gcc/arm-none-eabi/4.8.4/armv7e-m/libgcc.a(bpabi.o)
__early_init                                      build/obj/board.o
                                                  build/obj/crt1.o
                                                  build/obj/crt0_v7m.o
__eqdf2                                           /nfs/nfs5/home/research/hardware/arm2/gcc-arm-embedded/gcc-arm-none-eabi-4_8-2014q2/bin/../lib/gcc/arm-none-eabi/4.8.4/armv7e-m/libgcc.a(_arm_cmpdf2.o)
__extendsfdf2                                     /nfs/nfs5/home/research/hardware/arm2/gcc-arm-embedded/gcc-arm-none-eabi-4_8-2014q2/bin/../lib/gcc/arm-none-eabi/4.8.4/armv7e-m/libgcc.a(_arm_addsubdf3.o)
__fini_array_end                                  build/obj/crt0_v7m.o
__fini_array_start                                build/obj/crt0_v7m.o
__fixdfsi                                         /nfs/nfs5/home/research/hardware/arm2/gcc-arm-embedded/gcc-arm-none-eabi-4_8-2014q2/bin/../lib/gcc/arm-none-eabi/4.8.4/armv7e-m/libgcc.a(_arm_fixdfsi.o)
__floatdidf                                       /nfs/nfs5/home/research/hardware/arm2/gcc-arm-embedded/gcc-arm-none-eabi-4_8-2014q2/bin/../lib/gcc/arm-none-eabi/4.8.4/armv7e-m/libgcc.a(_arm_addsubdf3.o)
__floatsidf                                       /nfs/nfs5/home/research/hardware/arm2/gcc-arm-embedded/gcc-arm-none-eabi-4_8-2014q2/bin/../lib/gcc/arm-none-eabi/4.8.4/armv7e-m/libgcc.a(_arm_addsubdf3.o)
__floatundidf                                     /nfs/nfs5/home/research/hardware/arm2/gcc-arm-embedded/gcc-arm-none-eabi-4_8-2014q2/bin/../lib/gcc/arm-none-eabi/4.8.4/armv7e-m/libgcc.a(_arm_addsubdf3.o)
__floatunsidf                                     /nfs/nfs5/home/research/hardware/arm2/gcc-arm-embedded/gcc-arm-none-eabi-4_8-2014q2/bin/../lib/gcc/arm-none-eabi/4.8.4/armv7e-m/libgcc.a(_arm_addsubdf3.o)
__fpclassifyd                                     /nfs/nfs5/home/research/hardware/arm2/gcc-arm-embedded/gcc-arm-none-eabi-4_8-2014q2/bin/../lib/gcc/arm-none-eabi/4.8.4/../../../../arm-none-eabi/lib/armv7e-m/libg.a(lib_a-s_fpclassify.o)
                                                  /nfs/nfs5/home/research/hardware/arm2/gcc-arm-embedded/gcc-arm-none-eabi-4_8-2014q2/bin/../lib/gcc/arm-none-eabi/4.8.4/../../../../arm-none-eabi/lib/armv7e-m/libg.a(lib_a-svfprintf.o)
__gedf2                                           /nfs/nfs5/home/research/hardware/arm2/gcc-arm-embedded/gcc-arm-none-eabi-4_8-2014q2/bin/../lib/gcc/arm-none-eabi/4.8.4/armv7e-m/libgcc.a(_arm_cmpdf2.o)
__gnu_ldivmod_helper                              /nfs/nfs5/home/research/hardware/arm2/gcc-arm-embedded/gcc-arm-none-eabi-4_8-2014q2/bin/../lib/gcc/arm-none-eabi/4.8.4/armv7e-m/libgcc.a(bpabi.o)
__gnu_uldivmod_helper                             /nfs/nfs5/home/research/hardware/arm2/gcc-arm-embedded/gcc-arm-none-eabi-4_8-2014q2/bin/../lib/gcc/arm-none-eabi/4.8.4/armv7e-m/libgcc.a(bpabi.o)
                                                  /nfs/nfs5/home/research/hardware/arm2/gcc-arm-embedded/gcc-arm-none-eabi-4_8-2014q2/bin/../lib/gcc/arm-none-eabi/4.8.4/armv7e-m/libgcc.a(_aeabi_uldivmod.o)
__gtdf2                                           /nfs/nfs5/home/research/hardware/arm2/gcc-arm-embedded/gcc-arm-none-eabi-4_8-2014q2/bin/../lib/gcc/arm-none-eabi/4.8.4/armv7e-m/libgcc.a(_arm_cmpdf2.o)
__heap_base__                                     build/obj/chmemcore.o
__heap_end__                                      build/obj/chmemcore.o
__hi0bits                                         /nfs/nfs5/home/research/hardware/arm2/gcc-arm-embedded/gcc-arm-none-eabi-4_8-2014q2/bin/../lib/gcc/arm-none-eabi/4.8.4/../../../../arm-none-eabi/lib/armv7e-m/libg.a(lib_a-mprec.o)
                                                  /nfs/nfs5/home/research/hardware/arm2/gcc-arm-embedded/gcc-arm-none-eabi-4_8-2014q2/bin/../lib/gcc/arm-none-eabi/4.8.4/../../../../arm-none-eabi/lib/armv7e-m/libg.a(lib_a-dtoa.o)
__i2b                                             /nfs/nfs5/home/research/hardware/arm2/gcc-arm-embedded/gcc-arm-none-eabi-4_8-2014q2/bin/../lib/gcc/arm-none-eabi/4.8.4/../../../../arm-none-eabi/lib/armv7e-m/libg.a(lib_a-mprec.o)
                                                  /nfs/nfs5/home/research/hardware/arm2/gcc-arm-embedded/gcc-arm-none-eabi-4_8-2014q2/bin/../lib/gcc/arm-none-eabi/4.8.4/../../../../arm-none-eabi/lib/armv7e-m/libg.a(lib_a-dtoa.o)
__init_array_end                                  build/obj/crt0_v7m.o
__init_array_start                                build/obj/crt0_v7m.o
__init_ram_areas                                  build/obj/crt1.o
                                                  build/obj/crt0_v7m.o
__late_init                                       build/obj/crt1.o
                                                  build/obj/crt0_v7m.o
__ledf2                                           /nfs/nfs5/home/research/hardware/arm2/gcc-arm-embedded/gcc-arm-none-eabi-4_8-2014q2/bin/../lib/gcc/arm-none-eabi/4.8.4/armv7e-m/libgcc.a(_arm_cmpdf2.o)
__lo0bits                                         /nfs/nfs5/home/research/hardware/arm2/gcc-arm-embedded/gcc-arm-none-eabi-4_8-2014q2/bin/../lib/gcc/arm-none-eabi/4.8.4/../../../../arm-none-eabi/lib/armv7e-m/libg.a(lib_a-mprec.o)
__locale_charset                                  /nfs/nfs5/home/research/hardware/arm2/gcc-arm-embedded/gcc-arm-none-eabi-4_8-2014q2/bin/../lib/gcc/arm-none-eabi/4.8.4/../../../../arm-none-eabi/lib/armv7e-m/libg.a(lib_a-locale.o)
__locale_cjk_lang                                 /nfs/nfs5/home/research/hardware/arm2/gcc-arm-embedded/gcc-arm-none-eabi-4_8-2014q2/bin/../lib/gcc/arm-none-eabi/4.8.4/../../../../arm-none-eabi/lib/armv7e-m/libg.a(lib_a-locale.o)
__locale_mb_cur_max                               /nfs/nfs5/home/research/hardware/arm2/gcc-arm-embedded/gcc-arm-none-eabi-4_8-2014q2/bin/../lib/gcc/arm-none-eabi/4.8.4/../../../../arm-none-eabi/lib/armv7e-m/libg.a(lib_a-locale.o)
__locale_msgcharset                               /nfs/nfs5/home/research/hardware/arm2/gcc-arm-embedded/gcc-arm-none-eabi-4_8-2014q2/bin/../lib/gcc/arm-none-eabi/4.8.4/../../../../arm-none-eabi/lib/armv7e-m/libg.a(lib_a-locale.o)
__lshift                                          /nfs/nfs5/home/research/hardware/arm2/gcc-arm-embedded/gcc-arm-none-eabi-4_8-2014q2/bin/../lib/gcc/arm-none-eabi/4.8.4/../../../../arm-none-eabi/lib/armv7e-m/libg.a(lib_a-mprec.o)
                                                  /nfs/nfs5/home/research/hardware/arm2/gcc-arm-embedded/gcc-arm-none-eabi-4_8-2014q2/bin/../lib/gcc/arm-none-eabi/4.8.4/../../../../arm-none-eabi/lib/armv7e-m/libg.a(lib_a-dtoa.o)
__ltdf2                                           /nfs/nfs5/home/research/hardware/arm2/gcc-arm-embedded/gcc-arm-none-eabi-4_8-2014q2/bin/../lib/gcc/arm-none-eabi/4.8.4/armv7e-m/libgcc.a(_arm_cmpdf2.o)
__main_stack_base__                               build/obj/crt0_v7m.o
__main_stack_end__                                build/obj/vectors.o
                                                  build/obj/crt0_v7m.o
__malloc_av_                                      /nfs/nfs5/home/research/hardware/arm2/gcc-arm-embedded/gcc-arm-none-eabi-4_8-2014q2/bin/../lib/gcc/arm-none-eabi/4.8.4/../../../../arm-none-eabi/lib/armv7e-m/libg.a(lib_a-mallocr.o)
                                                  /nfs/nfs5/home/research/hardware/arm2/gcc-arm-embedded/gcc-arm-none-eabi-4_8-2014q2/bin/../lib/gcc/arm-none-eabi/4.8.4/../../../../arm-none-eabi/lib/armv7e-m/libg.a(lib_a-reallocr.o)
                                                  /nfs/nfs5/home/research/hardware/arm2/gcc-arm-embedded/gcc-arm-none-eabi-4_8-2014q2/bin/../lib/gcc/arm-none-eabi/4.8.4/../../../../arm-none-eabi/lib/armv7e-m/libg.a(lib_a-freer.o)
__malloc_current_mallinfo                         /nfs/nfs5/home/research/hardware/arm2/gcc-arm-embedded/gcc-arm-none-eabi-4_8-2014q2/bin/../lib/gcc/arm-none-eabi/4.8.4/../../../../arm-none-eabi/lib/armv7e-m/libg.a(lib_a-mallocr.o)
                                                  /nfs/nfs5/home/research/hardware/arm2/gcc-arm-embedded/gcc-arm-none-eabi-4_8-2014q2/bin/../lib/gcc/arm-none-eabi/4.8.4/../../../../arm-none-eabi/lib/armv7e-m/libg.a(lib_a-freer.o)
__malloc_lock                                     /nfs/nfs5/home/research/hardware/arm2/gcc-arm-embedded/gcc-arm-none-eabi-4_8-2014q2/bin/../lib/gcc/arm-none-eabi/4.8.4/../../../../arm-none-eabi/lib/armv7e-m/libg.a(lib_a-mlock.o)
                                                  /nfs/nfs5/home/research/hardware/arm2/gcc-arm-embedded/gcc-arm-none-eabi-4_8-2014q2/bin/../lib/gcc/arm-none-eabi/4.8.4/../../../../arm-none-eabi/lib/armv7e-m/libg.a(lib_a-reallocr.o)
                                                  /nfs/nfs5/home/research/hardware/arm2/gcc-arm-embedded/gcc-arm-none-eabi-4_8-2014q2/bin/../lib/gcc/arm-none-eabi/4.8.4/../../../../arm-none-eabi/lib/armv7e-m/libg.a(lib_a-freer.o)
                                                  /nfs/nfs5/home/research/hardware/arm2/gcc-arm-embedded/gcc-arm-none-eabi-4_8-2014q2/bin/../lib/gcc/arm-none-eabi/4.8.4/../../../../arm-none-eabi/lib/armv7e-m/libg.a(lib_a-mallocr.o)
__malloc_max_sbrked_mem                           /nfs/nfs5/home/research/hardware/arm2/gcc-arm-embedded/gcc-arm-none-eabi-4_8-2014q2/bin/../lib/gcc/arm-none-eabi/4.8.4/../../../../arm-none-eabi/lib/armv7e-m/libg.a(lib_a-mallocr.o)
__malloc_max_total_mem                            /nfs/nfs5/home/research/hardware/arm2/gcc-arm-embedded/gcc-arm-none-eabi-4_8-2014q2/bin/../lib/gcc/arm-none-eabi/4.8.4/../../../../arm-none-eabi/lib/armv7e-m/libg.a(lib_a-mallocr.o)
__malloc_sbrk_base                                /nfs/nfs5/home/research/hardware/arm2/gcc-arm-embedded/gcc-arm-none-eabi-4_8-2014q2/bin/../lib/gcc/arm-none-eabi/4.8.4/../../../../arm-none-eabi/lib/armv7e-m/libg.a(lib_a-mallocr.o)
                                                  /nfs/nfs5/home/research/hardware/arm2/gcc-arm-embedded/gcc-arm-none-eabi-4_8-2014q2/bin/../lib/gcc/arm-none-eabi/4.8.4/../../../../arm-none-eabi/lib/armv7e-m/libg.a(lib_a-freer.o)
__malloc_top_pad                                  /nfs/nfs5/home/research/hardware/arm2/gcc-arm-embedded/gcc-arm-none-eabi-4_8-2014q2/bin/../lib/gcc/arm-none-eabi/4.8.4/../../../../arm-none-eabi/lib/armv7e-m/libg.a(lib_a-mallocr.o)
                                                  /nfs/nfs5/home/research/hardware/arm2/gcc-arm-embedded/gcc-arm-none-eabi-4_8-2014q2/bin/../lib/gcc/arm-none-eabi/4.8.4/../../../../arm-none-eabi/lib/armv7e-m/libg.a(lib_a-freer.o)
__malloc_trim_threshold                           /nfs/nfs5/home/research/hardware/arm2/gcc-arm-embedded/gcc-arm-none-eabi-4_8-2014q2/bin/../lib/gcc/arm-none-eabi/4.8.4/../../../../arm-none-eabi/lib/armv7e-m/libg.a(lib_a-mallocr.o)
                                                  /nfs/nfs5/home/research/hardware/arm2/gcc-arm-embedded/gcc-arm-none-eabi-4_8-2014q2/bin/../lib/gcc/arm-none-eabi/4.8.4/../../../../arm-none-eabi/lib/armv7e-m/libg.a(lib_a-freer.o)
__malloc_unlock                                   /nfs/nfs5/home/research/hardware/arm2/gcc-arm-embedded/gcc-arm-none-eabi-4_8-2014q2/bin/../lib/gcc/arm-none-eabi/4.8.4/../../../../arm-none-eabi/lib/armv7e-m/libg.a(lib_a-mlock.o)
                                                  /nfs/nfs5/home/research/hardware/arm2/gcc-arm-embedded/gcc-arm-none-eabi-4_8-2014q2/bin/../lib/gcc/arm-none-eabi/4.8.4/../../../../arm-none-eabi/lib/armv7e-m/libg.a(lib_a-reallocr.o)
                                                  /nfs/nfs5/home/research/hardware/arm2/gcc-arm-embedded/gcc-arm-none-eabi-4_8-2014q2/bin/../lib/gcc/arm-none-eabi/4.8.4/../../../../arm-none-eabi/lib/armv7e-m/libg.a(lib_a-freer.o)
                                                  /nfs/nfs5/home/research/hardware/arm2/gcc-arm-embedded/gcc-arm-none-eabi-4_8-2014q2/bin/../lib/gcc/arm-none-eabi/4.8.4/../../../../arm-none-eabi/lib/armv7e-m/libg.a(lib_a-mallocr.o)
__mb_cur_max                                      /nfs/nfs5/home/research/hardware/arm2/gcc-arm-embedded/gcc-arm-none-eabi-4_8-2014q2/bin/../lib/gcc/arm-none-eabi/4.8.4/../../../../arm-none-eabi/lib/armv7e-m/libg.a(lib_a-locale.o)
__mcmp                                            /nfs/nfs5/home/research/hardware/arm2/gcc-arm-embedded/gcc-arm-none-eabi-4_8-2014q2/bin/../lib/gcc/arm-none-eabi/4.8.4/../../../../arm-none-eabi/lib/armv7e-m/libg.a(lib_a-mprec.o)
                                                  /nfs/nfs5/home/research/hardware/arm2/gcc-arm-embedded/gcc-arm-none-eabi-4_8-2014q2/bin/../lib/gcc/arm-none-eabi/4.8.4/../../../../arm-none-eabi/lib/armv7e-m/libg.a(lib_a-dtoa.o)
__mdiff                                           /nfs/nfs5/home/research/hardware/arm2/gcc-arm-embedded/gcc-arm-none-eabi-4_8-2014q2/bin/../lib/gcc/arm-none-eabi/4.8.4/../../../../arm-none-eabi/lib/armv7e-m/libg.a(lib_a-mprec.o)
                                                  /nfs/nfs5/home/research/hardware/arm2/gcc-arm-embedded/gcc-arm-none-eabi-4_8-2014q2/bin/../lib/gcc/arm-none-eabi/4.8.4/../../../../arm-none-eabi/lib/armv7e-m/libg.a(lib_a-dtoa.o)
__mlocale_changed                                 /nfs/nfs5/home/research/hardware/arm2/gcc-arm-embedded/gcc-arm-none-eabi-4_8-2014q2/bin/../lib/gcc/arm-none-eabi/4.8.4/../../../../arm-none-eabi/lib/armv7e-m/libg.a(lib_a-locale.o)
__mprec_bigtens                                   /nfs/nfs5/home/research/hardware/arm2/gcc-arm-embedded/gcc-arm-none-eabi-4_8-2014q2/bin/../lib/gcc/arm-none-eabi/4.8.4/../../../../arm-none-eabi/lib/armv7e-m/libg.a(lib_a-mprec.o)
                                                  /nfs/nfs5/home/research/hardware/arm2/gcc-arm-embedded/gcc-arm-none-eabi-4_8-2014q2/bin/../lib/gcc/arm-none-eabi/4.8.4/../../../../arm-none-eabi/lib/armv7e-m/libg.a(lib_a-dtoa.o)
__mprec_tens                                      /nfs/nfs5/home/research/hardware/arm2/gcc-arm-embedded/gcc-arm-none-eabi-4_8-2014q2/bin/../lib/gcc/arm-none-eabi/4.8.4/../../../../arm-none-eabi/lib/armv7e-m/libg.a(lib_a-mprec.o)
                                                  /nfs/nfs5/home/research/hardware/arm2/gcc-arm-embedded/gcc-arm-none-eabi-4_8-2014q2/bin/../lib/gcc/arm-none-eabi/4.8.4/../../../../arm-none-eabi/lib/armv7e-m/libg.a(lib_a-dtoa.o)
__mprec_tinytens                                  /nfs/nfs5/home/research/hardware/arm2/gcc-arm-embedded/gcc-arm-none-eabi-4_8-2014q2/bin/../lib/gcc/arm-none-eabi/4.8.4/../../../../arm-none-eabi/lib/armv7e-m/libg.a(lib_a-mprec.o)
__muldf3                                          /nfs/nfs5/home/research/hardware/arm2/gcc-arm-embedded/gcc-arm-none-eabi-4_8-2014q2/bin/../lib/gcc/arm-none-eabi/4.8.4/armv7e-m/libgcc.a(_arm_muldivdf3.o)
__multadd                                         /nfs/nfs5/home/research/hardware/arm2/gcc-arm-embedded/gcc-arm-none-eabi-4_8-2014q2/bin/../lib/gcc/arm-none-eabi/4.8.4/../../../../arm-none-eabi/lib/armv7e-m/libg.a(lib_a-mprec.o)
                                                  /nfs/nfs5/home/research/hardware/arm2/gcc-arm-embedded/gcc-arm-none-eabi-4_8-2014q2/bin/../lib/gcc/arm-none-eabi/4.8.4/../../../../arm-none-eabi/lib/armv7e-m/libg.a(lib_a-dtoa.o)
__multiply                                        /nfs/nfs5/home/research/hardware/arm2/gcc-arm-embedded/gcc-arm-none-eabi-4_8-2014q2/bin/../lib/gcc/arm-none-eabi/4.8.4/../../../../arm-none-eabi/lib/armv7e-m/libg.a(lib_a-mprec.o)
                                                  /nfs/nfs5/home/research/hardware/arm2/gcc-arm-embedded/gcc-arm-none-eabi-4_8-2014q2/bin/../lib/gcc/arm-none-eabi/4.8.4/../../../../arm-none-eabi/lib/armv7e-m/libg.a(lib_a-dtoa.o)
__nedf2                                           /nfs/nfs5/home/research/hardware/arm2/gcc-arm-embedded/gcc-arm-none-eabi-4_8-2014q2/bin/../lib/gcc/arm-none-eabi/4.8.4/armv7e-m/libgcc.a(_arm_cmpdf2.o)
__nlocale_changed                                 /nfs/nfs5/home/research/hardware/arm2/gcc-arm-embedded/gcc-arm-none-eabi-4_8-2014q2/bin/../lib/gcc/arm-none-eabi/4.8.4/../../../../arm-none-eabi/lib/armv7e-m/libg.a(lib_a-locale.o)
__pow5mult                                        /nfs/nfs5/home/research/hardware/arm2/gcc-arm-embedded/gcc-arm-none-eabi-4_8-2014q2/bin/../lib/gcc/arm-none-eabi/4.8.4/../../../../arm-none-eabi/lib/armv7e-m/libg.a(lib_a-mprec.o)
                                                  /nfs/nfs5/home/research/hardware/arm2/gcc-arm-embedded/gcc-arm-none-eabi-4_8-2014q2/bin/../lib/gcc/arm-none-eabi/4.8.4/../../../../arm-none-eabi/lib/armv7e-m/libg.a(lib_a-dtoa.o)
__process_stack_base__                            build/obj/crt0_v7m.o
__process_stack_end__                             build/obj/crt0_v7m.o
__ram0_clear__                                    build/obj/crt1.o
__ram0_init__                                     build/obj/crt1.o
__ram0_init_text__                                build/obj/crt1.o
__ram0_noinit__                                   build/obj/crt1.o
__ram1_clear__                                    build/obj/crt1.o
__ram1_init__                                     build/obj/crt1.o
__ram1_init_text__                                build/obj/crt1.o
__ram1_noinit__                                   build/obj/crt1.o
__ram2_clear__                                    build/obj/crt1.o
__ram2_init__                                     build/obj/crt1.o
__ram2_init_text__                                build/obj/crt1.o
__ram2_noinit__                                   build/obj/crt1.o
__ram3_clear__                                    build/obj/crt1.o
__ram3_init__                                     build/obj/crt1.o
__ram3_init_text__                                build/obj/crt1.o
__ram3_noinit__                                   build/obj/crt1.o
__ram4_clear__                                    build/obj/crt1.o
__ram4_init__                                     build/obj/crt1.o
__ram4_init_text__                                build/obj/crt1.o
__ram4_noinit__                                   build/obj/crt1.o
__ram5_clear__                                    build/obj/crt1.o
__ram5_init__                                     build/obj/crt1.o
__ram5_init_text__                                build/obj/crt1.o
__ram5_noinit__                                   build/obj/crt1.o
__ram6_clear__                                    build/obj/crt1.o
__ram6_init__                                     build/obj/crt1.o
__ram6_init_text__                                build/obj/crt1.o
__ram6_noinit__                                   build/obj/crt1.o
__ram7_clear__                                    build/obj/crt1.o
__ram7_init__                                     build/obj/crt1.o
__ram7_init_text__                                build/obj/crt1.o
__ram7_noinit__                                   build/obj/crt1.o
__ratio                                           /nfs/nfs5/home/research/hardware/arm2/gcc-arm-embedded/gcc-arm-none-eabi-4_8-2014q2/bin/../lib/gcc/arm-none-eabi/4.8.4/../../../../arm-none-eabi/lib/armv7e-m/libg.a(lib_a-mprec.o)
__s2b                                             /nfs/nfs5/home/research/hardware/arm2/gcc-arm-embedded/gcc-arm-none-eabi-4_8-2014q2/bin/../lib/gcc/arm-none-eabi/4.8.4/../../../../arm-none-eabi/lib/armv7e-m/libg.a(lib_a-mprec.o)
__ssprint_r                                       /nfs/nfs5/home/research/hardware/arm2/gcc-arm-embedded/gcc-arm-none-eabi-4_8-2014q2/bin/../lib/gcc/arm-none-eabi/4.8.4/../../../../arm-none-eabi/lib/armv7e-m/libg.a(lib_a-svfiprintf.o)
                                                  /nfs/nfs5/home/research/hardware/arm2/gcc-arm-embedded/gcc-arm-none-eabi-4_8-2014q2/bin/../lib/gcc/arm-none-eabi/4.8.4/../../../../arm-none-eabi/lib/armv7e-m/libg.a(lib_a-svfprintf.o)
__subdf3                                          /nfs/nfs5/home/research/hardware/arm2/gcc-arm-embedded/gcc-arm-none-eabi-4_8-2014q2/bin/../lib/gcc/arm-none-eabi/4.8.4/armv7e-m/libgcc.a(_arm_addsubdf3.o)
__udivdi3                                         /nfs/nfs5/home/research/hardware/arm2/gcc-arm-embedded/gcc-arm-none-eabi-4_8-2014q2/bin/../lib/gcc/arm-none-eabi/4.8.4/armv7e-m/libgcc.a(_udivdi3.o)
                                                  /nfs/nfs5/home/research/hardware/arm2/gcc-arm-embedded/gcc-arm-none-eabi-4_8-2014q2/bin/../lib/gcc/arm-none-eabi/4.8.4/armv7e-m/libgcc.a(bpabi.o)
__ulp                                             /nfs/nfs5/home/research/hardware/arm2/gcc-arm-embedded/gcc-arm-none-eabi-4_8-2014q2/bin/../lib/gcc/arm-none-eabi/4.8.4/../../../../arm-none-eabi/lib/armv7e-m/libg.a(lib_a-mprec.o)
_bss_end                                          build/obj/crt0_v7m.o
_bss_start                                        build/obj/crt0_v7m.o
_calloc_r                                         /nfs/nfs5/home/research/hardware/arm2/gcc-arm-embedded/gcc-arm-none-eabi-4_8-2014q2/bin/../lib/gcc/arm-none-eabi/4.8.4/../../../../arm-none-eabi/lib/armv7e-m/libg.a(lib_a-callocr.o)
                                                  /nfs/nfs5/home/research/hardware/arm2/gcc-arm-embedded/gcc-arm-none-eabi-4_8-2014q2/bin/../lib/gcc/arm-none-eabi/4.8.4/../../../../arm-none-eabi/lib/armv7e-m/libg.a(lib_a-mprec.o)
_close_r                                          build/obj/syscalls.o
_core_init                                        build/obj/chmemcore.o
                                                  build/obj/chsys.o
_data_end                                         build/obj/crt0_v7m.o
_data_start                                       build/obj/crt0_v7m.o
_dtoa_r                                           /nfs/nfs5/home/research/hardware/arm2/gcc-arm-embedded/gcc-arm-none-eabi-4_8-2014q2/bin/../lib/gcc/arm-none-eabi/4.8.4/../../../../arm-none-eabi/lib/armv7e-m/libg.a(lib_a-dtoa.o)
                                                  /nfs/nfs5/home/research/hardware/arm2/gcc-arm-embedded/gcc-arm-none-eabi-4_8-2014q2/bin/../lib/gcc/arm-none-eabi/4.8.4/../../../../arm-none-eabi/lib/armv7e-m/libg.a(lib_a-svfprintf.o)
_free_r                                           /nfs/nfs5/home/research/hardware/arm2/gcc-arm-embedded/gcc-arm-none-eabi-4_8-2014q2/bin/../lib/gcc/arm-none-eabi/4.8.4/../../../../arm-none-eabi/lib/armv7e-m/libg.a(lib_a-freer.o)
                                                  /nfs/nfs5/home/research/hardware/arm2/gcc-arm-embedded/gcc-arm-none-eabi-4_8-2014q2/bin/../lib/gcc/arm-none-eabi/4.8.4/../../../../arm-none-eabi/lib/armv7e-m/libg.a(lib_a-reallocr.o)
                                                  /nfs/nfs5/home/research/hardware/arm2/gcc-arm-embedded/gcc-arm-none-eabi-4_8-2014q2/bin/../lib/gcc/arm-none-eabi/4.8.4/../../../../arm-none-eabi/lib/armv7e-m/libg.a(lib_a-svfiprintf.o)
                                                  /nfs/nfs5/home/research/hardware/arm2/gcc-arm-embedded/gcc-arm-none-eabi-4_8-2014q2/bin/../lib/gcc/arm-none-eabi/4.8.4/../../../../arm-none-eabi/lib/armv7e-m/libg.a(lib_a-mallocr.o)
_fstat_r                                          build/obj/syscalls.o
_global_impure_ptr                                /nfs/nfs5/home/research/hardware/arm2/gcc-arm-embedded/gcc-arm-none-eabi-4_8-2014q2/bin/../lib/gcc/arm-none-eabi/4.8.4/../../../../arm-none-eabi/lib/armv7e-m/libg.a(lib_a-impure.o)
_heap_init                                        build/obj/chheap.o
                                                  build/obj/chsys.o
_impure_ptr                                       /nfs/nfs5/home/research/hardware/arm2/gcc-arm-embedded/gcc-arm-none-eabi-4_8-2014q2/bin/../lib/gcc/arm-none-eabi/4.8.4/../../../../arm-none-eabi/lib/armv7e-m/libg.a(lib_a-impure.o)
                                                  /nfs/nfs5/home/research/hardware/arm2/gcc-arm-embedded/gcc-arm-none-eabi-4_8-2014q2/bin/../lib/gcc/arm-none-eabi/4.8.4/../../../../arm-none-eabi/lib/armv7e-m/libg.a(lib_a-locale.o)
                                                  /nfs/nfs5/home/research/hardware/arm2/gcc-arm-embedded/gcc-arm-none-eabi-4_8-2014q2/bin/../lib/gcc/arm-none-eabi/4.8.4/../../../../arm-none-eabi/lib/armv7e-m/libg.a(lib_a-sprintf.o)
_isatty_r                                         build/obj/syscalls.o
_localeconv_r                                     /nfs/nfs5/home/research/hardware/arm2/gcc-arm-embedded/gcc-arm-none-eabi-4_8-2014q2/bin/../lib/gcc/arm-none-eabi/4.8.4/../../../../arm-none-eabi/lib/armv7e-m/libg.a(lib_a-locale.o)
                                                  /nfs/nfs5/home/research/hardware/arm2/gcc-arm-embedded/gcc-arm-none-eabi-4_8-2014q2/bin/../lib/gcc/arm-none-eabi/4.8.4/../../../../arm-none-eabi/lib/armv7e-m/libg.a(lib_a-svfprintf.o)
_lseek_r                                          build/obj/syscalls.o
_malloc_r                                         /nfs/nfs5/home/research/hardware/arm2/gcc-arm-embedded/gcc-arm-none-eabi-4_8-2014q2/bin/../lib/gcc/arm-none-eabi/4.8.4/../../../../arm-none-eabi/lib/armv7e-m/libg.a(lib_a-mallocr.o)
                                                  /nfs/nfs5/home/research/hardware/arm2/gcc-arm-embedded/gcc-arm-none-eabi-4_8-2014q2/bin/../lib/gcc/arm-none-eabi/4.8.4/../../../../arm-none-eabi/lib/armv7e-m/libg.a(lib_a-reallocr.o)
                                                  /nfs/nfs5/home/research/hardware/arm2/gcc-arm-embedded/gcc-arm-none-eabi-4_8-2014q2/bin/../lib/gcc/arm-none-eabi/4.8.4/../../../../arm-none-eabi/lib/armv7e-m/libg.a(lib_a-callocr.o)
                                                  /nfs/nfs5/home/research/hardware/arm2/gcc-arm-embedded/gcc-arm-none-eabi-4_8-2014q2/bin/../lib/gcc/arm-none-eabi/4.8.4/../../../../arm-none-eabi/lib/armv7e-m/libg.a(lib_a-svfiprintf.o)
                                                  /nfs/nfs5/home/research/hardware/arm2/gcc-arm-embedded/gcc-arm-none-eabi-4_8-2014q2/bin/../lib/gcc/arm-none-eabi/4.8.4/../../../../arm-none-eabi/lib/armv7e-m/libg.a(lib_a-svfprintf.o)
_malloc_trim_r                                    /nfs/nfs5/home/research/hardware/arm2/gcc-arm-embedded/gcc-arm-none-eabi-4_8-2014q2/bin/../lib/gcc/arm-none-eabi/4.8.4/../../../../arm-none-eabi/lib/armv7e-m/libg.a(lib_a-freer.o)
_mmcsd_get_capacity                               build/obj/hal_mmcsd.o
                                                  build/obj/mmc_spi.o
_mmcsd_get_capacity_ext                           build/obj/hal_mmcsd.o
_mmcsd_get_slice                                  build/obj/hal_mmcsd.o
_mmcsd_unpack_csd_mmc                             build/obj/hal_mmcsd.o
_mmcsd_unpack_csd_v10                             build/obj/hal_mmcsd.o
_mmcsd_unpack_csd_v20                             build/obj/hal_mmcsd.o
_mmcsd_unpack_mmc_cid                             build/obj/hal_mmcsd.o
_mmcsd_unpack_sdc_cid                             build/obj/hal_mmcsd.o
_mprec_log10                                      /nfs/nfs5/home/research/hardware/arm2/gcc-arm-embedded/gcc-arm-none-eabi-4_8-2014q2/bin/../lib/gcc/arm-none-eabi/4.8.4/../../../../arm-none-eabi/lib/armv7e-m/libg.a(lib_a-mprec.o)
_pal_lld_init                                     build/obj/pal_lld.o
                                                  build/obj/hal.o
_pal_lld_setgroupmode                             build/obj/pal_lld.o
                                                  build/obj/main.o
                                                  build/obj/pal.o
_port_exit_from_isr                               build/obj/chcoreasm_v7m.o
                                                  build/obj/chcore_v7m.o
_port_irq_epilogue                                build/obj/chcore_v7m.o
                                                  build/obj/serial_lld.o
                                                  build/obj/gpt_lld.o
                                                  build/obj/adc_lld.o
                                                  build/obj/st_lld.o
                                                  build/obj/stm32_dma.o
_port_switch                                      build/obj/chcoreasm_v7m.o
                                                  build/obj/chschd.o
_port_switch_from_isr                             build/obj/chcoreasm_v7m.o
                                                  build/obj/chcore_v7m.o
_port_thread_start                                build/obj/chcoreasm_v7m.o
                                                  build/obj/chthreads.o
_read_r                                           build/obj/syscalls.o
_realloc_r                                        /nfs/nfs5/home/research/hardware/arm2/gcc-arm-embedded/gcc-arm-none-eabi-4_8-2014q2/bin/../lib/gcc/arm-none-eabi/4.8.4/../../../../arm-none-eabi/lib/armv7e-m/libg.a(lib_a-reallocr.o)
                                                  /nfs/nfs5/home/research/hardware/arm2/gcc-arm-embedded/gcc-arm-none-eabi-4_8-2014q2/bin/../lib/gcc/arm-none-eabi/4.8.4/../../../../arm-none-eabi/lib/armv7e-m/libg.a(lib_a-svfiprintf.o)
_sbrk_r                                           build/obj/syscalls.o
                                                  /nfs/nfs5/home/research/hardware/arm2/gcc-arm-embedded/gcc-arm-none-eabi-4_8-2014q2/bin/../lib/gcc/arm-none-eabi/4.8.4/../../../../arm-none-eabi/lib/armv7e-m/libg.a(lib_a-freer.o)
                                                  /nfs/nfs5/home/research/hardware/arm2/gcc-arm-embedded/gcc-arm-none-eabi-4_8-2014q2/bin/../lib/gcc/arm-none-eabi/4.8.4/../../../../arm-none-eabi/lib/armv7e-m/libg.a(lib_a-mallocr.o)
_scheduler_init                                   build/obj/chschd.o
                                                  build/obj/chsys.o
_setlocale_r                                      /nfs/nfs5/home/research/hardware/arm2/gcc-arm-embedded/gcc-arm-none-eabi-4_8-2014q2/bin/../lib/gcc/arm-none-eabi/4.8.4/../../../../arm-none-eabi/lib/armv7e-m/libg.a(lib_a-locale.o)
_sprintf_r                                        /nfs/nfs5/home/research/hardware/arm2/gcc-arm-embedded/gcc-arm-none-eabi-4_8-2014q2/bin/../lib/gcc/arm-none-eabi/4.8.4/../../../../arm-none-eabi/lib/armv7e-m/libg.a(lib_a-sprintf.o)
_stm32_dma_isr_redir                              build/obj/stm32_dma.o
_stm32_dma_streams                                build/obj/stm32_dma.o
                                                  build/obj/spi_lld.o
                                                  build/obj/adc_lld.o
_svfiprintf_r                                     /nfs/nfs5/home/research/hardware/arm2/gcc-arm-embedded/gcc-arm-none-eabi-4_8-2014q2/bin/../lib/gcc/arm-none-eabi/4.8.4/../../../../arm-none-eabi/lib/armv7e-m/libg.a(lib_a-svfiprintf.o)
_svfprintf_r                                      /nfs/nfs5/home/research/hardware/arm2/gcc-arm-embedded/gcc-arm-none-eabi-4_8-2014q2/bin/../lib/gcc/arm-none-eabi/4.8.4/../../../../arm-none-eabi/lib/armv7e-m/libg.a(lib_a-svfprintf.o)
                                                  /nfs/nfs5/home/research/hardware/arm2/gcc-arm-embedded/gcc-arm-none-eabi-4_8-2014q2/bin/../lib/gcc/arm-none-eabi/4.8.4/../../../../arm-none-eabi/lib/armv7e-m/libg.a(lib_a-sprintf.o)
_test_assert                                      build/obj/test.o
                                                  build/obj/testsys.o
                                                  build/obj/testqueues.o
                                                  build/obj/testdyn.o
                                                  build/obj/testpools.o
                                                  build/obj/testheap.o
                                                  build/obj/testevt.o
                                                  build/obj/testmbox.o
                                                  build/obj/testmtx.o
                                                  build/obj/testsem.o
                                                  build/obj/testthd.o
_test_assert_sequence                             build/obj/test.o
                                                  build/obj/testqueues.o
                                                  build/obj/testdyn.o
                                                  build/obj/testevt.o
                                                  build/obj/testmbox.o
                                                  build/obj/testmsg.o
                                                  build/obj/testmtx.o
                                                  build/obj/testsem.o
                                                  build/obj/testthd.o
_test_assert_time_window                          build/obj/test.o
                                                  build/obj/testevt.o
                                                  build/obj/testsem.o
                                                  build/obj/testthd.o
_test_fail                                        build/obj/test.o
_textdata_start                                   build/obj/crt0_v7m.o
_thread_init                                      build/obj/chthreads.o
                                                  build/obj/chsys.o
_tm_init                                          build/obj/chtm.o
                                                  build/obj/chsys.o
_unhandled_exception                              build/obj/vectors.o
_vectors                                          build/obj/vectors.o
_vt_init                                          build/obj/chvt.o
                                                  build/obj/chsys.o
_write_r                                          build/obj/syscalls.o
adcAcquireBus                                     build/obj/adc.o
adcConvert                                        build/obj/adc.o
adcInit                                           build/obj/adc.o
                                                  build/obj/hal.o
adcObjectInit                                     build/obj/adc.o
                                                  build/obj/adc_lld.o
adcReleaseBus                                     build/obj/adc.o
adcSTM32DisableTS                                 build/obj/adc_lld.o
adcSTM32DisableVBAT                               build/obj/adc_lld.o
adcSTM32DisableVREF                               build/obj/adc_lld.o
adcSTM32EnableTS                                  build/obj/adc_lld.o
adcSTM32EnableVBAT                                build/obj/adc_lld.o
adcSTM32EnableVREF                                build/obj/adc_lld.o
adcStart                                          build/obj/adc.o
                                                  build/obj/main.o
adcStartConversion                                build/obj/adc.o
                                                  build/obj/main.o
adcStartConversionI                               build/obj/adc.o
adcStop                                           build/obj/adc.o
adcStopConversion                                 build/obj/adc.o
adcStopConversionI                                build/obj/adc.o
adc_lld_init                                      build/obj/adc_lld.o
                                                  build/obj/adc.o
adc_lld_start                                     build/obj/adc_lld.o
                                                  build/obj/adc.o
adc_lld_start_conversion                          build/obj/adc_lld.o
                                                  build/obj/adc.o
adc_lld_stop                                      build/obj/adc_lld.o
                                                  build/obj/adc.o
adc_lld_stop_conversion                           build/obj/adc_lld.o
                                                  build/obj/adc.o
amperage1                                         build/obj/main.o
amperage2                                         build/obj/main.o
appendToCard                                      build/obj/main.o
arrays_spot                                       build/obj/main.o
arrayuse                                          build/obj/main.o
boardInit                                         build/obj/board.o
                                                  build/obj/hal.o
br                                                build/obj/main.o
buf                                               build/obj/main.o
buff_sem                                          build/obj/main.o
bw                                                build/obj/main.o
ch                                                build/obj/chschd.o
                                                  build/obj/shell.o
                                                  build/obj/testbmk.o
                                                  build/obj/testqueues.o
                                                  build/obj/testdyn.o
                                                  build/obj/testevt.o
                                                  build/obj/testmsg.o
                                                  build/obj/testmtx.o
                                                  build/obj/testsem.o
                                                  build/obj/testthd.o
                                                  build/obj/chmsg.o
                                                  build/obj/chevents.o
                                                  build/obj/chcond.o
                                                  build/obj/chmtx.o
                                                  build/obj/chsem.o
                                                  build/obj/chregistry.o
                                                  build/obj/chtm.o
                                                  build/obj/chthreads.o
                                                  build/obj/chvt.o
                                                  build/obj/chsys.o
chCondBroadcast                                   build/obj/chcond.o
                                                  build/obj/testmtx.o
chCondBroadcastI                                  build/obj/chcond.o
chCondObjectInit                                  build/obj/chcond.o
                                                  build/obj/testmtx.o
chCondSignal                                      build/obj/chcond.o
                                                  build/obj/testmtx.o
chCondSignalI                                     build/obj/chcond.o
                                                  build/obj/testmtx.o
chCondWait                                        build/obj/chcond.o
                                                  build/obj/testmtx.o
chCondWaitS                                       build/obj/chcond.o
chCondWaitTimeout                                 build/obj/chcond.o
                                                  build/obj/testmtx.o
chCondWaitTimeoutS                                build/obj/chcond.o
chCoreAlloc                                       build/obj/chmemcore.o
                                                  build/obj/syscalls.o
                                                  build/obj/chheap.o
chCoreAllocI                                      build/obj/chmemcore.o
chCoreGetStatusX                                  build/obj/chmemcore.o
                                                  build/obj/testheap.o
chEvtAddEvents                                    build/obj/chevents.o
                                                  build/obj/testevt.o
chEvtBroadcastFlags                               build/obj/chevents.o
                                                  build/obj/testevt.o
chEvtBroadcastFlagsI                              build/obj/chevents.o
                                                  build/obj/evtimer.o
                                                  build/obj/shell.o
                                                  build/obj/serial_lld.o
                                                  build/obj/serial.o
chEvtDispatch                                     build/obj/chevents.o
                                                  build/obj/main.o
                                                  build/obj/testevt.o
chEvtGetAndClearEvents                            build/obj/chevents.o
                                                  build/obj/testevt.o
chEvtGetAndClearFlags                             build/obj/chevents.o
chEvtGetAndClearFlagsI                            build/obj/chevents.o
chEvtRegisterMaskWithFlags                        build/obj/chevents.o
                                                  build/obj/testevt.o
chEvtSignal                                       build/obj/chevents.o
                                                  build/obj/testevt.o
chEvtSignalI                                      build/obj/chevents.o
chEvtUnregister                                   build/obj/chevents.o
                                                  build/obj/testevt.o
chEvtWaitAll                                      build/obj/chevents.o
                                                  build/obj/testevt.o
chEvtWaitAllTimeout                               build/obj/chevents.o
                                                  build/obj/testevt.o
chEvtWaitAny                                      build/obj/chevents.o
                                                  build/obj/testevt.o
chEvtWaitAnyTimeout                               build/obj/chevents.o
                                                  build/obj/testevt.o
chEvtWaitOne                                      build/obj/chevents.o
                                                  build/obj/main.o
                                                  build/obj/testevt.o
chEvtWaitOneTimeout                               build/obj/chevents.o
                                                  build/obj/testevt.o
chHeapAlloc                                       build/obj/chheap.o
                                                  build/obj/testdyn.o
                                                  build/obj/testheap.o
                                                  build/obj/chdynamic.o
chHeapFree                                        build/obj/chheap.o
                                                  build/obj/testdyn.o
                                                  build/obj/testheap.o
                                                  build/obj/chdynamic.o
chHeapObjectInit                                  build/obj/chheap.o
                                                  build/obj/testdyn.o
                                                  build/obj/testheap.o
chHeapStatus                                      build/obj/chheap.o
                                                  build/obj/testdyn.o
                                                  build/obj/testheap.o
chIQGetTimeout                                    build/obj/chqueues.o
                                                  build/obj/testbmk.o
                                                  build/obj/testqueues.o
                                                  build/obj/serial.o
chIQObjectInit                                    build/obj/chqueues.o
                                                  build/obj/testbmk.o
                                                  build/obj/testqueues.o
                                                  build/obj/serial.o
chIQPutI                                          build/obj/chqueues.o
                                                  build/obj/testbmk.o
                                                  build/obj/testqueues.o
                                                  build/obj/serial.o
chIQReadTimeout                                   build/obj/chqueues.o
                                                  build/obj/testqueues.o
                                                  build/obj/serial.o
chIQResetI                                        build/obj/chqueues.o
                                                  build/obj/testqueues.o
                                                  build/obj/serial.o
chMBFetch                                         build/obj/chmboxes.o
                                                  build/obj/testmbox.o
chMBFetchI                                        build/obj/chmboxes.o
                                                  build/obj/testmbox.o
chMBFetchS                                        build/obj/chmboxes.o
chMBObjectInit                                    build/obj/chmboxes.o
                                                  build/obj/testmbox.o
chMBPost                                          build/obj/chmboxes.o
                                                  build/obj/testmbox.o
chMBPostAhead                                     build/obj/chmboxes.o
                                                  build/obj/testmbox.o
chMBPostAheadI                                    build/obj/chmboxes.o
                                                  build/obj/testmbox.o
chMBPostAheadS                                    build/obj/chmboxes.o
chMBPostI                                         build/obj/chmboxes.o
                                                  build/obj/testmbox.o
chMBPostS                                         build/obj/chmboxes.o
chMBReset                                         build/obj/chmboxes.o
                                                  build/obj/testmbox.o
chMBResetI                                        build/obj/chmboxes.o
chMsgRelease                                      build/obj/chmsg.o
                                                  build/obj/testbmk.o
                                                  build/obj/testmsg.o
chMsgSend                                         build/obj/chmsg.o
                                                  build/obj/testbmk.o
                                                  build/obj/testmsg.o
chMsgWait                                         build/obj/chmsg.o
                                                  build/obj/testbmk.o
                                                  build/obj/testmsg.o
chMtxLock                                         build/obj/chmtx.o
                                                  build/obj/main.o
                                                  build/obj/testbmk.o
                                                  build/obj/testmtx.o
                                                  build/obj/spi.o
                                                  build/obj/adc.o
                                                  build/obj/chheap.o
chMtxLockS                                        build/obj/chmtx.o
                                                  build/obj/chcond.o
chMtxObjectInit                                   build/obj/chmtx.o
                                                  build/obj/main.o
                                                  build/obj/testbmk.o
                                                  build/obj/testmtx.o
                                                  build/obj/spi.o
                                                  build/obj/adc.o
                                                  build/obj/chheap.o
chMtxTryLock                                      build/obj/chmtx.o
                                                  build/obj/testmtx.o
chMtxTryLockS                                     build/obj/chmtx.o
chMtxUnlock                                       build/obj/chmtx.o
                                                  build/obj/main.o
                                                  build/obj/testbmk.o
                                                  build/obj/testmtx.o
                                                  build/obj/spi.o
                                                  build/obj/adc.o
                                                  build/obj/chheap.o
chMtxUnlockAll                                    build/obj/chmtx.o
                                                  build/obj/testmtx.o
chMtxUnlockS                                      build/obj/chmtx.o
                                                  build/obj/testmtx.o
                                                  build/obj/chcond.o
chOQGetI                                          build/obj/chqueues.o
                                                  build/obj/testqueues.o
                                                  build/obj/serial_lld.o
                                                  build/obj/serial.o
chOQObjectInit                                    build/obj/chqueues.o
                                                  build/obj/testqueues.o
                                                  build/obj/serial.o
chOQPutTimeout                                    build/obj/chqueues.o
                                                  build/obj/testqueues.o
                                                  build/obj/serial.o
chOQResetI                                        build/obj/chqueues.o
                                                  build/obj/testqueues.o
                                                  build/obj/serial.o
chOQWriteTimeout                                  build/obj/chqueues.o
                                                  build/obj/testqueues.o
                                                  build/obj/serial.o
chPoolAlloc                                       build/obj/chmempools.o
                                                  build/obj/testdyn.o
                                                  build/obj/testpools.o
                                                  build/obj/chdynamic.o
chPoolAllocI                                      build/obj/chmempools.o
chPoolFree                                        build/obj/chmempools.o
                                                  build/obj/testdyn.o
                                                  build/obj/testpools.o
                                                  build/obj/chdynamic.o
chPoolFreeI                                       build/obj/chmempools.o
chPoolLoadArray                                   build/obj/chmempools.o
                                                  build/obj/testpools.o
chPoolObjectInit                                  build/obj/chmempools.o
                                                  build/obj/testdyn.o
                                                  build/obj/testpools.o
chRegFirstThread                                  build/obj/chregistry.o
                                                  build/obj/testdyn.o
chRegNextThread                                   build/obj/chregistry.o
                                                  build/obj/testdyn.o
chSchDoReschedule                                 build/obj/chschd.o
                                                  build/obj/chcoreasm_v7m.o
chSchDoRescheduleAhead                            build/obj/chschd.o
chSchDoRescheduleBehind                           build/obj/chschd.o
                                                  build/obj/chthreads.o
chSchGoSleepS                                     build/obj/chschd.o
                                                  build/obj/testbmk.o
                                                  build/obj/chmsg.o
                                                  build/obj/chevents.o
                                                  build/obj/chcond.o
                                                  build/obj/chmtx.o
                                                  build/obj/chsem.o
                                                  build/obj/chthreads.o
chSchGoSleepTimeoutS                              build/obj/chschd.o
                                                  build/obj/chevents.o
                                                  build/obj/chcond.o
                                                  build/obj/chsem.o
                                                  build/obj/chthreads.o
chSchIsPreemptionRequired                         build/obj/chschd.o
                                                  build/obj/chcore_v7m.o
chSchReadyI                                       build/obj/chschd.o
                                                  build/obj/chmsg.o
                                                  build/obj/chevents.o
                                                  build/obj/chcond.o
                                                  build/obj/chmtx.o
                                                  build/obj/chsem.o
                                                  build/obj/chthreads.o
chSchRescheduleS                                  build/obj/chschd.o
                                                  build/obj/testmtx.o
                                                  build/obj/testsem.o
                                                  build/obj/serial.o
                                                  build/obj/chmboxes.o
                                                  build/obj/chevents.o
                                                  build/obj/chcond.o
                                                  build/obj/chmtx.o
                                                  build/obj/chsem.o
                                                  build/obj/chthreads.o
                                                  build/obj/chsys.o
chSchWakeupS                                      build/obj/chschd.o
                                                  build/obj/testbmk.o
                                                  build/obj/chmsg.o
                                                  build/obj/chcond.o
                                                  build/obj/chsem.o
                                                  build/obj/chdynamic.o
                                                  build/obj/chthreads.o
chSemAddCounterI                                  build/obj/chsem.o
                                                  build/obj/testsem.o
chSemObjectInit                                   build/obj/chsem.o
                                                  build/obj/main.o
                                                  build/obj/testbmk.o
                                                  build/obj/testsem.o
                                                  build/obj/chmboxes.o
chSemReset                                        build/obj/chsem.o
                                                  build/obj/testbmk.o
                                                  build/obj/testsem.o
chSemResetI                                       build/obj/chsem.o
                                                  build/obj/chmboxes.o
chSemSignal                                       build/obj/chsem.o
                                                  build/obj/testbmk.o
                                                  build/obj/testsem.o
chSemSignalI                                      build/obj/chsem.o
                                                  build/obj/main.o
                                                  build/obj/testsem.o
                                                  build/obj/chmboxes.o
chSemSignalWait                                   build/obj/chsem.o
                                                  build/obj/testsem.o
chSemWait                                         build/obj/chsem.o
                                                  build/obj/main.o
                                                  build/obj/testbmk.o
                                                  build/obj/testsem.o
chSemWaitS                                        build/obj/chsem.o
chSemWaitTimeout                                  build/obj/chsem.o
                                                  build/obj/testsem.o
chSemWaitTimeoutS                                 build/obj/chsem.o
                                                  build/obj/chmboxes.o
chSysGetStatusAndLockX                            build/obj/chsys.o
                                                  build/obj/testsys.o
chSysHalt                                         build/obj/chsys.o
                                                  build/obj/spi_lld.o
chSysInit                                         build/obj/chsys.o
                                                  build/obj/main.o
chSysIntegrityCheckI                              build/obj/chsys.o
                                                  build/obj/testsys.o
chSysIsCounterWithinX                             build/obj/chsys.o
chSysPolledDelayX                                 build/obj/chsys.o
                                                  build/obj/adc_lld.o
chSysRestoreStatusX                               build/obj/chsys.o
                                                  build/obj/testsys.o
chSysTimerHandlerI                                build/obj/chsys.o
                                                  build/obj/st_lld.o
chTMChainMeasurementToX                           build/obj/chtm.o
chTMObjectInit                                    build/obj/chtm.o
chTMStartMeasurementX                             build/obj/chtm.o
chTMStopMeasurementX                              build/obj/chtm.o
chThdAddRef                                       build/obj/chdynamic.o
                                                  build/obj/testdyn.o
chThdCreateFromHeap                               build/obj/chdynamic.o
                                                  build/obj/shell.o
                                                  build/obj/testdyn.o
chThdCreateFromMemoryPool                         build/obj/chdynamic.o
                                                  build/obj/testdyn.o
chThdCreateI                                      build/obj/chthreads.o
                                                  build/obj/testthd.o
                                                  build/obj/chdynamic.o
chThdCreateStatic                                 build/obj/chthreads.o
                                                  build/obj/main.o
                                                  build/obj/shell.o
                                                  build/obj/testbmk.o
                                                  build/obj/testqueues.o
                                                  build/obj/testevt.o
                                                  build/obj/testmsg.o
                                                  build/obj/testmtx.o
                                                  build/obj/testsem.o
                                                  build/obj/testthd.o
                                                  build/obj/chsys.o
chThdDequeueAllI                                  build/obj/chthreads.o
                                                  build/obj/hal_buffers.o
                                                  build/obj/chqueues.o
chThdDequeueNextI                                 build/obj/chthreads.o
                                                  build/obj/hal_buffers.o
                                                  build/obj/chqueues.o
chThdEnqueueTimeoutS                              build/obj/chthreads.o
                                                  build/obj/hal_buffers.o
                                                  build/obj/chqueues.o
chThdExit                                         build/obj/chthreads.o
                                                  build/obj/testbmk.o
                                                  build/obj/chcoreasm_v7m.o
chThdExitS                                        build/obj/chthreads.o
                                                  build/obj/shell.o
chThdRelease                                      build/obj/chdynamic.o
                                                  build/obj/testdyn.o
                                                  build/obj/chregistry.o
                                                  build/obj/chthreads.o
chThdResume                                       build/obj/chthreads.o
chThdResumeI                                      build/obj/chthreads.o
                                                  build/obj/spi_lld.o
                                                  build/obj/adc_lld.o
                                                  build/obj/adc.o
chThdResumeS                                      build/obj/chthreads.o
                                                  build/obj/adc.o
chThdSetPriority                                  build/obj/chthreads.o
                                                  build/obj/testthd.o
chThdSleep                                        build/obj/chthreads.o
                                                  build/obj/main.o
                                                  build/obj/testbmk.o
                                                  build/obj/testsys.o
                                                  build/obj/testdyn.o
                                                  build/obj/testevt.o
                                                  build/obj/testmtx.o
                                                  build/obj/testsem.o
                                                  build/obj/testthd.o
                                                  build/obj/test.o
                                                  build/obj/mmc_spi.o
chThdSleepUntil                                   build/obj/chthreads.o
                                                  build/obj/testthd.o
chThdSleepUntilWindowed                           build/obj/chthreads.o
chThdStart                                        build/obj/chthreads.o
                                                  build/obj/testthd.o
chThdSuspendS                                     build/obj/chthreads.o
                                                  build/obj/spi.o
                                                  build/obj/adc.o
chThdSuspendTimeoutS                              build/obj/chthreads.o
chThdTerminate                                    build/obj/chthreads.o
                                                  build/obj/test.o
chThdWait                                         build/obj/chthreads.o
                                                  build/obj/main.o
                                                  build/obj/testbmk.o
                                                  build/obj/test.o
chThdYield                                        build/obj/chthreads.o
                                                  build/obj/main.o
                                                  build/obj/testbmk.o
chVTDoResetI                                      build/obj/chvt.o
                                                  build/obj/evtimer.o
                                                  build/obj/testbmk.o
                                                  build/obj/testsys.o
                                                  build/obj/test.o
                                                  build/obj/chschd.o
chVTDoSetI                                        build/obj/chvt.o
                                                  build/obj/evtimer.o
                                                  build/obj/testbmk.o
                                                  build/obj/testsys.o
                                                  build/obj/test.o
                                                  build/obj/chschd.o
ch_debug                                          build/obj/chregistry.o
                                                  build/obj/chsys.o
chprintf                                          build/obj/chprintf.o
                                                  build/obj/main.o
                                                  build/obj/shell.o
chsnprintf                                        build/obj/chprintf.o
chvprintf                                         build/obj/chprintf.o
clust2sect                                        build/obj/ff.o
die                                               build/obj/main.o
diff                                              build/obj/main.o
dir                                               build/obj/main.o
disk_initialize                                   build/obj/fatfs_diskio.o
                                                  build/obj/ff.o
disk_ioctl                                        build/obj/fatfs_diskio.o
                                                  build/obj/ff.o
disk_read                                         build/obj/fatfs_diskio.o
                                                  build/obj/ff.o
disk_status                                       build/obj/fatfs_diskio.o
                                                  build/obj/ff.o
disk_write                                        build/obj/fatfs_diskio.o
                                                  build/obj/ff.o
dmaInit                                           build/obj/stm32_dma.o
                                                  build/obj/hal_lld.o
dmaStreamAllocate                                 build/obj/stm32_dma.o
                                                  build/obj/spi_lld.o
                                                  build/obj/adc_lld.o
dmaStreamRelease                                  build/obj/stm32_dma.o
                                                  build/obj/spi_lld.o
                                                  build/obj/adc_lld.o
evtObjectInit                                     build/obj/evtimer.o
evtStart                                          build/obj/evtimer.o
f_chmod                                           build/obj/ff.o
f_close                                           build/obj/ff.o
                                                  build/obj/main.o
f_closedir                                        build/obj/ff.o
f_getfree                                         build/obj/ff.o
f_lseek                                           build/obj/ff.o
                                                  build/obj/main.o
f_mkdir                                           build/obj/ff.o
f_mount                                           build/obj/ff.o
                                                  build/obj/main.o
f_open                                            build/obj/ff.o
                                                  build/obj/main.o
f_opendir                                         build/obj/ff.o
f_read                                            build/obj/ff.o
f_readdir                                         build/obj/ff.o
f_rename                                          build/obj/ff.o
f_stat                                            build/obj/ff.o
f_sync                                            build/obj/ff.o
f_truncate                                        build/obj/ff.o
f_unlink                                          build/obj/ff.o
f_utime                                           build/obj/ff.o
f_write                                           build/obj/ff.o
                                                  build/obj/main.o
fil                                               build/obj/main.o
fno                                               build/obj/main.o
get_fat                                           build/obj/ff.o
get_fattime                                       build/obj/fatfs_diskio.o
                                                  build/obj/ff.o
gptChangeInterval                                 build/obj/gpt.o
gptInit                                           build/obj/gpt.o
                                                  build/obj/hal.o
gptObjectInit                                     build/obj/gpt.o
                                                  build/obj/gpt_lld.o
gptPolledDelay                                    build/obj/gpt.o
gptStart                                          build/obj/gpt.o
                                                  build/obj/main.o
gptStartContinuous                                build/obj/gpt.o
                                                  build/obj/main.o
gptStartContinuousI                               build/obj/gpt.o
gptStartOneShot                                   build/obj/gpt.o
gptStartOneShotI                                  build/obj/gpt.o
gptStop                                           build/obj/gpt.o
gptStopTimer                                      build/obj/gpt.o
gptStopTimerI                                     build/obj/gpt.o
gpt_lld_init                                      build/obj/gpt_lld.o
                                                  build/obj/gpt.o
gpt_lld_polled_delay                              build/obj/gpt_lld.o
                                                  build/obj/gpt.o
gpt_lld_serve_interrupt                           build/obj/gpt_lld.o
gpt_lld_start                                     build/obj/gpt_lld.o
                                                  build/obj/gpt.o
gpt_lld_start_timer                               build/obj/gpt_lld.o
                                                  build/obj/gpt.o
gpt_lld_stop                                      build/obj/gpt_lld.o
                                                  build/obj/gpt.o
gpt_lld_stop_timer                                build/obj/gpt_lld.o
                                                  build/obj/gpt.o
halInit                                           build/obj/hal.o
                                                  build/obj/main.o
hal_lld_init                                      build/obj/hal_lld.o
                                                  build/obj/hal.o
ibqGetEmptyBufferI                                build/obj/hal_buffers.o
ibqGetFullBufferTimeout                           build/obj/hal_buffers.o
ibqGetFullBufferTimeoutS                          build/obj/hal_buffers.o
ibqGetTimeout                                     build/obj/hal_buffers.o
ibqObjectInit                                     build/obj/hal_buffers.o
ibqPostFullBufferI                                build/obj/hal_buffers.o
ibqReadTimeout                                    build/obj/hal_buffers.o
ibqReleaseEmptyBuffer                             build/obj/hal_buffers.o
ibqReleaseEmptyBufferS                            build/obj/hal_buffers.o
ibqResetI                                         build/obj/hal_buffers.o
initSDcard                                        build/obj/main.o
init_mmc                                          build/obj/main.o
j                                                 build/obj/main.o
localeconv                                        /nfs/nfs5/home/research/hardware/arm2/gcc-arm-embedded/gcc-arm-none-eabi-4_8-2014q2/bin/../lib/gcc/arm-none-eabi/4.8.4/../../../../arm-none-eabi/lib/armv7e-m/libg.a(lib_a-locale.o)
main                                              build/obj/main.o
                                                  build/obj/crt0_v7m.o
memchr                                            /nfs/nfs5/home/research/hardware/arm2/gcc-arm-embedded/gcc-arm-none-eabi-4_8-2014q2/bin/../lib/gcc/arm-none-eabi/4.8.4/../../../../arm-none-eabi/lib/armv7e-m/libg.a(lib_a-memchr-stub.o)
                                                  /nfs/nfs5/home/research/hardware/arm2/gcc-arm-embedded/gcc-arm-none-eabi-4_8-2014q2/bin/../lib/gcc/arm-none-eabi/4.8.4/../../../../arm-none-eabi/lib/armv7e-m/libg.a(lib_a-svfiprintf.o)
                                                  /nfs/nfs5/home/research/hardware/arm2/gcc-arm-embedded/gcc-arm-none-eabi-4_8-2014q2/bin/../lib/gcc/arm-none-eabi/4.8.4/../../../../arm-none-eabi/lib/armv7e-m/libg.a(lib_a-svfprintf.o)
memcpy                                            /nfs/nfs5/home/research/hardware/arm2/gcc-arm-embedded/gcc-arm-none-eabi-4_8-2014q2/bin/../lib/gcc/arm-none-eabi/4.8.4/../../../../arm-none-eabi/lib/armv7e-m/libg.a(lib_a-memcpy.o)
                                                  /nfs/nfs5/home/research/hardware/arm2/gcc-arm-embedded/gcc-arm-none-eabi-4_8-2014q2/bin/../lib/gcc/arm-none-eabi/4.8.4/../../../../arm-none-eabi/lib/armv7e-m/libg.a(lib_a-svfiprintf.o)
                                                  /nfs/nfs5/home/research/hardware/arm2/gcc-arm-embedded/gcc-arm-none-eabi-4_8-2014q2/bin/../lib/gcc/arm-none-eabi/4.8.4/../../../../arm-none-eabi/lib/armv7e-m/libg.a(lib_a-mprec.o)
                                                  /nfs/nfs5/home/research/hardware/arm2/gcc-arm-embedded/gcc-arm-none-eabi-4_8-2014q2/bin/../lib/gcc/arm-none-eabi/4.8.4/../../../../arm-none-eabi/lib/armv7e-m/libg.a(lib_a-dtoa.o)
                                                  build/obj/memstreams.o
                                                  build/obj/hal_buffers.o
memmove                                           /nfs/nfs5/home/research/hardware/arm2/gcc-arm-embedded/gcc-arm-none-eabi-4_8-2014q2/bin/../lib/gcc/arm-none-eabi/4.8.4/../../../../arm-none-eabi/lib/armv7e-m/libg.a(lib_a-memmove.o)
                                                  /nfs/nfs5/home/research/hardware/arm2/gcc-arm-embedded/gcc-arm-none-eabi-4_8-2014q2/bin/../lib/gcc/arm-none-eabi/4.8.4/../../../../arm-none-eabi/lib/armv7e-m/libg.a(lib_a-reallocr.o)
                                                  /nfs/nfs5/home/research/hardware/arm2/gcc-arm-embedded/gcc-arm-none-eabi-4_8-2014q2/bin/../lib/gcc/arm-none-eabi/4.8.4/../../../../arm-none-eabi/lib/armv7e-m/libg.a(lib_a-svfiprintf.o)
memset                                            /nfs/nfs5/home/research/hardware/arm2/gcc-arm-embedded/gcc-arm-none-eabi-4_8-2014q2/bin/../lib/gcc/arm-none-eabi/4.8.4/../../../../arm-none-eabi/lib/armv7e-m/libg.a(lib_a-memset.o)
                                                  /nfs/nfs5/home/research/hardware/arm2/gcc-arm-embedded/gcc-arm-none-eabi-4_8-2014q2/bin/../lib/gcc/arm-none-eabi/4.8.4/../../../../arm-none-eabi/lib/armv7e-m/libg.a(lib_a-callocr.o)
                                                  build/obj/syscalls.o
mmcConnect                                        build/obj/mmc_spi.o
                                                  build/obj/main.o
mmcDisconnect                                     build/obj/mmc_spi.o
mmcErase                                          build/obj/mmc_spi.o
mmcGetInfo                                        build/obj/mmc_spi.o
mmcInit                                           build/obj/mmc_spi.o
                                                  build/obj/hal.o
mmcObjectInit                                     build/obj/mmc_spi.o
                                                  build/obj/main.o
mmcSequentialRead                                 build/obj/mmc_spi.o
                                                  build/obj/fatfs_diskio.o
mmcSequentialWrite                                build/obj/mmc_spi.o
                                                  build/obj/fatfs_diskio.o
mmcStart                                          build/obj/mmc_spi.o
                                                  build/obj/main.o
mmcStartSequentialRead                            build/obj/mmc_spi.o
                                                  build/obj/fatfs_diskio.o
mmcStartSequentialWrite                           build/obj/mmc_spi.o
                                                  build/obj/fatfs_diskio.o
mmcStop                                           build/obj/mmc_spi.o
mmcStopSequentialRead                             build/obj/mmc_spi.o
                                                  build/obj/fatfs_diskio.o
mmcStopSequentialWrite                            build/obj/mmc_spi.o
                                                  build/obj/fatfs_diskio.o
mmcSync                                           build/obj/mmc_spi.o
mmc_lld_is_card_inserted                          build/obj/board.o
                                                  build/obj/mmc_spi.o
mmc_lld_is_write_protected                        build/obj/board.o
                                                  build/obj/fatfs_diskio.o
                                                  build/obj/mmc_spi.o
msObjectInit                                      build/obj/memstreams.o
                                                  build/obj/chprintf.o
nvicClearPending                                  build/obj/nvic.o
nvicDisableVector                                 build/obj/nvic.o
                                                  build/obj/gpt_lld.o
                                                  build/obj/stm32_dma.o
nvicEnableVector                                  build/obj/nvic.o
                                                  build/obj/serial_lld.o
                                                  build/obj/gpt_lld.o
                                                  build/obj/adc_lld.o
                                                  build/obj/st_lld.o
                                                  build/obj/stm32_dma.o
nvicSetSystemHandlerPriority                      build/obj/nvic.o
obqFlush                                          build/obj/hal_buffers.o
obqGetEmptyBufferTimeout                          build/obj/hal_buffers.o
obqGetEmptyBufferTimeoutS                         build/obj/hal_buffers.o
obqGetFullBufferI                                 build/obj/hal_buffers.o
obqObjectInit                                     build/obj/hal_buffers.o
obqPostFullBuffer                                 build/obj/hal_buffers.o
obqPostFullBufferS                                build/obj/hal_buffers.o
obqPutTimeout                                     build/obj/hal_buffers.o
obqReleaseEmptyBufferI                            build/obj/hal_buffers.o
obqResetI                                         build/obj/hal_buffers.o
obqTryFlushI                                      build/obj/hal_buffers.o
obqWriteTimeout                                   build/obj/hal_buffers.o
palReadBus                                        build/obj/pal.o
palSetBusMode                                     build/obj/pal.o
palWriteBus                                       build/obj/pal.o
pal_default_config                                build/obj/board.o
                                                  build/obj/hal.o
patternbmk                                        build/obj/testbmk.o
                                                  build/obj/test.o
patterndyn                                        build/obj/testdyn.o
                                                  build/obj/test.o
patternevt                                        build/obj/testevt.o
                                                  build/obj/test.o
patternheap                                       build/obj/testheap.o
                                                  build/obj/test.o
patternmbox                                       build/obj/testmbox.o
                                                  build/obj/test.o
patternmsg                                        build/obj/testmsg.o
                                                  build/obj/test.o
patternmtx                                        build/obj/testmtx.o
                                                  build/obj/test.o
patternpools                                      build/obj/testpools.o
                                                  build/obj/test.o
patternqueues                                     build/obj/testqueues.o
                                                  build/obj/test.o
patternsem                                        build/obj/testsem.o
                                                  build/obj/test.o
patternsys                                        build/obj/testsys.o
                                                  build/obj/test.o
patternthd                                        build/obj/testthd.o
                                                  build/obj/test.o
potential_0                                       build/obj/main.o
potential_1                                       build/obj/main.o
put_fat                                           build/obj/ff.o
rc                                                build/obj/main.o
sdGetWouldBlock                                   build/obj/serial.o
sdIncomingDataI                                   build/obj/serial.o
                                                  build/obj/serial_lld.o
sdInit                                            build/obj/serial.o
                                                  build/obj/hal.o
sdObjectInit                                      build/obj/serial.o
                                                  build/obj/serial_lld.o
sdPutWouldBlock                                   build/obj/serial.o
sdRequestDataI                                    build/obj/serial.o
sdStart                                           build/obj/serial.o
                                                  build/obj/main.o
sdStop                                            build/obj/serial.o
sd_lld_init                                       build/obj/serial_lld.o
                                                  build/obj/serial.o
sd_lld_start                                      build/obj/serial_lld.o
                                                  build/obj/serial.o
sd_lld_stop                                       build/obj/serial_lld.o
                                                  build/obj/serial.o
setlocale                                         /nfs/nfs5/home/research/hardware/arm2/gcc-arm-embedded/gcc-arm-none-eabi-4_8-2014q2/bin/../lib/gcc/arm-none-eabi/4.8.4/../../../../arm-none-eabi/lib/armv7e-m/libg.a(lib_a-locale.o)
shellCreate                                       build/obj/shell.o
                                                  build/obj/main.o
shellCreateStatic                                 build/obj/shell.o
shellExit                                         build/obj/shell.o
shellGetLine                                      build/obj/shell.o
shellInit                                         build/obj/shell.o
                                                  build/obj/main.o
shell_terminated                                  build/obj/shell.o
spiAcquireBus                                     build/obj/spi.o
spiExchange                                       build/obj/spi.o
spiIgnore                                         build/obj/spi.o
                                                  build/obj/mmc_spi.o
spiInit                                           build/obj/spi.o
                                                  build/obj/hal.o
spiObjectInit                                     build/obj/spi.o
                                                  build/obj/spi_lld.o
spiReceive                                        build/obj/spi.o
                                                  build/obj/mmc_spi.o
spiReleaseBus                                     build/obj/spi.o
spiSelect                                         build/obj/spi.o
                                                  build/obj/mmc_spi.o
spiSend                                           build/obj/spi.o
                                                  build/obj/mmc_spi.o
spiStart                                          build/obj/spi.o
                                                  build/obj/mmc_spi.o
spiStartExchange                                  build/obj/spi.o
spiStartIgnore                                    build/obj/spi.o
spiStartReceive                                   build/obj/spi.o
spiStartSend                                      build/obj/spi.o
spiStop                                           build/obj/spi.o
                                                  build/obj/mmc_spi.o
spiUnselect                                       build/obj/spi.o
                                                  build/obj/mmc_spi.o
spi_lld_exchange                                  build/obj/spi_lld.o
                                                  build/obj/spi.o
spi_lld_ignore                                    build/obj/spi_lld.o
                                                  build/obj/spi.o
spi_lld_init                                      build/obj/spi_lld.o
                                                  build/obj/spi.o
spi_lld_polled_exchange                           build/obj/spi_lld.o
spi_lld_receive                                   build/obj/spi_lld.o
                                                  build/obj/spi.o
spi_lld_select                                    build/obj/spi_lld.o
                                                  build/obj/spi.o
spi_lld_send                                      build/obj/spi_lld.o
                                                  build/obj/spi.o
spi_lld_start                                     build/obj/spi_lld.o
                                                  build/obj/spi.o
spi_lld_stop                                      build/obj/spi_lld.o
                                                  build/obj/spi.o
spi_lld_unselect                                  build/obj/spi_lld.o
                                                  build/obj/spi.o
sprintf                                           /nfs/nfs5/home/research/hardware/arm2/gcc-arm-embedded/gcc-arm-none-eabi-4_8-2014q2/bin/../lib/gcc/arm-none-eabi/4.8.4/../../../../arm-none-eabi/lib/armv7e-m/libg.a(lib_a-sprintf.o)
                                                  build/obj/main.o
stGetAlarm                                        build/obj/st.o
stInit                                            build/obj/st.o
                                                  build/obj/hal.o
stSetAlarm                                        build/obj/st.o
                                                  build/obj/chvt.o
                                                  build/obj/chsys.o
stStartAlarm                                      build/obj/st.o
                                                  build/obj/chvt.o
stStopAlarm                                       build/obj/st.o
                                                  build/obj/chvt.o
                                                  build/obj/chsys.o
st_lld_init                                       build/obj/st_lld.o
                                                  build/obj/st.o
stm32_clock_init                                  build/obj/hal_lld.o
                                                  build/obj/board.o
strcmp                                            /nfs/nfs5/home/research/hardware/arm2/gcc-arm-embedded/gcc-arm-none-eabi-4_8-2014q2/bin/../lib/gcc/arm-none-eabi/4.8.4/../../../../arm-none-eabi/lib/armv7e-m/libg.a(lib_a-strcmp.o)
                                                  /nfs/nfs5/home/research/hardware/arm2/gcc-arm-embedded/gcc-arm-none-eabi-4_8-2014q2/bin/../lib/gcc/arm-none-eabi/4.8.4/../../../../arm-none-eabi/lib/armv7e-m/libg.a(lib_a-locale.o)
                                                  build/obj/shell.o
strlen                                            /nfs/nfs5/home/research/hardware/arm2/gcc-arm-embedded/gcc-arm-none-eabi-4_8-2014q2/bin/../lib/gcc/arm-none-eabi/4.8.4/../../../../arm-none-eabi/lib/armv7e-m/libg.a(lib_a-strlen.o)
                                                  /nfs/nfs5/home/research/hardware/arm2/gcc-arm-embedded/gcc-arm-none-eabi-4_8-2014q2/bin/../lib/gcc/arm-none-eabi/4.8.4/../../../../arm-none-eabi/lib/armv7e-m/libg.a(lib_a-svfiprintf.o)
                                                  /nfs/nfs5/home/research/hardware/arm2/gcc-arm-embedded/gcc-arm-none-eabi-4_8-2014q2/bin/../lib/gcc/arm-none-eabi/4.8.4/../../../../arm-none-eabi/lib/armv7e-m/libg.a(lib_a-svfprintf.o)
strpbrk                                           /nfs/nfs5/home/research/hardware/arm2/gcc-arm-embedded/gcc-arm-none-eabi-4_8-2014q2/bin/../lib/gcc/arm-none-eabi/4.8.4/../../../../arm-none-eabi/lib/armv7e-m/libg.a(lib_a-strpbrk.o)
                                                  build/obj/shell.o
strspn                                            /nfs/nfs5/home/research/hardware/arm2/gcc-arm-embedded/gcc-arm-none-eabi-4_8-2014q2/bin/../lib/gcc/arm-none-eabi/4.8.4/../../../../arm-none-eabi/lib/armv7e-m/libg.a(lib_a-strspn.o)
                                                  build/obj/shell.o
test                                              build/obj/test.o
                                                  build/obj/testqueues.o
                                                  build/obj/testdyn.o
                                                  build/obj/testheap.o
                                                  build/obj/testmbox.o
test_emit_token                                   build/obj/test.o
                                                  build/obj/testqueues.o
                                                  build/obj/testdyn.o
                                                  build/obj/testevt.o
                                                  build/obj/testmbox.o
                                                  build/obj/testmsg.o
                                                  build/obj/testmtx.o
                                                  build/obj/testsem.o
                                                  build/obj/testthd.o
test_global_fail                                  build/obj/test.o
test_print                                        build/obj/test.o
                                                  build/obj/testbmk.o
test_println                                      build/obj/test.o
                                                  build/obj/testbmk.o
test_printn                                       build/obj/test.o
                                                  build/obj/testbmk.o
test_start_timer                                  build/obj/test.o
                                                  build/obj/testbmk.o
test_terminate_threads                            build/obj/test.o
                                                  build/obj/testbmk.o
test_timer_done                                   build/obj/test.o
                                                  build/obj/testbmk.o
test_wait_threads                                 build/obj/test.o
                                                  build/obj/testbmk.o
                                                  build/obj/testqueues.o
                                                  build/obj/testdyn.o
                                                  build/obj/testevt.o
                                                  build/obj/testmtx.o
                                                  build/obj/testsem.o
                                                  build/obj/testthd.o
test_wait_tick                                    build/obj/test.o
                                                  build/obj/testbmk.o
                                                  build/obj/testevt.o
                                                  build/obj/testsem.o
                                                  build/obj/testthd.o
testbmk1                                          build/obj/testbmk.o
testbmk10                                         build/obj/testbmk.o
testbmk11                                         build/obj/testbmk.o
testbmk12                                         build/obj/testbmk.o
testbmk13                                         build/obj/testbmk.o
testbmk2                                          build/obj/testbmk.o
testbmk3                                          build/obj/testbmk.o
testbmk4                                          build/obj/testbmk.o
testbmk5                                          build/obj/testbmk.o
testbmk6                                          build/obj/testbmk.o
testbmk7                                          build/obj/testbmk.o
testbmk8                                          build/obj/testbmk.o
testbmk9                                          build/obj/testbmk.o
testdyn1                                          build/obj/testdyn.o
testdyn2                                          build/obj/testdyn.o
testdyn3                                          build/obj/testdyn.o
testevt1                                          build/obj/testevt.o
testevt2                                          build/obj/testevt.o
testevt3                                          build/obj/testevt.o
testheap1                                         build/obj/testheap.o
testmbox1                                         build/obj/testmbox.o
testmsg1                                          build/obj/testmsg.o
testmtx1                                          build/obj/testmtx.o
testmtx4                                          build/obj/testmtx.o
testmtx5                                          build/obj/testmtx.o
testmtx6                                          build/obj/testmtx.o
testmtx7                                          build/obj/testmtx.o
testmtx8                                          build/obj/testmtx.o
testpools1                                        build/obj/testpools.o
testqueues1                                       build/obj/testqueues.o
testqueues2                                       build/obj/testqueues.o
testsem1                                          build/obj/testsem.o
testsem2                                          build/obj/testsem.o
testsem3                                          build/obj/testsem.o
testsem4                                          build/obj/testsem.o
testsys1                                          build/obj/testsys.o
testsys2                                          build/obj/testsys.o
testsys3                                          build/obj/testsys.o
testthd1                                          build/obj/testthd.o
testthd2                                          build/obj/testthd.o
testthd3                                          build/obj/testthd.o
testthd4                                          build/obj/testthd.o
threads                                           build/obj/test.o
                                                  build/obj/testbmk.o
                                                  build/obj/testqueues.o
                                                  build/obj/testdyn.o
                                                  build/obj/testevt.o
                                                  build/obj/testmsg.o
                                                  build/obj/testmtx.o
                                                  build/obj/testsem.o
                                                  build/obj/testthd.o
wa                                                build/obj/test.o
                                                  build/obj/testbmk.o
                                                  build/obj/testqueues.o
                                                  build/obj/testdyn.o
                                                  build/obj/testpools.o
                                                  build/obj/testevt.o
                                                  build/obj/testmsg.o
                                                  build/obj/testmtx.o
                                                  build/obj/testsem.o
                                                  build/obj/testthd.o
