ARM GAS  /tmp/ccIHbEXQ.s 			page 1


   1              		.syntax unified
   2              		.cpu cortex-m4
   3              		.fpu softvfp
   4              		.eabi_attribute 20, 1
   5              		.eabi_attribute 21, 1
   6              		.eabi_attribute 23, 3
   7              		.eabi_attribute 24, 1
   8              		.eabi_attribute 25, 1
   9              		.eabi_attribute 26, 1
  10              		.eabi_attribute 30, 2
  11              		.eabi_attribute 34, 1
  12              		.eabi_attribute 18, 4
  13              		.thumb
  14              		.file	"chdynamic.c"
  15              		.text
  16              	.Ltext0:
  17              		.section	.gnu.lto_.jmpfuncs.8a8164031610789c,"",%progbits
  18 0000 789C758C 		.ascii	"x\234u\214\313\015\2000\014\305\342\327rf\204\256\305"
  18      CB0D8030 
  18      0CC5E2D7 
  18      726684AE 
  18      C5
  19 0011 0A2CD059 		.ascii	"\012,\320Y\030\2211x\375 \201\004\2718\211,+\024_sL"
  19      18913178 
  19      FD208104 
  19      B938892C 
  19      2B145F73 
  20 0026 2E8185E4 		.ascii	".\201\205\344\255F\200\300\360\243\310\327\311\306\216"
  20      AD4680C0 
  20      F0A3C8D7 
  20      C9C68E
  21 0035 6F35D2F5 		.ascii	"o5\322\365\346R;4\220\006\262\241\036\342v\362\372\250"
  21      E6523B34 
  21      9006B2A1 
  21      1EE276F2 
  21      FAA8
  22 0047 E855F9E9 		.ascii	"\350U\371\3510\003q\001h\027\013#"
  22      30037101 
  22      68170B23 
  23              		.text
  24              		.section	.gnu.lto_.inline.8a8164031610789c,"",%progbits
  25 0000 789C6362 		.ascii	"x\234cb`b\300\006\336BiV\006\006\036\021Ff\006F\006"
  25      6062C006 
  25      DE426956 
  25      06061E11 
  25      46660646 
  26 0015 06E6058C 		.ascii	"\006\346\005\214`\252\001B=`\346`\355Pg`\357Pgb`|\301"
  26      60AA0142 
  26      3D60E660 
  26      ED506760 
  26      EF506762 
  27 002c CE022141 		.ascii	"\316\002!A\004\007\230\311\001\"\004\300L\001\220I\314"
  27      040798C9 
  27      012204C0 
  27      4C019049 
  27      CC
  28 003d 3C0C0C4C 		.ascii	"<\014\014L\023\374&\37012p\260320q\034\260c\340\370"
ARM GAS  /tmp/ccIHbEXQ.s 			page 2


  28      13FC26F8 
  28      313270B0 
  28      33323071 
  28      1CB063E0 
  29 0052 A007B69E 		.ascii	"\240\007\266\236\211A\216\017(\244\276\242\215\221\201"
  29      89418E0F 
  29      28A4BEA2 
  29      8D9181
  30 0061 778E3944 		.ascii	"w\2169D\214\233\201\201q\202\037\224bf\020\323\007\252"
  30      8C9B8181 
  30      71821F94 
  30      626610D3 
  30      07AA
  31 0073 E0FAE3CD 		.ascii	"\340\372\343\315\300\266@\236\011\311@\006\220\361\254"
  31      C0B6409E 
  31      09C94006 
  31      90F1AC
  32 0082 20832190 		.ascii	" \203!\220\205\027j\017\013\2038H\013\357\252$\006\366"
  32      85176A0F 
  32      0B833848 
  32      0BEFAA24 
  32      06F6
  33 0094 5B6AF8B4 		.ascii	"[j\370\264\200\204\201v0\000\000\337}%\036"
  33      80848176 
  33      300000DF 
  33      7D251E
  34              		.text
  35              		.section	.gnu.lto_.pureconst.8a8164031610789c,"",%progbits
  36 0000 789C6362 		.ascii	"x\234cb`b\340f\200\000V\006)F+&+f+\026+\000\006)\001"
  36      6062E066 
  36      80005606 
  36      29462B26 
  36      2B662B16 
  37 0019 21       		.ascii	"!"
  38              		.text
  39              		.section	.gnu.lto_chThdRelease.part.0.8a8164031610789c,"",%progbits
  40 0000 789CAD92 		.ascii	"x\234\255\222\277J\003A\020\306\347\333\335\323`\345"
  40      BF4A0341 
  40      10C6E7DB 
  40      DDD360E5 
  41 0010 2368B450 		.ascii	"#h\264P\003\271\326^\020\254,L@\355\222\215^\266\210"
  41      03B9D65E 
  41      10AC2C4C 
  41      40ED928D 
  41      5EB688
  42 0023 42622316 		.ascii	"Bb#\026\331\023\003\226\301F\321\306\340\003\370\012"
  42      D9130396 
  42      C146D1C6 
  42      E003F80A 
  43 0033 E945C52E 		.ascii	"\351E\305.X\335\033Xk\204s\366\216\213\177\202\330\270"
  43      58DD1B58 
  43      6B8473F6 
  43      8E8B7F82 
  43      D8B8
  44 0045 70333BC3 		.ascii	"p3;\303\374\346\233\335[A\202~\256\002\177\253\234^"
  44      FCE69BDD 
  44      5B41827E 
ARM GAS  /tmp/ccIHbEXQ.s 			page 3


  44      AE027FAB 
  44      9C5E
  45 0057 600F8FA0 		.ascii	"`\017\217\240\272\017\274Q\020\211\027\220\316\2079"
  45      BA0FBC51 
  45      10891790 
  45      CE8739
  46 0066 09B80D81 		.ascii	"\011\270\015\201\332JH\264\267\340`\321\000\345\251"
  46      DA4A48B4 
  46      B7E060D1 
  46      00E5A9
  47 0075 67ED59D4 		.ascii	"g\355Y\324y\031\340\334\366\303k\373\036\307\200\001"
  47      7919E0DC 
  47      F6C36BFB 
  47      1EC78001 
  48 0085 6BCD8334 		.ascii	"k\315\2034h\223\003\344\022'\360]\374V\330(\216_\343"
  48      689303E4 
  48      1227F05D 
  48      FC56D828 
  48      8E5FE3
  49 0098 DC14D000 		.ascii	"\334\024\320\000\004\031H\351\214r\306c\243\270\312"
  49      041948E9 
  49      8C72C663 
  49      A3B8CA
  50 00a7 A3136BBB 		.ascii	"\243\023k\2733\025\364\220\347P'MJl\335D%.a/\313L;\177"
  50      3315F490 
  50      E750274D 
  50      4A6CDD44 
  50      252E612F 
  51 00bf C7C35670 		.ascii	"\307\303Vp\303G\251q\206\356\351\370\371b\270\234f\002"
  51      C347A971 
  51      86EEE9F8 
  51      F962B89C 
  51      6602
  52 00d1 88022D71 		.ascii	"\210\002-q\347+\272\014\255\2356\360\002\300\015&\223"
  52      E72BBA0C 
  52      AD9D36F0 
  52      02C00D26 
  52      93
  53 00e2 71AAA3F1 		.ascii	"q\252\243\361\030\333\316\030\371\007\203Of-e\306\001"
  53      18DBCE18 
  53      F907834F 
  53      662D65C6 
  53      01
  54 00f3 310E042E 		.ascii	"1\016\004.\376\252\243\376AG\215\037&\310\256a0\214"
  54      FEAAA3FE 
  54      41478D1F 
  54      26C8AE61 
  54      308C
  55 0105 44A6E525 		.ascii	"D\246\345%\250\372U+{'\217\324\351/\246\020\321\021"
  55      A8FA552B 
  55      7B278FD4 
  55      E92FA610 
  55      D111
  56 0117 BDD95357 		.ascii	"\275\331SW=\241Ggp\240\301dZ]f>\373\007\304\367\317"
  56      3DA14767 
  56      70A0C164 
  56      5A5D663E 
ARM GAS  /tmp/ccIHbEXQ.s 			page 4


  56      FB07C4F7 
  57 012c DD9E288C 		.ascii	"\335\236(\214\342\271\254C\272JLs\231\323\230-\026\375"
  57      E2B9AC43 
  57      BA4A4C73 
  57      99D3982D 
  57      16FD
  58 013e 95BAA99A 		.ascii	"\225\272\251\232\365\015\177\277\3457\017\374VS\373"
  58      F50D7FBF 
  58      E5370FFC 
  58      5653FB
  59 014d BA5E3BDC 		.ascii	"\272^;\334\2534\214.jR\315\235\335\326\007z]\203O"
  59      AB348C2E 
  59      6A52CD9D 
  59      DDD6077A 
  59      5D834F
  60              		.text
  61              		.section	.gnu.lto_chThdAddRef.8a8164031610789c,"",%progbits
  62 0000 789C8552 		.ascii	"x\234\205RMh\023A\024~o&\333\006s\351U\220\260\026\004"
  62      4D681341 
  62      147E6F26 
  62      DB0673E9 
  62      5590B016 
  63 0015 3165D79B 		.ascii	"1e\327\233W% \364\020\224\246\202\236d3]\222\201nRv"
  63      572520F4 
  63      1094A682 
  63      9E64335D 
  63      92816E52 
  64 002a 93D09CBA 		.ascii	"\223\320\234\272MzP\360P\304Cb\021\214\202\342\017\025"
  64      4D7A50F0 
  64      50C44362 
  64      118C82E2 
  64      0F15
  65 003c E941C122 		.ascii	"\351A\301\"\241\007\245\320\026\274\366\024/^<y\225"
  65      A107A5D0 
  65      16BCF614 
  65      2F5E3C79 
  65      95
  66 004d 427CB3DB 		.ascii	"B|\263\333]\335\024\354\300\314\274y\363}\357}\3631"
  66      5DDD14EC 
  66      C0CCBC79 
  66      F37DEF7D 
  66      F331
  67 005f 0C188C8F 		.ascii	"\014\030\214\217\2634\337Pz\207v\344\200l\375\000`5"
  67      B334DF50 
  67      7A8776E4 
  67      806CFD00 
  67      6035
  68 0071 CD105500 		.ascii	"\315\020U\000\010+\014W\356`\200}\307\006\303\321h\263"
  68      082B0C57 
  68      EE60807D 
  68      C706C3D1 
  68      68B3
  69 0083 FBE5C51E 		.ascii	"\373\345\305\036\366\330\031\216\016B\012$\202\246\026"
  69      F6D8198E 
  69      0E420A24 
  69      82A616
  70 0092 1A1AACF9 		.ascii	"\032\032\254\371\376\272\356 \235D\220\231\247U\025"
ARM GAS  /tmp/ccIHbEXQ.s 			page 5


  70      FEBAEE20 
  70      9D449099 
  70      A75515
  71 00a1 BA854CED 		.ascii	"\272\205L\355|\027\332i\200i\350\373\376\303a\357\373"
  71      7C17DA69 
  71      8069E8FB 
  71      FEC361EF 
  71      FB
  72 00b2 F64CCF1F 		.ascii	"\366L\317\037\254=\365\217F#D\211\004\272\211\212y\233"
  72      AC3DF58F 
  72      46234489 
  72      04BA898A 
  72      799B
  73 00c4 0E4C0F36 		.ascii	"\016L\0176\236J\012V9\324)8\200\366\257\315\316\326"
  73      9E4A0A56 
  73      39D42938 
  73      80F6AFCD 
  73      CED6
  74 00d6 037EDC35 		.ascii	"\003~\3345j?\330\332\371=\305,|\206\323\261\244\301"
  74      6A3FD8DA 
  74      F93DC52C 
  74      7C86D3B1 
  74      A4C1
  75 00e8 8747DB99 		.ascii	"\207G\333\231s\361\351\376W\222ea\0375j\246\0322\232"
  75      73F1E9FE 
  75      57926561 
  75      1F356AA6 
  75      1A329A
  76 00fb 1C82F722 		.ascii	"\034\202\367\"\274\244\220\034\341\241[Y\370\210O\374"
  76      BCA4901C 
  76      E1A15B59 
  76      F8884FFC 
  77 010b EE5589A9 		.ascii	"\356U\211\251D\373\277\367\237\216\357\265P\340>\264"
  77      44FBBFF7 
  77      9F8EEFB5 
  77      50E03EB4 
  78 011b 0FBB3F2E 		.ascii	"\017\273?.\206\345\313\230\312\301%\211\023\033\360"
  78      86E5CB98 
  78      CAC12589 
  78      131BF0
  79 012a 98989365 		.ascii	"\230\230\223e\344\252B:@\2260z\324>t\356u\232\021E#"
  79      E4AA423A 
  79      4096307A 
  79      D43E74EE 
  79      759A1145 
  80 013f 96424D60 		.ascii	"\226BM`Xn6\274\310\301k\237F\346\224je%$\351s\377\363"
  80      586E36BC 
  80      C8C16B9F 
  80      46E6946A 
  80      652524E9 
  81 0156 98CF163E 		.ascii	"\230\317\026>\017\336|\252\321\360_\243\017\217\224"
  81      0FDE7CAA 
  81      D1F05FA3 
  81      0F8F94
  82 0165 D1EF9346 		.ascii	"\321\357\223F\377\314d\343\237\020\247w\367\376q<h$"
  82      FFCC64E3 
  82      9F10A777 
ARM GAS  /tmp/ccIHbEXQ.s 			page 6


  82      F7FE713C 
  82      6824
  83 0177 8270DC74 		.ascii	"\202p\334t\013_Q\020\267\216L\266\360-fCY\337`u\270"
  83      0B5F5110 
  83      B78E4CB6 
  83      F02D6643 
  83      59DF6075 
  84 018c 2122AB78 		.ascii	"!\"\253x\230\234'8}/\205=o\030f\276\"K\362F\321\254"
  84      989C2738 
  84      7D2F853D 
  84      6F1866BE 
  84      224BF246 
  85 01a2 79A65B37 		.ascii	"y\246[7=W\230\242\262\320\252Z\216\024\206\200\334\011"
  85      3D5798A2 
  85      B2D0AA5A 
  85      8E148680 
  85      DC09
  86 01b4 C452CDAD 		.ascii	"\304R\315\255{\346\265\271B\276\260LPQs\355\273\315"
  86      7BE6B5B9 
  86      42BEB04C 
  86      505173ED 
  86      BBCD
  87 01c6 2B8E5101 		.ascii	"+\216Q\001\255i-6l#\311\260\227\353f\276P\234-\232\262"
  87      AD692D36 
  87      6C23C9B0 
  87      97EB66BE 
  87      509C2D9A 
  88 01db 2A161B0B 		.ascii	"*\026\033\013\266\0310\204s\275Q\025D:)!\306U\274\226"
  88      B6193084 
  88      73BD5115 
  88      443A2921 
  88      C655BC96 
  89 01ef 4788A942 		.ascii	"G\210\251BqN/Y\236\275\344\312\031\375\302e`.L:\266"
  89      714E2F59 
  89      9EBDE4CA 
  89      19FDC265 
  89      602E4C3A 
  90 0204 53735BF0 		.ascii	"Ss[\360\007\373\216\326\303"
  90      07FB8ED6 
  90      C3
  91              		.text
  92              		.section	.gnu.lto_chThdRelease.8a8164031610789c,"",%progbits
  93 0000 789CA554 		.ascii	"x\234\245TMh\023A\024~of7\273M\254\026Q\004\321\022"
  93      4D681341 
  93      147E6F66 
  93      37BB4DAC 
  93      165104D1 
  94 0015 FF40AC64 		.ascii	"\377@\254d\275\351Q)\010\036\212`\025\324\213l\267\261"
  94      BDE95129 
  94      081E8A60 
  94      15D48B6C 
  94      B7B1
  95 0027 5D30AD24 		.ascii	"]0\255$m\261xp\322DTP(\342\241*\242\365\347\242\242"
  95      6DB17870 
  95      D2445450 
  95      28E2A12A 
  95      A2F5E7A2 
ARM GAS  /tmp/ccIHbEXQ.s 			page 7


  96 003c 877AB34A 		.ascii	"\207z\263J\024\251\377U\241'\017\032\021\365\340I\017"
  96      14A9FF55 
  96      A1270F1A 
  96      11F5E049 
  96      0F
  97 004d FE518C6F 		.ascii	"\376Q\214of\262\333nS\364\340@\336\374\274\367}\357"
  97      66B2DB6E 
  97      53F4E040 
  97      DEFCBCF7 
  97      7DEF
  98 005f CDFB36C3 		.ascii	"\315\3736\303\200\301\314\261\207~\357M\200\2074\243"
  98      80C1CCB1 
  98      877EEF4D 
  98      808734A3 
  99 006f 0DC806C7 		.ascii	"\015\310\006\307\001\3626c|\302\001\021\267F\033A\314"
  99      01F23663 
  99      7CC20111 
  99      B7461B41 
  99      CC
 100 0080 E1CC185B 		.ascii	"\341\314\030[*wO\326\321\316\340\326\341\305 lS\331"
 100      2A774FD6 
 100      D1CEE0D6 
 100      E1C5206C 
 100      53D9
 101 0092 985EA3A5 		.ascii	"\230^\243\245\2011\275@\013Q\316\200p\210q\303\214Y"
 101      8131BD40 
 101      0B51CE80 
 101      708871C3 
 101      8C59
 102 00a4 786817AA 		.ascii	"xh\027\252\2147Y\251\\\251\334\3706vy\022\317\263\205"
 102      8C3759A9 
 102      5CA9DCF8 
 102      36767912 
 102      CFB385
 103 00b7 1C330806 		.ascii	"\0343\010\006\370\010\2464\2664u\322\304\311`B\232z"
 103      F808A634 
 103      B63475D2 
 103      C4C96042 
 103      9A7A
 104 00c9 6916C833 		.ascii	"i\026\3103\032&\024\205\030L.\207a!N\226~\216\235X$"
 104      1A261485 
 104      184C2E87 
 104      61214E96 
 104      7E8E9D58 
 105 00de CA6250FC 		.ascii	"\312bP\374\256T\320G\306`%\202\207\260\2236\334V\223"
 105      AE54D047 
 105      C6602582 
 105      87B09336 
 105      DC5693
 106 00f1 81D11B67 		.ascii	"\201\321\033g\220\016<u\270\235\254\254r\00729\363\307"
 106      900E3C75 
 106      B89DACAC 
 106      72073239 
 106      F3C7
 107 0103 30600368 		.ascii	"0`\003h\352\362\310\273\321\265\247E\251xAL\0227\021"
 107      EAF2C8BB 
 107      D1B5A745 
ARM GAS  /tmp/ccIHbEXQ.s 			page 8


 107      A978414C 
 107      123711
 108 0116 998C0243 		.ascii	"\231\214\002C\362\244&7\242\344\362\314L\322b\034\006"
 108      F2A42637 
 108      A2E4F2CC 
 108      4CD2621C 
 108      06
 109 0127 BEDC2E8C 		.ascii	"\276\334.\214\034\347\325z\203\302K\237\356\377j`.^"
 109      1CE7D57A 
 109      83C24B9F 
 109      EEFF6A60 
 109      2E5E
 110 0139 C6E5E165 		.ascii	"\306\345\341eJ\237O\215&\226\204\273co\251,\027\207"
 110      4A9F4F8D 
 110      269684BB 
 110      636FA92C 
 110      1787
 111 014b D1A46432 		.ascii	"\321\244d2!\243\037\007\325L\204\353\264$\031\271\326"
 111      21A31F07 
 111      D54C84EB 
 111      B42419B9 
 111      D6
 112 015c B211EEE0 		.ascii	"\262\021\356\34091\264\321\307X$\375\224\277T\365[\272"
 112      3931B4D1 
 112      C75824FD 
 112      94BF54F5 
 112      5BBA
 113 016e C0E730F0 		.ascii	"\300\3470\360z\350\353jM\337\201F\023\254\241\266\235"
 113      7AE8EB6A 
 113      4DDF8146 
 113      13ACA1B6 
 113      9D
 114 017f 853384B4 		.ascii	"\2053\204\264;\220K\006\335\260\266\260o\317\241p\264"
 114      3B904B06 
 114      DDB0B6B0 
 114      6FCFA170 
 114      B4
 115 0190 D017404C 		.ascii	"\320\027@LB\311(VA\315\267E{\232\340\252\240\221\370"
 115      42C92856 
 115      41CDB745 
 115      7B9AE0AA 
 115      A091F8
 116 01a3 071D1100 		.ascii	"\007\035\021\000P\243\313\217\0131\015t\361\"5#8\237"
 116      50A3CB8F 
 116      0B310D74 
 116      F1223523 
 116      389F
 117 01b5 26C0F0DD 		.ascii	"&\300\360\335\031\002\270xE5\343\237\012\300_\025x="
 117      1902B878 
 117      4535E39F 
 117      0AC05F15 
 117      783D
 118 01c7 29151889 		.ascii	")\025\030\211*\3609\321\030~\\SR|\230&\205J\344\251"
 118      2AF039D1 
 118      187E5C53 
 118      527C9826 
 118      854AE4A9 
ARM GAS  /tmp/ccIHbEXQ.s 			page 9


 119 01db E54C355C 		.ascii	"\345L5\\\274F\2130u\320}\027o`\243.\353\021<\370t\357"
 119      BC468B30 
 119      75D07D17 
 119      6F60A32E 
 119      EB113CF8 
 120 01f1 FC111E76 		.ascii	"\374\021\036vQ\006G\012\337A\014\023\016\227\002\275"
 120      5106470A 
 120      DF410C13 
 120      0E9702BD 
 121 0201 9C1F84D9 		.ascii	"\234\037\204\331J\237\272\331\033\032\340%w\276?\204"
 121      4A9FBAD9 
 121      1B1AE025 
 121      77BE3F84 
 122 0211 28E67911 		.ascii	"(\346y\021f\003\012\363\025\363\320\267\037\030\004"
 122      66030AF3 
 122      15F3D0B7 
 122      1F1804
 123 0220 D629EEF8 		.ascii	"\326)\356\370\354\334\301KA\332\337.|\0141\013\010\246"
 123      ECDCC14B 
 123      41DADF2E 
 123      7C0C310B 
 123      08A6
 124 0232 F865079E 		.ascii	"\370e\007\236A\261d\206\236\023p<_\024\245\257\226O"
 124      41B16486 
 124      9E13703C 
 124      5F14A5AF 
 124      964F
 125 0244 FF5A1AED 		.ascii	"\377Z\032\355U\216\352\371-y\256\240\250\234|\272s\""
 125      558EEAF9 
 125      2D79AEA0 
 125      A89C7CBA 
 125      7322
 126 0256 7432E534 		.ascii	"t2\3454\"\325\233\220\217\361\247\364\270\350\\\012"
 126      22D59B90 
 126      8FF1A7F4 
 126      B8E85C0A 
 127 0266 AB2EF37D 		.ascii	"\253.\363}C\220=\256\356\202\263\337\205\207w\031\330"
 127      43903DAE 
 127      EE82B3DF 
 127      85877719 
 127      D8
 128 0277 1D00127F 		.ascii	"\035\000\022\177\003\030S\200\360\343\216D\307k\243"
 128      03185380 
 128      F0E38E44 
 128      C76BA3
 129 0286 3BE4ADA7 		.ascii	";\344\255\247g\250\377\257\014\365\265\027\240\264\000"
 129      67A8FFAF 
 129      0CF5B517 
 129      A0B400
 130 0295 2FA0587E 		.ascii	"/\240X~s)\2561\000\007\341\2278*\032|\234\343\351\027"
 130      7329AE31 
 130      0007E197 
 130      382A1A7C 
 130      9CE3E917 
 131 02a9 80A2B84F 		.ascii	"\200\242\270O/f\265u\261\231\2553\024\205]\203\237\353"
 131      2F66B575 
 131      B199AD33 
ARM GAS  /tmp/ccIHbEXQ.s 			page 10


 131      14855D83 
 131      9FEB
 132 02bb 555F0885 		.ascii	"U_\010\205\237\027\340-\365.J\202\252\240\257 _\256"
 132      9F17E02D 
 132      F52E4A82 
 132      AAA0AF20 
 132      5FAE
 133 02cd AC08E07A 		.ascii	"\254\010\340zl\247B)LJ\267,\225r\232;\3756\177k\253"
 133      6CA74229 
 133      4C4AB72C 
 133      95729A3B 
 133      FD367F6B 
 134 02e2 D39D73B2 		.ascii	"\323\235s\262=N.\3539^g{\177\227\233\361\275\224\007"
 134      3D4E2EEB 
 134      395E677B 
 134      7F979BF1 
 134      BD9407
 135 02f5 4636BD37 		.ascii	"F6\2757\327T\023\266\277;\333\223s6mkin9@\361^w6\275"
 135      D75413B6 
 135      BF3BDB93 
 135      73366D6B 
 135      696E3940 
 136 030e A76F7D26 		.ascii	"\247o}&\325\011f\237\273\2577\235\212\"\322\007z\234"
 136      D509669F 
 136      BBAF379D 
 136      8A22D207 
 136      7A9C
 137 0320 E696D62D 		.ascii	"\346\226\326-\255\216\337\345\355\353mO;\012\341e6\367"
 137      AD8EDFE5 
 137      EDEB6D4F 
 137      3B0AE165 
 137      36F7
 138 0332 767904AA 		.ascii	"vy\004\252\255#\214\353\314\365\347(\242\241\245u[\262"
 138      AD238CEB 
 138      CCF5E728 
 138      A2A1A575 
 138      5BB2
 139 0344 CDCDA5F7 		.ascii	"\315\315\245\367g\375\265\311U\353\200e\301\312\244"
 139      67FDB5C9 
 139      55EB8065 
 139      C1CAA4
 140 0353 33DDD97E 		.ascii	"3\335\331~\370\003\223\262|\370"
 140      F80393B2 
 140      7CF8
 141              		.text
 142              		.section	.gnu.lto_chThdCreateFromHeap.8a8164031610789c,"",%progbits
 143 0000 789C8553 		.ascii	"x\234\205S_H\223Q\024?\347~\337\234n\256\006\365P\020"
 143      5F489351 
 143      143FE77E 
 143      DF9C6EAE 
 143      06F55010 
 144 0014 B2A42050 		.ascii	"\262\244 P\366\005=\364Z\010A\017#pI\365\024\237\327"
 144      F6053DF4 
 144      5A08410F 
 144      237049F5 
 144      149FD7
 145 0027 B17DE0DC 		.ascii	"\261}\340\334\3307M\351\301\333R\210\220\220\350\301"
ARM GAS  /tmp/ccIHbEXQ.s 			page 11


 145      D8374DE9 
 145      C1DB5288 
 145      9090E8C1 
 146 0037 CA409128 		.ascii	"\312@\221(\"\254\010\322\007\255%\025MJ\351I*\212\365"
 146      22AC08D2 
 146      07AD2515 
 146      4D4AE949 
 146      2A8AF5
 147 004a 203D4448 		.ascii	" =DH\364\020\211\265\316\275\33767\205\274c\367\317"
 147      F41089B5 
 147      CEBDDF36 
 147      3785BC63 
 147      F7CF
 148 005c B9E79CFB 		.ascii	"\271\347\234\373;\277\337\371\0300\3308\016\321\237"
 148      3BBFDFF9 
 148      1830D838 
 148      0ED19F
 149 006b E900395A 		.ascii	"\351\0009Z\321\005\310\206\027\000.\3242\246\317k <"
 149      D105C886 
 149      17002ED4 
 149      32A6CF6B 
 149      203C
 150 007d DAAB7900 		.ascii	"\332\253y\000Q\257\241\356\330uD\271\001\204~\246\351"
 150      51AFA1EE 
 150      D87544B9 
 150      01847EA6 
 150      E9
 151 008e D87F0665 		.ascii	"\330\177\006e\022\326\010\343B\\\315\277\234\314\341"
 151      12D608E3 
 151      425CCDBF 
 151      9CCCE1
 152 009d 75911D18 		.ascii	"u\221\035\030\023k\205\002\242\205\364\340>\004\216"
 152      136B8502 
 152      A285F4E0 
 152      3E048E
 153 00ac 709A0E18 		.ascii	"p\232\016\030P\213|\255r8\261\331_\363Wv\213\261\314"
 153      508B7CAD 
 153      7238B1D9 
 153      5FF35776 
 153      8BB1CC
 154 00bf B0F84BA1 		.ascii	"\260\370K\241\026j\014\016l\025\371\200e\363\205\302"
 154      166A0C0E 
 154      6C15F980 
 154      65F385C2 
 155 00cf E8D2C3A1 		.ascii	"\350\322\303\241\3738\311v P\230\216q\004\027M\350\006"
 155      FB38C976 
 155      2050988E 
 155      7104174D 
 155      E806
 156 00e1 13C7B111 		.ascii	"\023\307\261\021\352\350\300<4i^\232t\037\231'\310L"
 156      EAE8C03C 
 156      34695E9A 
 156      741F9927 
 156      C84C
 157 00f3 C3050342 		.ascii	"\303\005\003B\014\007\034\267\222\225\253\212N\322,"
 157      0C071CB7 
 157      9295AB8A 
ARM GAS  /tmp/ccIHbEXQ.s 			page 12


 157      4ED22C
 158 0102 0B6D4326 		.ascii	"\013mC&Wm\021\006\363\263\313h\342m\")\212\356\363\260"
 158      576D1106 
 158      F3B3CB68 
 158      E26D2229 
 158      8AEEF3B0 
 159 0116 2A2E09BF 		.ascii	"*.\011\277\205:G\025@F=\212.\213\256\211K\3468:\231"
 159      853A4715 
 159      40463D8A 
 159      2E8BAE89 
 159      4BE6383A 
 160 012b C91DE035 		.ascii	"\311\035\3405\274\370\372\374\317e\255\234A\026TUM\033"
 160      BCF8FAFC 
 160      CF65AD9C 
 160      41165455 
 160      4D1B
 161 013d 6A406C6B 		.ascii	"j@lk9\310\324\226X\311O}\231i\256b\264\206\301\251\255"
 161      39C8D496 
 161      58C94F7D 
 161      9969AE62 
 161      B486C1A9 
 162 0152 7891B69A 		.ascii	"x\221\266\232\000m\026 \363c\366\342\343!\255Xi\251"
 162      006D1620 
 162      F363F6E2 
 162      E321AD58 
 162      69A9
 163 0164 E4ECCADC 		.ascii	"\344\354\312\334\252\2370\336Q\025\027m?\257\315x\367"
 163      AA9F30DE 
 163      5115176D 
 163      3FAFCD78 
 163      F7
 164 0175 944FB9EF 		.ascii	"\224O\271\357\324+\016XN\034p\002\307Q\275\203\364\233"
 164      D42B0E58 
 164      4E1C7002 
 164      C751BD83 
 164      F49B
 165 0187 A423DD6B 		.ascii	"\244#\335kNC5\3003\274%F\216X\262\320\212\347\327\357"
 165      4E4335C0 
 165      33BC2546 
 165      8E58B2D0 
 165      8AE7D7EF 
 166 019b E78AF7B5 		.ascii	"\347\212\367\265\016\300E\030\021o>\356*q\341+\263Y"
 166      0EC04518 
 166      116F3EEE 
 166      2A71E12B 
 166      B359
 167 01ad C7257F8A 		.ascii	"\307%\177\212M7\261\031\305\272(z\242\350\265\320SE"
 167      4D37B119 
 167      C5BA287A 
 167      A2E8B5D0 
 167      5345
 168 01bf EB84A2D5 		.ascii	"\353\204\242\325\007\360\0262\323\323S\277\213\3024"
 168      07F01632 
 168      D3D353BF 
 168      8BC234
 169 01ce C13D4183 		.ascii	"\301=A\203\334\2757\341\006\301\250''\011GSI\333q\235"
 169      DCBD37E1 
ARM GAS  /tmp/ccIHbEXQ.s 			page 13


 169      06C1A827 
 169      27094753 
 169      49DB719D 
 170 01e2 1F1F2A1C 		.ascii	"\037\037*\034\203\371\317\313n'\030\240\014c\033\307"
 170      83F9CFCB 
 170      6E2718A0 
 170      0C631BC7 
 171 01f2 9A220C15 		.ascii	"\232\"\014\025\276\035\250\265\374\022A\2454\343O7H"
 171      BE1DA8B5 
 171      FC1241A5 
 171      34E34F37 
 171      48
 172 0203 63E25D45 		.ascii	"c\342]E\325\226\332\300\177\265\371\260&\265yR\255\315"
 172      D596DAC0 
 172      7FB5F9B0 
 172      26B57952 
 172      ADCD
 173 0215 376F43B9 		.ascii	"7oC\271a\327EZ\251\020Iq\317\211\342\315:\231(7\345"
 173      61D7455A 
 173      A9104971 
 173      CF89E2CD 
 173      3A992837 
 174 022a A74BBA98 		.ascii	"\247K\272\230\370\010\033*\033PW\275\376\216\276sY\272"
 174      F8081B2A 
 174      1B5057BD 
 174      FE8EBE73 
 174      59BA
 175 023c 62EB3D60 		.ascii	"b\353=`\221@\266\266\264\223\370\320F?\325\313\357\003"
 175      9140B6B6 
 175      B493F8D0 
 175      463FD5CB 
 175      EF03
 176 024e A5AF4CB3 		.ascii	"\245\257L\2637\0304ZbV\273u\"l$l#\2256\354\0247x\254"
 176      3718345A 
 176      6256BB75 
 176      226C246C 
 176      239536EC 
 177 0266 A3AFCB8C 		.ascii	"\243\257\313\214[<\310A;g'Y:\331\264\3111\231H\245m"
 177      5B3CC841 
 177      3B672759 
 177      3AD9B4C9 
 177      319948A5 
 178 027b E3686BA8 		.ascii	"\343hk\250%\324K\021<\221\212\234\3559\034\017\306\300"
 178      25D44B11 
 178      3C918A9C 
 178      ED391C0F 
 178      C6C0
 179 028d D5637676 		.ascii	"\325cvvG\202\325\021\221\336\264\321\022\012\037\017"
 179      4782D511 
 179      91DEB4D1 
 179      120A1F0F 
 180 029d 1B5617EF 		.ascii	"\033V\027\357\354\356\210\030*\202\307\217uwq\012\332"
 180      ECEE8818 
 180      2A82C78F 
 180      7577710A 
 180      DA
 181 02ae 8CA4EC17 		.ascii	"\214\244\354\027\263\373l\362\360\207\302\255\201v\323"
ARM GAS  /tmp/ccIHbEXQ.s 			page 14


 181      B3FB6CF2 
 181      F087C2AD 
 181      8176D3
 182 02bd 8E245356 		.ascii	"\216$SVs`\377A`)p\307#\361D\252\017\376\001\341\247"
 182      7360FF41 
 182      602970C7 
 182      23F144AA 
 182      0FFE01E1 
 183 02d2 2C06     		.ascii	",\006"
 184              		.text
 185              		.section	.gnu.lto_chThdCreateFromMemoryPool.8a8164031610789c,"",%progbits
 186 0000 789C8554 		.ascii	"x\234\205TMh\023A\024~ov\363\323\244\321\250\275\010"
 186      4D681341 
 186      147E6F76 
 186      F3D3A4D1 
 186      A8BD08
 187 0013 52625110 		.ascii	"RbQ\020[\262\202\007\257JA\360\020\204\306\242\236$"
 187      5BB28207 
 187      AF4A41F0 
 187      1084C6A2 
 187      9E24
 188 0025 9D8664A1 		.ascii	"\235\206d\241iB\222\326\006\017\235\306\012\012\245"
 188      694292D6 
 188      060F9DC6 
 188      0A0AA5
 189 0034 14F15015 		.ascii	"\024\361P\025\241\245\210\242\240\210\007E\252\215E"
 189      A1A588A2 
 189      A0880745 
 189      AA8D45
 190 0043 C554DAE2 		.ascii	"\305T\332\342\315\226\036R\024r\360\240\266\010Z\213"
 190      CD961E52 
 190      1472F0A0 
 190      B6085A8B 
 191 0053 F1CD6EB2 		.ascii	"\361\315n\2626\215\330\015\231\231}\363\276y\357}\357"
 191      368DD80D 
 191      99997DF3 
 191      BE79EF7D 
 191      EF
 192 0064 9B65C060 		.ascii	"\233e\300`\363s\230\376I\025 O3\332\000\331\310\034"
 192      F37398FE 
 192      4915204F 
 192      33DA00D9 
 192      C81C
 193 0076 C0809331 		.ascii	"\300\200\2231uF\001\341R\336\314\000\210z\005U\323\256"
 193      754601E1 
 193      52DECC00 
 193      887A0555 
 193      D3AE
 194 0088 22CA0520 		.ascii	"\"\312\005 \3643E\305\376\263(\017aM0.\304\325\302\353"
 194      F43345C5 
 194      FEB3280F 
 194      614D302E 
 194      C4D5C2EB 
 195 009c 621EAF8B 		.ascii	"b\036\257\213\334\340\230X/\225\020u\244\200\373\020"
 195      DCE09858 
 195      2F951075 
 195      A480FB10 
ARM GAS  /tmp/ccIHbEXQ.s 			page 15


 196 00ac 38C2197A 		.ascii	"8\302\031zA\23711\265:\003\023\233\233\232\033\336-"
 196      419F3131 
 196      B53A0313 
 196      9B9B9A1B 
 196      DE2D
 197 00be C6B223E2 		.ascii	"\306\262#\3427AuT\030\034\330\012\371\220\345\012\245"
 197      37417554 
 197      181CD80A 
 197      F990E50A 
 197      A5
 198 00cf D2D2EAD7 		.ascii	"\322\322\352\327\217\013\270\253\001\201P*\306\020\354"
 198      8F0BB8AB 
 198      0181502A 
 198      C610EC
 199 00de 10C2716C 		.ascii	"\020\302ql\002'Y\324:\262\240\213\006\346\246A\361\320"
 199      022759D4 
 199      3AB2A08B 
 199      06E6A641 
 199      F1D0
 200 00f0 DE04EDD1 		.ascii	"\336\004\355\321c\203A!F|\246\257i\215!\205\340FM\247"
 200      63834121 
 200      467CA6AF 
 200      698D2185 
 200      E0464DA7 
 201 0104 6894A5B6 		.ascii	"h\224\245\266#\223\2632\017\203\205\373E\014\341m\242"
 201      2393B332 
 201      0F8385FB 
 201      450CE16D 
 201      A2
 202 0115 2982F60B 		.ascii	")\202\366\013\260&.\013\257\2166\216\006\200\214\252"
 202      B0262E0B 
 202      AF8E368E 
 202      06808CAA 
 203 0125 8E764925 		.ascii	"\216vI%3\275\314\223#\322\366\026^\025_.\014+\026\\"
 203      33BDCC93 
 203      23D2F616 
 203      5E155F2E 
 203      0C2B165C 
 204 0139 D653554C 		.ascii	"\326SUL;*@d+y\310:+\244\024\236,O\266T\021\352`pz+Z"
 204      3B2A4064 
 204      2B79C83A 
 204      2BA4149E 
 204      2C4FB654 
 205 0154 A4CDE1A3 		.ascii	"\244\315\341\243\305\034d\277=\277\370xH)WZ)9\367ez"
 205      C51C64BF 
 205      3DBFF878 
 205      4829575A 
 205      2939F765 
 206 0169 CD4B39DE 		.ascii	"\315K9\3361x(\333V\257M\272\367Xo\371O\012\200\231,"
 206      317828DB 
 206      56AF4DBA 
 206      F7586FF9 
 206      4F0A8099 
 207 017e 27023825 		.ascii	"'\0028%\307\321\210\203\364{@\257$%\305\324S#L\341-"
 207      C7D18883 
 207      F47B40AF 
 207      2425C5D4 
ARM GAS  /tmp/ccIHbEXQ.s 			page 16


 207      53234CE1 
 208 0193 317A5447 		.ascii	"1zTGgU\370\277\373\323\345\375:3\301Y\310.~XYf\0252"
 208      6755F8BF 
 208      FBD3E5FD 
 208      3A33C159 
 208      C82E7E58 
 209 01ab 9CCD7050 		.ascii	"\234\315pPG\327M\2701 \204\310\350\350&*\3451\365\206"
 209      47D74DB8 
 209      312084C8 
 209      E8E8262A 
 209      E531F586 
 210 01bf 7B8745D4 		.ascii	"{\207E\324<\214\212h\005\345\261:\340\341d0;`\247\323"
 210      3C8C8A68 
 210      05E5B13A 
 210      E0E16430 
 210      3B60A7D3 
 211 01d3 22581741 		.ascii	"\"X\027AW\004\335:n\253\352\306\204\321\015\217\221"
 211      5704DD3A 
 211      6EABEAC6 
 211      84D10D8F 
 211      91
 212 01e4 C0D31F2B 		.ascii	"\300\323\037+?\313\315l\206{\024V\220\373vJ\201\302"
 212      3FCBCD6C 
 212      867B1456 
 212      90FB764A 
 212      81C2
 213 01f6 7AC94986 		.ascii	"z\311I\206W\312\341\321\242u\0073\323\1777\272Z\213"
 213      57CAE1D1 
 213      A2750733 
 213      D37F37BA 
 213      5A8B
 214 0208 867FA359 		.ascii	"\206\177\243YE\0342\377K\205\331\242\303\004\002X\005"
 214      451C32FF 
 214      4B85D9A2 
 214      C3040258 
 214      05
 215 0219 ECE45223 		.ascii	"\354\344R#\206\227\001\335\005\244\334\006\231\373F"
 215      869701DD 
 215      05A4DC06 
 215      99FB46
 216 0228 2D8CBFD8 		.ascii	"-\214\277\330\244\205\020\3365z\263\245\030\340\277"
 216      A48510DE 
 216      357AB3A5 
 216      18E0BF
 217 0237 62585C97 		.ascii	"bX\\\227bxV-\206\317\356F\353\206X\346+\305\015\252"
 217      6278562D 
 217      86CFEE46 
 217      EB8658E6 
 217      2BC50DAA 
 218 024b 304EE5D4 		.ascii	"0N\345\324\363Za\204P.\254\320\025!\204\360\0216nT\274"
 218      F35A6184 
 218      502EACD0 
 218      152184F0 
 218      11366E54 
 219 0260 6ADCACF7 		.ascii	"j\334\254\367\364]\221\245\0334/\000\226\311cK\337\033"
 219      F45D91A5 
 219      1B342F00 
ARM GAS  /tmp/ccIHbEXQ.s 			page 17


 219      96C9634B 
 219      DF1B
 220 0272 880F65E8 		.ascii	"\210\017e\350W\275\274\215(}\3451{\375~\2555\252w\350"
 220      57BDBC8D 
 220      287DE531 
 220      7BFD7EAD 
 220      35AA77E8 
 221 0286 27835A3C 		.ascii	"'\203Z<\245%\323Z*\3115\036\355\314t\207b:\367sP\316"
 221      A525D35A 
 221      2AC9351E 
 221      EDCC7487 
 221      623AF773 
 222 029c A7122C9D 		.ascii	"\247\022,\235h\256qL\304\223\351\224v\254-\320\032\350"
 222      68AE714C 
 222      C493E994 
 222      76AC2DD0 
 222      1AE8
 223 02ae 23048F27 		.ascii	"#\004\217'\303\347z\217\304\374Q\260\365\206\272z\302"
 223      C3E77A8F 
 223      C4FC51B0 
 223      F586BA7A 
 223      C2
 224 02bf FE6A44B8 		.ascii	"\376jD\270/\255\265\006\202'\202\232\336\315\273z:\303"
 224      2FADB506 
 224      8227829A 
 224      DECDBB7A 
 224      3AC3
 225 02d1 9A81E0B1 		.ascii	"\232\201\340\261\343=\335\234@\265\231X~\321T&E\036"
 225      E33DDD9C 
 225      40B59958 
 225      7ED15426 
 225      451E
 226 02e3 DE40B0CD 		.ascii	"\336@\260\315\327\021J\205\023I\275\305\267\377\020"
 226      D7114A85 
 226      1349BDC5 
 226      B7FF10
 227 02f2 B0243862 		.ascii	"\260$8b\341X<\231\201?\2118Ea"
 227      E1583C99 
 227      813F8938 
 227      4561
 228              		.text
 229              		.section	.gnu.lto_.symbol_nodes.8a8164031610789c,"",%progbits
 230 0000 789C4DC8 		.ascii	"x\234M\310M\012\3020\030\204\341\231/i\223\366\020^"
 230      4D0AC230 
 230      1884E199 
 230      2F6993F6 
 230      105E
 231 0012 F52B4444 		.ascii	"\365+DDp\343\005t\343M\354\276gP\\u\351\017T\324\212"
 231      70E30574 
 231      E34DECBE 
 231      67505C75 
 231      E90F54D4 
 232 0027 292DA6B3 		.ascii	")-\246\263\031\236W h1M\226\242\300\266\001Twk\312\225"
 232      199E5720 
 232      68314D96 
 232      A2C0B601 
 232      54776BCA 
ARM GAS  /tmp/ccIHbEXQ.s 			page 18


 233 003c CA89FBC8 		.ascii	"\312\211\373\310\033Uf\274S\315\214\017\252M\344\223"
 233      1B5566BC 
 233      53CD8C0F 
 233      AA4DE493 
 234 004c 9A8DAC2A 		.ascii	"\232\215\254*\262\243\346I\037\252KzS}\322\213Z$\365"
 234      B2A3E649 
 234      1FAA4B7A 
 234      537DD28B 
 234      5A24F5
 235 005f D4F22F83 		.ascii	"\324\362/\203\014\227\363\227Fr\204M\023\0378\016o\012"
 235      0C97F397 
 235      4672844D 
 235      131F380E 
 235      6F0A
 236 0071 8453ECC6 		.ascii	"\204S\354\306\343\320v\361\035\302\252_\030[\216\335"
 236      E3D076F1 
 236      1DC2AA5F 
 236      185B8EDD 
 237 0081 7AD443B7 		.ascii	"z\324C\267\016u\354\370\001@dIC"
 237      0E75ECF8 
 237      01406449 
 237      43
 238              		.text
 239              		.section	.gnu.lto_.refs.8a8164031610789c,"",%progbits
 240 0000 789C6362 		.ascii	"x\234cb`b`d\200\002\000\000F\000\006"
 240      60626064 
 240      80020000 
 240      460006
 241              		.text
 242              		.section	.gnu.lto_.decls.8a8164031610789c,"",%progbits
 243 0000 789CBD5B 		.ascii	"x\234\275[\013p\024U\272\356\3233\223\311$\303C\275"
 243      0B701455 
 243      BAEED333 
 243      93C924C3 
 243      43BD
 244 0012 BAC172D7 		.ascii	"\272\301r\327qKw\255\365\222DD\027\267\352.\272\324"
 244      714B77AD 
 244      F5924444 
 244      17B7EA2E 
 244      BAD4
 245 0024 75F1DE75 		.ascii	"u\361\336u\327\225\265\366V\355\27556\223&3\227y9\323"
 245      D795B5F6 
 245      56EDBD35 
 245      36932633 
 245      977939D3 
 246 0038 21646BAB 		.ascii	"!dk\253\354\004I\002*\006\242!A\220d\005]\221\015FA"
 246      EC044902 
 246      2A06A221 
 246      41906405 
 246      5D910D46 
 247 004d B474CD60 		.ascii	"\264t\315`AxI$b\000\311\002\003\341\261\262+\022\"`"
 247      41784924 
 247      6200C902 
 247      03E1B1B2 
 247      2B122260 
 248 0061 0A65EE7F 		.ascii	"\012e\356\177Nw\317t\237\351\356\351\031\256\333U\247"
 248      4E77CF74 
ARM GAS  /tmp/ccIHbEXQ.s 			page 19


 248      9FE9EEE9 
 248      19AEDB55 
 248      A7
 249 0072 A71FE77C 		.ascii	"\247\037\347|\377\363\374\377\177N',\3032\267\332\030"
 249      FFF3FCFF 
 249      7F4E272C 
 249      C332B7DA 
 249      18
 250 0083 260587ED 		.ascii	"&\005\207\355'\014s\310\3110E\014\303\374\024\032\013"
 250      270C73C8 
 250      C930450C 
 250      C3FC141A 
 250      0B
 251 0094 0D31D23D 		.ascii	"\0151\322=>J\241uA\373-<\374\037h>h\335\320\366@\373"
 251      3E4AA175 
 251      41FB2D3C 
 251      FC1F683E 
 251      68DDD0F6 
 252 00aa 18DA27D0 		.ascii	"\030\332'\320>\205v\014\332)\304d\035xl1\264K\320\306"
 252      3E85760C 
 252      DA29C464 
 252      1D786C31 
 252      B44BD0C6 
 253 00be 4373435B 		.ascii	"CsC[\003m:\264\265\320\316\300\230~h\300\016s\030\332"
 253      036D3AB4 
 253      B5D0CEC0 
 253      987E68C0 
 253      0E7318DA 
 254 00d2 10B45F23 		.ascii	"\020\264_#\211\017<\026\323\261\303\357\337\341\367"
 254      890F3C16 
 254      D3B1C3EF 
 254      DFE1F7
 255 00e1 37D046A0 		.ascii	"7\320F\240\235\247\350`\336\\2\337\033UtF\341\301\005"
 255      9DA7E860 
 255      DE5C32DF 
 255      1B557446 
 255      E1C105
 256 00f4 24D15E2B 		.ascii	"$\321^+\323\305}.\312\362\341q\227\240]\206v\005\232"
 256      D3C57D2E 
 256      CAF2E171 
 256      97A05D86 
 256      76059A
 257 0107 138896B0 		.ascii	"\023\210\226\260\022\355\337\301\3758VK\007\313?Q\306"
 257      12EDDFC1 
 257      FD38564B 
 257      07CB3F51 
 257      C6
 258 0118 5843C9B4 		.ascii	"XC\311\264QE\017\323:\015\355\274\254\323.x\266\012"
 258      51450FD3 
 258      3A0DEDBC 
 258      ACD32E78 
 258      B60A
 259 012a DAB580F7 		.ascii	"\332\265\200\367G\270w\310<\234\2026\242\222\273X\246"
 259      47B877C8 
 259      3C9C8236 
 259      A292BB58 
 259      A6
ARM GAS  /tmp/ccIHbEXQ.s 			page 20


 260 013b A1C713D6 		.ascii	"\241\307\023\326u\227<\226C\222>\256\203\347\377\002"
 260      75973C96 
 260      43923EAE 
 260      83E7FF02 
 261 014b ED7A8A4F 		.ascii	"\355z\212Ol\243kd\035\253u~\003\364;\216\264\274~\007"
 261      6CA36B64 
 261      1DAB757E 
 261      03F43B8E 
 261      B4BC7E07 
 262 015f 9E1D4212 		.ascii	"\236\035B\022\257ke\331\312XI?\203H\272\307<\272d\334"
 262      AF6B65D9 
 262      CA58493F 
 262      8348BAC7 
 262      3CBA64DC 
 263 0173 63147F9F 		.ascii	"c\024\177\237\312>\240\360\211\371[\003\367/C{\005\332"
 263      CA3EA0F0 
 263      89F95B03 
 263      F72F437B 
 263      05DA
 264 0185 ABD05EA3 		.ascii	"\253\320^\243\354\205\375\347z\035\376\360\330I\200"
 264      EC85FDE7 
 264      7A1DFEF0 
 264      D84980
 265 0194 719AE2F1 		.ascii	"q\232\342\361qho@\353\261\300/\366\243^$\361\374k\331"
 265      71686F40 
 265      EBB1C02F 
 265      F6A35E24 
 265      F1FC6BD9 
 266 01a8 2FBA65DF 		.ascii	"/\272e\337\314\305\367v\270\337\011m\027\264\335\320"
 266      CCC5F776 
 266      B8DF096D 
 266      17B4DDD0 
 267 01b8 6EA4F47A 		.ascii	"n\244\364z3\363\242\230H&O\236}}RsgC\"\225\232\316\334"
 267      33F3A298 
 267      48264F9E 
 267      7D7D5273 
 267      67432295 
 268 01cf C03C2FC2 		.ascii	"\300</\302\321\331(\212H\340\320O\257g\376\013qh\274"
 268      D1D9288A 
 268      48E0D04F 
 268      AF67FE0B 
 268      7168BC
 269 01e2 8BF1900B 		.ascii	"\213\361\220\013\267\2138/6\331\037\321\015\344\312"
 269      B78B382F 
 269      36D91FD1 
 269      0DE4CA
 270 01f1 46DC0BE6 		.ascii	"F\334\013\346\325bQl\300\003g\356\030\177-\263\024\243"
 270      D562516C 
 270      C00367EE 
 270      187F2DB3 
 270      14A3
 271 0203 78768036 		.ascii	"xv\2006\344\361\242]\001\270\017z\337\306\254\021\305"
 271      E4F1A25D 
 271      01B80F7A 
 271      DFC6AC11 
 271      C5
 272 0214 9664C737 		.ascii	"\226d\3077\373l\242X\314\241\265\350Z\200\371O\304\374"
ARM GAS  /tmp/ccIHbEXQ.s 			page 21


 272      FB6CA258 
 272      CCA1B5E8 
 272      5A80F94F 
 272      C4FC
 273 0226 88791506 		.ascii	"\210y\025\006\266\000\324\035:\223\217\311\011\314b"
 273      B600D41D 
 273      3A938FC9 
 273      09CC62
 274 0235 47E7D0AB 		.ascii	"G\347\320\253\200\307\241?\241\037I\224\304\344\013"
 274      80C7A13F 
 274      A11F4994 
 274      C4E40B
 275 0244 4DDB16A0 		.ascii	"M\333\026\240z\020Jz\307\310ou\216[\230N\240\236X\276"
 275      7A104A7A 
 275      C7C86F75 
 275      8E5B984E 
 275      A09E58BE 
 276 0258 64D524B1 		.ascii	"d\325$\261\363\003\350\277\006\225\002l3Rp\365\024\""
 276      F303E8BF 
 276      0695026C 
 276      335270F5 
 276      1422
 277 026a 5F4A87DC 		.ascii	"_J\207\334A\213\267\242\337\335\302)`\317\346\015\346"
 277      418BB7A2 
 277      DFDDC229 
 277      60CFE60D 
 277      E6
 278 027b D180ADEE 		.ascii	"\321\200\255\356_I\230s1\315\031\2453\272`\262\246\017"
 278      5F499873 
 278      31CD19A5 
 278      33BA60B2 
 278      A60F
 279 028d 2FDE3A80 		.ascii	"/\336:\200\026\020\371{`\030\013q\010it`\035jh\311\266"
 279      1610F97B 
 279      60180B71 
 279      08697460 
 279      1D6A68C9 
 280 02a2 2DA88140 		.ascii	"-\250\201@m$P;\331B\241\006\333\336\273\227\330\177"
 280      6D24503B 
 280      D942A106 
 280      DBDEBB97 
 280      D87F
 281 02b4 33013A60 		.ascii	"3\001:`\323\002q\310\231Vc\372^\351\200\321\310k\371"
 281      D30271C8 
 281      995663FA 
 281      5EE980D1 
 281      C86BF9
 282 02c7 0207FF09 		.ascii	"\002\007\377\011\314\267\334\235e\216\333,\230\256\330"
 282      CCB7DC9D 
 282      658EDB2C 
 282      98AED8
 283 02d6 C80FC4E4 		.ascii	"\310\017\304\344\212\246\017m\035b\342I\233\354\312"
 283      8AA60F6D 
 283      1D62E249 
 283      9BECCA
 284 02e5 9D45463A 		.ascii	"\235EF:b\231\317\010\255\367h_\336w\364\303\006\331"
 284      6299CF08 
ARM GAS  /tmp/ccIHbEXQ.s 			page 22


 284      ADF7685F 
 284      DE77F4C3 
 284      06D9
 285 02f7 97DFB3E4 		.ascii	"\227\337\263\344\313\233v-'\356\222k\216v\262\012\375"
 285      CB9B762D 
 285      27EE926B 
 285      8E76B20A 
 285      FD
 286 0308 5B09FD0E 		.ascii	"[\011\375\016;\246\277%k.\015\377mz\273(N\224^\345&"
 286      3BA6BF25 
 286      6B2E0DFF 
 286      6D7ABB28 
 286      4E945EE5 
 287 031d 3FF0F173 		.ascii	"?\360\361s\331\344\015c\213\354\032\373\216\236\032"
 287      D9E40D63 
 287      8BEC1AFB 
 287      8E9E1A
 288 032c 9185DC46 		.ascii	"\221\205\334F\346\314\200\235v\216\351\245Z\363\301"
 288      E6CC809D 
 288      768EE9A5 
 288      5AF3C1
 289 033b BDAA03CB 		.ascii	"\275\252\003\313\034J\263_\320\224\0059w\374\307\253"
 289      1C4AB35F 
 289      D0940539 
 289      77FCC7AB 
 290 034b 6F88E2A2 		.ascii	"o\210\342\242\"\205\207\303y#z4\232\370\344c\022\004"
 290      228587C3 
 290      79237A34 
 290      9AF8E463 
 290      1204
 291 035d 24B0A415 		.ascii	"$\260\244\0250COjH\354W\203\015\347\015\246\345\354"
 291      30434F6A 
 291      48EC5783 
 291      0DE70DA6 
 291      E5EC
 292 036f A01AEC94 		.ascii	"\240\032\354\224\025\260\211\306\234\035R\203}\2267"
 292      15B089C6 
 292      9C1D5283 
 292      7D9637
 293 037e 9896B3BF 		.ascii	"\230\226\263\277\252\301\376a\005\254\314\230\263#j"
 293      AAC1FE61 
 293      05ACCC98 
 293      B3236A
 294 038d B0737983 		.ascii	"\260sy\203i9;\247\006\373\322\012\230G\207\263\364a"
 294      69393BA7 
 294      06FBD20A 
 294      984787B3 
 294      F461
 295 039f 94681328 		.ascii	"\224h\023(\355\347,s\311\256\204\204<}\232\311`\\\266"
 295      EDE72C73 
 295      C9AE8484 
 295      3C7D9AC9 
 295      605CB6
 296 03b2 E71BC234 		.ascii	"\347\033\3024rC.\335\363\022j] \356\250T\362Y\275\303"
 296      72432EDD 
 296      F3126A5D 
 296      20EEA854 
ARM GAS  /tmp/ccIHbEXQ.s 			page 23


 296      F259BDC3 
 297 03c6 02A289C3 		.ascii	"\002\242\211\303\274\245N\216\213\362\006\323\232\345"
 297      BCA54E8E 
 297      8BF206D3 
 297      9AE5
 298 03d4 130CA689 		.ascii	"\023\014\246\2115rBJ\256M\224\265g\242]\261\202\205"
 298      3572424A 
 298      AE4D94B5 
 298      67A25DB1 
 298      8285
 299 03e6 0B0D29B4 		.ascii	"\013\015)\264A\335\301\246;\213ee\372}9t\034\335\006"
 299      41DDC1A6 
 299      3B8B6565 
 299      FA7D3974 
 299      1CDD06
 300 03f9 E761E44A 		.ascii	"\347a\344Js!]+W)R\360/u\350\2250\004\300|\250\221'$"
 300      73215D2B 
 300      572952F0 
 300      2F75E895 
 300      3004C07C 
 301 0411 D59ED066 		.ascii	"\325\236\320fEM&S\341r\377\312\357\210\311\004R\311"
 301      454D2653 
 301      E172FFCA 
 301      EF88C904 
 301      52C9
 302 0423 6BAA1CA8 		.ascii	"k\252\034\250!v\275\377o$[\237&\331z\225C7\355[\000"
 302      2176BDFF 
 302      6F245B9F 
 302      26D97A95 
 302      4337ED5B 
 303 0438 1A5AF2E7 		.ascii	"\032Z\362\347;\010\320\031\002\364r\301@\203m/N#@\237"
 303      3B08D019 
 303      02F472C1 
 303      40836D2F 
 303      4E23409F 
 304 044c 13A06E07 		.ascii	"\023\240n\007\235\"\020U? m\206Ok^V\374\267\325\227"
 304      9D221055 
 304      3F206D86 
 304      4F6B5E56 
 304      FCB7D597 
 305 0460 65DEA6AD 		.ascii	"e\336\246\255\245\021'g\254I\276\260\375D+\032m\020"
 305      A5112767 
 305      AC49BEB0 
 305      FD442B1A 
 305      6D10
 306 0472 DB2BF3B0 		.ascii	"\333+\363\260\327b\331^\347\211v\022Y\3329\223\247z"
 306      D762D95E 
 306      E7897612 
 306      59DA3993 
 306      A77A
 307 0484 586647DE 		.ascii	"XfG\336b\334\256\025\243\351t\001b\364Jb\\\"b\354\375"
 307      62DCAE15 
 307      A3E97401 
 307      62F44A62 
 307      5C2262EC 
 308 0499 7F10E360 		.ascii	"\177\020\343`\336bT\252\304\200\012h\373\245\347\244"
 308      DE6254AA 
ARM GAS  /tmp/ccIHbEXQ.s 			page 24


 308      C4800A68 
 308      FBA5E7A4 
 309 04a9 08781DB3 		.ascii	"\010x\035\263\314\274\212\303\374|\215\256\323TP\211"
 309      CCBC8AC3 
 309      FC7C8DAE 
 309      D3545089 
 310 04b9 0B1F218F 		.ascii	"\013\037!\217\3648W\365$&Z?V\325\372\242\245Z\177W\272"
 310      F43857F5 
 310      24265A3F 
 310      56D5FAA2 
 310      A55A7F57 
 311 04ce D64F1195 		.ascii	"\326O\021\225\035\325\233`V\240:\207\372\257\027\355"
 311      1DD59B60 
 311      56A03A87 
 311      FAAF17ED 
 312 04de 1C6A6031 		.ascii	"\034j`1\314\311Ba\222\203\3737K\363t!\001\372<\313\204"
 312      CCC94261 
 312      9283FB37 
 312      4BF37421 
 312      01FA3CCB 
 313 04f3 4594058B 		.ascii	"E\224\005\213\264\026\204[L\351+\\\205\243'\344'\370"
 313      B416845B 
 313      4CE92B5C 
 313      85A327E4 
 313      27F8
 314 0505 C6C9FCD3 		.ascii	"\306\311\374\323\307A\016&\354c\353\025RW\342\265\350"
 314      C7410E26 
 314      EC63EB15 
 314      5257E2B5 
 314      E8
 315 0516 87CF29F9 		.ascii	"\207\317)\371S2\320\225\253BlH\364.S\026\253\323q\006"
 315      5332D095 
 315      AB426C48 
 315      F42E5316 
 315      ABD37106 
 316 052a 6D2ABA3A 		.ascii	"m*\272:8Rri2(U\272\2575\310:\312\262\276\347\351\177"
 316      38527269 
 316      322855BA 
 316      AF35C83A 
 316      CAB2BEE7 
 317 0540 25E67E96 		.ascii	"%\346~\226\305\354,)\242\315\275\006Q\245;~\240\352"
 317      C5EC2C29 
 317      A2CDBD06 
 317      51A53B7E 
 317      A0EA
 318 0552 62349196 		.ascii	"b4\221\226\260\252\004\330uUR\342I|\2302\303+W\251\267"
 318      B0AA04D8 
 318      755552E2 
 318      497C9832 
 318      C32B57A9 
 319 0567 8ED65596 		.ascii	"\216\326U\226\326Y\217)Xn\"\310\006Bv9K-\263\306F\223"
 319      D6598F29 
 319      586E22C8 
 319      06427639 
 319      4B2DB3C6 
 320 057d 8DF23A1B 		.ascii	"\215\362:\033\277\313\035)\206N\272\304en\035z\367\251"
 320      BFCB1D29 
ARM GAS  /tmp/ccIHbEXQ.s 			page 25


 320      864EBAC4 
 320      656E1D7A 
 320      F7A9
 321 058f 8B3AC546 		.ascii	"\213:\305F]\317<Hl\364\002\213\267^\216P6RV\247\367"
 321      5DCF3C48 
 321      6CF4028B 
 321      B75E8E50 
 321      365256A7 
 322 05a4 19C1B0CC 		.ascii	"\031\301\260\314Y2\344E\232m\210\215\312\352\364E\013"
 322      5932E445 
 322      9A6D888D 
 322      CAEAF445 
 322      0B
 323 05b5 6C372446 		.ascii	"l7$F\236R\357\264p\350\317\210\225q\013\263\302\371"
 323      9E52EFB4 
 323      70E8CF88 
 323      95710BB3 
 323      C2F9
 324 05c7 DDE96292 		.ascii	"\335\351b\222C\033\362\006\363\350\261\252\370iFZ\016"
 324      431BF206 
 324      F3E8B1AA 
 324      F869465A 
 324      0E
 325 05d8 75B2B808 		.ascii	"u\262\270\010\354bo\301\233apN\037,\223J[TOu\271]sl"
 325      EC626FC1 
 325      9B61704E 
 325      1F2C934A 
 325      5B544F75 
 326 05f0 F4AB36C9 		.ascii	"\364\2536\3115\363\211\372}J\324_K\242l\223\223\236"
 326      35F389FA 
 326      7D4AD45F 
 326      4BA26C93 
 326      939E
 327 0602 76388C6B 		.ascii	"v8\214k\304\311+\354=\343\244\204\262\272^M\037F\323"
 327      C4C92BEC 
 327      3DE3A484 
 327      B2BA5E4D 
 327      1F46D3
 328 0615 BA4D3DAD 		.ascii	"\272M=\255[\235W5\011\301\377\316\256\221t\227sK\022"
 328      5B9D5735 
 328      09C1FFCE 
 328      AE917497 
 328      734B12
 329 0628 A957132C 		.ascii	"\251W\023,\263\202P^O;\364\362\313;\232d\207^oi\036"
 329      B382505E 
 329      4F3BF4F2 
 329      CB3B9A64 
 329      875E6F69 
 330 063d 5E20F350 		.ascii	"^ \363P\231Y\333\322\250\205\370BCb\354\263\235\210"
 330      9959DBD2 
 330      A885F842 
 330      4362ECB3 
 330      9D88
 331 064f C049ABA3 		.ascii	"\300I\253\243=4\\\236\273\006_\363\371*F\362\257\304"
 331      3D345C9E 
 331      BB065FF3 
 331      F92A46F2 
ARM GAS  /tmp/ccIHbEXQ.s 			page 26


 331      AFC4
 332 0661 A72771CD 		.ascii	"\247'q\315\262\211\3104\230\345Z\222fT\256\265^5S\272"
 332      B289C834 
 332      98E55A92 
 332      6654AEB5 
 332      5E3553BA 
 333 0675 C94CD940 		.ascii	"\311L\331@fJ\0179\277\251\236/Fn\261Q\355\026\207\363"
 333      664A0F39 
 333      BFA99E2F 
 333      466EB151 
 333      ED1687F3 
 334 0689 96DB63D1 		.ascii	"\226\333c\321\373^S\2239q\225\336\267b\373E;\331\336"
 334      FB5E5393 
 334      397195DE 
 334      B762FB45 
 334      3BD9DE
 335 069c CB636B76 		.ascii	"\313ckv\3276e\342\276K&\356\337\263\264\273\221\256"
 335      D73665E2 
 335      BE4B26EE 
 335      DFB3B4BB 
 335      91AE
 336 06ae 70ADEC54 		.ascii	"p\255\354T^*T\224\364\001\205\211\323\302\"\323c\244"
 336      5E2A5494 
 336      F4018589 
 336      D3C222D3 
 336      63A4
 337 06c0 0E5CEA5C 		.ascii	"\016\\\352\\\221sl\316\355N%/\235|z&\311K[\210\2475"
 337      91736CCE 
 337      ED4E252F 
 337      9D7C7A26 
 337      C94B5B88 
 338 06d6 14EBE725 		.ascii	"\024\353\347%\223]\323\245d\310\326\254\274\324\364"
 338      935DD3A5 
 338      64C8D6AC 
 338      BCD4F4
 339 06e5 A59297B6 		.ascii	"\245\222\227\266Z\312K\373t\363\322\326\374\363\222"
 339      5ACA4BFB 
 339      74F3D2D6 
 339      FCF392
 340 06f4 DEA16690 		.ascii	"\336\241f\220C}d\202l\327&\221\256\342|u\357Q\353>\361"
 340      437D6482 
 340      6CD72691 
 340      AEE27C75 
 340      EF51EB3E 
 341 0709 FCFE9548 		.ascii	"\374\376\225H\342_\012D\257\321xz\201\350v#[6$^\337"
 341      E25F0A44 
 341      AFD1787A 
 341      81E87623 
 341      5B36245E 
 342 071e 4FF2AAE4 		.ascii	"O\362\252\344\243oYa\256\322\030\254\267MQ\356k\244"
 342      A36F5961 
 342      AED218AC 
 342      B74D51EE 
 342      6BA4
 343 0730 46DC9237 		.ascii	"F\334\2227\236G\203w`\377J\031O\372\274\261\333\012"
 343      9E478377 
 343      60FF4A19 
ARM GAS  /tmp/ccIHbEXQ.s 			page 27


 343      4FFABCB1 
 343      DB0A
 344 0742 DE3463FE 		.ascii	"\3364c\376.\264i*\352\375y\303y\314l\237\371<\005\362"
 344      2EB4692A 
 344      EAFD79C3 
 344      79CC6C9F 
 344      F93C05F2 
 345 0756 93BDA4F5 		.ascii	"\223\275\244\365\010\207\305nr~\235\234\337%\347!r>"
 345      0887C56E 
 345      727E9D9C 
 345      DF25E721 
 345      723E
 346 0768 4CCE47C9 		.ascii	"L\316G\311\371\0249\217\220\363Er\276L\316\011\022X"
 346      F914398F 
 346      90F34572 
 346      BE4CCE09 
 346      1258
 347 077a 7792F36E 		.ascii	"w\222\363nr\336C\316\037\221\363\200\225\200KU\341\034"
 347      72DE43CE 
 347      1F91F380 
 347      95804B55 
 347      E11C
 348 078c 7AD4A6F2 		.ascii	"z\324\246\362\307#\324T\274\225yI\024\227%O\236\375"
 348      C723D454 
 348      BC957949 
 348      1497254F 
 348      9EFD
 349 079e 1BFEA061 		.ascii	"\033\376\240aW\022\324y\322\255\013\335\254K&]\373\377"
 349      5712D479 
 349      D2AD0BDD 
 349      AC4B265D 
 349      FBFF
 350 07b0 80598BF7 		.ascii	"\200Y\213\367\333\236\021\027ND\344[\000#\217\322(j"
 350      DB9E1117 
 350      4E44E45B 
 350      00238FD2 
 350      286A
 351 07c2 1FABF964 		.ascii	"\037\253\371d\211?Xv&\023\035}\317\200"
 351      893F5876 
 351      26131D7D 
 351      CF80
 352 07d0 71743F58 		.ascii	"qt?Xbt#\361\016\262\232/\226\212\274\032!/\350\012)"
 352      627423F1 
 352      0EB29A2F 
 352      968ABC1A 
 352      212FE80A 
 353 07e5 B6F23395 		.ascii	"\266\3623\225\356\203,\016\003\007X+\3625\210\233O<"
 353      EE832C0E 
 353      0307582B 
 353      F235889B 
 353      4F3C
 354 07f7 3C537966 		.ascii	"<Syf<Jf\360\220\256\264\227\032wC\001 ~\235J-(\316\343"
 354      3C4A66F0 
 354      90AEB497 
 354      1A774301 
 354      207E9D4A 
 355 080f FBEC110B 		.ascii	"\373\354\021\013\322\326\273t\245\275\\EI{\330\222\264"
ARM GAS  /tmp/ccIHbEXQ.s 			page 28


 355      D2D6BB74 
 355      A5BD5C45 
 355      497BD892 
 355      B4
 356 0820 22654D3C 		.ascii	"\"eM<Jc\315\244\256|#\273\012\262\346\0116\367\367\347"
 356      4A63CDA4 
 356      AE7C23BB 
 356      0AB2E609 
 356      36F7F7E7 
 357 0834 E6E1CC6E 		.ascii	"\346\341\314n\252\230\376\270\345a\322\331\346/\353"
 357      AA98FEB8 
 357      E561D2D9 
 357      E62FEB
 358 0843 8E6D9773 		.ascii	"\216m\227s\357i\022${\\\272\371\306\004\211ez\311\230"
 358      EF691224 
 358      7B5CBAF9 
 358      C6048965 
 358      7AC998
 359 0856 3354C249 		.ascii	"3T\302I\3646\272\361\336\311\031K\311f\240oe\366\322"
 359      F436BAF1 
 359      DEC9194B 
 359      C966A06F 
 359      65F6D2
 360 0869 91D2C674 		.ascii	"\221\322\306tce|\241U\206\365\342cs\367\261\237l \337"
 360      63657CA1 
 360      5586F5E2 
 360      6373F7B1 
 360      9F6C20DF 
 361 087d F246485C 		.ascii	"\362FH\\\357/\241k\017\007Uz8\264\245\207\303\225\271"
 361      EF2FA16B 
 361      0F07557A 
 361      38B4A587 
 361      C395B9
 362 0890 904B0F8D 		.ascii	"\220K\017\215\223\231\320\036z\353X\233\274\300=K\222"
 362      9399D01E 
 362      7AEB589B 
 362      BCC03D4B 
 362      92
 363 08a1 C0658A38 		.ascii	"\300e\2128\265\353\200\2054R\300E\266\324@\307Y\357"
 363      B5EB8085 
 363      3452C045 
 363      B6D440C7 
 363      59EF
 364 08b3 58A6B954 		.ascii	"X\246\271T1X!E\236\010^3p\343;\033E\261\3471y\373/Q"
 364      31582145 
 364      9E085E33 
 364      70E33B1B 
 364      45B1E731 
 365 08cb A4F60F6A 		.ascii	"\244\366\017j\235\334J\250\215\261\324\036`k\237\315"
 365      9DDC4AA8 
 365      8DB1D41E 
 365      606B9FCD 
 366 08db 233DCEED 		.ascii	"#=\316\355\035\3177>{\243\330\371t\231l\327D\243\330"
 366      1DCF373E 
 366      7BA3D8F9 
 366      74996CD7 
 366      44A3D8
ARM GAS  /tmp/ccIHbEXQ.s 			page 29


 367 08ee 8CEA7B6E 		.ascii	"\214\352{n2]\340\357;z\266K\326\3567\304\264\253Ku\267"
 367      325DE0EF 
 367      3B7AB64B 
 367      D6EE37C4 
 367      B4AB4B75 
 368 0903 D92D810D 		.ascii	"\331-\201\015-\371H\371\346/\3320\330\272\302\301:\007"
 368      2DF948F9 
 368      E62FDA30 
 368      D8BAC2C1 
 368      3A07
 369 0915 F7DF8427 		.ascii	"\367\337\204'\306\002\002\364f)\355p.\312\341\\Z\207"
 369      C60202F4 
 369      6629ED70 
 369      2ECAE15C 
 369      5A87
 370 0927 73B93217 		.ascii	"s\2712\027)\345\240\367\343\277\3051,\363~\332\240\205"
 370      29E5A0F7 
 370      E3BFC531 
 370      2CF37EDA 
 370      A085
 371 0939 ACE8B0FB 		.ascii	"\254\350\260\373\354\234\004\023;S\023\033n\262`\266"
 371      EC9C0413 
 371      3B53131B 
 371      6EB260B6 
 372 0949 9A6D545C 		.ascii	"\232mT\\Y\336\207\027b\370q\356\245\350\352>\234;\334"
 372      59DE8717 
 372      62F871EE 
 372      A5E8EA3E 
 372      9C3BDC
 373 095c 9676A99F 		.ascii	"\226v\251\237\262Q\036\332\321\307z\244\307\271=\364"
 373      B2511EDA 
 373      D1C77AA4 
 373      C7B93DF4 
 374 096c 85469DAD 		.ascii	"\205F\235\255/\215\222\262\350-\261\251\326][\211N1"
 374      2F8D92B2 
 374      E82DB1A9 
 374      D65D5B89 
 374      4E31
 375 097e AD82D65D 		.ascii	"\255\202\326]\211\225}\2448=E\342\310\316B\301\322\007"
 375      89957DA4 
 375      383D45E2 
 375      C8CE42C1 
 375      D207
 376 0990 04428281 		.ascii	"\004B\202\201\265\\\030C=}JA*\005\326\275y\343y\262"
 376      B55C1843 
 376      3D7D4A41 
 376      2A05D6BD 
 376      79E379B2 
 377 09a4 781A2CD4 		.ascii	"x\032,\324\361T\030\007\350\330\247\207a\374\367+\211"
 377      F1541807 
 377      E8D8A787 
 377      61FCF72B 
 377      89
 378 09b5 830F603D 		.ascii	"\203\017`=K\333\000Gh,\355\306\201\352\322\332\222\350"
 378      4BDB0047 
 378      682CEDC6 
 378      81EAD2DA 
ARM GAS  /tmp/ccIHbEXQ.s 			page 30


 378      92E8
 379 09c7 8C6A49F4 		.ascii	"\214jI\364\017\262$\372\234\024\257_\221\363r\233\205"
 379      0FB224FA 
 379      9C14AF5F 
 379      91F3729B 
 379      85
 380 09d8 12F65466 		.ascii	"\022\366Tf1\237.|F\244m\257\364}\017R\337\233e\\\223"
 380      319F2E7C 
 380      46A46DAF 
 380      F47D0F52 
 380      DF9B655C 
 381 09ed F26A958D 		.ascii	"\362j\225\215*\257\246S\325\225\331\032\267\367\230"
 381      2AAFA653 
 381      D595D91A 
 381      B7F798
 382 09fc B2B3BBD2 		.ascii	"\262\263\273\322\206\035v\261\3334\361aZF|t\331\214"
 382      861D76B1 
 382      DB34F161 
 382      5A467C74 
 382      D98C
 383 0a0e 135FF63B 		.ascii	"\023_\366;5\267LV\205\277\314\255[\341/\354\036qH\025"
 383      35B74C56 
 383      85BFCCAD 
 383      5BE12FEC 
 383      1E714815 
 384 0a22 BE34BD5E 		.ascii	"\2764\275^&\335\206\015kBb\003\271\224\034\303\2053"
 384      26DD860D 
 384      6B426203 
 384      B9941CC3 
 384      8533
 385 0a34 3600879E 		.ascii	"6\000\207\236\263\261\246\303\210\231\244a\211\321]"
 385      B3B1A6C3 
 385      8899A461 
 385      89D15D
 386 0a43 AFC0EC61 		.ascii	"\257\300\354a\225\325\334\372\034\024\211Ee\212C\230"
 386      95D5DCFA 
 386      1C148945 
 386      658A4398 
 387 0a53 A2A4D69E 		.ascii	"\242\244\326\236\034\303p/eX\012\017#k\275\2159FMW\325"
 387      1CC3702F 
 387      65580A0F 
 387      236BBD8D 
 387      39464D57 
 388 0a68 F7A4785D 		.ascii	"\367\244x]\214\031UJ|\243q\262I^\262\351\225\300o\367"
 388      8C19554A 
 388      7CA371B2 
 388      495EB2E9 
 388      95C06FF7 
 389 0a7c BB5BEA93 		.ascii	"\273[\352\223\251\324\315y\324\277\033ly\375\375\345"
 389      A9D4CD79 
 389      D4BF1B6C 
 389      79FDFDE5 
 390 0a8c 63CA7877 		.ascii	"c\312xw\306\017G\206G\312\244\342\367\015\033\236\317"
 390      C60F4786 
 390      47CAA4E2 
 390      F70D1B9E 
 390      CF
ARM GAS  /tmp/ccIHbEXQ.s 			page 31


 391 0a9d 47DDFAC5 		.ascii	"G\335\372\305\257\021\014fc\023\235\236\226\366\221"
 391      AF110C66 
 391      63139D9E 
 391      96F691
 392 0aac B2779385 		.ascii	"\262w\223\205\374\324\220h\325K\033\026\366x>'\234\276"
 392      FCD49068 
 392      D54B1B16 
 392      F6783E27 
 392      9CBE
 393 0abe 43D31EE1 		.ascii	"C\323\036\341<\322\323\334\224G\225m\325\267\211\253"
 393      3CD2D3DC 
 393      9447956D 
 393      D5B789AB 
 394 0ace 8CA5010B 		.ascii	"\214\245\001\013M\031Fvz[\235\346\352\307!Yg\205e\225"
 394      4D194676 
 394      7A5B9DE6 
 394      EAC72159 
 394      67856595 
 395 0ae2 E7A9ACB2 		.ascii	"\347\251\254\262(o<\217\006\257]J\233R\371\335n\005"
 395      286F3C8F 
 395      06AF5D4A 
 395      9B52F9DD 
 395      6E05
 396 0af4 CC74835F 		.ascii	"\314t\203_u\250=\203Co\331p4\337l\303q\274\227\234\267"
 396      75A83D83 
 396      436FD970 
 396      34DF6CC3 
 396      71BC979C 
 397 0b09 5889E63D 		.ascii	"X\211\346=\266\354h\256\215\336\362$\316\025\331\326"
 397      B6EC68AE 
 397      8DDEF224 
 397      CE15D9D6 
 398 0b19 8CD38F6C 		.ascii	"\214\323\217l\247\217\025I\221\255\207x\301\373\244"
 398      A78F1549 
 398      91AD8778 
 398      C1FBA4
 399 0b28 5BB7CD30 		.ascii	"[\267\3150\316\250\002\006\370y\013\222\330\001d\022"
 399      CEA80206 
 399      F8790B92 
 399      D8016412 
 400 0b38 DB4C0666 		.ascii	"\333L\006f\002T\342\335\376n)\266\255$\341y]\216\241"
 400      0254E2DD 
 400      FE6E29B6 
 400      AD24E179 
 400      5D8EA1
 401 0b4b EA207554 		.ascii	"\352 uT\016R\034Z\237c\224&H\275\323O\005)\243q\262"
 401      0E521C5A 
 401      9F639426 
 401      48BDD34F 
 401      0529A371 
 402 0b60 DAFBB283 		.ascii	"\332\373\262\203T\022G\213\235\337k\177C|r\221x%\365"
 402      5412478B 
 402      9DDF6B7F 
 402      437C7291 
 402      7825F5
 403 0b73 04B29E29 		.ascii	"\004\262\236)\373\351L\211\265hn\256-\224\271\024\306"
 403      FBE94C89 
ARM GAS  /tmp/ccIHbEXQ.s 			page 32


 403      B5686EAE 
 403      2D94B914 
 403      C6
 404 0b84 0674197B 		.ascii	"\006t\031{o\335\226\357v\210\037<)\246RO\310\231\231"
 404      6FDD96EF 
 404      76881F3C 
 404      29A6524F 
 404      C89999
 405 0b97 653E3480 		.ascii	"e>4\200\330\247\013\261\242\351\257ei\010\353\242\015"
 405      D8A70BB1 
 405      A2E9AF65 
 405      6908EBA2 
 405      0D
 406 0ba8 D2A26105 		.ascii	"\322\242a\005\247oR\222\247R\262\0350`\354\240.c\035"
 406      A76F5292 
 406      A752B21D 
 406      3060ECA0 
 406      2E631D
 407 0bbb BD63B7AF 		.ascii	"\275c\267\2572R\272Yz8\244S\237X\254\210,\316\251\023"
 407      3252BA59 
 407      7A38A453 
 407      9F58AC88 
 407      2CCEA913 
 408 0bcf 06822475 		.ascii	"\006\202$u\005\371\313\272\261\233:\214\0041\331\331"
 408      05F9CBBA 
 408      B19B3A8C 
 408      0431D9D9 
 409 0bdf 384ECB81 		.ascii	"8N\313\201\253\013Z\020\212\263\021\003\316N\352rvn"
 409      AB0B5A10 
 409      8AB31103 
 409      CE4EEA72 
 409      766E
 410 0bf1 78ECBB46 		.ascii	"x\354\273F\2667a\354\264\236[S\214|c\300\310gZF\250"
 410      B63761EC 
 410      B49E5B53 
 410      8C7C63C0 
 410      C8675A46 
 411 0c06 72AFDFA4 		.ascii	"r\257\337\244\334;\223\211\210\337g\272\304\275{\223"
 411      DC3B9389 
 411      88DF67BA 
 411      C4BD7B93 
 412 0c16 27BF6847 		.ascii	"'\277hG\315I\261\005\364\232B\3270-$c\267\003\31410"
 412      CD49B105 
 412      F49A42D7 
 412      302D2463 
 412      B703CC31 
 413 0c2b AA0CE357 		.ascii	"\252\014\343W`\306\221\221\352^\303\206\275\240\372"
 413      60C69191 
 413      EA5EC386 
 413      BDA0FA
 414 0c3a B65D43AE 		.ascii	"\266]C\2564\037\241I\017#\366\316\3322\177\327\350v"
 414      341FA149 
 414      0F23F6CE 
 414      DA327FD7 
 414      E876
 415 0c4c 652EDC1A 		.ascii	"e.\334\032\361\225^8\201\215\307\032R\355/RL@Q:\036"
 415      F1955E38 
ARM GAS  /tmp/ccIHbEXQ.s 			page 33


 415      818DC71A 
 415      52ED2F52 
 415      4C40513A 
 416 0c61 C9C34AE0 		.ascii	"\311\303J\340\302\303\254\306\037#\007\2677t\342U\260"
 416      C2C3ACC6 
 416      1F2307B7 
 416      3774E255 
 416      B0
 417 0c72 DEBEB1D4 		.ascii	"\336\276\261\324\245E\\\310\352\277\227\245\357\274"
 417      A5455CC8 
 417      EABF97A5 
 417      EFBC
 418 0c80 8F127FA2 		.ascii	"\217\022\177\242B\231\225\351\215\346-\376\227\006\342"
 418      429995E9 
 418      8DE62DFE 
 418      9706E2
 419 0c8f 232D695A 		.ascii	"#-iZ\361\323\224~N\031\347B\336\224/\032PV\376\355\215"
 419      F1D3947E 
 419      4E19E742 
 419      DE942F1A 
 419      5056FEED 
 420 0ca4 FCABCFB9 		.ascii	"\374\253\317\271\344\322\321\201\337\255\307\177\322"
 420      E4D2D181 
 420      DFADC77F 
 420      D2
 421 0cb1 8E6761FD 		.ascii	"\216ga\375\223yD\361\257dw\317x8\313|0\236voy\037X\374"
 421      937944F1 
 421      AF6477CF 
 421      7838CB7C 
 421      309E766F 
 422 0cc9 93684B2B 		.ascii	"\223hK+\377\222\215\332\006\036\313\236\206\300\332"
 422      FF928DDA 
 422      061ECB9E 
 422      86C0DA
 423 0cd8 8AE1441D 		.ascii	"\212\341D\035\376r\212\247\341-\022=\210\342\226(\\"
 423      FE728AA7 
 423      E12D123D 
 423      88E29628 
 423      5C
 424 0ce9 A6297CAD 		.ascii	"\246)|\255K\341\360\305\201\247\321\322\015\215\"\256"
 424      4BE1F0C5 
 424      81A7D1D2 
 424      0D8D22AE 
 425 0cf9 B59F589D 		.ascii	"\265\237X\235h\261[\027?E\317\366\215$\357kf\373\302"
 425      68B15B17 
 425      3F45CFF6 
 425      8D24EF6B 
 425      66FBC2
 426 0d0c 096A6649 		.ascii	"\011jfIO\226i\235 \033_N\341\003R\331 \375\347L\027"
 426      4F96699D 
 426      201B5F4E 
 426      E10352D9 
 426      20FDE74C 
 427 0d21 1971C530 		.ascii	"\031q\3050\213\313\337}e\231G\353\037.K\313|\205\226"
 427      8BCBDF7D 
 427      659947EB 
 427      1F2E4BCB 
ARM GAS  /tmp/ccIHbEXQ.s 			page 34


 427      7C8596
 428 0d34 B9DEAE27 		.ascii	"\271\336\256'\363\322\321\221\377V\033\\Q\354+\023\254"
 428      F3D2D191 
 428      FF561B5C 
 428      51EC2B13 
 428      AC
 429 0d45 28B6C94E 		.ascii	"(\266\311N\021i\326%\002\246\373C\226\351\336\264Da"
 429      1169D625 
 429      02A6FB43 
 429      96E9DEB4 
 429      4461
 430 0d57 314DE129 		.ascii	"1M\341)-\005%\310\015\347\016r\324\322\304`\256e-`\236"
 430      2D0525C8 
 430      0DE70E72 
 430      D4D2C460 
 430      AE652D60 
 431 0d6c B5E73BD7 		.ascii	"\265\347;\327Z\354\372sM\3757m\231^p\371\205\215\372"
 431      5AECFA73 
 431      4DFD376D 
 431      995E70F9 
 431      858DFA
 432 0d7f 644431C1 		.ascii	"dD1\3012\275\023\324A\216\312\007\370?\355\214xYfOS"
 432      32BD13D4 
 432      418ECA07 
 432      F83FED8C 
 432      7859664F 
 433 0d94 D5897B9A 		.ascii	"\325\211{\232/0r\350\334\244\015\235z]>i\022K\014@("
 433      2F3072E8 
 433      DCA40D9D 
 433      7A5D3E69 
 433      124B0C40 
 434 0da9 D68E9BA4 		.ascii	"\326\216\233\244\252\266\014k\324\250C&\243\226\033"
 434      AAB60C6B 
 434      D4A84326 
 434      A3961B
 435 0db8 8E1A3419 		.ascii	"\216\0324\031\325n8\352\264\311\250\016;\225L\023\373"
 435      D56E38EA 
 435      B4C9A80E 
 435      3B954C13 
 435      FB
 436 0dc9 FA178948 		.ascii	"\372\027\211Hl\024\353\317\245R\023\014\374loz\223\353"
 436      6C14EBCF 
 436      A552130C 
 436      FC6C6F7A 
 436      93EB
 437 0ddb 463347A3 		.ascii	"F3G\243\273AU\225\267\247\2552\360\264I\032O[E{\232"
 437      BB415595 
 437      B7A7AD32 
 437      F0B4491A 
 437      4F5B457B 
 438 0df0 AABCA7B9 		.ascii	"\252\274\247\271`\231=\032Wcn)/\257\230\341\017\314"
 438      60993D1A 
 438      57636E29 
 438      2FAF98E1 
 438      0FCC
 439 0e02 0EFC6A56 		.ascii	"\016\374jVE$^\021\023*\3421_\205\317_U\027\346B\001"
 439      45245E11 
ARM GAS  /tmp/ccIHbEXQ.s 			page 35


 439      132AE231 
 439      5F85CF5F 
 439      5517E642 
 440 0e17 5FB98FF9 		.ascii	"_\271\217\371AV\217@\330\027\254\251\342\241W\274.."
 440      41568F40 
 440      D817ACA9 
 440      E2A157BC 
 440      2E2E
 441 0e29 D445F978 		.ascii	"\324E\371x\271\237)\026\3741\236\253\362\012E?\377\345"
 441      B99F2916 
 441      FC319EAB 
 441      F20A453F 
 441      FFE5
 442 0e3b A39E198C 		.ascii	"\243\236\031\214\313\347\367J\217\276o\006\000\224`"
 442      CBE7F74A 
 442      8FBE6F06 
 442      009460
 443 0e4a 7051D41B 		.ascii	"pQ\324\033\346\347\013\360\023\215\361\363\356\311\032"
 443      E6E70BF0 
 443      138DF1F3 
 443      EEC91A
 444 0e59 108DC484 		.ascii	"\020\215\304\204x\305\375\217<4\343\241\371\025\276"
 444      78C5FD8F 
 444      3C34E3A1 
 444      F915BE
 445 0e68 48281A08 		.ascii	"H(\032\010\362\261x\305\317g\314\000\014\205\003\247"
 445      F2B178C5 
 445      CF67CC00 
 445      0C8503A7 
 446 0e78 108D0522 		.ascii	"\020\215\005\"^\350\030\236C\332\335\025\376H\210\257"
 446      5EE8189E 
 446      43DADD15 
 446      FE4888AF 
 447 0e88 88F1719E 		.ascii	"\210\361q\236\213\371\374\025~.VU\313\305\370\012.\026"
 447      8BF9FC15 
 447      7E2E5655 
 447      CBC5F80A 
 447      2E16
 448 0e9a 9A5251ED 		.ascii	"\232RQ\355\363M\206\213\311|h6_U\305W\245\037\204#a"
 448      F34D868B 
 448      C97C6836 
 448      5F55C557 
 448      A51F8423 
 449 0eaf 7E32CFCD 		.ascii	"~2\317\315\016L\236\352\2356yJ\345\235S\037\237R\241"
 449      0E4C9EEA 
 449      9D36794A 
 449      E59D531F 
 449      9F52A1
 450 0ec2 79911620 		.ascii	"y\221\026 .T\005\302\002\226\276\006~\357\232\342\025"
 450      2E5405C2 
 450      0296BE06 
 450      7EEF9AE2 
 450      15
 451 0ed3 16A07F1E 		.ascii	"\026\240\177\036\365\020\347\363\007\302|\205\267\212"
 451      F510E7F3 
 451      07C27C85 
 451      B78A
ARM GAS  /tmp/ccIHbEXQ.s 			page 36


 452 0ee1 9FC3D504 		.ascii	"\237\303\325\004\005\257\242\211\022\257W\341\207\250"
 452      05AFA289 
 452      12AF57E1 
 452      87A8
 453 0eef 341071FA 		.ascii	"4\020q\372\"a\0014\374\303\034\252\365\373\"1\036\020"
 453      22610134 
 453      FCC31CAA 
 453      F5FB2231 
 453      1E10
 454 0f01 4AF1632F 		.ascii	"J\361c/`\370\204\371wX\031\343\235\367\343\020\326C"
 454      60F884F9 
 454      775819E3 
 454      9DF7E310 
 454      D643
 455 0f13 8CAF0666 		.ascii	"\214\257\006f\275\002\033\233\312\306\356fc\367\260"
 455      BD021B9B 
 455      CAC6EE66 
 455      63F7B0
 456 0f22 B11FB3B1 		.ascii	"\261\037\263\261il\354^[\354\316Jhw\262\301\030\374"
 456      696CEC5E 
 456      5BECCE4A 
 456      6877B2C1 
 456      18FC
 457 0f34 DCE5887A 		.ascii	"\334\345\210z\001\333\211\015_\313\307\3407\022\254"
 457      01DB890D 
 457      5FCBC7E0 
 457      3712AC
 458 0f43 E263761F 		.ascii	"\342cv\037\250\011{\003\027\342\213\205\270\300\011"
 458      A8097B03 
 458      17E28B85 
 458      B8C009
 459 0f52 BC577062 		.ascii	"\274Wpba\246y\005\227$\026\\Aw\362\316)\204\"U<\271"
 459      61A67905 
 459      9724165C 
 459      4177F2CE 
 459      29842255 
 460 0f68 9F13E4AA 		.ascii	"\237\023\344\252\343N!\306\317\211\023\251\361\205#"
 460      E34E21C6 
 460      CF8913A9 
 460      F18523
 461 0f77 14AF8697 		.ascii	"\024\257\206\227\262*`\270\242\224XU\035\274*\346\347"
 461      B22A60B8 
 461      A2945855 
 461      1DBC2AE6 
 461      E7
 462 0f88 07041F00 		.ascii	"\007\004\037\000\024\325\012\221\331\377\033\275Vva"
 462      14D50A91 
 462      D9FF1BBD 
 462      567661
 463 0f97 18CAC7F8 		.ascii	"\030\312\307\370\260\017\200\035\265"
 463      B00F801D 
 463      B5
 464 0fa0 82108B3A 		.ascii	"\202\020\213:\343|X\200\001n\360\3518\037\342\242~\220"
 464      E37C5880 
 464      016EF0E9 
 464      381FE2A2 
 464      7E90
ARM GAS  /tmp/ccIHbEXQ.s 			page 37


 465 0fb2 387BE6A8 		.ascii	"8{\346\250\334\232\307\312\230 \341\305\275\217\327"
 465      DC9AC7CA 
 465      9820E1C5 
 465      BD8FD7
 466 0fc1 F0350036 		.ascii	"\3605\00061=%\344GN\371\327\341\013\203\361\034q/\374"
 466      313D25E4 
 466      474EF9D7 
 466      E10B83F1 
 466      1C712FFC 
 467 0fd5 022F303A 		.ascii	"\002/0:Z\014}C5`232!a>\366\373\220\214\026\362Fj\303"
 467      5A0C7D43 
 467      35603233 
 467      3221613E 
 467      F6FB908C 
 468 0fee A04B320E 		.ascii	"\240K2\016\244\014I\223\252V\200~\321R~\036\026\202"
 468      A40C4993 
 468      AA56807E 
 468      D1527E1E 
 468      1682
 469 1000 8BCF8537 		.ascii	"\213\317\2057|-\276\260E\2755\343\025\206\202\2018\360"
 469      7C2DBEB0 
 469      45BD35E3 
 469      15868281 
 469      38F0
 470 1012 3041C522 		.ascii	"0A\305\"~\342\212zk\271\200\020\010W\227D\275\240\001"
 470      7EE28A7A 
 470      6BB98010 
 470      08579744 
 470      BDA001
 471 1025 42082EF9 		.ascii	"B\010.\371(\037\006\327\257\206\367\000\216{\226`\225"
 471      281F06D7 
 471      AF86F700 
 471      8E7B9660 
 471      95
 472 1036 7341E26C 		.ascii	"sA\342l\3600\032\211\004\257\363\371\177\343\257z\204"
 472      F0301A89 
 472      04AFF3F9 
 472      7FE3AF7A 
 472      84
 473 1047 0FF25C9C 		.ascii	"\017\362\\\234/\217r1\241\274\222\025\242\245\344\361"
 473      2F8F7231 
 473      A1BC9215 
 473      A2A5E4F1 
 474 1057 FD55F066 		.ascii	"\375U\360f\216[\335\305,P\370y.\012\262\216\013\361"
 474      8E5BDDC5 
 474      2C50F879 
 474      2E0AB28E 
 474      0BF1
 475 1069 A148ACCE 		.ascii	"\241H\254\316\213o\275B\251\352\256\376[\231x\301\300"
 475      8B6FBD42 
 475      A9EAAEFE 
 475      5B9978C1 
 475      C0
 476 107a 6CDC819A 		.ascii	"l\334\201\232\200S\313\247\225OU\007\001\230\2008\212"
 476      8053CBA7 
 476      954F5507 
 476      01988038 
ARM GAS  /tmp/ccIHbEXQ.s 			page 38


 476      8A
 477 108b C503BF07 		.ascii	"\305\003\277\0073\337ff1>$\31707\\V\363\302\234\232"
 477      33DF6666 
 477      313E24CF 
 477      30375C56 
 477      F3C29C9A 
 478 109f B0CF2B94 		.ascii	"\260\317+\224\370a\226F\346\005`\006\224\022\321\340"
 478      F8619646 
 478      E6056006 
 478      9412D1E0 
 479 10af 04D72571 		.ascii	"\004\327%qa.\027\014T\207\275\002\0110\367L\205\256"
 479      612E170C 
 479      5487BD02 
 479      0930F74C 
 479      85AE
 480 10c1 D224C097 		.ascii	"\322$\300\227\016\362\316\216\215l\307\243P\215\035"
 480      0EF2CE8E 
 480      8D6CC7A3 
 480      508D1D
 481 10d0 7380FC45 		.ascii	"s\200\374E~\357\234\030\317;\374\3308f\354\310\246&"
 481      7EEF9C18 
 481      CF3BFCD8 
 481      3866ECC8 
 481      A626
 482 10e2 C153E244 		.ascii	"\301S\342D\262\331\014x,\360\017\304\"\241\231\200\353"
 482      B2D90C78 
 482      2CF00FC4 
 482      22A19980 
 482      EB
 483 10f3 C0E0513B 		.ascii	"\300\340Q;6-\033\235c\343b\325f9\001\344\302\306\217"
 483      362D1B9D 
 483      63E362D5 
 483      663901E4 
 483      C2C68F
 484 1106 ABAC85EF 		.ascii	"\253\254\205\357\301Z\344G\222\314\031\365\023\347t"
 484      C15AE447 
 484      92CC19F5 
 484      13E774
 485 1115 86A4C83F 		.ascii	"\206\244\310?\036~a\012\362>\301\213E(\015E\323\012"
 485      1E7E610A 
 485      F23EC18B 
 485      45280D45 
 485      D30A
 486 1127 994471F4 		.ascii	"\231Dq\364\020\301|\030\260\330P\264\304\347\307W\017"
 486      10C17C18 
 486      B0D850B4 
 486      C4E7C757 
 486      0F
 487 1138 80B47089 		.ascii	"\200\264p\211\231\305\227\340U\263|\376\337rs\371\232"
 487      99C597E0 
 487      55B37CFE 
 487      DF7273F9 
 487      9A
 488 1149 E82CB76A 		.ascii	"\350,\267j\374\203\245R\247\373\203\301\210\257T\032"
 488      FC83A552 
 488      A7FB83C1 
 488      88AF541A 
ARM GAS  /tmp/ccIHbEXQ.s 			page 39


 489 1159 4BAE8BBD 		.ascii	"K\256\213\275^\"\277w\234rQ~\317\324\312J\3239^\207"
 489      5E22BF77 
 489      9C72517E 
 489      CFD4CA4A 
 489      D3395E87 
 490 116d 45843437 		.ascii	"E\20447\253.\376\213\210o\256\213\204L\300\232[\256"
 490      AB2EFE8B 
 490      886FAE8B 
 490      844CC09A 
 490      5BAE
 491 117f 1D05E255 		.ascii	"\035\005\342U\314xh\326\203\2632\203q\300\364\205\036"
 491      CC7868D6 
 491      83B33283 
 491      71C0F485 
 491      1E
 492 1190 0042584B 		.ascii	"\000BXK^\010*\202\367g\367\317\372\367\207\037yp\034"
 492      5E082A82 
 492      F767F7CF 
 492      FAF7871F 
 492      79701C
 493 11a3 17ACE5EA 		.ascii	"\027\254\345\352\342\020\252\202\020\333\035\363\270"
 493      E210AA82 
 493      10DB1DF3 
 493      B8
 494 11b0 600D5F4A 		.ascii	"`\015_J\210<\032\306\340Rd\256!\327*f\357\272\367n5"
 494      883C1AC6 
 494      E05264AE 
 494      21D72A66 
 494      EFBAF76E 
 495 11c5 EB53A6FC 		.ascii	"\353S\246\374\0371\372\274\321"
 495      1F31FABC 
 495      D1
 496              		.text
 497              		.section	.gnu.lto_.symtab.8a8164031610789c,"",%progbits
 498 0000 63685468 		.ascii	"chThdAddRef\000\000\000\000\000\000\000\000\000\000"
 498      64416464 
 498      52656600 
 498      00000000 
 498      00000000 
 499 0015 00005701 		.ascii	"\000\000W\001\000\000chThdRelease\000\000\000\000\000"
 499      00006368 
 499      54686452 
 499      656C6561 
 499      73650000 
 500 002c 00000000 		.ascii	"\000\000\000\000\000\000\000]\001\000\000chThdCreat"
 500      0000005D 
 500      01000063 
 500      68546864 
 500      43726561 
 501 0041 6546726F 		.ascii	"eFromHeap\000\000\000\000\000\000\000\000\000\000\000"
 501      6D486561 
 501      70000000 
 501      00000000 
 501      00000000 
 502 0055 00630100 		.ascii	"\000c\001\000\000chThdCreateFromMemoryPool\000\000\000"
 502      00636854 
 502      68644372 
ARM GAS  /tmp/ccIHbEXQ.s 			page 40


 502      65617465 
 502      46726F6D 
 503 0076 00000000 		.ascii	"\000\000\000\000\000\000\000\000\000\256\001\000\000"
 503      00000000 
 503      00AE0100 
 503      00
 504 0083 6368506F 		.ascii	"chPoolFree\000\000\002\000\000\000\000\000\000\000\000"
 504      6F6C4672 
 504      65650000 
 504      02000000 
 504      00000000 
 505 0098 00CD0100 		.ascii	"\000\315\001\000\000chHeapFree\000\000\002\000\000\000"
 505      00636848 
 505      65617046 
 505      72656500 
 505      00020000 
 506 00ad 00000000 		.ascii	"\000\000\000\000\000\000\322\001\000\000chSchWakeup"
 506      0000D201 
 506      00006368 
 506      53636857 
 506      616B6575 
 507 00c2 53000002 		.ascii	"S\000\000\002\000\000\000\000\000\000\000\000\000\324"
 507      00000000 
 507      00000000 
 507      00D4
 508 00d0 01000063 		.ascii	"\001\000\000chThdCreateI\000\000\002\000\000\000\000"
 508      68546864 
 508      43726561 
 508      74654900 
 508      00020000 
 509 00e6 00000000 		.ascii	"\000\000\000\000\000\331\001\000\000chHeapAlloc\000"
 509      00D90100 
 509      00636848 
 509      65617041 
 509      6C6C6F63 
 510 00fb 00020000 		.ascii	"\000\002\000\000\000\000\000\000\000\000\000\341\001"
 510      00000000 
 510      000000E1 
 510      01
 511 0108 00006368 		.ascii	"\000\000chPoolAlloc\000\000\002\000\000\000\000\000"
 511      506F6F6C 
 511      416C6C6F 
 511      63000002 
 511      00000000 
 512 011d 00000000 		.ascii	"\000\000\000\000\346\001\000\000"
 512      E6010000 
 513              		.text
 514              		.section	.gnu.lto_.opts,"",%progbits
 515 0000 272D6D63 		.ascii	"'-mcpu=cortex-m4' '-mno-thumb-interwork' '-mthumb' "
 515      70753D63 
 515      6F727465 
 515      782D6D34 
 515      2720272D 
 516 0033 272D6767 		.ascii	"'-ggdb' '-O2' '-fomit-frame-pointer' '-falign-funct"
 516      64622720 
 516      272D4F32 
 516      2720272D 
ARM GAS  /tmp/ccIHbEXQ.s 			page 41


 516      666F6D69 
 517 0066 696F6E73 		.ascii	"ions=16' '-ffunction-sections' '-fdata-sections' '-"
 517      3D313627 
 517      20272D66 
 517      66756E63 
 517      74696F6E 
 518 0099 666E6F2D 		.ascii	"fno-common' '-flto'\000"
 518      636F6D6D 
 518      6F6E2720 
 518      272D666C 
 518      746F2700 
 519              		.text
 520              		.cfi_sections	.debug_frame
 521              		.section	.text.chThdAddRef,"ax",%progbits
 522              		.align	2
 523              		.p2align 4,,15
 524              		.global	chThdAddRef
 525              		.thumb
 526              		.thumb_func
 527              		.type	chThdAddRef, %function
 528              	chThdAddRef:
 529              	.LFB241:
 530              		.file 1 "../ChibiOS/os/rt/src/chdynamic.c"
 531              		.loc 1 68 0
 532              		.cfi_startproc
 533              		@ args = 0, pretend = 0, frame = 0
 534              		@ frame_needed = 0, uses_anonymous_args = 0
 535              		@ link register save eliminated.
 536              	.LVL0:
 537              	.LBB63:
 538              	.LBB64:
 539              	.LBB65:
 540              	.LBB66:
 541              		.file 2 "../ChibiOS/os/ext/CMSIS/include/core_cmFunc.h"
 542              		.loc 2 548 0
 543 0000 2022     		movs	r2, #32
 544              	@ 548 "../ChibiOS/os/ext/CMSIS/include/core_cmFunc.h" 1
 545 0002 82F31188 		MSR basepri, r2
 546              	@ 0 "" 2
 547              		.thumb
 548              	.LBE66:
 549              	.LBE65:
 550              	.LBE64:
 551              	.LBE63:
 552              		.loc 1 72 0
 553 0006 827F     		ldrb	r2, [r0, #30]	@ zero_extendqisi2
 554 0008 0132     		adds	r2, r2, #1
 555 000a 8277     		strb	r2, [r0, #30]
 556              	.LVL1:
 557              	.LBB67:
 558              	.LBB68:
 559              	.LBB69:
 560              	.LBB70:
 561              	.LBB71:
 562              		.loc 2 548 0
 563 000c 0023     		movs	r3, #0
 564              	@ 548 "../ChibiOS/os/ext/CMSIS/include/core_cmFunc.h" 1
ARM GAS  /tmp/ccIHbEXQ.s 			page 42


 565 000e 83F31188 		MSR basepri, r3
 566              	@ 0 "" 2
 567              		.thumb
 568              	.LBE71:
 569              	.LBE70:
 570              	.LBE69:
 571              	.LBE68:
 572              	.LBE67:
 573              		.loc 1 76 0
 574 0012 7047     		bx	lr
 575              		.cfi_endproc
 576              	.LFE241:
 577              		.size	chThdAddRef, .-chThdAddRef
 578 0014 AFF30080 		.section	.text.chThdRelease,"ax",%progbits
 578      AFF30080 
 578      AFF30080 
 579              		.align	2
 580              		.p2align 4,,15
 581              		.global	chThdRelease
 582              		.thumb
 583              		.thumb_func
 584              		.type	chThdRelease, %function
 585              	chThdRelease:
 586              	.LFB242:
 587              		.loc 1 91 0
 588              		.cfi_startproc
 589              		@ args = 0, pretend = 0, frame = 0
 590              		@ frame_needed = 0, uses_anonymous_args = 0
 591              		@ link register save eliminated.
 592              	.LVL2:
 593              		.loc 1 91 0
 594 0000 0146     		mov	r1, r0
 595              	.LBB92:
 596              	.LBB93:
 597              	.LBB94:
 598              	.LBB95:
 599              		.loc 2 548 0
 600 0002 2023     		movs	r3, #32
 601              	@ 548 "../ChibiOS/os/ext/CMSIS/include/core_cmFunc.h" 1
 602 0004 83F31188 		MSR basepri, r3
 603              	@ 0 "" 2
 604              		.thumb
 605              	.LBE95:
 606              	.LBE94:
 607              	.LBE93:
 608              	.LBE92:
 609              		.loc 1 96 0
 610 0008 837F     		ldrb	r3, [r0, #30]	@ zero_extendqisi2
 611 000a 013B     		subs	r3, r3, #1
 612 000c DBB2     		uxtb	r3, r3
 613 000e 8377     		strb	r3, [r0, #30]
 614              	.LVL3:
 615              	.LBB96:
 616              	.LBB97:
 617              	.LBB98:
 618              	.LBB99:
 619              	.LBB100:
ARM GAS  /tmp/ccIHbEXQ.s 			page 43


 620              		.loc 2 548 0
 621 0010 0022     		movs	r2, #0
 622              	@ 548 "../ChibiOS/os/ext/CMSIS/include/core_cmFunc.h" 1
 623 0012 82F31188 		MSR basepri, r2
 624              	@ 0 "" 2
 625              		.thumb
 626              	.LBE100:
 627              	.LBE99:
 628              	.LBE98:
 629              	.LBE97:
 630              	.LBE96:
 631              		.loc 1 103 0
 632 0016 13B9     		cbnz	r3, .L2
 633              		.loc 1 103 0 is_stmt 0 discriminator 1
 634 0018 037F     		ldrb	r3, [r0, #28]	@ zero_extendqisi2
 635              	.LVL4:
 636 001a 0F2B     		cmp	r3, #15
 637 001c 00D0     		beq	.L7
 638              	.L2:
 639 001e 7047     		bx	lr
 640              	.L7:
 641              		.loc 1 104 0 is_stmt 1
 642 0020 437F     		ldrb	r3, [r0, #29]	@ zero_extendqisi2
 643 0022 03F00303 		and	r3, r3, #3
 644 0026 012B     		cmp	r3, #1
 645 0028 02D0     		beq	.L4
 646 002a 022B     		cmp	r3, #2
 647 002c 07D0     		beq	.L5
 648 002e 7047     		bx	lr
 649              	.L4:
 650              		.loc 1 108 0
 651 0030 4369     		ldr	r3, [r0, #20]
 652 0032 0269     		ldr	r2, [r0, #16]
 653 0034 1A61     		str	r2, [r3, #16]
 654 0036 0269     		ldr	r2, [r0, #16]
 655 0038 5361     		str	r3, [r2, #20]
 656              		.loc 1 110 0
 657 003a FFF7FEBF 		b	chHeapFree
 658              	.LVL5:
 659              	.L5:
 660              	.LBB101:
 661              	.LBB102:
 662              		.loc 1 116 0
 663 003e 4369     		ldr	r3, [r0, #20]
 664 0040 0269     		ldr	r2, [r0, #16]
 665 0042 1A61     		str	r2, [r3, #16]
 666 0044 0269     		ldr	r2, [r0, #16]
 667              		.loc 1 118 0
 668 0046 C06B     		ldr	r0, [r0, #60]
 669              	.LVL6:
 670              		.loc 1 116 0
 671 0048 5361     		str	r3, [r2, #20]
 672              		.loc 1 118 0
 673 004a FFF7FEBF 		b	chPoolFree
 674              	.LVL7:
 675              	.LBE102:
 676              	.LBE101:
ARM GAS  /tmp/ccIHbEXQ.s 			page 44


 677              		.cfi_endproc
 678              	.LFE242:
 679              		.size	chThdRelease, .-chThdRelease
 680 004e 00BF     		.section	.text.chThdCreateFromHeap,"ax",%progbits
 681              		.align	2
 682              		.p2align 4,,15
 683              		.global	chThdCreateFromHeap
 684              		.thumb
 685              		.thumb_func
 686              		.type	chThdCreateFromHeap, %function
 687              	chThdCreateFromHeap:
 688              	.LFB243:
 689              		.loc 1 153 0
 690              		.cfi_startproc
 691              		@ args = 4, pretend = 0, frame = 0
 692              		@ frame_needed = 0, uses_anonymous_args = 0
 693              	.LVL8:
 694 0000 F0B5     		push	{r4, r5, r6, r7, lr}
 695              		.cfi_def_cfa_offset 20
 696              		.cfi_offset 4, -20
 697              		.cfi_offset 5, -16
 698              		.cfi_offset 6, -12
 699              		.cfi_offset 7, -8
 700              		.cfi_offset 14, -4
 701 0002 83B0     		sub	sp, sp, #12
 702              		.cfi_def_cfa_offset 32
 703              		.loc 1 153 0
 704 0004 1746     		mov	r7, r2
 705 0006 1E46     		mov	r6, r3
 706 0008 0D46     		mov	r5, r1
 707              		.loc 1 157 0
 708 000a FFF7FEFF 		bl	chHeapAlloc
 709              	.LVL9:
 710              		.loc 1 158 0
 711 000e 98B1     		cbz	r0, .L9
 712              	.LVL10:
 713              	.LBB103:
 714              	.LBB104:
 715              	.LBB105:
 716              	.LBB106:
 717              		.loc 2 548 0
 718 0010 2023     		movs	r3, #32
 719              	@ 548 "../ChibiOS/os/ext/CMSIS/include/core_cmFunc.h" 1
 720 0012 83F31188 		MSR basepri, r3
 721              	@ 0 "" 2
 722              		.thumb
 723              	.LBE106:
 724              	.LBE105:
 725              	.LBE104:
 726              	.LBE103:
 727              		.loc 1 172 0
 728 0016 089B     		ldr	r3, [sp, #32]
 729 0018 0093     		str	r3, [sp]
 730 001a 2946     		mov	r1, r5
 731 001c 3A46     		mov	r2, r7
 732 001e 3346     		mov	r3, r6
 733 0020 FFF7FEFF 		bl	chThdCreateI
ARM GAS  /tmp/ccIHbEXQ.s 			page 45


 734              	.LVL11:
 735              		.loc 1 173 0
 736 0024 0123     		movs	r3, #1
 737 0026 4377     		strb	r3, [r0, #29]
 738              		.loc 1 174 0
 739 0028 0021     		movs	r1, #0
 740              		.loc 1 172 0
 741 002a 0446     		mov	r4, r0
 742              	.LVL12:
 743              		.loc 1 174 0
 744 002c FFF7FEFF 		bl	chSchWakeupS
 745              	.LVL13:
 746              	.LBB107:
 747              	.LBB108:
 748              	.LBB109:
 749              	.LBB110:
 750              	.LBB111:
 751              		.loc 2 548 0
 752 0030 0023     		movs	r3, #0
 753              	@ 548 "../ChibiOS/os/ext/CMSIS/include/core_cmFunc.h" 1
 754 0032 83F31188 		MSR basepri, r3
 755              	@ 0 "" 2
 756              		.thumb
 757              	.LBE111:
 758              	.LBE110:
 759              	.LBE109:
 760              	.LBE108:
 761              	.LBE107:
 762              		.loc 1 177 0
 763 0036 2046     		mov	r0, r4
 764              	.LVL14:
 765              	.L9:
 766              		.loc 1 178 0
 767 0038 03B0     		add	sp, sp, #12
 768              		@ sp needed
 769 003a F0BD     		pop	{r4, r5, r6, r7, pc}
 770              		.cfi_endproc
 771              	.LFE243:
 772              		.size	chThdCreateFromHeap, .-chThdCreateFromHeap
 773 003c AFF30080 		.section	.text.chThdCreateFromMemoryPool,"ax",%progbits
 774              		.align	2
 775              		.p2align 4,,15
 776              		.global	chThdCreateFromMemoryPool
 777              		.thumb
 778              		.thumb_func
 779              		.type	chThdCreateFromMemoryPool, %function
 780              	chThdCreateFromMemoryPool:
 781              	.LFB244:
 782              		.loc 1 205 0
 783              		.cfi_startproc
 784              		@ args = 0, pretend = 0, frame = 0
 785              		@ frame_needed = 0, uses_anonymous_args = 0
 786              	.LVL15:
 787 0000 F0B5     		push	{r4, r5, r6, r7, lr}
 788              		.cfi_def_cfa_offset 20
 789              		.cfi_offset 4, -20
 790              		.cfi_offset 5, -16
ARM GAS  /tmp/ccIHbEXQ.s 			page 46


 791              		.cfi_offset 6, -12
 792              		.cfi_offset 7, -8
 793              		.cfi_offset 14, -4
 794 0002 83B0     		sub	sp, sp, #12
 795              		.cfi_def_cfa_offset 32
 796              		.loc 1 205 0
 797 0004 0F46     		mov	r7, r1
 798 0006 1646     		mov	r6, r2
 799 0008 1C46     		mov	r4, r3
 800 000a 0546     		mov	r5, r0
 801              		.loc 1 211 0
 802 000c FFF7FEFF 		bl	chPoolAlloc
 803              	.LVL16:
 804              		.loc 1 212 0
 805 0010 98B1     		cbz	r0, .L12
 806              	.LVL17:
 807              	.LBB112:
 808              	.LBB113:
 809              	.LBB114:
 810              	.LBB115:
 811              		.loc 2 548 0
 812 0012 2023     		movs	r3, #32
 813              	@ 548 "../ChibiOS/os/ext/CMSIS/include/core_cmFunc.h" 1
 814 0014 83F31188 		MSR basepri, r3
 815              	@ 0 "" 2
 816              		.thumb
 817              	.LBE115:
 818              	.LBE114:
 819              	.LBE113:
 820              	.LBE112:
 821              		.loc 1 226 0
 822 0018 6968     		ldr	r1, [r5, #4]
 823 001a 0094     		str	r4, [sp]
 824 001c 3A46     		mov	r2, r7
 825 001e 3346     		mov	r3, r6
 826 0020 FFF7FEFF 		bl	chThdCreateI
 827              	.LVL18:
 828              		.loc 1 227 0
 829 0024 0223     		movs	r3, #2
 830 0026 4377     		strb	r3, [r0, #29]
 831              		.loc 1 228 0
 832 0028 C563     		str	r5, [r0, #60]
 833              		.loc 1 229 0
 834 002a 0021     		movs	r1, #0
 835              		.loc 1 226 0
 836 002c 0446     		mov	r4, r0
 837              	.LVL19:
 838              		.loc 1 229 0
 839 002e FFF7FEFF 		bl	chSchWakeupS
 840              	.LVL20:
 841              	.LBB116:
 842              	.LBB117:
 843              	.LBB118:
 844              	.LBB119:
 845              	.LBB120:
 846              		.loc 2 548 0
 847 0032 0023     		movs	r3, #0
ARM GAS  /tmp/ccIHbEXQ.s 			page 47


 848              	@ 548 "../ChibiOS/os/ext/CMSIS/include/core_cmFunc.h" 1
 849 0034 83F31188 		MSR basepri, r3
 850              	@ 0 "" 2
 851              		.thumb
 852              	.LBE120:
 853              	.LBE119:
 854              	.LBE118:
 855              	.LBE117:
 856              	.LBE116:
 857              		.loc 1 232 0
 858 0038 2046     		mov	r0, r4
 859              	.LVL21:
 860              	.L12:
 861              		.loc 1 233 0
 862 003a 03B0     		add	sp, sp, #12
 863              		@ sp needed
 864 003c F0BD     		pop	{r4, r5, r6, r7, pc}
 865              		.cfi_endproc
 866              	.LFE244:
 867              		.size	chThdCreateFromMemoryPool, .-chThdCreateFromMemoryPool
 868 003e 00BF     		.text
 869              	.Letext0:
 870              		.file 3 "/nfs/nfs5/home/research/hardware/arm2/gcc-arm-embedded/gcc-arm-none-eabi-4_8-2014q2/lib/g
 871              		.file 4 "/nfs/nfs5/home/research/hardware/arm2/gcc-arm-embedded/gcc-arm-none-eabi-4_8-2014q2/arm-n
 872              		.file 5 "/nfs/nfs5/home/research/hardware/arm2/gcc-arm-embedded/gcc-arm-none-eabi-4_8-2014q2/arm-n
 873              		.file 6 "../ChibiOS/os/rt/ports/ARMCMx/compilers/GCC/chtypes.h"
 874              		.file 7 "../ChibiOS/os/rt/include/chsystypes.h"
 875              		.file 8 "../ChibiOS/os/rt/include/chschd.h"
 876              		.file 9 "../ChibiOS/os/rt/ports/ARMCMx/chcore.h"
 877              		.file 10 "../ChibiOS/os/rt/ports/ARMCMx/chcore_v7m.h"
 878              		.file 11 "../ChibiOS/os/rt/include/chtm.h"
 879              		.file 12 "../ChibiOS/os/rt/include/chsem.h"
 880              		.file 13 "../ChibiOS/os/rt/include/chmtx.h"
 881              		.file 14 "../ChibiOS/os/rt/include/chthreads.h"
 882              		.file 15 "../ChibiOS/os/rt/include/chmemcore.h"
 883              		.file 16 "../ChibiOS/os/rt/include/chheap.h"
 884              		.file 17 "../ChibiOS/os/rt/include/chmempools.h"
 885              		.file 18 "../ChibiOS/os/rt/include/chsys.h"
 886              		.file 19 "../ChibiOS/os/ext/CMSIS/include/core_cm4.h"