ARM GAS  /tmp/ccOBBbjc.s 			page 1


   1              		.syntax unified
   2              		.cpu cortex-m4
   3              		.fpu softvfp
   4              		.eabi_attribute 20, 1
   5              		.eabi_attribute 21, 1
   6              		.eabi_attribute 23, 3
   7              		.eabi_attribute 24, 1
   8              		.eabi_attribute 25, 1
   9              		.eabi_attribute 26, 1
  10              		.eabi_attribute 30, 2
  11              		.eabi_attribute 34, 1
  12              		.eabi_attribute 18, 4
  13              		.thumb
  14              		.file	"hal_lld.c"
  15              		.text
  16              	.Ltext0:
  17              		.section	.gnu.lto_.jmpfuncs.625ec3df80860569,"",%progbits
  18 0000 789C6362 		.ascii	"x\234cb`b\300\0068\24143\003\003#\003H\015\000\001\211"
  18      6062C006 
  18      38A13433 
  18      03032303 
  18      480D0001 
  19 0015 0014     		.ascii	"\000\024"
  20              		.text
  21              		.section	.gnu.lto_.inline.625ec3df80860569,"",%progbits
  22 0000 789C6362 		.ascii	"x\234cb`b\300\006\\\24043\003\203\230\020#\003\223\332"
  22      6062C006 
  22      5CA03433 
  22      03839810 
  22      230393DA 
  23 0014 89DF8C0C 		.ascii	"\211\337\214\014l\013\344\301\252\031\031\304\344\200"
  23      6C0BE4C1 
  23      AA1919C4 
  23      E480
  24 0022 622A0B66 		.ascii	"b*\013f2!\304\270\200\004\023\203\345j&\240L\316\206"
  24      3221C4B8 
  24      80041383 
  24      E56A26A0 
  24      4CCE86
  25 0035 D92A7019 		.ascii	"\331*p\031\006\000EG\011\036"
  25      06004547 
  25      091E
  26              		.text
  27              		.section	.gnu.lto_.pureconst.625ec3df80860569,"",%progbits
  28 0000 789C6362 		.ascii	"x\234cb`b`g\200\000f\006)F)&)\000\001\313\000`"
  28      60626067 
  28      80006606 
  28      29462926 
  28      290001CB 
  29              		.text
  30              		.section	.gnu.lto_hal_lld_backup_domain_init.625ec3df80860569,"",%progbits
  31 0000 789CA592 		.ascii	"x\234\245\222=H#A\024\307\337\233\235\331\2043\321\004"
  31      3D482341 
  31      14C7DF9B 
  31      9DD98433 
  31      D104
  32 0012 B13D054B 		.ascii	"\261=\005K!\313\251\205\275 \210\210\205\011h%~\300"
ARM GAS  /tmp/ccOBBbjc.s 			page 2


  32      21CBA985 
  32      BD208888 
  32      85096825 
  32      7EC0
  33 0024 B95C40D1 		.ascii	"\271\\@\321+\354\234\305\024)-E\233\330Zh\353W!ba\343"
  33      2BEC9CC5 
  33      14292D45 
  33      9BD85A68 
  33      EB572162 
  34 003a 816011E4 		.ascii	"\201`\021\344\320`s\307\335\025\226\012\202\367\336"
  34      D06073C7 
  34      DD15960A 
  34      82F7DE
  35 0049 4C763708 		.ascii	"Lv7\010w\250\031\330\377\356\2767\363\233\377\2747\002"
  35      77A819D8 
  35      FFEEBE37 
  35      F39BFFBC 
  35      3702
  36 005b 04BC1C23 		.ascii	"\004\274\034#\364<9\000\375\364\306\004\240X\377\006"
  36      F43C3900 
  36      FDF4C604 
  36      A058FF06 
  37 006b 10248570 		.ascii	"\020$\205p*\003\240?\310\373\016\320)\007\245\015K\241"
  37      2A03A03F 
  37      C8FB0ED0 
  37      2907A50D 
  37      4BA1
  38 007d AE3C0ABB 		.ascii	"\256<\012\273\307\037)\254\320\265a\027\221?\000aU8"
  38      C71F29AC 
  38      D0B56117 
  38      913F0061 
  38      5538
  39 008f 52B9B83A 		.ascii	"R\271\270:\211\206\276'Nj\317\317\273\337\037\357\016"
  39      8986BE27 
  39      4E6ACFCF 
  39      BBDF1FEF 
  39      0E
  40 00a0 31DB2EC1 		.ascii	"1\333.\301GP,\011\226$K\013K\212%\315\322\312\222a\311"
  40      47502C09 
  40      96244B0B 
  40      4B8A25CD 
  40      D2CA9261 
  41 00b5 B2D05050 		.ascii	"\262\320PP\322z\275\013`\326\374\346Iy\257\002\012~"
  41      D27ABD0B 
  41      60D6FCE6 
  41      4979AF02 
  41      0A7E
  42 00c7 3B17707A 		.ascii	";\027pz\275\177\223\236\306mT\360\031e\017\354\350R"
  42      BD7F939E 
  42      C66D54F0 
  42      19650FEC 
  42      E852
  43 00d9 90F111B7 		.ascii	"\220\361\021\267`\023}\024\023$\216\256\005Z\202\371"
  43      60137D14 
  43      13248EAE 
  43      055A82F9 
  44 00e9 34BE6630 		.ascii	"4\276f0<\377\005\254\0358\341jE\000\236\004Z\230\324"
ARM GAS  /tmp/ccOBBbjc.s 			page 3


  44      3CFF05AC 
  44      1D38E16A 
  44      45009E04 
  44      5A98D4
  45 00fc E9B0CDBC 		.ascii	"\351\260\315\274\015J\034\263\370\272\334\031\202\023"
  45      0D4A1CB3 
  45      F8BADC19 
  45      8213
  46 010a 868011C0 		.ascii	"\206\200\021\300\354\242t\245\\\007\250:\000cWGk;\030"
  46      ECA274A5 
  46      5C07A83A 
  46      00635747 
  46      6B3B18
  47 011d 2E4F12C1 		.ascii	".O\022\301\372r)y\016\245?At\342\244M\310\206\236\026"
  47      FA722979 
  47      0EA53F41 
  47      74E2A44D 
  47      C8869E16 
  48 0131 C8506580 		.ascii	"\310Pe\200K\263_\275mk<\202\376\364J\013\026j\250\214"
  48      4BB35FBD 
  48      6D6B3C82 
  48      FEF44A0B 
  48      166AA88C 
  49 0145 79680283 		.ascii	"yh\002\203\261-\031\265\254\372\253\032\235\256\245"
  49      B12D19B5 
  49      ACFAAB1A 
  49      9DAEA5
  50 0154 B9E2A488 		.ascii	"\271\342\244\210P\267+Lu\316~\304\325I\231L\343(P\374"
  50      50B72B4C 
  50      75CE7EC4 
  50      D549994C 
  50      E32850FC 
  51 0168 CA332636 		.ascii	"\3123&6~?D\224\364\313\036\277\302E|qZ\011\020\367\341"
  51      7E3F4494 
  51      F4CB1EBF 
  51      C2457C71 
  51      5A0910F7 
  52 017d DF17E7FF 		.ascii	"\337\027\347\377P\342\330\213\363\363K\010\3164e+K\200"
  52      50E2D88B 
  52      F3F34B08 
  52      CE34652B 
  52      4B80
  53 018f 86D2BCDF 		.ascii	"\206\322\274\337W6\254\235k:x\011A\355\260\333\242\302"
  53      5736AC9D 
  53      6B3A7809 
  53      41EDB0DB 
  53      A2C2
  54 01a1 91A7C994 		.ascii	"\221\247\311\224\343}zs9op\336\237\361\307\306\275\205"
  54      E37D7A73 
  54      396F70DE 
  54      9FF1C7C6 
  54      BD85
  55 01b3 656F7EBA 		.ascii	"eo~\272\350-.,}]\366\306\363\243}\275V\207\372VV83U"
  55      E82D2E2C 
  55      7D5DF6C6 
  55      F3A37DBD 
  55      5687FA56 
ARM GAS  /tmp/ccOBBbjc.s 			page 4


  56 01cb 2CCEE566 		.ascii	",\316\345f\341/1\306\3619"
  56      E12F31C6 
  56      F139
  57              		.text
  58              		.section	.gnu.lto_hal_lld_init.625ec3df80860569,"",%progbits
  59 0000 789CAD94 		.ascii	"x\234\255\224KH\033Q\024\206\317\2713\327\306\007$D"
  59      4B481B51 
  59      1486CFB9 
  59      33D7C607 
  59      2444
  60 0012 04B30B01 		.ascii	"\004\263\013\001W\205\214M\020\012]\225\202\320\205"
  60      57858C4D 
  60      100A5D95 
  60      82D085
  61 0021 B848045D 		.ascii	"\270H\004]\225\230\202\016\004\242\265\264\241.r\323"
  61      9598820E 
  61      04A2B5B4 
  61      A12E72D3 
  62 0031 A4104AC1 		.ascii	"\244\020J\301\340J\324E4\210\301\215\333\276\026\342"
  62      E04AD445 
  62      3488C18D 
  62      DBBE16E2 
  63 0041 C676618B 		.ascii	"\306va\213[W\021\272\354^p\341x\356\235\231@\223`'!"
  63      5B5711BA 
  63      EC5E70E1 
  63      78EE9D99 
  63      40936027 
  64 0056 07E69C79 		.ascii	"\007\346\234y\344\377\357\367\337\031\302\200Ak\205"
  64      E4FFEFF7 
  64      DF19C280 
  64      416B85
  65 0065 E858E500 		.ascii	"\350X\345\000\3234Q\003d\225_\000\005\037C\224'\200"
  65      D3345103 
  65      64955F00 
  65      051F4394 
  65      2780
  66 0077 9067985F 		.ascii	"\220g\230_@\371S-\002{Bl6>\\o\205>V\337W\304\255e\241"
  66      40F9532D 
  66      027B426C 
  66      363E5C6F 
  66      853E56DF 
  67 0090 89643A85 		.ascii	"\211d:\205\220F\230\247\013\014\253\301\364\177W\261"
  67      904698A7 
  67      0B0CABC1 
  67      F47F57B1 
  68 00a0 95275FCF 		.ascii	"\225'_\317>\015U\012eaYy\245{\342Q\367\275E\367\364"
  68      3E0D550A 
  68      65615979 
  68      A57BE251 
  68      F7BD45F7 
  69 00b5 7FBA6376 		.ascii	"\177\272cv\322\260\254\335o\177\256608\306 \205{\030"
  69      D2B0ACDD 
  69      6F7FAE36 
  69      3038C620 
  69      857B18
  70 00c8 014EB346 		.ascii	"\001N\263F\323G\363\200\3460\220\333\210l~\331\002\262"
  70      D347F380 
ARM GAS  /tmp/ccOBBbjc.s 			page 5


  70      E63090DB 
  70      886C7ED9 
  70      02B2
  71 00da 05651B95 		.ascii	"\005e\033\225\215\212CI\210J\030\344jTI\352rW\346\220"
  71      8D8A4349 
  71      884A18E4 
  71      6A5449EA 
  71      7257E690 
  72 00ee C9A99DC3 		.ascii	"\311\251\235\303\351\345\326\365x\012\017\221\303\022"
  72      E9E5D6F5 
  72      780A0F91 
  72      C312
  73 00fc B2877024 		.ascii	"\262\207p$J\205\200\211\332\016l\023\225.\321\270\250"
  73      4A858089 
  73      DA0E6C13 
  73      952ED1B8 
  73      A8
  74 010d 9685AE28 		.ascii	"\226\205\256(\271b[D\227\222\364\217mqwJy\007,*\177"
  74      B9625B44 
  74      9792F48F 
  74      6D71774A 
  74      79072C2A 
  75 0122 BB0976E1 		.ascii	"\273\011v\341\2419\020\227\365\267n\006\356\225\004"
  75      A1391097 
  75      F5B76E06 
  75      EE9504
  76 0131 7BCE807D 		.ascii	"{\316\200}\310\200\355\031~43\370\274\222\260\2363\260"
  76      C880ED19 
  76      7E3433F8 
  76      BC92B09E 
  76      33B0
  77 0143 3E6460ED 		.ascii	">d`\355\031\352\357\334\014\303^I\264f\206\342\027\315"
  77      19EAEFDC 
  77      0CC35E49 
  77      B46686E2 
  77      17CD
  78 0155 558F9081 		.ascii	"U\217\220\201\202\023Th\233?\357.\241\355KV\000\277"
  78      82135468 
  78      9B3FEF2E 
  78      A1ED4B56 
  78      00BF
  79 0167 A1D8F85B 		.ascii	"\241\330\370[\363\333z\200u\270\021eA\016\003i\347="
  79      F3DB7A80 
  79      75B81165 
  79      410E0369 
  79      E73D
  80 0179 98F8C0E6 		.ascii	"\230\370\300\346\377\274\037r\021\374^\027\322;\005"
  80      FFBC1F72 
  80      11FC5E17 
  80      D23B05
  81 0188 0890810A 		.ascii	"\010\220\201\012\320\033\274\356\300\007\034\254\332"
  81      D01BBCEE 
  81      C0071CAC 
  81      DA
  82 0195 4FE63A07 		.ascii	"O\346:\007[=|R8(D\311\361\030t<x'\256Q2P\\\341{\271"
  82      5B3D7C52 
  82      382844C9 
ARM GAS  /tmp/ccOBBbjc.s 			page 6


  82      F118743C 
  82      7827AE51 
  83 01af EEF7241B 		.ascii	"\356\367$\033\200\013(46&\334=\265+I\373I\377+\362\303"
  83      800B2834 
  83      3626DC3D 
  83      B52B49FB 
  83      49FF2BF2 
  84 01c4 8845A3C6 		.ascii	"\210E\243\306\263es\321\234M\030\3315c9\2251V\262\257"
  84      B36573D1 
  84      9C4D18D9 
  84      35633995 
  84      3156B2AF 
  85 01d8 5EAF1989 		.ascii	"^\257\031\211\344L<f\367\351x.'\237\274\310d^F\323\300"
  85      E44C3C66 
  85      F7E9782E 
  85      279FBCC8 
  85      645E46D3 
  86 01ed DF6433D1 		.ascii	"\337d3\321I\325\037\251\036\273\003\013Z@\361"
  86      49D51FA9 
  86      1EBB030B 
  86      5A40F1
  87              		.text
  88              		.section	.gnu.lto_stm32_clock_init.625ec3df80860569,"",%progbits
  89 0000 789CA555 		.ascii	"x\234\245U\317KTQ\030\275\337}\357\315<\337\374tf\374"
  89      CF4B5451 
  89      18BDDF7D 
  89      EFCD3CDF 
  89      FC7466FC 
  90 0014 812E1C14 		.ascii	"\201.\034\024M-\234\322\376\201)\010ZD\013\025j\025"
  90      4D2D9CD2 
  90      FE812908 
  90      5A440B15 
  90      6A15
  91 0026 6AA00382 		.ascii	"j\240\003\202\221.\334\371D\027-\\\270\224\202\250]"
  91      912EDCF9 
  91      44172D5C 
  91      B89482A8 
  91      5D
  92 0037 2424B8B0 		.ascii	"$$\270\260\211\201\022\011\222\300\250\235\2712\204"
  92      89811209 
  92      92C0A89D 
  92      B93284
  93 0046 A46CE34E 		.ascii	"\244l\343N!\230\356w\357}\367N:\302\314\274\007\236"
  93      2198EE77 
  93      EF7DF74E 
  93      3AC2CCBC 
  93      079E
  94 0058 37733FEF 		.ascii	"7s?\357\231s\317w\276\367(\241\344\354u\304\376\376"
  94      9973CF77 
  94      BEF728A1 
  94      E4EC75C4 
  94      FEFE
  95 006a 3A845C67 		.ascii	":\204\\gwh @\227\277\0202oS0\304\007\203\246\226>\021"
  95      77682040 
  95      97BF1032 
  95      6F5330C4 
  95      0783A696 
ARM GAS  /tmp/ccOBBbjc.s 			page 7


  96 0080 E23AE662 		.ascii	"\342:\346b\220\270\341\224X\317\232`\211\272E\223\242"
  96      90B8E194 
  96      58CF9A60 
  96      89BA4593 
  96      A2
  97 0091 1EE0F5A4 		.ascii	"\036\340\365\244X\317\006 (\352A\232\020u\233\327\023"
  97      58CF0620 
  97      28EA419A 
  97      10759BD7 
  97      13
  98 00a2 623D6B43 		.ascii	"b=kC\235\250\327\321zQwx\275^\254g\035\010\211z\210"
  98      9DA8D7D1 
  98      7A517778 
  98      BD5EAC67 
  98      1D08897A 
  99 00b7 C6453DCC 		.ascii	"\306E=\314\353q\261\236\015CD\324#4&\352Q^\217\211\365"
  99      EB71B19E 
  99      0D4344D4 
  99      233426EA 
  99      515E8F89 
 100 00cc 6C1400EF 		.ascii	"l\024\000\357\004\310\0345R\246\225\014\004\023v]\275"
 100      04C81C35 
 100      52A6950C 
 100      0413765D 
 100      BD
 101 00dd 138A8723 		.ascii	"\023\212\207#\261(\314\335\007~\3725\272\271_,\276\371"
 101      B128CCDD 
 101      077EFA35 
 101      BAB95F2C 
 101      BEF9
 102 00ef FAF9F912 		.ascii	"\372\371\371\022\024\350\025Jr@\014\004\013!\200\020"
 102      14E8154A 
 102      72400C04 
 102      0B218010 
 103 00ff 44B0111C 		.ascii	"D\260\021\034\2040B\004!\212\020CH $\021\032\020\032"
 103      84304204 
 103      218A1043 
 103      48202411 
 103      1A101A
 104 0112 119A109A 		.ascii	"\021\232\020\232\021Z\020Z\021\332\020\322\010\355\010"
 104      115A105A 
 104      11DA10D2 
 104      08ED08
 105 0121 1D089D08 		.ascii	"\035\010\235\010]\010\335\010=\010\275\010\354\262\310"
 105      5D08DD08 
 105      3D08BD08 
 105      ECB2C8
 106 0130 A2EB2EA7 		.ascii	"\242\353.\247\011\031\343_\207\030\262C\016\003e7c\207"
 106      0919E35F 
 106      8718B243 
 106      0E036537 
 106      6387
 107 0142 6CEDE557 		.ascii	"l\355\345W\277\303\010\274\004\213\214\003\275L^\273"
 107      BFC308BC 
 107      048B8C03 
 107      BD4C5EBB 
 108 0152 8BF3F11C 		.ascii	"\213\363\361\034\3003\362\024r@\35710\334\027O\\\223"
ARM GAS  /tmp/ccOBBbjc.s 			page 8


 108      C033F214 
 108      7240EF31 
 108      30DC174F 
 108      5C93
 109 0164 F08FFCC4 		.ascii	"\360\217\374\304\243\340u~\207,\2743\274\335\306\270"
 109      A3E0757E 
 109      872CBC33 
 109      BCDDC6B8 
 110 0174 F87F02BC 		.ascii	"\370\177\002\274\262u[\024\252\343\034\227\337\231D"
 110      B2755B14 
 110      AAE31C97 
 110      DF9944
 111 0183 8330FBB9 		.ascii	"\2030\373\271\306\335\325S\245\321\342|P\215\304\302"
 111      C6DDD553 
 111      A5D1E27C 
 111      508DC4C2 
 112 0193 C2BADA1E 		.ascii	"\302\272\332\036`\014\\$\306x\233|<\234\037P%\276^z"
 112      600C5C24 
 112      C6789B7C 
 112      3C9C1F50 
 112      25BE5E7A 
 113 01a7 0D418AB0 		.ascii	"\015A\212\260d\3000\230\236]+k\277\024W\260\322\243"
 113      64C03098 
 113      9E5D2B6B 
 113      BF1457B0 
 113      D2A3
 114 01b9 41891665 		.ascii	"A\211\026e\227\315\010\370/\376-\026\213\261\232,\003"
 114      97CD08F8 
 114      2FFE2D16 
 114      8BB19A2C 
 114      03
 115 01ca 6999CD37 		.ascii	"i\231\3157\357\275ZS\322\234\352\245\325\372\343\216"
 115      EFBD5A53 
 115      D29CEAA5 
 115      D5FAE38E 
 116 01da D72F4BF7 		.ascii	"\327/K\367k\355X)\011W\330\257R\217\0266\324\366\010"
 116      6BED5829 
 116      0957D8AF 
 116      528F1636 
 116      D4F608
 117 01ed 63E02E85 		.ascii	"c\340.\205y\277\026\377\350~E\312\364+)\373\025\360"
 117      79BF16FF 
 117      E87E45CA 
 117      F42B29FB 
 117      15F0
 118 01ff FAB5BBAE 		.ascii	"\372\265\273\256\343\035\255!\336\272_1F\300\177\361"
 118      E31DAD21 
 118      DEBA5F31 
 118      46C07FF1 
 119 020f D45FBE63 		.ascii	"\324_\276c|s\376d\335\013\222 p#\025Z\204+ [\266\227"
 119      7C73FE64 
 119      DD0B9220 
 119      7023155A 
 119      842B205B 
 120 0225 DFD0C74B 		.ascii	"\337\320\307K\370\232\336$#\340\307s\335\224\257\363"
 120      F89ADE24 
 120      23E0C773 
ARM GAS  /tmp/ccOBBbjc.s 			page 9


 120      DD94AFF3 
 121 0235 25BD3C04 		.ascii	"%\275<\004u\036\336\352\371m\3607\277\215\214A\312\264"
 121      751EDEEA 
 121      F96DF037 
 121      BF8D8C41 
 121      CAB4
 122 0247 CF4D7063 		.ascii	"\317Mpc\231D$d\"l5\301\205\037\212\255\251\322\303Q"
 122      99442464 
 122      226C35C1 
 122      851F8AAD 
 122      A9D2C351 
 123 025b AD465BD6 		.ascii	"\255F[\326\314\010|<\360\2504\254\3313\254N\031\226"
 123      CC087C3C 
 123      F0A834AC 
 123      D933AC4E 
 123      1996
 124 026d 2FE8016A 		.ascii	"/\350\001j\251\320\260\022\211\245\206\2652\206\013"
 124      A9D0B012 
 124      89A586B5 
 124      32860B
 125 027c 1E78AD65 		.ascii	"\036x\255e\354\252\227v9\322\256\374\356\373c\0379u"
 125      ECAA9776 
 125      39D2AEFC 
 125      EEFB631F 
 125      3975
 126 028e B7678437 		.ascii	"\267g\2047\371\374\207\252y\214\022\236\033\222f\267"
 126      F9FC87AA 
 126      798C129E 
 126      1B9266B7 
 127 029e 7A1A53D3 		.ascii	"z\032S\323\\\225c\263r\240\237\342m\276\306&\315\010"
 127      5C9563B3 
 127      72A09FE2 
 127      6DBEC626 
 127      CD08
 128 02b0 641E7920 		.ascii	"d\036y k\237\233\264\027\203\220\216\301\201\236\233"
 128      6B9F9BB4 
 128      1783908E 
 128      C1819E9B 
 129 02c0 767F73D3 		.ascii	"v\177s\323\301\030<\235\361sI\350(\223\204\270LBX%\341"
 129      C1183C9D 
 129      F17349E8 
 129      289384B8 
 129      4C425825 
 130 02d5 E719EBAF 		.ascii	"\347\031\353\257)1&\356\267\334MO\214%\305X\332\372"
 130      293126EE 
 130      B7DC4D4F 
 130      8C25C558 
 130      DAFA
 131 02e7 84B4FEE4 		.ascii	"\204\264\376\344P[\337Y\303\013T[\337\305\010T\262k"
 131      505BDF59 
 131      C30B545B 
 131      DFC50854 
 131      B26B
 132 02f9 7F7F7579 		.ascii	"\177\177uy\276G\224\357+\277\365\370u\373{\177\3650"
 132      BE4794EF 
 132      2BBFF5F8 
 132      75FB7B7F 
ARM GAS  /tmp/ccOBBbjc.s 			page 10


 132      F530
 133 030b 860BDE5F 		.ascii	"\206\013\336_=|\335\376\317\364\2304=\252\336_GZJo\245"
 133      3D7CDDFE 
 133      CFF49834 
 133      3DAADE5F 
 133      475A4A6F 
 134 0320 47339596 		.ascii	"G3\225\226jM1\245)\275\204|#\363\373\371Kb\273\026\010"
 134      6A4D31A5 
 134      29BD847C 
 134      23F3FBF9 
 134      4B62BB16 
 135 0335 4C18FADD 		.ascii	"L\030\372\335\337\327\227\2719\221\033\315\335\035\314"
 135      DFD797B9 
 135      39911BCD 
 135      DD1DCC
 136 0344 4C4D6726 		.ascii	"LMg&F&3\217\246\036\317Lg\006\207\356\014\364\013\274"
 136      4626338F 
 136      A61ECF4C 
 136      670687EE 
 136      0CF40BBC 
 137 0358 35303B8B 		.ascii	"50;\213\225\007\223\223\017\373\306\310?x\003\204p"
 137      95079393 
 137      0FFBC6C8 
 137      3F780384 
 137      70
 138              		.text
 139              		.section	.gnu.lto_.symbol_nodes.625ec3df80860569,"",%progbits
 140 0000 789C6362 		.ascii	"x\234cb`b\260c\200\002\246\211L\365\014\014\023\316"
 140      6062B063 
 140      8002A689 
 140      4CF50C0C 
 140      13CE
 141 0012 3130D4D7 		.ascii	"10\324\327\317\355Hd\232\304T\317\010\345\316\353`d"
 141      CFED4864 
 141      9AC454CF 
 141      08E5CEEB 
 141      6064
 142 0024 9ACC54CF 		.ascii	"\232\314T\317\204\340\262N`b`\255g`fd`hj\177#\317\000"
 142      84E0B24E 
 142      606260AD 
 142      67606664 
 142      60686A7F 
 143 003b 0048DF11 		.ascii	"\000H\337\021\240"
 143      A0
 144              		.text
 145              		.section	.gnu.lto_.refs.625ec3df80860569,"",%progbits
 146 0000 789C6362 		.ascii	"x\234cb`b`d\200\002\000\000F\000\006"
 146      60626064 
 146      80020000 
 146      460006
 147              		.text
 148              		.section	.gnu.lto_.decls.625ec3df80860569,"",%progbits
 149 0000 789CBD97 		.ascii	"x\234\275\227\177l\023e\030\307\337\367Z\266\226\325"
 149      7F6C1365 
 149      18C7DFF7 
 149      5AB696D5 
 150 0010 F12381A0 		.ascii	"\361#\201\2401R\210\030C\334\216\265#\352?\310v\014"
ARM GAS  /tmp/ccOBBbjc.s 			page 11


 150      31528818 
 150      43DC8EB5 
 150      23EA3FC8 
 150      760C
 151 0022 465458AE 		.ascii	"FTX\256C\340\037\233w\355\3155\254-\256]\034\377\035"
 151      43E01F9B 
 151      77EDCD35 
 151      AC2DAE5D 
 151      1CFF1D
 152 0035 1B08D1A8 		.ascii	"\033\010\321\250\223 !\012\270!\240#b\370\341H\370!"
 152      9320210A 
 152      B821A023 
 152      62F8E148 
 152      F821
 153 0047 54608420 		.ascii	"T`\204 1\013\341\207t\262.\223\020\220\310\010\022!"
 153      310BE187 
 153      74B22E93 
 153      1090C808 
 153      1221
 154 0059 02D6E7DE 		.ascii	"\002\326\347\336\336\265\367\326^w\345\017\337\344y"
 154      DEB5F7D6 
 154      5E77E50F 
 154      DFE479
 155 0068 EEDDDDFB 		.ascii	"\356\335\335\373~\336\357=\357\363>\275q\210C\225\030"
 155      7EDEEF3D 
 155      EFF33EBD 
 155      71884395 
 155      18
 156 0079 A124B497 		.ascii	"\241$\264\227& \264\205C\310\212\020\232\2032\315\002"
 156      2620B485 
 156      43C88A10 
 156      9A8332CD 
 156      02
 157 008a D60DB60B 		.ascii	"\326\015\266\013\254\007\014\206\243o\021\333\224\347"
 157      AC070C86 
 157      A36F11DB 
 157      94E7
 158 0098 4560C560 		.ascii	"E`\305`\275`\007\301\216\203\305\300\256\202\001\026"
 158      BD6007C1 
 158      8E83C5C0 
 158      AE820116 
 159 00a8 1D01BBA0 		.ascii	"\035\001\273\240\316\357F\377m\012\177\254\312(\005"
 159      CEEF46FF 
 159      6D0A7FAC 
 159      CA2805
 160 00b7 73A82C8D 		.ascii	"s\250,\2151\010\266\035,\001v[]\3572\3309\260\263`\347"
 160      3108B61D 
 160      2C01765B 
 160      5DEF32D8 
 160      39B0B360 
 161 00cc C1FAC1AE 		.ascii	"\301\372\301\256\251\353\3552X\247'K\253\306\037\001"
 161      A9EBED32 
 161      58A7274B 
 161      ABC61F01 
 162 00dc 1B8353CF 		.ascii	"\033\203S\317\372\300N\203]\002\273\0026\000vO\325\336"
 162      FAC04E83 
 162      5D02BB02 
ARM GAS  /tmp/ccOBBbjc.s 			page 12


 162      3600764F 
 162      D5DE
 163 00ee 93833915 		.ascii	"\223\2039\025m\223cw\206\372\006>~Z\356j\217%\223\257"
 163      6D936377 
 163      86FA063E 
 163      7E5AEE6A 
 163      8F2593AF 
 164 0102 A1C9E833 		.ascii	"\241\311\3503\031Z\327\373\262\214\243\004\317\231\204"
 164      195AD7FB 
 164      B28CA304 
 164      CF9984
 165 0111 9661824B 		.ascii	"\226a\202K\355\310I;\016;\0154B\004o\307\223\325\336"
 165      EDC8493B 
 165      0E3B0D34 
 165      42046FC7 
 165      93D5DE
 166 0124 124B0AC7 		.ascii	"\022K\012\307\241\331\030\315D=0\277S\226\333g\342\034"
 166      A1D918CD 
 166      443D30BF 
 166      5396DB67 
 166      E21C
 167 0136 4B22F402 		.ascii	"K\"\364\002\332\251\254 \177#[(_!t\343\251\372!\004"
 167      DAA9AC20 
 167      7F235B28 
 167      5F2174E3 
 167      A9FA2104 
 168 014a 7F85B96C 		.ascii	"\177\205\271l\241]C\261\003\353~\302\362\006\371Q2i"
 168      A15D43B1 
 168      03EB7EC2 
 168      F206F951 
 168      3269
 169 015c 51057068 		.ascii	"Q\005ph)\206\356\016<3/\177W6\377\353\234\374\376\263"
 169      2986EE0E 
 169      3C332F7F 
 169      5736FFEB 
 169      9CFCFEB3 
 170 0170 8ECED543 		.ascii	"\216\316\325C\311\344T\015\3567\003\357\311\206\357"
 170      C9E4540D 
 170      EE3703EF 
 170      C986EF
 171 017f 66E1D351 		.ascii	"f\341\323Q\267\334u\"\366\345\3153\212x\371N29\316\216"
 171      B7DC7522 
 171      F6E5CD33 
 171      8A78F94E 
 171      3239CE8E 
 172 0193 D6438094 		.ascii	"\326C\200\224(\327\236\201\244\311\025\342\031h\007"
 172      28D79E81 
 172      A4C915E2 
 172      196807
 173 01a2 84716860 		.ascii	"\204qh`]\337\217\270\0356\203\340=\330\016\222nbV\223"
 173      5DDF8FB8 
 173      1D3683E0 
 173      3DD80E92 
 173      6E625693 
 174 01b6 79D4C54F 		.ascii	"y\324\305O\216\276*\3136\202\367R\320}\216\005\021\\"
 174      8EBE2ACB 
 174      3682F752 
ARM GAS  /tmp/ccOBBbjc.s 			page 13


 174      D07D8E05 
 174      115C
 175 01c8 6C67DF03 		.ascii	"lg\337\003\376\326\006(4\372X\355('o\034*t8\207\332"
 175      FED60628 
 175      34FA58ED 
 175      28276F1C 
 175      2A743887 
 176 01dd 2DDAA246 		.ascii	"-\332\242Fiu\000\202\367\034\332`\331*\333\350\235e"
 176      69750082 
 176      F71CDA60 
 176      D92ADBE8 
 176      9D65
 177 01ef EA9BCBA7 		.ascii	"\352\233\313\247vOW\337\266#\357\333\022\374\035\236"
 177      764F57DF 
 177      B623EFDB 
 177      12FC1D9E 
 178 01ff 614ACE44 		.ascii	"aJ\316D\364)\315\365\271:\324\\\015e\313\004n\337\027"
 178      F429CDF5 
 178      B93AD45C 
 178      0D65CB04 
 178      6EDF17
 179 0212 F75FA681 		.ascii	"\367_\246\201;\210'\302;\374ja\0037*F\321t\010\246\246"
 179      3B8827C2 
 179      3BFC6A61 
 179      03372A46 
 179      D17408A6 
 180 0227 2651A81C 		.ascii	"&Q\250\034\273\230p\310\326\324}\224\225d\2726\015u"
 180      BB9870C8 
 180      D6D47D94 
 180      9564BA36 
 180      0D75
 181 0239 C96B3A62 		.ascii	"\311k:bW\022\033\341\204\236\000d/\335\273\033T\202"
 181      57121BE1 
 181      849E0064 
 181      2FDDBB1B 
 181      5482
 182 024b 32375704 		.ascii	"27W\004\324.J\307\257\324\236\305\213'\034\235D\203"
 182      D42E4AC7 
 182      AFD49EC5 
 182      8B271C9D 
 182      4483
 183 025d DD2A18E6 		.ascii	"\335*\030\346\314%UK\203\314\233\022|\230\356\304\021"
 183      CC25554B 
 183      83CC9B12 
 183      7C98EEC4 
 183      11
 184 026e 3C0DFC0F 		.ascii	"<\015\374\017\340\323\255\004}\220\311\332T`\215\022"
 184      E0D3AD04 
 184      7D90C9DA 
 184      54608D12 
 185 027e E2382ED1 		.ascii	"\3428.\321f\251\221v\352\002\335e\321\306W\2467,\326"
 185      66A99176 
 185      EA02DD65 
 185      D1C657A6 
 185      372CD6
 186 0291 3B3C4589 		.ascii	";<E\211m\214n\327H\356\3552\206(\213\236\314\336\256"
 186      6D8C6ED7 
ARM GAS  /tmp/ccOBBbjc.s 			page 14


 186      48EEED32 
 186      86288B9E 
 186      CCDEAE
 187 02a4 FBA9ED3A 		.ascii	"\373\251\355:ij\273\0362\333E\360Q\310\351\324\334'"
 187      696ABB1E 
 187      32DB45F0 
 187      51C8E9D4 
 187      DC27
 188 02b6 DBAE47FA 		.ascii	"\333\256G\372\355zH\337\247\020\230\223\201\375\243"
 188      ED7A48DF 
 188      A7109893 
 188      81FDA3
 189 02c5 87C95613 		.ascii	"\207\311V\0230\233\261\262\316a\245\25094\334\232\202"
 189      309BB1B2 
 189      CE61A5A8 
 189      3934DC9A 
 189      82
 190 02d6 71ACB60D 		.ascii	"q\254\266\015,\356#3\270\361\306\3526\262\270M\005\343"
 190      2CEE2333 
 190      B8F1C6EA 
 190      36B2B84D 
 190      05E3
 191 02e8 58759B58 		.ascii	"Xu\233X\334V3\270)\306\3526\263\270\235\005\343Xu\237"
 191      DC5633B8 
 191      29C6EA36 
 191      B3B89D05 
 191      E358759F 
 192 02fc B3B83D66 		.ascii	"\263\270=fpNcu[\3648\202\217\231Ia\247\261\272m\254"
 192      704E6375 
 192      5BF43882 
 192      8F994961 
 192      A7B1BA6D 
 193 0311 BAFD66D4 		.ascii	"\272\375f\324\275h\254n/\213;\\0\216U\267\237\305\305"
 193      BD68AC6E 
 193      2F8B3B5C 
 193      308E55B7 
 193      9FC5C5
 194 0324 CCE066E5 		.ascii	"\314\340f\345P\227\253\351\213\011\301\247hE\354\243"
 194      5097ABE9 
 194      8B09C1A7 
 194      6845ECA3 
 195 0334 15F134F5 		.ascii	"\025\3614\365g\250?K\3759\352\177\246\276\237\372\363"
 195      67A83F4B 
 195      FD39EA7F 
 195      A6BE9FFA 
 195      F3
 196 0345 D45FA0FE 		.ascii	"\324_\240\376\022\365\227\251\277B\375@\236\232\032"
 196      12F597A9 
 196      BF42FD40 
 196      9E9A1A
 197 0354 CB5353AF 		.ascii	"\313SS\257fjj\326,\345\273\307h\326`\336J<\204\265\361"
 197      666A6AD6 
 197      2CE5BBC7 
 197      68D660DE 
 197      4A3C84B5 
 198 0369 CFA27425 		.ascii	"\317\242t%>4\210\235\004'h!>m\035\265\020\263\014e\315"
 198      3E34889D 
ARM GAS  /tmp/ccOBBbjc.s 			page 15


 198      04276821 
 198      3E6D1DB5 
 198      10B30C65 
 199 037e E1EC42BC 		.ascii	"\341\354B\274u\220\026\342aS\205x\337 \373\273y\221"
 199      759016E2 
 199      61538578 
 199      DF20FBBB 
 199      7991
 200 0390 4A187EE2 		.ascii	"J\030~\342B\274\177PW;\007\012\206\351\223nu\354\373"
 200      42BC7F50 
 200      573B070A 
 200      86E9936E 
 200      75ECFB
 201 03a3 B73BC904 		.ascii	"\267;\311\004\324\251\306 EU\007\312\3518\244\312\221"
 201      D4A9C620 
 201      455507CA 
 201      E938A4CA 
 201      91
 202 03b4 7ED81EE3 		.ascii	"~\330\036\343a\004\377\216'\320\036\375N\222\323\273"
 202      6104FF8E 
 202      27D01EFD 
 202      4E92D3BB 
 203 03c4 EAB01B6E 		.ascii	"\352\260\033n\352-lOKt\3303\035\013\223\302\332(x\355"
 203      EA2D6C4F 
 203      4B74D833 
 203      1D0B93C2 
 203      DA2878ED 
 204 03d8 44F66BB3 		.ascii	"D\366k\263*F\377\3158\230\011\"\301qZWF\011b\256\"\232"
 204      2A46FFCD 
 204      38980922 
 204      C1715A57 
 204      460962AE 
 205 03ee ABE9D385 		.ascii	"\253\351\323\205\340\337\350Q\273F\017\312u\352oP\377"
 205      E0DFE851 
 205      BB460FCA 
 205      75EA6F50 
 205      FF
 206 03ff 479E4393 		.ascii	"G\236C\223\310shn\347\377\020\341\264\361\317\243t\372"
 206      C873686E 
 206      E7FF10E1 
 206      B4F1CFA3 
 206      74FA
 207 0411 5F8D2BE9 		.ascii	"_\215+\351?B\323\377\372\350\351\3172\2245\357f\247"
 207      3F42D3FF 
 207      FAE8E9CF 
 207      329435EF 
 207      66A7
 208 0423 7F6F9CA6 		.ascii	"\177o\234\246\377]S\351\177(\316\246\377=*\341\356\023"
 208      FF5D53E9 
 208      7F28CEA6 
 208      FF3D2AE1 
 208      EE13
 209 0435 A7FFE1B8 		.ascii	"\247\377\341\270.\375\037\024\014s2\260\243z\330c3\260"
 209      2EFD1F14 
 209      0C7332B0 
 209      A37AD863 
 209      33B0
ARM GAS  /tmp/ccOBBbjc.s 			page 16


 210 0447 3C39754C 		.ascii	"<9uL\017[;\246P\030\253\254?\256K\320\324\267\333(\260"
 210      0F5B3BA6 
 210      5018ABAC 
 210      3FAE4BD0 
 210      D4B7DB28 
 211 045c 3CDF20E7 		.ascii	"<\337 \347\365\312\326\233Qf\364\005\"\267\307.\244"
 211      F5CAD69B 
 211      5166F405 
 211      22B7C72E 
 211      A4
 212 046d 60A9FF04 		.ascii	"`\251\377\004?4\003\313\363\375qI\257lc\30106f\277\350"
 212      3F3403CB 
 212      F3FD7149 
 212      AF6C63C1 
 212      303666BF 
 213 0482 619BCDC0 		.ascii	"a\233\315\300\2349\224\345j\372C@\360\237\364P\337\243"
 213      9C3994E5 
 213      6AFA4340 
 213      F09FF450 
 213      DFA3
 214 0494 07F92FEA 		.ascii	"\007\371/\352\037P\3777\365\217\250\177L}\222\372\325"
 214      1F50FF37 
 214      F58FA87F 
 214      4C7D92FA 
 214      D5
 215 04a5 9CE23B38 		.ascii	"\234\342;8\343#?\222\347\310\257\345\322G\036\271\312"
 215      E3233F92 
 215      E7C8AFE5 
 215      D2471EB9 
 215      CA
 216 04b6 CB79A129 		.ascii	"\313y\241)\320\020X\354\341\303\021\276\2114\363+\303"
 216      D01058EC 
 216      E1C311BE 
 216      8934F32B 
 216      C3
 217 04c7 2DD108EF 		.ascii	"-\321\010\357\251\177\323\355J\371\371\356\2666\345"
 217      A97FD3ED 
 217      4AF9F9EE 
 217      B636E5
 218 04d6 89B7B9D9 		.ascii	"\211\267\271\331_\356C\317\250]o\003\361\255h]\351\365"
 218      5FEE43CF 
 218      A85D6F03 
 218      F1AD685D 
 218      E9F5
 219 04e8 87832410 		.ascii	"\207\203$\020\362\006B\201h\321\202EK\234\002rh#\224"
 219      F2064281 
 219      68D18245 
 219      4B9C0272 
 219      682394
 220 04fb 7BE323D1 		.ascii	"{\343#\321\240\333\345\3655\207}+\350\215\010\037j\244"
 220      A0DBE5F5 
 220      35877D2B 
 220      E88D081F 
 220      6AA4
 221 050d 369B6F0A 		.ascii	"6\233o\012\007%\276E\212H\244\305\327\004K\264\370\337"
 221      0725BE45 
 221      8A48A4C5 
ARM GAS  /tmp/ccOBBbjc.s 			page 17


 221      D7044BB4 
 221      F8DF
 222 051f 232D124F 		.ascii	"#-\022OZ\202.\376\035\237\257\014:eR\260A\362\373%\177"
 222      5A822EFE 
 222      1D9FAF0C 
 222      3A6552B0 
 222      41F2FB25 
 223 0534 FA46281C 		.ascii	"\372F(\034\222\312$\322\020(\253\364\276R\346\232UQ"
 223      92CA24D2 
 223      1028ABF4 
 223      BE52E69A 
 223      5551
 224 0546 F9AE8B67 		.ascii	"\371\256\213g\036\360\201\220\257\271\325/\361\221\250"
 224      1EF08190 
 224      AFB9D52F 
 224      F191A8
 225 0555 3F108A96 		.ascii	"?\020\212\2267![+\\AE\264\003\377\177\253\007\211\257"
 225      37215B2B 
 225      5C4145B4 
 225      03FF7FAB 
 225      0789AF
 226 0568 29109278 		.ascii	")\020\222x\257_j$\255\315Qot\325J)\002j\306z\275\232"
 226      AF5F6A24 
 226      ADCD516F 
 226      74D54A29 
 226      026AC67A 
 227 057e 9E719E55 		.ascii	"\236q\236U\221\250\024\024\302-\222\240DhR\271\237D"
 227      91A81414 
 227      C22D92A0 
 227      446852B9 
 227      9F44
 228 0590 4979D65D 		.ascii	"Iy\326]7\273KR[\224\027\336\364,\364\300\376\350\266"
 228      37BB4B52 
 228      5B9417DE 
 228      F42CF4C0 
 228      FEE8B6
 229 05a3 8806BAD1 		.ascii	"\210\006\272\321=\313\335\346\203EJ\352\226\212\336"
 229      3DCBDDE6 
 229      83454AEA 
 229      968ADE
 230 05b2 7A58719E 		.ascii	"zXq\236\324\310\011\242E\360\210%\242 h\267\254\302"
 230      D4C809A2 
 230      45F08825 
 230      A22068B7 
 230      ACC2
 231 05c4 FC057073 		.ascii	"\374\005ps\241h\253\252\253v\211\236z\332\251P:EU\265"
 231      A168ABAA 
 231      AB76899E 
 231      7ADAA950 
 231      3A4555B5 
 232 05d8 D5358BC4 		.ascii	"\3255\213\304b\345\201z\255\200\253\265z\236\000\177"
 232      62E5817A 
 232      AD80ABB5 
 232      7A9E007F 
 233 05e8 D4562B63 		.ascii	"\324V+c\306(\323]\324\273K=\313=\320\321\310\364f\205"
 233      C628D35D 
 233      D4BB4B3D 
ARM GAS  /tmp/ccOBBbjc.s 			page 18


 233      CB3DD0D1 
 233      C8F46685 
 234 05fc 4514C4A2 		.ascii	"E\024\304\242\232e\365\013\005\361\251\371oTyj\265\307"
 234      9A65F50B 
 234      05F1A9F9 
 234      6F54796A 
 234      B5C7
 235 060e 962A41B4 		.ascii	"\226*A\264\276^\263\\,^\\W\257\\9\217\310U\2116\261"
 235      BE5EB35C 
 235      2C5E5C57 
 235      AF5C398F 
 235      C8558936 
 236 0623 C65323BE 		.ascii	"\306S#\276U3\317\262\270Z\264.\025\353\304\177\001\270"
 236      5533CFB2 
 236      B85AB42E 
 236      15EBC47F 
 236      01B8
 237 0635 89FFEB   		.ascii	"\211\377\353"
 238              		.text
 239              		.section	.gnu.lto_.symtab.625ec3df80860569,"",%progbits
 240 0000 68616C5F 		.ascii	"hal_lld_init\000\000\000\000\000\000\000\000\000\000"
 240      6C6C645F 
 240      696E6974 
 240      00000000 
 240      00000000 
 241 0016 0000A600 		.ascii	"\000\000\246\000\000\000stm32_clock_init\000\000\000"
 241      00007374 
 241      6D33325F 
 241      636C6F63 
 241      6B5F696E 
 242 002f 00000000 		.ascii	"\000\000\000\000\000\000\000\000\000\251\000\000\000"
 242      00000000 
 242      00A90000 
 242      00
 243 003c 53797374 		.ascii	"SystemCoreClock\000\000\000\000\000\000\000\000\000"
 243      656D436F 
 243      7265436C 
 243      6F636B00 
 243      00000000 
 244 0054 000000AC 		.ascii	"\000\000\000\254\000\000\000"
 244      000000
 245              		.text
 246              		.section	.gnu.lto_.opts,"",%progbits
 247 0000 272D6D63 		.ascii	"'-mcpu=cortex-m4' '-mno-thumb-interwork' '-mthumb' "
 247      70753D63 
 247      6F727465 
 247      782D6D34 
 247      2720272D 
 248 0033 272D6767 		.ascii	"'-ggdb' '-O2' '-fomit-frame-pointer' '-falign-funct"
 248      64622720 
 248      272D4F32 
 248      2720272D 
 248      666F6D69 
 249 0066 696F6E73 		.ascii	"ions=16' '-ffunction-sections' '-fdata-sections' '-"
 249      3D313627 
 249      20272D66 
 249      66756E63 
ARM GAS  /tmp/ccOBBbjc.s 			page 19


 249      74696F6E 
 250 0099 666E6F2D 		.ascii	"fno-common' '-flto'\000"
 250      636F6D6D 
 250      6F6E2720 
 250      272D666C 
 250      746F2700 
 251              		.text
 252              		.cfi_sections	.debug_frame
 253              		.section	.text.hal_lld_init,"ax",%progbits
 254              		.align	2
 255              		.p2align 4,,15
 256              		.global	hal_lld_init
 257              		.thumb
 258              		.thumb_func
 259              		.type	hal_lld_init, %function
 260              	hal_lld_init:
 261              	.LFB273:
 262              		.file 1 "../ChibiOS/os/hal/ports/STM32/STM32F3xx/hal_lld.c"
 263              		.loc 1 105 0
 264              		.cfi_startproc
 265              		@ args = 0, pretend = 0, frame = 0
 266              		@ frame_needed = 0, uses_anonymous_args = 0
 267              		@ link register save eliminated.
 268              		.loc 1 108 0
 269 0000 1C4B     		ldr	r3, .L8
 270              	.LBB4:
 271              	.LBB5:
 272              		.loc 1 57 0
 273 0002 1D48     		ldr	r0, .L8+4
 274              	.LBE5:
 275              	.LBE4:
 276              		.loc 1 108 0
 277 0004 9A6A     		ldr	r2, [r3, #40]
 278 0006 4FF0FF31 		mov	r1, #-1
 279 000a 0022     		movs	r2, #0
 280              		.loc 1 105 0
 281 000c 10B4     		push	{r4}
 282              		.cfi_def_cfa_offset 4
 283              		.cfi_offset 4, -4
 284              		.loc 1 108 0
 285 000e 9962     		str	r1, [r3, #40]
 286 0010 9A62     		str	r2, [r3, #40]
 287              		.loc 1 109 0
 288 0012 1C69     		ldr	r4, [r3, #16]
 289 0014 1961     		str	r1, [r3, #16]
 290 0016 1A61     		str	r2, [r3, #16]
 291              		.loc 1 110 0
 292 0018 DC68     		ldr	r4, [r3, #12]
 293 001a D960     		str	r1, [r3, #12]
 294 001c DA60     		str	r2, [r3, #12]
 295              		.loc 1 113 0
 296 001e D969     		ldr	r1, [r3, #28]
 297 0020 41F08051 		orr	r1, r1, #268435456
 298 0024 D961     		str	r1, [r3, #28]
 299              	.LBB7:
 300              	.LBB6:
 301              		.loc 1 57 0
ARM GAS  /tmp/ccOBBbjc.s 			page 20


 302 0026 0168     		ldr	r1, [r0]
 303 0028 41F48071 		orr	r1, r1, #256
 304 002c 0160     		str	r1, [r0]
 305              		.loc 1 60 0
 306 002e 196A     		ldr	r1, [r3, #32]
 307 0030 01F44071 		and	r1, r1, #768
 308 0034 B1F5007F 		cmp	r1, #512
 309 0038 03D0     		beq	.L2
 310              		.loc 1 62 0
 311 003a 4FF48031 		mov	r1, #65536
 312 003e 1962     		str	r1, [r3, #32]
 313              		.loc 1 63 0
 314 0040 1A62     		str	r2, [r3, #32]
 315              	.L2:
 316              		.loc 1 82 0
 317 0042 0C4B     		ldr	r3, .L8
 318 0044 1A6A     		ldr	r2, [r3, #32]
 319 0046 1204     		lsls	r2, r2, #16
 320 0048 07D4     		bmi	.L3
 321              		.loc 1 84 0
 322 004a 1A6A     		ldr	r2, [r3, #32]
 323 004c 42F40072 		orr	r2, r2, #512
 324 0050 1A62     		str	r2, [r3, #32]
 325              		.loc 1 87 0
 326 0052 1A6A     		ldr	r2, [r3, #32]
 327 0054 42F40042 		orr	r2, r2, #32768
 328 0058 1A62     		str	r2, [r3, #32]
 329              	.L3:
 330              	.LBE6:
 331              	.LBE7:
 332              		.loc 1 129 0
 333 005a 064A     		ldr	r2, .L8
 334              		.loc 1 133 0
 335 005c 074B     		ldr	r3, .L8+8
 336              		.loc 1 129 0
 337 005e 9169     		ldr	r1, [r2, #24]
 338              		.loc 1 135 0
 339 0060 5DF8044B 		ldr	r4, [sp], #4
 340              		.loc 1 129 0
 341 0064 41F00101 		orr	r1, r1, #1
 342 0068 9161     		str	r1, [r2, #24]
 343              		.loc 1 133 0
 344 006a 1A68     		ldr	r2, [r3]
 345 006c 42F02002 		orr	r2, r2, #32
 346 0070 1A60     		str	r2, [r3]
 347              		.loc 1 135 0
 348 0072 7047     		bx	lr
 349              	.L9:
 350              		.align	2
 351              	.L8:
 352 0074 00100240 		.word	1073876992
 353 0078 00700040 		.word	1073770496
 354 007c 00000140 		.word	1073807360
 355              		.cfi_endproc
 356              	.LFE273:
 357              		.size	hal_lld_init, .-hal_lld_init
 358              		.section	.text.stm32_clock_init,"ax",%progbits
ARM GAS  /tmp/ccOBBbjc.s 			page 21


 359              		.align	2
 360              		.p2align 4,,15
 361              		.global	stm32_clock_init
 362              		.thumb
 363              		.thumb_func
 364              		.type	stm32_clock_init, %function
 365              	stm32_clock_init:
 366              	.LFB274:
 367              		.loc 1 144 0
 368              		.cfi_startproc
 369              		@ args = 0, pretend = 0, frame = 0
 370              		@ frame_needed = 0, uses_anonymous_args = 0
 371              		@ link register save eliminated.
 372              		.loc 1 149 0
 373 0000 2449     		ldr	r1, .L23
 374 0002 0B68     		ldr	r3, [r1]
 375 0004 43F00103 		orr	r3, r3, #1
 376 0008 0B60     		str	r3, [r1]
 377              	.L12:
 378              		.loc 1 150 0 discriminator 1
 379 000a 0B68     		ldr	r3, [r1]
 380 000c 214A     		ldr	r2, .L23
 381 000e 9807     		lsls	r0, r3, #30
 382 0010 FBD5     		bpl	.L12
 383              		.loc 1 156 0
 384 0012 5368     		ldr	r3, [r2, #4]
 385 0014 23F00303 		bic	r3, r3, #3
 386 0018 5360     		str	r3, [r2, #4]
 387              		.loc 1 157 0
 388 001a 5368     		ldr	r3, [r2, #4]
 389 001c 5360     		str	r3, [r2, #4]
 390              		.loc 1 158 0
 391 001e 1146     		mov	r1, r2
 392              	.L14:
 393              		.loc 1 158 0 is_stmt 0 discriminator 1
 394 0020 4B68     		ldr	r3, [r1, #4]
 395 0022 1C4A     		ldr	r2, .L23
 396 0024 13F00C03 		ands	r3, r3, #12
 397 0028 FAD1     		bne	.L14
 398              		.loc 1 162 0 is_stmt 1
 399 002a 1168     		ldr	r1, [r2]
 400 002c 01F0F901 		and	r1, r1, #249
 401 0030 1160     		str	r1, [r2]
 402              		.loc 1 163 0
 403 0032 5360     		str	r3, [r2, #4]
 404              		.loc 1 169 0
 405 0034 1368     		ldr	r3, [r2]
 406 0036 43F4A023 		orr	r3, r3, #327680
 407 003a 1360     		str	r3, [r2]
 408              	.L16:
 409              		.loc 1 174 0 discriminator 1
 410 003c 1368     		ldr	r3, [r2]
 411 003e 1549     		ldr	r1, .L23
 412 0040 9B03     		lsls	r3, r3, #14
 413 0042 FBD5     		bpl	.L16
 414              		.loc 1 180 0
 415 0044 4B6A     		ldr	r3, [r1, #36]
ARM GAS  /tmp/ccOBBbjc.s 			page 22


 416 0046 43F00103 		orr	r3, r3, #1
 417 004a 4B62     		str	r3, [r1, #36]
 418              	.L18:
 419              		.loc 1 181 0 discriminator 1
 420 004c 4B6A     		ldr	r3, [r1, #36]
 421 004e 114A     		ldr	r2, .L23
 422 0050 9807     		lsls	r0, r3, #30
 423 0052 FBD5     		bpl	.L18
 424              		.loc 1 186 0
 425 0054 104B     		ldr	r3, .L23+4
 426 0056 5360     		str	r3, [r2, #4]
 427              		.loc 1 189 0
 428 0058 4FF40451 		mov	r1, #8448
 429              		.loc 1 190 0
 430 005c 3023     		movs	r3, #48
 431              		.loc 1 189 0
 432 005e D162     		str	r1, [r2, #44]
 433              		.loc 1 190 0
 434 0060 1363     		str	r3, [r2, #48]
 435              		.loc 1 196 0
 436 0062 1368     		ldr	r3, [r2]
 437 0064 43F08073 		orr	r3, r3, #16777216
 438 0068 1360     		str	r3, [r2]
 439              	.L20:
 440              		.loc 1 197 0 discriminator 1
 441 006a 1368     		ldr	r3, [r2]
 442 006c 0949     		ldr	r1, .L23
 443 006e 9B01     		lsls	r3, r3, #6
 444 0070 FBD5     		bpl	.L20
 445              		.loc 1 202 0
 446 0072 0A4B     		ldr	r3, .L23+8
 447 0074 1222     		movs	r2, #18
 448 0076 1A60     		str	r2, [r3]
 449              		.loc 1 207 0
 450 0078 4B68     		ldr	r3, [r1, #4]
 451 007a 43F00203 		orr	r3, r3, #2
 452 007e 4B60     		str	r3, [r1, #4]
 453              	.L22:
 454              		.loc 1 208 0 discriminator 1
 455 0080 4B68     		ldr	r3, [r1, #4]
 456 0082 044A     		ldr	r2, .L23
 457 0084 03F00C03 		and	r3, r3, #12
 458 0088 082B     		cmp	r3, #8
 459 008a F9D1     		bne	.L22
 460              		.loc 1 214 0
 461 008c 136B     		ldr	r3, [r2, #48]
 462 008e 1363     		str	r3, [r2, #48]
 463 0090 7047     		bx	lr
 464              	.L24:
 465 0092 00BF     		.align	2
 466              	.L23:
 467 0094 00100240 		.word	1073876992
 468 0098 00241D00 		.word	1909760
 469 009c 00200240 		.word	1073881088
 470              		.cfi_endproc
 471              	.LFE274:
 472              		.size	stm32_clock_init, .-stm32_clock_init
ARM GAS  /tmp/ccOBBbjc.s 			page 23


 473              		.global	SystemCoreClock
 474              		.section	.data.SystemCoreClock,"aw",%progbits
 475              		.align	2
 476              		.type	SystemCoreClock, %object
 477              		.size	SystemCoreClock, 4
 478              	SystemCoreClock:
 479 0000 00A24A04 		.word	72000000
 480              		.text
 481              	.Letext0:
 482              		.file 2 "/nfs/nfs5/home/research/hardware/arm2/gcc-arm-embedded/gcc-arm-none-eabi-4_8-2014q2/lib/g
 483              		.file 3 "/nfs/nfs5/home/research/hardware/arm2/gcc-arm-embedded/gcc-arm-none-eabi-4_8-2014q2/arm-n
 484              		.file 4 "/nfs/nfs5/home/research/hardware/arm2/gcc-arm-embedded/gcc-arm-none-eabi-4_8-2014q2/arm-n
 485              		.file 5 "../ChibiOS/os/rt/ports/ARMCMx/compilers/GCC/chtypes.h"
 486              		.file 6 "../ChibiOS/os/rt/include/chsystypes.h"
 487              		.file 7 "../ChibiOS/os/rt/include/chschd.h"
 488              		.file 8 "../ChibiOS/os/ext/CMSIS/ST/STM32F3xx/stm32f303xc.h"
 489              		.file 9 "../ChibiOS/os/rt/ports/ARMCMx/chcore.h"
 490              		.file 10 "../ChibiOS/os/rt/ports/ARMCMx/chcore_v7m.h"
 491              		.file 11 "../ChibiOS/os/rt/include/chtm.h"
 492              		.file 12 "../ChibiOS/os/rt/include/chsem.h"
 493              		.file 13 "../ChibiOS/os/rt/include/chmtx.h"
 494              		.file 14 "../ChibiOS/os/ext/CMSIS/include/core_cm4.h"
 495              		.section	.debug_info,"",%progbits
 496              	.Ldebug_info0:
 497 0000 68080000 		.4byte	0x868
 498 0004 0400     		.2byte	0x4
 499 0006 00000000 		.4byte	.Ldebug_abbrev0
 500 000a 04       		.byte	0x4
 501 000b 01       		.uleb128 0x1
 502 000c 3D050000 		.4byte	.LASF125
 503 0010 01       		.byte	0x1
 504 0011 05020000 		.4byte	.LASF126
 505 0015 15040000 		.4byte	.LASF127
 506 0019 18000000 		.4byte	.Ldebug_ranges0+0x18
 507 001d 00000000 		.4byte	0
 508 0021 00000000 		.4byte	.Ldebug_line0
 509 0025 02       		.uleb128 0x2
 510 0026 04       		.byte	0x4
 511 0027 05       		.byte	0x5
 512 0028 696E7400 		.ascii	"int\000"
 513 002c 03       		.uleb128 0x3
 514 002d 0D000000 		.4byte	.LASF2
 515 0031 02       		.byte	0x2
 516 0032 D4       		.byte	0xd4
 517 0033 37000000 		.4byte	0x37
 518 0037 04       		.uleb128 0x4
 519 0038 04       		.byte	0x4
 520 0039 07       		.byte	0x7
 521 003a 92010000 		.4byte	.LASF0
 522 003e 04       		.uleb128 0x4
 523 003f 01       		.byte	0x1
 524 0040 06       		.byte	0x6
 525 0041 C5000000 		.4byte	.LASF1
 526 0045 03       		.uleb128 0x3
 527 0046 24000000 		.4byte	.LASF3
 528 004a 03       		.byte	0x3
 529 004b 1C       		.byte	0x1c
ARM GAS  /tmp/ccOBBbjc.s 			page 24


 530 004c 50000000 		.4byte	0x50
 531 0050 04       		.uleb128 0x4
 532 0051 01       		.byte	0x1
 533 0052 08       		.byte	0x8
 534 0053 8A030000 		.4byte	.LASF4
 535 0057 04       		.uleb128 0x4
 536 0058 02       		.byte	0x2
 537 0059 05       		.byte	0x5
 538 005a A2030000 		.4byte	.LASF5
 539 005e 04       		.uleb128 0x4
 540 005f 02       		.byte	0x2
 541 0060 07       		.byte	0x7
 542 0061 DB010000 		.4byte	.LASF6
 543 0065 03       		.uleb128 0x3
 544 0066 65020000 		.4byte	.LASF7
 545 006a 03       		.byte	0x3
 546 006b 37       		.byte	0x37
 547 006c 70000000 		.4byte	0x70
 548 0070 04       		.uleb128 0x4
 549 0071 04       		.byte	0x4
 550 0072 05       		.byte	0x5
 551 0073 12010000 		.4byte	.LASF8
 552 0077 03       		.uleb128 0x3
 553 0078 AE040000 		.4byte	.LASF9
 554 007c 03       		.byte	0x3
 555 007d 38       		.byte	0x38
 556 007e 82000000 		.4byte	0x82
 557 0082 04       		.uleb128 0x4
 558 0083 04       		.byte	0x4
 559 0084 07       		.byte	0x7
 560 0085 5D040000 		.4byte	.LASF10
 561 0089 04       		.uleb128 0x4
 562 008a 08       		.byte	0x8
 563 008b 05       		.byte	0x5
 564 008c B7000000 		.4byte	.LASF11
 565 0090 03       		.uleb128 0x3
 566 0091 26030000 		.4byte	.LASF12
 567 0095 03       		.byte	0x3
 568 0096 4E       		.byte	0x4e
 569 0097 9B000000 		.4byte	0x9b
 570 009b 04       		.uleb128 0x4
 571 009c 08       		.byte	0x8
 572 009d 07       		.byte	0x7
 573 009e 49000000 		.4byte	.LASF13
 574 00a2 03       		.uleb128 0x3
 575 00a3 35050000 		.4byte	.LASF14
 576 00a7 04       		.byte	0x4
 577 00a8 2A       		.byte	0x2a
 578 00a9 45000000 		.4byte	0x45
 579 00ad 03       		.uleb128 0x3
 580 00ae 82030000 		.4byte	.LASF15
 581 00b2 04       		.byte	0x4
 582 00b3 41       		.byte	0x41
 583 00b4 65000000 		.4byte	0x65
 584 00b8 03       		.uleb128 0x3
 585 00b9 0C040000 		.4byte	.LASF16
 586 00bd 04       		.byte	0x4
ARM GAS  /tmp/ccOBBbjc.s 			page 25


 587 00be 42       		.byte	0x42
 588 00bf 77000000 		.4byte	0x77
 589 00c3 03       		.uleb128 0x3
 590 00c4 1B000000 		.4byte	.LASF17
 591 00c8 04       		.byte	0x4
 592 00c9 4E       		.byte	0x4e
 593 00ca 90000000 		.4byte	0x90
 594 00ce 03       		.uleb128 0x3
 595 00cf EF040000 		.4byte	.LASF18
 596 00d3 05       		.byte	0x5
 597 00d4 39       		.byte	0x39
 598 00d5 B8000000 		.4byte	0xb8
 599 00d9 03       		.uleb128 0x3
 600 00da 43020000 		.4byte	.LASF19
 601 00de 05       		.byte	0x5
 602 00df 3C       		.byte	0x3c
 603 00e0 A2000000 		.4byte	0xa2
 604 00e4 03       		.uleb128 0x3
 605 00e5 24010000 		.4byte	.LASF20
 606 00e9 05       		.byte	0x5
 607 00ea 3D       		.byte	0x3d
 608 00eb A2000000 		.4byte	0xa2
 609 00ef 03       		.uleb128 0x3
 610 00f0 40030000 		.4byte	.LASF21
 611 00f4 05       		.byte	0x5
 612 00f5 3E       		.byte	0x3e
 613 00f6 A2000000 		.4byte	0xa2
 614 00fa 03       		.uleb128 0x3
 615 00fb 64030000 		.4byte	.LASF22
 616 00ff 05       		.byte	0x5
 617 0100 40       		.byte	0x40
 618 0101 B8000000 		.4byte	0xb8
 619 0105 03       		.uleb128 0x3
 620 0106 F8010000 		.4byte	.LASF23
 621 010a 05       		.byte	0x5
 622 010b 41       		.byte	0x41
 623 010c AD000000 		.4byte	0xad
 624 0110 03       		.uleb128 0x3
 625 0111 59020000 		.4byte	.LASF24
 626 0115 05       		.byte	0x5
 627 0116 43       		.byte	0x43
 628 0117 B8000000 		.4byte	0xb8
 629 011b 03       		.uleb128 0x3
 630 011c 8C010000 		.4byte	.LASF25
 631 0120 05       		.byte	0x5
 632 0121 45       		.byte	0x45
 633 0122 AD000000 		.4byte	0xad
 634 0126 03       		.uleb128 0x3
 635 0127 90040000 		.4byte	.LASF26
 636 012b 06       		.byte	0x6
 637 012c 33       		.byte	0x33
 638 012d B8000000 		.4byte	0xb8
 639 0131 03       		.uleb128 0x3
 640 0132 80040000 		.4byte	.LASF27
 641 0136 06       		.byte	0x6
 642 0137 3F       		.byte	0x3f
 643 0138 3C010000 		.4byte	0x13c
ARM GAS  /tmp/ccOBBbjc.s 			page 26


 644 013c 05       		.uleb128 0x5
 645 013d EE010000 		.4byte	.LASF46
 646 0141 40       		.byte	0x40
 647 0142 07       		.byte	0x7
 648 0143 C2       		.byte	0xc2
 649 0144 1C020000 		.4byte	0x21c
 650 0148 06       		.uleb128 0x6
 651 0149 C6020000 		.4byte	.LASF28
 652 014d 07       		.byte	0x7
 653 014e C3       		.byte	0xc3
 654 014f 27020000 		.4byte	0x227
 655 0153 00       		.byte	0
 656 0154 06       		.uleb128 0x6
 657 0155 5D030000 		.4byte	.LASF29
 658 0159 07       		.byte	0x7
 659 015a C5       		.byte	0xc5
 660 015b 27020000 		.4byte	0x227
 661 015f 04       		.byte	0x4
 662 0160 06       		.uleb128 0x6
 663 0161 B0000000 		.4byte	.LASF30
 664 0165 07       		.byte	0x7
 665 0166 C7       		.byte	0xc7
 666 0167 FA000000 		.4byte	0xfa
 667 016b 08       		.byte	0x8
 668 016c 06       		.uleb128 0x6
 669 016d 38060000 		.4byte	.LASF31
 670 0171 07       		.byte	0x7
 671 0172 C8       		.byte	0xc8
 672 0173 30060000 		.4byte	0x630
 673 0177 0C       		.byte	0xc
 674 0178 06       		.uleb128 0x6
 675 0179 35010000 		.4byte	.LASF32
 676 017d 07       		.byte	0x7
 677 017e CA       		.byte	0xca
 678 017f 27020000 		.4byte	0x227
 679 0183 10       		.byte	0x10
 680 0184 06       		.uleb128 0x6
 681 0185 B4030000 		.4byte	.LASF33
 682 0189 07       		.byte	0x7
 683 018a CB       		.byte	0xcb
 684 018b 27020000 		.4byte	0x227
 685 018f 14       		.byte	0x14
 686 0190 06       		.uleb128 0x6
 687 0191 24060000 		.4byte	.LASF34
 688 0195 07       		.byte	0x7
 689 0196 D2       		.byte	0xd2
 690 0197 BB070000 		.4byte	0x7bb
 691 019b 18       		.byte	0x18
 692 019c 06       		.uleb128 0x6
 693 019d AC030000 		.4byte	.LASF35
 694 01a1 07       		.byte	0x7
 695 01a2 DD       		.byte	0xdd
 696 01a3 E4000000 		.4byte	0xe4
 697 01a7 1C       		.byte	0x1c
 698 01a8 06       		.uleb128 0x6
 699 01a9 D3030000 		.4byte	.LASF36
 700 01ad 07       		.byte	0x7
ARM GAS  /tmp/ccOBBbjc.s 			page 27


 701 01ae E1       		.byte	0xe1
 702 01af D9000000 		.4byte	0xd9
 703 01b3 1D       		.byte	0x1d
 704 01b4 06       		.uleb128 0x6
 705 01b5 17050000 		.4byte	.LASF37
 706 01b9 07       		.byte	0x7
 707 01ba E6       		.byte	0xe6
 708 01bb EF000000 		.4byte	0xef
 709 01bf 1E       		.byte	0x1e
 710 01c0 07       		.uleb128 0x7
 711 01c1 705F7500 		.ascii	"p_u\000"
 712 01c5 07       		.byte	0x7
 713 01c6 3701     		.2byte	0x137
 714 01c8 EA060000 		.4byte	0x6ea
 715 01cc 20       		.byte	0x20
 716 01cd 08       		.uleb128 0x8
 717 01ce 89020000 		.4byte	.LASF38
 718 01d2 07       		.byte	0x7
 719 01d3 3C01     		.2byte	0x13c
 720 01d5 2D020000 		.4byte	0x22d
 721 01d9 24       		.byte	0x24
 722 01da 08       		.uleb128 0x8
 723 01db BE010000 		.4byte	.LASF39
 724 01df 07       		.byte	0x7
 725 01e0 4201     		.2byte	0x142
 726 01e2 51020000 		.4byte	0x251
 727 01e6 28       		.byte	0x28
 728 01e7 08       		.uleb128 0x8
 729 01e8 01040000 		.4byte	.LASF40
 730 01ec 07       		.byte	0x7
 731 01ed 4801     		.2byte	0x148
 732 01ef 10010000 		.4byte	0x110
 733 01f3 30       		.byte	0x30
 734 01f4 08       		.uleb128 0x8
 735 01f5 98030000 		.4byte	.LASF41
 736 01f9 07       		.byte	0x7
 737 01fa 4F01     		.2byte	0x14f
 738 01fc B5070000 		.4byte	0x7b5
 739 0200 34       		.byte	0x34
 740 0201 08       		.uleb128 0x8
 741 0202 9A040000 		.4byte	.LASF42
 742 0206 07       		.byte	0x7
 743 0207 5301     		.2byte	0x153
 744 0209 FA000000 		.4byte	0xfa
 745 020d 38       		.byte	0x38
 746 020e 08       		.uleb128 0x8
 747 020f DF000000 		.4byte	.LASF43
 748 0213 07       		.byte	0x7
 749 0214 5A01     		.2byte	0x15a
 750 0216 04030000 		.4byte	0x304
 751 021a 3C       		.byte	0x3c
 752 021b 00       		.byte	0
 753 021c 03       		.uleb128 0x3
 754 021d 9C020000 		.4byte	.LASF44
 755 0221 06       		.byte	0x6
 756 0222 44       		.byte	0x44
 757 0223 27020000 		.4byte	0x227
ARM GAS  /tmp/ccOBBbjc.s 			page 28


 758 0227 09       		.uleb128 0x9
 759 0228 04       		.byte	0x4
 760 0229 31010000 		.4byte	0x131
 761 022d 03       		.uleb128 0x3
 762 022e 7A020000 		.4byte	.LASF45
 763 0232 06       		.byte	0x6
 764 0233 49       		.byte	0x49
 765 0234 38020000 		.4byte	0x238
 766 0238 05       		.uleb128 0x5
 767 0239 4D040000 		.4byte	.LASF47
 768 023d 04       		.byte	0x4
 769 023e 07       		.byte	0x7
 770 023f B0       		.byte	0xb0
 771 0240 51020000 		.4byte	0x251
 772 0244 06       		.uleb128 0x6
 773 0245 C6020000 		.4byte	.LASF28
 774 0249 07       		.byte	0x7
 775 024a B1       		.byte	0xb1
 776 024b 27020000 		.4byte	0x227
 777 024f 00       		.byte	0
 778 0250 00       		.byte	0
 779 0251 03       		.uleb128 0x3
 780 0252 FE040000 		.4byte	.LASF48
 781 0256 06       		.byte	0x6
 782 0257 50       		.byte	0x50
 783 0258 5C020000 		.4byte	0x25c
 784 025c 05       		.uleb128 0x5
 785 025d 9F000000 		.4byte	.LASF49
 786 0261 08       		.byte	0x8
 787 0262 07       		.byte	0x7
 788 0263 B7       		.byte	0xb7
 789 0264 81020000 		.4byte	0x281
 790 0268 06       		.uleb128 0x6
 791 0269 C6020000 		.4byte	.LASF28
 792 026d 07       		.byte	0x7
 793 026e B8       		.byte	0xb8
 794 026f 27020000 		.4byte	0x227
 795 0273 00       		.byte	0
 796 0274 06       		.uleb128 0x6
 797 0275 5D030000 		.4byte	.LASF29
 798 0279 07       		.byte	0x7
 799 027a B9       		.byte	0xb9
 800 027b 27020000 		.4byte	0x227
 801 027f 04       		.byte	0x4
 802 0280 00       		.byte	0
 803 0281 03       		.uleb128 0x3
 804 0282 00000000 		.4byte	.LASF50
 805 0286 06       		.byte	0x6
 806 0287 57       		.byte	0x57
 807 0288 8C020000 		.4byte	0x28c
 808 028c 0A       		.uleb128 0xa
 809 028d 4B020000 		.4byte	.LASF51
 810 0291 1C       		.byte	0x1c
 811 0292 07       		.byte	0x7
 812 0293 9201     		.2byte	0x192
 813 0295 E8020000 		.4byte	0x2e8
 814 0299 08       		.uleb128 0x8
ARM GAS  /tmp/ccOBBbjc.s 			page 29


 815 029a 3C040000 		.4byte	.LASF52
 816 029e 07       		.byte	0x7
 817 029f 9301     		.2byte	0x193
 818 02a1 51020000 		.4byte	0x251
 819 02a5 00       		.byte	0
 820 02a6 08       		.uleb128 0x8
 821 02a7 BC030000 		.4byte	.LASF53
 822 02ab 07       		.byte	0x7
 823 02ac 9401     		.2byte	0x194
 824 02ae FA000000 		.4byte	0xfa
 825 02b2 08       		.byte	0x8
 826 02b3 08       		.uleb128 0x8
 827 02b4 F4020000 		.4byte	.LASF54
 828 02b8 07       		.byte	0x7
 829 02b9 9601     		.2byte	0x196
 830 02bb 30060000 		.4byte	0x630
 831 02bf 0C       		.byte	0xc
 832 02c0 08       		.uleb128 0x8
 833 02c1 45010000 		.4byte	.LASF55
 834 02c5 07       		.byte	0x7
 835 02c6 9901     		.2byte	0x199
 836 02c8 27020000 		.4byte	0x227
 837 02cc 10       		.byte	0x10
 838 02cd 08       		.uleb128 0x8
 839 02ce DA040000 		.4byte	.LASF56
 840 02d2 07       		.byte	0x7
 841 02d3 9A01     		.2byte	0x19a
 842 02d5 27020000 		.4byte	0x227
 843 02d9 14       		.byte	0x14
 844 02da 08       		.uleb128 0x8
 845 02db 13030000 		.4byte	.LASF57
 846 02df 07       		.byte	0x7
 847 02e0 9D01     		.2byte	0x19d
 848 02e2 27020000 		.4byte	0x227
 849 02e6 18       		.byte	0x18
 850 02e7 00       		.byte	0
 851 02e8 03       		.uleb128 0x3
 852 02e9 A5040000 		.4byte	.LASF58
 853 02ed 06       		.byte	0x6
 854 02ee 5C       		.byte	0x5c
 855 02ef F3020000 		.4byte	0x2f3
 856 02f3 09       		.uleb128 0x9
 857 02f4 04       		.byte	0x4
 858 02f5 F9020000 		.4byte	0x2f9
 859 02f9 0B       		.uleb128 0xb
 860 02fa 04030000 		.4byte	0x304
 861 02fe 0C       		.uleb128 0xc
 862 02ff 04030000 		.4byte	0x304
 863 0303 00       		.byte	0
 864 0304 0D       		.uleb128 0xd
 865 0305 04       		.byte	0x4
 866 0306 03       		.uleb128 0x3
 867 0307 4D030000 		.4byte	.LASF59
 868 030b 06       		.byte	0x6
 869 030c 61       		.byte	0x61
 870 030d 11030000 		.4byte	0x311
 871 0311 0A       		.uleb128 0xa
ARM GAS  /tmp/ccOBBbjc.s 			page 30


 872 0312 E3030000 		.4byte	.LASF60
 873 0316 14       		.byte	0x14
 874 0317 07       		.byte	0x7
 875 0318 6D01     		.2byte	0x16d
 876 031a 60030000 		.4byte	0x360
 877 031e 08       		.uleb128 0x8
 878 031f 9F010000 		.4byte	.LASF61
 879 0323 07       		.byte	0x7
 880 0324 6E01     		.2byte	0x16e
 881 0326 CD070000 		.4byte	0x7cd
 882 032a 00       		.byte	0
 883 032b 08       		.uleb128 0x8
 884 032c 56010000 		.4byte	.LASF62
 885 0330 07       		.byte	0x7
 886 0331 6F01     		.2byte	0x16f
 887 0333 CD070000 		.4byte	0x7cd
 888 0337 04       		.byte	0x4
 889 0338 08       		.uleb128 0x8
 890 0339 44040000 		.4byte	.LASF63
 891 033d 07       		.byte	0x7
 892 033e 7001     		.2byte	0x170
 893 0340 26010000 		.4byte	0x126
 894 0344 08       		.byte	0x8
 895 0345 08       		.uleb128 0x8
 896 0346 3E060000 		.4byte	.LASF64
 897 034a 07       		.byte	0x7
 898 034b 7101     		.2byte	0x171
 899 034d E8020000 		.4byte	0x2e8
 900 0351 0C       		.byte	0xc
 901 0352 08       		.uleb128 0x8
 902 0353 F7040000 		.4byte	.LASF65
 903 0357 07       		.byte	0x7
 904 0358 7301     		.2byte	0x173
 905 035a 04030000 		.4byte	0x304
 906 035e 10       		.byte	0x10
 907 035f 00       		.byte	0
 908 0360 03       		.uleb128 0x3
 909 0361 7C000000 		.4byte	.LASF66
 910 0365 06       		.byte	0x6
 911 0366 66       		.byte	0x66
 912 0367 6B030000 		.4byte	0x36b
 913 036b 0A       		.uleb128 0xa
 914 036c AF020000 		.4byte	.LASF67
 915 0370 10       		.byte	0x10
 916 0371 07       		.byte	0x7
 917 0372 7D01     		.2byte	0x17d
 918 0374 AD030000 		.4byte	0x3ad
 919 0378 08       		.uleb128 0x8
 920 0379 9F010000 		.4byte	.LASF61
 921 037d 07       		.byte	0x7
 922 037e 7E01     		.2byte	0x17e
 923 0380 CD070000 		.4byte	0x7cd
 924 0384 00       		.byte	0
 925 0385 08       		.uleb128 0x8
 926 0386 56010000 		.4byte	.LASF62
 927 038a 07       		.byte	0x7
 928 038b 8001     		.2byte	0x180
ARM GAS  /tmp/ccOBBbjc.s 			page 31


 929 038d CD070000 		.4byte	0x7cd
 930 0391 04       		.byte	0x4
 931 0392 08       		.uleb128 0x8
 932 0393 44040000 		.4byte	.LASF63
 933 0397 07       		.byte	0x7
 934 0398 8201     		.2byte	0x182
 935 039a 26010000 		.4byte	0x126
 936 039e 08       		.byte	0x8
 937 039f 08       		.uleb128 0x8
 938 03a0 CD020000 		.4byte	.LASF68
 939 03a4 07       		.byte	0x7
 940 03a5 8A01     		.2byte	0x18a
 941 03a7 26010000 		.4byte	0x126
 942 03ab 0C       		.byte	0xc
 943 03ac 00       		.byte	0
 944 03ad 03       		.uleb128 0x3
 945 03ae 3A000000 		.4byte	.LASF69
 946 03b2 06       		.byte	0x6
 947 03b3 6B       		.byte	0x6b
 948 03b4 B8030000 		.4byte	0x3b8
 949 03b8 0A       		.uleb128 0xa
 950 03b9 6C030000 		.4byte	.LASF70
 951 03bd 04       		.byte	0x4
 952 03be 07       		.byte	0x7
 953 03bf A401     		.2byte	0x1a4
 954 03c1 D3030000 		.4byte	0x3d3
 955 03c5 08       		.uleb128 0x8
 956 03c6 B9040000 		.4byte	.LASF71
 957 03ca 07       		.byte	0x7
 958 03cb AC01     		.2byte	0x1ac
 959 03cd D3070000 		.4byte	0x7d3
 960 03d1 00       		.byte	0
 961 03d2 00       		.byte	0
 962 03d3 03       		.uleb128 0x3
 963 03d4 37020000 		.4byte	.LASF72
 964 03d8 06       		.byte	0x6
 965 03d9 70       		.byte	0x70
 966 03da DE030000 		.4byte	0x3de
 967 03de 0E       		.uleb128 0xe
 968 03df 08010000 		.4byte	.LASF73
 969 03e3 5001     		.2byte	0x150
 970 03e5 07       		.byte	0x7
 971 03e6 C401     		.2byte	0x1c4
 972 03e8 3A040000 		.4byte	0x43a
 973 03ec 08       		.uleb128 0x8
 974 03ed 5E010000 		.4byte	.LASF74
 975 03f1 07       		.byte	0x7
 976 03f2 C801     		.2byte	0x1c8
 977 03f4 81020000 		.4byte	0x281
 978 03f8 00       		.byte	0
 979 03f9 08       		.uleb128 0x8
 980 03fa EF000000 		.4byte	.LASF75
 981 03fe 07       		.byte	0x7
 982 03ff CC01     		.2byte	0x1cc
 983 0401 60030000 		.4byte	0x360
 984 0405 1C       		.byte	0x1c
 985 0406 07       		.uleb128 0x7
ARM GAS  /tmp/ccOBBbjc.s 			page 32


 986 0407 64626700 		.ascii	"dbg\000"
 987 040b 07       		.byte	0x7
 988 040c D001     		.2byte	0x1d0
 989 040e AD030000 		.4byte	0x3ad
 990 0412 2C       		.byte	0x2c
 991 0413 08       		.uleb128 0x8
 992 0414 69000000 		.4byte	.LASF76
 993 0418 07       		.byte	0x7
 994 0419 D401     		.2byte	0x1d4
 995 041b 31010000 		.4byte	0x131
 996 041f 30       		.byte	0x30
 997 0420 07       		.uleb128 0x7
 998 0421 746D00   		.ascii	"tm\000"
 999 0424 07       		.byte	0x7
 1000 0425 D901     		.2byte	0x1d9
 1001 0427 DF060000 		.4byte	0x6df
 1002 042b 70       		.byte	0x70
 1003 042c 08       		.uleb128 0x8
 1004 042d 7D010000 		.4byte	.LASF77
 1005 0431 07       		.byte	0x7
 1006 0432 E501     		.2byte	0x1e5
 1007 0434 D8070000 		.4byte	0x7d8
 1008 0438 78       		.byte	0x78
 1009 0439 00       		.byte	0
 1010 043a 04       		.uleb128 0x4
 1011 043b 04       		.byte	0x4
 1012 043c 07       		.byte	0x7
 1013 043d 93020000 		.4byte	.LASF78
 1014 0441 0F       		.uleb128 0xf
 1015 0442 B8000000 		.4byte	0xb8
 1016 0446 10       		.uleb128 0x10
 1017 0447 B8000000 		.4byte	0xb8
 1018 044b 56040000 		.4byte	0x456
 1019 044f 11       		.uleb128 0x11
 1020 0450 3A040000 		.4byte	0x43a
 1021 0454 03       		.byte	0x3
 1022 0455 00       		.byte	0
 1023 0456 12       		.uleb128 0x12
 1024 0457 24       		.byte	0x24
 1025 0458 08       		.byte	0x8
 1026 0459 8A01     		.2byte	0x18a
 1027 045b D2040000 		.4byte	0x4d2
 1028 045f 07       		.uleb128 0x7
 1029 0460 41435200 		.ascii	"ACR\000"
 1030 0464 08       		.byte	0x8
 1031 0465 8C01     		.2byte	0x18c
 1032 0467 41040000 		.4byte	0x441
 1033 046b 00       		.byte	0
 1034 046c 08       		.uleb128 0x8
 1035 046d 48030000 		.4byte	.LASF79
 1036 0471 08       		.byte	0x8
 1037 0472 8D01     		.2byte	0x18d
 1038 0474 41040000 		.4byte	0x441
 1039 0478 04       		.byte	0x4
 1040 0479 08       		.uleb128 0x8
 1041 047a 2D010000 		.4byte	.LASF80
 1042 047e 08       		.byte	0x8
ARM GAS  /tmp/ccOBBbjc.s 			page 33


 1043 047f 8E01     		.2byte	0x18e
 1044 0481 41040000 		.4byte	0x441
 1045 0485 08       		.byte	0x8
 1046 0486 07       		.uleb128 0x7
 1047 0487 535200   		.ascii	"SR\000"
 1048 048a 08       		.byte	0x8
 1049 048b 8F01     		.2byte	0x18f
 1050 048d 41040000 		.4byte	0x441
 1051 0491 0C       		.byte	0xc
 1052 0492 07       		.uleb128 0x7
 1053 0493 435200   		.ascii	"CR\000"
 1054 0496 08       		.byte	0x8
 1055 0497 9001     		.2byte	0x190
 1056 0499 41040000 		.4byte	0x441
 1057 049d 10       		.byte	0x10
 1058 049e 07       		.uleb128 0x7
 1059 049f 415200   		.ascii	"AR\000"
 1060 04a2 08       		.byte	0x8
 1061 04a3 9101     		.2byte	0x191
 1062 04a5 41040000 		.4byte	0x441
 1063 04a9 14       		.byte	0x14
 1064 04aa 08       		.uleb128 0x8
 1065 04ab C3030000 		.4byte	.LASF81
 1066 04af 08       		.byte	0x8
 1067 04b0 9201     		.2byte	0x192
 1068 04b2 B8000000 		.4byte	0xb8
 1069 04b6 18       		.byte	0x18
 1070 04b7 07       		.uleb128 0x7
 1071 04b8 4F425200 		.ascii	"OBR\000"
 1072 04bc 08       		.byte	0x8
 1073 04bd 9301     		.2byte	0x193
 1074 04bf 41040000 		.4byte	0x441
 1075 04c3 1C       		.byte	0x1c
 1076 04c4 08       		.uleb128 0x8
 1077 04c5 6F040000 		.4byte	.LASF82
 1078 04c9 08       		.byte	0x8
 1079 04ca 9401     		.2byte	0x194
 1080 04cc 41040000 		.4byte	0x441
 1081 04d0 20       		.byte	0x20
 1082 04d1 00       		.byte	0
 1083 04d2 13       		.uleb128 0x13
 1084 04d3 D1000000 		.4byte	.LASF83
 1085 04d7 08       		.byte	0x8
 1086 04d8 9601     		.2byte	0x196
 1087 04da 56040000 		.4byte	0x456
 1088 04de 12       		.uleb128 0x12
 1089 04df 1C       		.byte	0x1c
 1090 04e0 08       		.byte	0x8
 1091 04e1 C601     		.2byte	0x1c6
 1092 04e3 1C050000 		.4byte	0x51c
 1093 04e7 08       		.uleb128 0x8
 1094 04e8 23050000 		.4byte	.LASF84
 1095 04ec 08       		.byte	0x8
 1096 04ed C801     		.2byte	0x1c8
 1097 04ef 41040000 		.4byte	0x441
 1098 04f3 00       		.byte	0
 1099 04f4 07       		.uleb128 0x7
ARM GAS  /tmp/ccOBBbjc.s 			page 34


 1100 04f5 52435200 		.ascii	"RCR\000"
 1101 04f9 08       		.byte	0x8
 1102 04fa C901     		.2byte	0x1c9
 1103 04fc 41040000 		.4byte	0x441
 1104 0500 04       		.byte	0x4
 1105 0501 08       		.uleb128 0x8
 1106 0502 46060000 		.4byte	.LASF85
 1107 0506 08       		.byte	0x8
 1108 0507 CA01     		.2byte	0x1ca
 1109 0509 1C050000 		.4byte	0x51c
 1110 050d 08       		.byte	0x8
 1111 050e 08       		.uleb128 0x8
 1112 050f 29050000 		.4byte	.LASF86
 1113 0513 08       		.byte	0x8
 1114 0514 CB01     		.2byte	0x1cb
 1115 0516 41040000 		.4byte	0x441
 1116 051a 18       		.byte	0x18
 1117 051b 00       		.byte	0
 1118 051c 0F       		.uleb128 0xf
 1119 051d 46040000 		.4byte	0x446
 1120 0521 13       		.uleb128 0x13
 1121 0522 31030000 		.4byte	.LASF87
 1122 0526 08       		.byte	0x8
 1123 0527 CC01     		.2byte	0x1cc
 1124 0529 DE040000 		.4byte	0x4de
 1125 052d 12       		.uleb128 0x12
 1126 052e 08       		.byte	0x8
 1127 052f 08       		.byte	0x8
 1128 0530 F201     		.2byte	0x1f2
 1129 0532 50050000 		.4byte	0x550
 1130 0536 07       		.uleb128 0x7
 1131 0537 435200   		.ascii	"CR\000"
 1132 053a 08       		.byte	0x8
 1133 053b F401     		.2byte	0x1f4
 1134 053d 41040000 		.4byte	0x441
 1135 0541 00       		.byte	0
 1136 0542 07       		.uleb128 0x7
 1137 0543 43535200 		.ascii	"CSR\000"
 1138 0547 08       		.byte	0x8
 1139 0548 F501     		.2byte	0x1f5
 1140 054a 41040000 		.4byte	0x441
 1141 054e 04       		.byte	0x4
 1142 054f 00       		.byte	0
 1143 0550 13       		.uleb128 0x13
 1144 0551 F6000000 		.4byte	.LASF88
 1145 0555 08       		.byte	0x8
 1146 0556 F601     		.2byte	0x1f6
 1147 0558 2D050000 		.4byte	0x52d
 1148 055c 12       		.uleb128 0x12
 1149 055d 34       		.byte	0x34
 1150 055e 08       		.byte	0x8
 1151 055f FB01     		.2byte	0x1fb
 1152 0561 0E060000 		.4byte	0x60e
 1153 0565 07       		.uleb128 0x7
 1154 0566 435200   		.ascii	"CR\000"
 1155 0569 08       		.byte	0x8
 1156 056a FD01     		.2byte	0x1fd
ARM GAS  /tmp/ccOBBbjc.s 			page 35


 1157 056c 41040000 		.4byte	0x441
 1158 0570 00       		.byte	0
 1159 0571 08       		.uleb128 0x8
 1160 0572 2B060000 		.4byte	.LASF89
 1161 0576 08       		.byte	0x8
 1162 0577 FE01     		.2byte	0x1fe
 1163 0579 41040000 		.4byte	0x441
 1164 057d 04       		.byte	0x4
 1165 057e 07       		.uleb128 0x7
 1166 057f 43495200 		.ascii	"CIR\000"
 1167 0583 08       		.byte	0x8
 1168 0584 FF01     		.2byte	0x1ff
 1169 0586 41040000 		.4byte	0x441
 1170 058a 08       		.byte	0x8
 1171 058b 08       		.uleb128 0x8
 1172 058c 1B010000 		.4byte	.LASF90
 1173 0590 08       		.byte	0x8
 1174 0591 0002     		.2byte	0x200
 1175 0593 41040000 		.4byte	0x441
 1176 0597 0C       		.byte	0xc
 1177 0598 08       		.uleb128 0x8
 1178 0599 1D030000 		.4byte	.LASF91
 1179 059d 08       		.byte	0x8
 1180 059e 0102     		.2byte	0x201
 1181 05a0 41040000 		.4byte	0x441
 1182 05a4 10       		.byte	0x10
 1183 05a5 08       		.uleb128 0x8
 1184 05a6 FE010000 		.4byte	.LASF92
 1185 05aa 08       		.byte	0x8
 1186 05ab 0202     		.2byte	0x202
 1187 05ad 41040000 		.4byte	0x441
 1188 05b1 14       		.byte	0x14
 1189 05b2 08       		.uleb128 0x8
 1190 05b3 DB030000 		.4byte	.LASF93
 1191 05b7 08       		.byte	0x8
 1192 05b8 0302     		.2byte	0x203
 1193 05ba 41040000 		.4byte	0x441
 1194 05be 18       		.byte	0x18
 1195 05bf 08       		.uleb128 0x8
 1196 05c0 CA040000 		.4byte	.LASF94
 1197 05c4 08       		.byte	0x8
 1198 05c5 0402     		.2byte	0x204
 1199 05c7 41040000 		.4byte	0x441
 1200 05cb 1C       		.byte	0x1c
 1201 05cc 08       		.uleb128 0x8
 1202 05cd 1E050000 		.4byte	.LASF95
 1203 05d1 08       		.byte	0x8
 1204 05d2 0502     		.2byte	0x205
 1205 05d4 41040000 		.4byte	0x441
 1206 05d8 20       		.byte	0x20
 1207 05d9 07       		.uleb128 0x7
 1208 05da 43535200 		.ascii	"CSR\000"
 1209 05de 08       		.byte	0x8
 1210 05df 0602     		.2byte	0x206
 1211 05e1 41040000 		.4byte	0x441
 1212 05e5 24       		.byte	0x24
 1213 05e6 08       		.uleb128 0x8
ARM GAS  /tmp/ccOBBbjc.s 			page 36


 1214 05e7 0B030000 		.4byte	.LASF96
 1215 05eb 08       		.byte	0x8
 1216 05ec 0702     		.2byte	0x207
 1217 05ee 41040000 		.4byte	0x441
 1218 05f2 28       		.byte	0x28
 1219 05f3 08       		.uleb128 0x8
 1220 05f4 29050000 		.4byte	.LASF86
 1221 05f8 08       		.byte	0x8
 1222 05f9 0802     		.2byte	0x208
 1223 05fb 41040000 		.4byte	0x441
 1224 05ff 2C       		.byte	0x2c
 1225 0600 08       		.uleb128 0x8
 1226 0601 2F050000 		.4byte	.LASF97
 1227 0605 08       		.byte	0x8
 1228 0606 0902     		.2byte	0x209
 1229 0608 41040000 		.4byte	0x441
 1230 060c 30       		.byte	0x30
 1231 060d 00       		.byte	0
 1232 060e 13       		.uleb128 0x13
 1233 060f C9010000 		.4byte	.LASF98
 1234 0613 08       		.byte	0x8
 1235 0614 0A02     		.2byte	0x20a
 1236 0616 5C050000 		.4byte	0x55c
 1237 061a 03       		.uleb128 0x3
 1238 061b 4D010000 		.4byte	.LASF99
 1239 061f 09       		.byte	0x9
 1240 0620 65       		.byte	0x65
 1241 0621 04030000 		.4byte	0x304
 1242 0625 03       		.uleb128 0x3
 1243 0626 6F020000 		.4byte	.LASF100
 1244 062a 09       		.byte	0x9
 1245 062b 6D       		.byte	0x6d
 1246 062c C3000000 		.4byte	0xc3
 1247 0630 05       		.uleb128 0x5
 1248 0631 D2040000 		.4byte	.LASF101
 1249 0635 04       		.byte	0x4
 1250 0636 09       		.byte	0x9
 1251 0637 89       		.byte	0x89
 1252 0638 49060000 		.4byte	0x649
 1253 063c 14       		.uleb128 0x14
 1254 063d 72313300 		.ascii	"r13\000"
 1255 0641 09       		.byte	0x9
 1256 0642 8A       		.byte	0x8a
 1257 0643 C4060000 		.4byte	0x6c4
 1258 0647 00       		.byte	0
 1259 0648 00       		.byte	0
 1260 0649 05       		.uleb128 0x5
 1261 064a 2E000000 		.4byte	.LASF102
 1262 064e 24       		.byte	0x24
 1263 064f 0A       		.byte	0xa
 1264 0650 FD       		.byte	0xfd
 1265 0651 C4060000 		.4byte	0x6c4
 1266 0655 07       		.uleb128 0x7
 1267 0656 723400   		.ascii	"r4\000"
 1268 0659 0A       		.byte	0xa
 1269 065a 1001     		.2byte	0x110
 1270 065c 1A060000 		.4byte	0x61a
ARM GAS  /tmp/ccOBBbjc.s 			page 37


 1271 0660 00       		.byte	0
 1272 0661 07       		.uleb128 0x7
 1273 0662 723500   		.ascii	"r5\000"
 1274 0665 0A       		.byte	0xa
 1275 0666 1101     		.2byte	0x111
 1276 0668 1A060000 		.4byte	0x61a
 1277 066c 04       		.byte	0x4
 1278 066d 07       		.uleb128 0x7
 1279 066e 723600   		.ascii	"r6\000"
 1280 0671 0A       		.byte	0xa
 1281 0672 1201     		.2byte	0x112
 1282 0674 1A060000 		.4byte	0x61a
 1283 0678 08       		.byte	0x8
 1284 0679 07       		.uleb128 0x7
 1285 067a 723700   		.ascii	"r7\000"
 1286 067d 0A       		.byte	0xa
 1287 067e 1301     		.2byte	0x113
 1288 0680 1A060000 		.4byte	0x61a
 1289 0684 0C       		.byte	0xc
 1290 0685 07       		.uleb128 0x7
 1291 0686 723800   		.ascii	"r8\000"
 1292 0689 0A       		.byte	0xa
 1293 068a 1401     		.2byte	0x114
 1294 068c 1A060000 		.4byte	0x61a
 1295 0690 10       		.byte	0x10
 1296 0691 07       		.uleb128 0x7
 1297 0692 723900   		.ascii	"r9\000"
 1298 0695 0A       		.byte	0xa
 1299 0696 1501     		.2byte	0x115
 1300 0698 1A060000 		.4byte	0x61a
 1301 069c 14       		.byte	0x14
 1302 069d 07       		.uleb128 0x7
 1303 069e 72313000 		.ascii	"r10\000"
 1304 06a2 0A       		.byte	0xa
 1305 06a3 1601     		.2byte	0x116
 1306 06a5 1A060000 		.4byte	0x61a
 1307 06a9 18       		.byte	0x18
 1308 06aa 07       		.uleb128 0x7
 1309 06ab 72313100 		.ascii	"r11\000"
 1310 06af 0A       		.byte	0xa
 1311 06b0 1701     		.2byte	0x117
 1312 06b2 1A060000 		.4byte	0x61a
 1313 06b6 1C       		.byte	0x1c
 1314 06b7 07       		.uleb128 0x7
 1315 06b8 6C7200   		.ascii	"lr\000"
 1316 06bb 0A       		.byte	0xa
 1317 06bc 1801     		.2byte	0x118
 1318 06be 1A060000 		.4byte	0x61a
 1319 06c2 20       		.byte	0x20
 1320 06c3 00       		.byte	0
 1321 06c4 09       		.uleb128 0x9
 1322 06c5 04       		.byte	0x4
 1323 06c6 49060000 		.4byte	0x649
 1324 06ca 15       		.uleb128 0x15
 1325 06cb 04       		.byte	0x4
 1326 06cc 0B       		.byte	0xb
 1327 06cd 38       		.byte	0x38
ARM GAS  /tmp/ccOBBbjc.s 			page 38


 1328 06ce DF060000 		.4byte	0x6df
 1329 06d2 06       		.uleb128 0x6
 1330 06d3 C3040000 		.4byte	.LASF103
 1331 06d7 0B       		.byte	0xb
 1332 06d8 3C       		.byte	0x3c
 1333 06d9 CE000000 		.4byte	0xce
 1334 06dd 00       		.byte	0
 1335 06de 00       		.byte	0
 1336 06df 03       		.uleb128 0x3
 1337 06e0 FA020000 		.4byte	.LASF104
 1338 06e4 0B       		.byte	0xb
 1339 06e5 3D       		.byte	0x3d
 1340 06e6 CA060000 		.4byte	0x6ca
 1341 06ea 16       		.uleb128 0x16
 1342 06eb 04       		.byte	0x4
 1343 06ec 07       		.byte	0x7
 1344 06ed FA       		.byte	0xfa
 1345 06ee 53070000 		.4byte	0x753
 1346 06f2 17       		.uleb128 0x17
 1347 06f3 14000000 		.4byte	.LASF105
 1348 06f7 07       		.byte	0x7
 1349 06f8 0101     		.2byte	0x101
 1350 06fa 05010000 		.4byte	0x105
 1351 06fe 17       		.uleb128 0x17
 1352 06ff 60000000 		.4byte	.LASF106
 1353 0703 07       		.byte	0x7
 1354 0704 0801     		.2byte	0x108
 1355 0706 05010000 		.4byte	0x105
 1356 070a 17       		.uleb128 0x17
 1357 070b 1D060000 		.4byte	.LASF107
 1358 070f 07       		.byte	0x7
 1359 0710 0F01     		.2byte	0x10f
 1360 0712 04030000 		.4byte	0x304
 1361 0716 17       		.uleb128 0x17
 1362 0717 02010000 		.4byte	.LASF108
 1363 071b 07       		.byte	0x7
 1364 071c 1601     		.2byte	0x116
 1365 071e 53070000 		.4byte	0x753
 1366 0722 17       		.uleb128 0x17
 1367 0723 74000000 		.4byte	.LASF109
 1368 0727 07       		.byte	0x7
 1369 0728 1B01     		.2byte	0x11b
 1370 072a 05010000 		.4byte	0x105
 1371 072e 17       		.uleb128 0x17
 1372 072f B7010000 		.4byte	.LASF110
 1373 0733 07       		.byte	0x7
 1374 0734 2401     		.2byte	0x124
 1375 0736 7E070000 		.4byte	0x77e
 1376 073a 17       		.uleb128 0x17
 1377 073b 79040000 		.4byte	.LASF111
 1378 073f 07       		.byte	0x7
 1379 0740 2D01     		.2byte	0x12d
 1380 0742 B5070000 		.4byte	0x7b5
 1381 0746 17       		.uleb128 0x17
 1382 0747 CC030000 		.4byte	.LASF112
 1383 074b 07       		.byte	0x7
 1384 074c 3501     		.2byte	0x135
ARM GAS  /tmp/ccOBBbjc.s 			page 39


 1385 074e 10010000 		.4byte	0x110
 1386 0752 00       		.byte	0
 1387 0753 09       		.uleb128 0x9
 1388 0754 04       		.byte	0x4
 1389 0755 1C020000 		.4byte	0x21c
 1390 0759 05       		.uleb128 0x5
 1391 075a F4030000 		.4byte	.LASF113
 1392 075e 0C       		.byte	0xc
 1393 075f 0C       		.byte	0xc
 1394 0760 34       		.byte	0x34
 1395 0761 7E070000 		.4byte	0x77e
 1396 0765 06       		.uleb128 0x6
 1397 0766 3D010000 		.4byte	.LASF114
 1398 076a 0C       		.byte	0xc
 1399 076b 35       		.byte	0x35
 1400 076c 51020000 		.4byte	0x251
 1401 0770 00       		.byte	0
 1402 0771 06       		.uleb128 0x6
 1403 0772 D5010000 		.4byte	.LASF115
 1404 0776 0C       		.byte	0xc
 1405 0777 37       		.byte	0x37
 1406 0778 1B010000 		.4byte	0x11b
 1407 077c 08       		.byte	0x8
 1408 077d 00       		.byte	0
 1409 077e 09       		.uleb128 0x9
 1410 077f 04       		.byte	0x4
 1411 0780 59070000 		.4byte	0x759
 1412 0784 05       		.uleb128 0x5
 1413 0785 0E050000 		.4byte	.LASF116
 1414 0789 10       		.byte	0x10
 1415 078a 0D       		.byte	0xd
 1416 078b 39       		.byte	0x39
 1417 078c B5070000 		.4byte	0x7b5
 1418 0790 06       		.uleb128 0x6
 1419 0791 E7000000 		.4byte	.LASF117
 1420 0795 0D       		.byte	0xd
 1421 0796 3A       		.byte	0x3a
 1422 0797 51020000 		.4byte	0x251
 1423 079b 00       		.byte	0
 1424 079c 06       		.uleb128 0x6
 1425 079d 30060000 		.4byte	.LASF118
 1426 07a1 0D       		.byte	0xd
 1427 07a2 3C       		.byte	0x3c
 1428 07a3 27020000 		.4byte	0x227
 1429 07a7 08       		.byte	0x8
 1430 07a8 06       		.uleb128 0x6
 1431 07a9 89040000 		.4byte	.LASF119
 1432 07ad 0D       		.byte	0xd
 1433 07ae 3E       		.byte	0x3e
 1434 07af F3070000 		.4byte	0x7f3
 1435 07b3 0C       		.byte	0xc
 1436 07b4 00       		.byte	0
 1437 07b5 09       		.uleb128 0x9
 1438 07b6 04       		.byte	0x4
 1439 07b7 84070000 		.4byte	0x784
 1440 07bb 09       		.uleb128 0x9
 1441 07bc 04       		.byte	0x4
ARM GAS  /tmp/ccOBBbjc.s 			page 40


 1442 07bd C1070000 		.4byte	0x7c1
 1443 07c1 18       		.uleb128 0x18
 1444 07c2 C6070000 		.4byte	0x7c6
 1445 07c6 04       		.uleb128 0x4
 1446 07c7 01       		.byte	0x1
 1447 07c8 08       		.byte	0x8
 1448 07c9 74040000 		.4byte	.LASF120
 1449 07cd 09       		.uleb128 0x9
 1450 07ce 04       		.byte	0x4
 1451 07cf 06030000 		.4byte	0x306
 1452 07d3 0F       		.uleb128 0xf
 1453 07d4 BB070000 		.4byte	0x7bb
 1454 07d8 10       		.uleb128 0x10
 1455 07d9 25060000 		.4byte	0x625
 1456 07dd E8070000 		.4byte	0x7e8
 1457 07e1 11       		.uleb128 0x11
 1458 07e2 3A040000 		.4byte	0x43a
 1459 07e6 1A       		.byte	0x1a
 1460 07e7 00       		.byte	0
 1461 07e8 03       		.uleb128 0x3
 1462 07e9 75010000 		.4byte	.LASF121
 1463 07ed 0D       		.byte	0xd
 1464 07ee 34       		.byte	0x34
 1465 07ef 84070000 		.4byte	0x784
 1466 07f3 09       		.uleb128 0x9
 1467 07f4 04       		.byte	0x4
 1468 07f5 E8070000 		.4byte	0x7e8
 1469 07f9 04       		.uleb128 0x4
 1470 07fa 01       		.byte	0x1
 1471 07fb 02       		.byte	0x2
 1472 07fc 7C030000 		.4byte	.LASF122
 1473 0800 19       		.uleb128 0x19
 1474 0801 D9020000 		.4byte	.LASF128
 1475 0805 01       		.byte	0x1
 1476 0806 36       		.byte	0x36
 1477 0807 01       		.byte	0x1
 1478 0808 1A       		.uleb128 0x1a
 1479 0809 E2040000 		.4byte	.LASF129
 1480 080d 01       		.byte	0x1
 1481 080e 69       		.byte	0x69
 1482 080f 00000000 		.4byte	.LFB273
 1483 0813 80000000 		.4byte	.LFE273-.LFB273
 1484 0817 01       		.uleb128 0x1
 1485 0818 9C       		.byte	0x9c
 1486 0819 2D080000 		.4byte	0x82d
 1487 081d 1B       		.uleb128 0x1b
 1488 081e 00080000 		.4byte	0x800
 1489 0822 02000000 		.4byte	.LBB4
 1490 0826 00000000 		.4byte	.Ldebug_ranges0+0
 1491 082a 01       		.byte	0x1
 1492 082b 74       		.byte	0x74
 1493 082c 00       		.byte	0
 1494 082d 1C       		.uleb128 0x1c
 1495 082e 64010000 		.4byte	.LASF130
 1496 0832 01       		.byte	0x1
 1497 0833 90       		.byte	0x90
 1498 0834 00000000 		.4byte	.LFB274
ARM GAS  /tmp/ccOBBbjc.s 			page 41


 1499 0838 A0000000 		.4byte	.LFE274-.LFB274
 1500 083c 01       		.uleb128 0x1
 1501 083d 9C       		.byte	0x9c
 1502 083e 1D       		.uleb128 0x1d
 1503 083f 92000000 		.4byte	.LASF123
 1504 0843 0E       		.byte	0xe
 1505 0844 FA06     		.2byte	0x6fa
 1506 0846 4A080000 		.4byte	0x84a
 1507 084a 0F       		.uleb128 0xf
 1508 084b AD000000 		.4byte	0xad
 1509 084f 1E       		.uleb128 0x1e
 1510 0850 A7010000 		.4byte	.LASF124
 1511 0854 01       		.byte	0x1
 1512 0855 27       		.byte	0x27
 1513 0856 B8000000 		.4byte	0xb8
 1514 085a 05       		.uleb128 0x5
 1515 085b 03       		.byte	0x3
 1516 085c 00000000 		.4byte	SystemCoreClock
 1517 0860 1F       		.uleb128 0x1f
 1518 0861 636800   		.ascii	"ch\000"
 1519 0864 07       		.byte	0x7
 1520 0865 0B02     		.2byte	0x20b
 1521 0867 D3030000 		.4byte	0x3d3
 1522 086b 00       		.byte	0
 1523              		.section	.debug_abbrev,"",%progbits
 1524              	.Ldebug_abbrev0:
 1525 0000 01       		.uleb128 0x1
 1526 0001 11       		.uleb128 0x11
 1527 0002 01       		.byte	0x1
 1528 0003 25       		.uleb128 0x25
 1529 0004 0E       		.uleb128 0xe
 1530 0005 13       		.uleb128 0x13
 1531 0006 0B       		.uleb128 0xb
 1532 0007 03       		.uleb128 0x3
 1533 0008 0E       		.uleb128 0xe
 1534 0009 1B       		.uleb128 0x1b
 1535 000a 0E       		.uleb128 0xe
 1536 000b 55       		.uleb128 0x55
 1537 000c 17       		.uleb128 0x17
 1538 000d 11       		.uleb128 0x11
 1539 000e 01       		.uleb128 0x1
 1540 000f 10       		.uleb128 0x10
 1541 0010 17       		.uleb128 0x17
 1542 0011 00       		.byte	0
 1543 0012 00       		.byte	0
 1544 0013 02       		.uleb128 0x2
 1545 0014 24       		.uleb128 0x24
 1546 0015 00       		.byte	0
 1547 0016 0B       		.uleb128 0xb
 1548 0017 0B       		.uleb128 0xb
 1549 0018 3E       		.uleb128 0x3e
 1550 0019 0B       		.uleb128 0xb
 1551 001a 03       		.uleb128 0x3
 1552 001b 08       		.uleb128 0x8
 1553 001c 00       		.byte	0
 1554 001d 00       		.byte	0
 1555 001e 03       		.uleb128 0x3
ARM GAS  /tmp/ccOBBbjc.s 			page 42


 1556 001f 16       		.uleb128 0x16
 1557 0020 00       		.byte	0
 1558 0021 03       		.uleb128 0x3
 1559 0022 0E       		.uleb128 0xe
 1560 0023 3A       		.uleb128 0x3a
 1561 0024 0B       		.uleb128 0xb
 1562 0025 3B       		.uleb128 0x3b
 1563 0026 0B       		.uleb128 0xb
 1564 0027 49       		.uleb128 0x49
 1565 0028 13       		.uleb128 0x13
 1566 0029 00       		.byte	0
 1567 002a 00       		.byte	0
 1568 002b 04       		.uleb128 0x4
 1569 002c 24       		.uleb128 0x24
 1570 002d 00       		.byte	0
 1571 002e 0B       		.uleb128 0xb
 1572 002f 0B       		.uleb128 0xb
 1573 0030 3E       		.uleb128 0x3e
 1574 0031 0B       		.uleb128 0xb
 1575 0032 03       		.uleb128 0x3
 1576 0033 0E       		.uleb128 0xe
 1577 0034 00       		.byte	0
 1578 0035 00       		.byte	0
 1579 0036 05       		.uleb128 0x5
 1580 0037 13       		.uleb128 0x13
 1581 0038 01       		.byte	0x1
 1582 0039 03       		.uleb128 0x3
 1583 003a 0E       		.uleb128 0xe
 1584 003b 0B       		.uleb128 0xb
 1585 003c 0B       		.uleb128 0xb
 1586 003d 3A       		.uleb128 0x3a
 1587 003e 0B       		.uleb128 0xb
 1588 003f 3B       		.uleb128 0x3b
 1589 0040 0B       		.uleb128 0xb
 1590 0041 01       		.uleb128 0x1
 1591 0042 13       		.uleb128 0x13
 1592 0043 00       		.byte	0
 1593 0044 00       		.byte	0
 1594 0045 06       		.uleb128 0x6
 1595 0046 0D       		.uleb128 0xd
 1596 0047 00       		.byte	0
 1597 0048 03       		.uleb128 0x3
 1598 0049 0E       		.uleb128 0xe
 1599 004a 3A       		.uleb128 0x3a
 1600 004b 0B       		.uleb128 0xb
 1601 004c 3B       		.uleb128 0x3b
 1602 004d 0B       		.uleb128 0xb
 1603 004e 49       		.uleb128 0x49
 1604 004f 13       		.uleb128 0x13
 1605 0050 38       		.uleb128 0x38
 1606 0051 0B       		.uleb128 0xb
 1607 0052 00       		.byte	0
 1608 0053 00       		.byte	0
 1609 0054 07       		.uleb128 0x7
 1610 0055 0D       		.uleb128 0xd
 1611 0056 00       		.byte	0
 1612 0057 03       		.uleb128 0x3
ARM GAS  /tmp/ccOBBbjc.s 			page 43


 1613 0058 08       		.uleb128 0x8
 1614 0059 3A       		.uleb128 0x3a
 1615 005a 0B       		.uleb128 0xb
 1616 005b 3B       		.uleb128 0x3b
 1617 005c 05       		.uleb128 0x5
 1618 005d 49       		.uleb128 0x49
 1619 005e 13       		.uleb128 0x13
 1620 005f 38       		.uleb128 0x38
 1621 0060 0B       		.uleb128 0xb
 1622 0061 00       		.byte	0
 1623 0062 00       		.byte	0
 1624 0063 08       		.uleb128 0x8
 1625 0064 0D       		.uleb128 0xd
 1626 0065 00       		.byte	0
 1627 0066 03       		.uleb128 0x3
 1628 0067 0E       		.uleb128 0xe
 1629 0068 3A       		.uleb128 0x3a
 1630 0069 0B       		.uleb128 0xb
 1631 006a 3B       		.uleb128 0x3b
 1632 006b 05       		.uleb128 0x5
 1633 006c 49       		.uleb128 0x49
 1634 006d 13       		.uleb128 0x13
 1635 006e 38       		.uleb128 0x38
 1636 006f 0B       		.uleb128 0xb
 1637 0070 00       		.byte	0
 1638 0071 00       		.byte	0
 1639 0072 09       		.uleb128 0x9
 1640 0073 0F       		.uleb128 0xf
 1641 0074 00       		.byte	0
 1642 0075 0B       		.uleb128 0xb
 1643 0076 0B       		.uleb128 0xb
 1644 0077 49       		.uleb128 0x49
 1645 0078 13       		.uleb128 0x13
 1646 0079 00       		.byte	0
 1647 007a 00       		.byte	0
 1648 007b 0A       		.uleb128 0xa
 1649 007c 13       		.uleb128 0x13
 1650 007d 01       		.byte	0x1
 1651 007e 03       		.uleb128 0x3
 1652 007f 0E       		.uleb128 0xe
 1653 0080 0B       		.uleb128 0xb
 1654 0081 0B       		.uleb128 0xb
 1655 0082 3A       		.uleb128 0x3a
 1656 0083 0B       		.uleb128 0xb
 1657 0084 3B       		.uleb128 0x3b
 1658 0085 05       		.uleb128 0x5
 1659 0086 01       		.uleb128 0x1
 1660 0087 13       		.uleb128 0x13
 1661 0088 00       		.byte	0
 1662 0089 00       		.byte	0
 1663 008a 0B       		.uleb128 0xb
 1664 008b 15       		.uleb128 0x15
 1665 008c 01       		.byte	0x1
 1666 008d 27       		.uleb128 0x27
 1667 008e 19       		.uleb128 0x19
 1668 008f 01       		.uleb128 0x1
 1669 0090 13       		.uleb128 0x13
ARM GAS  /tmp/ccOBBbjc.s 			page 44


 1670 0091 00       		.byte	0
 1671 0092 00       		.byte	0
 1672 0093 0C       		.uleb128 0xc
 1673 0094 05       		.uleb128 0x5
 1674 0095 00       		.byte	0
 1675 0096 49       		.uleb128 0x49
 1676 0097 13       		.uleb128 0x13
 1677 0098 00       		.byte	0
 1678 0099 00       		.byte	0
 1679 009a 0D       		.uleb128 0xd
 1680 009b 0F       		.uleb128 0xf
 1681 009c 00       		.byte	0
 1682 009d 0B       		.uleb128 0xb
 1683 009e 0B       		.uleb128 0xb
 1684 009f 00       		.byte	0
 1685 00a0 00       		.byte	0
 1686 00a1 0E       		.uleb128 0xe
 1687 00a2 13       		.uleb128 0x13
 1688 00a3 01       		.byte	0x1
 1689 00a4 03       		.uleb128 0x3
 1690 00a5 0E       		.uleb128 0xe
 1691 00a6 0B       		.uleb128 0xb
 1692 00a7 05       		.uleb128 0x5
 1693 00a8 3A       		.uleb128 0x3a
 1694 00a9 0B       		.uleb128 0xb
 1695 00aa 3B       		.uleb128 0x3b
 1696 00ab 05       		.uleb128 0x5
 1697 00ac 01       		.uleb128 0x1
 1698 00ad 13       		.uleb128 0x13
 1699 00ae 00       		.byte	0
 1700 00af 00       		.byte	0
 1701 00b0 0F       		.uleb128 0xf
 1702 00b1 35       		.uleb128 0x35
 1703 00b2 00       		.byte	0
 1704 00b3 49       		.uleb128 0x49
 1705 00b4 13       		.uleb128 0x13
 1706 00b5 00       		.byte	0
 1707 00b6 00       		.byte	0
 1708 00b7 10       		.uleb128 0x10
 1709 00b8 01       		.uleb128 0x1
 1710 00b9 01       		.byte	0x1
 1711 00ba 49       		.uleb128 0x49
 1712 00bb 13       		.uleb128 0x13
 1713 00bc 01       		.uleb128 0x1
 1714 00bd 13       		.uleb128 0x13
 1715 00be 00       		.byte	0
 1716 00bf 00       		.byte	0
 1717 00c0 11       		.uleb128 0x11
 1718 00c1 21       		.uleb128 0x21
 1719 00c2 00       		.byte	0
 1720 00c3 49       		.uleb128 0x49
 1721 00c4 13       		.uleb128 0x13
 1722 00c5 2F       		.uleb128 0x2f
 1723 00c6 0B       		.uleb128 0xb
 1724 00c7 00       		.byte	0
 1725 00c8 00       		.byte	0
 1726 00c9 12       		.uleb128 0x12
ARM GAS  /tmp/ccOBBbjc.s 			page 45


 1727 00ca 13       		.uleb128 0x13
 1728 00cb 01       		.byte	0x1
 1729 00cc 0B       		.uleb128 0xb
 1730 00cd 0B       		.uleb128 0xb
 1731 00ce 3A       		.uleb128 0x3a
 1732 00cf 0B       		.uleb128 0xb
 1733 00d0 3B       		.uleb128 0x3b
 1734 00d1 05       		.uleb128 0x5
 1735 00d2 01       		.uleb128 0x1
 1736 00d3 13       		.uleb128 0x13
 1737 00d4 00       		.byte	0
 1738 00d5 00       		.byte	0
 1739 00d6 13       		.uleb128 0x13
 1740 00d7 16       		.uleb128 0x16
 1741 00d8 00       		.byte	0
 1742 00d9 03       		.uleb128 0x3
 1743 00da 0E       		.uleb128 0xe
 1744 00db 3A       		.uleb128 0x3a
 1745 00dc 0B       		.uleb128 0xb
 1746 00dd 3B       		.uleb128 0x3b
 1747 00de 05       		.uleb128 0x5
 1748 00df 49       		.uleb128 0x49
 1749 00e0 13       		.uleb128 0x13
 1750 00e1 00       		.byte	0
 1751 00e2 00       		.byte	0
 1752 00e3 14       		.uleb128 0x14
 1753 00e4 0D       		.uleb128 0xd
 1754 00e5 00       		.byte	0
 1755 00e6 03       		.uleb128 0x3
 1756 00e7 08       		.uleb128 0x8
 1757 00e8 3A       		.uleb128 0x3a
 1758 00e9 0B       		.uleb128 0xb
 1759 00ea 3B       		.uleb128 0x3b
 1760 00eb 0B       		.uleb128 0xb
 1761 00ec 49       		.uleb128 0x49
 1762 00ed 13       		.uleb128 0x13
 1763 00ee 38       		.uleb128 0x38
 1764 00ef 0B       		.uleb128 0xb
 1765 00f0 00       		.byte	0
 1766 00f1 00       		.byte	0
 1767 00f2 15       		.uleb128 0x15
 1768 00f3 13       		.uleb128 0x13
 1769 00f4 01       		.byte	0x1
 1770 00f5 0B       		.uleb128 0xb
 1771 00f6 0B       		.uleb128 0xb
 1772 00f7 3A       		.uleb128 0x3a
 1773 00f8 0B       		.uleb128 0xb
 1774 00f9 3B       		.uleb128 0x3b
 1775 00fa 0B       		.uleb128 0xb
 1776 00fb 01       		.uleb128 0x1
 1777 00fc 13       		.uleb128 0x13
 1778 00fd 00       		.byte	0
 1779 00fe 00       		.byte	0
 1780 00ff 16       		.uleb128 0x16
 1781 0100 17       		.uleb128 0x17
 1782 0101 01       		.byte	0x1
 1783 0102 0B       		.uleb128 0xb
ARM GAS  /tmp/ccOBBbjc.s 			page 46


 1784 0103 0B       		.uleb128 0xb
 1785 0104 3A       		.uleb128 0x3a
 1786 0105 0B       		.uleb128 0xb
 1787 0106 3B       		.uleb128 0x3b
 1788 0107 0B       		.uleb128 0xb
 1789 0108 01       		.uleb128 0x1
 1790 0109 13       		.uleb128 0x13
 1791 010a 00       		.byte	0
 1792 010b 00       		.byte	0
 1793 010c 17       		.uleb128 0x17
 1794 010d 0D       		.uleb128 0xd
 1795 010e 00       		.byte	0
 1796 010f 03       		.uleb128 0x3
 1797 0110 0E       		.uleb128 0xe
 1798 0111 3A       		.uleb128 0x3a
 1799 0112 0B       		.uleb128 0xb
 1800 0113 3B       		.uleb128 0x3b
 1801 0114 05       		.uleb128 0x5
 1802 0115 49       		.uleb128 0x49
 1803 0116 13       		.uleb128 0x13
 1804 0117 00       		.byte	0
 1805 0118 00       		.byte	0
 1806 0119 18       		.uleb128 0x18
 1807 011a 26       		.uleb128 0x26
 1808 011b 00       		.byte	0
 1809 011c 49       		.uleb128 0x49
 1810 011d 13       		.uleb128 0x13
 1811 011e 00       		.byte	0
 1812 011f 00       		.byte	0
 1813 0120 19       		.uleb128 0x19
 1814 0121 2E       		.uleb128 0x2e
 1815 0122 00       		.byte	0
 1816 0123 03       		.uleb128 0x3
 1817 0124 0E       		.uleb128 0xe
 1818 0125 3A       		.uleb128 0x3a
 1819 0126 0B       		.uleb128 0xb
 1820 0127 3B       		.uleb128 0x3b
 1821 0128 0B       		.uleb128 0xb
 1822 0129 27       		.uleb128 0x27
 1823 012a 19       		.uleb128 0x19
 1824 012b 20       		.uleb128 0x20
 1825 012c 0B       		.uleb128 0xb
 1826 012d 00       		.byte	0
 1827 012e 00       		.byte	0
 1828 012f 1A       		.uleb128 0x1a
 1829 0130 2E       		.uleb128 0x2e
 1830 0131 01       		.byte	0x1
 1831 0132 3F       		.uleb128 0x3f
 1832 0133 19       		.uleb128 0x19
 1833 0134 03       		.uleb128 0x3
 1834 0135 0E       		.uleb128 0xe
 1835 0136 3A       		.uleb128 0x3a
 1836 0137 0B       		.uleb128 0xb
 1837 0138 3B       		.uleb128 0x3b
 1838 0139 0B       		.uleb128 0xb
 1839 013a 27       		.uleb128 0x27
 1840 013b 19       		.uleb128 0x19
ARM GAS  /tmp/ccOBBbjc.s 			page 47


 1841 013c 11       		.uleb128 0x11
 1842 013d 01       		.uleb128 0x1
 1843 013e 12       		.uleb128 0x12
 1844 013f 06       		.uleb128 0x6
 1845 0140 40       		.uleb128 0x40
 1846 0141 18       		.uleb128 0x18
 1847 0142 9742     		.uleb128 0x2117
 1848 0144 19       		.uleb128 0x19
 1849 0145 01       		.uleb128 0x1
 1850 0146 13       		.uleb128 0x13
 1851 0147 00       		.byte	0
 1852 0148 00       		.byte	0
 1853 0149 1B       		.uleb128 0x1b
 1854 014a 1D       		.uleb128 0x1d
 1855 014b 00       		.byte	0
 1856 014c 31       		.uleb128 0x31
 1857 014d 13       		.uleb128 0x13
 1858 014e 52       		.uleb128 0x52
 1859 014f 01       		.uleb128 0x1
 1860 0150 55       		.uleb128 0x55
 1861 0151 17       		.uleb128 0x17
 1862 0152 58       		.uleb128 0x58
 1863 0153 0B       		.uleb128 0xb
 1864 0154 59       		.uleb128 0x59
 1865 0155 0B       		.uleb128 0xb
 1866 0156 00       		.byte	0
 1867 0157 00       		.byte	0
 1868 0158 1C       		.uleb128 0x1c
 1869 0159 2E       		.uleb128 0x2e
 1870 015a 00       		.byte	0
 1871 015b 3F       		.uleb128 0x3f
 1872 015c 19       		.uleb128 0x19
 1873 015d 03       		.uleb128 0x3
 1874 015e 0E       		.uleb128 0xe
 1875 015f 3A       		.uleb128 0x3a
 1876 0160 0B       		.uleb128 0xb
 1877 0161 3B       		.uleb128 0x3b
 1878 0162 0B       		.uleb128 0xb
 1879 0163 27       		.uleb128 0x27
 1880 0164 19       		.uleb128 0x19
 1881 0165 11       		.uleb128 0x11
 1882 0166 01       		.uleb128 0x1
 1883 0167 12       		.uleb128 0x12
 1884 0168 06       		.uleb128 0x6
 1885 0169 40       		.uleb128 0x40
 1886 016a 18       		.uleb128 0x18
 1887 016b 9742     		.uleb128 0x2117
 1888 016d 19       		.uleb128 0x19
 1889 016e 00       		.byte	0
 1890 016f 00       		.byte	0
 1891 0170 1D       		.uleb128 0x1d
 1892 0171 34       		.uleb128 0x34
 1893 0172 00       		.byte	0
 1894 0173 03       		.uleb128 0x3
 1895 0174 0E       		.uleb128 0xe
 1896 0175 3A       		.uleb128 0x3a
 1897 0176 0B       		.uleb128 0xb
ARM GAS  /tmp/ccOBBbjc.s 			page 48


 1898 0177 3B       		.uleb128 0x3b
 1899 0178 05       		.uleb128 0x5
 1900 0179 49       		.uleb128 0x49
 1901 017a 13       		.uleb128 0x13
 1902 017b 3F       		.uleb128 0x3f
 1903 017c 19       		.uleb128 0x19
 1904 017d 3C       		.uleb128 0x3c
 1905 017e 19       		.uleb128 0x19
 1906 017f 00       		.byte	0
 1907 0180 00       		.byte	0
 1908 0181 1E       		.uleb128 0x1e
 1909 0182 34       		.uleb128 0x34
 1910 0183 00       		.byte	0
 1911 0184 03       		.uleb128 0x3
 1912 0185 0E       		.uleb128 0xe
 1913 0186 3A       		.uleb128 0x3a
 1914 0187 0B       		.uleb128 0xb
 1915 0188 3B       		.uleb128 0x3b
 1916 0189 0B       		.uleb128 0xb
 1917 018a 49       		.uleb128 0x49
 1918 018b 13       		.uleb128 0x13
 1919 018c 3F       		.uleb128 0x3f
 1920 018d 19       		.uleb128 0x19
 1921 018e 02       		.uleb128 0x2
 1922 018f 18       		.uleb128 0x18
 1923 0190 00       		.byte	0
 1924 0191 00       		.byte	0
 1925 0192 1F       		.uleb128 0x1f
 1926 0193 34       		.uleb128 0x34
 1927 0194 00       		.byte	0
 1928 0195 03       		.uleb128 0x3
 1929 0196 08       		.uleb128 0x8
 1930 0197 3A       		.uleb128 0x3a
 1931 0198 0B       		.uleb128 0xb
 1932 0199 3B       		.uleb128 0x3b
 1933 019a 05       		.uleb128 0x5
 1934 019b 49       		.uleb128 0x49
 1935 019c 13       		.uleb128 0x13
 1936 019d 3F       		.uleb128 0x3f
 1937 019e 19       		.uleb128 0x19
 1938 019f 3C       		.uleb128 0x3c
 1939 01a0 19       		.uleb128 0x19
 1940 01a1 00       		.byte	0
 1941 01a2 00       		.byte	0
 1942 01a3 00       		.byte	0
 1943              		.section	.debug_aranges,"",%progbits
 1944 0000 24000000 		.4byte	0x24
 1945 0004 0200     		.2byte	0x2
 1946 0006 00000000 		.4byte	.Ldebug_info0
 1947 000a 04       		.byte	0x4
 1948 000b 00       		.byte	0
 1949 000c 0000     		.2byte	0
 1950 000e 0000     		.2byte	0
 1951 0010 00000000 		.4byte	.LFB273
 1952 0014 80000000 		.4byte	.LFE273-.LFB273
 1953 0018 00000000 		.4byte	.LFB274
 1954 001c A0000000 		.4byte	.LFE274-.LFB274
ARM GAS  /tmp/ccOBBbjc.s 			page 49


 1955 0020 00000000 		.4byte	0
 1956 0024 00000000 		.4byte	0
 1957              		.section	.debug_ranges,"",%progbits
 1958              	.Ldebug_ranges0:
 1959 0000 02000000 		.4byte	.LBB4
 1960 0004 04000000 		.4byte	.LBE4
 1961 0008 26000000 		.4byte	.LBB7
 1962 000c 5A000000 		.4byte	.LBE7
 1963 0010 00000000 		.4byte	0
 1964 0014 00000000 		.4byte	0
 1965 0018 00000000 		.4byte	.LFB273
 1966 001c 80000000 		.4byte	.LFE273
 1967 0020 00000000 		.4byte	.LFB274
 1968 0024 A0000000 		.4byte	.LFE274
 1969 0028 00000000 		.4byte	0
 1970 002c 00000000 		.4byte	0
 1971              		.section	.debug_line,"",%progbits
 1972              	.Ldebug_line0:
 1973 0000 6D030000 		.section	.debug_str,"MS",%progbits,1
 1973      0200F402 
 1973      00000201 
 1973      FB0E0D00 
 1973      01010101 
 1974              	.LASF50:
 1975 0000 72656164 		.ascii	"ready_list_t\000"
 1975      795F6C69 
 1975      73745F74 
 1975      00
 1976              	.LASF2:
 1977 000d 73697A65 		.ascii	"size_t\000"
 1977      5F7400
 1978              	.LASF105:
 1979 0014 7264796D 		.ascii	"rdymsg\000"
 1979      736700
 1980              	.LASF17:
 1981 001b 75696E74 		.ascii	"uint64_t\000"
 1981      36345F74 
 1981      00
 1982              	.LASF3:
 1983 0024 5F5F7569 		.ascii	"__uint8_t\000"
 1983      6E74385F 
 1983      7400
 1984              	.LASF102:
 1985 002e 706F7274 		.ascii	"port_intctx\000"
 1985      5F696E74 
 1985      63747800 
 1986              	.LASF69:
 1987 003a 73797374 		.ascii	"system_debug_t\000"
 1987      656D5F64 
 1987      65627567 
 1987      5F7400
 1988              	.LASF13:
 1989 0049 6C6F6E67 		.ascii	"long long unsigned int\000"
 1989      206C6F6E 
 1989      6720756E 
 1989      7369676E 
 1989      65642069 
ARM GAS  /tmp/ccOBBbjc.s 			page 50


 1990              	.LASF106:
 1991 0060 65786974 		.ascii	"exitcode\000"
 1991      636F6465 
 1991      00
 1992              	.LASF76:
 1993 0069 6D61696E 		.ascii	"mainthread\000"
 1993      74687265 
 1993      616400
 1994              	.LASF109:
 1995 0074 73656E74 		.ascii	"sentmsg\000"
 1995      6D736700 
 1996              	.LASF66:
 1997 007c 76697274 		.ascii	"virtual_timers_list_t\000"
 1997      75616C5F 
 1997      74696D65 
 1997      72735F6C 
 1997      6973745F 
 1998              	.LASF123:
 1999 0092 49544D5F 		.ascii	"ITM_RxBuffer\000"
 1999      52784275 
 1999      66666572 
 1999      00
 2000              	.LASF49:
 2001 009f 63685F74 		.ascii	"ch_threads_queue\000"
 2001      68726561 
 2001      64735F71 
 2001      75657565 
 2001      00
 2002              	.LASF30:
 2003 00b0 705F7072 		.ascii	"p_prio\000"
 2003      696F00
 2004              	.LASF11:
 2005 00b7 6C6F6E67 		.ascii	"long long int\000"
 2005      206C6F6E 
 2005      6720696E 
 2005      7400
 2006              	.LASF1:
 2007 00c5 7369676E 		.ascii	"signed char\000"
 2007      65642063 
 2007      68617200 
 2008              	.LASF83:
 2009 00d1 464C4153 		.ascii	"FLASH_TypeDef\000"
 2009      485F5479 
 2009      70654465 
 2009      6600
 2010              	.LASF43:
 2011 00df 705F6D70 		.ascii	"p_mpool\000"
 2011      6F6F6C00 
 2012              	.LASF117:
 2013 00e7 6D5F7175 		.ascii	"m_queue\000"
 2013      65756500 
 2014              	.LASF75:
 2015 00ef 76746C69 		.ascii	"vtlist\000"
 2015      737400
 2016              	.LASF88:
 2017 00f6 5057525F 		.ascii	"PWR_TypeDef\000"
 2017      54797065 
ARM GAS  /tmp/ccOBBbjc.s 			page 51


 2017      44656600 
 2018              	.LASF108:
 2019 0102 77747472 		.ascii	"wttrp\000"
 2019      7000
 2020              	.LASF73:
 2021 0108 63685F73 		.ascii	"ch_system\000"
 2021      79737465 
 2021      6D00
 2022              	.LASF8:
 2023 0112 6C6F6E67 		.ascii	"long int\000"
 2023      20696E74 
 2023      00
 2024              	.LASF90:
 2025 011b 41504232 		.ascii	"APB2RSTR\000"
 2025      52535452 
 2025      00
 2026              	.LASF20:
 2027 0124 74737461 		.ascii	"tstate_t\000"
 2027      74655F74 
 2027      00
 2028              	.LASF80:
 2029 012d 4F50544B 		.ascii	"OPTKEYR\000"
 2029      45595200 
 2030              	.LASF32:
 2031 0135 705F6E65 		.ascii	"p_newer\000"
 2031      77657200 
 2032              	.LASF114:
 2033 013d 735F7175 		.ascii	"s_queue\000"
 2033      65756500 
 2034              	.LASF55:
 2035 0145 725F6E65 		.ascii	"r_newer\000"
 2035      77657200 
 2036              	.LASF99:
 2037 014d 72656761 		.ascii	"regarm_t\000"
 2037      726D5F74 
 2037      00
 2038              	.LASF62:
 2039 0156 76745F70 		.ascii	"vt_prev\000"
 2039      72657600 
 2040              	.LASF74:
 2041 015e 726C6973 		.ascii	"rlist\000"
 2041      7400
 2042              	.LASF130:
 2043 0164 73746D33 		.ascii	"stm32_clock_init\000"
 2043      325F636C 
 2043      6F636B5F 
 2043      696E6974 
 2043      00
 2044              	.LASF121:
 2045 0175 6D757465 		.ascii	"mutex_t\000"
 2045      785F7400 
 2046              	.LASF77:
 2047 017d 69646C65 		.ascii	"idle_thread_wa\000"
 2047      5F746872 
 2047      6561645F 
 2047      776100
 2048              	.LASF25:
ARM GAS  /tmp/ccOBBbjc.s 			page 52


 2049 018c 636E745F 		.ascii	"cnt_t\000"
 2049      7400
 2050              	.LASF0:
 2051 0192 756E7369 		.ascii	"unsigned int\000"
 2051      676E6564 
 2051      20696E74 
 2051      00
 2052              	.LASF61:
 2053 019f 76745F6E 		.ascii	"vt_next\000"
 2053      65787400 
 2054              	.LASF124:
 2055 01a7 53797374 		.ascii	"SystemCoreClock\000"
 2055      656D436F 
 2055      7265436C 
 2055      6F636B00 
 2056              	.LASF110:
 2057 01b7 77747365 		.ascii	"wtsemp\000"
 2057      6D7000
 2058              	.LASF39:
 2059 01be 705F6D73 		.ascii	"p_msgqueue\000"
 2059      67717565 
 2059      756500
 2060              	.LASF98:
 2061 01c9 5243435F 		.ascii	"RCC_TypeDef\000"
 2061      54797065 
 2061      44656600 
 2062              	.LASF115:
 2063 01d5 735F636E 		.ascii	"s_cnt\000"
 2063      7400
 2064              	.LASF6:
 2065 01db 73686F72 		.ascii	"short unsigned int\000"
 2065      7420756E 
 2065      7369676E 
 2065      65642069 
 2065      6E7400
 2066              	.LASF46:
 2067 01ee 63685F74 		.ascii	"ch_thread\000"
 2067      68726561 
 2067      6400
 2068              	.LASF23:
 2069 01f8 6D73675F 		.ascii	"msg_t\000"
 2069      7400
 2070              	.LASF92:
 2071 01fe 41484245 		.ascii	"AHBENR\000"
 2071      4E5200
 2072              	.LASF126:
 2073 0205 2E2E2F43 		.ascii	"../ChibiOS/os/hal/ports/STM32/STM32F3xx/hal_lld.c\000"
 2073      68696269 
 2073      4F532F6F 
 2073      732F6861 
 2073      6C2F706F 
 2074              	.LASF72:
 2075 0237 63685F73 		.ascii	"ch_system_t\000"
 2075      79737465 
 2075      6D5F7400 
 2076              	.LASF19:
 2077 0243 746D6F64 		.ascii	"tmode_t\000"
ARM GAS  /tmp/ccOBBbjc.s 			page 53


 2077      655F7400 
 2078              	.LASF51:
 2079 024b 63685F72 		.ascii	"ch_ready_list\000"
 2079      65616479 
 2079      5F6C6973 
 2079      7400
 2080              	.LASF24:
 2081 0259 6576656E 		.ascii	"eventmask_t\000"
 2081      746D6173 
 2081      6B5F7400 
 2082              	.LASF7:
 2083 0265 5F5F696E 		.ascii	"__int32_t\000"
 2083      7433325F 
 2083      7400
 2084              	.LASF100:
 2085 026f 73746B61 		.ascii	"stkalign_t\000"
 2085      6C69676E 
 2085      5F7400
 2086              	.LASF45:
 2087 027a 74687265 		.ascii	"threads_list_t\000"
 2087      6164735F 
 2087      6C697374 
 2087      5F7400
 2088              	.LASF38:
 2089 0289 705F7761 		.ascii	"p_waiting\000"
 2089      6974696E 
 2089      6700
 2090              	.LASF78:
 2091 0293 73697A65 		.ascii	"sizetype\000"
 2091      74797065 
 2091      00
 2092              	.LASF44:
 2093 029c 74687265 		.ascii	"thread_reference_t\000"
 2093      61645F72 
 2093      65666572 
 2093      656E6365 
 2093      5F7400
 2094              	.LASF67:
 2095 02af 63685F76 		.ascii	"ch_virtual_timers_list\000"
 2095      69727475 
 2095      616C5F74 
 2095      696D6572 
 2095      735F6C69 
 2096              	.LASF28:
 2097 02c6 705F6E65 		.ascii	"p_next\000"
 2097      787400
 2098              	.LASF68:
 2099 02cd 76745F6C 		.ascii	"vt_lasttime\000"
 2099      61737474 
 2099      696D6500 
 2100              	.LASF128:
 2101 02d9 68616C5F 		.ascii	"hal_lld_backup_domain_init\000"
 2101      6C6C645F 
 2101      6261636B 
 2101      75705F64 
 2101      6F6D6169 
 2102              	.LASF54:
ARM GAS  /tmp/ccOBBbjc.s 			page 54


 2103 02f4 725F6374 		.ascii	"r_ctx\000"
 2103      7800
 2104              	.LASF104:
 2105 02fa 746D5F63 		.ascii	"tm_calibration_t\000"
 2105      616C6962 
 2105      72617469 
 2105      6F6E5F74 
 2105      00
 2106              	.LASF96:
 2107 030b 41484252 		.ascii	"AHBRSTR\000"
 2107      53545200 
 2108              	.LASF57:
 2109 0313 725F6375 		.ascii	"r_current\000"
 2109      7272656E 
 2109      7400
 2110              	.LASF91:
 2111 031d 41504231 		.ascii	"APB1RSTR\000"
 2111      52535452 
 2111      00
 2112              	.LASF12:
 2113 0326 5F5F7569 		.ascii	"__uint64_t\000"
 2113      6E743634 
 2113      5F7400
 2114              	.LASF87:
 2115 0331 53595343 		.ascii	"SYSCFG_TypeDef\000"
 2115      46475F54 
 2115      79706544 
 2115      656600
 2116              	.LASF21:
 2117 0340 74726566 		.ascii	"trefs_t\000"
 2117      735F7400 
 2118              	.LASF79:
 2119 0348 4B455952 		.ascii	"KEYR\000"
 2119      00
 2120              	.LASF59:
 2121 034d 76697274 		.ascii	"virtual_timer_t\000"
 2121      75616C5F 
 2121      74696D65 
 2121      725F7400 
 2122              	.LASF29:
 2123 035d 705F7072 		.ascii	"p_prev\000"
 2123      657600
 2124              	.LASF22:
 2125 0364 74707269 		.ascii	"tprio_t\000"
 2125      6F5F7400 
 2126              	.LASF70:
 2127 036c 63685F73 		.ascii	"ch_system_debug\000"
 2127      79737465 
 2127      6D5F6465 
 2127      62756700 
 2128              	.LASF122:
 2129 037c 5F426F6F 		.ascii	"_Bool\000"
 2129      6C00
 2130              	.LASF15:
 2131 0382 696E7433 		.ascii	"int32_t\000"
 2131      325F7400 
 2132              	.LASF4:
ARM GAS  /tmp/ccOBBbjc.s 			page 55


 2133 038a 756E7369 		.ascii	"unsigned char\000"
 2133      676E6564 
 2133      20636861 
 2133      7200
 2134              	.LASF41:
 2135 0398 705F6D74 		.ascii	"p_mtxlist\000"
 2135      786C6973 
 2135      7400
 2136              	.LASF5:
 2137 03a2 73686F72 		.ascii	"short int\000"
 2137      7420696E 
 2137      7400
 2138              	.LASF35:
 2139 03ac 705F7374 		.ascii	"p_state\000"
 2139      61746500 
 2140              	.LASF33:
 2141 03b4 705F6F6C 		.ascii	"p_older\000"
 2141      64657200 
 2142              	.LASF53:
 2143 03bc 725F7072 		.ascii	"r_prio\000"
 2143      696F00
 2144              	.LASF81:
 2145 03c3 52455345 		.ascii	"RESERVED\000"
 2145      52564544 
 2145      00
 2146              	.LASF112:
 2147 03cc 65776D61 		.ascii	"ewmask\000"
 2147      736B00
 2148              	.LASF36:
 2149 03d3 705F666C 		.ascii	"p_flags\000"
 2149      61677300 
 2150              	.LASF93:
 2151 03db 41504232 		.ascii	"APB2ENR\000"
 2151      454E5200 
 2152              	.LASF60:
 2153 03e3 63685F76 		.ascii	"ch_virtual_timer\000"
 2153      69727475 
 2153      616C5F74 
 2153      696D6572 
 2153      00
 2154              	.LASF113:
 2155 03f4 63685F73 		.ascii	"ch_semaphore\000"
 2155      656D6170 
 2155      686F7265 
 2155      00
 2156              	.LASF40:
 2157 0401 705F6570 		.ascii	"p_epending\000"
 2157      656E6469 
 2157      6E6700
 2158              	.LASF16:
 2159 040c 75696E74 		.ascii	"uint32_t\000"
 2159      33325F74 
 2159      00
 2160              	.LASF127:
 2161 0415 2F752F6A 		.ascii	"/u/jacoroge/442FinalProject/milestone1\000"
 2161      61636F72 
 2161      6F67652F 
ARM GAS  /tmp/ccOBBbjc.s 			page 56


 2161      34343246 
 2161      696E616C 
 2162              	.LASF52:
 2163 043c 725F7175 		.ascii	"r_queue\000"
 2163      65756500 
 2164              	.LASF63:
 2165 0444 76745F64 		.ascii	"vt_delta\000"
 2165      656C7461 
 2165      00
 2166              	.LASF47:
 2167 044d 63685F74 		.ascii	"ch_threads_list\000"
 2167      68726561 
 2167      64735F6C 
 2167      69737400 
 2168              	.LASF10:
 2169 045d 6C6F6E67 		.ascii	"long unsigned int\000"
 2169      20756E73 
 2169      69676E65 
 2169      6420696E 
 2169      7400
 2170              	.LASF82:
 2171 046f 57525052 		.ascii	"WRPR\000"
 2171      00
 2172              	.LASF120:
 2173 0474 63686172 		.ascii	"char\000"
 2173      00
 2174              	.LASF111:
 2175 0479 77746D74 		.ascii	"wtmtxp\000"
 2175      787000
 2176              	.LASF27:
 2177 0480 74687265 		.ascii	"thread_t\000"
 2177      61645F74 
 2177      00
 2178              	.LASF119:
 2179 0489 6D5F6E65 		.ascii	"m_next\000"
 2179      787400
 2180              	.LASF26:
 2181 0490 73797374 		.ascii	"systime_t\000"
 2181      696D655F 
 2181      7400
 2182              	.LASF42:
 2183 049a 705F7265 		.ascii	"p_realprio\000"
 2183      616C7072 
 2183      696F00
 2184              	.LASF58:
 2185 04a5 76746675 		.ascii	"vtfunc_t\000"
 2185      6E635F74 
 2185      00
 2186              	.LASF9:
 2187 04ae 5F5F7569 		.ascii	"__uint32_t\000"
 2187      6E743332 
 2187      5F7400
 2188              	.LASF71:
 2189 04b9 70616E69 		.ascii	"panic_msg\000"
 2189      635F6D73 
 2189      6700
 2190              	.LASF103:
ARM GAS  /tmp/ccOBBbjc.s 			page 57


 2191 04c3 6F666673 		.ascii	"offset\000"
 2191      657400
 2192              	.LASF94:
 2193 04ca 41504231 		.ascii	"APB1ENR\000"
 2193      454E5200 
 2194              	.LASF101:
 2195 04d2 636F6E74 		.ascii	"context\000"
 2195      65787400 
 2196              	.LASF56:
 2197 04da 725F6F6C 		.ascii	"r_older\000"
 2197      64657200 
 2198              	.LASF129:
 2199 04e2 68616C5F 		.ascii	"hal_lld_init\000"
 2199      6C6C645F 
 2199      696E6974 
 2199      00
 2200              	.LASF18:
 2201 04ef 7274636E 		.ascii	"rtcnt_t\000"
 2201      745F7400 
 2202              	.LASF65:
 2203 04f7 76745F70 		.ascii	"vt_par\000"
 2203      617200
 2204              	.LASF48:
 2205 04fe 74687265 		.ascii	"threads_queue_t\000"
 2205      6164735F 
 2205      71756575 
 2205      655F7400 
 2206              	.LASF116:
 2207 050e 63685F6D 		.ascii	"ch_mutex\000"
 2207      75746578 
 2207      00
 2208              	.LASF37:
 2209 0517 705F7265 		.ascii	"p_refs\000"
 2209      667300
 2210              	.LASF95:
 2211 051e 42444352 		.ascii	"BDCR\000"
 2211      00
 2212              	.LASF84:
 2213 0523 43464752 		.ascii	"CFGR1\000"
 2213      3100
 2214              	.LASF86:
 2215 0529 43464752 		.ascii	"CFGR2\000"
 2215      3200
 2216              	.LASF97:
 2217 052f 43464752 		.ascii	"CFGR3\000"
 2217      3300
 2218              	.LASF14:
 2219 0535 75696E74 		.ascii	"uint8_t\000"
 2219      385F7400 
 2220              	.LASF125:
 2221 053d 474E5520 		.ascii	"GNU C 4.8.4 20140526 (release) [ARM/embedded-4_8-br"
 2221      4320342E 
 2221      382E3420 
 2221      32303134 
 2221      30353236 
 2222 0570 616E6368 		.ascii	"anch revision 211358] -mcpu=cortex-m4 -mno-thumb-in"
 2222      20726576 
ARM GAS  /tmp/ccOBBbjc.s 			page 58


 2222      6973696F 
 2222      6E203231 
 2222      31333538 
 2223 05a3 74657277 		.ascii	"terwork -mthumb -ggdb -O2 -fomit-frame-pointer -fal"
 2223      6F726B20 
 2223      2D6D7468 
 2223      756D6220 
 2223      2D676764 
 2224 05d6 69676E2D 		.ascii	"ign-functions=16 -ffunction-sections -fdata-section"
 2224      66756E63 
 2224      74696F6E 
 2224      733D3136 
 2224      202D6666 
 2225 0609 73202D66 		.ascii	"s -fno-common -flto\000"
 2225      6E6F2D63 
 2225      6F6D6D6F 
 2225      6E202D66 
 2225      6C746F00 
 2226              	.LASF107:
 2227 061d 77746F62 		.ascii	"wtobjp\000"
 2227      6A7000
 2228              	.LASF34:
 2229 0624 705F6E61 		.ascii	"p_name\000"
 2229      6D6500
 2230              	.LASF89:
 2231 062b 43464752 		.ascii	"CFGR\000"
 2231      00
 2232              	.LASF118:
 2233 0630 6D5F6F77 		.ascii	"m_owner\000"
 2233      6E657200 
 2234              	.LASF31:
 2235 0638 705F6374 		.ascii	"p_ctx\000"
 2235      7800
 2236              	.LASF64:
 2237 063e 76745F66 		.ascii	"vt_func\000"
 2237      756E6300 
 2238              	.LASF85:
 2239 0646 45585449 		.ascii	"EXTICR\000"
 2239      435200
 2240              		.comm	__gnu_lto_v1,1,1
 2241              		.ident	"GCC: (GNU Tools for ARM Embedded Processors) 4.8.4 20140526 (release) [ARM/embedded-4_8-br
ARM GAS  /tmp/ccOBBbjc.s 			page 59


DEFINED SYMBOLS
                            *ABS*:00000000 hal_lld.c
     /tmp/ccOBBbjc.s:254    .text.hal_lld_init:00000000 $t
     /tmp/ccOBBbjc.s:260    .text.hal_lld_init:00000000 hal_lld_init
     /tmp/ccOBBbjc.s:352    .text.hal_lld_init:00000074 $d
     /tmp/ccOBBbjc.s:359    .text.stm32_clock_init:00000000 $t
     /tmp/ccOBBbjc.s:365    .text.stm32_clock_init:00000000 stm32_clock_init
     /tmp/ccOBBbjc.s:467    .text.stm32_clock_init:00000094 $d
     /tmp/ccOBBbjc.s:478    .data.SystemCoreClock:00000000 SystemCoreClock
     /tmp/ccOBBbjc.s:475    .data.SystemCoreClock:00000000 $d
                            *COM*:00000001 __gnu_lto_v1
                     .debug_frame:00000010 $d

NO UNDEFINED SYMBOLS
