ARM GAS  /tmp/ccDk4sH7.s 			page 1


   1              		.syntax unified
   2              		.cpu cortex-m4
   3              		.fpu softvfp
   4              		.eabi_attribute 20, 1
   5              		.eabi_attribute 21, 1
   6              		.eabi_attribute 23, 3
   7              		.eabi_attribute 24, 1
   8              		.eabi_attribute 25, 1
   9              		.eabi_attribute 26, 1
  10              		.eabi_attribute 30, 2
  11              		.eabi_attribute 34, 1
  12              		.eabi_attribute 18, 4
  13              		.thumb
  14              		.file	"main.c"
  15              		.text
  16              	.Ltext0:
  17              		.section	.gnu.lto_.jmpfuncs.d6cdc284b84e4190,"",%progbits
  18 0000 789C6362 		.ascii	"x\234cb`b\300\006\016Biv\006F `\006\262\312\030\200"
  18      6062C006 
  18      0E426976 
  18      06462060 
  18      06B2CA18 
  19 0015 4A991959 		.ascii	"J\231\031Y\030X\031\331\030\230\231\"\0303\031\031\032"
  19      185819D9 
  19      18989922 
  19      18331919 
  19      1A
  20 0026 66341C60 		.ascii	"f4\034`\001\212\2038\214\015\015LP&\023#\003\016\025"
  20      018A8338 
  20      8C0D0D4C 
  20      50261323 
  20      030E15
  21 0039 8C845438 		.ascii	"\214\204T8\020R\240@H\201\000\222\002 \000\000\312\205"
  21      1052A040 
  21      48810092 
  21      02200000 
  21      CA85
  22 004b 1CCD     		.ascii	"\034\315"
  23              		.text
  24              		.section	.gnu.lto_.inline.d6cdc284b84e4190,"",%progbits
  25 0000 789C6362 		.ascii	"x\234cb`b\300\006x\030!4;\020\261223\244G0f22\203\004"
  25      6062C006 
  25      78182134 
  25      3B10B132 
  25      3233A447 
  26 001a 33E02C10 		.ascii	"3\340,\020f\001b\266\005\362L\014,\013\344\005\030X"
  26      660162B6 
  26      05F24C0C 
  26      2C0BE405 
  26      1858
  27 002c 5E708304 		.ascii	"^p\203\004\2002\234\334pM\014pM\014\3305\315\340\001"
  27      80329CDC 
  27      704D0C70 
  27      4D0CD835 
  27      CDE001
  28 003f 6B62E266 		.ascii	"kb\342f\340``\234\340\307\304\300\316\306\310\300\304"
  28      E060609C 
ARM GAS  /tmp/ccDk4sH7.s 			page 2


  28      E0C7C4C0 
  28      CEC6C8C0 
  28      C4
  29 0050 71C00EA2 		.ascii	"q\300\016\242\010\010\230\031\370x\201Bb\037V3\302\305"
  29      08089819 
  29      F8788142 
  29      621F5633 
  29      C2C5
  30 0062 58187881 		.ascii	"X\030x\201\216d\022Y0\007!\306\312 `\306\310\010\266"
  30      8E641259 
  30      300721C6 
  30      CA2060C6 
  30      C808B6
  31 0075 83496AC6 		.ascii	"\203Ij\306\0326\270\004\033\203\304U\2400\023X\037D"
  31      1A36B804 
  31      1B83C455 
  31      A0301358 
  31      1F44
  32 0087 3B2FC858 		.ascii	";/\310X\3024#\027\214`\000\000*\013\025u"
  32      C2342317 
  32      8C600000 
  32      2A0B1575 
  33              		.text
  34              		.section	.gnu.lto_.pureconst.d6cdc284b84e4190,"",%progbits
  35 0000 789C6362 		.ascii	"x\234cb`b\340g\200\000v\006)F)&+f+\026+V)6\023\000\012"
  35      6062E067 
  35      80007606 
  35      29462926 
  35      2B662B16 
  36 001b 690160   		.ascii	"i\001`"
  37              		.text
  38              		.section	.gnu.lto_modeswitch.part.0.d6cdc284b84e4190,"",%progbits
  39 0000 789CAD50 		.ascii	"x\234\255P\275J\003A\020\376\276\331\335\213\177\205"
  39      BD4A0341 
  39      10FEBED9 
  39      DD8B7F85 
  40 0010 2F10B417 		.ascii	"/\020\264\027\304\332\347\270\200\226I\020\271\"\276"
  40      C4DAE7B8 
  40      80964910 
  40      B922BE
  41 001f 42E6200F 		.ascii	"B\346 \017pe\320\312Nll-U$\210\240\340\003\210\351|"
  41      7065D0CA 
  41      4E6C6C2D 
  41      552488A0 
  41      E00388E9 
  42 0034 041BE1B2 		.ascii	"\004\033\341\262\263\271\223\220\332\201\335\357\333"
  42      B3B99390 
  42      DA81DDEF 
  42      DB
  43 0041 996F6676 		.ascii	"\231ofvF X\267\343x\316\010lFd\006\206\352=\222@I(\342"
  43      462058B7 
  43      E378CE08 
  43      6C466406 
  43      86EA3D92 
  44 0059 665DE896 		.ascii	"f]\350\226\177=\202\3568z\363\226\033\2364\002b\034"
  44      7F3D82EE 
  44      387AF396 
ARM GAS  /tmp/ccDk4sH7.s 			page 3


  44      1B9E3402 
  44      621C
  45 006b C4798E4F 		.ascii	"\304y\216O\231\212\335\211\316\353\372\363w;#G\311\025"
  45      998ADD89 
  45      CEEBFAF3 
  45      773B2347 
  45      C915
  46 007d 3051ADF6 		.ascii	"0Q\255\366\201az\346\361\266\314\234\301\320\365(\011"
  46      81617AE6 
  46      F1B6CC9C 
  46      C1D0F528 
  46      09
  47 008e 5FF0FCFD 		.ascii	"_\360\374\375\370S\364y\035\003\347\344\011\013\202"
  47      F853F479 
  47      1D03E7E4 
  47      090B82
  48 009d 2BDFECD1 		.ascii	"+\337\354\321a\326uox\272\237~\311Rw\200[\235D![\"-"
  48      61D6756F 
  48      78BA9F7E 
  48      C9527780 
  48      5B9D4421 
  49 00b4 7157B82C 		.ascii	"qW\270,+\335-\350\255R\320\251>x$\232\252\015\232\322"
  49      2BDD2DE8 
  49      AD52D0A9 
  49      3E78249A 
  49      AA0D9AD2 
  50 00c8 03B2C1E5 		.ascii	"\003\262\301\345bL\221\251\232\323:\335\354\375\177"
  50      624C91A9 
  50      9AD33ADD 
  50      ECFD7F
  51 00d7 23B7DA48 		.ascii	"#\267\332H\376\246\363i\015\037(\347u3]kyL\2151\223"
  51      FEA6F369 
  51      0D1F28E7 
  51      75335D6B 
  51      794C8D31 
  52 00ec 7646FDE2 		.ascii	"vF\375\342\342p\210\005\364\002V,"
  52      E2708805 
  52      F402562C 
  53              		.text
  54              		.section	.gnu.lto_modeswitch.d6cdc284b84e4190,"",%progbits
  55 0000 789CB550 		.ascii	"x\234\265P\253N\003A\024=g\036\335\205 0\330\015\236"
  55      AB4E0341 
  55      143D671E 
  55      DD852030 
  55      D80D9E
  56 0013 847E00BF 		.ascii	"\204~\000\277\321& \333\025dE\371\201\212\275MV4\250"
  56      D12620DB 
  56      156445F9 
  56      818ABD4D 
  56      5634A8
  57 0026 4A020A47 		.ascii	"J\002\012G\020`\021\025\205 0@H*I(\212\360\013\230e"
  57      10601115 
  57      85203040 
  57      482A4928 
  57      8AF00B98 
  58 003b 1EBB24E0 		.ascii	"\036\273$\340\271\311\3149s\347\334sg\256\202\302\337"
  58      B9C9CC39 
ARM GAS  /tmp/ccDk4sH7.s 			page 4


  58      73E7DC73 
  58      67AE82C2 
  58      DF
  59 004c D873EB98 		.ascii	"\330s\353\230\300\232Cv@5{\002&\251Rz\236A\326\315\262"
  59      C09A4376 
  59      40357B02 
  59      26A9527A 
  59      9E41D6CD 
  60 0061 0BD9D0B4 		.ascii	"\013\331\320\2641m\"\241%=\202(\2256\226\345\001\203"
  60      316D22A1 
  60      253D8228 
  60      953696E5 
  60      0183
  61 0073 DBB55AAC 		.ascii	"\333\265Z\254\352\372\352\365\363\275dB\216B\326\242"
  61      EAFAEAF5 
  61      F3BD6442 
  61      8E42D6A2 
  62 0083 12996D03 		.ascii	"\022\231m\003y8\366\334\356\213\373T\036\365\003\356"
  62      7938F6DC 
  62      EE8BFB54 
  62      1EF503EE 
  63 0093 3F6EDFB6 		.ascii	"?n\337\266\006<\247\305!\271\317\202\277\236\330\247"
  63      063CA7C5 
  63      21B9CF82 
  63      BF9ED8A7 
  64 00a3 C63CD38F 		.ascii	"\306<\323\217\270\273\231fQ\266\203K\251\234\216-Q-"
  64      B8BB9966 
  64      51B6834B 
  64      A99C8E2D 
  64      512D
  65 00b5 D1673875 		.ascii	"\321g8u`\274\213\225\023Y\030\004\032\234\206\215\361"
  65      60BC8B95 
  65      13591804 
  65      1A9C868D 
  65      F1
  66 00c6 906C300E 		.ascii	"\220l0\016\304+:\">\351\273\\\374k\027\365\363-\203"
  66      C42B3A22 
  66      3EE9BB5C 
  66      FC6B17F5 
  66      F32D83
  67 00d9 65573FA3 		.ascii	"eW?\243Jc;`\214/\231\312f\301$oj\335<\012\246m\201\015"
  67      4A633B60 
  67      8C2F99CA 
  67      66C1246F 
  67      6ADD3C0A 
  68 00f1 037BC164 		.ascii	"\003{\301dU\253\266&F\317\351\335\235\367NF\203\342"
  68      55ABB626 
  68      46CFE9DD 
  68      9DF74E46 
  68      83E2
  69 0103 6837C737 		.ascii	"h7\3077\025T[I"
  69      15545B49 
  70              		.text
  71              		.section	.gnu.lto_PWR_EnterSleepMode.d6cdc284b84e4190,"",%progbits
  72 0000 789C6362 		.ascii	"x\234cb`b@\007\222@\254\313\310\300`\007\244\031\231"
  72      60624007 
  72      9240ACCB 
ARM GAS  /tmp/ccDk4sH7.s 			page 5


  72      C8C06007 
  72      A41999
  73 0013 19189926 		.ascii	"\031\030\231&\234c`h\344`bd\0041\030\030\031\352\231"
  73      9C636068 
  73      E4606264 
  73      04311818 
  73      19EA99
  74 0026 18EB2319 		.ascii	"\030\353#\031\301j\3273\035x\360\377\377\272)\307\026"
  74      C16AD733 
  74      1D78F0FF 
  74      FFBA29C7 
  74      16
  75 0037 CC626464 		.ascii	"\314bddcb\310dd`\006\021@\300\312\320\322\3200A\201"
  75      6362C864 
  75      64600611 
  75      40C0CAD0 
  75      D2D03041 
  76 004c 812119CC 		.ascii	"\201!\031\314\015\001\222 \375\241\214L \232\371,\303"
  76      0D019220 
  76      FDA18C4C 
  76      209AF92C 
  76      C3
  77 005d A15B3F1E 		.ascii	"\241[?\036?`Ld\\\310\310\312\220\316\310\244\315\260"
  77      3F604C64 
  77      5CC8C8CA 
  77      90CEC8A4 
  77      CDB0
  78 006f AAA1A551 		.ascii	"\252\241\245Q \223\221q6\303,\306LF\246\010 \301\334"
  78      20939171 
  78      36C32CC6 
  78      4C46A608 
  78      20C1DC
  79 0082 70ABB981 		.ascii	"p\253\271\201\217\001\314\004[\230\304\010s\346Y\206"
  79      8F01CC04 
  79      5B98C408 
  79      73E65986 
  80 0092 E6DDCC30 		.ascii	"\346\335\3140\335\314\351\020\365\014\277\377\377\377"
  80      DDCCE910 
  80      F50CBFFF 
  80      FFFF
  81 00a0 CF0F963D 		.ascii	"\317\017\226=\344\011\221$\315\334t\020\377\034\303"
  81      E4099124 
  81      CDDC7410 
  81      FF1CC3
  82 00af 818FB3AE 		.ascii	"\201\217\263\256\334f\204{\001\3028p\372L#P\026bl2#"
  82      DC66847B 
  82      01C23870 
  82      FA4C2350 
  82      16626C32 
  83 00c4 DC25560C 		.ascii	"\334%V\014\014\027\031\032\037\314R\206\310\300@\010"
  83      0C17191A 
  83      1FCC5286 
  83      C8C04008 
  84 00d4 5005D0A7 		.ascii	"P\005\320\247\240\000f\317M\314\314\323Kf\320\327\323"
  84      A00066CF 
  84      4DCCCCD3 
  84      4B66D0D7 
ARM GAS  /tmp/ccDk4sH7.s 			page 6


  84      D3
  85 00e5 D377CEC8 		.ascii	"\323w\316\310L\312\364\017\326\317/\326O\255(\321w\366"
  85      4CCAF40F 
  85      D6CF2FD6 
  85      4FAD28D1 
  85      77F6
  86 00f7 0DF60CD6 		.ascii	"\015\366\014\326\317\314K\316)MI\325O\316/J\215O\316"
  86      CFCC4BCE 
  86      294D49D5 
  86      4FCE2F4A 
  86      8D4FCE
  87 010a F5CC2B2E 		.ascii	"\365\314+.)\322\313``)O\313d\000\0004g^\372"
  87      29D2CB60 
  87      60294FCB 
  87      64000034 
  87      675EFA
  88              		.text
  89              		.section	.gnu.lto_PWR_EnterSTOPMode.d6cdc284b84e4190,"",%progbits
  90 0000 789C9D93 		.ascii	"x\234\235\223\275O\333@\030\306\337\367\316\216\255"
  90      BD4FDB40 
  90      18C6DFF7 
  90      CE8EAD
  91 000f 12282BA8 		.ascii	"\022(+\250CTF\244\370O\250(b\310\200\030\002\022\235"
  91      435446A4 
  91      F84FA828 
  91      62C88018 
  91      02129D
  92 0022 50E2A6C1 		.ascii	"P\342\246\301R\023\252\220\0126\316u\376\000\304\006"
  92      5213AA90 
  92      0A36CE75 
  92      FE00C406 
  93 0032 0C8098E8 		.ascii	"\014\200\230\350\322\241\013\025\213\305\206P\243V\352"
  93      D2A10B15 
  93      8BC58650 
  93      A356EA
  94 0041 1085C50C 		.ascii	"\020\205\305\014\210\201V\0250\202d\336;\177\360!\006"
  94      88815615 
  94      308264DE 
  94      3B7FF021 
  94      06
  95 0052 C449BEF3 		.ascii	"\304I\276\363\331\357\363\273\347\271\263\0310x\330"
  95      D9EFF3BB 
  95      E7B9B319 
  95      3078D8
  96 0061 06E87ACB 		.ascii	"\006\350z\313\001\306hD\016\310\226\333\000\256\311"
  96      01C66844 
  96      0EC896DB 
  96      00AEC9
  97 0070 10E50D20 		.ascii	"\020\345\015 ,1\\z\207\262\024_\303\226\020+\301\311"
  97      2C315C7A 
  97      87B2145F 
  97      C396102B 
  97      C1C9
  98 0082 6980ABC2 		.ascii	"i\200\253\302om\212\3530Dt\220\260/\020l\204i\232`N"
  98      6F6D8AEB 
  98      30447490 
  98      B02F106C 
ARM GAS  /tmp/ccDk4sH7.s 			page 7


  98      84699A60 
  99 0097 0D4CBBBF 		.ascii	"\015L\273\277\3167\346\007a\370\367{\353\342U\037\203"
  99      CE37E607 
  99      61F8F77B 
  99      EBE2551F 
  99      83
 100 00a8 126E118D 		.ascii	"\022n\021\215\307\243\2065\004=\236\030\340 7e\327#"
 100      C7A38635 
 100      043D9E18 
 100      E0203765 
 100      D723
 101 00ba BBACEC48 		.ascii	"\273\254\354H\257CK\210\345\\T\003r1j\223\324K\233S"
 101      AF434B88 
 101      E55C5403 
 101      72316A93 
 101      D44B9B53 
 102 00ce C8E4C80F 		.ascii	"\310\344\310\017\340K\260\341\031%\334\306\004'\275"
 102      E04BB0E1 
 102      1925DCC6 
 102      0427BD
 103 00dd 28033F61 		.ascii	"(\003?a\277\3339\373\205\321\313*\262a\370*Z\256x\343"
 103      BFDB39FB 
 103      85D1CB2A 
 103      B261F82A 
 103      5AAE78E3 
 104 00f1 A0B60E6B 		.ascii	"\240\266\016kT\246\313\332\214\010\\\241)YF\351\312"
 104      54A6CBDA 
 104      8C085CA1 
 104      295946E9 
 104      CA
 105 0102 984420BA 		.ascii	"\230D \272?x\227M\020\311\365\366\274\343\336\004\313"
 105      3F78974D 
 105      10C9F5F6 
 105      BCE3DE04 
 105      CB
 106 0113 E9A11473 		.ascii	"\351\241\024s\332\233\360\245R\261\373\032\2564?\274"
 106      DA9BF0A5 
 106      52B1FB1A 
 106      AE343FBC 
 107 0123 7FA94657 		.ascii	"\177\251FW2\355\221Z]\371>\350\374\357\304\276c\323"
 107      32ED915A 
 107      5DF93EE8 
 107      FCEFC4BE 
 107      63D3
 108 0135 BD4F349D 		.ascii	"\275O4\235\020\272\273\027A\232\334\210 \375)\303\220"
 108      10BABB17 
 108      419ADC88 
 108      20FD29C3 
 108      90
 109 0146 4253743D 		.ascii	"BSt=\321\247\030f\314H\222K\273<Q\233\325\250\236k\321"
 109      D1A71866 
 109      CC48924B 
 109      BB3C519B 
 109      D5A89E6B 
 110 015b A616EE1A 		.ascii	"\246\026\356\032{*\263*\347m\360\317w\376\034a|\264"
 110      7B2AB32A 
 110      E76DF0CF 
ARM GAS  /tmp/ccDk4sH7.s 			page 8


 110      77FE1C61 
 110      7CB4
 111 016d C919FB87 		.ascii	"\311\031\373\207'.\355Q\204\265S\0230\022'\271\274M"
 111      272EED51 
 111      84B55313 
 111      301227B9 
 111      BC4D
 112 017f D2F38C24 		.ascii	"\322\363\214${i\222,\001T\222\253\370\250\236\237&\013"
 112      7B69922C 
 112      015492AB 
 112      F8A89E9F 
 112      260B
 113 0191 F01BDCA0 		.ascii	"\360\033\334\240=\024\311\2236I\005\364]\312\277\316"
 113      3D14C993 
 113      364905F4 
 113      5DCABFCE 
 114 01a1 A8959C7A 		.ascii	"\250\225\234z\336\206L\263\366\251Q\251Z\371\2745:\353"
 114      DE864CB3 
 114      F6A951A9 
 114      5AF9BC35 
 114      3AEB
 115 01b3 949D89A2 		.ascii	"\224\235\211\24257oU\026\233\326\350x\261P\264\234\272"
 115      35376F55 
 115      169BD6E8 
 115      78B150B4 
 115      9CBA
 116 01c5 FDF1F3FB 		.ascii	"\375\361\363\373\212e\3175*3v\255P\237o6\362\263\240"
 116      8A65CF35 
 116      2A3376AD 
 116      509F6F36 
 116      F2B3A0
 117 01d8 2D7C70E0 		.ascii	"-|p\340\006\036\014\331\002"
 117      061E0CD9 
 117      02
 118              		.text
 119              		.section	.gnu.lto_PWR_EnterSTANDBYMode.d6cdc284b84e4190,"",%progbits
 120 0000 789CA592 		.ascii	"x\234\245\222\261K\303@\024\306\277wIj\013\"\256n\202"
 120      B14BC340 
 120      14C6BF77 
 120      496A0B22 
 120      AE6E82
 121 0013 A390DB1D 		.ascii	"\243\220\333\035\\:u\020\207V\320I\332X\333C\333B[\251"
 121      5C3A7510 
 121      8756D049 
 121      DA58DB43 
 121      DB425BA9 
 122 0027 5B2FB49B 		.ascii	"[/\264\233K\347\272\350\352\240\340\244[\351\242K\013"
 122      4BE7BAE8 
 122      EAA0E0A4 
 122      5BE9A24B 
 122      0B
 123 0038 8283D425 		.ascii	"\202\203\324%\377\202\213X\021\352\335\305t\020\021"
 123      FF828B58 
 123      11EADDC5 
 123      741011
 124 0047 A50FF2DD 		.ascii	"\245\017\362\335\273\274w?\276\274\034\003\303\367X"
 124      BBBC773F 
ARM GAS  /tmp/ccDk4sH7.s 			page 9


 124      BEBC1C03 
 124      C3F758
 125 0056 52CF817A 		.ascii	"R\317\201z\275\256V\262@\2543\004\3748#\322\011\010"
 125      BDAE56B2 
 125      40AC3304 
 125      FC3823D2 
 125      0908
 126 0068 4D46CD1D 		.ascii	"MF\315\0352\275W\254\027L&\227\327wgc\242y\006A\260"
 126      32BD57AC 
 126      174C2697 
 126      D7776763 
 126      A2790641 
 127 007d B4385A62 		.ascii	"\2648ZbZ\342Z\022ZT8hK\331Y\006<\263\315(\325\314-b"
 127      5AE25A12 
 127      5A543868 
 127      4BD95906 
 127      3CB3CD28 
 128 0095 7AB506E8 		.ascii	"z\265\006\350\217\336^\237(K\347\344\240@l\025\027\262"
 128      8FDE5E9F 
 128      284BE7E4 
 128      A0406C15 
 128      17B2
 129 00a7 ED2F0AA2 		.ascii	"\355/\012\242StI\020\333Vb\311\300\2276LjL\344(\262"
 129      53744910 
 129      DB5662C9 
 129      C097364C 
 129      6A4CE428 
 130 00bc 3E40EBD6 		.ascii	">@\353\326\212N[\205\260\037\266\251\364Sa\341\177\314"
 130      8A4E5B85 
 130      B01FB6A9 
 130      F45361E1 
 130      7FCC
 131 00ce 82DE6B5F 		.ascii	"\202\336k_\367\215\210\353\314\344*\246\000\306\025"
 131      F78D88EB 
 131      CCE42AA6 
 131      00C615
 132 00dd 9BC9552C 		.ascii	"\233\311U,tu\363\036L\247\025\377\316\260\365AG\216"
 132      7475F31E 
 132      4CA715FF 
 132      CEB0F541 
 132      478E
 133 00ef 5A72C130 		.ascii	"Zr\3010\234/\006\375\344+\241\000\177\230\326\357L\205"
 133      9C2F06FD 
 133      E42BA100 
 133      7F98D6EF 
 133      4C85
 134 0101 0186E8BD 		.ascii	"\001\206\350\275t\037\237i\372\263\303\244w\362\341"
 134      741F9F69 
 134      FAB3C3A4 
 134      77F2E1
 135 0110 ABAF08B1 		.ascii	"\253\257\010\261\336\324\004\326\200\007\370\301x%\254"
 135      DED404D6 
 135      8007F8C1 
 135      7825AC
 136 011f 4491511D 		.ascii	"D\221Q\035\352N\350)\315\225\262\242\354z\340\256\313"
 136      EA4EE829 
 136      CD95B2A2 
ARM GAS  /tmp/ccDk4sH7.s 			page 10


 136      EC7AE0AE 
 136      CB
 137 0130 93459113 		.ascii	"\223E\221\023\233i^\251\361\374q\235'7\322\2514\027"
 137      9B695EA9 
 137      F1FC719D 
 137      2737D2A9 
 137      3417
 138 0142 65EFF068 		.ascii	"e\357\360h/\317\275J5\277\353\225R\345Z\275\352\026"
 138      2FCFBD4A 
 138      35BFEB95 
 138      52E55ABD 
 138      EA16
 139 0154 6137F605 		.ascii	"a7\366\005>\001\332\\\234\266"
 139      3E01DA5C 
 139      9CB6
 140              		.text
 141              		.section	.gnu.lto_set_state.d6cdc284b84e4190,"",%progbits
 142 0000 789CB552 		.ascii	"x\234\265R;O\033A\020\236\331\275}\234\315aA\227TV\244"
 142      3B4F1B41 
 142      109ED9BD 
 142      7D9CCD61 
 142      41975456 
 143 0015 880229FF 		.ascii	"\210\002)\377#=H\320a\273@.\310O\200\263\317\005\215"
 143      233D48D0 
 143      61BB402E 
 143      C84F80B3 
 143      CF058D
 144 0028 854B449A 		.ascii	"\205KD\232 D\023)\320\"\\\360(\020\226\000\211\222\316"
 144      20441329 
 144      D0225CF0 
 144      28109600 
 144      8992CE
 145 003b 343420EA 		.ascii	"44 \352H\221|\231\331\275\275\004$JV\272\231\235\327"
 145      48917C99 
 145      D9BDBD04 
 145      244A56BA 
 145      999DD7
 146 004e 37DFDE8C 		.ascii	"7\337\336\214\000\001\257\317\012}K\022\240J\032c@1"
 146      0001AFCF 
 146      0A7D4B12 
 146      A04A1A63 
 146      4031
 147 0060 B801E858 		.ascii	"\270\001\350X\201\306_\244\2106\347 \255(\226S\021j"
 147      81C65FA4 
 147      8836E720 
 147      AD289653 
 147      116A
 148 0072 EF56E1A2 		.ascii	"\357V\341\242}\342\2315B\366\317\2002m\226P\246Ed? "
 148      7DE29935 
 148      42F6CF80 
 148      326D9650 
 148      A645643F 
 149 0087 6C081929 		.ascii	"l\010\031)m,n,#w\304O\260\233\246\203\361~~\364!\375"
 149      6D2C6E2C 
 149      2377C44F 
 149      B09BA683 
 149      F17E7EF4 
ARM GAS  /tmp/ccDk4sH7.s 			page 11


 150 009d D11DA493 		.ascii	"\321\035\244\223<\3076\022\267\012B\013a\211\014\254"
 150      3CC73612 
 150      B70A420B 
 150      61890CAC 
 151 00ad 3B25A297 		.ascii	";%\242\227d\017\305\3518\317\257N~\337\367qv\026\241"
 151      640FC5E9 
 151      38CFAF4E 
 151      7EDFF771 
 151      7616A1
 152 00c0 81BB84A6 		.ascii	"\201\273\204\246p\015A\003A\030\026\226E\314\242BBV"
 152      700D4103 
 152      41181696 
 152      45CCA242 
 152      4256
 153 00d2 4944099B 		.ascii	"ID\011\233\323l\326\330\234)*\351(\350\021\231z\260"
 153      D36CD6D8 
 153      9C292AE9 
 153      28E81199 
 153      7AB0
 154 00e4 5B8EE202 		.ascii	"[\216\342\002Iz\305\"\012Rr\004\335\361dO7p\017UQ\310"
 154      497AC522 
 154      0A527204 
 154      DDF1644F 
 154      37700F55 
 155 00fa E44A568B 		.ascii	"\344JV\213(\201\236.\257\241\373\234\345[\037}\342*"
 155      28819E2E 
 155      AFA1FB9C 
 155      E55B1F7D 
 155      E22A
 156 010c EA555270 		.ascii	"\352URp\015\331\201\014.\343\274\350\274\303l=\270-"
 156      0DD9810C 
 156      2EE3BCE8 
 156      BCC36C3D 
 156      B82D
 157 011e 451C2483 		.ascii	"E\034$\203^B\357\2513\3042\366\242\227\357\027\301E"
 157      5E42EFA9 
 157      33C432F6 
 157      A297EF17 
 157      C145
 158 0130 9DDA659B 		.ascii	"\235\332e\233\331q\231\027\023\256K\345IR\354W\331\264"
 158      D9719917 
 158      13AE4BE5 
 158      4952EC57 
 158      D9B4
 159 0142 C26E899C 		.ascii	"\302n\211\234\303\221\356c\031\251R\220]\347_\275g\036"
 159      C391EE63 
 159      19A95290 
 159      5DE75FBD 
 159      671E
 160 0154 7EA63D4A 		.ascii	"~\246=JV\341\242\303\305|\207\035R\216L\234n\247\247"
 160      56E1A2C3 
 160      C57C871D 
 160      528E4C9C 
 160      6EA7A7
 161 0167 91FB07B1 		.ascii	"\221\373\007\261#\324,\3705\021\013\355\367\214\032"
 161      23D42CF8 
 161      35110BED 
ARM GAS  /tmp/ccDk4sH7.s 			page 12


 161      F78C1A
 162 0176 04C6AA64 		.ascii	"\004\306\252d<\021\241{\362&\343\351\222q\362\212q\215"
 162      3C11A17B 
 162      F226E3E9 
 162      9271F28A 
 162      718D
 163 0188 82EFC258 		.ascii	"\202\357\302X\026\214k\201\261.fJ\224\377l\315\207\376"
 163      168C6B81 
 163      B12E664A 
 163      94FF6CCD 
 163      87FE
 164 019a 338133D7 		.ascii	"3\2013\327\215@\374\277\024\024\015\305\006h\371yq,"
 164      8D40FCBF 
 164      14140DC5 
 164      0668F979 
 164      712C
 165 01ac 944174A3 		.ascii	"\224At\243}\350\230\200\345\201\376\255\370\035`1k\261"
 165      7DE89880 
 165      E581FEAD 
 165      F81D6031 
 165      6BB1
 166 01be 2D094C1F 		.ascii	"-\011L\037)\306\262\274\203\267\320\031\367?\373\312"
 166      29C6B2BC 
 166      83B7D019 
 166      F73FFBCA 
 167 01ce 70160832 		.ascii	"p\026\0102K\370W\233\265F\373\333\227\026`\373/\030"
 167      4BF8579B 
 167      B546FBDB 
 167      971660FB 
 167      2F18
 168 01e0 A4B815   		.ascii	"\244\270\025"
 169              		.text
 170              		.section	.gnu.lto_main.d6cdc284b84e4190,"",%progbits
 171 0000 789C9591 		.ascii	"x\234\225\221=n\0021\020\205\337\033{\331\244\343\010"
 171      3D6E0231 
 171      1085DF1B 
 171      7BD9A4E3 
 171      08
 172 0011 5C00CE00 		.ascii	"\\\000\316\000w\330HP\242\025\305\026p\201\024\030\001"
 172      77D84850 
 172      A215C516 
 172      70811418 
 172      01
 173 0022 11A2A248 		.ascii	"\021\242\242HA\031z\004)\243\360#\032Z\250\323\355\001"
 173      41197A04 
 173      29A3F023 
 173      1A5AA8D3 
 173      ED01
 174 0034 72021AF0 		.ascii	"r\002\032\360\332)H6\315Z\262\337\310\372\276\231b\004"
 174      DA294836 
 174      CD5AB2DF 
 174      C8FABE99 
 174      6204
 175 0046 82BFA76A 		.ascii	"\202\277\247j\357\027\201G\233\014@\231\235\200\301"
 175      EF178147 
 175      9B0C4099 
 175      9D80C1
ARM GAS  /tmp/ccDk4sH7.s 			page 13


 176 0055 8350F942 		.ascii	"\203P\371BQ\373B\373\237\006\321\027\245\331o\321\371"
 176      51FB42FB 
 176      9F06D117 
 176      A5D96FD1 
 176      F9
 177 0066 6B39A4D7 		.ascii	"k9\244\327\353\352}\372\372\315\245\316\272\004\030"
 177      EBEA7DFA 
 177      FACDA5CE 
 177      BA0418
 178 0075 1933AB00 		.ascii	"\0313\253\000\261#\"\373\022O\024P\2351L\327\307R\233"
 178      B12322FB 
 178      124F1450 
 178      9D314CD7 
 178      C7529B
 179 0088 0B3B0A78 		.ascii	"\013;\012x\306\305LL9\241E}\267$\313\214\372\030\207"
 179      C6C54C4C 
 179      39A1457D 
 179      B724CB8C 
 179      FA1887
 180 009b FF51724F 		.ascii	"\377QrO\275\244\237\235\034$1\225\203\232L\250\314\334"
 180      BDA49F9D 
 180      1C243195 
 180      839A4CA8 
 180      CCDC
 181 00ad 1CB42BB5 		.ascii	"\034\264+\265)\273\014h\365\222\323\3376A\001\275\222"
 181      29BB0C68 
 181      F592D3DF 
 181      364101BD 
 181      92
 182 00be D3B745F4 		.ascii	"\323\267E\364zN\337\025\321\015s\376\276\220/\277|\277"
 182      7A4EDF15 
 182      D10D73FE 
 182      BE902FBF 
 182      7CBF
 183 00d0 1805BB51 		.ascii	"\030\005\273Q\025Qg\311\350g\007\010\273\355\244W\213"
 183      155167C9 
 183      E8670708 
 183      BBEDA457 
 183      8B
 184 00e1 71033D6F 		.ascii	"q\003=oq\312"
 184      71CA
 185              		.text
 186              		.section	.gnu.lto_.symbol_nodes.d6cdc284b84e4190,"",%progbits
 187 0000 789C4DC7 		.ascii	"x\234M\3079\022\202P\024D\321~\375\225a\325M\025\211"
 187      39128250 
 187      1444D17E 
 187      FD9561D5 
 187      4D1589
 188 0013 218A63A0 		.ascii	"!\212c\240\011\211\373 1\"#w\330\007\345/y\352\277\311"
 188      0989FB20 
 188      31222377 
 188      D807E52F 
 188      79EABFC9 
 189 0027 AD431023 		.ascii	"\255C\020#<\236(\240\031\000\351\27426\2249/\221k\212"
 189      3C9E28A0 
 189      1900E9BC 
 189      32369439 
ARM GAS  /tmp/ccDk4sH7.s 			page 14


 189      2F916B8A 
 190 003b 09375448 		.ascii	"\0117TH\330R\213\204[j\231pGe_\336hG*\237YUf\007\252"
 190      D8528B84 
 190      5B6A9970 
 190      47655FDE 
 190      68472A9F 
 191 0054 F86B4F95 		.ascii	"\370kO\225?\005\003\236\327\301BV\242\276O\361\005\272"
 191      3F05039E 
 191      D7C14256 
 191      A2BE4FF1 
 191      05BA
 192 0066 CF73F4FE 		.ascii	"\317s\364\376\227\277~\314\357\374}<\336z\233A\377"
 192      97BF7ECC 
 192      EFFC7D3C 
 192      DE7A9B41 
 192      FF
 193              		.text
 194              		.section	.gnu.lto_.refs.d6cdc284b84e4190,"",%progbits
 195 0000 789C6362 		.ascii	"x\234cb`b`d\200\002\000\000F\000\006"
 195      60626064 
 195      80020000 
 195      460006
 196              		.text
 197              		.section	.gnu.lto_.decls.d6cdc284b84e4190,"",%progbits
 198 0000 789CBD59 		.ascii	"x\234\275Y}p\023\307\025\337=I\266\005\212\003\004\030"
 198      7D7013C7 
 198      15DF3D49 
 198      B6058A03 
 198      0418
 199 0012 D37606D1 		.ascii	"\323v\006\321i:4\004\213\3304C\377\311`,;vj\307\232"
 199      693A3404 
 199      8BD83443 
 199      FFC9602C 
 199      3B766AC7 
 200 0027 938132D3 		.ascii	"\223\2012\323A\034\362\2015\265eW:\012\364\217fm>&\244"
 200      411CF281 
 200      35B56557 
 200      3A0AF48F 
 200      666D3E26 
 201 003c 140C1862 		.ascii	"\024\014\030b0\005\023B\200z\350\200\011!\341+2\005"
 201      30051342 
 201      807AE880 
 201      0921E12B 
 201      3205
 202 004e 4A191A53 		.ascii	"J\031\032SJ(\301\324\010h\212S\322\206db\206\360\245"
 202      4A28C1D4 
 202      08688A53 
 202      D2866462 
 202      86F0A5
 203 0061 EEAE4EBA 		.ascii	"\356\256N\272\275\363\235t\362tz3\373nu\367\366\267"
 203      BDF39D74 
 203      F2747A33 
 203      FB6E75F7 
 203      F6B7
 204 0073 BFB7EFED 		.ascii	"\277\267\357\355\356\333\023\0078\320\312\001\020\303"
 204      EEDB1307 
 204      38D0CA01 
ARM GAS  /tmp/ccDk4sH7.s 			page 15


 204      10C3
 205 0081 D7442700 		.ascii	"\327D'\000O[\001\310\001\000\274\204\013\256\202\035"
 205      4F5B01C8 
 205      0100BC84 
 205      0BAE821D 
 206 0091 B864E372 		.ascii	"\270d\343rE\376M\256a\270\364\342r\023\227~\\\006py"
 206      45FE4DAE 
 206      61B8F4E2 
 206      7213977E 
 206      5C067079 
 207 00a5 445E4000 		.ascii	"D^@\000l\270\344\3402\032\227\261\020\014\272ze<\202"
 207      6CB8E4E0 
 207      321A97B1 
 207      100CBA7A 
 207      653C82
 208 00b8 9587DF8F 		.ascii	"\225\207\337\217\303\345\030\256\277%\367e\221\337\035"
 208      C3E518AE 
 208      BF25F765 
 208      91DF1D
 209 00c7 C5A51B97 		.ascii	"\305\245\033\227\363\270\234\212C\323\266\344~]\203"
 209      F3B89C8A 
 209      43D3B6E4 
 209      7E5D83
 210 00d6 4978D8D3 		.ascii	"Ix\330\323`~\013?\273&\327YlNn\237\300\376\247\006\273"
 210      607E0B3F 
 210      BB26D759 
 210      6C4E6E9F 
 210      C0FEA706 
 211 00eb 5FC6259C 		.ascii	"_\306%\234\367\342\362m\254\364\023\030\327\375\001"
 211      F7E2F26D 
 211      ACF41318 
 211      D7FD01
 212 00fa 8CB7273A 		.ascii	"\214\267':stl\035\220yu\342\222\213\213\203\301\231"
 212      73746C1D 
 212      907975E2 
 212      928B8B83 
 212      C199
 213 010c 8BF51742 		.ascii	"\213\365\027B\005\217\340\370\241\2029 c\022\330o4\270"
 213      058FE0F8 
 213      A1823920 
 213      6312D86F 
 213      34B8
 214 011e 64ACB332 		.ascii	"d\254\2632\300zd\300\217\200\017\223\355K\360\263\311"
 214      C07A64C0 
 214      8F800F93 
 214      ED4BF0B3 
 214      C9
 215 012f 63A4378E 		.ascii	"c\2447\216\254_N\311\343\007e\034r\3474}\220X \034k"
 215      AC5F4EC9 
 215      E307651C 
 215      72E7347D 
 215      9058201C 
 216 0144 F1FD31BE 		.ascii	"\361\3751\276\007\240:\236\354\262\276U\326\035+\307"
 216      07A03A9E 
 216      ECB2BE55 
 216      D61D2BC7 
 217 0154 4D8E0ED7 		.ascii	"M\216\016\327\341\340\015\204\232Q\307JTv6w\024X\207"
ARM GAS  /tmp/ccDk4sH7.s 			page 16


 217      E1E00D84 
 217      9A51C74A 
 217      54763677 
 217      145887
 218 0167 F0E53C9B 		.ascii	"\360\345<\233K\014\026`\256\035D9Zs\330\301\363X\373"
 218      4B0C1660 
 218      AE1D4439 
 218      5A73D8C1 
 218      F358FB
 219 017a 59F03642 		.ascii	"Y\3606B-\321\025\017\306!\253\000\337\202\243\3608\274"
 219      2DD1150F 
 219      C621AB00 
 219      DF82A3F0 
 219      38BC
 220 018c 08C17360 		.ascii	"\010\301s`/n\326\202\320\315\357\352\015GZX\000\004"
 220      2F6ED682 
 220      D0CDEFEA 
 220      0D475A58 
 220      0004
 221 019e F80E0613 		.ascii	"\370\016\006\023\340.\370\\\274\023\024y\370\221\203"
 221      E02EF85C 
 221      BC131479 
 221      F89183
 222 01ad 74429E03 		.ascii	"tB\236\003\371\215\3165\001t\240\345\313\"\261\217\266"
 222      F98DCE35 
 222      0174A0E5 
 222      CB22B18F 
 222      B6
 223 01be 8E431D27 		.ascii	"\216C\035'\241\035\274\216\3202\331\234do\316DgV\305"
 223      A11DBC8E 
 223      D032D99C 
 223      646FCE44 
 223      6756C5
 224 01d1 86432B4F 		.ascii	"\206C+Ow\303f\204\342M\232S6\021\340\357\340\263Xf\333"
 224      77C36684 
 224      E24D9A53 
 224      3611E0EF 
 224      E0B35866 
 225 01e6 9344C8DB 		.ascii	"\223D\310\333l\273R!\363\374i\022\026' T\2615\001/3"
 225      6CBB5221 
 225      F3FC6912 
 225      16272054 
 225      B135012F 
 226 01fb DABEE6D8 		.ascii	"\332\276\346\330\217\020\312\021\340>\314\211\003\347"
 226      8F10CA11 
 226      E03ECC89 
 226      03E7
 227 0209 393590DC 		.ascii	"95\220\334_\3622C'Cu\016\374\215vJ\306\\\217\250\\\215"
 227      5FF23243 
 227      2743750E 
 227      FC8D764A 
 227      C65C8FA8 
 228 021f 5FB282CA 		.ascii	"_\262\202\312\017\321\345_\375\011\242\365\016\001\356"
 228      0FD1E55F 
 228      FD09A2F5 
 228      0E01EE
 229 022e A536FC3D 		.ascii	"\2456\374=c8\247\312\255\353{\034-B\002\354\037f\300"
ARM GAS  /tmp/ccDk4sH7.s 			page 17


 229      6338A7CA 
 229      ADEB7B1C 
 229      2D4202EC 
 229      1F66C0
 230 0241 720CB945 		.ascii	"r\014\271EZY\260\3173\006S3\333\304\202}e\006l\2041"
 230      5A59B0CF 
 230      33065333 
 230      DBC4827D 
 230      65066C84 
 231 0256 B33616EC 		.ascii	"\2636\026\354^\306`,\263\246\310\341\236s\304\005\317"
 231      5EC6602C 
 231      B3A6C8E1 
 231      9E73C405 
 231      CF
 232 0267 80F50835 		.ascii	"\200\365\0105\241\216,\243\250\003\200\252\240\224*"
 232      A18E2CA3 
 232      A80380AA 
 232      A0942A
 233 0276 023C0E9F 		.ascii	"\002<\016\237Q\317\313\366\265\271d^\222\347i\346%j"
 233      51CFCBF6 
 233      B5B9645E 
 233      92E769E6 
 233      256A
 234 0288 8EFCB627 		.ascii	"\216\374\266'>/\005\330I\215{@\215#m\207\020_\270\363"
 234      3E2F05D8 
 234      498D7B40 
 234      8D236D87 
 234      105FB8F3 
 235 029c 433DC3D1 		.ascii	"C=\303\321\033\016yA\351\230\276'\005\361\223\332\005"
 235      1B0E7941 
 235      E998BE27 
 235      05F193DA 
 235      05
 236 02ad 657B0FE7 		.ascii	"e{\017\347\214?N\317\373@\317\326<\324\321\235X\034"
 236      8C3F4ECF 
 236      FB40CFD6 
 236      3CD4D19D 
 236      581C
 237 02bf D04A3491 		.ascii	"\320J4\221\351kD\242/\262\013$\327\223\303\317\323\331"
 237      E96B44A2 
 237      2FB20B24 
 237      D793C3CF 
 237      D3D9
 238 02d1 7B9A1AFA 		.ascii	"{\232\032\372\210\323]\006L\000m_\263;\276\014\234\245"
 238      88D35D06 
 238      4C006D5F 
 238      B33BBE0C 
 238      9CA5
 239 02e3 402B2CDA 		.ascii	"@+,\332e\300\242Y\006,\352ym\261+\225X\314\0022S\346"
 239      65C0A259 
 239      062CEA79 
 239      6DB12B95 
 239      58CC0232 
 240 02f9 400BEDF0 		.ascii	"@\013\355\360\244\022\177*\222\351\\\324\034}\373^7"
 240      A4127F2A 
 240      92E95CD4 
 240      1C7DFB5E 
ARM GAS  /tmp/ccDk4sH7.s 			page 18


 240      37
 241 030a C43E4A0C 		.ascii	"\304>J\014Dk\306p#4.\341\300\026\313\020\243\2061<n"
 241      446BC670 
 241      23342EE1 
 241      C016CB10 
 241      A386313C 
 242 031f B3003F84 		.ascii	"\263\000?\204\023\260\354\306\222\351`\253\305\304\234"
 242      13B0ECC6 
 242      92E960AB 
 242      C5C49C
 243 032e CB33B019 		.ascii	"\3133\260\031O\340\367\331\011\274#c0\247\012\354\010"
 243      4FE0F7D9 
 243      09BC2363 
 243      30A70AEC 
 243      08
 244 033f 0BF68E19 		.ascii	"\013\366\216\0310\2471\263c,Xg\306`jf'X\260\375f\300"
 244      30A731B3 
 244      632C5867 
 244      C6606A66 
 244      2758B0FD 
 245 0355 26A6728A 		.ascii	"&\246r\212\312?\312\376/\300\335t\267\335C=u\200\312"
 245      CA3FCAFE 
 245      2FC0DD74 
 245      B7DD433D 
 245      7580CA
 246 0368 83541EA2 		.ascii	"\203T\036\242\3620\225\037Py\224\312\013T^\244\362\022"
 246      F230951F 
 246      507994CA 
 246      0B545EA4 
 246      F212
 247 037a 959759FF 		.ascii	"\225\227Y\377\032\255\020;\340pvj\231\336\251#\2337"
 247      1AAD103B 
 247      E070766A 
 247      99DEA923 
 247      9B37
 248 038c 8D214BE0 		.ascii	"\215!K\340\025:\016\357\016\232\240d\251S\331\226~\347"
 248      153A0EEF 
 248      0E9AA064 
 248      A953D996 
 248      7EE7
 249 039e 1D0FB6A1 		.ascii	"\035\017\266\241H4\372\260\375p\326\346\226\310r\024"
 249      4834FAB0 
 249      FD70D6E6 
 249      96C87214 
 250 03ae 8BBD06C6 		.ascii	"\213\275\006\306\202\215t\225[\211\223\024I\200/\215"
 250      828D7495 
 250      5B899314 
 250      49802F8D 
 251 03be 3134E41A 		.ascii	"14\344\032\034Kk\026:\247\360\003+\351p\2462\3679pZ"
 251      1C4B6B16 
 251      3AA7F003 
 251      2BE970A6 
 251      32F73970 
 252 03d3 C3F27B60 		.ascii	"\303\362{`'\311\330zk\312\2506\336\371\251B/\034o\220"
 252      27C9D87A 
 252      6BCAA836 
 252      DEF9A942 
ARM GAS  /tmp/ccDk4sH7.s 			page 19


 252      2F1C6F90 
 253 03e7 0159A94D 		.ascii	"\001Y\251M\337\007\273H\263\337\240\025# \245\004\344"
 253      DF07BB48 
 253      B3DFA015 
 253      2320A504 
 253      E4
 254 03f8 462A7BFB 		.ascii	"F*{\373 \307> \306uDQ\027BvlX\014q\346-\273\225\336"
 254      20C73E20 
 254      C6754451 
 254      1742766C 
 254      580C71E6 
 255 0410 B26BA92D 		.ascii	"\262k\251-\023`\024\263\021\340M3\226!\215e7\265\226"
 255      136014B3 
 255      11E04D33 
 255      96218D65 
 255      37B596
 256 0423 7DAA6759 		.ascii	"}\252gYd\375\031GKS4\026\033o\336\260\317\324\206\311"
 256      64FD1947 
 256      4B533416 
 256      1B6FDEB0 
 256      CFD486C9 
 257 0437 B117DD85 		.ascii	"\261\027\335\205\362\332\224\330\313I\264\202\200\331"
 257      F2DA94D8 
 257      CB49B482 
 257      80D9
 258 0445 67F64DA2 		.ascii	"g\366M\242\333\303\035\032}\267-\272\373\214\011\240"
 258      DBC31D1A 
 258      7DB72DBA 
 258      FB8C09A0 
 259 0455 ED6BB64D 		.ascii	"\355k\266M\243@\377\241@_\014\012cm\024Cu\024C\273R"
 259      A340FFA1 
 259      405F0C0A 
 259      636D1443 
 259      751443BB 
 260 046a 89A9D3FE 		.ascii	"\211\251\323\376\264\272\032\027~\243\347\302\346\350"
 260      B4BA1A17 
 260      7EA3E7C2 
 260      E6E8
 261 0478 C3DE53EB 		.ascii	"\303\336S\353\340\327\315(/a\354j+\321\353W<\251\262"
 261      E0D7CD28 
 261      2F61EC6A 
 261      2BD1EB57 
 261      3CA9B2
 262 048b 2BAE65E4 		.ascii	"+\256e\344\312~\255+\277\324u\345\221\314]yO\033\243"
 262      CA7EAD2B 
 262      BFD475E5 
 262      91CC5D79 
 262      4F1BA3
 263 049e 9D705090 		.ascii	"\235pP\220\266[u,\\\2176\210e\211\314h\037\325\0300"
 263      B65B752C 
 263      5C8F3688 
 263      6589CC68 
 263      1FD51830 
 264 04b2 8CD2CE14 		.ascii	"\214\322\316\024\266\015hm\273\257k\333\376?fl\333c"
 264      B60D686D 
 264      BBAF6BDB 
 264      FE3F666C 
ARM GAS  /tmp/ccDk4sH7.s 			page 20


 264      DB63
 265 04c4 D936C51C 		.ascii	"\3316\305\034\016\034\325\330\222$\205\366 K\222\323"
 265      0E1CD5D8 
 265      922485F6 
 265      204B92D3 
 266 04d4 232DA727 		.ascii	"#-\247'\272\234\356'8\305\247\004\007.\350\217\324\227"
 266      BA9CEE27 
 266      38C5A704 
 266      072EE88F 
 266      D497
 267 04e6 3F4D46C1 		.ascii	"?MF\301U\252\201\270\241D\001i\245b\325\304\015fu#r"
 267      55AA81B8 
 267      A1440169 
 267      A562D5C4 
 267      0D667523 
 268 04fb E01CC9A1 		.ascii	"\340\034\311\241\321#\222\022i\006\013\257\026F\203"
 268      D1239212 
 268      69060BAF 
 268      164683
 269 050a B592D30E 		.ascii	"\265\222\323\016\226\000gq\372c\325\265\007\331\345"
 269      96006771 
 269      FA63D5B5 
 269      07D9E5
 270 0519 A547802B 		.ascii	"\245G\200+8}\257+\030\032\212Q|\006?\270:o3:\231\351"
 270      387DAF2B 
 270      181A8A51 
 270      7C063FB8 
 270      3A6F333A 
 271 052f 56B18A53 		.ascii	"V\261\212S\005\253\352\370\037?\321\247\330\367\376"
 271      05ABEAF8 
 271      1F3FD1A7 
 271      D8F7FE
 272 053e BAE93B64 		.ascii	"\272\351;d\337\37357\034\267\216Z\265\013\006\331OU"
 272      DFFB3537 
 272      1CB78E5A 
 272      B50B06D9 
 272      4F55
 273 0550 83ABD960 		.ascii	"\203\253\331`\325k\235\211}6\266\201\356\263k9\342\366"
 273      D56B9D89 
 273      7D36B681 
 273      EEB36B39 
 273      E2F6
 274 0562 3B83FA1B 		.ascii	";\203\372\033\302>\013\230iz%\336\\3S\357\017\212\356"
 274      C23E0B98 
 274      697A25DE 
 274      5C3353EF 
 274      0F8AEE
 275 0575 B8D286C1 		.ascii	"\270\322\206\301\201\202\275p\374_\375\257\264u\241"
 275      8182BD70 
 275      FC5FFDAF 
 275      B475A1
 276 0584 E5ABD093 		.ascii	"\345\253\320\223\330k0>_pjd\323\307\330\250\213\361"
 276      D86B303E 
 276      5F706A64 
 276      D3C7D8A8 
 276      8BF1
 277 0596 F59D2B93 		.ascii	"\365\235+\223\222\236L@\364\032@\274\251\206\220\277"
ARM GAS  /tmp/ccDk4sH7.s 			page 21


 277      929E4C40 
 277      F41A40BC 
 277      A98690BF 
 278 05a6 77A43A56 		.ascii	"w\244:V\010\360\014M\247\322e\376\364P\325d\372PE~\235"
 278      08F00C4D 
 278      A7D265FE 
 278      F450D564 
 278      FA50457E 
 279 05bb A2B9D679 		.ascii	"\242\271\326y6\327\322\004\024\311L\214\260\266p\311"
 279      36D7D204 
 279      14C94C8C 
 279      B0B670C9 
 280 05cb 70D1FB42 		.ascii	"p\321\373B\224\234\325\253\231M\353\315/\356\377\022"
 280      949CD5AB 
 280      994DEBCD 
 280      2FEEFF12 
 281 05db 9B8B5FB4 		.ascii	"\233\213_\264s\344\343\323\332,\3650\245\007\"=o\343"
 281      73E4E3D3 
 281      DA2CF530 
 281      A507223D 
 281      6FE3
 282 05ed 3447C375 		.ascii	"4G\303u}\364[\023y\236\346l\330\272,\262\261\257U\375"
 282      7DF45B13 
 282      799EE66C 
 282      D8BA2CB2 
 282      B1AF55FD 
 283 0601 AD29F23F 		.ascii	"\255)\362?\371p\324FM!\024\206p4&_$\372\230\344|[\306"
 283      F970D446 
 283      4D211486 
 283      7034265F 
 283      24FA98E4 
 284 0618 604E1558 		.ascii	"`N\025X\033\013\266\323\014X\212\017/[X\260=\031\203"
 284      1B0BB6D3 
 284      0C588A0F 
 284      2F5B58B0 
 284      3D1983
 285 062b A9996D65 		.ascii	"\251\231me\301~o\006,\305\207\227m,XW\306`,\263\246"
 285      C17E6F06 
 285      2CC58797 
 285      6D2C5857 
 285      C6602CB3 
 286 0640 C8FEB9FB 		.ascii	"\310\376\271\373\347\215\004-4\376\332r\345\350H\225"
 286      E78D042D 
 286      34FEDA72 
 286      E5E84895 
 287 0650 8809F073 		.ascii	"\210\011\360s\032\035i\222%\271\351\274DS\007\355T\351"
 287      1A1D6992 
 287      25B9E9BC 
 287      445307ED 
 287      54E9
 288 0662 29BEE3E9 		.ascii	")\276\343\351k\011p?7RY)Prb:\214\267\261\003\234=i\244"
 288      6B09703F 
 288      37525929 
 288      5072623A 
 288      8CB7B103 
 289 067a C3AE54D8 		.ascii	"\303\256T\330\305]\321\302\003\367\236v\340T$\322\237"
 289      C55DD1C2 
ARM GAS  /tmp/ccDk4sH7.s 			page 22


 289      03F79E76 
 289      E05424D2 
 289      9F
 290 068b 9EBB582F 		.ascii	"\236\273X/\0341\343\005\247q|\274\313\202E\314\200\351"
 290      1C31E305 
 290      A7717CBC 
 290      CB8245CC 
 290      80E9
 291 069d 9D5165B0 		.ascii	"\235Qe\260\367X\260\323\031\203\251\231\275\317\202"
 291      F758B0D3 
 291      1983A999 
 291      BDCF82
 292 06ac 9D330336 		.ascii	"\2353\0036\305\230\331\021\026\254'c05\263c,\330\307"
 292      C598D911 
 292      16AC2763 
 292      3035B363 
 292      2CD8C7
 293 06bf 66C0A619 		.ascii	"f\300\246\0313;\301\202]\315\030\214a\326\332\024\271"
 293      333BC182 
 293      5DCD188C 
 293      61D6DA14 
 293      B9
 294 06d0 30B74590 		.ascii	"0\267E\220#\275c:\211\333\035\\2p\247\253W\013\225Z"
 294      23BD633A 
 294      89DB1D5C 
 294      3270A7AB 
 294      570B955A 
 295 06e4 27345213 		.ascii	"'4R\023\340\0372\236\021\247\014f\004{\352Q\264\260"
 295      E01F329E 
 295      11A70C66 
 295      047BEA51 
 295      B4B0
 296 06f6 D9D7B566 		.ascii	"\331\327\265f\253H\310\325\351\006c\210\267\230\213"
 296      AB48C8D5 
 296      E9066388 
 296      B7988B
 297 0705 F131DC41 		.ascii	"\3611\334A\023\237[f\306\260\314\030\354\022\013v;c"
 297      139F5B66 
 297      C6B0CC18 
 297      EC120B76 
 297      3B63
 298 0717 30B5432E 		.ascii	"0\265C.+\016qj\374\201\240z\221d\325\030\177h\325p\002"
 298      2B0E716A 
 298      FC81A07A 
 298      9164D518 
 298      7F68D570 
 299 072c 91B143FE 		.ascii	"\221\261C\376l\340\020\366k\247\242E\222G\255\331j\026"
 299      6CE010F6 
 299      6BA7A245 
 299      9247ADD9 
 299      6A16
 300 073e 72D56334 		.ascii	"r\325c4\210M\221+\306vw$\241F\247\262[\253&\300\277"
 300      884D912B 
 300      C6767724 
 300      A146A7B2 
 300      5BAB26C0 
 301 0753 646CF745 		.ascii	"dl\367E\003\273\223\207\005\225\026\266\373\256\326"
ARM GAS  /tmp/ccDk4sH7.s 			page 23


 301      03BB9387 
 301      059516B6 
 301      FBAED6
 302 0762 6E350BB9 		.ascii	"n5\013\271:\317\300n\234\031]\235Kb\2070\345\300\200"
 302      3ACFC06E 
 302      9C195D9D 
 302      4B628730 
 302      E5C080
 303 0775 29B04683 		.ascii	")\260F\203\340\301K\3035vi\210\231\211\304\327\241\016"
 303      E0C14BC3 
 303      35766988 
 303      9989C4D7 
 303      A10E
 304 0787 35BD8B4D 		.ascii	"5\275\213M\352\004\270\235#\373j\007G\322\323\235T\356"
 304      EA04B89D 
 304      23FB6A07 
 304      47D2D39D 
 304      54EE
 305 0799 A2723795 		.ascii	"\242r7\225{\251\354\244r\037\225\007\251<D\345a*?\240"
 305      7BA9ECA4 
 305      721F9507 
 305      A93C44E5 
 305      612A3FA0 
 306 07ad F22895C7 		.ascii	"\362(\225\307\251\374\220\312n*\317Py\226\312sT\366"
 306      A9FC90CA 
 306      6E2ACF50 
 306      7996CA73 
 306      54F6
 307 07bf 507989CA 		.ascii	"Py\211\312\313\234qB\334n`/=\220(\0111"
 307      CB9C7142 
 307      DC6E602F 
 307      3D902809 
 307      31
 308 07d0 FD1E7837 		.ascii	"\375\036x7\332\376 \022\374w\027B\364x\321\264|B\342"
 308      DAFE2012 
 308      FC771742 
 308      F478D1B4 
 308      7C42E2
 309 07e3 7470289B 		.ascii	"tp(\233M{\351\211\006\237\313\263\223\353\221\336\201"
 309      4D7BE989 
 309      069FCBB3 
 309      93EB91DE 
 309      81
 310 07f4 FC13EDD1 		.ascii	"\374\023\355\321\367\252\372(\221\374S\205IfU\313\226"
 310      F7AAFA28 
 310      91FC5385 
 310      496655CB 
 310      96
 311 0805 9C821F7C 		.ascii	"\234\202\037|r\367W\361\024\274\217\246\340\217U\\L"
 311      72F757F1 
 311      14BC8FA6 
 311      E08F555C 
 311      4C
 312 0816 E090BE6F 		.ascii	"\340\220\276oh3\360\217\257\323\014\374F\372\014\034"
 312      6833F08F 
 312      AFD30CFC 
 312      46FA0C1C 
ARM GAS  /tmp/ccDk4sH7.s 			page 24


 313 0826 C7D127D7 		.ascii	"\307\321'\327[\345\177\225\342\241\264*\007\312\230"
 313      5BE57F95 
 313      E2A1B42A 
 313      07CA98
 314 0835 434B9DAF 		.ascii	"CK\235\257^g\342ru\306`\316Tay\203\011\313\2334,o\321"
 314      5E67E272 
 314      75C660CE 
 314      54617983 
 314      09CB9B34 
 315 084c 20F93445 		.ascii	" \3714E\220\364\245\010\222\333J\220hZ=Nq\326\3527l"
 315      90F4A508 
 315      92DB4A90 
 315      685A3D4E 
 315      71D6EA37 
 316 0861 453E0818 		.ascii	"E>\010\030\265\372Li\005\012\363\363]\305\265\201\371"
 316      B5FA4C69 
 316      050AF3F3 
 316      5DC5B581 
 316      F9
 317 0872 812AAFAB 		.ascii	"\201*\257\253!\354\252\025\352\\\215\015!)\354\362V"
 317      21ECAA15 
 317      EA5C8D0D 
 317      2129ECF2 
 317      56
 318 0883 571616B8 		.ascii	"W\026\026\270**\334\256\227=\345U\277(p5\012u\276\272"
 318      2A2ADCAE 
 318      973DE555 
 318      BF287035 
 318      0A75BEBA 
 319 0897 BA9AFC5A 		.ascii	"\272\232\374Z\340\010K\365\205\005\276\205\215\201\006"
 319      E0084BF5 
 319      8505BE85 
 319      8D8106
 320 08a6 9F94F5F2 		.ascii	"\237\224\365\362\2533\235\305 \354\012.\240\345\207"
 320      AB339DC5 
 320      20EC0A2E 
 320      A0E587
 321 08b5 AEDA867A 		.ascii	"\256\332\206z\321\025\022\303\242\020\362\327b\304P"
 321      D11512C3 
 321      A210F2D7 
 321      62C450
 322 08c4 CD622124 		.ascii	"\315b!$\272\204P}\201k\241\337?\031W&\213\365\363\305"
 322      BA84507D 
 322      816BA1DF 
 322      3F195726 
 322      8BF5F3C5 
 323 08d8 9A1AB126 		.ascii	"\232\032\261&\371 \330\020\024'\213\302\374\300\344"
 323      F920D810 
 323      14278BC2 
 323      FCC0E4
 324 08e7 A9BE6993 		.ascii	"\251\276i\223\013\246\2740\365\347\005.\325\013W \350"
 324      0BA6BC30 
 324      F5E7052E 
 324      D50B5720 
 324      E8
 325 08f8 AF5B5423 		.ascii	"\257[T#\272\302RM (a\0369\213\360\035\023\221\226\301"
 325      BAC2524D 
ARM GAS  /tmp/ccDk4sH7.s 			page 25


 325      2028611E 
 325      398BF01D 
 325      139196C1 
 326 090c FF5FEFF5 		.ascii	"\377_\357\365\202\2776\020\024]\276\032q\201\260\250"
 326      82BF3610 
 326      145DBE1A 
 326      7181B0A8 
 327 091c 4EF2494B 		.ascii	"N\362IK\033\3050f3\314\347K\360\261UV\271K\370\254\252"
 327      1BC53066 
 327      33CCE74B 
 327      F0B15556 
 327      B94BF8AC 
 328 0931 EA399E12 		.ascii	"\3529\236\022>\273\312\353))q\3636\317L\217\233\267"
 328      3EBBCAEB 
 328      292971F3 
 328      36CF4C8F 
 328      9BB7
 329 0943 94E352E5 		.ascii	"\224\343R\345\346\341l\312\376\205\027}\222\334\220"
 329      E6E16CCA 
 329      FE85177D 
 329      92DC90
 330 0952 542D6151 		.ascii	"T-aQ\262\371\3530wXf\235\341\345ykE\361\217ykQ)_AD\231"
 330      B2F9EB30 
 330      7758669D 
 330      E1E5796B 
 330      45F18F79 
 331 096d 6506CFE7 		.ascii	"e\006\317\347\004\032\352\033jD\237\224]/\004\202\371"
 331      041AEA1B 
 331      6A449F94 
 331      5D2F0482 
 331      F9
 332 097e 7E3092FC 		.ascii	"~0\222\374\014/\016H\376\332\374F!$\345O\261\222'\303"
 332      0C2F0E48 
 332      FEDAFC46 
 332      2124E54F 
 332      B19227C3 
 333 0992 94C7D904 		.ascii	"\224\307\331\004\177\232O\262\307{\302\265Q\236\331"
 333      7F9A4FB2 
 333      C77BC2B5 
 333      519ED9
 334 09a1 BCAF2428 		.ascii	"\274\257$(\211!o\235(6Vb\325\\\362\310[QR\342\301\317"
 334      89216F9D 
 334      28365662 
 334      D55CF2C8 
 334      5B5152E2 
 335 09b7 434B472A 		.ascii	"CKG*\032\325U\036\242\360\024y\302\213\013\027\325\011"
 335      1AD5551E 
 335      A2F01479 
 335      C28B0B17 
 335      D509
 336 09c9 52436834 		.ascii	"RCh4\363\276\350U\367\2149D\305\216\371\373\302\222"
 336      F3BEE855 
 336      F78C3944 
 336      C58EF9FB 
 336      C292
 337 09db 2089362A 		.ascii	" \2116*\207\005\032H4\005j|\222#^\255\027\302?\363I"
 337      87051A48 
ARM GAS  /tmp/ccDk4sH7.s 			page 26


 337      34056A7C 
 337      92235EAD 
 337      17C23FF3 
 338 09f0 637C7234 		.ascii	"c|r4\371p\203\205\241\206E\215\204\354\004u,\206\244"
 338      F9708385 
 338      A186458D 
 338      84EC0475 
 338      2C86A4
 339 0a03 E4A0FB6B 		.ascii	"\344\240\373k\303K\311\030\333\375\265\336\245\341\362"
 339      C34BC918 
 339      DBFDB5DE 
 339      A5E1F2
 340 0a12 6040720E 		.ascii	"`@r\016\216\333\2042\256c\325l|#\212\223\324\212\342"
 340      8EDB8432 
 340      AE63D56C 
 340      7C238A93 
 340      D48AE2
 341 0a25 12C9555C 		.ascii	"\022\311U\\\351-\367*\330\015!\321\347\257\237J\002"
 341      E92DF72A 
 341      D80D21D1 
 341      E7AF9F4A 
 341      02
 342 0a36 CA5B3CC3 		.ascii	"\312[<\303W\215\375i+\366\314,w[\313\213\275\274uVu"
 342      578DFD69 
 342      2BF6CC2C 
 342      775BCB8B 
 342      BDBC7556 
 343 0a4b 156F2B2A 		.ascii	"\025o+*\347\213y\213\027\227br/\363\330\274e\344eq)"
 343      E78B798B 
 343      17976272 
 343      2FF3D8BC 
 343      65E46571 
 344 0a60 166544B8 		.ascii	"\026eD\270\261\260UV\226\026\361\326\031D\024\341\337"
 344      B1B05556 
 344      9616F1D6 
 344      194414E1 
 344      DF
 345 0a71 164F296F 		.ascii	"\026O)oq\343R\344\346\255\370\035o-\367\026\361v\276"
 345      71E352E4 
 345      E6ADF81D 
 345      6F2DF716 
 345      F176BE
 346 0a84 C45BC2CF 		.ascii	"\304[\302\317*qO\301\335\024\025\363.\223\014\313\203"
 346      2A714FC1 
 346      DD1415F3 
 346      2E930CCB 
 346      83
 347 0a95 61298459 		.ascii	"a)\204Y\332|\276\331\245\345O\011u\213\205\245a_ X\207"
 347      DA7CBED9 
 347      A5E54F09 
 347      758B85A5 
 347      615F2058 
 348 0aaa C3B1D008 		.ascii	"\303\261\320\010\303[\035\237\311\245\205K\226\270\350"
 348      C35B1D9F 
 348      C9A5854B 
 348      96B8E8
 349 0ab9 BC5D5038 		.ascii	"\274]P8\245p\211\037\343\014'\036$\326\272\305\005\034"
ARM GAS  /tmp/ccDk4sH7.s 			page 27


 349      A570891F 
 349      E30C271E 
 349      24D6BAC5 
 349      051C
 350 0acb B1CCCBFF 		.ascii	"\261\314\313\377\027\016\345\031\215"
 350      170EE519 
 350      8D
 351              		.text
 352              		.section	.gnu.lto_.symtab.d6cdc284b84e4190,"",%progbits
 353 0000 6D6F6465 		.ascii	"modeswitch\000\000\000\000\000\000\000\000\000\000\000"
 353      73776974 
 353      63680000 
 353      00000000 
 353      00000000 
 354 0015 00E20000 		.ascii	"\000\342\000\000\000PWR_EnterSleepMode\000\000\000\000"
 354      00505752 
 354      5F456E74 
 354      6572536C 
 354      6565704D 
 355 0030 00000000 		.ascii	"\000\000\000\000\000\000\000\000\350\000\000\000PWR"
 355      00000000 
 355      E8000000 
 355      505752
 356 003f 5F456E74 		.ascii	"_EnterSTOPMode\000\000\000\000\000\000\000\000\000\000"
 356      65725354 
 356      4F504D6F 
 356      64650000 
 356      00000000 
 357 0057 0000F500 		.ascii	"\000\000\365\000\000\000PWR_EnterSTANDBYMode\000\000"
 357      00005057 
 357      525F456E 
 357      74657253 
 357      54414E44 
 358 0073 00000000 		.ascii	"\000\000\000\000\000\000\000\000\000\000\374\000\000"
 358      00000000 
 358      0000FC00 
 358      00
 359 0080 00736574 		.ascii	"\000set_state\000\000\000\000\000\000\000\000\000\000"
 359      5F737461 
 359      74650000 
 359      00000000 
 359      00000000 
 360 0094 00000001 		.ascii	"\000\000\000\001\000\000main\000\000\000\000\000\000"
 360      00006D61 
 360      696E0000 
 360      00000000 
 361 00a4 00000000 		.ascii	"\000\000\000\000\000\000\005\001\000\000_pal_lld_se"
 361      00000501 
 361      00005F70 
 361      616C5F6C 
 361      6C645F73 
 362 00b9 7467726F 		.ascii	"tgroupmode\000\000\002\000\000\000\000\000\000\000\000"
 362      75706D6F 
 362      64650000 
 362      02000000 
 362      00000000 
 363 00ce 00080100 		.ascii	"\000\010\001\000\000chSysInit\000\000\002\000\000\000"
ARM GAS  /tmp/ccDk4sH7.s 			page 28


 363      00636853 
 363      7973496E 
 363      69740000 
 363      02000000 
 364 00e2 00000000 		.ascii	"\000\000\000\000\000\000\024\001\000\000halInit\000"
 364      00001401 
 364      00006861 
 364      6C496E69 
 364      7400
 365 00f4 00020000 		.ascii	"\000\002\000\000\000\000\000\000\000\000\000\026\001"
 365      00000000 
 365      00000016 
 365      01
 366 0101 0000     		.ascii	"\000\000"
 367              		.text
 368              		.section	.gnu.lto_.opts,"",%progbits
 369 0000 272D6D63 		.ascii	"'-mcpu=cortex-m4' '-mno-thumb-interwork' '-mthumb' "
 369      70753D63 
 369      6F727465 
 369      782D6D34 
 369      2720272D 
 370 0033 272D6767 		.ascii	"'-ggdb' '-O2' '-fomit-frame-pointer' '-falign-funct"
 370      64622720 
 370      272D4F32 
 370      2720272D 
 370      666F6D69 
 371 0066 696F6E73 		.ascii	"ions=16' '-ffunction-sections' '-fdata-sections' '-"
 371      3D313627 
 371      20272D66 
 371      66756E63 
 371      74696F6E 
 372 0099 666E6F2D 		.ascii	"fno-common' '-flto'\000"
 372      636F6D6D 
 372      6F6E2720 
 372      272D666C 
 372      746F2700 
 373              		.text
 374              		.cfi_sections	.debug_frame
 375              		.section	.text.modeswitch,"ax",%progbits
 376              		.align	2
 377              		.p2align 4,,15
 378              		.global	modeswitch
 379              		.thumb
 380              		.thumb_func
 381              		.type	modeswitch, %function
 382              	modeswitch:
 383              	.LFB272:
 384              		.file 1 "main.c"
 385              		.loc 1 54 0
 386              		.cfi_startproc
 387              		@ args = 0, pretend = 0, frame = 0
 388              		@ frame_needed = 0, uses_anonymous_args = 0
 389              		@ link register save eliminated.
 390              	.LVL0:
 391              		.loc 1 55 0
 392 0000 50B1     		cbz	r0, .L5
 393              	.LVL1:
ARM GAS  /tmp/ccDk4sH7.s 			page 29


 394              	.LBB10:
 395              	.LBB11:
 396              		.loc 1 59 0
 397 0002 0128     		cmp	r0, #1
 398 0004 00D0     		beq	.L6
 399 0006 7047     		bx	lr
 400              	.L6:
 401              		.loc 1 60 0
 402 0008 074B     		ldr	r3, .L7
 403 000a 4FF48041 		mov	r1, #16384
 404              		.loc 1 61 0
 405 000e 4FF40042 		mov	r2, #32768
 406              		.loc 1 60 0
 407 0012 5983     		strh	r1, [r3, #26]	@ movhi
 408              		.loc 1 61 0
 409 0014 1A83     		strh	r2, [r3, #24]	@ movhi
 410 0016 7047     		bx	lr
 411              	.LVL2:
 412              	.L5:
 413              	.LBE11:
 414              	.LBE10:
 415              		.loc 1 56 0
 416 0018 034B     		ldr	r3, .L7
 417 001a 4FF48041 		mov	r1, #16384
 418              		.loc 1 57 0
 419 001e 4FF40042 		mov	r2, #32768
 420              		.loc 1 56 0
 421 0022 5983     		strh	r1, [r3, #26]	@ movhi
 422              		.loc 1 57 0
 423 0024 5A83     		strh	r2, [r3, #26]	@ movhi
 424 0026 7047     		bx	lr
 425              	.L8:
 426              		.align	2
 427              	.L7:
 428 0028 000C0048 		.word	1207962624
 429              		.cfi_endproc
 430              	.LFE272:
 431              		.size	modeswitch, .-modeswitch
 432 002c AFF30080 		.section	.text.PWR_EnterSleepMode,"ax",%progbits
 433              		.align	2
 434              		.p2align 4,,15
 435              		.global	PWR_EnterSleepMode
 436              		.thumb
 437              		.thumb_func
 438              		.type	PWR_EnterSleepMode, %function
 439              	PWR_EnterSleepMode:
 440              	.LFB273:
 441              		.loc 1 66 0
 442              		.cfi_startproc
 443              		@ args = 0, pretend = 0, frame = 0
 444              		@ frame_needed = 0, uses_anonymous_args = 0
 445              		@ link register save eliminated.
 446              	.LVL3:
 447              		.loc 1 71 0
 448 0000 034B     		ldr	r3, .L10
 449 0002 1A69     		ldr	r2, [r3, #16]
 450 0004 22F00402 		bic	r2, r2, #4
ARM GAS  /tmp/ccDk4sH7.s 			page 30


 451 0008 1A61     		str	r2, [r3, #16]
 452              	.LBB12:
 453              	.LBB13:
 454              		.file 2 "../ChibiOS/os/ext/CMSIS/include/core_cmInstr.h"
 455              		.loc 2 434 0
 456              	@ 434 "../ChibiOS/os/ext/CMSIS/include/core_cmInstr.h" 1
 457 000a 30BF     		wfi
 458              	@ 0 "" 2
 459              		.thumb
 460 000c 7047     		bx	lr
 461              	.L11:
 462 000e 00BF     		.align	2
 463              	.L10:
 464 0010 00ED00E0 		.word	-536810240
 465              	.LBE13:
 466              	.LBE12:
 467              		.cfi_endproc
 468              	.LFE273:
 469              		.size	PWR_EnterSleepMode, .-PWR_EnterSleepMode
 470 0014 AFF30080 		.section	.text.PWR_EnterSTOPMode,"ax",%progbits
 470      AFF30080 
 470      AFF30080 
 471              		.align	2
 472              		.p2align 4,,15
 473              		.global	PWR_EnterSTOPMode
 474              		.thumb
 475              		.thumb_func
 476              		.type	PWR_EnterSTOPMode, %function
 477              	PWR_EnterSTOPMode:
 478              	.LFB274:
 479              		.loc 1 78 0
 480              		.cfi_startproc
 481              		@ args = 0, pretend = 0, frame = 0
 482              		@ frame_needed = 0, uses_anonymous_args = 0
 483              		@ link register save eliminated.
 484              	.LVL4:
 485              		.loc 1 86 0
 486 0000 084A     		ldr	r2, .L13
 487              		.loc 1 97 0
 488 0002 094B     		ldr	r3, .L13+4
 489              		.loc 1 86 0
 490 0004 1168     		ldr	r1, [r2]
 491              	.LVL5:
 492              		.loc 1 88 0
 493 0006 21F00301 		bic	r1, r1, #3
 494              	.LVL6:
 495              		.loc 1 91 0
 496 000a 0843     		orrs	r0, r0, r1
 497              	.LVL7:
 498              		.loc 1 94 0
 499 000c 1060     		str	r0, [r2]
 500              		.loc 1 97 0
 501 000e 1A69     		ldr	r2, [r3, #16]
 502 0010 42F00402 		orr	r2, r2, #4
 503 0014 1A61     		str	r2, [r3, #16]
 504              	.LBB14:
 505              	.LBB15:
ARM GAS  /tmp/ccDk4sH7.s 			page 31


 506              		.loc 2 434 0
 507              	@ 434 "../ChibiOS/os/ext/CMSIS/include/core_cmInstr.h" 1
 508 0016 30BF     		wfi
 509              	@ 0 "" 2
 510              		.thumb
 511              	.LBE15:
 512              	.LBE14:
 513              		.loc 1 101 0
 514 0018 1A69     		ldr	r2, [r3, #16]
 515 001a 22F00402 		bic	r2, r2, #4
 516 001e 1A61     		str	r2, [r3, #16]
 517 0020 7047     		bx	lr
 518              	.L14:
 519 0022 00BF     		.align	2
 520              	.L13:
 521 0024 00700040 		.word	1073770496
 522 0028 00ED00E0 		.word	-536810240
 523              		.cfi_endproc
 524              	.LFE274:
 525              		.size	PWR_EnterSTOPMode, .-PWR_EnterSTOPMode
 526 002c AFF30080 		.section	.text.PWR_EnterSTANDBYMode,"ax",%progbits
 527              		.align	2
 528              		.p2align 4,,15
 529              		.global	PWR_EnterSTANDBYMode
 530              		.thumb
 531              		.thumb_func
 532              		.type	PWR_EnterSTANDBYMode, %function
 533              	PWR_EnterSTANDBYMode:
 534              	.LFB275:
 535              		.loc 1 105 0
 536              		.cfi_startproc
 537              		@ args = 0, pretend = 0, frame = 0
 538              		@ frame_needed = 0, uses_anonymous_args = 0
 539              		@ link register save eliminated.
 540              		.loc 1 107 0
 541 0000 074B     		ldr	r3, .L16
 542              		.loc 1 113 0
 543 0002 084A     		ldr	r2, .L16+4
 544              		.loc 1 107 0
 545 0004 1968     		ldr	r1, [r3]
 546 0006 41F00401 		orr	r1, r1, #4
 547 000a 1960     		str	r1, [r3]
 548              		.loc 1 110 0
 549 000c 1968     		ldr	r1, [r3]
 550 000e 41F00201 		orr	r1, r1, #2
 551 0012 1960     		str	r1, [r3]
 552              		.loc 1 113 0
 553 0014 1369     		ldr	r3, [r2, #16]
 554 0016 43F00403 		orr	r3, r3, #4
 555 001a 1361     		str	r3, [r2, #16]
 556              	.LBB16:
 557              	.LBB17:
 558              		.loc 2 434 0
 559              	@ 434 "../ChibiOS/os/ext/CMSIS/include/core_cmInstr.h" 1
 560 001c 30BF     		wfi
 561              	@ 0 "" 2
 562              		.thumb
ARM GAS  /tmp/ccDk4sH7.s 			page 32


 563 001e 7047     		bx	lr
 564              	.L17:
 565              		.align	2
 566              	.L16:
 567 0020 00700040 		.word	1073770496
 568 0024 00ED00E0 		.word	-536810240
 569              	.LBE17:
 570              	.LBE16:
 571              		.cfi_endproc
 572              	.LFE275:
 573              		.size	PWR_EnterSTANDBYMode, .-PWR_EnterSTANDBYMode
 574 0028 AFF30080 		.section	.text.set_state,"ax",%progbits
 574      AFF30080 
 575              		.align	2
 576              		.p2align 4,,15
 577              		.global	set_state
 578              		.thumb
 579              		.thumb_func
 580              		.type	set_state, %function
 581              	set_state:
 582              	.LFB276:
 583              		.loc 1 124 0
 584              		.cfi_startproc
 585              		@ args = 0, pretend = 0, frame = 0
 586              		@ frame_needed = 0, uses_anonymous_args = 0
 587              		@ link register save eliminated.
 588              	.LVL8:
 589              		.loc 1 127 0
 590 0000 0B49     		ldr	r1, .L24
 591              		.loc 1 124 0
 592 0002 10B4     		push	{r4}
 593              		.cfi_def_cfa_offset 4
 594              		.cfi_offset 4, -4
 595              		.loc 1 124 0
 596 0004 0B23     		movs	r3, #11
 597              		.loc 1 127 0
 598 0006 0124     		movs	r4, #1
 599              	.LVL9:
 600              	.L22:
 601 0008 A3F10B02 		sub	r2, r3, #11
 602              	.LVL10:
 603 000c 40FA02F2 		asr	r2, r0, r2
 604              	.LVL11:
 605 0010 12F0010F 		tst	r2, #1
 606 0014 04FA03F2 		lsl	r2, r4, r3
 607 0018 92B2     		uxth	r2, r2
 608 001a 03F10103 		add	r3, r3, #1
 609              	.LVL12:
 610 001e 14BF     		ite	ne
 611 0020 0A83     		strhne	r2, [r1, #24]	@ movhi
 612 0022 4A83     		strheq	r2, [r1, #26]	@ movhi
 613              	.LVL13:
 614              		.loc 1 126 0
 615 0024 102B     		cmp	r3, #16
 616 0026 EFD1     		bne	.L22
 617              		.loc 1 133 0
 618 0028 5DF8044B 		ldr	r4, [sp], #4
ARM GAS  /tmp/ccDk4sH7.s 			page 33


 619 002c 7047     		bx	lr
 620              	.L25:
 621 002e 00BF     		.align	2
 622              	.L24:
 623 0030 000C0048 		.word	1207962624
 624              		.cfi_endproc
 625              	.LFE276:
 626              		.size	set_state, .-set_state
 627 0034 AFF30080 		.section	.text.startup.main,"ax",%progbits
 627      AFF30080 
 627      AFF30080 
 628              		.align	2
 629              		.p2align 4,,15
 630              		.global	main
 631              		.thumb
 632              		.thumb_func
 633              		.type	main, %function
 634              	main:
 635              	.LFB277:
 636              		.loc 1 136 0
 637              		.cfi_startproc
 638              		@ Volatile: function does not return.
 639              		@ args = 0, pretend = 0, frame = 0
 640              		@ frame_needed = 0, uses_anonymous_args = 0
 641 0000 08B5     		push	{r3, lr}
 642              		.cfi_def_cfa_offset 8
 643              		.cfi_offset 3, -8
 644              		.cfi_offset 14, -4
 645              		.loc 1 151 0
 646 0002 FFF7FEFF 		bl	halInit
 647              	.LVL14:
 648              		.loc 1 152 0
 649 0006 FFF7FEFF 		bl	chSysInit
 650              	.LVL15:
 651              		.loc 1 154 0
 652 000a 0F48     		ldr	r0, .L28
 653 000c 4FF40061 		mov	r1, #2048
 654 0010 0122     		movs	r2, #1
 655 0012 FFF7FEFF 		bl	_pal_lld_setgroupmode
 656              	.LVL16:
 657              		.loc 1 155 0
 658 0016 0C48     		ldr	r0, .L28
 659 0018 4FF48051 		mov	r1, #4096
 660 001c 0122     		movs	r2, #1
 661 001e FFF7FEFF 		bl	_pal_lld_setgroupmode
 662              	.LVL17:
 663              		.loc 1 156 0
 664 0022 0948     		ldr	r0, .L28
 665 0024 4FF40051 		mov	r1, #8192
 666 0028 0122     		movs	r2, #1
 667 002a FFF7FEFF 		bl	_pal_lld_setgroupmode
 668              	.LVL18:
 669              		.loc 1 157 0
 670 002e 0648     		ldr	r0, .L28
 671 0030 4FF48041 		mov	r1, #16384
 672 0034 0122     		movs	r2, #1
 673 0036 FFF7FEFF 		bl	_pal_lld_setgroupmode
ARM GAS  /tmp/ccDk4sH7.s 			page 34


 674              	.LVL19:
 675              		.loc 1 158 0
 676 003a 0348     		ldr	r0, .L28
 677 003c 4FF40041 		mov	r1, #32768
 678 0040 0122     		movs	r2, #1
 679 0042 FFF7FEFF 		bl	_pal_lld_setgroupmode
 680              	.LVL20:
 681              	.L27:
 682 0046 FEE7     		b	.L27
 683              	.L29:
 684              		.align	2
 685              	.L28:
 686 0048 000C0048 		.word	1207962624
 687              		.cfi_endproc
 688              	.LFE277:
 689              		.size	main, .-main
 690 004c AFF30080 		.text
 691              	.Letext0:
 692              		.file 3 "/nfs/nfs5/home/research/hardware/arm2/gcc-arm-embedded/gcc-arm-none-eabi-4_8-2014q2/arm-n
 693              		.file 4 "/nfs/nfs5/home/research/hardware/arm2/gcc-arm-embedded/gcc-arm-none-eabi-4_8-2014q2/arm-n
 694              		.file 5 "../ChibiOS/os/rt/ports/ARMCMx/compilers/GCC/chtypes.h"
 695              		.file 6 "../ChibiOS/os/rt/include/chsystypes.h"
 696              		.file 7 "../ChibiOS/os/rt/include/chschd.h"
 697              		.file 8 "../ChibiOS/os/ext/CMSIS/include/core_cm4.h"
 698              		.file 9 "../ChibiOS/os/ext/CMSIS/ST/STM32F3xx/stm32f303xc.h"
 699              		.file 10 "../ChibiOS/os/rt/ports/ARMCMx/chcore.h"
 700              		.file 11 "../ChibiOS/os/rt/ports/ARMCMx/chcore_v7m.h"
 701              		.file 12 "../ChibiOS/os/rt/include/chtm.h"
 702              		.file 13 "../ChibiOS/os/rt/include/chsem.h"
 703              		.file 14 "../ChibiOS/os/rt/include/chmtx.h"
 704              		.file 15 "../ChibiOS/os/hal/ports/STM32/LLD/GPIOv2/pal_lld.h"
 705              		.file 16 "../ChibiOS/os/hal/include/hal.h"
 706              		.file 17 "../ChibiOS/os/rt/include/chsys.h"
 707              		.section	.debug_info,"",%progbits
 708              	.Ldebug_info0:
 709 0000 280B0000 		.4byte	0xb28
 710 0004 0400     		.2byte	0x4
 711 0006 00000000 		.4byte	.Ldebug_abbrev0
 712 000a 04       		.byte	0x4
 713 000b 01       		.uleb128 0x1
 714 000c B4050000 		.4byte	.LASF145
 715 0010 01       		.byte	0x1
 716 0011 54020000 		.4byte	.LASF146
 717 0015 9A040000 		.4byte	.LASF147
 718 0019 00000000 		.4byte	.Ldebug_ranges0+0
 719 001d 00000000 		.4byte	0
 720 0021 00000000 		.4byte	.Ldebug_line0
 721 0025 02       		.uleb128 0x2
 722 0026 04       		.byte	0x4
 723 0027 05       		.byte	0x5
 724 0028 696E7400 		.ascii	"int\000"
 725 002c 03       		.uleb128 0x3
 726 002d 04       		.byte	0x4
 727 002e 07       		.byte	0x7
 728 002f C8010000 		.4byte	.LASF0
 729 0033 03       		.uleb128 0x3
 730 0034 01       		.byte	0x1
ARM GAS  /tmp/ccDk4sH7.s 			page 35


 731 0035 06       		.byte	0x6
 732 0036 EA000000 		.4byte	.LASF1
 733 003a 04       		.uleb128 0x4
 734 003b 23000000 		.4byte	.LASF4
 735 003f 03       		.byte	0x3
 736 0040 1C       		.byte	0x1c
 737 0041 45000000 		.4byte	0x45
 738 0045 03       		.uleb128 0x3
 739 0046 01       		.byte	0x1
 740 0047 08       		.byte	0x8
 741 0048 96030000 		.4byte	.LASF2
 742 004c 03       		.uleb128 0x3
 743 004d 02       		.byte	0x2
 744 004e 05       		.byte	0x5
 745 004f D4030000 		.4byte	.LASF3
 746 0053 04       		.uleb128 0x4
 747 0054 D7040000 		.4byte	.LASF5
 748 0058 03       		.byte	0x3
 749 0059 26       		.byte	0x26
 750 005a 5E000000 		.4byte	0x5e
 751 005e 03       		.uleb128 0x3
 752 005f 02       		.byte	0x2
 753 0060 07       		.byte	0x7
 754 0061 11040000 		.4byte	.LASF6
 755 0065 04       		.uleb128 0x4
 756 0066 7D020000 		.4byte	.LASF7
 757 006a 03       		.byte	0x3
 758 006b 37       		.byte	0x37
 759 006c 70000000 		.4byte	0x70
 760 0070 03       		.uleb128 0x3
 761 0071 04       		.byte	0x4
 762 0072 05       		.byte	0x5
 763 0073 47010000 		.4byte	.LASF8
 764 0077 04       		.uleb128 0x4
 765 0078 25050000 		.4byte	.LASF9
 766 007c 03       		.byte	0x3
 767 007d 38       		.byte	0x38
 768 007e 82000000 		.4byte	0x82
 769 0082 03       		.uleb128 0x3
 770 0083 04       		.byte	0x4
 771 0084 07       		.byte	0x7
 772 0085 88040000 		.4byte	.LASF10
 773 0089 03       		.uleb128 0x3
 774 008a 08       		.byte	0x8
 775 008b 05       		.byte	0x5
 776 008c DC000000 		.4byte	.LASF11
 777 0090 04       		.uleb128 0x4
 778 0091 26030000 		.4byte	.LASF12
 779 0095 03       		.byte	0x3
 780 0096 4E       		.byte	0x4e
 781 0097 9B000000 		.4byte	0x9b
 782 009b 03       		.uleb128 0x3
 783 009c 08       		.byte	0x8
 784 009d 07       		.byte	0x7
 785 009e 6A000000 		.4byte	.LASF13
 786 00a2 04       		.uleb128 0x4
 787 00a3 AC050000 		.4byte	.LASF14
ARM GAS  /tmp/ccDk4sH7.s 			page 36


 788 00a7 04       		.byte	0x4
 789 00a8 2A       		.byte	0x2a
 790 00a9 3A000000 		.4byte	0x3a
 791 00ad 04       		.uleb128 0x4
 792 00ae E0010000 		.4byte	.LASF15
 793 00b2 04       		.byte	0x4
 794 00b3 36       		.byte	0x36
 795 00b4 53000000 		.4byte	0x53
 796 00b8 04       		.uleb128 0x4
 797 00b9 8E030000 		.4byte	.LASF16
 798 00bd 04       		.byte	0x4
 799 00be 41       		.byte	0x41
 800 00bf 65000000 		.4byte	0x65
 801 00c3 04       		.uleb128 0x4
 802 00c4 57040000 		.4byte	.LASF17
 803 00c8 04       		.byte	0x4
 804 00c9 42       		.byte	0x42
 805 00ca 77000000 		.4byte	0x77
 806 00ce 04       		.uleb128 0x4
 807 00cf 1A000000 		.4byte	.LASF18
 808 00d3 04       		.byte	0x4
 809 00d4 4E       		.byte	0x4e
 810 00d5 90000000 		.4byte	0x90
 811 00d9 04       		.uleb128 0x4
 812 00da 72050000 		.4byte	.LASF19
 813 00de 05       		.byte	0x5
 814 00df 39       		.byte	0x39
 815 00e0 C3000000 		.4byte	0xc3
 816 00e4 04       		.uleb128 0x4
 817 00e5 5B020000 		.4byte	.LASF20
 818 00e9 05       		.byte	0x5
 819 00ea 3C       		.byte	0x3c
 820 00eb A2000000 		.4byte	0xa2
 821 00ef 04       		.uleb128 0x4
 822 00f0 50010000 		.4byte	.LASF21
 823 00f4 05       		.byte	0x5
 824 00f5 3D       		.byte	0x3d
 825 00f6 A2000000 		.4byte	0xa2
 826 00fa 04       		.uleb128 0x4
 827 00fb 3B030000 		.4byte	.LASF22
 828 00ff 05       		.byte	0x5
 829 0100 3E       		.byte	0x3e
 830 0101 A2000000 		.4byte	0xa2
 831 0105 04       		.uleb128 0x4
 832 0106 70030000 		.4byte	.LASF23
 833 010a 05       		.byte	0x5
 834 010b 40       		.byte	0x40
 835 010c C3000000 		.4byte	0xc3
 836 0110 04       		.uleb128 0x4
 837 0111 31020000 		.4byte	.LASF24
 838 0115 05       		.byte	0x5
 839 0116 41       		.byte	0x41
 840 0117 B8000000 		.4byte	0xb8
 841 011b 04       		.uleb128 0x4
 842 011c 71020000 		.4byte	.LASF25
 843 0120 05       		.byte	0x5
 844 0121 43       		.byte	0x43
ARM GAS  /tmp/ccDk4sH7.s 			page 37


 845 0122 C3000000 		.4byte	0xc3
 846 0126 04       		.uleb128 0x4
 847 0127 BC010000 		.4byte	.LASF26
 848 012b 05       		.byte	0x5
 849 012c 45       		.byte	0x45
 850 012d B8000000 		.4byte	0xb8
 851 0131 04       		.uleb128 0x4
 852 0132 07050000 		.4byte	.LASF27
 853 0136 06       		.byte	0x6
 854 0137 33       		.byte	0x33
 855 0138 C3000000 		.4byte	0xc3
 856 013c 04       		.uleb128 0x4
 857 013d E2040000 		.4byte	.LASF28
 858 0141 06       		.byte	0x6
 859 0142 3F       		.byte	0x3f
 860 0143 47010000 		.4byte	0x147
 861 0147 05       		.uleb128 0x5
 862 0148 22020000 		.4byte	.LASF47
 863 014c 40       		.byte	0x40
 864 014d 07       		.byte	0x7
 865 014e C2       		.byte	0xc2
 866 014f 27020000 		.4byte	0x227
 867 0153 06       		.uleb128 0x6
 868 0154 F4030000 		.4byte	.LASF29
 869 0158 07       		.byte	0x7
 870 0159 C3       		.byte	0xc3
 871 015a 32020000 		.4byte	0x232
 872 015e 00       		.byte	0
 873 015f 06       		.uleb128 0x6
 874 0160 69030000 		.4byte	.LASF30
 875 0164 07       		.byte	0x7
 876 0165 C5       		.byte	0xc5
 877 0166 32020000 		.4byte	0x232
 878 016a 04       		.byte	0x4
 879 016b 06       		.uleb128 0x6
 880 016c D0000000 		.4byte	.LASF31
 881 0170 07       		.byte	0x7
 882 0171 C7       		.byte	0xc7
 883 0172 05010000 		.4byte	0x105
 884 0176 08       		.byte	0x8
 885 0177 06       		.uleb128 0x6
 886 0178 BE060000 		.4byte	.LASF32
 887 017c 07       		.byte	0x7
 888 017d C8       		.byte	0xc8
 889 017e 25060000 		.4byte	0x625
 890 0182 0C       		.byte	0xc
 891 0183 06       		.uleb128 0x6
 892 0184 59010000 		.4byte	.LASF33
 893 0188 07       		.byte	0x7
 894 0189 CA       		.byte	0xca
 895 018a 32020000 		.4byte	0x232
 896 018e 10       		.byte	0x10
 897 018f 06       		.uleb128 0x6
 898 0190 F5020000 		.4byte	.LASF34
 899 0194 07       		.byte	0x7
 900 0195 CB       		.byte	0xcb
 901 0196 32020000 		.4byte	0x232
ARM GAS  /tmp/ccDk4sH7.s 			page 38


 902 019a 14       		.byte	0x14
 903 019b 06       		.uleb128 0x6
 904 019c 9B060000 		.4byte	.LASF35
 905 01a0 07       		.byte	0x7
 906 01a1 D2       		.byte	0xd2
 907 01a2 B0070000 		.4byte	0x7b0
 908 01a6 18       		.byte	0x18
 909 01a7 06       		.uleb128 0x6
 910 01a8 DE030000 		.4byte	.LASF36
 911 01ac 07       		.byte	0x7
 912 01ad DD       		.byte	0xdd
 913 01ae EF000000 		.4byte	0xef
 914 01b2 1C       		.byte	0x1c
 915 01b3 06       		.uleb128 0x6
 916 01b4 09040000 		.4byte	.LASF37
 917 01b8 07       		.byte	0x7
 918 01b9 E1       		.byte	0xe1
 919 01ba E4000000 		.4byte	0xe4
 920 01be 1D       		.byte	0x1d
 921 01bf 06       		.uleb128 0x6
 922 01c0 9A050000 		.4byte	.LASF38
 923 01c4 07       		.byte	0x7
 924 01c5 E6       		.byte	0xe6
 925 01c6 FA000000 		.4byte	0xfa
 926 01ca 1E       		.byte	0x1e
 927 01cb 07       		.uleb128 0x7
 928 01cc 705F7500 		.ascii	"p_u\000"
 929 01d0 07       		.byte	0x7
 930 01d1 3701     		.2byte	0x137
 931 01d3 DF060000 		.4byte	0x6df
 932 01d7 20       		.byte	0x20
 933 01d8 08       		.uleb128 0x8
 934 01d9 A1020000 		.4byte	.LASF39
 935 01dd 07       		.byte	0x7
 936 01de 3C01     		.2byte	0x13c
 937 01e0 38020000 		.4byte	0x238
 938 01e4 24       		.byte	0x24
 939 01e5 08       		.uleb128 0x8
 940 01e6 F5010000 		.4byte	.LASF40
 941 01ea 07       		.byte	0x7
 942 01eb 4201     		.2byte	0x142
 943 01ed 5C020000 		.4byte	0x25c
 944 01f1 28       		.byte	0x28
 945 01f2 08       		.uleb128 0x8
 946 01f3 4C040000 		.4byte	.LASF41
 947 01f7 07       		.byte	0x7
 948 01f8 4801     		.2byte	0x148
 949 01fa 1B010000 		.4byte	0x11b
 950 01fe 30       		.byte	0x30
 951 01ff 08       		.uleb128 0x8
 952 0200 CA030000 		.4byte	.LASF42
 953 0204 07       		.byte	0x7
 954 0205 4F01     		.2byte	0x14f
 955 0207 AA070000 		.4byte	0x7aa
 956 020b 34       		.byte	0x34
 957 020c 08       		.uleb128 0x8
 958 020d 11050000 		.4byte	.LASF43
ARM GAS  /tmp/ccDk4sH7.s 			page 39


 959 0211 07       		.byte	0x7
 960 0212 5301     		.2byte	0x153
 961 0214 05010000 		.4byte	0x105
 962 0218 38       		.byte	0x38
 963 0219 08       		.uleb128 0x8
 964 021a 05010000 		.4byte	.LASF44
 965 021e 07       		.byte	0x7
 966 021f 5A01     		.2byte	0x15a
 967 0221 0F030000 		.4byte	0x30f
 968 0225 3C       		.byte	0x3c
 969 0226 00       		.byte	0
 970 0227 04       		.uleb128 0x4
 971 0228 B4020000 		.4byte	.LASF45
 972 022c 06       		.byte	0x6
 973 022d 44       		.byte	0x44
 974 022e 32020000 		.4byte	0x232
 975 0232 09       		.uleb128 0x9
 976 0233 04       		.byte	0x4
 977 0234 3C010000 		.4byte	0x13c
 978 0238 04       		.uleb128 0x4
 979 0239 92020000 		.4byte	.LASF46
 980 023d 06       		.byte	0x6
 981 023e 49       		.byte	0x49
 982 023f 43020000 		.4byte	0x243
 983 0243 05       		.uleb128 0x5
 984 0244 78040000 		.4byte	.LASF48
 985 0248 04       		.byte	0x4
 986 0249 07       		.byte	0x7
 987 024a B0       		.byte	0xb0
 988 024b 5C020000 		.4byte	0x25c
 989 024f 06       		.uleb128 0x6
 990 0250 F4030000 		.4byte	.LASF29
 991 0254 07       		.byte	0x7
 992 0255 B1       		.byte	0xb1
 993 0256 32020000 		.4byte	0x232
 994 025a 00       		.byte	0
 995 025b 00       		.byte	0
 996 025c 04       		.uleb128 0x4
 997 025d 81050000 		.4byte	.LASF49
 998 0261 06       		.byte	0x6
 999 0262 50       		.byte	0x50
 1000 0263 67020000 		.4byte	0x267
 1001 0267 05       		.uleb128 0x5
 1002 0268 BF000000 		.4byte	.LASF50
 1003 026c 08       		.byte	0x8
 1004 026d 07       		.byte	0x7
 1005 026e B7       		.byte	0xb7
 1006 026f 8C020000 		.4byte	0x28c
 1007 0273 06       		.uleb128 0x6
 1008 0274 F4030000 		.4byte	.LASF29
 1009 0278 07       		.byte	0x7
 1010 0279 B8       		.byte	0xb8
 1011 027a 32020000 		.4byte	0x232
 1012 027e 00       		.byte	0
 1013 027f 06       		.uleb128 0x6
 1014 0280 69030000 		.4byte	.LASF30
 1015 0284 07       		.byte	0x7
ARM GAS  /tmp/ccDk4sH7.s 			page 40


 1016 0285 B9       		.byte	0xb9
 1017 0286 32020000 		.4byte	0x232
 1018 028a 04       		.byte	0x4
 1019 028b 00       		.byte	0
 1020 028c 04       		.uleb128 0x4
 1021 028d 00000000 		.4byte	.LASF51
 1022 0291 06       		.byte	0x6
 1023 0292 57       		.byte	0x57
 1024 0293 97020000 		.4byte	0x297
 1025 0297 0A       		.uleb128 0xa
 1026 0298 63020000 		.4byte	.LASF52
 1027 029c 1C       		.byte	0x1c
 1028 029d 07       		.byte	0x7
 1029 029e 9201     		.2byte	0x192
 1030 02a0 F3020000 		.4byte	0x2f3
 1031 02a4 08       		.uleb128 0x8
 1032 02a5 67040000 		.4byte	.LASF53
 1033 02a9 07       		.byte	0x7
 1034 02aa 9301     		.2byte	0x193
 1035 02ac 5C020000 		.4byte	0x25c
 1036 02b0 00       		.byte	0
 1037 02b1 08       		.uleb128 0x8
 1038 02b2 E6030000 		.4byte	.LASF54
 1039 02b6 07       		.byte	0x7
 1040 02b7 9401     		.2byte	0x194
 1041 02b9 05010000 		.4byte	0x105
 1042 02bd 08       		.byte	0x8
 1043 02be 08       		.uleb128 0x8
 1044 02bf FD020000 		.4byte	.LASF55
 1045 02c3 07       		.byte	0x7
 1046 02c4 9601     		.2byte	0x196
 1047 02c6 25060000 		.4byte	0x625
 1048 02ca 0C       		.byte	0xc
 1049 02cb 08       		.uleb128 0x8
 1050 02cc 76010000 		.4byte	.LASF56
 1051 02d0 07       		.byte	0x7
 1052 02d1 9901     		.2byte	0x199
 1053 02d3 32020000 		.4byte	0x232
 1054 02d7 10       		.byte	0x10
 1055 02d8 08       		.uleb128 0x8
 1056 02d9 1E030000 		.4byte	.LASF57
 1057 02dd 07       		.byte	0x7
 1058 02de 9A01     		.2byte	0x19a
 1059 02e0 32020000 		.4byte	0x232
 1060 02e4 14       		.byte	0x14
 1061 02e5 08       		.uleb128 0x8
 1062 02e6 14030000 		.4byte	.LASF58
 1063 02ea 07       		.byte	0x7
 1064 02eb 9D01     		.2byte	0x19d
 1065 02ed 32020000 		.4byte	0x232
 1066 02f1 18       		.byte	0x18
 1067 02f2 00       		.byte	0
 1068 02f3 04       		.uleb128 0x4
 1069 02f4 1C050000 		.4byte	.LASF59
 1070 02f8 06       		.byte	0x6
 1071 02f9 5C       		.byte	0x5c
 1072 02fa FE020000 		.4byte	0x2fe
ARM GAS  /tmp/ccDk4sH7.s 			page 41


 1073 02fe 09       		.uleb128 0x9
 1074 02ff 04       		.byte	0x4
 1075 0300 04030000 		.4byte	0x304
 1076 0304 0B       		.uleb128 0xb
 1077 0305 0F030000 		.4byte	0x30f
 1078 0309 0C       		.uleb128 0xc
 1079 030a 0F030000 		.4byte	0x30f
 1080 030e 00       		.byte	0
 1081 030f 0D       		.uleb128 0xd
 1082 0310 04       		.byte	0x4
 1083 0311 04       		.uleb128 0x4
 1084 0312 59030000 		.4byte	.LASF60
 1085 0316 06       		.byte	0x6
 1086 0317 61       		.byte	0x61
 1087 0318 1C030000 		.4byte	0x31c
 1088 031c 0A       		.uleb128 0xa
 1089 031d 2E040000 		.4byte	.LASF61
 1090 0321 14       		.byte	0x14
 1091 0322 07       		.byte	0x7
 1092 0323 6D01     		.2byte	0x16d
 1093 0325 6B030000 		.4byte	0x36b
 1094 0329 08       		.uleb128 0x8
 1095 032a A5010000 		.4byte	.LASF62
 1096 032e 07       		.byte	0x7
 1097 032f 6E01     		.2byte	0x16e
 1098 0331 C2070000 		.4byte	0x7c2
 1099 0335 00       		.byte	0
 1100 0336 08       		.uleb128 0x8
 1101 0337 87010000 		.4byte	.LASF63
 1102 033b 07       		.byte	0x7
 1103 033c 6F01     		.2byte	0x16f
 1104 033e C2070000 		.4byte	0x7c2
 1105 0342 04       		.byte	0x4
 1106 0343 08       		.uleb128 0x8
 1107 0344 6F040000 		.4byte	.LASF64
 1108 0348 07       		.byte	0x7
 1109 0349 7001     		.2byte	0x170
 1110 034b 31010000 		.4byte	0x131
 1111 034f 08       		.byte	0x8
 1112 0350 08       		.uleb128 0x8
 1113 0351 C4060000 		.4byte	.LASF65
 1114 0355 07       		.byte	0x7
 1115 0356 7101     		.2byte	0x171
 1116 0358 F3020000 		.4byte	0x2f3
 1117 035c 0C       		.byte	0xc
 1118 035d 08       		.uleb128 0x8
 1119 035e 7A050000 		.4byte	.LASF66
 1120 0362 07       		.byte	0x7
 1121 0363 7301     		.2byte	0x173
 1122 0365 0F030000 		.4byte	0x30f
 1123 0369 10       		.byte	0x10
 1124 036a 00       		.byte	0
 1125 036b 04       		.uleb128 0x4
 1126 036c A3000000 		.4byte	.LASF67
 1127 0370 06       		.byte	0x6
 1128 0371 66       		.byte	0x66
 1129 0372 76030000 		.4byte	0x376
ARM GAS  /tmp/ccDk4sH7.s 			page 42


 1130 0376 0A       		.uleb128 0xa
 1131 0377 C7020000 		.4byte	.LASF68
 1132 037b 10       		.byte	0x10
 1133 037c 07       		.byte	0x7
 1134 037d 7D01     		.2byte	0x17d
 1135 037f B8030000 		.4byte	0x3b8
 1136 0383 08       		.uleb128 0x8
 1137 0384 A5010000 		.4byte	.LASF62
 1138 0388 07       		.byte	0x7
 1139 0389 7E01     		.2byte	0x17e
 1140 038b C2070000 		.4byte	0x7c2
 1141 038f 00       		.byte	0
 1142 0390 08       		.uleb128 0x8
 1143 0391 87010000 		.4byte	.LASF63
 1144 0395 07       		.byte	0x7
 1145 0396 8001     		.2byte	0x180
 1146 0398 C2070000 		.4byte	0x7c2
 1147 039c 04       		.byte	0x4
 1148 039d 08       		.uleb128 0x8
 1149 039e 6F040000 		.4byte	.LASF64
 1150 03a2 07       		.byte	0x7
 1151 03a3 8201     		.2byte	0x182
 1152 03a5 31010000 		.4byte	0x131
 1153 03a9 08       		.byte	0x8
 1154 03aa 08       		.uleb128 0x8
 1155 03ab E9020000 		.4byte	.LASF69
 1156 03af 07       		.byte	0x7
 1157 03b0 8A01     		.2byte	0x18a
 1158 03b2 31010000 		.4byte	0x131
 1159 03b6 0C       		.byte	0xc
 1160 03b7 00       		.byte	0
 1161 03b8 04       		.uleb128 0x4
 1162 03b9 48000000 		.4byte	.LASF70
 1163 03bd 06       		.byte	0x6
 1164 03be 6B       		.byte	0x6b
 1165 03bf C3030000 		.4byte	0x3c3
 1166 03c3 0A       		.uleb128 0xa
 1167 03c4 78030000 		.4byte	.LASF71
 1168 03c8 04       		.byte	0x4
 1169 03c9 07       		.byte	0x7
 1170 03ca A401     		.2byte	0x1a4
 1171 03cc DE030000 		.4byte	0x3de
 1172 03d0 08       		.uleb128 0x8
 1173 03d1 30050000 		.4byte	.LASF72
 1174 03d5 07       		.byte	0x7
 1175 03d6 AC01     		.2byte	0x1ac
 1176 03d8 C8070000 		.4byte	0x7c8
 1177 03dc 00       		.byte	0
 1178 03dd 00       		.byte	0
 1179 03de 04       		.uleb128 0x4
 1180 03df 48020000 		.4byte	.LASF73
 1181 03e3 06       		.byte	0x6
 1182 03e4 70       		.byte	0x70
 1183 03e5 E9030000 		.4byte	0x3e9
 1184 03e9 0E       		.uleb128 0xe
 1185 03ea 24040000 		.4byte	.LASF74
 1186 03ee 5001     		.2byte	0x150
ARM GAS  /tmp/ccDk4sH7.s 			page 43


 1187 03f0 07       		.byte	0x7
 1188 03f1 C401     		.2byte	0x1c4
 1189 03f3 45040000 		.4byte	0x445
 1190 03f7 08       		.uleb128 0x8
 1191 03f8 A6050000 		.4byte	.LASF75
 1192 03fc 07       		.byte	0x7
 1193 03fd C801     		.2byte	0x1c8
 1194 03ff 8C020000 		.4byte	0x28c
 1195 0403 00       		.byte	0
 1196 0404 08       		.uleb128 0x8
 1197 0405 15010000 		.4byte	.LASF76
 1198 0409 07       		.byte	0x7
 1199 040a CC01     		.2byte	0x1cc
 1200 040c 6B030000 		.4byte	0x36b
 1201 0410 1C       		.byte	0x1c
 1202 0411 07       		.uleb128 0x7
 1203 0412 64626700 		.ascii	"dbg\000"
 1204 0416 07       		.byte	0x7
 1205 0417 D001     		.2byte	0x1d0
 1206 0419 B8030000 		.4byte	0x3b8
 1207 041d 2C       		.byte	0x2c
 1208 041e 08       		.uleb128 0x8
 1209 041f 90000000 		.4byte	.LASF77
 1210 0423 07       		.byte	0x7
 1211 0424 D401     		.2byte	0x1d4
 1212 0426 3C010000 		.4byte	0x13c
 1213 042a 30       		.byte	0x30
 1214 042b 07       		.uleb128 0x7
 1215 042c 746D00   		.ascii	"tm\000"
 1216 042f 07       		.byte	0x7
 1217 0430 D901     		.2byte	0x1d9
 1218 0432 D4060000 		.4byte	0x6d4
 1219 0436 70       		.byte	0x70
 1220 0437 08       		.uleb128 0x8
 1221 0438 AD010000 		.4byte	.LASF78
 1222 043c 07       		.byte	0x7
 1223 043d E501     		.2byte	0x1e5
 1224 043f CD070000 		.4byte	0x7cd
 1225 0443 78       		.byte	0x78
 1226 0444 00       		.byte	0
 1227 0445 03       		.uleb128 0x3
 1228 0446 04       		.byte	0x4
 1229 0447 07       		.byte	0x7
 1230 0448 AB020000 		.4byte	.LASF79
 1231 044c 0F       		.uleb128 0xf
 1232 044d C3000000 		.4byte	0xc3
 1233 0451 10       		.uleb128 0x10
 1234 0452 8C       		.byte	0x8c
 1235 0453 08       		.byte	0x8
 1236 0454 C001     		.2byte	0x1c0
 1237 0456 6C050000 		.4byte	0x56c
 1238 045a 08       		.uleb128 0x8
 1239 045b B9000000 		.4byte	.LASF80
 1240 045f 08       		.byte	0x8
 1241 0460 C201     		.2byte	0x1c2
 1242 0462 6C050000 		.4byte	0x56c
 1243 0466 00       		.byte	0
ARM GAS  /tmp/ccDk4sH7.s 			page 44


 1244 0467 08       		.uleb128 0x8
 1245 0468 2C020000 		.4byte	.LASF81
 1246 046c 08       		.byte	0x8
 1247 046d C301     		.2byte	0x1c3
 1248 046f 4C040000 		.4byte	0x44c
 1249 0473 04       		.byte	0x4
 1250 0474 08       		.uleb128 0x8
 1251 0475 17020000 		.4byte	.LASF82
 1252 0479 08       		.byte	0x8
 1253 047a C401     		.2byte	0x1c4
 1254 047c 4C040000 		.4byte	0x44c
 1255 0480 08       		.byte	0x8
 1256 0481 08       		.uleb128 0x8
 1257 0482 37020000 		.4byte	.LASF83
 1258 0486 08       		.byte	0x8
 1259 0487 C501     		.2byte	0x1c5
 1260 0489 4C040000 		.4byte	0x44c
 1261 048d 0C       		.byte	0xc
 1262 048e 07       		.uleb128 0x7
 1263 048f 53435200 		.ascii	"SCR\000"
 1264 0493 08       		.byte	0x8
 1265 0494 C601     		.2byte	0x1c6
 1266 0496 4C040000 		.4byte	0x44c
 1267 049a 10       		.byte	0x10
 1268 049b 07       		.uleb128 0x7
 1269 049c 43435200 		.ascii	"CCR\000"
 1270 04a0 08       		.byte	0x8
 1271 04a1 C701     		.2byte	0x1c7
 1272 04a3 4C040000 		.4byte	0x44c
 1273 04a7 14       		.byte	0x14
 1274 04a8 07       		.uleb128 0x7
 1275 04a9 53485000 		.ascii	"SHP\000"
 1276 04ad 08       		.byte	0x8
 1277 04ae C801     		.2byte	0x1c8
 1278 04b0 81050000 		.4byte	0x581
 1279 04b4 18       		.byte	0x18
 1280 04b5 08       		.uleb128 0x8
 1281 04b6 B7030000 		.4byte	.LASF84
 1282 04ba 08       		.byte	0x8
 1283 04bb C901     		.2byte	0x1c9
 1284 04bd 4C040000 		.4byte	0x44c
 1285 04c1 24       		.byte	0x24
 1286 04c2 08       		.uleb128 0x8
 1287 04c3 E4020000 		.4byte	.LASF85
 1288 04c7 08       		.byte	0x8
 1289 04c8 CA01     		.2byte	0x1ca
 1290 04ca 4C040000 		.4byte	0x44c
 1291 04ce 28       		.byte	0x28
 1292 04cf 08       		.uleb128 0x8
 1293 04d0 2D000000 		.4byte	.LASF86
 1294 04d4 08       		.byte	0x8
 1295 04d5 CB01     		.2byte	0x1cb
 1296 04d7 4C040000 		.4byte	0x44c
 1297 04db 2C       		.byte	0x2c
 1298 04dc 08       		.uleb128 0x8
 1299 04dd 3D020000 		.4byte	.LASF87
 1300 04e1 08       		.byte	0x8
ARM GAS  /tmp/ccDk4sH7.s 			page 45


 1301 04e2 CC01     		.2byte	0x1cc
 1302 04e4 4C040000 		.4byte	0x44c
 1303 04e8 30       		.byte	0x30
 1304 04e9 08       		.uleb128 0x8
 1305 04ea 42020000 		.4byte	.LASF88
 1306 04ee 08       		.byte	0x8
 1307 04ef CD01     		.2byte	0x1cd
 1308 04f1 4C040000 		.4byte	0x44c
 1309 04f5 34       		.byte	0x34
 1310 04f6 08       		.uleb128 0x8
 1311 04f7 69010000 		.4byte	.LASF89
 1312 04fb 08       		.byte	0x8
 1313 04fc CE01     		.2byte	0x1ce
 1314 04fe 4C040000 		.4byte	0x44c
 1315 0502 38       		.byte	0x38
 1316 0503 08       		.uleb128 0x8
 1317 0504 F0010000 		.4byte	.LASF90
 1318 0508 08       		.byte	0x8
 1319 0509 CF01     		.2byte	0x1cf
 1320 050b 4C040000 		.4byte	0x44c
 1321 050f 3C       		.byte	0x3c
 1322 0510 07       		.uleb128 0x7
 1323 0511 50465200 		.ascii	"PFR\000"
 1324 0515 08       		.byte	0x8
 1325 0516 D001     		.2byte	0x1d0
 1326 0518 96050000 		.4byte	0x596
 1327 051c 40       		.byte	0x40
 1328 051d 07       		.uleb128 0x7
 1329 051e 44465200 		.ascii	"DFR\000"
 1330 0522 08       		.byte	0x8
 1331 0523 D101     		.2byte	0x1d1
 1332 0525 6C050000 		.4byte	0x56c
 1333 0529 48       		.byte	0x48
 1334 052a 07       		.uleb128 0x7
 1335 052b 41445200 		.ascii	"ADR\000"
 1336 052f 08       		.byte	0x8
 1337 0530 D201     		.2byte	0x1d2
 1338 0532 6C050000 		.4byte	0x56c
 1339 0536 4C       		.byte	0x4c
 1340 0537 08       		.uleb128 0x8
 1341 0538 A1050000 		.4byte	.LASF91
 1342 053c 08       		.byte	0x8
 1343 053d D301     		.2byte	0x1d3
 1344 053f B0050000 		.4byte	0x5b0
 1345 0543 50       		.byte	0x50
 1346 0544 08       		.uleb128 0x8
 1347 0545 D7000000 		.4byte	.LASF92
 1348 0549 08       		.byte	0x8
 1349 054a D401     		.2byte	0x1d4
 1350 054c CA050000 		.4byte	0x5ca
 1351 0550 60       		.byte	0x60
 1352 0551 08       		.uleb128 0x8
 1353 0552 43030000 		.4byte	.LASF93
 1354 0556 08       		.byte	0x8
 1355 0557 D501     		.2byte	0x1d5
 1356 0559 BA050000 		.4byte	0x5ba
 1357 055d 74       		.byte	0x74
ARM GAS  /tmp/ccDk4sH7.s 			page 46


 1358 055e 08       		.uleb128 0x8
 1359 055f A2060000 		.4byte	.LASF94
 1360 0563 08       		.byte	0x8
 1361 0564 D601     		.2byte	0x1d6
 1362 0566 4C040000 		.4byte	0x44c
 1363 056a 88       		.byte	0x88
 1364 056b 00       		.byte	0
 1365 056c 11       		.uleb128 0x11
 1366 056d 4C040000 		.4byte	0x44c
 1367 0571 12       		.uleb128 0x12
 1368 0572 A2000000 		.4byte	0xa2
 1369 0576 81050000 		.4byte	0x581
 1370 057a 13       		.uleb128 0x13
 1371 057b 45040000 		.4byte	0x445
 1372 057f 0B       		.byte	0xb
 1373 0580 00       		.byte	0
 1374 0581 0F       		.uleb128 0xf
 1375 0582 71050000 		.4byte	0x571
 1376 0586 12       		.uleb128 0x12
 1377 0587 C3000000 		.4byte	0xc3
 1378 058b 96050000 		.4byte	0x596
 1379 058f 13       		.uleb128 0x13
 1380 0590 45040000 		.4byte	0x445
 1381 0594 01       		.byte	0x1
 1382 0595 00       		.byte	0
 1383 0596 11       		.uleb128 0x11
 1384 0597 9B050000 		.4byte	0x59b
 1385 059b 0F       		.uleb128 0xf
 1386 059c 86050000 		.4byte	0x586
 1387 05a0 12       		.uleb128 0x12
 1388 05a1 C3000000 		.4byte	0xc3
 1389 05a5 B0050000 		.4byte	0x5b0
 1390 05a9 13       		.uleb128 0x13
 1391 05aa 45040000 		.4byte	0x445
 1392 05ae 03       		.byte	0x3
 1393 05af 00       		.byte	0
 1394 05b0 11       		.uleb128 0x11
 1395 05b1 B5050000 		.4byte	0x5b5
 1396 05b5 0F       		.uleb128 0xf
 1397 05b6 A0050000 		.4byte	0x5a0
 1398 05ba 12       		.uleb128 0x12
 1399 05bb C3000000 		.4byte	0xc3
 1400 05bf CA050000 		.4byte	0x5ca
 1401 05c3 13       		.uleb128 0x13
 1402 05c4 45040000 		.4byte	0x445
 1403 05c8 04       		.byte	0x4
 1404 05c9 00       		.byte	0
 1405 05ca 11       		.uleb128 0x11
 1406 05cb CF050000 		.4byte	0x5cf
 1407 05cf 0F       		.uleb128 0xf
 1408 05d0 BA050000 		.4byte	0x5ba
 1409 05d4 14       		.uleb128 0x14
 1410 05d5 8F010000 		.4byte	.LASF95
 1411 05d9 08       		.byte	0x8
 1412 05da D701     		.2byte	0x1d7
 1413 05dc 51040000 		.4byte	0x451
 1414 05e0 10       		.uleb128 0x10
ARM GAS  /tmp/ccDk4sH7.s 			page 47


 1415 05e1 08       		.byte	0x8
 1416 05e2 09       		.byte	0x9
 1417 05e3 F201     		.2byte	0x1f2
 1418 05e5 03060000 		.4byte	0x603
 1419 05e9 07       		.uleb128 0x7
 1420 05ea 435200   		.ascii	"CR\000"
 1421 05ed 09       		.byte	0x9
 1422 05ee F401     		.2byte	0x1f4
 1423 05f0 4C040000 		.4byte	0x44c
 1424 05f4 00       		.byte	0
 1425 05f5 07       		.uleb128 0x7
 1426 05f6 43535200 		.ascii	"CSR\000"
 1427 05fa 09       		.byte	0x9
 1428 05fb F501     		.2byte	0x1f5
 1429 05fd 4C040000 		.4byte	0x44c
 1430 0601 04       		.byte	0x4
 1431 0602 00       		.byte	0
 1432 0603 14       		.uleb128 0x14
 1433 0604 1C010000 		.4byte	.LASF96
 1434 0608 09       		.byte	0x9
 1435 0609 F601     		.2byte	0x1f6
 1436 060b E0050000 		.4byte	0x5e0
 1437 060f 04       		.uleb128 0x4
 1438 0610 7E010000 		.4byte	.LASF97
 1439 0614 0A       		.byte	0xa
 1440 0615 65       		.byte	0x65
 1441 0616 0F030000 		.4byte	0x30f
 1442 061a 04       		.uleb128 0x4
 1443 061b 87020000 		.4byte	.LASF98
 1444 061f 0A       		.byte	0xa
 1445 0620 6D       		.byte	0x6d
 1446 0621 CE000000 		.4byte	0xce
 1447 0625 05       		.uleb128 0x5
 1448 0626 54050000 		.4byte	.LASF99
 1449 062a 04       		.byte	0x4
 1450 062b 0A       		.byte	0xa
 1451 062c 89       		.byte	0x89
 1452 062d 3E060000 		.4byte	0x63e
 1453 0631 15       		.uleb128 0x15
 1454 0632 72313300 		.ascii	"r13\000"
 1455 0636 0A       		.byte	0xa
 1456 0637 8A       		.byte	0x8a
 1457 0638 B9060000 		.4byte	0x6b9
 1458 063c 00       		.byte	0
 1459 063d 00       		.byte	0
 1460 063e 05       		.uleb128 0x5
 1461 063f 4D030000 		.4byte	.LASF100
 1462 0643 24       		.byte	0x24
 1463 0644 0B       		.byte	0xb
 1464 0645 FD       		.byte	0xfd
 1465 0646 B9060000 		.4byte	0x6b9
 1466 064a 07       		.uleb128 0x7
 1467 064b 723400   		.ascii	"r4\000"
 1468 064e 0B       		.byte	0xb
 1469 064f 1001     		.2byte	0x110
 1470 0651 0F060000 		.4byte	0x60f
 1471 0655 00       		.byte	0
ARM GAS  /tmp/ccDk4sH7.s 			page 48


 1472 0656 07       		.uleb128 0x7
 1473 0657 723500   		.ascii	"r5\000"
 1474 065a 0B       		.byte	0xb
 1475 065b 1101     		.2byte	0x111
 1476 065d 0F060000 		.4byte	0x60f
 1477 0661 04       		.byte	0x4
 1478 0662 07       		.uleb128 0x7
 1479 0663 723600   		.ascii	"r6\000"
 1480 0666 0B       		.byte	0xb
 1481 0667 1201     		.2byte	0x112
 1482 0669 0F060000 		.4byte	0x60f
 1483 066d 08       		.byte	0x8
 1484 066e 07       		.uleb128 0x7
 1485 066f 723700   		.ascii	"r7\000"
 1486 0672 0B       		.byte	0xb
 1487 0673 1301     		.2byte	0x113
 1488 0675 0F060000 		.4byte	0x60f
 1489 0679 0C       		.byte	0xc
 1490 067a 07       		.uleb128 0x7
 1491 067b 723800   		.ascii	"r8\000"
 1492 067e 0B       		.byte	0xb
 1493 067f 1401     		.2byte	0x114
 1494 0681 0F060000 		.4byte	0x60f
 1495 0685 10       		.byte	0x10
 1496 0686 07       		.uleb128 0x7
 1497 0687 723900   		.ascii	"r9\000"
 1498 068a 0B       		.byte	0xb
 1499 068b 1501     		.2byte	0x115
 1500 068d 0F060000 		.4byte	0x60f
 1501 0691 14       		.byte	0x14
 1502 0692 07       		.uleb128 0x7
 1503 0693 72313000 		.ascii	"r10\000"
 1504 0697 0B       		.byte	0xb
 1505 0698 1601     		.2byte	0x116
 1506 069a 0F060000 		.4byte	0x60f
 1507 069e 18       		.byte	0x18
 1508 069f 07       		.uleb128 0x7
 1509 06a0 72313100 		.ascii	"r11\000"
 1510 06a4 0B       		.byte	0xb
 1511 06a5 1701     		.2byte	0x117
 1512 06a7 0F060000 		.4byte	0x60f
 1513 06ab 1C       		.byte	0x1c
 1514 06ac 07       		.uleb128 0x7
 1515 06ad 6C7200   		.ascii	"lr\000"
 1516 06b0 0B       		.byte	0xb
 1517 06b1 1801     		.2byte	0x118
 1518 06b3 0F060000 		.4byte	0x60f
 1519 06b7 20       		.byte	0x20
 1520 06b8 00       		.byte	0
 1521 06b9 09       		.uleb128 0x9
 1522 06ba 04       		.byte	0x4
 1523 06bb 3E060000 		.4byte	0x63e
 1524 06bf 16       		.uleb128 0x16
 1525 06c0 04       		.byte	0x4
 1526 06c1 0C       		.byte	0xc
 1527 06c2 38       		.byte	0x38
 1528 06c3 D4060000 		.4byte	0x6d4
ARM GAS  /tmp/ccDk4sH7.s 			page 49


 1529 06c7 06       		.uleb128 0x6
 1530 06c8 42050000 		.4byte	.LASF101
 1531 06cc 0C       		.byte	0xc
 1532 06cd 3C       		.byte	0x3c
 1533 06ce D9000000 		.4byte	0xd9
 1534 06d2 00       		.byte	0
 1535 06d3 00       		.byte	0
 1536 06d4 04       		.uleb128 0x4
 1537 06d5 03030000 		.4byte	.LASF102
 1538 06d9 0C       		.byte	0xc
 1539 06da 3D       		.byte	0x3d
 1540 06db BF060000 		.4byte	0x6bf
 1541 06df 17       		.uleb128 0x17
 1542 06e0 04       		.byte	0x4
 1543 06e1 07       		.byte	0x7
 1544 06e2 FA       		.byte	0xfa
 1545 06e3 48070000 		.4byte	0x748
 1546 06e7 18       		.uleb128 0x18
 1547 06e8 13000000 		.4byte	.LASF103
 1548 06ec 07       		.byte	0x7
 1549 06ed 0101     		.2byte	0x101
 1550 06ef 10010000 		.4byte	0x110
 1551 06f3 18       		.uleb128 0x18
 1552 06f4 87000000 		.4byte	.LASF104
 1553 06f8 07       		.byte	0x7
 1554 06f9 0801     		.2byte	0x108
 1555 06fb 10010000 		.4byte	0x110
 1556 06ff 18       		.uleb128 0x18
 1557 0700 94060000 		.4byte	.LASF105
 1558 0704 07       		.byte	0x7
 1559 0705 0F01     		.2byte	0x10f
 1560 0707 0F030000 		.4byte	0x30f
 1561 070b 18       		.uleb128 0x18
 1562 070c 0D000000 		.4byte	.LASF106
 1563 0710 07       		.byte	0x7
 1564 0711 1601     		.2byte	0x116
 1565 0713 48070000 		.4byte	0x748
 1566 0717 18       		.uleb128 0x18
 1567 0718 9B000000 		.4byte	.LASF107
 1568 071c 07       		.byte	0x7
 1569 071d 1B01     		.2byte	0x11b
 1570 071f 10010000 		.4byte	0x110
 1571 0723 18       		.uleb128 0x18
 1572 0724 E9010000 		.4byte	.LASF108
 1573 0728 07       		.byte	0x7
 1574 0729 2401     		.2byte	0x124
 1575 072b 73070000 		.4byte	0x773
 1576 072f 18       		.uleb128 0x18
 1577 0730 60040000 		.4byte	.LASF109
 1578 0734 07       		.byte	0x7
 1579 0735 2D01     		.2byte	0x12d
 1580 0737 AA070000 		.4byte	0x7aa
 1581 073b 18       		.uleb128 0x18
 1582 073c ED030000 		.4byte	.LASF110
 1583 0740 07       		.byte	0x7
 1584 0741 3501     		.2byte	0x135
 1585 0743 1B010000 		.4byte	0x11b
ARM GAS  /tmp/ccDk4sH7.s 			page 50


 1586 0747 00       		.byte	0
 1587 0748 09       		.uleb128 0x9
 1588 0749 04       		.byte	0x4
 1589 074a 27020000 		.4byte	0x227
 1590 074e 05       		.uleb128 0x5
 1591 074f 3F040000 		.4byte	.LASF111
 1592 0753 0C       		.byte	0xc
 1593 0754 0D       		.byte	0xd
 1594 0755 34       		.byte	0x34
 1595 0756 73070000 		.4byte	0x773
 1596 075a 06       		.uleb128 0x6
 1597 075b 61010000 		.4byte	.LASF112
 1598 075f 0D       		.byte	0xd
 1599 0760 35       		.byte	0x35
 1600 0761 5C020000 		.4byte	0x25c
 1601 0765 00       		.byte	0
 1602 0766 06       		.uleb128 0x6
 1603 0767 1C020000 		.4byte	.LASF113
 1604 076b 0D       		.byte	0xd
 1605 076c 37       		.byte	0x37
 1606 076d 26010000 		.4byte	0x126
 1607 0771 08       		.byte	0x8
 1608 0772 00       		.byte	0
 1609 0773 09       		.uleb128 0x9
 1610 0774 04       		.byte	0x4
 1611 0775 4E070000 		.4byte	0x74e
 1612 0779 05       		.uleb128 0x5
 1613 077a 91050000 		.4byte	.LASF114
 1614 077e 10       		.byte	0x10
 1615 077f 0E       		.byte	0xe
 1616 0780 39       		.byte	0x39
 1617 0781 AA070000 		.4byte	0x7aa
 1618 0785 06       		.uleb128 0x6
 1619 0786 0D010000 		.4byte	.LASF115
 1620 078a 0E       		.byte	0xe
 1621 078b 3A       		.byte	0x3a
 1622 078c 5C020000 		.4byte	0x25c
 1623 0790 00       		.byte	0
 1624 0791 06       		.uleb128 0x6
 1625 0792 B6060000 		.4byte	.LASF116
 1626 0796 0E       		.byte	0xe
 1627 0797 3C       		.byte	0x3c
 1628 0798 32020000 		.4byte	0x232
 1629 079c 08       		.byte	0x8
 1630 079d 06       		.uleb128 0x6
 1631 079e 00050000 		.4byte	.LASF117
 1632 07a2 0E       		.byte	0xe
 1633 07a3 3E       		.byte	0x3e
 1634 07a4 E8070000 		.4byte	0x7e8
 1635 07a8 0C       		.byte	0xc
 1636 07a9 00       		.byte	0
 1637 07aa 09       		.uleb128 0x9
 1638 07ab 04       		.byte	0x4
 1639 07ac 79070000 		.4byte	0x779
 1640 07b0 09       		.uleb128 0x9
 1641 07b1 04       		.byte	0x4
 1642 07b2 B6070000 		.4byte	0x7b6
ARM GAS  /tmp/ccDk4sH7.s 			page 51


 1643 07b6 11       		.uleb128 0x11
 1644 07b7 BB070000 		.4byte	0x7bb
 1645 07bb 03       		.uleb128 0x3
 1646 07bc 01       		.byte	0x1
 1647 07bd 08       		.byte	0x8
 1648 07be CD040000 		.4byte	.LASF118
 1649 07c2 09       		.uleb128 0x9
 1650 07c3 04       		.byte	0x4
 1651 07c4 11030000 		.4byte	0x311
 1652 07c8 0F       		.uleb128 0xf
 1653 07c9 B0070000 		.4byte	0x7b0
 1654 07cd 12       		.uleb128 0x12
 1655 07ce 1A060000 		.4byte	0x61a
 1656 07d2 DD070000 		.4byte	0x7dd
 1657 07d6 13       		.uleb128 0x13
 1658 07d7 45040000 		.4byte	0x445
 1659 07db 1A       		.byte	0x1a
 1660 07dc 00       		.byte	0
 1661 07dd 04       		.uleb128 0x4
 1662 07de 3A050000 		.4byte	.LASF119
 1663 07e2 0E       		.byte	0xe
 1664 07e3 34       		.byte	0x34
 1665 07e4 79070000 		.4byte	0x779
 1666 07e8 09       		.uleb128 0x9
 1667 07e9 04       		.byte	0x4
 1668 07ea DD070000 		.4byte	0x7dd
 1669 07ee 03       		.uleb128 0x3
 1670 07ef 01       		.byte	0x1
 1671 07f0 02       		.byte	0x2
 1672 07f1 88030000 		.4byte	.LASF120
 1673 07f5 16       		.uleb128 0x16
 1674 07f6 04       		.byte	0x4
 1675 07f7 0F       		.byte	0xf
 1676 07f8 E7       		.byte	0xe7
 1677 07f9 16080000 		.4byte	0x816
 1678 07fd 15       		.uleb128 0x15
 1679 07fe 73657400 		.ascii	"set\000"
 1680 0802 0F       		.byte	0xf
 1681 0803 E8       		.byte	0xe8
 1682 0804 AD000000 		.4byte	0xad
 1683 0808 00       		.byte	0
 1684 0809 06       		.uleb128 0x6
 1685 080a DE020000 		.4byte	.LASF121
 1686 080e 0F       		.byte	0xf
 1687 080f E9       		.byte	0xe9
 1688 0810 AD000000 		.4byte	0xad
 1689 0814 02       		.byte	0x2
 1690 0815 00       		.byte	0
 1691 0816 17       		.uleb128 0x17
 1692 0817 04       		.byte	0x4
 1693 0818 0F       		.byte	0xf
 1694 0819 E5       		.byte	0xe5
 1695 081a 31080000 		.4byte	0x831
 1696 081e 19       		.uleb128 0x19
 1697 081f 5700     		.ascii	"W\000"
 1698 0821 0F       		.byte	0xf
 1699 0822 E6       		.byte	0xe6
ARM GAS  /tmp/ccDk4sH7.s 			page 52


 1700 0823 C3000000 		.4byte	0xc3
 1701 0827 19       		.uleb128 0x19
 1702 0828 4800     		.ascii	"H\000"
 1703 082a 0F       		.byte	0xf
 1704 082b EA       		.byte	0xea
 1705 082c F5070000 		.4byte	0x7f5
 1706 0830 00       		.byte	0
 1707 0831 16       		.uleb128 0x16
 1708 0832 2C       		.byte	0x2c
 1709 0833 0F       		.byte	0xf
 1710 0834 DD       		.byte	0xdd
 1711 0835 BE080000 		.4byte	0x8be
 1712 0839 06       		.uleb128 0x6
 1713 083a 64000000 		.4byte	.LASF122
 1714 083e 0F       		.byte	0xf
 1715 083f DF       		.byte	0xdf
 1716 0840 4C040000 		.4byte	0x44c
 1717 0844 00       		.byte	0
 1718 0845 06       		.uleb128 0x6
 1719 0846 32000000 		.4byte	.LASF123
 1720 084a 0F       		.byte	0xf
 1721 084b E0       		.byte	0xe0
 1722 084c 4C040000 		.4byte	0x44c
 1723 0850 04       		.byte	0x4
 1724 0851 06       		.uleb128 0x6
 1725 0852 6E010000 		.4byte	.LASF124
 1726 0856 0F       		.byte	0xf
 1727 0857 E1       		.byte	0xe1
 1728 0858 4C040000 		.4byte	0x44c
 1729 085c 08       		.byte	0x8
 1730 085d 06       		.uleb128 0x6
 1731 085e 81000000 		.4byte	.LASF125
 1732 0862 0F       		.byte	0xf
 1733 0863 E2       		.byte	0xe2
 1734 0864 4C040000 		.4byte	0x44c
 1735 0868 0C       		.byte	0xc
 1736 0869 15       		.uleb128 0x15
 1737 086a 49445200 		.ascii	"IDR\000"
 1738 086e 0F       		.byte	0xf
 1739 086f E3       		.byte	0xe3
 1740 0870 4C040000 		.4byte	0x44c
 1741 0874 10       		.byte	0x10
 1742 0875 15       		.uleb128 0x15
 1743 0876 4F445200 		.ascii	"ODR\000"
 1744 087a 0F       		.byte	0xf
 1745 087b E4       		.byte	0xe4
 1746 087c 4C040000 		.4byte	0x44c
 1747 0880 14       		.byte	0x14
 1748 0881 06       		.uleb128 0x6
 1749 0882 F6000000 		.4byte	.LASF126
 1750 0886 0F       		.byte	0xf
 1751 0887 EB       		.byte	0xeb
 1752 0888 BE080000 		.4byte	0x8be
 1753 088c 18       		.byte	0x18
 1754 088d 06       		.uleb128 0x6
 1755 088e 12020000 		.4byte	.LASF127
 1756 0892 0F       		.byte	0xf
ARM GAS  /tmp/ccDk4sH7.s 			page 53


 1757 0893 EC       		.byte	0xec
 1758 0894 4C040000 		.4byte	0x44c
 1759 0898 1C       		.byte	0x1c
 1760 0899 06       		.uleb128 0x6
 1761 089a 36030000 		.4byte	.LASF128
 1762 089e 0F       		.byte	0xf
 1763 089f ED       		.byte	0xed
 1764 08a0 4C040000 		.4byte	0x44c
 1765 08a4 20       		.byte	0x20
 1766 08a5 06       		.uleb128 0x6
 1767 08a6 31030000 		.4byte	.LASF129
 1768 08aa 0F       		.byte	0xf
 1769 08ab EE       		.byte	0xee
 1770 08ac 4C040000 		.4byte	0x44c
 1771 08b0 24       		.byte	0x24
 1772 08b1 15       		.uleb128 0x15
 1773 08b2 42525200 		.ascii	"BRR\000"
 1774 08b6 0F       		.byte	0xf
 1775 08b7 EF       		.byte	0xef
 1776 08b8 4C040000 		.4byte	0x44c
 1777 08bc 28       		.byte	0x28
 1778 08bd 00       		.byte	0
 1779 08be 0F       		.uleb128 0xf
 1780 08bf 16080000 		.4byte	0x816
 1781 08c3 04       		.uleb128 0x4
 1782 08c4 98010000 		.4byte	.LASF130
 1783 08c8 0F       		.byte	0xf
 1784 08c9 F0       		.byte	0xf0
 1785 08ca 31080000 		.4byte	0x831
 1786 08ce 14       		.uleb128 0x14
 1787 08cf 57000000 		.4byte	.LASF131
 1788 08d3 0F       		.byte	0xf
 1789 08d4 3F01     		.2byte	0x13f
 1790 08d6 C3000000 		.4byte	0xc3
 1791 08da 14       		.uleb128 0x14
 1792 08db AD060000 		.4byte	.LASF132
 1793 08df 0F       		.byte	0xf
 1794 08e0 4401     		.2byte	0x144
 1795 08e2 C3000000 		.4byte	0xc3
 1796 08e6 14       		.uleb128 0x14
 1797 08e7 49050000 		.4byte	.LASF133
 1798 08eb 0F       		.byte	0xf
 1799 08ec 5101     		.2byte	0x151
 1800 08ee F2080000 		.4byte	0x8f2
 1801 08f2 09       		.uleb128 0x9
 1802 08f3 04       		.byte	0x4
 1803 08f4 C3080000 		.4byte	0x8c3
 1804 08f8 1A       		.uleb128 0x1a
 1805 08f9 D5010000 		.4byte	.LASF148
 1806 08fd 01       		.byte	0x1
 1807 08fe 36       		.byte	0x36
 1808 08ff 01       		.byte	0x1
 1809 0900 10090000 		.4byte	0x910
 1810 0904 1B       		.uleb128 0x1b
 1811 0905 D2040000 		.4byte	.LASF149
 1812 0909 01       		.byte	0x1
 1813 090a 36       		.byte	0x36
ARM GAS  /tmp/ccDk4sH7.s 			page 54


 1814 090b 25000000 		.4byte	0x25
 1815 090f 00       		.byte	0
 1816 0910 1C       		.uleb128 0x1c
 1817 0911 C2010000 		.4byte	.LASF150
 1818 0915 02       		.byte	0x2
 1819 0916 B001     		.2byte	0x1b0
 1820 0918 03       		.byte	0x3
 1821 0919 1D       		.uleb128 0x1d
 1822 091a F8080000 		.4byte	0x8f8
 1823 091e 00000000 		.4byte	.LFB272
 1824 0922 2C000000 		.4byte	.LFE272-.LFB272
 1825 0926 01       		.uleb128 0x1
 1826 0927 9C       		.byte	0x9c
 1827 0928 47090000 		.4byte	0x947
 1828 092c 1E       		.uleb128 0x1e
 1829 092d 04090000 		.4byte	0x904
 1830 0931 01       		.uleb128 0x1
 1831 0932 50       		.byte	0x50
 1832 0933 1F       		.uleb128 0x1f
 1833 0934 02000000 		.4byte	.LBB10
 1834 0938 16000000 		.4byte	.LBE10-.LBB10
 1835 093c 20       		.uleb128 0x20
 1836 093d 04090000 		.4byte	0x904
 1837 0941 00000000 		.4byte	.LLST0
 1838 0945 00       		.byte	0
 1839 0946 00       		.byte	0
 1840 0947 21       		.uleb128 0x21
 1841 0948 A4030000 		.4byte	.LASF134
 1842 094c 01       		.byte	0x1
 1843 094d 41       		.byte	0x41
 1844 094e 00000000 		.4byte	.LFB273
 1845 0952 14000000 		.4byte	.LFE273-.LFB273
 1846 0956 01       		.uleb128 0x1
 1847 0957 9C       		.byte	0x9c
 1848 0958 79090000 		.4byte	0x979
 1849 095c 22       		.uleb128 0x22
 1850 095d 39000000 		.4byte	.LASF136
 1851 0961 01       		.byte	0x1
 1852 0962 41       		.byte	0x41
 1853 0963 A2000000 		.4byte	0xa2
 1854 0967 01       		.uleb128 0x1
 1855 0968 50       		.byte	0x50
 1856 0969 23       		.uleb128 0x23
 1857 096a 10090000 		.4byte	0x910
 1858 096e 0A000000 		.4byte	.LBB12
 1859 0972 0A000000 		.4byte	.LBE12-.LBB12
 1860 0976 01       		.byte	0x1
 1861 0977 49       		.byte	0x49
 1862 0978 00       		.byte	0
 1863 0979 21       		.uleb128 0x21
 1864 097a 35010000 		.4byte	.LASF135
 1865 097e 01       		.byte	0x1
 1866 097f 4D       		.byte	0x4d
 1867 0980 00000000 		.4byte	.LFB274
 1868 0984 2C000000 		.4byte	.LFE274-.LFB274
 1869 0988 01       		.uleb128 0x1
 1870 0989 9C       		.byte	0x9c
ARM GAS  /tmp/ccDk4sH7.s 			page 55


 1871 098a BC090000 		.4byte	0x9bc
 1872 098e 24       		.uleb128 0x24
 1873 098f FB030000 		.4byte	.LASF137
 1874 0993 01       		.byte	0x1
 1875 0994 4D       		.byte	0x4d
 1876 0995 C3000000 		.4byte	0xc3
 1877 0999 13000000 		.4byte	.LLST1
 1878 099d 25       		.uleb128 0x25
 1879 099e 28010000 		.4byte	.LASF141
 1880 09a2 01       		.byte	0x1
 1881 09a3 4F       		.byte	0x4f
 1882 09a4 C3000000 		.4byte	0xc3
 1883 09a8 34000000 		.4byte	.LLST2
 1884 09ac 23       		.uleb128 0x23
 1885 09ad 10090000 		.4byte	0x910
 1886 09b1 16000000 		.4byte	.LBB14
 1887 09b5 02000000 		.4byte	.LBE14-.LBB14
 1888 09b9 01       		.byte	0x1
 1889 09ba 63       		.byte	0x63
 1890 09bb 00       		.byte	0
 1891 09bc 21       		.uleb128 0x21
 1892 09bd EB040000 		.4byte	.LASF138
 1893 09c1 01       		.byte	0x1
 1894 09c2 68       		.byte	0x68
 1895 09c3 00000000 		.4byte	.LFB275
 1896 09c7 28000000 		.4byte	.LFE275-.LFB275
 1897 09cb 01       		.uleb128 0x1
 1898 09cc 9C       		.byte	0x9c
 1899 09cd E1090000 		.4byte	0x9e1
 1900 09d1 23       		.uleb128 0x23
 1901 09d2 10090000 		.4byte	0x910
 1902 09d6 1C000000 		.4byte	.LBB16
 1903 09da 0C000000 		.4byte	.LBE16-.LBB16
 1904 09de 01       		.byte	0x1
 1905 09df 78       		.byte	0x78
 1906 09e0 00       		.byte	0
 1907 09e1 21       		.uleb128 0x21
 1908 09e2 00020000 		.4byte	.LASF139
 1909 09e6 01       		.byte	0x1
 1910 09e7 7C       		.byte	0x7c
 1911 09e8 00000000 		.4byte	.LFB276
 1912 09ec 34000000 		.4byte	.LFE276-.LFB276
 1913 09f0 01       		.uleb128 0x1
 1914 09f1 9C       		.byte	0x9c
 1915 09f2 110A0000 		.4byte	0xa11
 1916 09f6 22       		.uleb128 0x22
 1917 09f7 2F010000 		.4byte	.LASF140
 1918 09fb 01       		.byte	0x1
 1919 09fc 7C       		.byte	0x7c
 1920 09fd A2000000 		.4byte	0xa2
 1921 0a01 01       		.uleb128 0x1
 1922 0a02 50       		.byte	0x50
 1923 0a03 26       		.uleb128 0x26
 1924 0a04 6900     		.ascii	"i\000"
 1925 0a06 01       		.byte	0x1
 1926 0a07 7D       		.byte	0x7d
 1927 0a08 25000000 		.4byte	0x25
ARM GAS  /tmp/ccDk4sH7.s 			page 56


 1928 0a0c 5E000000 		.4byte	.LLST3
 1929 0a10 00       		.byte	0
 1930 0a11 27       		.uleb128 0x27
 1931 0a12 A8060000 		.4byte	.LASF151
 1932 0a16 01       		.byte	0x1
 1933 0a17 88       		.byte	0x88
 1934 0a18 25000000 		.4byte	0x25
 1935 0a1c 00000000 		.4byte	.LFB277
 1936 0a20 4C000000 		.4byte	.LFE277-.LFB277
 1937 0a24 01       		.uleb128 0x1
 1938 0a25 9C       		.byte	0x9c
 1939 0a26 E80A0000 		.4byte	0xae8
 1940 0a2a 28       		.uleb128 0x28
 1941 0a2b 06000000 		.4byte	.LVL14
 1942 0a2f 040B0000 		.4byte	0xb04
 1943 0a33 28       		.uleb128 0x28
 1944 0a34 0A000000 		.4byte	.LVL15
 1945 0a38 0B0B0000 		.4byte	0xb0b
 1946 0a3c 29       		.uleb128 0x29
 1947 0a3d 16000000 		.4byte	.LVL16
 1948 0a41 130B0000 		.4byte	0xb13
 1949 0a45 5F0A0000 		.4byte	0xa5f
 1950 0a49 2A       		.uleb128 0x2a
 1951 0a4a 01       		.uleb128 0x1
 1952 0a4b 52       		.byte	0x52
 1953 0a4c 01       		.uleb128 0x1
 1954 0a4d 31       		.byte	0x31
 1955 0a4e 2A       		.uleb128 0x2a
 1956 0a4f 01       		.uleb128 0x1
 1957 0a50 51       		.byte	0x51
 1958 0a51 03       		.uleb128 0x3
 1959 0a52 0A       		.byte	0xa
 1960 0a53 0008     		.2byte	0x800
 1961 0a55 2A       		.uleb128 0x2a
 1962 0a56 01       		.uleb128 0x1
 1963 0a57 50       		.byte	0x50
 1964 0a58 05       		.uleb128 0x5
 1965 0a59 0C       		.byte	0xc
 1966 0a5a 000C0048 		.4byte	0x48000c00
 1967 0a5e 00       		.byte	0
 1968 0a5f 29       		.uleb128 0x29
 1969 0a60 22000000 		.4byte	.LVL17
 1970 0a64 130B0000 		.4byte	0xb13
 1971 0a68 820A0000 		.4byte	0xa82
 1972 0a6c 2A       		.uleb128 0x2a
 1973 0a6d 01       		.uleb128 0x1
 1974 0a6e 52       		.byte	0x52
 1975 0a6f 01       		.uleb128 0x1
 1976 0a70 31       		.byte	0x31
 1977 0a71 2A       		.uleb128 0x2a
 1978 0a72 01       		.uleb128 0x1
 1979 0a73 51       		.byte	0x51
 1980 0a74 03       		.uleb128 0x3
 1981 0a75 0A       		.byte	0xa
 1982 0a76 0010     		.2byte	0x1000
 1983 0a78 2A       		.uleb128 0x2a
 1984 0a79 01       		.uleb128 0x1
ARM GAS  /tmp/ccDk4sH7.s 			page 57


 1985 0a7a 50       		.byte	0x50
 1986 0a7b 05       		.uleb128 0x5
 1987 0a7c 0C       		.byte	0xc
 1988 0a7d 000C0048 		.4byte	0x48000c00
 1989 0a81 00       		.byte	0
 1990 0a82 29       		.uleb128 0x29
 1991 0a83 2E000000 		.4byte	.LVL18
 1992 0a87 130B0000 		.4byte	0xb13
 1993 0a8b A50A0000 		.4byte	0xaa5
 1994 0a8f 2A       		.uleb128 0x2a
 1995 0a90 01       		.uleb128 0x1
 1996 0a91 52       		.byte	0x52
 1997 0a92 01       		.uleb128 0x1
 1998 0a93 31       		.byte	0x31
 1999 0a94 2A       		.uleb128 0x2a
 2000 0a95 01       		.uleb128 0x1
 2001 0a96 51       		.byte	0x51
 2002 0a97 03       		.uleb128 0x3
 2003 0a98 0A       		.byte	0xa
 2004 0a99 0020     		.2byte	0x2000
 2005 0a9b 2A       		.uleb128 0x2a
 2006 0a9c 01       		.uleb128 0x1
 2007 0a9d 50       		.byte	0x50
 2008 0a9e 05       		.uleb128 0x5
 2009 0a9f 0C       		.byte	0xc
 2010 0aa0 000C0048 		.4byte	0x48000c00
 2011 0aa4 00       		.byte	0
 2012 0aa5 29       		.uleb128 0x29
 2013 0aa6 3A000000 		.4byte	.LVL19
 2014 0aaa 130B0000 		.4byte	0xb13
 2015 0aae C80A0000 		.4byte	0xac8
 2016 0ab2 2A       		.uleb128 0x2a
 2017 0ab3 01       		.uleb128 0x1
 2018 0ab4 52       		.byte	0x52
 2019 0ab5 01       		.uleb128 0x1
 2020 0ab6 31       		.byte	0x31
 2021 0ab7 2A       		.uleb128 0x2a
 2022 0ab8 01       		.uleb128 0x1
 2023 0ab9 51       		.byte	0x51
 2024 0aba 03       		.uleb128 0x3
 2025 0abb 0A       		.byte	0xa
 2026 0abc 0040     		.2byte	0x4000
 2027 0abe 2A       		.uleb128 0x2a
 2028 0abf 01       		.uleb128 0x1
 2029 0ac0 50       		.byte	0x50
 2030 0ac1 05       		.uleb128 0x5
 2031 0ac2 0C       		.byte	0xc
 2032 0ac3 000C0048 		.4byte	0x48000c00
 2033 0ac7 00       		.byte	0
 2034 0ac8 2B       		.uleb128 0x2b
 2035 0ac9 46000000 		.4byte	.LVL20
 2036 0acd 130B0000 		.4byte	0xb13
 2037 0ad1 2A       		.uleb128 0x2a
 2038 0ad2 01       		.uleb128 0x1
 2039 0ad3 52       		.byte	0x52
 2040 0ad4 01       		.uleb128 0x1
 2041 0ad5 31       		.byte	0x31
ARM GAS  /tmp/ccDk4sH7.s 			page 58


 2042 0ad6 2A       		.uleb128 0x2a
 2043 0ad7 01       		.uleb128 0x1
 2044 0ad8 51       		.byte	0x51
 2045 0ad9 03       		.uleb128 0x3
 2046 0ada 0A       		.byte	0xa
 2047 0adb 0080     		.2byte	0x8000
 2048 0add 2A       		.uleb128 0x2a
 2049 0ade 01       		.uleb128 0x1
 2050 0adf 50       		.byte	0x50
 2051 0ae0 05       		.uleb128 0x5
 2052 0ae1 0C       		.byte	0xc
 2053 0ae2 000C0048 		.4byte	0x48000c00
 2054 0ae6 00       		.byte	0
 2055 0ae7 00       		.byte	0
 2056 0ae8 2C       		.uleb128 0x2c
 2057 0ae9 BD030000 		.4byte	.LASF142
 2058 0aed 08       		.byte	0x8
 2059 0aee FA06     		.2byte	0x6fa
 2060 0af0 F40A0000 		.4byte	0xaf4
 2061 0af4 0F       		.uleb128 0xf
 2062 0af5 B8000000 		.4byte	0xb8
 2063 0af9 2D       		.uleb128 0x2d
 2064 0afa 636800   		.ascii	"ch\000"
 2065 0afd 07       		.byte	0x7
 2066 0afe 0B02     		.2byte	0x20b
 2067 0b00 DE030000 		.4byte	0x3de
 2068 0b04 2E       		.uleb128 0x2e
 2069 0b05 0A020000 		.4byte	.LASF143
 2070 0b09 10       		.byte	0x10
 2071 0b0a 9B       		.byte	0x9b
 2072 0b0b 2F       		.uleb128 0x2f
 2073 0b0c FB000000 		.4byte	.LASF144
 2074 0b10 11       		.byte	0x11
 2075 0b11 1501     		.2byte	0x115
 2076 0b13 30       		.uleb128 0x30
 2077 0b14 5C050000 		.4byte	.LASF152
 2078 0b18 0F       		.byte	0xf
 2079 0b19 2402     		.2byte	0x224
 2080 0b1b 0C       		.uleb128 0xc
 2081 0b1c E6080000 		.4byte	0x8e6
 2082 0b20 0C       		.uleb128 0xc
 2083 0b21 CE080000 		.4byte	0x8ce
 2084 0b25 0C       		.uleb128 0xc
 2085 0b26 DA080000 		.4byte	0x8da
 2086 0b2a 00       		.byte	0
 2087 0b2b 00       		.byte	0
 2088              		.section	.debug_abbrev,"",%progbits
 2089              	.Ldebug_abbrev0:
 2090 0000 01       		.uleb128 0x1
 2091 0001 11       		.uleb128 0x11
 2092 0002 01       		.byte	0x1
 2093 0003 25       		.uleb128 0x25
 2094 0004 0E       		.uleb128 0xe
 2095 0005 13       		.uleb128 0x13
 2096 0006 0B       		.uleb128 0xb
 2097 0007 03       		.uleb128 0x3
 2098 0008 0E       		.uleb128 0xe
ARM GAS  /tmp/ccDk4sH7.s 			page 59


 2099 0009 1B       		.uleb128 0x1b
 2100 000a 0E       		.uleb128 0xe
 2101 000b 55       		.uleb128 0x55
 2102 000c 17       		.uleb128 0x17
 2103 000d 11       		.uleb128 0x11
 2104 000e 01       		.uleb128 0x1
 2105 000f 10       		.uleb128 0x10
 2106 0010 17       		.uleb128 0x17
 2107 0011 00       		.byte	0
 2108 0012 00       		.byte	0
 2109 0013 02       		.uleb128 0x2
 2110 0014 24       		.uleb128 0x24
 2111 0015 00       		.byte	0
 2112 0016 0B       		.uleb128 0xb
 2113 0017 0B       		.uleb128 0xb
 2114 0018 3E       		.uleb128 0x3e
 2115 0019 0B       		.uleb128 0xb
 2116 001a 03       		.uleb128 0x3
 2117 001b 08       		.uleb128 0x8
 2118 001c 00       		.byte	0
 2119 001d 00       		.byte	0
 2120 001e 03       		.uleb128 0x3
 2121 001f 24       		.uleb128 0x24
 2122 0020 00       		.byte	0
 2123 0021 0B       		.uleb128 0xb
 2124 0022 0B       		.uleb128 0xb
 2125 0023 3E       		.uleb128 0x3e
 2126 0024 0B       		.uleb128 0xb
 2127 0025 03       		.uleb128 0x3
 2128 0026 0E       		.uleb128 0xe
 2129 0027 00       		.byte	0
 2130 0028 00       		.byte	0
 2131 0029 04       		.uleb128 0x4
 2132 002a 16       		.uleb128 0x16
 2133 002b 00       		.byte	0
 2134 002c 03       		.uleb128 0x3
 2135 002d 0E       		.uleb128 0xe
 2136 002e 3A       		.uleb128 0x3a
 2137 002f 0B       		.uleb128 0xb
 2138 0030 3B       		.uleb128 0x3b
 2139 0031 0B       		.uleb128 0xb
 2140 0032 49       		.uleb128 0x49
 2141 0033 13       		.uleb128 0x13
 2142 0034 00       		.byte	0
 2143 0035 00       		.byte	0
 2144 0036 05       		.uleb128 0x5
 2145 0037 13       		.uleb128 0x13
 2146 0038 01       		.byte	0x1
 2147 0039 03       		.uleb128 0x3
 2148 003a 0E       		.uleb128 0xe
 2149 003b 0B       		.uleb128 0xb
 2150 003c 0B       		.uleb128 0xb
 2151 003d 3A       		.uleb128 0x3a
 2152 003e 0B       		.uleb128 0xb
 2153 003f 3B       		.uleb128 0x3b
 2154 0040 0B       		.uleb128 0xb
 2155 0041 01       		.uleb128 0x1
ARM GAS  /tmp/ccDk4sH7.s 			page 60


 2156 0042 13       		.uleb128 0x13
 2157 0043 00       		.byte	0
 2158 0044 00       		.byte	0
 2159 0045 06       		.uleb128 0x6
 2160 0046 0D       		.uleb128 0xd
 2161 0047 00       		.byte	0
 2162 0048 03       		.uleb128 0x3
 2163 0049 0E       		.uleb128 0xe
 2164 004a 3A       		.uleb128 0x3a
 2165 004b 0B       		.uleb128 0xb
 2166 004c 3B       		.uleb128 0x3b
 2167 004d 0B       		.uleb128 0xb
 2168 004e 49       		.uleb128 0x49
 2169 004f 13       		.uleb128 0x13
 2170 0050 38       		.uleb128 0x38
 2171 0051 0B       		.uleb128 0xb
 2172 0052 00       		.byte	0
 2173 0053 00       		.byte	0
 2174 0054 07       		.uleb128 0x7
 2175 0055 0D       		.uleb128 0xd
 2176 0056 00       		.byte	0
 2177 0057 03       		.uleb128 0x3
 2178 0058 08       		.uleb128 0x8
 2179 0059 3A       		.uleb128 0x3a
 2180 005a 0B       		.uleb128 0xb
 2181 005b 3B       		.uleb128 0x3b
 2182 005c 05       		.uleb128 0x5
 2183 005d 49       		.uleb128 0x49
 2184 005e 13       		.uleb128 0x13
 2185 005f 38       		.uleb128 0x38
 2186 0060 0B       		.uleb128 0xb
 2187 0061 00       		.byte	0
 2188 0062 00       		.byte	0
 2189 0063 08       		.uleb128 0x8
 2190 0064 0D       		.uleb128 0xd
 2191 0065 00       		.byte	0
 2192 0066 03       		.uleb128 0x3
 2193 0067 0E       		.uleb128 0xe
 2194 0068 3A       		.uleb128 0x3a
 2195 0069 0B       		.uleb128 0xb
 2196 006a 3B       		.uleb128 0x3b
 2197 006b 05       		.uleb128 0x5
 2198 006c 49       		.uleb128 0x49
 2199 006d 13       		.uleb128 0x13
 2200 006e 38       		.uleb128 0x38
 2201 006f 0B       		.uleb128 0xb
 2202 0070 00       		.byte	0
 2203 0071 00       		.byte	0
 2204 0072 09       		.uleb128 0x9
 2205 0073 0F       		.uleb128 0xf
 2206 0074 00       		.byte	0
 2207 0075 0B       		.uleb128 0xb
 2208 0076 0B       		.uleb128 0xb
 2209 0077 49       		.uleb128 0x49
 2210 0078 13       		.uleb128 0x13
 2211 0079 00       		.byte	0
 2212 007a 00       		.byte	0
ARM GAS  /tmp/ccDk4sH7.s 			page 61


 2213 007b 0A       		.uleb128 0xa
 2214 007c 13       		.uleb128 0x13
 2215 007d 01       		.byte	0x1
 2216 007e 03       		.uleb128 0x3
 2217 007f 0E       		.uleb128 0xe
 2218 0080 0B       		.uleb128 0xb
 2219 0081 0B       		.uleb128 0xb
 2220 0082 3A       		.uleb128 0x3a
 2221 0083 0B       		.uleb128 0xb
 2222 0084 3B       		.uleb128 0x3b
 2223 0085 05       		.uleb128 0x5
 2224 0086 01       		.uleb128 0x1
 2225 0087 13       		.uleb128 0x13
 2226 0088 00       		.byte	0
 2227 0089 00       		.byte	0
 2228 008a 0B       		.uleb128 0xb
 2229 008b 15       		.uleb128 0x15
 2230 008c 01       		.byte	0x1
 2231 008d 27       		.uleb128 0x27
 2232 008e 19       		.uleb128 0x19
 2233 008f 01       		.uleb128 0x1
 2234 0090 13       		.uleb128 0x13
 2235 0091 00       		.byte	0
 2236 0092 00       		.byte	0
 2237 0093 0C       		.uleb128 0xc
 2238 0094 05       		.uleb128 0x5
 2239 0095 00       		.byte	0
 2240 0096 49       		.uleb128 0x49
 2241 0097 13       		.uleb128 0x13
 2242 0098 00       		.byte	0
 2243 0099 00       		.byte	0
 2244 009a 0D       		.uleb128 0xd
 2245 009b 0F       		.uleb128 0xf
 2246 009c 00       		.byte	0
 2247 009d 0B       		.uleb128 0xb
 2248 009e 0B       		.uleb128 0xb
 2249 009f 00       		.byte	0
 2250 00a0 00       		.byte	0
 2251 00a1 0E       		.uleb128 0xe
 2252 00a2 13       		.uleb128 0x13
 2253 00a3 01       		.byte	0x1
 2254 00a4 03       		.uleb128 0x3
 2255 00a5 0E       		.uleb128 0xe
 2256 00a6 0B       		.uleb128 0xb
 2257 00a7 05       		.uleb128 0x5
 2258 00a8 3A       		.uleb128 0x3a
 2259 00a9 0B       		.uleb128 0xb
 2260 00aa 3B       		.uleb128 0x3b
 2261 00ab 05       		.uleb128 0x5
 2262 00ac 01       		.uleb128 0x1
 2263 00ad 13       		.uleb128 0x13
 2264 00ae 00       		.byte	0
 2265 00af 00       		.byte	0
 2266 00b0 0F       		.uleb128 0xf
 2267 00b1 35       		.uleb128 0x35
 2268 00b2 00       		.byte	0
 2269 00b3 49       		.uleb128 0x49
ARM GAS  /tmp/ccDk4sH7.s 			page 62


 2270 00b4 13       		.uleb128 0x13
 2271 00b5 00       		.byte	0
 2272 00b6 00       		.byte	0
 2273 00b7 10       		.uleb128 0x10
 2274 00b8 13       		.uleb128 0x13
 2275 00b9 01       		.byte	0x1
 2276 00ba 0B       		.uleb128 0xb
 2277 00bb 0B       		.uleb128 0xb
 2278 00bc 3A       		.uleb128 0x3a
 2279 00bd 0B       		.uleb128 0xb
 2280 00be 3B       		.uleb128 0x3b
 2281 00bf 05       		.uleb128 0x5
 2282 00c0 01       		.uleb128 0x1
 2283 00c1 13       		.uleb128 0x13
 2284 00c2 00       		.byte	0
 2285 00c3 00       		.byte	0
 2286 00c4 11       		.uleb128 0x11
 2287 00c5 26       		.uleb128 0x26
 2288 00c6 00       		.byte	0
 2289 00c7 49       		.uleb128 0x49
 2290 00c8 13       		.uleb128 0x13
 2291 00c9 00       		.byte	0
 2292 00ca 00       		.byte	0
 2293 00cb 12       		.uleb128 0x12
 2294 00cc 01       		.uleb128 0x1
 2295 00cd 01       		.byte	0x1
 2296 00ce 49       		.uleb128 0x49
 2297 00cf 13       		.uleb128 0x13
 2298 00d0 01       		.uleb128 0x1
 2299 00d1 13       		.uleb128 0x13
 2300 00d2 00       		.byte	0
 2301 00d3 00       		.byte	0
 2302 00d4 13       		.uleb128 0x13
 2303 00d5 21       		.uleb128 0x21
 2304 00d6 00       		.byte	0
 2305 00d7 49       		.uleb128 0x49
 2306 00d8 13       		.uleb128 0x13
 2307 00d9 2F       		.uleb128 0x2f
 2308 00da 0B       		.uleb128 0xb
 2309 00db 00       		.byte	0
 2310 00dc 00       		.byte	0
 2311 00dd 14       		.uleb128 0x14
 2312 00de 16       		.uleb128 0x16
 2313 00df 00       		.byte	0
 2314 00e0 03       		.uleb128 0x3
 2315 00e1 0E       		.uleb128 0xe
 2316 00e2 3A       		.uleb128 0x3a
 2317 00e3 0B       		.uleb128 0xb
 2318 00e4 3B       		.uleb128 0x3b
 2319 00e5 05       		.uleb128 0x5
 2320 00e6 49       		.uleb128 0x49
 2321 00e7 13       		.uleb128 0x13
 2322 00e8 00       		.byte	0
 2323 00e9 00       		.byte	0
 2324 00ea 15       		.uleb128 0x15
 2325 00eb 0D       		.uleb128 0xd
 2326 00ec 00       		.byte	0
ARM GAS  /tmp/ccDk4sH7.s 			page 63


 2327 00ed 03       		.uleb128 0x3
 2328 00ee 08       		.uleb128 0x8
 2329 00ef 3A       		.uleb128 0x3a
 2330 00f0 0B       		.uleb128 0xb
 2331 00f1 3B       		.uleb128 0x3b
 2332 00f2 0B       		.uleb128 0xb
 2333 00f3 49       		.uleb128 0x49
 2334 00f4 13       		.uleb128 0x13
 2335 00f5 38       		.uleb128 0x38
 2336 00f6 0B       		.uleb128 0xb
 2337 00f7 00       		.byte	0
 2338 00f8 00       		.byte	0
 2339 00f9 16       		.uleb128 0x16
 2340 00fa 13       		.uleb128 0x13
 2341 00fb 01       		.byte	0x1
 2342 00fc 0B       		.uleb128 0xb
 2343 00fd 0B       		.uleb128 0xb
 2344 00fe 3A       		.uleb128 0x3a
 2345 00ff 0B       		.uleb128 0xb
 2346 0100 3B       		.uleb128 0x3b
 2347 0101 0B       		.uleb128 0xb
 2348 0102 01       		.uleb128 0x1
 2349 0103 13       		.uleb128 0x13
 2350 0104 00       		.byte	0
 2351 0105 00       		.byte	0
 2352 0106 17       		.uleb128 0x17
 2353 0107 17       		.uleb128 0x17
 2354 0108 01       		.byte	0x1
 2355 0109 0B       		.uleb128 0xb
 2356 010a 0B       		.uleb128 0xb
 2357 010b 3A       		.uleb128 0x3a
 2358 010c 0B       		.uleb128 0xb
 2359 010d 3B       		.uleb128 0x3b
 2360 010e 0B       		.uleb128 0xb
 2361 010f 01       		.uleb128 0x1
 2362 0110 13       		.uleb128 0x13
 2363 0111 00       		.byte	0
 2364 0112 00       		.byte	0
 2365 0113 18       		.uleb128 0x18
 2366 0114 0D       		.uleb128 0xd
 2367 0115 00       		.byte	0
 2368 0116 03       		.uleb128 0x3
 2369 0117 0E       		.uleb128 0xe
 2370 0118 3A       		.uleb128 0x3a
 2371 0119 0B       		.uleb128 0xb
 2372 011a 3B       		.uleb128 0x3b
 2373 011b 05       		.uleb128 0x5
 2374 011c 49       		.uleb128 0x49
 2375 011d 13       		.uleb128 0x13
 2376 011e 00       		.byte	0
 2377 011f 00       		.byte	0
 2378 0120 19       		.uleb128 0x19
 2379 0121 0D       		.uleb128 0xd
 2380 0122 00       		.byte	0
 2381 0123 03       		.uleb128 0x3
 2382 0124 08       		.uleb128 0x8
 2383 0125 3A       		.uleb128 0x3a
ARM GAS  /tmp/ccDk4sH7.s 			page 64


 2384 0126 0B       		.uleb128 0xb
 2385 0127 3B       		.uleb128 0x3b
 2386 0128 0B       		.uleb128 0xb
 2387 0129 49       		.uleb128 0x49
 2388 012a 13       		.uleb128 0x13
 2389 012b 00       		.byte	0
 2390 012c 00       		.byte	0
 2391 012d 1A       		.uleb128 0x1a
 2392 012e 2E       		.uleb128 0x2e
 2393 012f 01       		.byte	0x1
 2394 0130 3F       		.uleb128 0x3f
 2395 0131 19       		.uleb128 0x19
 2396 0132 03       		.uleb128 0x3
 2397 0133 0E       		.uleb128 0xe
 2398 0134 3A       		.uleb128 0x3a
 2399 0135 0B       		.uleb128 0xb
 2400 0136 3B       		.uleb128 0x3b
 2401 0137 0B       		.uleb128 0xb
 2402 0138 27       		.uleb128 0x27
 2403 0139 19       		.uleb128 0x19
 2404 013a 20       		.uleb128 0x20
 2405 013b 0B       		.uleb128 0xb
 2406 013c 01       		.uleb128 0x1
 2407 013d 13       		.uleb128 0x13
 2408 013e 00       		.byte	0
 2409 013f 00       		.byte	0
 2410 0140 1B       		.uleb128 0x1b
 2411 0141 05       		.uleb128 0x5
 2412 0142 00       		.byte	0
 2413 0143 03       		.uleb128 0x3
 2414 0144 0E       		.uleb128 0xe
 2415 0145 3A       		.uleb128 0x3a
 2416 0146 0B       		.uleb128 0xb
 2417 0147 3B       		.uleb128 0x3b
 2418 0148 0B       		.uleb128 0xb
 2419 0149 49       		.uleb128 0x49
 2420 014a 13       		.uleb128 0x13
 2421 014b 00       		.byte	0
 2422 014c 00       		.byte	0
 2423 014d 1C       		.uleb128 0x1c
 2424 014e 2E       		.uleb128 0x2e
 2425 014f 00       		.byte	0
 2426 0150 03       		.uleb128 0x3
 2427 0151 0E       		.uleb128 0xe
 2428 0152 3A       		.uleb128 0x3a
 2429 0153 0B       		.uleb128 0xb
 2430 0154 3B       		.uleb128 0x3b
 2431 0155 05       		.uleb128 0x5
 2432 0156 27       		.uleb128 0x27
 2433 0157 19       		.uleb128 0x19
 2434 0158 20       		.uleb128 0x20
 2435 0159 0B       		.uleb128 0xb
 2436 015a 00       		.byte	0
 2437 015b 00       		.byte	0
 2438 015c 1D       		.uleb128 0x1d
 2439 015d 2E       		.uleb128 0x2e
 2440 015e 01       		.byte	0x1
ARM GAS  /tmp/ccDk4sH7.s 			page 65


 2441 015f 31       		.uleb128 0x31
 2442 0160 13       		.uleb128 0x13
 2443 0161 11       		.uleb128 0x11
 2444 0162 01       		.uleb128 0x1
 2445 0163 12       		.uleb128 0x12
 2446 0164 06       		.uleb128 0x6
 2447 0165 40       		.uleb128 0x40
 2448 0166 18       		.uleb128 0x18
 2449 0167 9742     		.uleb128 0x2117
 2450 0169 19       		.uleb128 0x19
 2451 016a 01       		.uleb128 0x1
 2452 016b 13       		.uleb128 0x13
 2453 016c 00       		.byte	0
 2454 016d 00       		.byte	0
 2455 016e 1E       		.uleb128 0x1e
 2456 016f 05       		.uleb128 0x5
 2457 0170 00       		.byte	0
 2458 0171 31       		.uleb128 0x31
 2459 0172 13       		.uleb128 0x13
 2460 0173 02       		.uleb128 0x2
 2461 0174 18       		.uleb128 0x18
 2462 0175 00       		.byte	0
 2463 0176 00       		.byte	0
 2464 0177 1F       		.uleb128 0x1f
 2465 0178 0B       		.uleb128 0xb
 2466 0179 01       		.byte	0x1
 2467 017a 11       		.uleb128 0x11
 2468 017b 01       		.uleb128 0x1
 2469 017c 12       		.uleb128 0x12
 2470 017d 06       		.uleb128 0x6
 2471 017e 00       		.byte	0
 2472 017f 00       		.byte	0
 2473 0180 20       		.uleb128 0x20
 2474 0181 05       		.uleb128 0x5
 2475 0182 00       		.byte	0
 2476 0183 31       		.uleb128 0x31
 2477 0184 13       		.uleb128 0x13
 2478 0185 02       		.uleb128 0x2
 2479 0186 17       		.uleb128 0x17
 2480 0187 00       		.byte	0
 2481 0188 00       		.byte	0
 2482 0189 21       		.uleb128 0x21
 2483 018a 2E       		.uleb128 0x2e
 2484 018b 01       		.byte	0x1
 2485 018c 3F       		.uleb128 0x3f
 2486 018d 19       		.uleb128 0x19
 2487 018e 03       		.uleb128 0x3
 2488 018f 0E       		.uleb128 0xe
 2489 0190 3A       		.uleb128 0x3a
 2490 0191 0B       		.uleb128 0xb
 2491 0192 3B       		.uleb128 0x3b
 2492 0193 0B       		.uleb128 0xb
 2493 0194 27       		.uleb128 0x27
 2494 0195 19       		.uleb128 0x19
 2495 0196 11       		.uleb128 0x11
 2496 0197 01       		.uleb128 0x1
 2497 0198 12       		.uleb128 0x12
ARM GAS  /tmp/ccDk4sH7.s 			page 66


 2498 0199 06       		.uleb128 0x6
 2499 019a 40       		.uleb128 0x40
 2500 019b 18       		.uleb128 0x18
 2501 019c 9742     		.uleb128 0x2117
 2502 019e 19       		.uleb128 0x19
 2503 019f 01       		.uleb128 0x1
 2504 01a0 13       		.uleb128 0x13
 2505 01a1 00       		.byte	0
 2506 01a2 00       		.byte	0
 2507 01a3 22       		.uleb128 0x22
 2508 01a4 05       		.uleb128 0x5
 2509 01a5 00       		.byte	0
 2510 01a6 03       		.uleb128 0x3
 2511 01a7 0E       		.uleb128 0xe
 2512 01a8 3A       		.uleb128 0x3a
 2513 01a9 0B       		.uleb128 0xb
 2514 01aa 3B       		.uleb128 0x3b
 2515 01ab 0B       		.uleb128 0xb
 2516 01ac 49       		.uleb128 0x49
 2517 01ad 13       		.uleb128 0x13
 2518 01ae 02       		.uleb128 0x2
 2519 01af 18       		.uleb128 0x18
 2520 01b0 00       		.byte	0
 2521 01b1 00       		.byte	0
 2522 01b2 23       		.uleb128 0x23
 2523 01b3 1D       		.uleb128 0x1d
 2524 01b4 00       		.byte	0
 2525 01b5 31       		.uleb128 0x31
 2526 01b6 13       		.uleb128 0x13
 2527 01b7 11       		.uleb128 0x11
 2528 01b8 01       		.uleb128 0x1
 2529 01b9 12       		.uleb128 0x12
 2530 01ba 06       		.uleb128 0x6
 2531 01bb 58       		.uleb128 0x58
 2532 01bc 0B       		.uleb128 0xb
 2533 01bd 59       		.uleb128 0x59
 2534 01be 0B       		.uleb128 0xb
 2535 01bf 00       		.byte	0
 2536 01c0 00       		.byte	0
 2537 01c1 24       		.uleb128 0x24
 2538 01c2 05       		.uleb128 0x5
 2539 01c3 00       		.byte	0
 2540 01c4 03       		.uleb128 0x3
 2541 01c5 0E       		.uleb128 0xe
 2542 01c6 3A       		.uleb128 0x3a
 2543 01c7 0B       		.uleb128 0xb
 2544 01c8 3B       		.uleb128 0x3b
 2545 01c9 0B       		.uleb128 0xb
 2546 01ca 49       		.uleb128 0x49
 2547 01cb 13       		.uleb128 0x13
 2548 01cc 02       		.uleb128 0x2
 2549 01cd 17       		.uleb128 0x17
 2550 01ce 00       		.byte	0
 2551 01cf 00       		.byte	0
 2552 01d0 25       		.uleb128 0x25
 2553 01d1 34       		.uleb128 0x34
 2554 01d2 00       		.byte	0
ARM GAS  /tmp/ccDk4sH7.s 			page 67


 2555 01d3 03       		.uleb128 0x3
 2556 01d4 0E       		.uleb128 0xe
 2557 01d5 3A       		.uleb128 0x3a
 2558 01d6 0B       		.uleb128 0xb
 2559 01d7 3B       		.uleb128 0x3b
 2560 01d8 0B       		.uleb128 0xb
 2561 01d9 49       		.uleb128 0x49
 2562 01da 13       		.uleb128 0x13
 2563 01db 02       		.uleb128 0x2
 2564 01dc 17       		.uleb128 0x17
 2565 01dd 00       		.byte	0
 2566 01de 00       		.byte	0
 2567 01df 26       		.uleb128 0x26
 2568 01e0 34       		.uleb128 0x34
 2569 01e1 00       		.byte	0
 2570 01e2 03       		.uleb128 0x3
 2571 01e3 08       		.uleb128 0x8
 2572 01e4 3A       		.uleb128 0x3a
 2573 01e5 0B       		.uleb128 0xb
 2574 01e6 3B       		.uleb128 0x3b
 2575 01e7 0B       		.uleb128 0xb
 2576 01e8 49       		.uleb128 0x49
 2577 01e9 13       		.uleb128 0x13
 2578 01ea 02       		.uleb128 0x2
 2579 01eb 17       		.uleb128 0x17
 2580 01ec 00       		.byte	0
 2581 01ed 00       		.byte	0
 2582 01ee 27       		.uleb128 0x27
 2583 01ef 2E       		.uleb128 0x2e
 2584 01f0 01       		.byte	0x1
 2585 01f1 3F       		.uleb128 0x3f
 2586 01f2 19       		.uleb128 0x19
 2587 01f3 03       		.uleb128 0x3
 2588 01f4 0E       		.uleb128 0xe
 2589 01f5 3A       		.uleb128 0x3a
 2590 01f6 0B       		.uleb128 0xb
 2591 01f7 3B       		.uleb128 0x3b
 2592 01f8 0B       		.uleb128 0xb
 2593 01f9 27       		.uleb128 0x27
 2594 01fa 19       		.uleb128 0x19
 2595 01fb 49       		.uleb128 0x49
 2596 01fc 13       		.uleb128 0x13
 2597 01fd 11       		.uleb128 0x11
 2598 01fe 01       		.uleb128 0x1
 2599 01ff 12       		.uleb128 0x12
 2600 0200 06       		.uleb128 0x6
 2601 0201 40       		.uleb128 0x40
 2602 0202 18       		.uleb128 0x18
 2603 0203 9742     		.uleb128 0x2117
 2604 0205 19       		.uleb128 0x19
 2605 0206 01       		.uleb128 0x1
 2606 0207 13       		.uleb128 0x13
 2607 0208 00       		.byte	0
 2608 0209 00       		.byte	0
 2609 020a 28       		.uleb128 0x28
 2610 020b 898201   		.uleb128 0x4109
 2611 020e 00       		.byte	0
ARM GAS  /tmp/ccDk4sH7.s 			page 68


 2612 020f 11       		.uleb128 0x11
 2613 0210 01       		.uleb128 0x1
 2614 0211 31       		.uleb128 0x31
 2615 0212 13       		.uleb128 0x13
 2616 0213 00       		.byte	0
 2617 0214 00       		.byte	0
 2618 0215 29       		.uleb128 0x29
 2619 0216 898201   		.uleb128 0x4109
 2620 0219 01       		.byte	0x1
 2621 021a 11       		.uleb128 0x11
 2622 021b 01       		.uleb128 0x1
 2623 021c 31       		.uleb128 0x31
 2624 021d 13       		.uleb128 0x13
 2625 021e 01       		.uleb128 0x1
 2626 021f 13       		.uleb128 0x13
 2627 0220 00       		.byte	0
 2628 0221 00       		.byte	0
 2629 0222 2A       		.uleb128 0x2a
 2630 0223 8A8201   		.uleb128 0x410a
 2631 0226 00       		.byte	0
 2632 0227 02       		.uleb128 0x2
 2633 0228 18       		.uleb128 0x18
 2634 0229 9142     		.uleb128 0x2111
 2635 022b 18       		.uleb128 0x18
 2636 022c 00       		.byte	0
 2637 022d 00       		.byte	0
 2638 022e 2B       		.uleb128 0x2b
 2639 022f 898201   		.uleb128 0x4109
 2640 0232 01       		.byte	0x1
 2641 0233 11       		.uleb128 0x11
 2642 0234 01       		.uleb128 0x1
 2643 0235 31       		.uleb128 0x31
 2644 0236 13       		.uleb128 0x13
 2645 0237 00       		.byte	0
 2646 0238 00       		.byte	0
 2647 0239 2C       		.uleb128 0x2c
 2648 023a 34       		.uleb128 0x34
 2649 023b 00       		.byte	0
 2650 023c 03       		.uleb128 0x3
 2651 023d 0E       		.uleb128 0xe
 2652 023e 3A       		.uleb128 0x3a
 2653 023f 0B       		.uleb128 0xb
 2654 0240 3B       		.uleb128 0x3b
 2655 0241 05       		.uleb128 0x5
 2656 0242 49       		.uleb128 0x49
 2657 0243 13       		.uleb128 0x13
 2658 0244 3F       		.uleb128 0x3f
 2659 0245 19       		.uleb128 0x19
 2660 0246 3C       		.uleb128 0x3c
 2661 0247 19       		.uleb128 0x19
 2662 0248 00       		.byte	0
 2663 0249 00       		.byte	0
 2664 024a 2D       		.uleb128 0x2d
 2665 024b 34       		.uleb128 0x34
 2666 024c 00       		.byte	0
 2667 024d 03       		.uleb128 0x3
 2668 024e 08       		.uleb128 0x8
ARM GAS  /tmp/ccDk4sH7.s 			page 69


 2669 024f 3A       		.uleb128 0x3a
 2670 0250 0B       		.uleb128 0xb
 2671 0251 3B       		.uleb128 0x3b
 2672 0252 05       		.uleb128 0x5
 2673 0253 49       		.uleb128 0x49
 2674 0254 13       		.uleb128 0x13
 2675 0255 3F       		.uleb128 0x3f
 2676 0256 19       		.uleb128 0x19
 2677 0257 3C       		.uleb128 0x3c
 2678 0258 19       		.uleb128 0x19
 2679 0259 00       		.byte	0
 2680 025a 00       		.byte	0
 2681 025b 2E       		.uleb128 0x2e
 2682 025c 2E       		.uleb128 0x2e
 2683 025d 00       		.byte	0
 2684 025e 3F       		.uleb128 0x3f
 2685 025f 19       		.uleb128 0x19
 2686 0260 03       		.uleb128 0x3
 2687 0261 0E       		.uleb128 0xe
 2688 0262 3A       		.uleb128 0x3a
 2689 0263 0B       		.uleb128 0xb
 2690 0264 3B       		.uleb128 0x3b
 2691 0265 0B       		.uleb128 0xb
 2692 0266 27       		.uleb128 0x27
 2693 0267 19       		.uleb128 0x19
 2694 0268 3C       		.uleb128 0x3c
 2695 0269 19       		.uleb128 0x19
 2696 026a 00       		.byte	0
 2697 026b 00       		.byte	0
 2698 026c 2F       		.uleb128 0x2f
 2699 026d 2E       		.uleb128 0x2e
 2700 026e 00       		.byte	0
 2701 026f 3F       		.uleb128 0x3f
 2702 0270 19       		.uleb128 0x19
 2703 0271 03       		.uleb128 0x3
 2704 0272 0E       		.uleb128 0xe
 2705 0273 3A       		.uleb128 0x3a
 2706 0274 0B       		.uleb128 0xb
 2707 0275 3B       		.uleb128 0x3b
 2708 0276 05       		.uleb128 0x5
 2709 0277 27       		.uleb128 0x27
 2710 0278 19       		.uleb128 0x19
 2711 0279 3C       		.uleb128 0x3c
 2712 027a 19       		.uleb128 0x19
 2713 027b 00       		.byte	0
 2714 027c 00       		.byte	0
 2715 027d 30       		.uleb128 0x30
 2716 027e 2E       		.uleb128 0x2e
 2717 027f 01       		.byte	0x1
 2718 0280 3F       		.uleb128 0x3f
 2719 0281 19       		.uleb128 0x19
 2720 0282 03       		.uleb128 0x3
 2721 0283 0E       		.uleb128 0xe
 2722 0284 3A       		.uleb128 0x3a
 2723 0285 0B       		.uleb128 0xb
 2724 0286 3B       		.uleb128 0x3b
 2725 0287 05       		.uleb128 0x5
ARM GAS  /tmp/ccDk4sH7.s 			page 70


 2726 0288 27       		.uleb128 0x27
 2727 0289 19       		.uleb128 0x19
 2728 028a 3C       		.uleb128 0x3c
 2729 028b 19       		.uleb128 0x19
 2730 028c 00       		.byte	0
 2731 028d 00       		.byte	0
 2732 028e 00       		.byte	0
 2733              		.section	.debug_loc,"",%progbits
 2734              	.Ldebug_loc0:
 2735              	.LLST0:
 2736 0000 02000000 		.4byte	.LVL1
 2737 0004 18000000 		.4byte	.LVL2
 2738 0008 0100     		.2byte	0x1
 2739 000a 50       		.byte	0x50
 2740 000b 00000000 		.4byte	0
 2741 000f 00000000 		.4byte	0
 2742              	.LLST1:
 2743 0013 00000000 		.4byte	.LVL4
 2744 0017 0C000000 		.4byte	.LVL7
 2745 001b 0100     		.2byte	0x1
 2746 001d 50       		.byte	0x50
 2747 001e 0C000000 		.4byte	.LVL7
 2748 0022 2C000000 		.4byte	.LFE274
 2749 0026 0400     		.2byte	0x4
 2750 0028 F3       		.byte	0xf3
 2751 0029 01       		.uleb128 0x1
 2752 002a 50       		.byte	0x50
 2753 002b 9F       		.byte	0x9f
 2754 002c 00000000 		.4byte	0
 2755 0030 00000000 		.4byte	0
 2756              	.LLST2:
 2757 0034 00000000 		.4byte	.LVL4
 2758 0038 06000000 		.4byte	.LVL5
 2759 003c 0200     		.2byte	0x2
 2760 003e 30       		.byte	0x30
 2761 003f 9F       		.byte	0x9f
 2762 0040 06000000 		.4byte	.LVL5
 2763 0044 0C000000 		.4byte	.LVL7
 2764 0048 0100     		.2byte	0x1
 2765 004a 51       		.byte	0x51
 2766 004b 0C000000 		.4byte	.LVL7
 2767 004f 2C000000 		.4byte	.LFE274
 2768 0053 0100     		.2byte	0x1
 2769 0055 50       		.byte	0x50
 2770 0056 00000000 		.4byte	0
 2771 005a 00000000 		.4byte	0
 2772              	.LLST3:
 2773 005e 00000000 		.4byte	.LVL8
 2774 0062 08000000 		.4byte	.LVL9
 2775 0066 0200     		.2byte	0x2
 2776 0068 30       		.byte	0x30
 2777 0069 9F       		.byte	0x9f
 2778 006a 08000000 		.4byte	.LVL9
 2779 006e 0C000000 		.4byte	.LVL10
 2780 0072 0300     		.2byte	0x3
 2781 0074 73       		.byte	0x73
 2782 0075 75       		.sleb128 -11
ARM GAS  /tmp/ccDk4sH7.s 			page 71


 2783 0076 9F       		.byte	0x9f
 2784 0077 0C000000 		.4byte	.LVL10
 2785 007b 10000000 		.4byte	.LVL11
 2786 007f 0100     		.2byte	0x1
 2787 0081 52       		.byte	0x52
 2788 0082 10000000 		.4byte	.LVL11
 2789 0086 1E000000 		.4byte	.LVL12
 2790 008a 0300     		.2byte	0x3
 2791 008c 73       		.byte	0x73
 2792 008d 75       		.sleb128 -11
 2793 008e 9F       		.byte	0x9f
 2794 008f 1E000000 		.4byte	.LVL12
 2795 0093 24000000 		.4byte	.LVL13
 2796 0097 0300     		.2byte	0x3
 2797 0099 73       		.byte	0x73
 2798 009a 74       		.sleb128 -12
 2799 009b 9F       		.byte	0x9f
 2800 009c 00000000 		.4byte	0
 2801 00a0 00000000 		.4byte	0
 2802              		.section	.debug_aranges,"",%progbits
 2803 0000 44000000 		.4byte	0x44
 2804 0004 0200     		.2byte	0x2
 2805 0006 00000000 		.4byte	.Ldebug_info0
 2806 000a 04       		.byte	0x4
 2807 000b 00       		.byte	0
 2808 000c 0000     		.2byte	0
 2809 000e 0000     		.2byte	0
 2810 0010 00000000 		.4byte	.LFB272
 2811 0014 2C000000 		.4byte	.LFE272-.LFB272
 2812 0018 00000000 		.4byte	.LFB273
 2813 001c 14000000 		.4byte	.LFE273-.LFB273
 2814 0020 00000000 		.4byte	.LFB274
 2815 0024 2C000000 		.4byte	.LFE274-.LFB274
 2816 0028 00000000 		.4byte	.LFB275
 2817 002c 28000000 		.4byte	.LFE275-.LFB275
 2818 0030 00000000 		.4byte	.LFB276
 2819 0034 34000000 		.4byte	.LFE276-.LFB276
 2820 0038 00000000 		.4byte	.LFB277
 2821 003c 4C000000 		.4byte	.LFE277-.LFB277
 2822 0040 00000000 		.4byte	0
 2823 0044 00000000 		.4byte	0
 2824              		.section	.debug_ranges,"",%progbits
 2825              	.Ldebug_ranges0:
 2826 0000 00000000 		.4byte	.LFB272
 2827 0004 2C000000 		.4byte	.LFE272
 2828 0008 00000000 		.4byte	.LFB273
 2829 000c 14000000 		.4byte	.LFE273
 2830 0010 00000000 		.4byte	.LFB274
 2831 0014 2C000000 		.4byte	.LFE274
 2832 0018 00000000 		.4byte	.LFB275
 2833 001c 28000000 		.4byte	.LFE275
 2834 0020 00000000 		.4byte	.LFB276
 2835 0024 34000000 		.4byte	.LFE276
 2836 0028 00000000 		.4byte	.LFB277
 2837 002c 4C000000 		.4byte	.LFE277
 2838 0030 00000000 		.4byte	0
 2839 0034 00000000 		.4byte	0
ARM GAS  /tmp/ccDk4sH7.s 			page 72


 2840              		.section	.debug_line,"",%progbits
 2841              	.Ldebug_line0:
 2842 0000 64030000 		.section	.debug_str,"MS",%progbits,1
 2842      0200BB02 
 2842      00000201 
 2842      FB0E0D00 
 2842      01010101 
 2843              	.LASF51:
 2844 0000 72656164 		.ascii	"ready_list_t\000"
 2844      795F6C69 
 2844      73745F74 
 2844      00
 2845              	.LASF106:
 2846 000d 77747472 		.ascii	"wttrp\000"
 2846      7000
 2847              	.LASF103:
 2848 0013 7264796D 		.ascii	"rdymsg\000"
 2848      736700
 2849              	.LASF18:
 2850 001a 75696E74 		.ascii	"uint64_t\000"
 2850      36345F74 
 2850      00
 2851              	.LASF4:
 2852 0023 5F5F7569 		.ascii	"__uint8_t\000"
 2852      6E74385F 
 2852      7400
 2853              	.LASF86:
 2854 002d 48465352 		.ascii	"HFSR\000"
 2854      00
 2855              	.LASF123:
 2856 0032 4F545950 		.ascii	"OTYPER\000"
 2856      455200
 2857              	.LASF136:
 2858 0039 5057525F 		.ascii	"PWR_SLEEPEntry\000"
 2858      534C4545 
 2858      50456E74 
 2858      727900
 2859              	.LASF70:
 2860 0048 73797374 		.ascii	"system_debug_t\000"
 2860      656D5F64 
 2860      65627567 
 2860      5F7400
 2861              	.LASF131:
 2862 0057 696F706F 		.ascii	"ioportmask_t\000"
 2862      72746D61 
 2862      736B5F74 
 2862      00
 2863              	.LASF122:
 2864 0064 4D4F4445 		.ascii	"MODER\000"
 2864      5200
 2865              	.LASF13:
 2866 006a 6C6F6E67 		.ascii	"long long unsigned int\000"
 2866      206C6F6E 
 2866      6720756E 
 2866      7369676E 
 2866      65642069 
 2867              	.LASF125:
ARM GAS  /tmp/ccDk4sH7.s 			page 73


 2868 0081 50555044 		.ascii	"PUPDR\000"
 2868      5200
 2869              	.LASF104:
 2870 0087 65786974 		.ascii	"exitcode\000"
 2870      636F6465 
 2870      00
 2871              	.LASF77:
 2872 0090 6D61696E 		.ascii	"mainthread\000"
 2872      74687265 
 2872      616400
 2873              	.LASF107:
 2874 009b 73656E74 		.ascii	"sentmsg\000"
 2874      6D736700 
 2875              	.LASF67:
 2876 00a3 76697274 		.ascii	"virtual_timers_list_t\000"
 2876      75616C5F 
 2876      74696D65 
 2876      72735F6C 
 2876      6973745F 
 2877              	.LASF80:
 2878 00b9 43505549 		.ascii	"CPUID\000"
 2878      4400
 2879              	.LASF50:
 2880 00bf 63685F74 		.ascii	"ch_threads_queue\000"
 2880      68726561 
 2880      64735F71 
 2880      75657565 
 2880      00
 2881              	.LASF31:
 2882 00d0 705F7072 		.ascii	"p_prio\000"
 2882      696F00
 2883              	.LASF92:
 2884 00d7 49534152 		.ascii	"ISAR\000"
 2884      00
 2885              	.LASF11:
 2886 00dc 6C6F6E67 		.ascii	"long long int\000"
 2886      206C6F6E 
 2886      6720696E 
 2886      7400
 2887              	.LASF1:
 2888 00ea 7369676E 		.ascii	"signed char\000"
 2888      65642063 
 2888      68617200 
 2889              	.LASF126:
 2890 00f6 42535252 		.ascii	"BSRR\000"
 2890      00
 2891              	.LASF144:
 2892 00fb 63685379 		.ascii	"chSysInit\000"
 2892      73496E69 
 2892      7400
 2893              	.LASF44:
 2894 0105 705F6D70 		.ascii	"p_mpool\000"
 2894      6F6F6C00 
 2895              	.LASF115:
 2896 010d 6D5F7175 		.ascii	"m_queue\000"
 2896      65756500 
 2897              	.LASF76:
ARM GAS  /tmp/ccDk4sH7.s 			page 74


 2898 0115 76746C69 		.ascii	"vtlist\000"
 2898      737400
 2899              	.LASF96:
 2900 011c 5057525F 		.ascii	"PWR_TypeDef\000"
 2900      54797065 
 2900      44656600 
 2901              	.LASF141:
 2902 0128 746D7072 		.ascii	"tmpreg\000"
 2902      656700
 2903              	.LASF140:
 2904 012f 73746174 		.ascii	"state\000"
 2904      6500
 2905              	.LASF135:
 2906 0135 5057525F 		.ascii	"PWR_EnterSTOPMode\000"
 2906      456E7465 
 2906      7253544F 
 2906      504D6F64 
 2906      6500
 2907              	.LASF8:
 2908 0147 6C6F6E67 		.ascii	"long int\000"
 2908      20696E74 
 2908      00
 2909              	.LASF21:
 2910 0150 74737461 		.ascii	"tstate_t\000"
 2910      74655F74 
 2910      00
 2911              	.LASF33:
 2912 0159 705F6E65 		.ascii	"p_newer\000"
 2912      77657200 
 2913              	.LASF112:
 2914 0161 735F7175 		.ascii	"s_queue\000"
 2914      65756500 
 2915              	.LASF89:
 2916 0169 42464152 		.ascii	"BFAR\000"
 2916      00
 2917              	.LASF124:
 2918 016e 4F535045 		.ascii	"OSPEEDR\000"
 2918      45445200 
 2919              	.LASF56:
 2920 0176 725F6E65 		.ascii	"r_newer\000"
 2920      77657200 
 2921              	.LASF97:
 2922 017e 72656761 		.ascii	"regarm_t\000"
 2922      726D5F74 
 2922      00
 2923              	.LASF63:
 2924 0187 76745F70 		.ascii	"vt_prev\000"
 2924      72657600 
 2925              	.LASF95:
 2926 018f 5343425F 		.ascii	"SCB_Type\000"
 2926      54797065 
 2926      00
 2927              	.LASF130:
 2928 0198 73746D33 		.ascii	"stm32_gpio_t\000"
 2928      325F6770 
 2928      696F5F74 
 2928      00
ARM GAS  /tmp/ccDk4sH7.s 			page 75


 2929              	.LASF62:
 2930 01a5 76745F6E 		.ascii	"vt_next\000"
 2930      65787400 
 2931              	.LASF78:
 2932 01ad 69646C65 		.ascii	"idle_thread_wa\000"
 2932      5F746872 
 2932      6561645F 
 2932      776100
 2933              	.LASF26:
 2934 01bc 636E745F 		.ascii	"cnt_t\000"
 2934      7400
 2935              	.LASF150:
 2936 01c2 5F5F5746 		.ascii	"__WFI\000"
 2936      4900
 2937              	.LASF0:
 2938 01c8 756E7369 		.ascii	"unsigned int\000"
 2938      676E6564 
 2938      20696E74 
 2938      00
 2939              	.LASF148:
 2940 01d5 6D6F6465 		.ascii	"modeswitch\000"
 2940      73776974 
 2940      636800
 2941              	.LASF15:
 2942 01e0 75696E74 		.ascii	"uint16_t\000"
 2942      31365F74 
 2942      00
 2943              	.LASF108:
 2944 01e9 77747365 		.ascii	"wtsemp\000"
 2944      6D7000
 2945              	.LASF90:
 2946 01f0 41465352 		.ascii	"AFSR\000"
 2946      00
 2947              	.LASF40:
 2948 01f5 705F6D73 		.ascii	"p_msgqueue\000"
 2948      67717565 
 2948      756500
 2949              	.LASF139:
 2950 0200 7365745F 		.ascii	"set_state\000"
 2950      73746174 
 2950      6500
 2951              	.LASF143:
 2952 020a 68616C49 		.ascii	"halInit\000"
 2952      6E697400 
 2953              	.LASF127:
 2954 0212 4C434B52 		.ascii	"LCKR\000"
 2954      00
 2955              	.LASF82:
 2956 0217 56544F52 		.ascii	"VTOR\000"
 2956      00
 2957              	.LASF113:
 2958 021c 735F636E 		.ascii	"s_cnt\000"
 2958      7400
 2959              	.LASF47:
 2960 0222 63685F74 		.ascii	"ch_thread\000"
 2960      68726561 
 2960      6400
ARM GAS  /tmp/ccDk4sH7.s 			page 76


 2961              	.LASF81:
 2962 022c 49435352 		.ascii	"ICSR\000"
 2962      00
 2963              	.LASF24:
 2964 0231 6D73675F 		.ascii	"msg_t\000"
 2964      7400
 2965              	.LASF83:
 2966 0237 41495243 		.ascii	"AIRCR\000"
 2966      5200
 2967              	.LASF87:
 2968 023d 44465352 		.ascii	"DFSR\000"
 2968      00
 2969              	.LASF88:
 2970 0242 4D4D4641 		.ascii	"MMFAR\000"
 2970      5200
 2971              	.LASF73:
 2972 0248 63685F73 		.ascii	"ch_system_t\000"
 2972      79737465 
 2972      6D5F7400 
 2973              	.LASF146:
 2974 0254 6D61696E 		.ascii	"main.c\000"
 2974      2E6300
 2975              	.LASF20:
 2976 025b 746D6F64 		.ascii	"tmode_t\000"
 2976      655F7400 
 2977              	.LASF52:
 2978 0263 63685F72 		.ascii	"ch_ready_list\000"
 2978      65616479 
 2978      5F6C6973 
 2978      7400
 2979              	.LASF25:
 2980 0271 6576656E 		.ascii	"eventmask_t\000"
 2980      746D6173 
 2980      6B5F7400 
 2981              	.LASF7:
 2982 027d 5F5F696E 		.ascii	"__int32_t\000"
 2982      7433325F 
 2982      7400
 2983              	.LASF98:
 2984 0287 73746B61 		.ascii	"stkalign_t\000"
 2984      6C69676E 
 2984      5F7400
 2985              	.LASF46:
 2986 0292 74687265 		.ascii	"threads_list_t\000"
 2986      6164735F 
 2986      6C697374 
 2986      5F7400
 2987              	.LASF39:
 2988 02a1 705F7761 		.ascii	"p_waiting\000"
 2988      6974696E 
 2988      6700
 2989              	.LASF79:
 2990 02ab 73697A65 		.ascii	"sizetype\000"
 2990      74797065 
 2990      00
 2991              	.LASF45:
 2992 02b4 74687265 		.ascii	"thread_reference_t\000"
ARM GAS  /tmp/ccDk4sH7.s 			page 77


 2992      61645F72 
 2992      65666572 
 2992      656E6365 
 2992      5F7400
 2993              	.LASF68:
 2994 02c7 63685F76 		.ascii	"ch_virtual_timers_list\000"
 2994      69727475 
 2994      616C5F74 
 2994      696D6572 
 2994      735F6C69 
 2995              	.LASF121:
 2996 02de 636C6561 		.ascii	"clear\000"
 2996      7200
 2997              	.LASF85:
 2998 02e4 43465352 		.ascii	"CFSR\000"
 2998      00
 2999              	.LASF69:
 3000 02e9 76745F6C 		.ascii	"vt_lasttime\000"
 3000      61737474 
 3000      696D6500 
 3001              	.LASF34:
 3002 02f5 705F6F6C 		.ascii	"p_older\000"
 3002      64657200 
 3003              	.LASF55:
 3004 02fd 725F6374 		.ascii	"r_ctx\000"
 3004      7800
 3005              	.LASF102:
 3006 0303 746D5F63 		.ascii	"tm_calibration_t\000"
 3006      616C6962 
 3006      72617469 
 3006      6F6E5F74 
 3006      00
 3007              	.LASF58:
 3008 0314 725F6375 		.ascii	"r_current\000"
 3008      7272656E 
 3008      7400
 3009              	.LASF57:
 3010 031e 725F6F6C 		.ascii	"r_older\000"
 3010      64657200 
 3011              	.LASF12:
 3012 0326 5F5F7569 		.ascii	"__uint64_t\000"
 3012      6E743634 
 3012      5F7400
 3013              	.LASF129:
 3014 0331 41465248 		.ascii	"AFRH\000"
 3014      00
 3015              	.LASF128:
 3016 0336 4146524C 		.ascii	"AFRL\000"
 3016      00
 3017              	.LASF22:
 3018 033b 74726566 		.ascii	"trefs_t\000"
 3018      735F7400 
 3019              	.LASF93:
 3020 0343 52455345 		.ascii	"RESERVED0\000"
 3020      52564544 
 3020      3000
 3021              	.LASF100:
ARM GAS  /tmp/ccDk4sH7.s 			page 78


 3022 034d 706F7274 		.ascii	"port_intctx\000"
 3022      5F696E74 
 3022      63747800 
 3023              	.LASF60:
 3024 0359 76697274 		.ascii	"virtual_timer_t\000"
 3024      75616C5F 
 3024      74696D65 
 3024      725F7400 
 3025              	.LASF30:
 3026 0369 705F7072 		.ascii	"p_prev\000"
 3026      657600
 3027              	.LASF23:
 3028 0370 74707269 		.ascii	"tprio_t\000"
 3028      6F5F7400 
 3029              	.LASF71:
 3030 0378 63685F73 		.ascii	"ch_system_debug\000"
 3030      79737465 
 3030      6D5F6465 
 3030      62756700 
 3031              	.LASF120:
 3032 0388 5F426F6F 		.ascii	"_Bool\000"
 3032      6C00
 3033              	.LASF16:
 3034 038e 696E7433 		.ascii	"int32_t\000"
 3034      325F7400 
 3035              	.LASF2:
 3036 0396 756E7369 		.ascii	"unsigned char\000"
 3036      676E6564 
 3036      20636861 
 3036      7200
 3037              	.LASF134:
 3038 03a4 5057525F 		.ascii	"PWR_EnterSleepMode\000"
 3038      456E7465 
 3038      72536C65 
 3038      65704D6F 
 3038      646500
 3039              	.LASF84:
 3040 03b7 53484353 		.ascii	"SHCSR\000"
 3040      5200
 3041              	.LASF142:
 3042 03bd 49544D5F 		.ascii	"ITM_RxBuffer\000"
 3042      52784275 
 3042      66666572 
 3042      00
 3043              	.LASF42:
 3044 03ca 705F6D74 		.ascii	"p_mtxlist\000"
 3044      786C6973 
 3044      7400
 3045              	.LASF3:
 3046 03d4 73686F72 		.ascii	"short int\000"
 3046      7420696E 
 3046      7400
 3047              	.LASF36:
 3048 03de 705F7374 		.ascii	"p_state\000"
 3048      61746500 
 3049              	.LASF54:
 3050 03e6 725F7072 		.ascii	"r_prio\000"
ARM GAS  /tmp/ccDk4sH7.s 			page 79


 3050      696F00
 3051              	.LASF110:
 3052 03ed 65776D61 		.ascii	"ewmask\000"
 3052      736B00
 3053              	.LASF29:
 3054 03f4 705F6E65 		.ascii	"p_next\000"
 3054      787400
 3055              	.LASF137:
 3056 03fb 5057525F 		.ascii	"PWR_Regulator\000"
 3056      52656775 
 3056      6C61746F 
 3056      7200
 3057              	.LASF37:
 3058 0409 705F666C 		.ascii	"p_flags\000"
 3058      61677300 
 3059              	.LASF6:
 3060 0411 73686F72 		.ascii	"short unsigned int\000"
 3060      7420756E 
 3060      7369676E 
 3060      65642069 
 3060      6E7400
 3061              	.LASF74:
 3062 0424 63685F73 		.ascii	"ch_system\000"
 3062      79737465 
 3062      6D00
 3063              	.LASF61:
 3064 042e 63685F76 		.ascii	"ch_virtual_timer\000"
 3064      69727475 
 3064      616C5F74 
 3064      696D6572 
 3064      00
 3065              	.LASF111:
 3066 043f 63685F73 		.ascii	"ch_semaphore\000"
 3066      656D6170 
 3066      686F7265 
 3066      00
 3067              	.LASF41:
 3068 044c 705F6570 		.ascii	"p_epending\000"
 3068      656E6469 
 3068      6E6700
 3069              	.LASF17:
 3070 0457 75696E74 		.ascii	"uint32_t\000"
 3070      33325F74 
 3070      00
 3071              	.LASF109:
 3072 0460 77746D74 		.ascii	"wtmtxp\000"
 3072      787000
 3073              	.LASF53:
 3074 0467 725F7175 		.ascii	"r_queue\000"
 3074      65756500 
 3075              	.LASF64:
 3076 046f 76745F64 		.ascii	"vt_delta\000"
 3076      656C7461 
 3076      00
 3077              	.LASF48:
 3078 0478 63685F74 		.ascii	"ch_threads_list\000"
 3078      68726561 
ARM GAS  /tmp/ccDk4sH7.s 			page 80


 3078      64735F6C 
 3078      69737400 
 3079              	.LASF10:
 3080 0488 6C6F6E67 		.ascii	"long unsigned int\000"
 3080      20756E73 
 3080      69676E65 
 3080      6420696E 
 3080      7400
 3081              	.LASF147:
 3082 049a 2F6E6673 		.ascii	"/nfs/nfs4/home/jacoroge/442FinalProject/milestone1\000"
 3082      2F6E6673 
 3082      342F686F 
 3082      6D652F6A 
 3082      61636F72 
 3083              	.LASF118:
 3084 04cd 63686172 		.ascii	"char\000"
 3084      00
 3085              	.LASF149:
 3086 04d2 6D6F6465 		.ascii	"mode\000"
 3086      00
 3087              	.LASF5:
 3088 04d7 5F5F7569 		.ascii	"__uint16_t\000"
 3088      6E743136 
 3088      5F7400
 3089              	.LASF28:
 3090 04e2 74687265 		.ascii	"thread_t\000"
 3090      61645F74 
 3090      00
 3091              	.LASF138:
 3092 04eb 5057525F 		.ascii	"PWR_EnterSTANDBYMode\000"
 3092      456E7465 
 3092      72535441 
 3092      4E444259 
 3092      4D6F6465 
 3093              	.LASF117:
 3094 0500 6D5F6E65 		.ascii	"m_next\000"
 3094      787400
 3095              	.LASF27:
 3096 0507 73797374 		.ascii	"systime_t\000"
 3096      696D655F 
 3096      7400
 3097              	.LASF43:
 3098 0511 705F7265 		.ascii	"p_realprio\000"
 3098      616C7072 
 3098      696F00
 3099              	.LASF59:
 3100 051c 76746675 		.ascii	"vtfunc_t\000"
 3100      6E635F74 
 3100      00
 3101              	.LASF9:
 3102 0525 5F5F7569 		.ascii	"__uint32_t\000"
 3102      6E743332 
 3102      5F7400
 3103              	.LASF72:
 3104 0530 70616E69 		.ascii	"panic_msg\000"
 3104      635F6D73 
 3104      6700
ARM GAS  /tmp/ccDk4sH7.s 			page 81


 3105              	.LASF119:
 3106 053a 6D757465 		.ascii	"mutex_t\000"
 3106      785F7400 
 3107              	.LASF101:
 3108 0542 6F666673 		.ascii	"offset\000"
 3108      657400
 3109              	.LASF133:
 3110 0549 696F706F 		.ascii	"ioportid_t\000"
 3110      72746964 
 3110      5F7400
 3111              	.LASF99:
 3112 0554 636F6E74 		.ascii	"context\000"
 3112      65787400 
 3113              	.LASF152:
 3114 055c 5F70616C 		.ascii	"_pal_lld_setgroupmode\000"
 3114      5F6C6C64 
 3114      5F736574 
 3114      67726F75 
 3114      706D6F64 
 3115              	.LASF19:
 3116 0572 7274636E 		.ascii	"rtcnt_t\000"
 3116      745F7400 
 3117              	.LASF66:
 3118 057a 76745F70 		.ascii	"vt_par\000"
 3118      617200
 3119              	.LASF49:
 3120 0581 74687265 		.ascii	"threads_queue_t\000"
 3120      6164735F 
 3120      71756575 
 3120      655F7400 
 3121              	.LASF114:
 3122 0591 63685F6D 		.ascii	"ch_mutex\000"
 3122      75746578 
 3122      00
 3123              	.LASF38:
 3124 059a 705F7265 		.ascii	"p_refs\000"
 3124      667300
 3125              	.LASF91:
 3126 05a1 4D4D4652 		.ascii	"MMFR\000"
 3126      00
 3127              	.LASF75:
 3128 05a6 726C6973 		.ascii	"rlist\000"
 3128      7400
 3129              	.LASF14:
 3130 05ac 75696E74 		.ascii	"uint8_t\000"
 3130      385F7400 
 3131              	.LASF145:
 3132 05b4 474E5520 		.ascii	"GNU C 4.8.4 20140526 (release) [ARM/embedded-4_8-br"
 3132      4320342E 
 3132      382E3420 
 3132      32303134 
 3132      30353236 
 3133 05e7 616E6368 		.ascii	"anch revision 211358] -mcpu=cortex-m4 -mno-thumb-in"
 3133      20726576 
 3133      6973696F 
 3133      6E203231 
 3133      31333538 
ARM GAS  /tmp/ccDk4sH7.s 			page 82


 3134 061a 74657277 		.ascii	"terwork -mthumb -ggdb -O2 -fomit-frame-pointer -fal"
 3134      6F726B20 
 3134      2D6D7468 
 3134      756D6220 
 3134      2D676764 
 3135 064d 69676E2D 		.ascii	"ign-functions=16 -ffunction-sections -fdata-section"
 3135      66756E63 
 3135      74696F6E 
 3135      733D3136 
 3135      202D6666 
 3136 0680 73202D66 		.ascii	"s -fno-common -flto\000"
 3136      6E6F2D63 
 3136      6F6D6D6F 
 3136      6E202D66 
 3136      6C746F00 
 3137              	.LASF105:
 3138 0694 77746F62 		.ascii	"wtobjp\000"
 3138      6A7000
 3139              	.LASF35:
 3140 069b 705F6E61 		.ascii	"p_name\000"
 3140      6D6500
 3141              	.LASF94:
 3142 06a2 43504143 		.ascii	"CPACR\000"
 3142      5200
 3143              	.LASF151:
 3144 06a8 6D61696E 		.ascii	"main\000"
 3144      00
 3145              	.LASF132:
 3146 06ad 696F6D6F 		.ascii	"iomode_t\000"
 3146      64655F74 
 3146      00
 3147              	.LASF116:
 3148 06b6 6D5F6F77 		.ascii	"m_owner\000"
 3148      6E657200 
 3149              	.LASF32:
 3150 06be 705F6374 		.ascii	"p_ctx\000"
 3150      7800
 3151              	.LASF65:
 3152 06c4 76745F66 		.ascii	"vt_func\000"
 3152      756E6300 
 3153              		.comm	__gnu_lto_v1,1,1
 3154              		.ident	"GCC: (GNU Tools for ARM Embedded Processors) 4.8.4 20140526 (release) [ARM/embedded-4_8-br
ARM GAS  /tmp/ccDk4sH7.s 			page 83


DEFINED SYMBOLS
                            *ABS*:00000000 main.c
     /tmp/ccDk4sH7.s:376    .text.modeswitch:00000000 $t
     /tmp/ccDk4sH7.s:382    .text.modeswitch:00000000 modeswitch
     /tmp/ccDk4sH7.s:428    .text.modeswitch:00000028 $d
     /tmp/ccDk4sH7.s:433    .text.PWR_EnterSleepMode:00000000 $t
     /tmp/ccDk4sH7.s:439    .text.PWR_EnterSleepMode:00000000 PWR_EnterSleepMode
     /tmp/ccDk4sH7.s:464    .text.PWR_EnterSleepMode:00000010 $d
     /tmp/ccDk4sH7.s:471    .text.PWR_EnterSTOPMode:00000000 $t
     /tmp/ccDk4sH7.s:477    .text.PWR_EnterSTOPMode:00000000 PWR_EnterSTOPMode
     /tmp/ccDk4sH7.s:521    .text.PWR_EnterSTOPMode:00000024 $d
     /tmp/ccDk4sH7.s:527    .text.PWR_EnterSTANDBYMode:00000000 $t
     /tmp/ccDk4sH7.s:533    .text.PWR_EnterSTANDBYMode:00000000 PWR_EnterSTANDBYMode
     /tmp/ccDk4sH7.s:567    .text.PWR_EnterSTANDBYMode:00000020 $d
     /tmp/ccDk4sH7.s:575    .text.set_state:00000000 $t
     /tmp/ccDk4sH7.s:581    .text.set_state:00000000 set_state
     /tmp/ccDk4sH7.s:623    .text.set_state:00000030 $d
     /tmp/ccDk4sH7.s:628    .text.startup.main:00000000 $t
     /tmp/ccDk4sH7.s:634    .text.startup.main:00000000 main
     /tmp/ccDk4sH7.s:686    .text.startup.main:00000048 $d
                            *COM*:00000001 __gnu_lto_v1
                     .debug_frame:00000010 $d
     /tmp/ccDk4sH7.s:432    .text.modeswitch:0000002c $t
     /tmp/ccDk4sH7.s:470    .text.PWR_EnterSleepMode:00000014 $t
     /tmp/ccDk4sH7.s:526    .text.PWR_EnterSTOPMode:0000002c $t
     /tmp/ccDk4sH7.s:574    .text.PWR_EnterSTANDBYMode:00000028 $t
     /tmp/ccDk4sH7.s:627    .text.set_state:00000034 $t
     /tmp/ccDk4sH7.s:690    .text.startup.main:0000004c $t

UNDEFINED SYMBOLS
halInit
chSysInit
_pal_lld_setgroupmode
