ARM GAS  /tmp/ccDk4sH7.s 			page 1


   1              		.syntax unified
   2              		.cpu cortex-m4
   3              		.fpu softvfp
   4              		.eabi_attribute 20, 1
   5              		.eabi_attribute 21, 1
   6              		.eabi_attribute 23, 3
   7              		.eabi_attribute 24, 1
   8              		.eabi_attribute 25, 1
   9              		.eabi_attribute 26, 1
  10              		.eabi_attribute 30, 2
  11              		.eabi_attribute 34, 1
  12              		.eabi_attribute 18, 4
  13              		.thumb
  14              		.file	"main.c"
  15              		.text
  16              	.Ltext0:
  17              		.section	.gnu.lto_.jmpfuncs.d6cdc284b84e4190,"",%progbits
  18 0000 789C6362 		.ascii	"x\234cb`b\300\006\016Biv\006F `\006\262\312\030\200"
  18      6062C006 
  18      0E426976 
  18      06462060 
  18      06B2CA18 
  19 0015 4A991959 		.ascii	"J\231\031Y\030X\031\331\030\230\231\"\0303\031\031\032"
  19      185819D9 
  19      18989922 
  19      18331919 
  19      1A
  20 0026 66341C60 		.ascii	"f4\034`\001\212\2038\214\015\015LP&\023#\003\016\025"
  20      018A8338 
  20      8C0D0D4C 
  20      50261323 
  20      030E15
  21 0039 8C845438 		.ascii	"\214\204T8\020R\240@H\201\000\222\002 \000\000\312\205"
  21      1052A040 
  21      48810092 
  21      02200000 
  21      CA85
  22 004b 1CCD     		.ascii	"\034\315"
  23              		.text
  24              		.section	.gnu.lto_.inline.d6cdc284b84e4190,"",%progbits
  25 0000 789C6362 		.ascii	"x\234cb`b\300\006x\030!4;\020\261223\244G0f22\203\004"
  25      6062C006 
  25      78182134 
  25      3B10B132 
  25      3233A447 
  26 001a 33E02C10 		.ascii	"3\340,\020f\001b\266\005\362L\014,\013\344\005\030X"
  26      660162B6 
  26      05F24C0C 
  26      2C0BE405 
  26      1858
  27 002c 5E708304 		.ascii	"^p\203\004\2002\234\334pM\014pM\014\3305\315\340\001"
  27      80329CDC 
  27      704D0C70 
  27      4D0CD835 
  27      CDE001
  28 003f 6B62E266 		.ascii	"kb\342f\340``\234\340\307\304\300\316\306\310\300\304"
  28      E060609C 
ARM GAS  /tmp/ccDk4sH7.s 			page 2


  28      E0C7C4C0 
  28      CEC6C8C0 
  28      C4
  29 0050 71C00EA2 		.ascii	"q\300\016\242\010\010\230\031\370x\201Bb\037V3\302\305"
  29      08089819 
  29      F8788142 
  29      621F5633 
  29      C2C5
  30 0062 58187881 		.ascii	"X\030x\201\216d\022Y0\007!\306\312 `\306\310\010\266"
  30      8E641259 
  30      300721C6 
  30      CA2060C6 
  30      C808B6
  31 0075 83496AC6 		.ascii	"\203Ij\306\0326\270\004\033\203\304U\2400\023X\037D"
  31      1A36B804 
  31      1B83C455 
  31      A0301358 
  31      1F44
  32 0087 3B2FC858 		.ascii	";/\310X\3024#\027\214`\000\000*\013\025u"
  32      C2342317 
  32      8C600000 
  32      2A0B1575 
  33              		.text
  34              		.section	.gnu.lto_.pureconst.d6cdc284b84e4190,"",%progbits
  35 0000 789C6362 		.ascii	"x\234cb`b\340g\200\000v\006)F)&+f+\026+V)6\023\000\012"
  35      6062E067 
  35      80007606 
  35      29462926 
  35      2B662B16 
  36 001b 690160   		.ascii	"i\001`"
  37              		.text
  38              		.section	.gnu.lto_modeswitch.part.0.d6cdc284b84e4190,"",%progbits
  39 0000 789CAD50 		.ascii	"x\234\255P\275J\003A\020\376\276\331\335\213\177\205"
  39      BD4A0341 
  39      10FEBED9 
  39      DD8B7F85 
  40 0010 2F10B417 		.ascii	"/\020\264\027\304\332\347\270\200\226I\020\271\"\276"
  40      C4DAE7B8 
  40      80964910 
  40      B922BE
  41 001f 42E6200F 		.ascii	"B\346 \017pe\320\312Nll-U$\210\240\340\003\210\351|"
  41      7065D0CA 
  41      4E6C6C2D 
  41      552488A0 
  41      E00388E9 
  42 0034 041BE1B2 		.ascii	"\004\033\341\262\263\271\223\220\332\201\335\357\333"
  42      B3B99390 
  42      DA81DDEF 
  42      DB
  43 0041 996F6676 		.ascii	"\231ofvF X\267\343x\316\010lFd\006\206\352=\222@I(\342"
  43      462058B7 
  43      E378CE08 
  43      6C466406 
  43      86EA3D92 
  44 0059 665DE896 		.ascii	"f]\350\226\177=\202\3568z\363\226\033\2364\002b\034"
  44      7F3D82EE 
  44      387AF396 
ARM GAS  /tmp/ccDk4sH7.s 			page 3


  44      1B9E3402 
  44      621C
  45 006b C4798E4F 		.ascii	"\304y\216O\231\212\335\211\316\353\372\363w;#G\311\025"
  45      998ADD89 
  45      CEEBFAF3 
  45      773B2347 
  45      C915
  46 007d 3051ADF6 		.ascii	"0Q\255\366\201az\346\361\266\314\234\301\320\365(\011"
  46      81617AE6 
  46      F1B6CC9C 
  46      C1D0F528 
  46      09
  47 008e 5FF0FCFD 		.ascii	"_\360\374\375\370S\364y\035\003\347\344\011\013\202"
  47      F853F479 
  47      1D03E7E4 
  47      090B82
  48 009d 2BDFECD1 		.ascii	"+\337\354\321a\326uox\272\237~\311Rw\200[\235D![\"-"
  48      61D6756F 
  48      78BA9F7E 
  48      C9527780 
  48      5B9D4421 
  49 00b4 7157B82C 		.ascii	"qW\270,+\335-\350\255R\320\251>x$\232\252\015\232\322"
  49      2BDD2DE8 
  49      AD52D0A9 
  49      3E78249A 
  49      AA0D9AD2 
  50 00c8 03B2C1E5 		.ascii	"\003\262\301\345bL\221\251\232\323:\335\354\375\177"
  50      624C91A9 
  50      9AD33ADD 
  50      ECFD7F
  51 00d7 23B7DA48 		.ascii	"#\267\332H\376\246\363i\015\037(\347u3]kyL\2151\223"
  51      FEA6F369 
  51      0D1F28E7 
  51      75335D6B 
  51      794C8D31 
  52 00ec 7646FDE2 		.ascii	"vF\375\342\342p\210\005\364\002V,"
  52      E2708805 
  52      F402562C 
  53              		.text
  54              		.section	.gnu.lto_modeswitch.d6cdc284b84e4190,"",%progbits
  55 0000 789CB550 		.ascii	"x\234\265P\253N\003A\024=g\036\335\205 0\330\015\236"
  55      AB4E0341 
  55      143D671E 
  55      DD852030 
  55      D80D9E
  56 0013 847E00BF 		.ascii	"\204~\000\277\321& \333\025dE\371\201\212\275MV4\250"
  56      D12620DB 
  56      156445F9 
  56      818ABD4D 
  56      5634A8
  57 0026 4A020A47 		.ascii	"J\002\012G\020`\021\025\205 0@H*I(\212\360\013\230e"
  57      10601115 
  57      85203040 
  57      482A4928 
  57      8AF00B98 
  58 003b 1EBB24E0 		.ascii	"\036\273$\340\271\311\3149s\347\334sg\256\202\302\337"
  58      B9C9CC39 
ARM GAS  /tmp/ccDk4sH7.s 			page 4


  58      73E7DC73 
  58      67AE82C2 
  58      DF
  59 004c D873EB98 		.ascii	"\330s\353\230\300\232Cv@5{\002&\251Rz\236A\326\315\262"
  59      C09A4376 
  59      40357B02 
  59      26A9527A 
  59      9E41D6CD 
  60 0061 0BD9D0B4 		.ascii	"\013\331\320\2641m\"\241%=\202(\2256\226\345\001\203"
  60      316D22A1 
  60      253D8228 
  60      953696E5 
  60      0183
  61 0073 DBB55AAC 		.ascii	"\333\265Z\254\352\372\352\365\363\275dB\216B\326\242"
  61      EAFAEAF5 
  61      F3BD6442 
  61      8E42D6A2 
  62 0083 12996D03 		.ascii	"\022\231m\003y8\366\334\356\213\373T\036\365\003\356"
  62      7938F6DC 
  62      EE8BFB54 
  62      1EF503EE 
  63 0093 3F6EDFB6 		.ascii	"?n\337\266\006<\247\305!\271\317\202\277\236\330\247"
  63      063CA7C5 
  63      21B9CF82 
  63      BF9ED8A7 
  64 00a3 C63CD38F 		.ascii	"\306<\323\217\270\273\231fQ\266\203K\251\234\216-Q-"
  64      B8BB9966 
  64      51B6834B 
  64      A99C8E2D 
  64      512D
  65 00b5 D1673875 		.ascii	"\321g8u`\274\213\225\023Y\030\004\032\234\206\215\361"
  65      60BC8B95 
  65      13591804 
  65      1A9C868D 
  65      F1
  66 00c6 906C300E 		.ascii	"\220l0\016\304+:\">\351\273\\\374k\027\365\363-\203"
  66      C42B3A22 
  66      3EE9BB5C 
  66      FC6B17F5 
  66      F32D83
  67 00d9 65573FA3 		.ascii	"eW?\243Jc;`\214/\231\312f\301$oj\335<\012\246m\201\015"
  67      4A633B60 
  67      8C2F99CA 
  67      66C1246F 
  67      6ADD3C0A 
  68 00f1 037BC164 		.ascii	"\003{\301dU\253\266&F\317\351\335\235\367NF\203\342"
  68      55ABB626 
  68      46CFE9DD 
  68      9DF74E46 
  68      83E2
  69 0103 6837C737 		.ascii	"h7\3077\025T[I"
  69      15545B49 
  70              		.text
  71              		.section	.gnu.lto_PWR_EnterSleepMode.d6cdc284b84e4190,"",%progbits
  72 0000 789C6362 		.ascii	"x\234cb`b@\007\222@\254\313\310\300`\007\244\031\231"
  72      60624007 
  72      9240ACCB 
ARM GAS  /tmp/ccDk4sH7.s 			page 5


  72      C8C06007 
  72      A41999
  73 0013 19189926 		.ascii	"\031\030\231&\234c`h\344`bd\0041\030\030\031\352\231"
  73      9C636068 
  73      E4606264 
  73      04311818 
  73      19EA99
  74 0026 18EB2319 		.ascii	"\030\353#\031\301j\3273\035x\360\377\377\272)\307\026"
  74      C16AD733 
  74      1D78F0FF 
  74      FFBA29C7 
  74      16
  75 0037 CC626464 		.ascii	"\314bddcb\310dd`\006\021@\300\312\320\322\3200A\201"
  75      6362C864 
  75      64600611 
  75      40C0CAD0 
  75      D2D03041 
  76 004c 812119CC 		.ascii	"\201!\031\314\015\001\222 \375\241\214L \232\371,\303"
  76      0D019220 
  76      FDA18C4C 
  76      209AF92C 
  76      C3
  77 005d A15B3F1E 		.ascii	"\241[?\036?`Ld\\\310\310\312\220\316\310\244\315\260"
  77      3F604C64 
  77      5CC8C8CA 
  77      90CEC8A4 
  77      CDB0
  78 006f AAA1A551 		.ascii	"\252\241\245Q \223\221q6\303,\306LF\246\010 \301\334"
  78      20939171 
  78      36C32CC6 
  78      4C46A608 
  78      20C1DC
  79 0082 70ABB981 		.ascii	"p\253\271\201\217\001\314\004[\230\304\010s\346Y\206"
  79      8F01CC04 
  79      5B98C408 
  79      73E65986 
  80 0092 E6DDCC30 		.ascii	"\346\335\3140\335\314\351\020\365\014\277\377\377\377"
  80      DDCCE910 
  80      F50CBFFF 
  80      FFFF
  81 00a0 CF0F963D 		.ascii	"\317\017\226=\344\011\221$\315\334t\020\377\034\303"
  81      E4099124 
  81      CDDC7410 
  81      FF1CC3
  82 00af 818FB3AE 		.ascii	"\201\217\263\256\334f\204{\001\3028p\372L#P\026bl2#"
  82      DC66847B 
  82      01C23870 
  82      FA4C2350 
  82      16626C32 
  83 00c4 DC25560C 		.ascii	"\334%V\014\014\027\031\032\037\314R\206\310\300@\010"
  83      0C17191A 
  83      1FCC5286 
  83      C8C04008 
  84 00d4 5005D0A7 		.ascii	"P\005\320\247\240\000f\317M\314\314\323Kf\320\327\323"
  84      A00066CF 
  84      4DCCCCD3 
  84      4B66D0D7 
ARM GAS  /tmp/ccDk4sH7.s 			page 6


  84      D3
  85 00e5 D377CEC8 		.ascii	"\323w\316\310L\312\364\017\326\317/\326O\255(\321w\366"
  85      4CCAF40F 
  85      D6CF2FD6 
  85      4FAD28D1 
  85      77F6
  86 00f7 0DF60CD6 		.ascii	"\015\366\014\326\317\314K\316)MI\325O\316/J\215O\316"
  86      CFCC4BCE 
  86      294D49D5 
  86      4FCE2F4A 
  86      8D4FCE
  87 010a F5CC2B2E 		.ascii	"\365\314+.)\322\313``)O\313d\000\0004g^\372"
  87      29D2CB60 
  87      60294FCB 
  87      64000034 
  87      675EFA
  88              		.text
  89              		.section	.gnu.lto_PWR_EnterSTOPMode.d6cdc284b84e4190,"",%progbits
  90 0000 789C9D93 		.ascii	"x\234\235\223\275O\333@\030\306\337\367\316\216\255"
  90      BD4FDB40 
  90      18C6DFF7 
  90      CE8EAD
  91 000f 12282BA8 		.ascii	"\022(+\250CTF\244\370O\250(b\310\200\030\002\022\235"
  91      435446A4 
  91      F84FA828 
  91      62C88018 
  91      02129D
  92 0022 50E2A6C1 		.ascii	"P\342\246\301R\023\252\220\0126\316u\376\000\304\006"
  92      5213AA90 
  92      0A36CE75 
  92      FE00C406 
  93 0032 0C8098E8 		.ascii	"\014\200\230\350\322\241\013\025\213\305\206P\243V\352"
  93      D2A10B15 
  93      8BC58650 
  93      A356EA
  94 0041 1085C50C 		.ascii	"\020\205\305\014\210\201V\0250\202d\336;\177\360!\006"
  94      88815615 
  94      308264DE 
  94      3B7FF021 
  94      06
  95 0052 C449BEF3 		.ascii	"\304I\276\363\331\357\363\273\347\271\263\0310x\330"
  95      D9EFF3BB 
  95      E7B9B319 
  95      3078D8
  96 0061 06E87ACB 		.ascii	"\006\350z\313\001\306hD\016\310\226\333\000\256\311"
  96      01C66844 
  96      0EC896DB 
  96      00AEC9
  97 0070 10E50D20 		.ascii	"\020\345\015 ,1\\z\207\262\024_\303\226\020+\301\311"
  97      2C315C7A 
  97      87B2145F 
  97      C396102B 
  97      C1C9
  98 0082 6980ABC2 		.ascii	"i\200\253\302om\212\3530Dt\220\260/\020l\204i\232`N"
  98      6F6D8AEB 
  98      30447490 
  98      B02F106C 
ARM GAS  /tmp/ccDk4sH7.s 			page 7


  98      84699A60 
  99 0097 0D4CBBBF 		.ascii	"\015L\273\277\3167\346\007a\370\367{\353\342U\037\203"
  99      CE37E607 
  99      61F8F77B 
  99      EBE2551F 
  99      83
 100 00a8 126E118D 		.ascii	"\022n\021\215\307\243\2065\004=\236\030\340 7e\327#"
 100      C7A38635 
 100      043D9E18 
 100      E0203765 
 100      D723
 101 00ba BBACEC48 		.ascii	"\273\254\354H\257CK\210\345\\T\003r1j\223\324K\233S"
 101      AF434B88 
 101      E55C5403 
 101      72316A93 
 101      D44B9B53 
 102 00ce C8E4C80F 		.ascii	"\310\344\310\017\340K\260\341\031%\334\306\004'\275"
 102      E04BB0E1 
 102      1925DCC6 
 102      0427BD
 103 00dd 28033F61 		.ascii	"(\003?a\277\3339\373\205\321\313*\262a\370*Z\256x\343"
 103      BFDB39FB 
 103      85D1CB2A 
 103      B261F82A 
 103      5AAE78E3 
 104 00f1 A0B60E6B 		.ascii	"\240\266\016kT\246\313\332\214\010\\\241)YF\351\312"
 104      54A6CBDA 
 104      8C085CA1 
 104      295946E9 
 104      CA
 105 0102 984420BA 		.ascii	"\230D \272?x\227M\020\311\365\366\274\343\336\004\313"
 105      3F78974D 
 105      10C9F5F6 
 105      BCE3DE04 
 105      CB
 106 0113 E9A11473 		.ascii	"\351\241\024s\332\233\360\245R\261\373\032\2564?\274"
 106      DA9BF0A5 
 106      52B1FB1A 
 106      AE343FBC 
 107 0123 7FA94657 		.ascii	"\177\251FW2\355\221Z]\371>\350\374\357\304\276c\323"
 107      32ED915A 
 107      5DF93EE8 
 107      FCEFC4BE 
 107      63D3
 108 0135 BD4F349D 		.ascii	"\275O4\235\020\272\273\027A\232\334\210 \375)\303\220"
 108      10BABB17 
 108      419ADC88 
 108      20FD29C3 
 108      90
 109 0146 4253743D 		.ascii	"BSt=\321\247\030f\314H\222K\273<Q\233\325\250\236k\321"
 109      D1A71866 
 109      CC48924B 
 109      BB3C519B 
 109      D5A89E6B 
 110 015b A616EE1A 		.ascii	"\246\026\356\032{*\263*\347m\360\317w\376\034a|\264"
 110      7B2AB32A 
 110      E76DF0CF 
ARM GAS  /tmp/ccDk4sH7.s 			page 8


 110      77FE1C61 
 110      7CB4
 111 016d C919FB87 		.ascii	"\311\031\373\207'.\355Q\204\265S\0230\022'\271\274M"
 111      272EED51 
 111      84B55313 
 111      301227B9 
 111      BC4D
 112 017f D2F38C24 		.ascii	"\322\363\214${i\222,\001T\222\253\370\250\236\237&\013"
 112      7B69922C 
 112      015492AB 
 112      F8A89E9F 
 112      260B
 113 0191 F01BDCA0 		.ascii	"\360\033\334\240=\024\311\2236I\005\364]\312\277\316"
 113      3D14C993 
 113      364905F4 
 113      5DCABFCE 
 114 01a1 A8959C7A 		.ascii	"\250\225\234z\336\206L\263\366\251Q\251Z\371\2745:\353"
 114      DE864CB3 
 114      F6A951A9 
 114      5AF9BC35 
 114      3AEB
 115 01b3 949D89A2 		.ascii	"\224\235\211\24257oU\026\233\326\350x\261P\264\234\272"
 115      35376F55 
 115      169BD6E8 
 115      78B150B4 
 115      9CBA
 116 01c5 FDF1F3FB 		.ascii	"\375\361\363\373\212e\3175*3v\255P\237o6\362\263\240"
 116      8A65CF35 
 116      2A3376AD 
 116      509F6F36 
 116      F2B3A0
 117 01d8 2D7C70E0 		.ascii	"-|p\340\006\036\014\331\002"
 117      061E0CD9 
 117      02
 118              		.text
 119              		.section	.gnu.lto_PWR_EnterSTANDBYMode.d6cdc284b84e4190,"",%progbits
 120 0000 789CA592 		.ascii	"x\234\245\222\261K\303@\024\306\277wIj\013\"\256n\202"
 120      B14BC340 
 120      14C6BF77 
 120      496A0B22 
 120      AE6E82
 121 0013 A390DB1D 		.ascii	"\243\220\333\035\\:u\020\207V\320I\332X\333C\333B[\251"
 121      5C3A7510 
 121      8756D049 
 121      DA58DB43 
 121      DB425BA9 
 122 0027 5B2FB49B 		.ascii	"[/\264\233K\347\272\350\352\240\340\244[\351\242K\013"
 122      4BE7BAE8 
 122      EAA0E0A4 
 122      5BE9A24B 
 122      0B
 123 0038 8283D425 		.ascii	"\202\203\324%\377\202\213X\021\352\335\305t\020\021"
 123      FF828B58 
 123      11EADDC5 
 123      741011
 124 0047 A50FF2DD 		.ascii	"\245\017\362\335\273\274w?\276\274\034\003\303\367X"
 124      BBBC773F 
ARM GAS  /tmp/ccDk4sH7.s 			page 9


 124      BEBC1C03 
 124      C3F758
 125 0056 52CF817A 		.ascii	"R\317\201z\275\256V\262@\2543\004\3748#\322\011\010"
 125      BDAE56B2 
 125      40AC3304 
 125      FC3823D2 
 125      0908
 126 0068 4D46CD1D 		.ascii	"MF\315\0352\275W\254\027L&\227\327wgc\242y\006A\260"
 126      32BD57AC 
 126      174C2697 
 126      D7776763 
 126      A2790641 
 127 007d B4385A62 		.ascii	"\2648ZbZ\342Z\022ZT8hK\331Y\006<\263\315(\325\314-b"
 127      5AE25A12 
 127      5A543868 
 127      4BD95906 
 127      3CB3CD28 
 128 0095 7AB506E8 		.ascii	"z\265\006\350\217\336^\237(K\347\344\240@l\025\027\262"
 128      8FDE5E9F 
 128      284BE7E4 
 128      A0406C15 
 128      17B2
 129 00a7 ED2F0AA2 		.ascii	"\355/\012\242StI\020\333Vb\311\300\2276LjL\344(\262"
 129      53744910 
 129      DB5662C9 
 129      C097364C 
 129      6A4CE428 
 130 00bc 3E40EBD6 		.ascii	">@\353\326\212N[\205\260\037\266\251\364Sa\341\177\314"
 130      8A4E5B85 
 130      B01FB6A9 
 130      F45361E1 
 130      7FCC
 131 00ce 82DE6B5F 		.ascii	"\202\336k_\367\215\210\353\314\344*\246\000\306\025"
 131      F78D88EB 
 131      CCE42AA6 
 131      00C615
 132 00dd 9BC9552C 		.ascii	"\233\311U,tu\363\036L\247\025\377\316\260\365AG\216"
 132      7475F31E 
 132      4CA715FF 
 132      CEB0F541 
 132      478E
 133 00ef 5A72C130 		.ascii	"Zr\3010\234/\006\375\344+\241\000\177\230\326\357L\205"
 133      9C2F06FD 
 133      E42BA100 
 133      7F98D6EF 
 133      4C85
 134 0101 0186E8BD 		.ascii	"\001\206\350\275t\037\237i\372\263\303\244w\362\341"
 134      741F9F69 
 134      FAB3C3A4 
 134      77F2E1
 135 0110 ABAF08B1 		.ascii	"\253\257\010\261\336\324\004\326\200\007\370\301x%\254"
 135      DED404D6 
 135      8007F8C1 
 135      7825AC
 136 011f 4491511D 		.ascii	"D\221Q\035\352N\350)\315\225\262\242\354z\340\256\313"
 136      EA4EE829 
 136      CD95B2A2 
ARM GAS  /tmp/ccDk4sH7.s 			page 10


 136      EC7AE0AE 
 136      CB
 137 0130 93459113 		.ascii	"\223E\221\023\233i^\251\361\374q\235'7\322\2514\027"
 137      9B695EA9 
 137      F1FC719D 
 137      2737D2A9 
 137      3417
 138 0142 65EFF068 		.ascii	"e\357\360h/\317\275J5\277\353\225R\345Z\275\352\026"
 138      2FCFBD4A 
 138      35BFEB95 
 138      52E55ABD 
 138      EA16
 139 0154 6137F605 		.ascii	"a7\366\005>\001\332\\\234\266"
 139      3E01DA5C 
 139      9CB6
 140              		.text
 141              		.section	.gnu.lto_set_state.d6cdc284b84e4190,"",%progbits
 142 0000 789CB552 		.ascii	"x\234\265R;O\033A\020\236\331\275}\234\315aA\227TV\244"
 142      3B4F1B41 
 142      109ED9BD 
 142      7D9CCD61 
 142      41975456 
 143 0015 880229FF 		.ascii	"\210\002)\377#=H\320a\273@.\310O\200\263\317\005\215"
 143      233D48D0 
 143      61BB402E 
 143      C84F80B3 
 143      CF058D
 144 0028 854B449A 		.ascii	"\205KD\232 D\023)\320\"\\\360(\020\226\000\211\222\316"
 144      20441329 
 144      D0225CF0 
 144      28109600 
 144      8992CE
 145 003b 343420EA 		.ascii	"44 \352H\221|\231\331\275\275\004$JV\272\231\235\327"
 145      48917C99 
 145      D9BDBD04 
 145      244A56BA 
 145      999DD7
 146 004e 37DFDE8C 		.ascii	"7\337\336\214\000\001\257\317\012}K\022\240J\032c@1"
 146      0001AFCF 
 146      0A7D4B12 
 146      A04A1A63 
 146      4031
 147 0060 B801E858 		.ascii	"\270\001\350X\201\306_\244\2106\347 \255(\226S\021j"
 147      81C65FA4 
 147      8836E720 
 147      AD289653 
 147      116A
 148 0072 EF56E1A2 		.ascii	"\357V\341\242}\342\2315B\366\317\2002m\226P\246Ed? "
 148      7DE29935 
 148      42F6CF80 
 148      326D9650 
 148      A645643F 
 149 0087 6C081929 		.ascii	"l\010\031)m,n,#w\304O\260\233\246\203\361~~\364!\375"
 149      6D2C6E2C 
 149      2377C44F 
 149      B09BA683 
 149      F17E7EF4 
ARM GAS  /tmp/ccDk4sH7.s 			page 11


 150 009d D11DA493 		.ascii	"\321\035\244\223<\3076\022\267\012B\013a\211\014\254"
 150      3CC73612 
 150      B70A420B 
 150      61890CAC 
 151 00ad 3B25A297 		.ascii	";%\242\227d\017\305\3518\317\257N~\337\367qv\026\241"
 151      640FC5E9 
 151      38CFAF4E 
 151      7EDFF771 
 151      7616A1
 152 00c0 81BB84A6 		.ascii	"\201\273\204\246p\015A\003A\030\026\226E\314\242BBV"
 152      700D4103 
 152      41181696 
 152      45CCA242 
 152      4256
 153 00d2 4944099B 		.ascii	"ID\011\233\323l\326\330\234)*\351(\350\021\231z\260"
 153      D36CD6D8 
 153      9C292AE9 
 153      28E81199 
 153      7AB0
 154 00e4 5B8EE202 		.ascii	"[\216\342\002Iz\305\"\012Rr\004\335\361dO7p\017UQ\310"
 154      497AC522 
 154      0A527204 
 154      DDF1644F 
 154      37700F55 
 155 00fa E44A568B 		.ascii	"\344JV\213(\201\236.\257\241\373\234\345[\037}\342*"
 155      28819E2E 
 155      AFA1FB9C 
 155      E55B1F7D 
 155      E22A
 156 010c EA555270 		.ascii	"\352URp\015\331\201\014.\343\274\350\274\303l=\270-"
 156      0DD9810C 
 156      2EE3BCE8 
 156      BCC36C3D 
 156      B82D
 157 011e 451C2483 		.ascii	"E\034$\203^B\357\2513\3042\366\242\227\357\027\301E"
 157      5E42EFA9 
 157      33C432F6 
 157      A297EF17 
 157      C145
 158 0130 9DDA659B 		.ascii	"\235\332e\233\331q\231\027\023\256K\345IR\354W\331\264"
 158      D9719917 
 158      13AE4BE5 
 158      4952EC57 
 158      D9B4
 159 0142 C26E899C 		.ascii	"\302n\211\234\303\221\356c\031\251R\220]\347_\275g\036"
 159      C391EE63 
 159      19A95290 
 159      5DE75FBD 
 159      671E
 160 0154 7EA63D4A 		.ascii	"~\246=JV\341\242\303\305|\207\035R\216L\234n\247\247"
 160      56E1A2C3 
 160      C57C871D 
 160      528E4C9C 
 160      6EA7A7
 161 0167 91FB07B1 		.ascii	"\221\373\007\261#\324,\3705\021\013\355\367\214\032"
 161      23D42CF8 
 161      35110BED 
ARM GAS  /tmp/ccDk4sH7.s 			page 12


 161      F78C1A
 162 0176 04C6AA64 		.ascii	"\004\306\252d<\021\241{\362&\343\351\222q\362\212q\215"
 162      3C11A17B 
 162      F226E3E9 
 162      9271F28A 
 162      718D
 163 0188 82EFC258 		.ascii	"\202\357\302X\026\214k\201\261.fJ\224\377l\315\207\376"
 163      168C6B81 
 163      B12E664A 
 163      94FF6CCD 
 163      87FE
 164 019a 338133D7 		.ascii	"3\2013\327\215@\374\277\024\024\015\305\006h\371yq,"
 164      8D40FCBF 
 164      14140DC5 
 164      0668F979 
 164      712C
 165 01ac 944174A3 		.ascii	"\224At\243}\350\230\200\345\201\376\255\370\035`1k\261"
 165      7DE89880 
 165      E581FEAD 
 165      F81D6031 
 165      6BB1
 166 01be 2D094C1F 		.ascii	"-\011L\037)\306\262\274\203\267\320\031\367?\373\312"
 166      29C6B2BC 
 166      83B7D019 
 166      F73FFBCA 
 167 01ce 70160832 		.ascii	"p\026\0102K\370W\233\265F\373\333\227\026`\373/\030"
 167      4BF8579B 
 167      B546FBDB 
 167      971660FB 
 167      2F18
 168 01e0 A4B815   		.ascii	"\244\270\025"
 169              		.text
 170              		.section	.gnu.lto_main.d6cdc284b84e4190,"",%progbits
 171 0000 789C9591 		.ascii	"x\234\225\221=n\0021\020\205\337\033{\331\244\343\010"
 171      3D6E0231 
 171      1085DF1B 
 171      7BD9A4E3 
 171      08
 172 0011 5C00CE00 		.ascii	"\\\000\316\000w\330HP\242\025\305\026p\201\024\030\001"
 172      77D84850 
 172      A215C516 
 172      70811418 
 172      01
 173 0022 11A2A248 		.ascii	"\021\242\242HA\031z\004)\243\360#\032Z\250\323\355\001"
 173      41197A04 
 173      29A3F023 
 173      1A5AA8D3 
 173      ED01
 174 0034 72021AF0 		.ascii	"r\002\032\360\332)H6\315Z\262\337\310\372\276\231b\004"
 174      DA294836 
 174      CD5AB2DF 
 174      C8FABE99 
 174      6204
 175 0046 82BFA76A 		.ascii	"\202\277\247j\357\027\201G\233\014@\231\235\200\301"
 175      EF178147 
 175      9B0C4099 
 175      9D80C1
ARM GAS  /tmp/ccDk4sH7.s 			page 13


 176 0055 8350F942 		.ascii	"\203P\371BQ\373B\373\237\006\321\027\245\331o\321\371"
 176      51FB42FB 
 176      9F06D117 
 176      A5D96FD1 
 176      F9
 177 0066 6B39A4D7 		.ascii	"k9\244\327\353\352}\372\372\315\245\316\272\004\030"
 177      EBEA7DFA 
 177      FACDA5CE 
 177      BA0418
 178 0075 1933AB00 		.ascii	"\0313\253\000\261#\"\373\022O\024P\2351L\327\307R\233"
 178      B12322FB 
 178      124F1450 
 178      9D314CD7 
 178      C7529B
 179 0088 0B3B0A78 		.ascii	"\013;\012x\306\305LL9\241E}\267$\313\214\372\030\207"
 179      C6C54C4C 
 179      39A1457D 
 179      B724CB8C 
 179      FA1887
 180 009b FF51724F 		.ascii	"\377QrO\275\244\237\235\034$1\225\203\232L\250\314\334"
 180      BDA49F9D 
 180      1C243195 
 180      839A4CA8 
 180      CCDC
 181 00ad 1CB42BB5 		.ascii	"\034\264+\265)\273\014h\365\222\323\3376A\001\275\222"
 181      29BB0C68 
 181      F592D3DF 
 181      364101BD 
 181      92
 182 00be D3B745F4 		.ascii	"\323\267E\364zN\337\025\321\015s\376\276\220/\277|\277"
 182      7A4EDF15 
 182      D10D73FE 
 182      BE902FBF 
 182      7CBF
 183 00d0 1805BB51 		.ascii	"\030\005\273Q\025Qg\311\350g\007\010\273\355\244W\213"
 183      155167C9 
 183      E8670708 
 183      BBEDA457 
 183      8B
 184 00e1 71033D6F 		.ascii	"q\003=oq\312"
 184      71CA
 185              		.text
 186              		.section	.gnu.lto_.symbol_nodes.d6cdc284b84e4190,"",%progbits
 187 0000 789C4DC7 		.ascii	"x\234M\3079\022\202P\024D\321~\375\225a\325M\025\211"
 187      39128250 
 187      1444D17E 
 187      FD9561D5 
 187      4D1589
 188 0013 218A63A0 		.ascii	"!\212c\240\011\211\373 1\"#w\330\007\345/y\352\277\311"
 188      0989FB20 
 188      31222377 
 188      D807E52F 
 188      79EABFC9 
 189 0027 AD431023 		.ascii	"\255C\020#<\236(\240\031\000\351\27426\2249/\221k\212"
 189      3C9E28A0 
 189      1900E9BC 
 189      32369439 
ARM GAS  /tmp/ccDk4sH7.s 			page 14


 189      2F916B8A 
 190 003b 09375448 		.ascii	"\0117TH\330R\213\204[j\231pGe_\336hG*\237YUf\007\252"
 190      D8528B84 
 190      5B6A9970 
 190      47655FDE 
 190      68472A9F 
 191 0054 F86B4F95 		.ascii	"\370kO\225?\005\003\236\327\301BV\242\276O\361\005\272"
 191      3F05039E 
 191      D7C14256 
 191      A2BE4FF1 
 191      05BA
 192 0066 CF73F4FE 		.ascii	"\317s\364\376\227\277~\314\357\374}<\336z\233A\377"
 192      97BF7ECC 
 192      EFFC7D3C 
 192      DE7A9B41 
 192      FF
 193              		.text
 194              		.section	.gnu.lto_.refs.d6cdc284b84e4190,"",%progbits
 195 0000 789C6362 		.ascii	"x\234cb`b`d\200\002\000\000F\000\006"
 195      60626064 
 195      80020000 
 195      460006
 196              		.text
 197              		.section	.gnu.lto_.decls.d6cdc284b84e4190,"",%progbits
 198 0000 789CBD59 		.ascii	"x\234\275Y}p\023\307\025\337=I\266\005\212\003\004\030"
 198      7D7013C7 
 198      15DF3D49 
 198      B6058A03 
 198      0418
 199 0012 D37606D1 		.ascii	"\323v\006\321i:4\004\213\3304C\377\311`,;vj\307\232"
 199      693A3404 
 199      8BD83443 
 199      FFC9602C 
 199      3B766AC7 
 200 0027 938132D3 		.ascii	"\223\2012\323A\034\362\2015\265eW:\012\364\217fm>&\244"
 200      411CF281 
 200      35B56557 
 200      3A0AF48F 
 200      666D3E26 
 201 003c 140C1862 		.ascii	"\024\014\030b0\005\023B\200z\350\200\011!\341+2\005"
 201      30051342 
 201      807AE880 
 201      0921E12B 
 201      3205
 202 004e 4A191A53 		.ascii	"J\031\032SJ(\301\324\010h\212S\322\206db\206\360\245"
 202      4A28C1D4 
 202      08688A53 
 202      D2866462 
 202      86F0A5
 203 0061 EEAE4EBA 		.ascii	"\356\256N\272\275\363\235t\362tz3\373nu\367\366\267"
 203      BDF39D74 
 203      F2747A33 
 203      FB6E75F7 
 203      F6B7
 204 0073 BFB7EFED 		.ascii	"\277\267\357\355\356\333\023\0078\320\312\001\020\303"
 204      EEDB1307 
 204      38D0CA01 
ARM GAS  /tmp/ccDk4sH7.s 			page 15


 204      10C3
 205 0081 D7442700 		.ascii	"\327D'\000O[\001\310\001\000\274\204\013\256\202\035"
 205      4F5B01C8 
 205      0100BC84 
 205      0BAE821D 
 206 0091 B864E372 		.ascii	"\270d\343rE\376M\256a\270\364\342r\023\227~\\\006py"
 206      45FE4DAE 
 206      61B8F4E2 
 206      7213977E 
 206      5C067079 
 207 00a5 445E4000 		.ascii	"D^@\000l\270\344\3402\032\227\261\020\014\272ze<\202"
 207      6CB8E4E0 
 207      321A97B1 
 207      100CBA7A 
 207      653C82
 208 00b8 9587DF8F 		.ascii	"\225\207\337\217\303\345\030\256\277%\367e\221\337\035"
 208      C3E518AE 
 208      BF25F765 
 208      91DF1D
 209 00c7 C5A51B97 		.ascii	"\305\245\033\227\363\270\234\212C\323\266\344~]\203"
 209      F3B89C8A 
 209      43D3B6E4 
 209      7E5D83
 210 00d6 4978D8D3 		.ascii	"Ix\330\323`~\013?\273&\327YlNn\237\300\376\247\006\273"
 210      607E0B3F 
 210      BB26D759 
 210      6C4E6E9F 
 210      C0FEA706 
 211 00eb 5FC6259C 		.ascii	"_\306%\234\367\342\362m\254\364\023\030\327\375\001"
 211      F7E2F26D 
 211      ACF41318 
 211      D7FD01
 212 00fa 8CB7273A 		.ascii	"\214\267':stl\035\220yu\342\222\213\213\203\301\231"
 212      73746C1D 
 212      907975E2 
 212      928B8B83 
 212      C199
 213 010c 8BF51742 		.ascii	"\213\365\027B\005\217\340\370\241\2029 c\022\330o4\270"
 213      058FE0F8 
 213      A1823920 
 213      6312D86F 
 213      34B8
 214 011e 64ACB332 		.ascii	"d\254\2632\300zd\300\217\200\017\223\355K\360\263\311"
 214      C07A64C0 
 214      8F800F93 
 214      ED4BF0B3 
 214      C9
 215 012f 63A4378E 		.ascii	"c\2447\216\254_N\311\343\007e\034r\3474}\220X \034k"
 215      AC5F4EC9 
 215      E307651C 
 215      72E7347D 
 215      9058201C 
 216 0144 F1FD31BE 		.ascii	"\361\3751\276\007\240:\236\354\262\276U\326\035+\307"
 216      07A03A9E 
 216      ECB2BE55 
 216      D61D2BC7 
 217 0154 4D8E0ED7 		.ascii	"M\216\016\327\341\340\015\204\232Q\307JTv6w\024X\207"
ARM GAS  /tmp/ccDk4sH7.s 			page 16


 217      E1E00D84 
 217      9A51C74A 
 217      54763677 
 217      145887
 218 0167 F0E53C9B 		.ascii	"\360\345<\233K\014\026`\256\035D9Zs\330\301\363X\373"
 218      4B0C1660 
 218      AE1D4439 
 218      5A73D8C1 
 218      F358FB
 219 017a 59F03642 		.ascii	"Y\3606B-\321\025\017\306!\253\000\337\202\243\3608\274"
 219      2DD1150F 
 219      C621AB00 
 219      DF82A3F0 
 219      38BC
 220 018c 08C17360 		.ascii	"\010\301s`/n\326\202\320\315\357\352\015GZX\000\004"
 220      2F6ED682 
 220      D0CDEFEA 
 220      0D475A58 
 220      0004
 221 019e F80E0613 		.ascii	"\370\016\006\023\340.\370\\\274\023\024y\370\221\203"
 221      E02EF85C 
 221      BC131479 
 221      F89183
 222 01ad 74429E03 		.ascii	"tB\236\003\371\215\3165\001t\240\345\313\"\261\217\266"
 222      F98DCE35 
 222      0174A0E5 
 222      CB22B18F 
 222      B6
 223 01be 8E431D27 		.ascii	"\216C\035'\241\035\274\216\3202\331\234do\316DgV\305"
 223      A11DBC8E 
 223      D032D99C 
 223      646FCE44 
 223      6756C5
 224 01d1 86432B4F 		.ascii	"\206C+Ow\303f\204\342M\232S6\021\340\357\340\263Xf\333"
 224      77C36684 
 224      E24D9A53 
 224      3611E0EF 
 224      E0B35866 
 225 01e6 9344C8DB 		.ascii	"\223D\310\333l\273R!\363\374i\022\026' T\2615\001/3"
 225      6CBB5221 
 225      F3FC6912 
 225      16272054 
 225      B135012F 
 226 01fb DABEE6D8 		.ascii	"\332\276\346\330\217\020\312\021\340>\314\211\003\347"
 226      8F10CA11 
 226      E03ECC89 
 226      03E7
 227 0209 393590DC 		.ascii	"95\220\334_\3622C'Cu\016\374\215vJ\306\\\217\250\\\215"
 227      5FF23243 
 227      2743750E 
 227      FC8D764A 
 227      C65C8FA8 
 228 021f 5FB282CA 		.ascii	"_\262\202\312\017\321\345_\375\011\242\365\016\001\356"
 228      0FD1E55F 
 228      FD09A2F5 
 228      0E01EE
 229 022e A536FC3D 		.ascii	"\2456\374=c8\247\312\255\353{\034-B\002\354\037f\300"
ARM GAS  /tmp/ccDk4sH7.s 			page 17


 229      6338A7CA 
 229      ADEB7B1C 
 229      2D4202EC 
 229      1F66C0
 230 0241 720CB945 		.ascii	"r\014\271EZY\260\3173\006S3\333\304\202}e\006l\2041"
 230      5A59B0CF 
 230      33065333 
 230      DBC4827D 
 230      65066C84 
 231 0256 B33616EC 		.ascii	"\2636\026\354^\306`,\263\246\310\341\236s\304\005\317"
 231      5EC6602C 
 231      B3A6C8E1 
 231      9E73C405 
 231      CF
 232 0267 80F50835 		.ascii	"\200\365\0105\241\216,\243\250\003\200\252\240\224*"
 232      A18E2CA3 
 232      A80380AA 
 232      A0942A
 233 0276 023C0E9F 		.ascii	"\002<\016\237Q\317\313\366\265\271d^\222\347i\346%j"
 233      51CFCBF6 
 233      B5B9645E 
 233      92E769E6 
 233      256A
 234 0288 8EFCB627 		.ascii	"\216\374\266'>/\005\330I\215{@\215#m\207\020_\270\363"
 234      3E2F05D8 
 234      498D7B40 
 234      8D236D87 
 234      105FB8F3 
 235 029c 433DC3D1 		.ascii	"C=\303\321\033\016yA\351\230\276'\005\361\223\332\005"
 235      1B0E7941 
 235      E998BE27 
 235      05F193DA 
 235      05
 236 02ad 657B0FE7 		.ascii	"e{\017\347\214?N\317\373@\317\326<\324\321\235X\034"
 236      8C3F4ECF 
 236      FB40CFD6 
 236      3CD4D19D 
 236      581C
 237 02bf D04A3491 		.ascii	"\320J4\221\351kD\242/\262\013$\327\223\303\317\323\331"
 237      E96B44A2 
 237      2FB20B24 
 237      D793C3CF 
 237      D3D9
 238 02d1 7B9A1AFA 		.ascii	"{\232\032\372\210\323]\006L\000m_\263;\276\014\234\245"
 238      88D35D06 
 238      4C006D5F 
 238      B33BBE0C 
 238      9CA5
 239 02e3 402B2CDA 		.ascii	"@+,\332e\300\242Y\006,\352ym\261+\225X\314\0022S\346"
 239      65C0A259 
 239      062CEA79 
 239      6DB12B95 
 239      58CC0232 
 240 02f9 400BEDF0 		.ascii	"@\013\355\360\244\022\177*\222\351\\\324\034}\373^7"
 240      A4127F2A 
 240      92E95CD4 
 240      1C7DFB5E 
ARM GAS  /tmp/ccDk4sH7.s 			page 18


 240      37
 241 030a C43E4A0C 		.ascii	"\304>J\014Dk\306p#4.\341\300\026\313\020\243\2061<n"
 241      446BC670 
 241      23342EE1 
 241      C016CB10 
 241      A386313C 
 242 031f B3003F84 		.ascii	"\263\000?\204\023\260\354\306\222\351`\253\305\304\234"
 242      13B0ECC6 
 242      92E960AB 
 242      C5C49C
 243 032e CB33B019 		.ascii	"\3133\260\031O\340\367\331\011\274#c0\247\012\354\010"
 243      4FE0F7D9 
 243      09BC2363 
 243      30A70AEC 
 243      08
 244 033f 0BF68E19 		.ascii	"\013\366\216\0310\2471\263c,Xg\306`jf'X\260\375f\300"
 244      30A731B3 
 244      632C5867 
 244      C6606A66 
 244      2758B0FD 
 245 0355 26A6728A 		.ascii	"&\246r\212\312?\312\376/\300\335t\267\335C=u\200\312"
 245      CA3FCAFE 
 245      2FC0DD74 
 245      B7DD433D 
 245      7580CA
 246 0368 83541EA2 		.ascii	"\203T\036\242\3620\225\037Py\224\312\013T^\244\362\022"
 246      F230951F 
 246      507994CA 
 246      0B545EA4 
 246      F212
 247 037a 959759FF 		.ascii	"\225\227Y\377\032\255\020;\340pvj\231\336\251#\2337"
 247      1AAD103B 
 247      E070766A 
 247      99DEA923 
 247      9B37
 248 038c 8D214BE0 		.ascii	"\215!K\340\025:\016\357\016\232\240d\251S\331\226~\347"
 248      153A0EEF 
 248      0E9AA064 
 248      A953D996 
 248      7EE7
 249 039e 1D0FB6A1 		.ascii	"\035\017\266\241H4\372\260\375p\326\346\226\310r\024"
 249      4834FAB0 
 249      FD70D6E6 
 249      96C87214 
 250 03ae 8BBD06C6 		.ascii	"\213\275\006\306\202\215t\225[\211\223\024I\200/\215"
 250      828D7495 
 250      5B899314 
 250      49802F8D 
 251 03be 3134E41A 		.ascii	"14\344\032\034Kk\026:\247\360\003+\351p\2462\3679pZ"
 251      1C4B6B16 
 251      3AA7F003 
 251      2BE970A6 
 251      32F73970 
 252 03d3 C3F27B60 		.ascii	"\303\362{`'\311\330zk\312\2506\336\371\251B/\034o\220"
 252      27C9D87A 
 252      6BCAA836 
 252      DEF9A942 
ARM GAS  /tmp/ccDk4sH7.s 			page 19


 252      2F1C6F90 
 253 03e7 0159A94D 		.ascii	"\001Y\251M\337\007\273H\263\337\240\025# \245\004\344"
 253      DF07BB48 
 253      B3DFA015 
 253      2320A504 
 253      E4
 254 03f8 462A7BFB 		.ascii	"F*{\373 \307> \306uDQ\027BvlX\014q\346-\273\225\336"
 254      20C73E20 
 254      C6754451 
 254      1742766C 
 254      580C71E6 
 255 0410 B26BA92D 		.ascii	"\262k\251-\023`\024\263\021\340M3\226!\215e7\265\226"
 255      136014B3 
 255      11E04D33 
 255      96218D65 
 255      37B596
 256 0423 7DAA6759 		.ascii	"}\252gYd\375\031GKS4\026\033o\336\260\317\324\206\311"
 256      64FD1947 
 256      4B533416 
 256      1B6FDEB0 
 256      CFD486C9 
 257 0437 B117DD85 		.ascii	"\261\027\335\205\362\332\224\330\313I\264\202\200\331"
 257      F2DA94D8 
 257      CB49B482 
 257      80D9
 258 0445 67F64DA2 		.ascii	"g\366M\242\333\303\035\032}\267-\272\373\214\011\240"
 258      DBC31D1A 
 258      7DB72DBA 
 258      FB8C09A0 
 259 0455 ED6BB64D 		.ascii	"\355k\266M\243@\377\241@_\014\012cm\024Cu\024C\273R"
 259      A340FFA1 
 259      405F0C0A 
 259      636D1443 
 259      751443BB 
 260 046a 89A9D3FE 		.ascii	"\211\251\323\376\264\272\032\027~\243\347\302\346\350"
 260      B4BA1A17 
 260      7EA3E7C2 
 260      E6E8
 261 0478 C3DE53EB 		.ascii	"\303\336S\353\340\327\315(/a\354j+\321\353W<\251\262"
 261      E0D7CD28 
 261      2F61EC6A 
 261      2BD1EB57 
 261      3CA9B2
 262 048b 2BAE65E4 		.ascii	"+\256e\344\312~\255+\277\324u\345\221\314]yO\033\243"
 262      CA7EAD2B 
 262      BFD475E5 
 262      91CC5D79 
 262      4F1BA3
 263 049e 9D705090 		.ascii	"\235pP\220\266[u,\\\2176\210e\211\314h\037\325\0300"
 263      B65B752C 
 263      5C8F3688 
 263      6589CC68 
 263      1FD51830 
 264 04b2 8CD2CE14 		.ascii	"\214\322\316\024\266\015hm\273\257k\333\376?fl\333c"
 264      B60D686D 
 264      BBAF6BDB 
 264      FE3F666C 
ARM GAS  /tmp/ccDk4sH7.s 			page 20


 264      DB63
 265 04c4 D936C51C 		.ascii	"\3316\305\034\016\034\325\330\222$\205\366 K\222\323"
 265      0E1CD5D8 
 265      922485F6 
 265      204B92D3 
 266 04d4 232DA727 		.ascii	"#-\247'\272\234\356'8\305\247\004\007.\350\217\324\227"
 266      BA9CEE27 
 266      38C5A704 
 266      072EE88F 
 266      D497
 267 04e6 3F4D46C1 		.ascii	"?MF\301U\252\201\270\241D\001i\245b\325\304\015fu#r"
 267      55AA81B8 
 267      A1440169 
 267      A562D5C4 
 267      0D667523 
 268 04fb E01CC9A1 		.ascii	"\340\034\311\241\321#\222\022i\006\013\257\026F\203"
 268      D1239212 
 268      69060BAF 
 268      164683
 269 050a B592D30E 		.ascii	"\265\222\323\016\226\000gq\372c\325\265\007\331\345"
 269      96006771 
 269      FA63D5B5 
 269      07D9E5
 270 0519 A547802B 		.ascii	"\245G\200+8}\257+\030\032\212Q|\006?\270:o3:\231\351"
 270      387DAF2B 
 270      181A8A51 
 270      7C063FB8 
 270      3A6F333A 
 271 052f 56B18A53 		.ascii	"V\261\212S\005\253\352\370\037?\321\247\330\367\376"
 271      05ABEAF8 
 271      1F3FD1A7 
 271      D8F7FE
 272 053e BAE93B64 		.ascii	"\272\351;d\337\37357\034\267\216Z\265\013\006\331OU"
 272      DFFB3537 
 272      1CB78E5A 
 272      B50B06D9 
 272      4F55
 273 0550 83ABD960 		.ascii	"\203\253\331`\325k\235\211}6\266\201\356\263k9\342\366"
 273      D56B9D89 
 273      7D36B681 
 273      EEB36B39 
 273      E2F6
 274 0562 3B83FA1B 		.ascii	";\203\372\033\302>\013\230iz%\336\\3S\357\017\212\356"
 274      C23E0B98 
 274      697A25DE 
 274      5C3353EF 
 274      0F8AEE
 275 0575 B8D286C1 		.ascii	"\270\322\206\301\201\202\275p\374_\375\257\264u\241"
 275      8182BD70 
 275      FC5FFDAF 
 275      B475A1
 276 0584 E5ABD093 		.ascii	"\345\253\320\223\330k0>_pjd\323\307\330\250\213\361"
 276      D86B303E 
 276      5F706A64 
 276      D3C7D8A8 
 276      8BF1
 277 0596 F59D2B93 		.ascii	"\365\235+\223\222\236L@\364\032@\274\251\206\220\277"
ARM GAS  /tmp/ccDk4sH7.s 			page 21


 277      929E4C40 
 277      F41A40BC 
 277      A98690BF 
 278 05a6 77A43A56 		.ascii	"w\244:V\010\360\014M\247\322e\376\364P\325d\372PE~\235"
 278      08F00C4D 
 278      A7D265FE 
 278      F450D564 
 278      FA50457E 
 279 05bb A2B9D679 		.ascii	"\242\271\326y6\327\322\004\024\311L\214\260\266p\311"
 279      36D7D204 
 279      14C94C8C 
 279      B0B670C9 
 280 05cb 70D1FB42 		.ascii	"p\321\373B\224\234\325\253\231M\353\315/\356\377\022"
 280      949CD5AB 
 280      994DEBCD 
 280      2FEEFF12 
 281 05db 9B8B5FB4 		.ascii	"\233\213_\264s\344\343\323\332,\3650\245\007\"=o\343"
 281      73E4E3D3 
 281      DA2CF530 
 281      A507223D 
 281      6FE3
 282 05ed 3447C375 		.ascii	"4G\303u}\364[\023y\236\346l\330\272,\262\261\257U\375"
 282      7DF45B13 
 282      799EE66C 
 282      D8BA2CB2 
 282      B1AF55FD 
 283 0601 AD29F23F 		.ascii	"\255)\362?\371p\324FM!\024\206p4&_$\372\230\344|[\306"
 283      F970D446 
 283      4D211486 
 283      7034265F 
 283      24FA98E4 
 284 0618 604E1558 		.ascii	"`N\025X\033\013\266\323\014X\212\017/[X\260=\031\203"
 284      1B0BB6D3 
 284      0C588A0F 
 284      2F5B58B0 
 284      3D1983
 285 062b A9996D65 		.ascii	"\251\231me\301~o\006,\305\207\227m,XW\306`,\263\246"
 285      C17E6F06 
 285      2CC58797 
 285      6D2C5857 
 285      C6602CB3 
 286 0640 C8FEB9FB 		.ascii	"\310\376\271\373\347\215\004-4\376\332r\345\350H\225"
 286      E78D042D 
 286      34FEDA72 
 286      E5E84895 
 287 0650 8809F073 		.ascii	"\210\011\360s\032\035i\222%\271\351\274DS\007\355T\351"
 287      1A1D6992 
 287      25B9E9BC 
 287      445307ED 
 287      54E9
 288 0662 29BEE3E9 		.ascii	")\276\343\351k\011p?7RY)Prb:\214\267\261\003\234=i\244"
 288      6B09703F 
 288      37525929 
 288      5072623A 
 288      8CB7B103 
 289 067a C3AE54D8 		.ascii	"\303\256T\330\305]\321\302\003\367\236v\340T$\322\237"
 289      C55DD1C2 
ARM GAS  /tmp/ccDk4sH7.s 			page 22


 289      03F79E76 
 289      E05424D2 
 289      9F
 290 068b 9EBB582F 		.ascii	"\236\273X/\0341\343\005\247q|\274\313\202E\314\200\351"
 290      1C31E305 
 290      A7717CBC 
 290      CB8245CC 
 290      80E9
 291 069d 9D5165B0 		.ascii	"\235Qe\260\367X\260\323\031\203\251\231\275\317\202"
 291      F758B0D3 
 291      1983A999 
 291      BDCF82
 292 06ac 9D330336 		.ascii	"\2353\0036\305\230\331\021\026\254'c05\263c,\330\307"
 292      C598D911 
 292      16AC2763 
 292      3035B363 
 292      2CD8C7
 293 06bf 66C0A619 		.ascii	"f\300\246\0313;\301\202]\315\030\214a\326\332\024\271"
 293      333BC182 
 293      5DCD188C 
 293      61D6DA14 
 293      B9
 294 06d0 30B74590 		.ascii	"0\267E\220#\275c:\211\333\035\\2p\247\253W\013\225Z"
 294      23BD633A 
 294      89DB1D5C 
 294      3270A7AB 
 294      570B955A 
 295 06e4 27345213 		.ascii	"'4R\023\340\0372\236\021\247\014f\004{\352Q\264\260"
 295      E01F329E 
 295      11A70C66 
 295      047BEA51 
 295      B4B0
 296 06f6 D9D7B566 		.ascii	"\331\327\265f\253H\310\325\351\006c\210\267\230\213"
 296      AB48C8D5 
 296      E9066388 
 296      B7988B
 297 0705 F131DC41 		.ascii	"\3611\334A\023\237[f\306\260\314\030\354\022\013v;c"
 297      139F5B66 
 297      C6B0CC18 
 297      EC120B76 
 297      3B63
 298 0717 30B5432E 		.ascii	"0\265C.+\016qj\374\201\240z\221d\325\030\177h\325p\002"
 298      2B0E716A 
 298      FC81A07A 
 298      9164D518 
 298      7F68D570 
 299 072c 91B143FE 		.ascii	"\221\261C\376l\340\020\366k\247\242E\222G\255\331j\026"
 299      6CE010F6 
 299      6BA7A245 
 299      9247ADD9 
 299      6A16
 300 073e 72D56334 		.ascii	"r\325c4\210M\221+\306vw$\241F\247\262[\253&\300\277"
 300      884D912B 
 300      C6767724 
 300      A146A7B2 
 300      5BAB26C0 
 301 0753 646CF745 		.ascii	"dl\367E\003\273\223\207\005\225\026\266\373\256\326"
ARM GAS  /tmp/ccDk4sH7.s 			page 23


 301      03BB9387 
 301      059516B6 
 301      FBAED6
 302 0762 6E350BB9 		.ascii	"n5\013\271:\317\300n\234\031]\235Kb\2070\345\300\200"
 302      3ACFC06E 
 302      9C195D9D 
 302      4B628730 
 302      E5C080
 303 0775 29B04683 		.ascii	")\260F\203\340\301K\3035vi\210\231\211\304\327\241\016"
 303      E0C14BC3 
 303      35766988 
 303      9989C4D7 
 303      A10E
 304 0787 35BD8B4D 		.ascii	"5\275\213M\352\004\270\235#\373j\007G\322\323\235T\356"
 304      EA04B89D 
 304      23FB6A07 
 304      47D2D39D 
 304      54EE
 305 0799 A2723795 		.ascii	"\242r7\225{\251\354\244r\037\225\007\251<D\345a*?\240"
 305      7BA9ECA4 
 305      721F9507 
 305      A93C44E5 
 305      612A3FA0 
 306 07ad F22895C7 		.ascii	"\362(\225\307\251\374\220\312n*\317Py\226\312sT\366"
 306      A9FC90CA 
 306      6E2ACF50 
 306      7996CA73 
 306      54F6
 307 07bf 507989CA 		.ascii	"Py\211\312\313\234qB\334n`/=\220(\0111"
 307      CB9C7142 
 307      DC6E602F 
 307      3D902809 
 307      31
 308 07d0 FD1E7837 		.ascii	"\375\036x7\332\376 \022\374w\027B\364x\321\264|B\342"
 308      DAFE2012 
 308      FC771742 
 308      F478D1B4 
 308      7C42E2
 309 07e3 7470289B 		.ascii	"tp(\233M{\351\211\006\237\313\263\223\353\221\336\201"
 309      4D7BE989 
 309      069FCBB3 
 309      93EB91DE 
 309      81
 310 07f4 FC13EDD1 		.ascii	"\374\023\355\321\367\252\372(\221\374S\205IfU\313\226"
 310      F7AAFA28 
 310      91FC5385 
 310      496655CB 
 310      96
 311 0805 9C821F7C 		.ascii	"\234\202\037|r\367W\361\024\274\217\246\340\217U\\L"
 311      72F757F1 
 311      14BC8FA6 
 311      E08F555C 
 311      4C
 312 0816 E090BE6F 		.ascii	"\340\220\276oh3\360\217\257\323\014\374F\372\014\034"
 312      6833F08F 
 312      AFD30CFC 
 312      46FA0C1C 
ARM GAS  /tmp/ccDk4sH7.s 			page 24


 313 0826 C7D127D7 		.ascii	"\307\321'\327[\345\177\225\342\241\264*\007\312\230"
 313      5BE57F95 
 313      E2A1B42A 
 313      07CA98
 314 0835 434B9DAF 		.ascii	"CK\235\257^g\342ru\306`\316Tay\203\011\313\2334,o\321"
 314      5E67E272 
 314      75C660CE 
 314      54617983 
 314      09CB9B34 
 315 084c 20F93445 		.ascii	" \3714E\220\364\245\010\222\333J\220hZ=Nq\326\3527l"
 315      90F4A508 
 315      92DB4A90 
 315      685A3D4E 
 315      71D6EA37 
 316 0861 453E0818 		.ascii	"E>\010\030\265\372Li\005\012\363\363]\305\265\201\371"
 316      B5FA4C69 
 316      050AF3F3 
 316      5DC5B581 
 316      F9
 317 0872 812AAFAB 		.ascii	"\201*\257\253!\354\252\025\352\\\215\015!)\354\362V"
 317      21ECAA15 
 317      EA5C8D0D 
 317      2129ECF2 
 317      56
 318 0883 571616B8 		.ascii	"W\026\026\270**\334\256\227=\345U\277(p5\012u\276\272"
 318      2A2ADCAE 
 318      973DE555 
 318      BF287035 
 318      0A75BEBA 
 319 0897 BA9AFC5A 		.ascii	"\272\232\374Z\340\010K\365\205\005\276\205\215\201\006"
 319      E0084BF5 
 319      8505BE85 
 319      8D8106
 320 08a6 9F94F5F2 		.ascii	"\237\224\365\362\2533\235\305 \354\012.\240\345\207"
 320      AB339DC5 
 320      20EC0A2E 
 320      A0E587
 321 08b5 AEDA867A 		.ascii	"\256\332\206z\321\025\022\303\242\020\362\327b\304P"
 321      D11512C3 
 321      A210F2D7 
 321      62C450
 322 08c4 CD622124 		.ascii	"\315b!$\272\204P}\201k\241\337?\031W&\213\365\363\305"
 322      BA84507D 
 322      816BA1DF 
 322      3F195726 
 322      8BF5F3C5 
 323 08d8 9A1AB126 		.ascii	"\232\032\261&\371 \330\020\024'\213\302\374\300\344"
 323      F920D810 
 323      14278BC2 
 323      FCC0E4
 324 08e7 A9BE6993 		.ascii	"\251\276i\223\013\246\2740\365\347\005.\325\013W \350"
 324      0BA6BC30 
 324      F5E7052E 
 324      D50B5720 
 324      E8
 325 08f8 AF5B5423 		.ascii	"\257[T#\272\302RM (a\0369\213\360\035\023\221\226\301"
 325      BAC2524D 
ARM GAS  /tmp/ccDk4sH7.s 			page 25


 325      2028611E 
 325      398BF01D 
 325      139196C1 
 326 090c FF5FEFF5 		.ascii	"\377_\357\365\202\2776\020\024]\276\032q\201\260\250"
 326      82BF3610 
 326      145DBE1A 
 326      7181B0A8 
 327 091c 4EF2494B 		.ascii	"N\362IK\033\3050f3\314\347K\360\261UV\271K\370\254\252"
 327      1BC53066 
 327      33CCE74B 
 327      F0B15556 
 327      B94BF8AC 
 328 0931 EA399E12 		.ascii	"\3529\236\022>\273\312\353))q\3636\317L\217\233\267"
 328      3EBBCAEB 
 328      292971F3 
 328      36CF4C8F 
 328      9BB7
 329 0943 94E352E5 		.ascii	"\224\343R\345\346\341l\312\376\205\027}\222\334\220"
 329      E6E16CCA 
 329      FE85177D 
 329      92DC90
 330 0952 542D6151 		.ascii	"T-aQ\262\371\3530wXf\235\341\345ykE\361\217ykQ)_AD\231"
 330      B2F9EB30 
 330      7758669D 
 330      E1E5796B 
 330      45F18F79 
 331 096d 6506CFE7 		.ascii	"e\006\317\347\004\032\352\033jD\237\224]/\004\202\371"
 331      041AEA1B 
 331      6A449F94 
 331      5D2F0482 
 331      F9
 332 097e 7E3092FC 		.ascii	"~0\222\374\014/\016H\376\332\374F!$\345O\261\222'\303"
 332      0C2F0E48 
 332      FEDAFC46 
 332      2124E54F 
 332      B19227C3 
 333 0992 94C7D904 		.ascii	"\224\307\331\004\177\232O\262\307{\302\265Q\236\331"
 333      7F9A4FB2 
 333      C77BC2B5 
 333      519ED9
 334 09a1 BCAF2428 		.ascii	"\274\257$(\211!o\235(6Vb\325\\\362\310[QR\342\301\317"
 334      89216F9D 
 334      28365662 
 334      D55CF2C8 
 334      5B5152E2 
 335 09b7 434B472A 		.ascii	"CKG*\032\325U\036\242\360\024y\302\213\013\027\325\011"
 335      1AD5551E 
 335      A2F01479 
 335      C28B0B17 
 335      D509
 336 09c9 52436834 		.ascii	"RCh4\363\276\350U\367\2149D\305\216\371\373\302\222"
 336      F3BEE855 
 336      F78C3944 
 336      C58EF9FB 
 336      C292
 337 09db 2089362A 		.ascii	" \2116*\207\005\032H4\005j|\222#^\255\027\302?\363I"
 337      87051A48 
ARM GAS  /tmp/ccDk4sH7.s 			page 26


 337      34056A7C 
 337      92235EAD 
 337      17C23FF3 
 338 09f0 637C7234 		.ascii	"c|r4\371p\203\205\241\206E\215\204\354\004u,\206\244"
 338      F9708385 
 338      A186458D 
 338      84EC0475 
 338      2C86A4
 339 0a03 E4A0FB6B 		.ascii	"\344\240\373k\303K\311\030\333\375\265\336\245\341\362"
 339      C34BC918 
 339      DBFDB5DE 
 339      A5E1F2
 340 0a12 6040720E 		.ascii	"`@r\016\216\333\2042\256c\325l|#\212\223\324\212\342"
 340      8EDB8432 
 340      AE63D56C 
 340      7C238A93 
 340      D48AE2
 341 0a25 12C9555C 		.ascii	"\022\311U\\\351-\367*\330\015!\321\347\257\237J\002"
 341      E92DF72A 
 341      D80D21D1 
 341      E7AF9F4A 
 341      02
 342 0a36 CA5B3CC3 		.ascii	"\312[<\303W\215\375i+\366\314,w[\313\213\275\274uVu"
 342      578DFD69 
 342      2BF6CC2C 
 342      775BCB8B 
 342      BDBC7556 
 343 0a4b 156F2B2A 		.ascii	"\025o+*\347\213y\213\027\227br/\363\330\274e\344eq)"
 343      E78B798B 
 343      17976272 
 343      2FF3D8BC 
 343      65E46571 
 344 0a60 166544B8 		.ascii	"\026eD\270\261\260UV\226\026\361\326\031D\024\341\337"
 344      B1B05556 
 344      9616F1D6 
 344      194414E1 
 344      DF
 345 0a71 164F296F 		.ascii	"\026O)oq\343R\344\346\255\370\035o-\367\026\361v\276"
 345      71E352E4 
 345      E6ADF81D 
 345      6F2DF716 
 345      F176BE
 346 0a84 C45BC2CF 		.ascii	"\304[\302\317*qO\301\335\024\025\363.\223\014\313\203"
 346      2A714FC1 
 346      DD1415F3 
 346      2E930CCB 
 346      83
 347 0a95 61298459 		.ascii	"a)\204Y\332|\276\331\245\345O\011u\213\205\245a_ X\207"
 347      DA7CBED9 
 347      A5E54F09 
 347      758B85A5 
 347      615F2058 
 348 0aaa C3B1D008 		.ascii	"\303\261\320\010\303[\035\237\311\245\205K\226\270\350"
 348      C35B1D9F 
 348      C9A5854B 
 348      96B8E8
 349 0ab9 BC5D5038 		.ascii	"\274]P8\245p\211\037\343\014'\036$\326\272\305\005\034"
ARM GAS  /tmp/ccDk4sH7.s 			page 27


 349      A570891F 
 349      E30C271E 
 349      24D6BAC5 
 349      051C
 350 0acb B1CCCBFF 		.ascii	"\261\314\313\377\027\016\345\031\215"
 350      170EE519 
 350      8D
 351              		.text
 352              		.section	.gnu.lto_.symtab.d6cdc284b84e4190,"",%progbits
 353 0000 6D6F6465 		.ascii	"modeswitch\000\000\000\000\000\000\000\000\000\000\000"
 353      73776974 
 353      63680000 
 353      00000000 
 353      00000000 
 354 0015 00E20000 		.ascii	"\000\342\000\000\000PWR_EnterSleepMode\000\000\000\000"
 354      00505752 
 354      5F456E74 
 354      6572536C 
 354      6565704D 
 355 0030 00000000 		.ascii	"\000\000\000\000\000\000\000\000\350\000\000\000PWR"
 355      00000000 
 355      E8000000 
 355      505752
 356 003f 5F456E74 		.ascii	"_EnterSTOPMode\000\000\000\000\000\000\000\000\000\000"
 356      65725354 
 356      4F504D6F 
 356      64650000 
 356      00000000 
 357 0057 0000F500 		.ascii	"\000\000\365\000\000\000PWR_EnterSTANDBYMode\000\000"
 357      00005057 
 357      525F456E 
 357      74657253 
 357      54414E44 
 358 0073 00000000 		.ascii	"\000\000\000\000\000\000\000\000\000\000\374\000\000"
 358      00000000 
 358      0000FC00 
 358      00
 359 0080 00736574 		.ascii	"\000set_state\000\000\000\000\000\000\000\000\000\000"
 359      5F737461 
 359      74650000 
 359      00000000 
 359      00000000 
 360 0094 00000001 		.ascii	"\000\000\000\001\000\000main\000\000\000\000\000\000"
 360      00006D61 
 360      696E0000 
 360      00000000 
 361 00a4 00000000 		.ascii	"\000\000\000\000\000\000\005\001\000\000_pal_lld_se"
 361      00000501 
 361      00005F70 
 361      616C5F6C 
 361      6C645F73 
 362 00b9 7467726F 		.ascii	"tgroupmode\000\000\002\000\000\000\000\000\000\000\000"
 362      75706D6F 
 362      64650000 
 362      02000000 
 362      00000000 
 363 00ce 00080100 		.ascii	"\000\010\001\000\000chSysInit\000\000\002\000\000\000"
ARM GAS  /tmp/ccDk4sH7.s 			page 28


 363      00636853 
 363      7973496E 
 363      69740000 
 363      02000000 
 364 00e2 00000000 		.ascii	"\000\000\000\000\000\000\024\001\000\000halInit\000"
 364      00001401 
 364      00006861 
 364      6C496E69 
 364      7400
 365 00f4 00020000 		.ascii	"\000\002\000\000\000\000\000\000\000\000\000\026\001"
 365      00000000 
 365      00000016 
 365      01
 366 0101 0000     		.ascii	"\000\000"
 367              		.text
 368              		.section	.gnu.lto_.opts,"",%progbits
 369 0000 272D6D63 		.ascii	"'-mcpu=cortex-m4' '-mno-thumb-interwork' '-mthumb' "
 369      70753D63 
 369      6F727465 
 369      782D6D34 
 369      2720272D 
 370 0033 272D6767 		.ascii	"'-ggdb' '-O2' '-fomit-frame-pointer' '-falign-funct"
 370      64622720 
 370      272D4F32 
 370      2720272D 
 370      666F6D69 
 371 0066 696F6E73 		.ascii	"ions=16' '-ffunction-sections' '-fdata-sections' '-"
 371      3D313627 
 371      20272D66 
 371      66756E63 
 371      74696F6E 
 372 0099 666E6F2D 		.ascii	"fno-common' '-flto'\000"
 372      636F6D6D 
 372      6F6E2720 
 372      272D666C 
 372      746F2700 
 373              		.text
 374              		.cfi_sections	.debug_frame
 375              		.section	.text.modeswitch,"ax",%progbits
 376              		.align	2
 377              		.p2align 4,,15
 378              		.global	modeswitch
 379              		.thumb
 380              		.thumb_func
 381              		.type	modeswitch, %function
 382              	modeswitch:
 383              	.LFB272:
 384              		.file 1 "main.c"
 385              		.loc 1 54 0
 386              		.cfi_startproc
 387              		@ args = 0, pretend = 0, frame = 0
 388              		@ frame_needed = 0, uses_anonymous_args = 0
 389              		@ link register save eliminated.
 390              	.LVL0:
 391              		.loc 1 55 0
 392 0000 50B1     		cbz	r0, .L5
 393              	.LVL1:
ARM GAS  /tmp/ccDk4sH7.s 			page 29


 394              	.LBB10:
 395              	.LBB11:
 396              		.loc 1 59 0
 397 0002 0128     		cmp	r0, #1
 398 0004 00D0     		beq	.L6
 399 0006 7047     		bx	lr
 400              	.L6:
 401              		.loc 1 60 0
 402 0008 074B     		ldr	r3, .L7
 403 000a 4FF48041 		mov	r1, #16384
 404              		.loc 1 61 0
 405 000e 4FF40042 		mov	r2, #32768
 406              		.loc 1 60 0
 407 0012 5983     		strh	r1, [r3, #26]	@ movhi
 408              		.loc 1 61 0
 409 0014 1A83     		strh	r2, [r3, #24]	@ movhi
 410 0016 7047     		bx	lr
 411              	.LVL2:
 412              	.L5:
 413              	.LBE11:
 414              	.LBE10:
 415              		.loc 1 56 0
 416 0018 034B     		ldr	r3, .L7
 417 001a 4FF48041 		mov	r1, #16384
 418              		.loc 1 57 0
 419 001e 4FF40042 		mov	r2, #32768
 420              		.loc 1 56 0
 421 0022 5983     		strh	r1, [r3, #26]	@ movhi
 422              		.loc 1 57 0
 423 0024 5A83     		strh	r2, [r3, #26]	@ movhi
 424 0026 7047     		bx	lr
 425              	.L8:
 426              		.align	2
 427              	.L7:
 428 0028 000C0048 		.word	1207962624
 429              		.cfi_endproc
 430              	.LFE272:
 431              		.size	modeswitch, .-modeswitch
 432 002c AFF30080 		.section	.text.PWR_EnterSleepMode,"ax",%progbits
 433              		.align	2
 434              		.p2align 4,,15
 435              		.global	PWR_EnterSleepMode
 436              		.thumb
 437              		.thumb_func
 438              		.type	PWR_EnterSleepMode, %function
 439              	PWR_EnterSleepMode:
 440              	.LFB273:
 441              		.loc 1 66 0
 442              		.cfi_startproc
 443              		@ args = 0, pretend = 0, frame = 0
 444              		@ frame_needed = 0, uses_anonymous_args = 0
 445              		@ link register save eliminated.
 446              	.LVL3:
 447              		.loc 1 71 0
 448 0000 034B     		ldr	r3, .L10
 449 0002 1A69     		ldr	r2, [r3, #16]
 450 0004 22F00402 		bic	r2, r2, #4
ARM GAS  /tmp/ccDk4sH7.s 			page 30


 451 0008 1A61     		str	r2, [r3, #16]
 452              	.LBB12:
 453              	.LBB13:
 454              		.file 2 "../ChibiOS/os/ext/CMSIS/include/core_cmInstr.h"
 455              		.loc 2 434 0
 456              	@ 434 "../ChibiOS/os/ext/CMSIS/include/core_cmInstr.h" 1
 457 000a 30BF     		wfi
 458              	@ 0 "" 2
 459              		.thumb
 460 000c 7047     		bx	lr
 461              	.L11:
 462 000e 00BF     		.align	2
 463              	.L10:
 464 0010 00ED00E0 		.word	-536810240
 465              	.LBE13:
 466              	.LBE12:
 467              		.cfi_endproc
 468              	.LFE273:
 469              		.size	PWR_EnterSleepMode, .-PWR_EnterSleepMode
 470 0014 AFF30080 		.section	.text.PWR_EnterSTOPMode,"ax",%progbits
 470      AFF30080 
 470      AFF30080 
 471              		.align	2
 472              		.p2align 4,,15
 473              		.global	PWR_EnterSTOPMode
 474              		.thumb
 475              		.thumb_func
 476              		.type	PWR_EnterSTOPMode, %function
 477              	PWR_EnterSTOPMode:
 478              	.LFB274:
 479              		.loc 1 78 0
 480              		.cfi_startproc
 481              		@ args = 0, pretend = 0, frame = 0
 482              		@ frame_needed = 0, uses_anonymous_args = 0
 483              		@ link register save eliminated.
 484              	.LVL4:
 485              		.loc 1 86 0
 486 0000 084A     		ldr	r2, .L13
 487              		.loc 1 97 0
 488 0002 094B     		ldr	r3, .L13+4
 489              		.loc 1 86 0
 490 0004 1168     		ldr	r1, [r2]
 491              	.LVL5:
 492              		.loc 1 88 0
 493 0006 21F00301 		bic	r1, r1, #3
 494              	.LVL6:
 495              		.loc 1 91 0
 496 000a 0843     		orrs	r0, r0, r1
 497              	.LVL7:
 498              		.loc 1 94 0
 499 000c 1060     		str	r0, [r2]
 500              		.loc 1 97 0
 501 000e 1A69     		ldr	r2, [r3, #16]
 502 0010 42F00402 		orr	r2, r2, #4
 503 0014 1A61     		str	r2, [r3, #16]
 504              	.LBB14:
 505              	.LBB15:
ARM GAS  /tmp/ccDk4sH7.s 			page 31


 506              		.loc 2 434 0
 507              	@ 434 "../ChibiOS/os/ext/CMSIS/include/core_cmInstr.h" 1
 508 0016 30BF     		wfi
 509              	@ 0 "" 2
 510              		.thumb
 511              	.LBE15:
 512              	.LBE14:
 513              		.loc 1 101 0
 514 0018 1A69     		ldr	r2, [r3, #16]
 515 001a 22F00402 		bic	r2, r2, #4
 516 001e 1A61     		str	r2, [r3, #16]
 517 0020 7047     		bx	lr
 518              	.L14:
 519 0022 00BF     		.align	2
 520              	.L13:
 521 0024 00700040 		.word	1073770496
 522 0028 00ED00E0 		.word	-536810240
 523              		.cfi_endproc
 524              	.LFE274:
 525              		.size	PWR_EnterSTOPMode, .-PWR_EnterSTOPMode
 526 002c AFF30080 		.section	.text.PWR_EnterSTANDBYMode,"ax",%progbits
 527              		.align	2
 528              		.p2align 4,,15
 529              		.global	PWR_EnterSTANDBYMode
 530              		.thumb
 531              		.thumb_func
 532              		.type	PWR_EnterSTANDBYMode, %function
 533              	PWR_EnterSTANDBYMode:
 534              	.LFB275:
 535              		.loc 1 105 0
 536              		.cfi_startproc
 537              		@ args = 0, pretend = 0, frame = 0
 538              		@ frame_needed = 0, uses_anonymous_args = 0
 539              		@ link register save eliminated.
 540              		.loc 1 107 0
 541 0000 074B     		ldr	r3, .L16
 542              		.loc 1 113 0
 543 0002 084A     		ldr	r2, .L16+4
 544              		.loc 1 107 0
 545 0004 1968     		ldr	r1, [r3]
 546 0006 41F00401 		orr	r1, r1, #4
 547 000a 1960     		str	r1, [r3]
 548              		.loc 1 110 0
 549 000c 1968     		ldr	r1, [r3]
 550 000e 41F00201 		orr	r1, r1, #2
 551 0012 1960     		str	r1, [r3]
 552              		.loc 1 113 0
 553 0014 1369     		ldr	r3, [r2, #16]
 554 0016 43F00403 		orr	r3, r3, #4
 555 001a 1361     		str	r3, [r2, #16]
 556              	.LBB16:
 557              	.LBB17:
 558              		.loc 2 434 0
 559              	@ 434 "../ChibiOS/os/ext/CMSIS/include/core_cmInstr.h" 1
 560 001c 30BF     		wfi
 561              	@ 0 "" 2
 562              		.thumb
ARM GAS  /tmp/ccDk4sH7.s 			page 32


 563 001e 7047     		bx	lr
 564              	.L17:
 565              		.align	2
 566              	.L16:
 567 0020 00700040 		.word	1073770496
 568 0024 00ED00E0 		.word	-536810240
 569              	.LBE17:
 570              	.LBE16:
 571              		.cfi_endproc
 572              	.LFE275:
 573              		.size	PWR_EnterSTANDBYMode, .-PWR_EnterSTANDBYMode
 574 0028 AFF30080 		.section	.text.set_state,"ax",%progbits
 574      AFF30080 
 575              		.align	2
 576              		.p2align 4,,15
 577              		.global	set_state
 578              		.thumb
 579              		.thumb_func
 580              		.type	set_state, %function
 581              	set_state:
 582              	.LFB276:
 583              		.loc 1 124 0
 584              		.cfi_startproc
 585              		@ args = 0, pretend = 0, frame = 0
 586              		@ frame_needed = 0, uses_anonymous_args = 0
 587              		@ link register save eliminated.
 588              	.LVL8:
 589              		.loc 1 127 0
 590 0000 0B49     		ldr	r1, .L24
 591              		.loc 1 124 0
 592 0002 10B4     		push	{r4}
 593              		.cfi_def_cfa_offset 4
 594              		.cfi_offset 4, -4
 595              		.loc 1 124 0
 596 0004 0B23     		movs	r3, #11
 597              		.loc 1 127 0
 598 0006 0124     		movs	r4, #1
 599              	.LVL9:
 600              	.L22:
 601 0008 A3F10B02 		sub	r2, r3, #11
 602              	.LVL10:
 603 000c 40FA02F2 		asr	r2, r0, r2
 604              	.LVL11:
 605 0010 12F0010F 		tst	r2, #1
 606 0014 04FA03F2 		lsl	r2, r4, r3
 607 0018 92B2     		uxth	r2, r2
 608 001a 03F10103 		add	r3, r3, #1
 609              	.LVL12:
 610 001e 14BF     		ite	ne
 611 0020 0A83     		strhne	r2, [r1, #24]	@ movhi
 612 0022 4A83     		strheq	r2, [r1, #26]	@ movhi
 613              	.LVL13:
 614              		.loc 1 126 0
 615 0024 102B     		cmp	r3, #16
 616 0026 EFD1     		bne	.L22
 617              		.loc 1 133 0
 618 0028 5DF8044B 		ldr	r4, [sp], #4
ARM GAS  /tmp/ccDk4sH7.s 			page 33


 619 002c 7047     		bx	lr
 620              	.L25:
 621 002e 00BF     		.align	2
 622              	.L24:
 623 0030 000C0048 		.word	1207962624
 624              		.cfi_endproc
 625              	.LFE276:
 626              		.size	set_state, .-set_state
 627 0034 AFF30080 		.section	.text.startup.main,"ax",%progbits
 627      AFF30080 
 627      AFF30080 
 628              		.align	2
 629              		.p2align 4,,15
 630              		.global	main
 631              		.thumb
 632              		.thumb_func
 633              		.type	main, %function
 634              	main:
 635              	.LFB277:
 636              		.loc 1 136 0
 637              		.cfi_startproc
 638              		@ Volatile: function does not return.
 639              		@ args = 0, pretend = 0, frame = 0
 640              		@ frame_needed = 0, uses_anonymous_args = 0
 641 0000 08B5     		push	{r3, lr}
 642              		.cfi_def_cfa_offset 8
 643              		.cfi_offset 3, -8
 644              		.cfi_offset 14, -4
 645              		.loc 1 151 0
 646 0002 FFF7FEFF 		bl	halInit
 647              	.LVL14:
 648              		.loc 1 152 0
 649 0006 FFF7FEFF 		bl	chSysInit
 650              	.LVL15:
 651              		.loc 1 154 0
 652 000a 0F48     		ldr	r0, .L28
 653 000c 4FF40061 		mov	r1, #2048
 654 0010 0122     		movs	r2, #1
 655 0012 FFF7FEFF 		bl	_pal_lld_setgroupmode
 656              	.LVL16:
 657              		.loc 1 155 0
 658 0016 0C48     		ldr	r0, .L28
 659 0018 4FF48051 		mov	r1, #4096
 660 001c 0122     		movs	r2, #1
 661 001e FFF7FEFF 		bl	_pal_lld_setgroupmode
 662              	.LVL17:
 663              		.loc 1 156 0
 664 0022 0948     		ldr	r0, .L28
 665 0024 4FF40051 		mov	r1, #8192
 666 0028 0122     		movs	r2, #1
 667 002a FFF7FEFF 		bl	_pal_lld_setgroupmode
 668              	.LVL18:
 669              		.loc 1 157 0
 670 002e 0648     		ldr	r0, .L28
 671 0030 4FF48041 		mov	r1, #16384
 672 0034 0122     		movs	r2, #1
 673 0036 FFF7FEFF 		bl	_pal_lld_setgroupmode
ARM GAS  /tmp/ccDk4sH7.s 			page 34


 674              	.LVL19:
 675              		.loc 1 158 0
 676 003a 0348     		ldr	r0, .L28
 677 003c 4FF40041 		mov	r1, #32768
 678 0040 0122     		movs	r2, #1
 679 0042 FFF7FEFF 		bl	_pal_lld_setgroupmode
 680              	.LVL20:
 681              	.L27:
 682 0046 FEE7     		b	.L27
 683              	.L29:
 684              		.align	2
 685              	.L28:
 686 0048 000C0048 		.word	1207962624
 687              		.cfi_endproc
 688              	.LFE277:
 689              		.size	main, .-main
 690 004c AFF30080 		.text
 691              	.Letext0:
 692              		.file 3 "/nfs/nfs5/home/research/hardware/arm2/gcc-arm-embedded/gcc-arm-none-eabi-4_8-2014q2/arm-n
 693              		.file 4 "/nfs/nfs5/home/research/hardware/arm2/gcc-arm-embedded/gcc-arm-none-eabi-4_8-2014q2/arm-n
 694              		.file 5 "../ChibiOS/os/rt/ports/ARMCMx/compilers/GCC/chtypes.h"
 695              		.file 6 "../ChibiOS/os/rt/include/chsystypes.h"
 696              		.file 7 "../ChibiOS/os/rt/include/chschd.h"
 697              		.file 8 "../ChibiOS/os/ext/CMSIS/include/core_cm4.h"
 698              		.file 9 "../ChibiOS/os/ext/CMSIS/ST/STM32F3xx/stm32f303xc.h"
 699              		.file 10 "../ChibiOS/os/rt/ports/ARMCMx/chcore.h"
 700              		.file 11 "../ChibiOS/os/rt/ports/ARMCMx/chcore_v7m.h"
 701              		.file 12 "../ChibiOS/os/rt/include/chtm.h"
 702              		.file 13 "../ChibiOS/os/rt/include/chsem.h"
 703              		.file 14 "../ChibiOS/os/rt/include/chmtx.h"
 704              		.file 15 "../ChibiOS/os/hal/ports/STM32/LLD/GPIOv2/pal_lld.h"
 705              		.file 16 "../ChibiOS/os/hal/include/hal.h"
 706              		.file 17 "../ChibiOS/os/rt/include/chsys.h"