ARM GAS  /tmp/ccCFhKrO.s 			page 1


   1              		.syntax unified
   2              		.cpu cortex-m4
   3              		.fpu softvfp
   4              		.eabi_attribute 20, 1
   5              		.eabi_attribute 21, 1
   6              		.eabi_attribute 23, 3
   7              		.eabi_attribute 24, 1
   8              		.eabi_attribute 25, 1
   9              		.eabi_attribute 26, 1
  10              		.eabi_attribute 30, 2
  11              		.eabi_attribute 34, 1
  12              		.eabi_attribute 18, 4
  13              		.thumb
  14              		.file	"nvic.c"
  15              		.text
  16              	.Ltext0:
  17              		.section	.gnu.lto_.jmpfuncs.9dd803986012fbc7,"",%progbits
  18 0000 789C6362 		.ascii	"x\234cb`b\300\006\270\2404\013\0033##\02333#\003\000"
  18      6062C006 
  18      B8A0340B 
  18      03332323 
  18      13333323 
  19 0016 01F00021 		.ascii	"\001\360\000!"
  20              		.text
  21              		.section	.gnu.lto_.inline.9dd803986012fbc7,"",%progbits
  22 0000 789C6D4C 		.ascii	"x\234mL\313\025\200 \014KK\205\352\305\021\330\300%"
  22      CB158020 
  22      0C4B4B85 
  22      EAC511D8 
  22      C025
  23 0012 5D84911C 		.ascii	"]\204\221\034\305\021LQy\036\354!}\371*\024\177\267"
  23      C5114C51 
  23      791EEC21 
  23      7DF92A14 
  23      7FB7
  24 0024 3FDF8065 		.ascii	"?\337\200e\026\025\011\022`\371\334\220[U\350\261\032"
  24      16150912 
  24      60F9DC90 
  24      5B55E8B1 
  24      1A
  25 0035 C89CAAD3 		.ascii	"\310\234\252\323\363\302TD\222\265zG\350Z\037QL&\322"
  25      F3C25444 
  25      92B57A47 
  25      E85A1F51 
  25      4C26D2
  26 0048 57127B9F 		.ascii	"W\022{\237\201PP\362[\035\346\250\342\002a/\015\002"
  26      815050F2 
  26      5B1DE6A8 
  26      E202612F 
  26      0D02
  27              		.text
  28              		.section	.gnu.lto_.pureconst.9dd803986012fbc7,"",%progbits
  29 0000 789C6362 		.ascii	"x\234cb`b\340d\200\000\026\006)F)&)f)\000\002\326\000"
  29      6062E064 
  29      80001606 
  29      29462926 
  29      29662900 
ARM GAS  /tmp/ccCFhKrO.s 			page 2


  30 0017 80       		.ascii	"\200"
  31              		.text
  32              		.section	.gnu.lto_nvicEnableVector.9dd803986012fbc7,"",%progbits
  33 0000 789C9D91 		.ascii	"x\234\235\221\277K\303@\024\307\337\2734\346GQW\235"
  33      BF4BC340 
  33      14C7DFBB 
  33      34E64751 
  33      579D
  34 0012 2CBA08D2 		.ascii	",\272\010\322\244\340\340\340$\235\034\212P+\350\330"
  34      A4E0E0E0 
  34      249D1C8A 
  34      502BE8D8 
  35 0022 664803B6 		.ascii	"fH\003\266\021+\342f\332t\323\241\203\213\325\301\""
  35      112BE266 
  35      DA74D3A1 
  35      838BD5C1 
  35      22
  36 0033 22883FFE 		.ascii	"\"\210?\376\000AJ7\207*nNR\\\005\021'A!\276Kl\244\""
  36      00414A37 
  36      872A6E4E 
  36      525C0511 
  36      274121BE 
  37 004b 0E1EDCDD 		.ascii	"\016\036\334\335\273{\337\367\276\237\343\0300\3709"
  37      BB7BDFF7 
  37      BE9FE318 
  37      30F839
  38 005a 8669A6E9 		.ascii	"\206i\246\351z\222v\024\000Y\355\006\240,3D\036\000"
  38      7A927614 
  38      0059ED06 
  38      A02C3344 
  38      1E00
  39 006c C226C3CD 		.ascii	"\302&\303\315%\344R\034\205\206\343\324:G\217olw\247"
  39      25E4521C 
  39      8586E3D4 
  39      3A478F6F 
  39      6C77A7
  40 007f 593D703E 		.ascii	"Y=p><\017\321Bj\233@0\020\026\351\2001\177c\221^\237"
  40      3C0FD142 
  40      6A9B4030 
  40      1016E980 
  40      317F6391 
  41 0095 0BD6EC78 		.ascii	"\013\326\354x\336\376m\375a\010\373\021\013\274\310"
  41      DEFE6DFD 
  41      6108FB11 
  41      0BBCC8
  42 00a4 4241E08B 		.ascii	"BA\340\213HG\224(\212\310\220\305\006\371(t\000\225"
  42      48479428 
  42      8AC890C5 
  42      06F92874 
  42      0095
  43 00b6 16914A45 		.ascii	"\026\221JE\250\222m\014\270\003\215\014\255\234m\001"
  43      A8926D0C 
  43      B8038D0C 
  43      AD9C6D01 
  44 00c6 19DF8536 		.ascii	"\031\337\2056T\236\\\357\035\263xHr\023\231\211\244"
  44      549E5CEF 
  44      1DB37848 
ARM GAS  /tmp/ccCFhKrO.s 			page 3


  44      72139989 
  44      A4
  45 00d7 68837B26 		.ascii	"h\203{&t\257\004\272\345P}\034\252\015\255\331 \021"
  45      74AF04BA 
  45      E5507D1C 
  45      AA0DADD9 
  45      2011
  46 00e9 8753A75A 		.ascii	"\207S\247Zv\246(1\001'<\034\264P\332\203:Ie\256W\234"
  46      76A62831 
  46      01273C1C 
  46      B450DA83 
  46      3A4965AE 
  47 00ff 96EB0CF8 		.ascii	"\226\353\014\370\357Q\374W\3440x\215\351\203\005\221"
  47      EF51FC57 
  47      E430788D 
  47      E9830591 
  48 010f E09B9DBB 		.ascii	"\340\233\235\273\307\333\343]?\211\362\274\010D\337"
  48      C7DBE35D 
  48      3F89F2BC 
  48      0844DF
  49 011e AFF2EC5E 		.ascii	"\257\362\354^\205x\262_K\025\227!\236b\006v0\002\001"
  49      8578B25F 
  49      4B159721 
  49      9E620676 
  49      300201
  50 0131 B8FB1ACA 		.ascii	"\270\373\032\312U\236\020\221\253|\364\353\227h\017"
  50      559E1091 
  50      AB7CF4EB 
  50      97680F
  51 0140 FCB485EA 		.ascii	"\374\264\205\3527|\364ox\374B\226Bx5hzO_\372\377\266"
  51      377CF46F 
  51      78FC4296 
  51      42783568 
  51      7A4F5FFA 
  52 0156 ECB7B677 		.ascii	"\354\267\266wP\356l\215\005M\273#C\004\364e\\\037\327"
  52      50EE6C8D 
  52      054DBB23 
  52      4304F465 
  52      5C1FD7
  53 0169 343D99B7 		.ascii	"4=\231\267r\326\334\274n\227\364|vY_\261W\327J\272a"
  53      72D6DCBC 
  53      6E97F47C 
  53      76595FB1 
  53      57D74ABA 
  54 017e 170A7651 		.ascii	"\027\012vQ\237I\247\222\251\015\275\270n\031\232\001"
  54      9F49A792 
  54      A90DBDB8 
  54      6E199A01 
  55 018e 42514B7C 		.ascii	"BQK|\002\020\\\224\200"
  55      02105C94 
  55      80
  56              		.text
  57              		.section	.gnu.lto_nvicDisableVector.9dd803986012fbc7,"",%progbits
  58 0000 789C7D50 		.ascii	"x\234}P=K\003A\020\235\267w\247\211\202bie\320F\220"
  58      3D4B0341 
  58      109DB777 
  58      A7898262 
ARM GAS  /tmp/ccCFhKrO.s 			page 4


  58      6965D046 
  59 0015 DC291616 		.ascii	"\334)\026\026V\222:\010\032A\313\344\212\344\300\344"
  59      56923A08 
  59      1A41CBE4 
  59      8AE4C0E4 
  60 0025 C488D8E5 		.ascii	"\304\210\330\345\342\305\316\"\205\205\037\215\301."
  60      E2C5CE22 
  60      85851F8D 
  60      C12E
  61 0033 C40FB011 		.ascii	"\304\017\260\021\004\011\001\013\213\010\376\203`#X"
  61      0409010B 
  61      8B08FE83 
  61      602358
  62 0042 88689342 		.ascii	"\210h\223B8g/9%\026\016\354\316\354\2747ofV\220\240"
  62      38672F39 
  62      25160EEC 
  62      CEECBC37 
  62      6F665690 
  63 0057 BF36CAE7 		.ascii	"\2776\312\347\036D\263\354\241\020D\371\221\250\030"
  63      1E44B3EC 
  63      A11044F9 
  63      91A818
  64 0066 12800C08 		.ascii	"\022\200\014\010T\020(\254AR1N\025\307)\267\366^\332"
  64      541028AC 
  64      4152314E 
  64      15C729B7 
  64      F65EDA
  65 0079 E2E8A05E 		.ascii	"\342\350\240^:u\276<\017\260\300\262\323 \023\264\312"
  65      3A75BE3C 
  65      0FB0C0B2 
  65      D32013B4 
  65      CA
  66 008a 0F447C27 		.ascii	"\017D|'\324\336>\227\242\336\362\274\332\365\325s\025"
  66      D4DE3E97 
  66      A2DEF2BC 
  66      DAF5D573 
  66      15
  67 009b 2361202B 		.ascii	"#a +\253,(\012%Qae\225\037\244\361%\3534*q\243\010I"
  67      AB2C280A 
  67      25516165 
  67      951FA4F1 
  67      25EB342A 
  68 00b3 4DB604DF 		.ascii	"M\266\004\337r\232\025\010\351\225&\271\027\356\347"
  68      729A1508 
  68      E99526B9 
  68      17EEE7
  69 00c2 FE641267 		.ascii	"\376d\022g\320(\015\221\006dO\256#j\322\356\233{\207"
  69      D0280D91 
  69      06644FAE 
  69      236AD2EE 
  69      9B7B87
  70 00d5 00531893 		.ascii	"\000S\030\223I\367V\011R*g}\372\230Ow\317\335\217\037"
  70      49F75609 
  70      522A677D 
  70      FA984F77 
  70      CFDD8F1F 
  71 00e9 BA260115 		.ascii	"\272&\001\025\222%\261\306\303\373`\007\212R\315)\025"
ARM GAS  /tmp/ccCFhKrO.s 			page 5


  71      9225B1C6 
  71      C3FB6007 
  71      8A52CD29 
  71      15
  72 00fa 9D790BDA 		.ascii	"\235y\013\332\024Ue8l\241\357\204\216\231\337/\213B"
  72      14556538 
  72      6CA1EF84 
  72      8E99DF2F 
  72      8B42
  73 010c 4EC37586 		.ascii	"N\303u\206\374\335C\376\306)t6\347\371(\2104_\364\346"
  73      FCDD43FE 
  73      C6297436 
  73      E7F92888 
  73      345FF4E6 
  74 0120 F0B58D1E 		.ascii	"\360\265\215\036\3319\013\341_\331\201\377e\321\025"
  74      D9390BE1 
  74      5FD981FF 
  74      65D115
  75 012f EBEAFB58 		.ascii	"\353\352\373XX\006OTlU':\302\201%\230\306\177&G\210"
  75      58064F54 
  75      6C55273A 
  75      C2812598 
  75      C67F2647 
  76 0144 EABA11CB 		.ascii	"\352\272\021\313X)kq\331\260\363F&\271nl\330\233[y\303"
  76      58296B71 
  76      D9B0F346 
  76      26B96E6C 
  76      D89B5B79 
  77 0159 B4B3593B 		.ascii	"\264\263Y;g,,\305c\361\035#\267m\231\272IJN\237\371"
  77      672C2CC5 
  77      63F11D23 
  77      B76D99BA 
  77      494A4E9F 
  78 016e 06CE8A78 		.ascii	"\006\316\212xt"
  78      74
  79              		.text
  80              		.section	.gnu.lto_nvicSetSystemHandlerPriority.9dd803986012fbc7,"",%progbits
  81 0000 789C5D50 		.ascii	"x\234]P-O\003A\020}o\267\0270\340q$\225\344n%\232T!"
  81      2D4F0341 
  81      107D6FB7 
  81      1730E071 
  81      2495E46E 
  82 0018 1A122809 		.ascii	"\032\022(\011\310\366D\273\011\327#\224\020\\\367\270"
  82      C8F644BB 
  82      09D72394 
  82      105CF7B8 
  83 0028 0649AA41 		.ascii	"\006I\252Aa\011\037\202?@\021\270^\202E\325c\020\370"
  83      61091F82 
  83      3F4011B8 
  83      5E8245D5 
  83      6310F8
  84 003b 327B9733 		.ascii	"2{\2273L2\263og\336\274}Y\005\205\377\261!\371#i$\251"
  84      4C32B36F 
  84      67DEBC7D 
  84      590585FF 
  84      B121F923 
  85 0052 41352D80 		.ascii	"A5-\200lU\221\036\200\030+\216\217Yr_\324\333b\271|"
ARM GAS  /tmp/ccCFhKrO.s 			page 6


  85      6C55911E 
  85      80182B8E 
  85      8F59725F 
  85      D4DB62B9 
  86 0067 FEBDFE98 		.ascii	"\376\275\376\230\261h\256\220\011E\321\022\332\227@"
  86      B168AE90 
  86      0945D112 
  86      DA9740
  87 0076 AE9E1760 		.ascii	"\256\236\027`\342\334t3\241<\026\227\213\035\251^\355"
  87      E2DC7433 
  87      A13C1697 
  87      8B1DA95E 
  87      ED
  88 0087 505A72EA 		.ascii	"PZr\3529\256\276\363\327\233\260\313{\006\350S\365\375"
  88      39AEBEF3 
  88      D79BB0CB 
  88      7B06E853 
  88      F5FD
  89 0099 E21CF993 		.ascii	"\342\034\371\223\256[Z\272G\264d\003~\362\276[\015B"
  89      AE5B5ABA 
  89      47B46403 
  89      7EF2BE5B 
  89      0D42
  90 00ab 3CBA49E6 		.ascii	"<\272I\346\266e\260\205\007\017\327,\325\035n\205\252"
  90      B665B085 
  90      070FD72C 
  90      D51D6E85 
  90      AA
  91 00bc 3DBFE1BE 		.ascii	"=\277\341\276r\267\216\022\226\236{\225u\221\014P#\015"
  91      72B78E12 
  91      969E7B95 
  91      75910C50 
  91      230D
  92 00ce 7C225B14 		.ascii	"|\"[\024\315J\264\216\216\270\020{\376\217\302(2\255"
  92      CD4AB48E 
  92      8EB8107B 
  92      FE8FC228 
  92      32AD
  93 00e0 81EDD9BD 		.ascii	"\201\355\331\275\003\223\216\314\240{bN\323\263\363"
  93      03938ECC 
  93      A07B624E 
  93      D3B3F3
  94 00ef 9189D324 		.ascii	"\221\211\323$I\207fg\277\335j_\232\341\205\215\243\030"
  94      49876667 
  94      BFDD6A5F 
  94      9AE1858D 
  94      A318
  95 0101 7F83C847 		.ascii	"\177\203\310G\205"
  95      85
  96              		.text
  97              		.section	.gnu.lto_nvicClearPending.9dd803986012fbc7,"",%progbits
  98 0000 789C5D50 		.ascii	"x\234]P1H\303P\020\275\367\177\222\352\2428:Yt\021\244"
  98      3148C350 
  98      10BDF77F 
  98      92EAA238 
  98      3A597411 
  99 0015 89E8E824 		.ascii	"\211\350\350$\235\034\212\240\025tL3\264\001\333\210"
ARM GAS  /tmp/ccCFhKrO.s 			page 7


  99      9D1C8AA0 
  99      15744C33 
  99      B401DB88 
 100 0025 1571EBAF 		.ascii	"\025q\353\257\351,\035\\\324\305\342&Uw\273\224\356"
 100      E92C1D5C 
 100      D4C5E226 
 100      5577BB94 
 100      EE
 101 0036 15DD1D8A 		.ascii	"\025\335\035\212 \024\007W\027!\336OMA\017\376\277\373"
 101      20140757 
 101      1721DE4F 
 101      4D410FFE 
 101      BFFB
 102 0048 EFDEBDBB 		.ascii	"\357\336\275\273\177\202\004\375\267Y>\012D\253\354"
 102      7F8204FD 
 102      B7593E0A 
 102      44ABEC
 103 0057 2109A2F9 		.ascii	"!\011\242\371DT\237\020\200\016\010T\023\250\355AS1"
 103      44549F10 
 103      800E0854 
 103      13A8ED41 
 103      5331
 104 0069 4F2DA59A 		.ascii	"O-\245\232\203\367\257gyq\336m\\\253\357(\002|\260\354"
 104      83F7AF67 
 104      7971DE6D 
 104      5CABEF28 
 104      027CB0EC 
 105 007d 32C803ED 		.ascii	"2\310\003\355\362\003\351\330\011\343o\237\007\321\035"
 105      F203E9D8 
 105      09E36F9F 
 105      07D11D
 106 008c 44D16BA7 		.ascii	"D\321k\247\3756\304\314$P\326U>\244$\027-V6\370A\246"
 106      FD36C4CC 
 106      2450D655 
 106      3EA42417 
 106      2D5636F8 
 107 00a2 BE2C0D73 		.ascii	"\276,\015s\205I\015\356\226&-\314\226\347[\217\264\003"
 107      85490DEE 
 107      96262DCC 
 107      96E75B8F 
 107      B403
 108 00b4 A1BDEC53 		.ascii	"\241\275\354Sx\037Fg\213.n`R\021\242\010\350\306\\G"
 108      781F4667 
 108      8B2E6E60 
 108      5211A208 
 108      E8C65C47 
 109 00c8 D4A7D3CF 		.ascii	"\324\247\323\317\360\003INrN\203aG&\220\301hL\237\213"
 109      F003494E 
 109      724E8361 
 109      472690C1 
 109      684C9F8B 
 110 00dc E9E1DD38 		.ascii	"\351\341\3358c\30604\347W\350q,dqZ\203\275\215\021\222"
 110      63C63034 
 110      E757E871 
 110      2C64715A 
 110      83BD8D11 
 111 00f1 A1B66AD4 		.ascii	"\241\266j\324\325\232\017c\211nu8\355\303\274\242K\226"
ARM GAS  /tmp/ccCFhKrO.s 			page 8


 111      D59A0F63 
 111      896E7538 
 111      EDC3BCA2 
 111      4B96
 112 0103 B0B44E4A 		.ascii	"\260\264NJ\365B5\025o$\025\357\241\200\321>x`J\"\213"
 112      F5423515 
 112      6F2415EF 
 112      A180D13E 
 112      78604A22 
 113 0118 E885EA83 		.ascii	"\350\205\352\203\341\302H4\261<\017\315?\325\274\214"
 113      E1C24834 
 113      B13C0FCD 
 113      3FD5BC8C 
 114 0128 6D3BD992 		.ascii	"m;\331\222_\3607\267\235\240\352\224\334}\347 8<\252"
 114      5FF037B7 
 114      9DA0EA94 
 114      DC7DE720 
 114      383CAA
 115 013b 3A5E502E 		.ascii	":^P.\007\025g}+\227\315\2358\225c\337\263=\222\025{"
 115      0715677D 
 115      2B97CD9D 
 115      389563DF 
 115      B33D9215 
 116 0150 E5077161 		.ascii	"\345\007qahb"
 116      6862
 117              		.text
 118              		.section	.gnu.lto_.symbol_nodes.9dd803986012fbc7,"",%progbits
 119 0000 789C4DC7 		.ascii	"x\234M\307\261\025\000\020\020D\301\275\257/\255m*<"
 119      B1150010 
 119      1044C1BD 
 119      AF2FAD6D 
 119      2A3C
 120 0012 E44A5293 		.ascii	"\344JR\223\304{L6\010U]$\226rK\366jA\307\361u`\276N"
 120      C47B4C36 
 120      08555D24 
 120      96724BF6 
 120      6A41C7F1 
 121 002a 5C5E7500 		.ascii	"\\^u\000Ff\022\247"
 121      466612A7 
 122              		.text
 123              		.section	.gnu.lto_.refs.9dd803986012fbc7,"",%progbits
 124 0000 789C6362 		.ascii	"x\234cb`b`d\200\002\000\000F\000\006"
 124      60626064 
 124      80020000 
 124      460006
 125              		.text
 126              		.section	.gnu.lto_.decls.9dd803986012fbc7,"",%progbits
 127 0000 789CBD59 		.ascii	"x\234\275Yal\024\307\025\236\331\273\303\276\340:\020"
 127      616C14C7 
 127      159ED9BB 
 127      C3BEE03A 
 127      10
 128 0011 A529A9A8 		.ascii	"\245)\251\250p\252&\252\322\332\013\016i\310\237\010"
 128      70AA26AA 
 128      D2DA0B0E 
 128      69C89F08 
 129 0021 7336F5FD 		.ascii	"s6\365\375pb\335\001\252\024\211c9/\361I\366\035=\037"
ARM GAS  /tmp/ccCFhKrO.s 			page 9


 129      7062DD01 
 129      AA148963 
 129      392FF149 
 129      F61D3D1F 
 130 0035 6DF837AE 		.ascii	"m\3707\256CK\012IM\200\324M\211uPS\212\342\022\352\020"
 130      434B0A49 
 130      4D80D44D 
 130      89755053 
 130      8AE212EA 
 131 004a CB46889E 		.ascii	"\313F\210\236\010JI\023)@\222B0!\227FU\232\246\251\023"
 131      084A4913 
 131      29409242 
 131      30219746 
 131      559AA6A9 
 132 005f A5498B4A 		.ascii	"\245I\213J\270\276\231\335\331\335\331\3339\357FUW\232"
 132      B8BE99DD 
 132      D9DDD9DB 
 132      39EF4655 
 132      579A
 133 0071 77B3BB6F 		.ascii	"w\263\273o\276\371\2767og\237\327\012R\320N\214P\005"
 133      BEF9BE37 
 133      6F679FD7 
 133      0A52D04E 
 133      8C5005
 134 0084 8EEC5711 		.ascii	"\216\354W\021zUA(\202\020\272\017\331G\030\332~h\023"
 134      7A554128 
 134      8210BA0F 
 134      D94718DA 
 134      7E6813
 135 0097 D0A6A09D 		.ascii	"\320\246\240\235D\325\007\275\337`\3726\232}\200Eu\310"
 135      44D507BD 
 135      DF60FA36 
 135      9A7D8045 
 135      75C8
 136 00a9 C03B05ED 		.ascii	"\300;\005\355%h\257@\373\024\332k\320\316C\013A\373"
 136      2568AF40 
 136      FB14DA6B 
 136      D0CE430B 
 136      41FB
 137 00bb 10DABBD0 		.ascii	"\020\332\273\320\316\231c(\026\320@\317B\373\255k\036"
 137      CE996328 
 137      16D040CF 
 137      42FBAD6B 
 137      1E
 138 00cc CA61BE6B 		.ascii	"\312a\276k\036>\007\307\344s\3609)\326\2149\01761\350"
 138      1E3E07C7 
 138      E473F039 
 138      29D68C39 
 138      0F3631E8 
 139 00e0 EFA40B7B 		.ascii	"\357\244\013{\312\304\301\346\330\317\240]\205\266\014"
 139      CAC4C1E6 
 139      D8CFA05D 
 139      85B60C
 140 00ef 1BD7E69B 		.ascii	"\033\327\346\233\277S&\357\023\320\216Ck\305\"\016\215"
 140      BF5326EF 
 140      13D08E43 
 140      6BC5220E 
ARM GAS  /tmp/ccCFhKrO.s 			page 10


 140      8D
 141 0100 4FBD0747 		.ascii	"O\275\007G7?l\352\306\346\030\372[rqZ\202FI\261\\>8"
 141      373F6CEA 
 141      C6E618FA 
 141      5B72715A 
 141      824649B1 
 142 0117 FA32264F 		.ascii	"\3722&O\220k\225J\010\335\202\366\0228\212?&\004\027"
 142      906B954A 
 142      08DD82F6 
 142      12388A3F 
 142      260417
 143 012a 347CDF97 		.ascii	"4|\337\227\321\367\260\206\033\243\250\211u\032\242"
 143      D1F7B086 
 143      1BA3A889 
 143      751AA2
 144 0139 6C628434 		.ascii	"lb\2044|\000\337\302z!\026\002\024E\333\011\371\021"
 144      7C00DFC2 
 144      7A211602 
 144      1445DB09 
 144      F911
 145 014b 1DD87906 		.ascii	"\035\330y\006xy\215\272\035\215\0212\\>wx\347\267\011"
 145      78798DBA 
 145      1D8D1132 
 145      5C3E7778 
 145      E7B709
 146 015e A9D7F018 		.ascii	"\251\327\360\030\216\302\3301\214\321\235\3500L:L\310"
 146      8EC2D831 
 146      8CD19DE8 
 146      304C3A4C 
 146      C8
 147 016f 817B1454 		.ascii	"\201{\024T}\370\307~s\307\211{\031\366o\030\366\264"
 147      7DF8C77E 
 147      73C7897B 
 147      19F66F18 
 147      F6B4
 148 0181 8281E921 		.ascii	"\202\201\351!|\247\011\244\341\272\250\023\230\235s"
 148      7CA709A4 
 148      E1BAA813 
 148      989D73
 149 0190 078AC66E 		.ascii	"\007\212\306n\233\035\232\2657\242\240\356f8\014u\254"
 149      9B1D9AB5 
 149      37A2A0EE 
 149      66380C75 
 149      AC
 150 01a1 B3366401 		.ascii	"\2636d\001(\350\264\213\3217\320\257\010y\002\226`\354"
 150      28E8B48B 
 150      D137D0AF 
 150      08790296 
 150      60EC
 151 01b3 56525478 		.ascii	"VRTxL\336`^\373\361\022O\255&\2661\224L\353\235|\330"
 151      4CDE605E 
 151      FBF1124F 
 151      AD26B631 
 151      944CEB9D 
 152 01c9 053FC310 		.ascii	"\005?\303\020\272\003\035\244k\374\030\331\266\000\263"
 152      BA031DA4 
 152      6BFC18D9 
ARM GAS  /tmp/ccCFhKrO.s 			page 11


 152      B600B3
 153 01d8 2546E628 		.ascii	"%F\346(A\3528\026\226\302\310\225\322\261\027\033\206"
 153      41EA3816 
 153      96C2C895 
 153      D2B1171B 
 153      86
 154 01e9 07CB95CA 		.ascii	"\007\313\225\312\022\377\211\362\234\230(\006\015WX"
 154      12FF89F2 
 154      9C982806 
 154      0D5758
 155 01f8 2E7B8685 		.ascii	".{\206\205\354\346\3324|\004\350hx\342\013i\233pk{\336"
 155      ECE6DA34 
 155      7C04E868 
 155      78E20B69 
 155      9B706B7B 
 156 020d 53DB3FB9 		.ascii	"S\333?\2716#\271\025\364\017oV\216\210\357\010Q\217"
 156      3623B915 
 156      F40F6F56 
 156      8E88EF08 
 156      518F
 157 021f 295F0BF5 		.ascii	")_\013\365\271-\346(\0233\3070\211\230)\267\230iO1\307"
 157      B92DE628 
 157      1333C730 
 157      899829B7 
 157      98694F31 
 158 0234 FF608979 		.ascii	"\377`\211y\216\211\331\035\362\024\263\313\035\342\223"
 158      8E89D91D 
 158      F214B3CB 
 158      1DE293
 159 0243 5F88D549 		.ascii	"_\210\325I7\253\337\213\254\330#<D\312\007\311\242\021"
 159      37ABDF8B 
 159      ACD8233C 
 159      44CA07C9 
 159      A211
 160 0255 FB11AEE7 		.ascii	"\373\021\256\347\023\320\335\211o\017\357_R\340\021"
 160      13D0DD89 
 160      6F0FEF5F 
 160      52E011
 161 0264 369FF95A 		.ascii	"6\237\371Z\0034\374\002\276\035,\026\037J\034\265;\025"
 161      0334FC02 
 161      BE1D2C16 
 161      1F4A1CB5 
 161      3B15
 162 0276 4CB36BCC 		.ascii	"L\263k\314%\335\007\266\265\237\214\256`\373\311\213"
 162      25DD07B6 
 162      B59F8CAE 
 162      60FBC98B 
 163 0286 6CB9C743 		.ascii	"l\271\307C\356\375\004\273\366\2239\270\004\361]\210"
 163      EEFD04BB 
 163      F69339B8 
 163      04F15D88 
 164 0296 86699C9B 		.ascii	"\206i\234\233F\0325|\012\256\2314\311\215\234\347G\006"
 164      461A357C 
 164      0AAE9934 
 164      C98D9CE7 
 164      4706
 165 02a8 A0D3EF74 		.ascii	"\240\323\357t\015?\015\377\021/\264\365\023s?e.\262"
ARM GAS  /tmp/ccCFhKrO.s 			page 12


 165      0D3F0DFF 
 165      112FB4F5 
 165      13733F65 
 165      2EB2
 166 02ba 67F76553 		.ascii	"g\367eS\237y\331\352\314bA\011wC7\241]\214\213c\233"
 166      9F79D9EA 
 166      CC624109 
 166      774337A1 
 166      5D8C8B63 
 167 02cf 2E96311F 		.ascii	".\2261\037\365\310b;\262o\315\314\256f\221}\005\337"
 167      F5C8623B 
 167      B26FCDCC 
 167      AE66917D 
 167      05DF
 168 02e1 0491FDB3 		.ascii	"\004\221\375\263+\262>\200\350\304\257\302`c\030\203"
 168      2BB23E80 
 168      E8C4AFC2 
 168      60631883 
 169 02f1 25A55D33 		.ascii	"%\245]3\015$l\\G\002\240p\334\206\212\344\221\301\322"
 169      0D246C5C 
 169      4702A070 
 169      DC868AE4 
 169      91C1D2
 170 0304 DE993D98 		.ascii	"\336\231=\230\024Oa\036\3013\215f\232\326z\323h\370"
 170      144F611E 
 170      C1338D66 
 170      9AD67AD3 
 170      68F8
 171 0316 20CBBAB9 		.ascii	" \313\272\271_\005|!\024>\274IX/\032\3721\307z\271\334"
 171      5F057C21 
 171      143EBC49 
 171      582F1AFA 
 171      31C77AB9 
 172 032b 34FC7AE0 		.ascii	"4\374z\340\345zC\262\\u\302jq/\010\373\337Y\330i\264"
 172      E57A43B2 
 172      5C75C26A 
 172      712F08FB 
 172      DF59D869 
 173 0340 3C595838 		.ascii	"<YX8\034\264\321Jw\032B\210\367\223\017\016k2A\363\370"
 173      1CB4D14A 
 173      771A4288 
 173      F7930F0E 
 173      6B3241F3 
 174 0355 F80DE6C4 		.ascii	"\370\015\346\304\027\003\013zS\"\350+\210+\370\270J"
 174      17030B7A 
 174      5322E82B 
 174      882BF8B8 
 174      4A
 175 0366 8130AD10 		.ascii	"\2010\255\020\322j\005\220\004#\240@\303\347\201\232"
 175      D26A0590 
 175      0423A040 
 175      C3E7819A 
 176 0376 82FEE32B 		.ascii	"\202\376\343+\034\004\313\343\361\024C\273\310\320H"
 176      1C04CBE3 
 176      F11443BB 
 176      C8D048
 177 0385 D80FB5A2 		.ascii	"\330\017\265\242\014\015\270\355sp{\264\012\315\223"
ARM GAS  /tmp/ccCFhKrO.s 			page 13


 177      0C0DB8ED 
 177      73707BB4 
 177      0ACD93
 178 0394 9B22E736 		.ascii	"\233\"\3476\352\340\366\270?n24\340v\324\301m\304\037"
 178      EAE0F6B8 
 178      3F6E3234 
 178      E076D4C1 
 178      6DC41F
 179 03a7 B7909CDB 		.ascii	"\267\220\234\333\204\203\333\323\376\270\311\320\200"
 179      8483DBD3 
 179      FEB8C9D0 
 179      80
 180 03b4 DB3107B7 		.ascii	"\3331\007\267C\376\270\205\345\334&k\344x#\007(\363"
 180      43FEB885 
 180      E5DC266B 
 180      E4782307 
 180      28F3
 181 03c6 4DF66F81 		.ascii	"M\366o\201\223\374\003I\222\337c%\371x\225\006q^\036"
 181      93FC0349 
 181      92DF6325 
 181      F9789506 
 181      715E1E
 182 03d9 12990808 		.ascii	"\022\231\010\010\311\324\203G7h\370%\026\222\311*8\361"
 182      C9D48347 
 182      3768F825 
 182      1692C92A 
 182      38F1
 183 03eb 5DC16332 		.ascii	"]\301c2O\036\223\3435b\262\337\332\247\207o6%~\0248"
 183      4F1E93E3 
 183      3562B2DF 
 183      DAA7876F 
 183      36257E14 
 184 0400 281F4B82 		.ascii	"(\037K\2022\024\261\2422]%\30353\327T'\013\313P\351"
 184      3214B1A2 
 184      325D25C3 
 184      3533D754 
 184      270BCB50 
 185 0415 C44C034D 		.ascii	"\304L\003M\225\327\330\353\375\0057\240\300\212Ge\261"
 185      95D7D8EB 
 185      FD0537A0 
 185      C08A4765 
 185      B1
 186 0426 079AD7E1 		.ascii	"\007\232\327\341|;i\370,{i\234\303\267\201\275\300\354"
 186      7C3B69F8 
 186      2C7B699C 
 186      C3B781BD 
 186      C0EC
 187 0438 0CB36F31 		.ascii	"\014\263o1\3736\263\3570\373.\263\177a\366=f\337g\366"
 187      FB36B3EF 
 187      30FB2EB3 
 187      7F61F63D 
 187      66DF67F6 
 188 044c 43666799 		.ascii	"Cfg\231\375\004\254u\314G?\265\377<2^\250\262\250~\212"
 188      FD04AC75 
 188      CC473FB5 
 188      FF3C325E 
 188      A8B2A87E 
ARM GAS  /tmp/ccCFhKrO.s 			page 14


 189 0461 E7F35192 		.ascii	"\347\363Q\222\362b\003\037\322P\345uZ\352\245\341\177"
 189      F262031F 
 189      D250E575 
 189      5AEAA5E1 
 189      7F
 190 0472 055EE07F 		.ascii	"\005^\340\177K\026\330\"(xy\025\004e\253b\333i\227l"
 190      4B16D822 
 190      28787915 
 190      0465AB62 
 190      DB69976C 
 191 0486 A5B7AFE0 		.ascii	"\245\267\257\340&\015_eU\305\231\360\234U\205\013\204"
 191      260D5F65 
 191      55C599F0 
 191      9C55850B 
 191      84
 192 0497 CE79ADAA 		.ascii	"\316y\255\252\250\270\302\212\212ks\027\025{\206J{\257"
 192      A8B8C28A 
 192      8A6B7317 
 192      157B864A 
 192      7BAF
 193 04a9 ECB99516 		.ascii	"\354\271\225\026\025V)Q\372\037\224\022\012:\307\244"
 193      15562951 
 193      FA1F9412 
 193      0A3AC7A4 
 194 04b9 5CAB9D9B 		.ascii	"\\\253\235\233H\236\350O^q$\372\205\300`M\002\330\210"
 194      489EE84F 
 194      5E7124FA 
 194      85C0604D 
 194      02D888
 195 04cc 13ECB21F 		.ascii	"\023\354\262\037\260z9\263\247\234`\357\004\006\023"
 195      B07A39B3 
 195      A79C60EF 
 195      040613
 196 04db 99ED7382 		.ascii	"\231\355s\202\275\347\007l\201\234\331\250\023\354\203"
 196      BDE7076C 
 196      819CD9A8 
 196      13EC83
 197 04ea C0604E66 		.ascii	"\300`Nf\360\276\\O7\340\317\330\006<\353\306\022\236"
 197      F0BE5C4F 
 197      37E0CFD8 
 197      063CEBC6 
 197      129E
 198 04fc 27B3BB48 		.ascii	"'\263\273HNl\302I\354\023?\304\232\344!;\346\004\273"
 198      4E6CC249 
 198      EC133FC4 
 198      9AE4213B 
 198      E604BB
 199 050f EA07EC9B 		.ascii	"\352\007\354\233rf\223N\260\353\201\301DfSN\260\241"
 199      7266934E 
 199      B0EB81C1 
 199      4466534E 
 199      B0A1
 200 0521 880FB0A5 		.ascii	"\210\017\260\245rf\307\235`\333\003\203\211\314N8\301"
 200      7266C79D 
 200      60DB0383 
 200      89CC4E38 
 200      C1
ARM GAS  /tmp/ccCFhKrO.s 			page 15


 201 0532 1EF703B6 		.ascii	"\036\367\003\266B\316\354\244\023lw`0\007\263=\203\245"
 201      42CEECA4 
 201      136C7760 
 201      3007B33D 
 201      83A5
 202 0544 B3EBAD17 		.ascii	"\263\353\255\027sq%\335\202+\366\256\275R|\200\004\267"
 202      737125DD 
 202      822BF6AE 
 202      BD527C80 
 202      04B7
 203 0556 31A99B86 		.ascii	"1\251\233\206\237V\202n\356\243\212\367\346.\376\331"
 203      9F56826E 
 203      EEA38AF7 
 203      E62EFED9 
 204 0566 C8BD6805 		.ascii	"\310\275h\005\351\226-\2200\273+%1\204]\367\274\021"
 204      E9962D90 
 204      30BB2B25 
 204      31845DF7 
 204      BC11
 205 0578 C30A8BE1 		.ascii	"\303\012\213\341>?1\354\224\203\275\356\004+\006\006"
 205      3E3F31EC 
 205      9483BDEE 
 205      042B0606 
 206 0588 1317E44F 		.ascii	"\023\027\344O\353\305J\311\261\036\304*W\0268\027\244"
 206      EBC54AC9 
 206      B11EC42A 
 206      57163817 
 206      A4
 207 0599 AAA072B9 		.ascii	"\252\240r\271i\370\327\201\027\344\220dA\354\217pN/"
 207      69F8D781 
 207      17E49064 
 207      41EC8F70 
 207      4E2F
 208 05ab FACDC42D 		.ascii	"\372\315\304-[dav\273eA\034,]\224\353.ZP7\327\322\355"
 208      5B646176 
 208      BB65411C 
 208      2C5D94EB 
 208      2E5A5037 
 209 05c2 76D3F033 		.ascii	"v\323\3603\201u\217Kt\207\005\335\343\266\356\303n\335"
 209      81758F4B 
 209      748705DD 
 209      E3B6EEC3 
 209      6EDD
 210 05d4 220BB3BB 		.ascii	"\"\013\263\273A\242\033\212\205K\353i\356P\246\032\276"
 210      41A21B8A 
 210      854BEB69 
 210      EE50A61A 
 210      BE
 211 05e5 C4BEA8CD 		.ascii	"\304\276\250\315\005\266Y\222<\2605\\vn\015G\374d\342"
 211      05B65992 
 211      3CB0355C 
 211      766E0D47 
 211      FC64E2
 212 05f8 76AF3F27 		.ascii	"v\257?'\275\016g\235\243\341\317Y!r\235\025\227\203"
 212      BD0E679D 
 212      A3E1CF59 
 212      21729D15 
ARM GAS  /tmp/ccCFhKrO.s 			page 16


 212      9783
 213 060a 0AB543CC 		.ascii	"\012\265C\314nc\366'\314>\312\354\016f\037c\366g\314"
 213      6E63F627 
 213      CC3ECAEC 
 213      0E661F63 
 213      F667CC
 214 061d EE627637 		.ascii	"\356bv7\263{\231\3759\263\277`\366\227\314\026\231="
 214      B37B99FD 
 214      39B3BF60 
 214      F697CC16 
 214      993D
 215 062f C0EC18B3 		.ascii	"\300\354\030\263\207\231=\302\354\263\212\274\234\275"
 215      87993DC2 
 215      ECB38ABC 
 215      9CBD
 216 063d 5AA39CFD 		.ascii	"Z\243\234\375\235bU\213_G\373\311\331\263\345m\263#"
 216      9D62558B 
 216      5F47FBC9 
 216      D9B3E56D 
 216      B323
 217 064f 787B990C 		.ascii	"x{\231\014\223\353\225\012\266\213W\353\213_\251\366"
 217      93EB950A 
 217      B68B57EB 
 217      8B5FA9F6 
 218 065f 173FFA3F 		.ascii	"\027?\372?\010\305\361yp\221\267\257\206\237Wh\274&"
 218      08C5F179 
 218      7091B7AF 
 218      869F5768 
 218      BC26
 219 0671 1DD965F4 		.ascii	"\035\331e\364y\317\370\360x,\342\372\357\215\035\374"
 219      79CFF8F0 
 219      782CE2FA 
 219      EF8D1DFC 
 220 0681 DA43CD49 		.ascii	"\332C\315I\377j\245\313\327\204\007\205V\343\324U\342"
 220      FF6AA5CB 
 220      D7840785 
 220      56E3D455 
 220      E2
 221 0692 A6E1A9C0 		.ascii	"\246\341\251\300\017\312\264\344AY,\260\236\266\037"
 221      0FCAB4E4 
 221      41592CB0 
 221      9EB61F
 222 06a1 94E988EB 		.ascii	"\224\351\210\353\323\267\233\205\202NExI}\003\3554\267"
 222      D3B79B85 
 222      824E4578 
 222      497D03ED 
 222      34B7
 223 06b3 B4A8B1DE 		.ascii	"\264\250\261\336\314\306\314\003I57\240\366j}\352\346"
 223      CCC6CC03 
 223      493537A0 
 223      F66A7DEA 
 223      E6
 224 06c4 5CBE30A0 		.ascii	"\\\2760\240\246s\375\375\271\254\332\226\350\212u=\254"
 224      A673FDFD 
 224      B9ACDA96 
 224      E88A753D 
 224      AC
ARM GAS  /tmp/ccCFhKrO.s 			page 17


 225 06d5 667F9049 		.ascii	"f\177\220I\267\244\321\200\232\335\304\332\335jo\256"
 225      B7A4D180 
 225      9ADDC4DA 
 225      DD6A6FAE 
 226 06e5 5F57F3FA 		.ascii	"_W\363\372\200\256\345\323\2750.\337\363C-\257\253Z"
 226      80AEE5D3 
 226      BD302EDF 
 226      F3432DAF 
 226      AB5A
 227 06f7 BEBF557D 		.ascii	"\276\277U}(\235n\206N\263\336\277Q\357\351\321{\254"
 227      289D6E86 
 227      4EB3DEBF 
 227      51EFE9D1 
 227      7BAC
 228 0709 0BD95C56 		.ascii	"\013\331\\Vo\326\265\215\231\346\345\251\025\315\255"
 228      6FD6B58D 
 228      99E6E5A9 
 228      15CDAD
 229 0718 4B972DFF 		.ascii	"K\227-\377~\253*\334P3\331t\337\226\036]\035(\364d\262"
 229      7EAB2ADC 
 229      5033D974 
 229      DF961E5D 
 229      1D28F464 
 230 072d 85965E54 		.ascii	"\205\226^T\277\005~\357jM\025\346}\367\376\265M14\204"
 230      BF057EEF 
 230      6A4D15E6 
 230      7DF7FEB5 
 230      4D313484 
 231 0741 FF7F24FA 		.ascii	"\377\177$\372\265to&\253\253\251\036}\223\266\245\257"
 231      B5746F26 
 231      ABABA91E 
 231      7D93B6A5 
 231      AF
 232 0752 902A6CDD 		.ascii	"\220*l\335\254\017\000\251\033R)Nk\001\215MGV\333\330"
 232      AC0F00A9 
 232      1B52294E 
 232      6B018D4D 
 232      4756DBD8 
 233 0766 A7AFD3D3 		.ascii	"\247\257\323\323\205\\\036g\303\233\363\231\334Bz\275"
 233      855C1E67 
 233      C39BF399 
 233      DC427ABD 
 234 0776 3D3360DF 		.ascii	"=3`\337XL\257$\365Br\353@A\357\357\324\262=}z\276\033"
 234      584CAF24 
 234      F54272EB 
 234      4041EFEF 
 234      D4B23D7D 
 235 078d 5CF399C2 		.ascii	"\\\363\231\302\326\272^\343\234\301\305\372@Q\267\236"
 235      D6BA5EE3 
 235      9CC1C5FA 
 235      4051B79E 
 236 079d 85103C54 		.ascii	"\205\020<TG'Z\221*D\215)\241\367-q\315\364\207\013j"
 236      47275A91 
 236      2A448D29 
 236      A1F72D71 
 236      CDF4870B 
 237 07b2 AC2B194F 		.ascii	"\254+\031OZ\264\323\271\274\236J\367/\007\242\321\373"
ARM GAS  /tmp/ccCFhKrO.s 			page 18


 237      5AB4D3B9 
 237      BC9E4AF7 
 237      2F07A2D1 
 237      FB
 238 07c3 D7C563A9 		.ascii	"\327\305c\2515@;\034Ov$\242\211"
 238      35403B1C 
 238      4F7624A2 
 238      89
 239 07d0 0EB0EB3A 		.ascii	"\016\260\353:\332\227\206\343\261\216D}\3028[\0067\273"
 239      DA9786E3 
 239      B18E447D 
 239      C2385B06 
 239      37BB
 240 07e2 ED9BAD70 		.ascii	"\355\233\255p\323qzW8\336\266\312>]\256\304\273\255"
 240      D3717A57 
 240      38DEB6CA 
 240      3E5DAEC4 
 240      BBAD
 241 07f4 93BBC3C9 		.ascii	"\223\273\303\3115\361D}2\266\212M\022\211u\257\215\267"
 241      35F1447D 
 241      32B68A4D 
 241      128975AF 
 241      8DB7
 242 0806 C3F06422 		.ascii	"\303\360d\"\274n\315\003\211H[<\021K\204\222\320b\364"
 242      BC6ECD03 
 242      89485B3C 
 242      114B8492 
 242      D062F4
 243 0819 B7B33B92 		.ascii	"\267\263;\222\354\2447c\253\301tR\323\016&\322\325\265"
 243      ECA43763 
 243      ABC17452 
 243      D30E26D2 
 243      D5B5
 244 082b BA2D115E 		.ascii	"\272-\021^EM\033\234\207\272W'B\355\320\332\332\023"
 244      454D1B9C 
 244      87BA5727 
 244      42EDD0DA 
 244      DA13
 245 083d 61B89700 		.ascii	"a\270\227\000~m\011\000o\213%\302iX\347\372Tj\323\226"
 245      7E6D0900 
 245      6F8B25C2 
 245      6958E7FA 
 245      546AD396 
 246 0851 6C3A95FA 		.ascii	"l:\225\372\022\357\264|\347\336\326\245\377\005\361"
 246      12EFB47C 
 246      E7DED6A5 
 246      FF05F1
 247 0860 1198E3   		.ascii	"\021\230\343"
 248              		.text
 249              		.section	.gnu.lto_.symtab.9dd803986012fbc7,"",%progbits
 250 0000 6E766963 		.ascii	"nvicEnableVector\000\000\000\000\000\000\000\000\000"
 250      456E6162 
 250      6C655665 
 250      63746F72 
 250      00000000 
 251 0019 000000A1 		.ascii	"\000\000\000\241\000\000\000nvicDisableVector\000\000"
 251      0000006E 
ARM GAS  /tmp/ccCFhKrO.s 			page 19


 251      76696344 
 251      69736162 
 251      6C655665 
 252 0033 00000000 		.ascii	"\000\000\000\000\000\000\000\000\000\000\262\000\000"
 252      00000000 
 252      0000B200 
 252      00
 253 0040 006E7669 		.ascii	"\000nvicSetSystemHandlerPriority\000\000\000\000\000"
 253      63536574 
 253      53797374 
 253      656D4861 
 253      6E646C65 
 254 0062 00000000 		.ascii	"\000\000\000\000\000\000\000\270\000\000\000nvicCle"
 254      000000B8 
 254      0000006E 
 254      76696343 
 254      6C65
 255 0074 61725065 		.ascii	"arPending\000\000\000\000\000\000\000\000\000\000\000"
 255      6E64696E 
 255      67000000 
 255      00000000 
 255      00000000 
 256 0088 00BE0000 		.ascii	"\000\276\000\000\000"
 256      00
 257              		.text
 258              		.section	.gnu.lto_.opts,"",%progbits
 259 0000 272D6D63 		.ascii	"'-mcpu=cortex-m4' '-mno-thumb-interwork' '-mthumb' "
 259      70753D63 
 259      6F727465 
 259      782D6D34 
 259      2720272D 
 260 0033 272D6767 		.ascii	"'-ggdb' '-O2' '-fomit-frame-pointer' '-falign-funct"
 260      64622720 
 260      272D4F32 
 260      2720272D 
 260      666F6D69 
 261 0066 696F6E73 		.ascii	"ions=16' '-ffunction-sections' '-fdata-sections' '-"
 261      3D313627 
 261      20272D66 
 261      66756E63 
 261      74696F6E 
 262 0099 666E6F2D 		.ascii	"fno-common' '-flto'\000"
 262      636F6D6D 
 262      6F6E2720 
 262      272D666C 
 262      746F2700 
 263              		.text
 264              		.cfi_sections	.debug_frame
 265              		.section	.text.nvicEnableVector,"ax",%progbits
 266              		.align	2
 267              		.p2align 4,,15
 268              		.global	nvicEnableVector
 269              		.thumb
 270              		.thumb_func
 271              		.type	nvicEnableVector, %function
 272              	nvicEnableVector:
 273              	.LFB272:
ARM GAS  /tmp/ccCFhKrO.s 			page 20


 274              		.file 1 "../ChibiOS/os/hal/ports/common/ARMCMx/nvic.c"
 275              		.loc 1 57 0
 276              		.cfi_startproc
 277              		@ args = 0, pretend = 0, frame = 0
 278              		@ frame_needed = 0, uses_anonymous_args = 0
 279              		@ link register save eliminated.
 280              	.LVL0:
 281              		.loc 1 65 0
 282 0000 4309     		lsrs	r3, r0, #5
 283 0002 9B00     		lsls	r3, r3, #2
 284              		.loc 1 63 0
 285 0004 00F16042 		add	r2, r0, #-536870912
 286 0008 03F16043 		add	r3, r3, #-536870912
 287              		.loc 1 57 0
 288 000c 10B4     		push	{r4}
 289              		.cfi_def_cfa_offset 4
 290              		.cfi_offset 4, -4
 291 000e 03F56143 		add	r3, r3, #57600
 292              		.loc 1 65 0
 293 0012 0124     		movs	r4, #1
 294              		.loc 1 63 0
 295 0014 0901     		lsls	r1, r1, #4
 296              	.LVL1:
 297 0016 02F56142 		add	r2, r2, #57600
 298              		.loc 1 65 0
 299 001a 00F01F00 		and	r0, r0, #31
 300              	.LVL2:
 301 001e 04FA00F0 		lsl	r0, r4, r0
 302              		.loc 1 63 0
 303 0022 C9B2     		uxtb	r1, r1
 304 0024 82F80013 		strb	r1, [r2, #768]
 305              		.loc 1 65 0
 306 0028 C3F88001 		str	r0, [r3, #384]
 307              		.loc 1 66 0
 308 002c 1860     		str	r0, [r3]
 309              		.loc 1 67 0
 310 002e 5DF8044B 		ldr	r4, [sp], #4
 311 0032 7047     		bx	lr
 312              		.cfi_endproc
 313              	.LFE272:
 314              		.size	nvicEnableVector, .-nvicEnableVector
 315 0034 AFF30080 		.section	.text.nvicDisableVector,"ax",%progbits
 315      AFF30080 
 315      AFF30080 
 316              		.align	2
 317              		.p2align 4,,15
 318              		.global	nvicDisableVector
 319              		.thumb
 320              		.thumb_func
 321              		.type	nvicDisableVector, %function
 322              	nvicDisableVector:
 323              	.LFB273:
 324              		.loc 1 74 0
 325              		.cfi_startproc
 326              		@ args = 0, pretend = 0, frame = 0
 327              		@ frame_needed = 0, uses_anonymous_args = 0
 328              		@ link register save eliminated.
ARM GAS  /tmp/ccCFhKrO.s 			page 21


 329              	.LVL3:
 330              		.loc 1 76 0
 331 0000 084B     		ldr	r3, .L3
 332 0002 4109     		lsrs	r1, r0, #5
 333              		.loc 1 74 0
 334 0004 10B4     		push	{r4}
 335              		.cfi_def_cfa_offset 4
 336              		.cfi_offset 4, -4
 337              		.loc 1 76 0
 338 0006 00F01F02 		and	r2, r0, #31
 339 000a 2031     		adds	r1, r1, #32
 340 000c 0124     		movs	r4, #1
 341              		.loc 1 80 0
 342 000e 1844     		add	r0, r0, r3
 343              	.LVL4:
 344              		.loc 1 76 0
 345 0010 9440     		lsls	r4, r4, r2
 346              		.loc 1 80 0
 347 0012 0022     		movs	r2, #0
 348              		.loc 1 76 0
 349 0014 43F82140 		str	r4, [r3, r1, lsl #2]
 350              		.loc 1 80 0
 351 0018 80F80023 		strb	r2, [r0, #768]
 352              		.loc 1 82 0
 353 001c 5DF8044B 		ldr	r4, [sp], #4
 354 0020 7047     		bx	lr
 355              	.L4:
 356 0022 00BF     		.align	2
 357              	.L3:
 358 0024 00E100E0 		.word	-536813312
 359              		.cfi_endproc
 360              	.LFE273:
 361              		.size	nvicDisableVector, .-nvicDisableVector
 362 0028 AFF30080 		.section	.text.nvicSetSystemHandlerPriority,"ax",%progbits
 362      AFF30080 
 363              		.align	2
 364              		.p2align 4,,15
 365              		.global	nvicSetSystemHandlerPriority
 366              		.thumb
 367              		.thumb_func
 368              		.type	nvicSetSystemHandlerPriority, %function
 369              	nvicSetSystemHandlerPriority:
 370              	.LFB274:
 371              		.loc 1 90 0
 372              		.cfi_startproc
 373              		@ args = 0, pretend = 0, frame = 0
 374              		@ frame_needed = 0, uses_anonymous_args = 0
 375              		@ link register save eliminated.
 376              	.LVL5:
 377              		.loc 1 100 0
 378 0000 00F16040 		add	r0, r0, #-536870912
 379              	.LVL6:
 380 0004 00F56D40 		add	r0, r0, #60672
 381              	.LVL7:
 382 0008 0901     		lsls	r1, r1, #4
 383              	.LVL8:
 384 000a C9B2     		uxtb	r1, r1
ARM GAS  /tmp/ccCFhKrO.s 			page 22


 385 000c 0176     		strb	r1, [r0, #24]
 386 000e 7047     		bx	lr
 387              		.cfi_endproc
 388              	.LFE274:
 389              		.size	nvicSetSystemHandlerPriority, .-nvicSetSystemHandlerPriority
 390              		.section	.text.nvicClearPending,"ax",%progbits
 391              		.align	2
 392              		.p2align 4,,15
 393              		.global	nvicClearPending
 394              		.thumb
 395              		.thumb_func
 396              		.type	nvicClearPending, %function
 397              	nvicClearPending:
 398              	.LFB275:
 399              		.loc 1 109 0
 400              		.cfi_startproc
 401              		@ args = 0, pretend = 0, frame = 0
 402              		@ frame_needed = 0, uses_anonymous_args = 0
 403              		@ link register save eliminated.
 404              	.LVL9:
 405              		.loc 1 111 0
 406 0000 4209     		lsrs	r2, r0, #5
 407 0002 6032     		adds	r2, r2, #96
 408 0004 00F01F00 		and	r0, r0, #31
 409              	.LVL10:
 410 0008 0121     		movs	r1, #1
 411 000a 034B     		ldr	r3, .L7
 412 000c 01FA00F0 		lsl	r0, r1, r0
 413 0010 43F82200 		str	r0, [r3, r2, lsl #2]
 414 0014 7047     		bx	lr
 415              	.L8:
 416 0016 00BF     		.align	2
 417              	.L7:
 418 0018 00E100E0 		.word	-536813312
 419              		.cfi_endproc
 420              	.LFE275:
 421              		.size	nvicClearPending, .-nvicClearPending
 422 001c AFF30080 		.text
 423              	.Letext0:
 424              		.file 2 "/nfs/nfs5/home/research/hardware/arm2/gcc-arm-embedded/gcc-arm-none-eabi-4_8-2014q2/arm-n
 425              		.file 3 "/nfs/nfs5/home/research/hardware/arm2/gcc-arm-embedded/gcc-arm-none-eabi-4_8-2014q2/arm-n
 426              		.file 4 "../ChibiOS/os/rt/ports/ARMCMx/compilers/GCC/chtypes.h"
 427              		.file 5 "../ChibiOS/os/rt/include/chsystypes.h"
 428              		.file 6 "../ChibiOS/os/rt/include/chschd.h"
 429              		.file 7 "../ChibiOS/os/ext/CMSIS/include/core_cm4.h"
 430              		.file 8 "../ChibiOS/os/rt/ports/ARMCMx/chcore.h"
 431              		.file 9 "../ChibiOS/os/rt/ports/ARMCMx/chcore_v7m.h"
 432              		.file 10 "../ChibiOS/os/rt/include/chtm.h"
 433              		.file 11 "../ChibiOS/os/rt/include/chsem.h"
 434              		.file 12 "../ChibiOS/os/rt/include/chmtx.h"