ARM GAS  /tmp/ccXLDN7f.s 			page 1


   1              		.syntax unified
   2              		.cpu cortex-m4
   3              		.fpu softvfp
   4              		.eabi_attribute 20, 1
   5              		.eabi_attribute 21, 1
   6              		.eabi_attribute 23, 3
   7              		.eabi_attribute 24, 1
   8              		.eabi_attribute 25, 1
   9              		.eabi_attribute 26, 1
  10              		.eabi_attribute 30, 2
  11              		.eabi_attribute 34, 1
  12              		.eabi_attribute 18, 4
  13              		.thumb
  14              		.file	"pal.c"
  15              		.text
  16              	.Ltext0:
  17              		.section	.gnu.lto_.jmpfuncs.eb97b30bdae406c0,"",%progbits
  18 0000 789C6362 		.ascii	"x\234cb`b\300\006D\24043\003##3\02333\204\315\300X\006"
  18      6062C006 
  18      44A03433 
  18      03232333 
  18      13333384 
  19 0018 A4010623 		.ascii	"\244\001\006#\000\243"
  19      00A3
  20              		.text
  21              		.section	.gnu.lto_.inline.eb97b30bdae406c0,"",%progbits
  22 0000 789C6362 		.ascii	"x\234cb`b\300\006\276Cif\006\006N\016Ff\006F0\023D:"
  22      6062C006 
  22      BE436966 
  22      06064E0E 
  22      46660646 
  23 0018 8049050E 		.ascii	"\200I\005\016\266\017z\014l\013\344\231\030\030_\260"
  23      B60F7A0C 
  23      6C0BE499 
  23      18185FB0 
  24 0028 B3404810 		.ascii	"\263@H\020\301\001fr\200\010\0010S\000d\014#\003\037"
  24      C1016672 
  24      80080130 
  24      5300640C 
  24      23031F
  25 003b 2F230BC4 		.ascii	"/#\013\304\024FF\210\010\320\020\210\201\334L\027\370"
  25      14464688 
  25      08D01088 
  25      81DC4C17 
  25      F8
  26 004c 318C028A 		.ascii	"1\214\002\212\241\030\302\262@^\002\304R`b`\336!\256"
  26      A118C2B2 
  26      405E02C4 
  26      52606260 
  26      DE21AE
  27 005f C000B4DE 		.ascii	"\300\000\264\336\002d\016\023\003\2670\212\373\240\206"
  27      02640E13 
  27      03B7308A 
  27      FBA086
  28 006e 7202E588 		.ascii	"r\002\345\210s\036\320&\011\220I,\274@}\023\374@\220"
  28      731ED026 
  28      0990492C 
ARM GAS  /tmp/ccXLDN7f.s 			page 2


  28      BC407D13 
  28      FC4090
  29 0081 01003C62 		.ascii	"\001\000<b\037\210"
  29      1F88
  30              		.text
  31              		.section	.gnu.lto_.pureconst.eb97b30bdae406c0,"",%progbits
  32 0000 789C6362 		.ascii	"x\234cb`b`g\200\000f\006)F)&I\000\001\312\000_"
  32      60626067 
  32      80006606 
  32      29462926 
  32      490001CA 
  33              		.text
  34              		.section	.gnu.lto_palReadBus.eb97b30bdae406c0,"",%progbits
  35 0000 789C6D90 		.ascii	"x\234m\220\261J\003A\020\206\377\177\366.w\227\302^"
  35      B14A0341 
  35      1086FF7F 
  35      F62E7797 
  35      C25E
  36 0012 10B13670 		.ascii	"\020\2616p\367\020>\200\205\021\324.\271\"9HP\314\003"
  36      F7103E80 
  36      8511D42E 
  36      B9223948 
  36      50CC03
  37 0025 E4CCA5B2 		.ascii	"\344\314\245\262\012V\242\225\215\205El\005\033\261"
  37      0A56A295 
  37      8D85456C 
  37      051BB1
  38 0034 B08B686B 		.ascii	"\260\213hk%\330\212\257\020g7\336\211\222\205\375gw"
  38      25D88AAF 
  38      106737DE 
  38      899285FD 
  38      6777
  39 0046 76BE7F86 		.ascii	"v\276\177\206\025\010\376\257U\335\247\004\3265\322"
  39      1508FEAF 
  39      55DDA704 
  39      D635D2
  40 0055 80327906 		.ascii	"\2002y\006NB!\355\001\304P8\334\247\253\275\225\207"
  40      4E4221ED 
  40      01C45038 
  40      DCA7ABBD 
  40      9587
  41 0067 F7F97C7A 		.ascii	"\367\371|z\366t\375\311s\251\013\373\204AFx*\364U\244"
  41      F674FDC9 
  41      73A90BFB 
  41      84414678 
  41      2AF455A4 
  42 007b A662027B 		.ascii	"\246b\002{\015\255D*\236\222>\306y>\331\350S\215Rg\326"
  42      0DAD442A 
  42      9E923EC6 
  42      793ED9E8 
  42      538D5267 
  43 0090 54B51D76 		.ascii	"T\265\035v)6\232\031Fow\037/l\361J\235:4\015lf\364/"
  43      29369A19 
  43      466F771F 
  43      2F6CF14A 
  43      9D3A340D 
  44 00a8 71C18CB5 		.ascii	"q\301\214\265\016eOc\340\306h\263\034~\206\307\203\022"
ARM GAS  /tmp/ccXLDN7f.s 			page 3


  44      0E654F63 
  44      E0C668B3 
  44      1C7E86C7 
  44      8312
  45 00ba F01AB8C9 		.ascii	"\360\032\270\311\307Z\024.\230H=,\343\3770\254\230Q"
  45      C75A142E 
  45      98483D2C 
  45      E3FF30AC 
  45      9851
  46 00cc C5F8AE49 		.ascii	"\305\370\256I}y\023\371\005\276LIh\221oS\305\264J\005"
  46      7D7913F9 
  46      05BE4C49 
  46      68916F53 
  46      C5B44A05 
  47 00e0 DA5B1FFE 		.ascii	"\332[\037\376:\207\316\331[\356l*\347\342\276X)\221"
  47      3A87CED9 
  47      5BEE6C2A 
  47      E7E2BE58 
  47      2991
  48 00f2 C85985C0 		.ascii	"\310Y\205\300+\252_\210\026\205M\235^?\311N\264\026"
  48      2BAA5F88 
  48      16854D9D 
  48      5E3FC94E 
  48      B416
  49 0104 C7C95637 		.ascii	"\307\311V7kg\333;\311\341 \351\266z\311\3408M\216Z\275"
  49      6B67DB3B 
  49      C9E120E9 
  49      B67AC9E0 
  49      384D8E5A 
  50 0119 38C537E5 		.ascii	"8\3057\3451S\303"
  50      3153C3
  51              		.text
  52              		.section	.gnu.lto_palWriteBus.eb97b30bdae406c0,"",%progbits
  53 0000 789C6D51 		.ascii	"x\234mQ=K\303P\024\275\367\2754M\322/\335\024D\0047"
  53      3D4BC350 
  53      14BDF7BD 
  53      344DD22F 
  53      DD144404 
  54 0015 0BCD0F70 		.ascii	"\013\315\017ptrr\260\202\272\245\035\332@\213b\177@"
  54      747272B0 
  54      82BAA51D 
  54      DA408B62 
  54      7F40
  55 0027 5BEDE0D8 		.ascii	"[\355\340\330\331N\256\202uq\021\005\305\301M\301M\234"
  55      D94EAE82 
  55      75711105 
  55      C5C14DC1 
  55      4D9C
  56 0039 FA0B7471 		.ascii	"\372\013tq\024\352\271/M\212\245\201\234{\337y\367\236"
  56      14EAB92F 
  56      4D8AA581 
  56      9C7BDF79 
  56      F79E
  57 004b 7B6EA248 		.ascii	"{n\242H\321\354\263\214w\023\364*\"kb\325\177#\352:"
  57      D1ECB38C 
  57      7713F42A 
  57      226B62D5 
ARM GAS  /tmp/ccXLDN7f.s 			page 4


  57      7F23EA3A 
  58 005f 8A591262 		.ascii	"\212Y\022bj+n\037\260\251\275QO\243\361x\370\363r\373"
  58      6A2B6E1F 
  58      B0A9BD51 
  58      4FA3F178 
  58      F8F372FB 
  59 0073 CB03B5A8 		.ascii	"\313\003\265\250\270\311\244)d\262\220q\012\031\333"
  59      B8C9A429 
  59      64B29071 
  59      0A19DB
  60 0082 02690107 		.ascii	"\002i\001\007\240\\\001\017\2403\302e\005rr\314KV\020"
  60      A05C010F 
  60      A033C265 
  60      057272CC 
  60      4B5610
  61 0095 806E8A7A 		.ascii	"\200n\212z\235N\177\255\311\360Q5\243\312@\231\277\007"
  61      9D4E7FAD 
  61      C9F05135 
  61      A3CA4099 
  61      BF07
  62 00a7 0A51BFD2 		.ascii	"\012Q\277\322\351\347\307\367R\300\227\030Sc]\244\215"
  62      E9E7C7F7 
  62      52C09718 
  62      53635DA4 
  62      8D
  63 00b8 90AD015D 		.ascii	"\220\255\001]p\310\251\032\253}D\333x\254p\274\031z"
  63      70C8A91A 
  63      AB7D44DB 
  63      78AC70BC 
  63      197A
  64 00ca 1E74DC81 		.ascii	"\036t\334\201\"\313P\2071c\033\215\364|\015N4\316\356"
  64      22CB5087 
  64      31631B8D 
  64      F47C0D4E 
  64      34CEEE
  65 00dd 138DB491 		.ascii	"\023\215\264\221\261\377\3138F\306\231/\243\2462\347"
  65      B1FFCB38 
  65      46C6992F 
  65      A3A632E7 
  66 00ed 898C8B26 		.ascii	"\211\214\213&)R\013\221\311\257\344\306\303\245)\276"
  66      29520B91 
  66      C9AFE4C6 
  66      C3A529BE 
  67 00fd 4EA88C19 		.ascii	"N\250\214\031\353\3158\311b\233\330\311\264=\007\341"
  67      EBCD38C9 
  67      629BD8C9 
  67      B43D07E1 
  68 010d 99F6BCA9 		.ascii	"\231\366\274\251\315\031\366.a\013F7/\354\363vD\026"
  68      CD19F62E 
  68      610B4637 
  68      2FECF376 
  68      4416
  69 011f E9AAD383 		.ascii	"\351\252\323\203)7N\274h#\324i1kM6\322\223\030\235!"
  69      29374EBC 
  69      6823D469 
  69      316B4D36 
  69      D293189D 
ARM GAS  /tmp/ccXLDN7f.s 			page 5


  70 0134 45F44EDD 		.ascii	"E\364N\335\321\343z$\023?e|A\3747\331\177\245T\362\267"
  70      D1E37A24 
  70      133F657C 
  70      41FC37D9 
  70      7FA554F2 
  71 0149 EA6125DC 		.ascii	"\352a%\334\331\365\217Z~=h\370\255\223\252\177\0344"
  71      D9F58F5A 
  71      7E3D68F8 
  71      AD93AA7F 
  71      1C34
  72 015b 4A55FA03 		.ascii	"JU\372\003\\\024t:"
  72      5C14743A 
  73              		.text
  74              		.section	.gnu.lto_palSetBusMode.eb97b30bdae406c0,"",%progbits
  75 0000 789C6D90 		.ascii	"x\234m\220\277J\003A\020\306\277o\367\376\231\312RA"
  75      BF4A0341 
  75      10C6BF6F 
  75      F7FE99CA 
  75      5241
  76 0012 44B053B8 		.ascii	"D\260S\270}\010\037\300\302\010jw9\360\262\220\240\230"
  76      7D081FC0 
  76      C2086A77 
  76      39F0B290 
  76      A098
  77 0024 D22217B5 		.ascii	"\322\"\027\265\260L\255 \370\000\232\326\322\316J\203"
  77      B04CAD20 
  77      F8009AD6 
  77      D2CE4A83 
  78 0034 96567900 		.ascii	"\226Vy\000\311\003h\021g7\236\202\334\300\316\354~;"
  78      C9036811 
  78      67379E82 
  78      DCC0CEEC 
  78      7E3B
  79 0046 BF99D955 		.ascii	"\277\231\331UP\370o\313\262\016\011\254J\244\006\325"
  79      50F86FCB 
  79      B20E09AC 
  79      4AA406D5 
  80 0056 F0051824 		.ascii	"\360\005\030$\212t\033\020}\305\376>}\356H=Nf\263\373"
  80      8A741B10 
  80      7DC5FE3E 
  80      7DEE483D 
  80      4E66B3FB 
  81 006a B7A7D107 		.ascii	"\267\247\321\007oTC\261KhX\"\020\307P\234\212\304\351"
  81      6F5443B1 
  81      4B685822 
  81      10C7509C 
  81      8AC4E9
  82 007d D81D13B9 		.ascii	"\330\035\023\271uX\210\213\262\034\256u)\275s_\247)"
  82      7558888B 
  82      B21CAE75 
  82      29BD735F 
  82      A729
  83 008f DE15DF15 		.ascii	"\336\025\337\025I\242~\306\331\373\303\327R\306[\251"
  83      49A27EC6 
  83      D9FBC3D7 
  83      52C65BA9 
  84 009f 51506F62 		.ascii	"QPob\3032\270\306\025-\303\202jOb\344\007h\261\032["
ARM GAS  /tmp/ccXLDN7f.s 			page 6


  84      C332B8C6 
  84      152DC382 
  84      6A4F62E4 
  84      0768B11A 
  85 00b4 98830A08 		.ascii	"\230\203\012\010<\020\327\003\254\001B\017$\365\200"
  85      3C10D703 
  85      AC01420F 
  85      24F580
  86 00c3 FA03A6BA 		.ascii	"\372\003\246\272\"\"\201\234t~\367+\305\322\270p\324"
  86      2222819C 
  86      747EF72B 
  86      C5D2B870 
  86      D4
  87 00d4 18D15C03 		.ascii	"\030\321\\\003N\361Y^\226\213\226\013\371Ocy\216OM,"
  87      4EF1595E 
  87      968B960B 
  87      F94F6379 
  87      8E4F4D2C 
  88 00e8 1BC02B06 		.ascii	"\033\300+\006\223\351z\225=\267\246d\312/\270\266+i"
  88      93E97A95 
  88      3DB7A664 
  88      CA2FB8B6 
  88      2B69
  89 00fa 6AB6DAB6 		.ascii	"j\266\332\266e\267w\314Q\317\264\263\216\351\235\344"
  89      65B777CC 
  89      51CFB4B3 
  89      8EE99DE4 
  90 010a E638EBA4 		.ascii	"\3468\353\2449\276\001}UNr"
  90      39BE017D 
  90      554E72
  91              		.text
  92              		.section	.gnu.lto_.symbol_nodes.eb97b30bdae406c0,"",%progbits
  93 0000 789C4DC7 		.ascii	"x\234M\307\261\015\2000\024CA\373\375\331\230\313))"
  93      B10D8030 
  93      144341FB 
  93      FDD998CB 
  93      2929
  94 0012 03122D0D 		.ascii	"\003\022-\015\373\260C\026A\024 \301u\207\320\244\027"
  94      FBB04316 
  94      411420C1 
  94      7587D0A4 
  94      17
  95 0023 9D48FD94 		.ascii	"\235H\375\224\222}6\013\361\257+\341\2537RO[sQ:\306"
  95      927D360B 
  95      F1AF2BE1 
  95      AB37524F 
  95      5B73513A 
  96 0038 65DDCE89 		.ascii	"e\335\316\211\024\225"
  96      1495
  97              		.text
  98              		.section	.gnu.lto_.refs.eb97b30bdae406c0,"",%progbits
  99 0000 789C6362 		.ascii	"x\234cb`b`d\200\002\000\000F\000\006"
  99      60626064 
  99      80020000 
  99      460006
 100              		.text
 101              		.section	.gnu.lto_.decls.eb97b30bdae406c0,"",%progbits
ARM GAS  /tmp/ccXLDN7f.s 			page 7


 102 0000 789CBD58 		.ascii	"x\234\275X{l\024E\030\237\331\273+\275r\224\227\220"
 102      7B6C1445 
 102      189FD9BB 
 102      2BBD7294 
 102      9790
 103 0012 9210398C 		.ascii	"\222\0209\214\030Bh\027\016D\370\207(\024)\021ls\205"
 103      18426817 
 103      0E44F887 
 103      28142911 
 103      6C7385
 104 0025 807FADDB 		.ascii	"\200\177\255\333\273-\275\330\366\352\335VCb\342\224"
 104      BB2DBDD8 
 104      F6EADD56 
 104      4362E294 
 105 0035 F20A8952 		.ascii	"\362\012\211R\212\274B\205\003D\300\020@\240 O\017D"
 105      8ABC4285 
 105      0344C010 
 105      40A0204F 
 105      0F44
 106 0047 5A0129C1 		.ascii	"Z\001)\301\210\022c<\020B\010\230\000BD\244\234\337"
 106      8812633C 
 106      10420898 
 106      004244A4 
 106      9CDF
 107 0059 CCEEDEED 		.ascii	"\314\356\336\355no\357A\242\227|s3;3\277\357\367=\346"
 107      6E6FEF41 
 107      A2977C73 
 107      333B33BF 
 107      EFF73DE6 
 108 006d B1CB210E 		.ascii	"\261\313!\016}\200\021\212\303o\301s\010\035\346\020"
 108      7D80118A 
 108      C36FC173 
 108      081DE610 
 109 007d B2238426 		.ascii	"\262#\204&\243\344\217\2667\203<\000\351\006qb\324\343"
 109      A3E48FB6 
 109      37833C00 
 109      E9067162 
 109      D4E3
 110 008f 47FB7B83 		.ascii	"G\373{\203\334\004\351\005\342P\347m\005i\007\331\003"
 110      DC04E905 
 110      E250E76D 
 110      056907D9 
 110      03
 111 00a0 B21BE418 		.ascii	"\262\033\344\030\310A\220;j\377\001\220\323 \267An\201"
 111      C841903B 
 111      6AFF0190 
 111      D320B741 
 111      6E81
 112 00b2 60150B68 		.ascii	"`\025\013h\240{ }M\272(\007W\012=z\035[U|\252\353;U"
 112      A07B207D 
 112      4DBA2807 
 112      570A3D7A 
 112      1D5B557C 
 113 00ca 9F43D575 		.ascii	"\237C\325uK\325\325\011r^\325G1m \177\203<\006\031b"
 113      4BD5D509 
 113      725ED547 
 113      316D207F 
ARM GAS  /tmp/ccXLDN7f.s 			page 8


 113      833C0619 
 114 00df D2D96D61 		.ascii	"\322\331ma[*\235\317\303\334\002\254\340\351\365q:\337"
 114      5B2A9DCF 
 114      C3DC02AC 
 114      E0E9F571 
 114      3ADF
 115 00f1 D13E07FC 		.ascii	"\321>\007\374\347\201\0143\351\032\2066\222H,\266\355"
 115      E7810C33 
 115      E91A8636 
 115      92482CB6 
 115      ED
 116 0102 DA5DBC9E 		.ascii	"\332]\274\236D\027\221x\374C4\030\255&\360\213,!\004"
 116      44179178 
 116      FC433418 
 116      AD26F08B 
 116      2C2104
 117 0115 CB4EB48C 		.ascii	"\313N\264\214\220\205\264Q\326Y\210\320<,\342B'r\263"
 117      9085B451 
 117      D65988D0 
 117      3C2CE242 
 117      2772B3
 118 0128 8ACBC978 		.ascii	"\212\313\311x\215@\237\021\322\022\213?\331>\212\220"
 118      8D409F11 
 118      D2128B3F 
 118      D93E8A90 
 119 0138 7C116FC5 		.ascii	"|\021o\305N\320_\211\321(\264\023pZ`\276'E\010Q\366"
 119      4ED05F89 
 119      D128B413 
 119      705A60BE 
 119      27450851 
 120 014d D09B967E 		.ascii	"\320\233\226~{\022/\004:\"\336\316\300\177\301\030\211"
 120      7B122F04 
 120      3A22DECE 
 120      C07FC118 
 120      89
 121 015e F8733C2A 		.ascii	"\370s<*g\250\365+\216Mb,\277`@\2678#\220\210{9\365\034"
 121      67A8F52B 
 121      8E4D622C 
 121      BF6040B7 
 121      38239088 
 122 0176 595B1B40 		.ascii	"Y[\033@\321X\267Z\241I\334\027\375\307\303S\331Bgn\301"
 122      D158B75A 
 122      A149DC17 
 122      FDC7C353 
 122      D942676E 
 123 018b 8359CDC6 		.ascii	"\203Y\315\306b\015\011\263<\351\201\001h%\215\240[\347"
 123      620D09B3 
 123      3CE98101 
 123      68258DA0 
 123      5BE7
 124 019d 8BB7B5F9 		.ascii	"\213\267\265\371\256\244/\256\374t\336\303|\261\007"
 124      AEA42FAE 
 124      FC74DEC3 
 124      7CB107
 125 01ac 0F0094D5 		.ascii	"\017\000\224\3256\243/2\241P\026\373`\2462\207a\222"
 125      36A32F32 
 125      A15016FB 
ARM GAS  /tmp/ccXLDN7f.s 			page 9


 125      60A63287 
 125      6192
 126 01be E8C30E17 		.ascii	"\350\303\016\027\261+\317\221\001\315\360\033\216\""
 126      B12BCF91 
 126      01CDF01B 
 126      8E22
 127 01cc C036DADD 		.ascii	"\3006\332\335\3216\204DN\341L\344c\234\246w\264.\337"
 127      D1368444 
 127      4EE14CE4 
 127      639CA677 
 127      B42EDF
 128 01df 229B6C8C 		.ascii	"\"\233l\214\375A\306~Cf\366F\030J\357\260\231\376?\027"
 128      FD41C67E 
 128      4366F646 
 128      184AEFB0 
 128      99FE3F17 
 129 01f3 18FDC399 		.ascii	"\030\375\303\231\351/j\216\306/(\364Y\3665\247\315>"
 129      E92F6A8E 
 129      C62F28F4 
 129      59F635A7 
 129      CD3E
 130 0205 11EFC023 		.ascii	"\021\357\300#\262\2127\207v0K(\205THjU\371\251\003\214"
 130      B28A3787 
 130      76304B28 
 130      8554486A 
 130      55F9A903 
 131 021a B45ABA5C 		.ascii	"\264Z\272\\-\242\210\217\261\004\337\2353\230\333\000"
 131      2DA2888F 
 131      B104DF9D 
 131      3398DB00 
 132 022a D6AA076B 		.ascii	"\326\252\007k\317\006,\337\232\331'z\260\3439\203\031"
 132      CF062CDF 
 132      9AD9277A 
 132      B0E33983 
 132      19
 133 023b 99ADD183 		.ascii	"\231\255\321\203}\223\015X?kf\353\364`\0359\203\351"
 133      7D930D58 
 133      3F6B66EB 
 133      F4601D39 
 133      83E9
 134 024d 9935450F 		.ascii	"\2315E\017u\235\305\244\3255\020\265\022\322D\"yVI\201"
 134      759DC5A4 
 134      D53510B5 
 134      12D24422 
 134      79564981 
 135 0261 101B42D2 		.ascii	"\020\033B\322\016\021\361Y<\320\230\244\033V\024\322"
 135      0E11F159 
 135      3CD098A4 
 135      1B5614D2 
 136 0271 24A5CF33 		.ascii	"$\245\3173\257\261O\273\224$\325\266\316s\3148:\367"
 136      AFB14FBB 
 136      9424D5B6 
 136      CE73CC38 
 136      3AF7
 137 0283 19B20B94 		.ascii	"\031\262\013\224\267w\365&\313]\352\352\212\274\272"
 137      B777F526 
 137      CB5DEAEA 
ARM GAS  /tmp/ccXLDN7f.s 			page 10


 137      8ABCBA
 138 0292 230DF12E 		.ascii	"#\015\361.\363\352\332\324\305\271\225\307\231y\177"
 138      F3EADAD4 
 138      C5B995C7 
 138      99797F
 139 02a1 D9D55644 		.ascii	"\331\325VD\"'\261\272\265\223%d\244NW?M\027\335\374"
 139      2227B1BA 
 139      B5932564 
 139      A44E573F 
 139      4D17DDFC 
 140 02b5 12A7C4A1 		.ascii	"\022\247\304\241\321lC\270\304\014\375\336\226\362\214"
 140      D16C43B8 
 140      C40CFDDE 
 140      96F28C
 141 02c4 C80268FD 		.ascii	"\310\002h\375\212\355\312\031\361#\003\272l3\237\021"
 141      8AEDCA19 
 141      F12303BA 
 141      6C339F11 
 142 02d4 36D31961 		.ascii	"6\323\031a3\256j\2333Y\211\307m(\267\301\034\272\312"
 142      33AE6A9B 
 142      335989C7 
 142      6D28B7C1 
 142      1CBACA
 143 02e7 147625F3 		.ascii	"\024v%\363\317@2S\210\026\306\236^\337\310\\\247y\342"
 143      CF403253 
 143      8816C69E 
 143      5EDFC85C 
 143      A779E2
 144 02fa 46CE78FD 		.ascii	"F\316x\375L1\341\320\355gM\033\235\345\212\321\">\217"
 144      4C31E1D0 
 144      ED674D1B 
 144      9DE58AD1 
 144      223E8F
 145 030d 87437901 		.ascii	"\207Cy\001J\235\202?\262YtE\026F\303\012\376J\277\202"
 145      4A9D823F 
 145      B2597445 
 145      1646C30A 
 145      FE4ABF82 
 146 0321 EFE70CE6 		.ascii	"\357\347\014\3466\200\035\321\203\375\225\015\230\333"
 146      36801DD1 
 146      83FD950D 
 146      98DB
 147 032f 9AD9313D 		.ascii	"\232\3311=\330\223\234\301\214\314N\350\301\232\354"
 147      D8939CC1 
 147      8CCC4EE8 
 147      C19AEC
 148 033e 59808D4C 		.ascii	"Y\200\215L\027\024C|\222\247\241\210\217\260\343\352"
 148      1714437C 
 148      92A7A188 
 148      8FB0E3EA 
 149 034e 288BD409 		.ascii	"(\213\324\011VFYy\212\225\247Yy\206\225\235\254\374"
 149      56465979 
 149      8A95A759 
 149      7986959D 
 149      ACFC
 150 0360 9595BFB1 		.ascii	"\225\225\277\261\362*+\177\327\307\327\372F\026\375"
 150      F22A2B7F 
ARM GAS  /tmp/ccXLDN7f.s 			page 11


 150      D7C7D7FA 
 150      4616FD
 151 036f 61CD50BA 		.ascii	"a\315P\272\233\265\303-\200C\213\355\306\265f\270\031"
 151      9BB5C32D 
 151      80438BED 
 151      C6B566B8 
 151      19
 152 0380 2847BDD5 		.ascii	"(G\275\325ns\023\000Ro*=\3728\324\302\364\354{\2663"
 152      6E731300 
 152      526F2A3D 
 152      FA38D4C2 
 152      F4EC7BB6 
 153 0395 1696D895 		.ascii	"\026\226\330\225\265gZ\361\252f\3229F\273\357\256\315"
 153      B5675AF1 
 153      AA66D239 
 153      46BBEFAE 
 153      CD
 154 03a6 19D1AD47 		.ascii	"\031\321\255G\214\356=\013\201\315\345J|\375\036nfW"
 154      8CEE3D0B 
 154      81CDE54A 
 154      7CFD1E6E 
 154      6657
 155 03b8 E23B4C7F 		.ascii	"\342;L\177\233\335\274K9L\273\224\303\270\3618\234\311"
 155      9BDDBC4B 
 155      394CBB94 
 155      C3B8F138 
 155      9CC9
 156 03ca 4AE2EEB1 		.ascii	"J\342\356\2613\033+R\235\360\2513j\237.\243\366\263"
 156      331B2B52 
 156      9DF0A933 
 156      6A9F2EA3 
 156      F6B3
 157 03dc 8C3AC072 		.ascii	"\214:\300r\343\026+og\312\020\012\261\033\367N\342\315"
 157      E3162B6F 
 157      67CA100A 
 157      B11BF74E 
 157      E2CD
 158 03ee 496EA61C 		.ascii	"In\246\034\332k\262\370E\264\225\220Vx\227\211\332\341"
 158      DA6BB2F8 
 158      45B49590 
 158      56789789 
 158      DAE1
 159 0400 5DC6AE4C 		.ascii	"]\306\256L\345\320Q6l3\036fq1S\025\274\204\266Q\327"
 159      E5D05136 
 159      6C331E66 
 159      71315315 
 159      BC84B651 
 160 0415 1FBF5E51 		.ascii	"\037\277^Q\246\204\024\245\231\245\322\271\2139\275"
 160      A68414A5 
 160      99A5D2B9 
 160      8B39BD
 161 0424 BDCACB54 		.ascii	"\275\312\313T\364\341\222sp\374\223't77\274K\211x\362"
 161      F4E19273 
 161      70FC9327 
 161      743737BC 
 161      4B8978F2 
 162 0438 204B3B1F 		.ascii	" K;\037\032\357\363\012\257DC!d\366\300\327)=@\376\364"
ARM GAS  /tmp/ccXLDN7f.s 			page 12


 162      1AEFF30A 
 162      AF444321 
 162      64F6C0D7 
 162      293D40FE 
 163 044d 9729D345 		.ascii	"\227)\323E|\037\030\212\370Az\343\325i\207\2442-\231"
 163      7C1F188A 
 163      F8417AE3 
 163      D56987A4 
 163      322D99
 164 0460 CF3160EB 		.ascii	"\3171`\353i*\035\3463B>\"\213\373af\034Rg\031\222\340"
 164      692A1DE6 
 164      33423E22 
 164      8BFB6166 
 164      1C526719 
 165 0476 514A2F5D 		.ascii	"QJ/]\352p\2654\305\342\361a\331\273\350i\032\027\345"
 165      EA70B534 
 165      C5E2F161 
 165      D9BBE869 
 165      1A17E5
 166 0489 F09EBA77 		.ascii	"\360\236\272w\227\362\236\332\304QS/\366X7\333\361\263"
 166      97F29EDA 
 166      C451532F 
 166      F65837DB 
 166      F1B3
 167 049b BC029A42 		.ascii	"\274\002\232Bs\305\"9\037\377lK&\247\026\237\356\254"
 167      73C52239 
 167      1FFF6C4B 
 167      26A7169F 
 167      EEAC
 168 04ad E2B39FC6 		.ascii	"\342\263\237\306G!}\223\241[O\243\243\254\342\323m\216"
 168      47217D93 
 168      A15B4FA3 
 168      A3ACE2D3 
 168      6D8E
 169 04bf CF22AE47 		.ascii	"\317\"\256G|b\324Mg\232\360\312\346H'\271KM\314>J\313"
 169      7C62D44D 
 169      679AF0CA 
 169      E64827B9 
 169      4B4DCC3E 
 170 04d5 395394DA 		.ascii	"9S\224\332S$r\242\25525y\357\216\311{\032\325\217\215"
 170      532472A2 
 170      AD323579 
 170      EF8EC97B 
 170      1AD58F8D 
 171 04e9 545F409B 		.ascii	"T_@\233\311\305\213\261\033\327\326\341e1\322B\236\306"
 171      C9C58BB1 
 171      1BD7D6E1 
 171      6531D242 
 171      9EC6
 172 04fb E3B83F6A 		.ascii	"\343\270?ja\357}\353\012\325\224\210m\213\026\255K\246"
 172      61EF7DEB 
 172      0AD59488 
 172      6D8B16AD 
 172      4BA6
 173 050d 44BEC617 		.ascii	"D\276\306\027k)A\277Pp\211\301\244\250(\365X\021\267"
 173      6B2941BF 
 173      507089C1 
ARM GAS  /tmp/ccXLDN7f.s 			page 13


 173      A4A828F5 
 173      5811B7
 174 0520 7274075B 		.ascii	"rt\007[\2450f]J]\253\3051\345\276\320\221\352c\007\003"
 174      A530665D 
 174      4A5DABC5 
 174      31E5BED0 
 174      91EA6307 
 175 0535 483F5555 		.ascii	"H?UU:OS\252\354{I{\224\221\251G\211x5\327\237\325\230"
 175      3A4F53AA 
 175      EC7B497B 
 175      9491A947 
 175      897835D7 
 176 054c 21247162 		.ascii	"!$qb\272\234\226\201Z\243c\343r&+\005\006\316\332(\260"
 176      BA9C9681 
 176      5AA363E3 
 176      72262B05 
 176      06CEDA28 
 177 0561 6CA9C3B4 		.ascii	"l\251\303\264\223\232H\300\261\252\332.b\372QJ\011O"
 177      939A48C0 
 177      B1AADA2E 
 177      62FA514A 
 177      094F
 178 0573 F4D11992 		.ascii	"\364\321\031\222\277\227,\243\337\226\364\306\254L\032"
 178      BF972CA3 
 178      DF96F4C6 
 178      AC4C1A
 179 0582 63FAAC60 		.ascii	"c\372\254`ar\217\217\017\033r6\271\315\302\344\304\021"
 179      61728F8F 
 179      0F1B7236 
 179      B9CDC2E4 
 179      C411
 180 0594 631805D5 		.ascii	"c\030\005\325\265\234i\3774\221\340\320F\203\311\246"
 180      B59C69FF 
 180      3491E0D0 
 180      4683C9A6 
 181 05a4 FB0A5D0B 		.ascii	"\373\012]\013V\\6r\011\255\252\243.wdrT\203\006R\230"
 181      565C3672 
 181      09ADAAA3 
 181      2E776472 
 181      54830652 
 182 05b9 CE51A651 		.ascii	"\316Q\246Q\020\262\234\035\265\305\302Q}\014\216\332"
 182      10B29C1D 
 182      B5C5C251 
 182      7D0C8EDA 
 183 05c9 6276946E 		.ascii	"bv\224nG2\221\340\320.\203\243\320\320\222\022~jM\240"
 183      473291E0 
 183      D02E83A3 
 183      D0D09212 
 183      7E6A4DA0 
 184 05dd 2A505EC9 		.ascii	"*P^\311\007\303|\215X\313\207C>\276A\254-\361\241q="
 184      07C37C8D 
 184      58CB8743 
 184      3EBE41AC 
 184      2DF1A171 
 185 05f2 3B1B8221 		.ascii	";\033\202!9\314W\316\2365\316\303\317\234Y\312O\257"
 185      39CC57CE 
 185      9E35CEC3 
ARM GAS  /tmp/ccXLDN7f.s 			page 14


 185      CF9C59CA 
 185      4FAF
 186 0604 9851FE9E 		.ascii	"\230Q\376\236\207\216\027jk\375%5\310\025\010\3221u"
 186      878E176A 
 186      6BFD2535 
 186      C81508D2 
 186      3175
 187 0616 62F81D41 		.ascii	"b\370\035A\316\233\376\346\034\367T\024\346\353\253"
 187      CE9BFEE6 
 187      1CF75414 
 187      E6EBAB
 188 0625 99BCCCD7 		.ascii	"\231\274\314\327\004\353$>$\205%1\344\253\001\304\220"
 188      04EB243E 
 188      24852531 
 188      E4AB01C4 
 188      90
 189 0636 FF7D3124 		.ascii	"\377}1$\361b\250\316\303\317\367\371\212\241R,\325U"
 189      F162A8CE 
 189      C3CFF7F9 
 189      8AA1522C 
 189      D555
 190 0648 497EBFE4 		.ascii	"I~\277\344O<\250\017\326K\305\222X\025(\036/L,\366\214"
 190      4F3CA80F 
 190      D64BC592 
 190      5815281E 
 190      2F4C2CF6 
 191 065d 193BFE5D 		.ascii	"\031;\376]\017o\350\340\003\365\276\332F\277\304\207"
 191      0F6FE8E0 
 191      03F5BEDA 
 191      46BFC487 
 192 066d 657FA05E 		.ascii	"e\177\240^\006\036\371\215\360?\316#\310\315\370\377"
 192      061EF98D 
 192      F03FCE23 
 192      C8CDF8FF 
 193 067d D35E27FA 		.ascii	"\323^'\372j\002\365\022/\370\245j\261\261V\026\344\005"
 193      6A02F512 
 193      2FF8A56A 
 193      B1B15616 
 193      E405
 194 068f 0D5218D8 		.ascii	"\015R\030\330\024\010\202\306\307\335\323\251\332t\352"
 194      140882C6 
 194      C7DDD3A9 
 194      DA74EA
 195 069e F51AE498 		.ascii	"\365\032\344\230Q>\2451\354\012\313u0|~C (\310\216Y"
 195      513EA531 
 195      EC0ACB75 
 195      307C7E43 
 195      2028C88E 
 196 06b3 E5A5D3BC 		.ascii	"\345\245\323\274y\345\263\337\252\230\346\355U^Y1mZ"
 196      79E5B3DF 
 196      AA98E6ED 
 196      555E5931 
 196      6D5A
 197 06c5 A9D75131 		.ascii	"\251\327Q1\247\242\324k\233\001R^\352\305s\231\305c"
 197      A7A2D46B 
 197      9B01525E 
 197      EAC57399 
ARM GAS  /tmp/ccXLDN7f.s 			page 15


 197      C563
 198 06d7 2708B2AA 		.ascii	"'\010\262\252\214VmaIv\370j\301^\\f\237R\351\365\332"
 198      8C566D61 
 198      4976F86A 
 198      C15E5C66 
 198      9F52E9F5 
 199 06ec 674E7DC3 		.ascii	"gN}\303k\177\355u\357LZ\224\331\246x\275\005J\304\002"
 199      6B7FED75 
 199      EF4C5A94 
 199      D9A678BD 
 199      054AC402 
 200 0700 7E889752 		.ascii	"~\210\227R\261\323\350\271(\206P-\206\345\211\320\021"
 200      B1D3E8B9 
 200      2886502D 
 200      86E589D0 
 200      11
 201 0711 ACAE06A8 		.ascii	"\254\256\006\250\002`\350\225D?\360\263U5\206{Csn( "
 201      0260E895 
 201      443FF0B3 
 201      5535867B 
 201      43736E28 
 202 0726 4BD0B657 		.ascii	"K\320\266W\005\344p~ X\027\364K\202\334\007z*%\031\236"
 202      05E4707E 
 202      205817F4 
 202      4B82DC07 
 202      7A2A2519 
 203 073b CF82B69D 		.ascii	"\317\202\266\235>\034$\250I\"\000\320\374P\260\261\201"
 203      3E1C24A8 
 203      492200D0 
 203      FC50B0B1 
 203      81
 204 074c 3EB5FB20 		.ascii	">\265\373 \012\371\202P\335X\357\023\204>Z\245d\302"
 204      0AF98250 
 204      DD58EF13 
 204      843E5AA5 
 204      64C2
 205 075e A4B11E43 		.ascii	"\244\261\036C\353\025}\313\343\371\027\027\233\257\252"
 205      EB157DCB 
 205      E3F91717 
 205      9BAFAA
 206              		.text
 207              		.section	.gnu.lto_.symtab.eb97b30bdae406c0,"",%progbits
 208 0000 70616C52 		.ascii	"palReadBus\000\000\000\000\000\000\000\000\000\000\000"
 208      65616442 
 208      75730000 
 208      00000000 
 208      00000000 
 209 0015 00A10000 		.ascii	"\000\241\000\000\000palWriteBus\000\000\000\000\000"
 209      0070616C 
 209      57726974 
 209      65427573 
 209      00000000 
 210 002a 00000000 		.ascii	"\000\000\000\000\000\000\000\364\000\000\000palSetB"
 210      000000F4 
 210      00000070 
 210      616C5365 
 210      7442
ARM GAS  /tmp/ccXLDN7f.s 			page 16


 211 003c 75734D6F 		.ascii	"usMode\000\000\000\000\000\000\000\000\000\000\000\000"
 211      64650000 
 211      00000000 
 211      00000000 
 211      0000
 212 004e FD000000 		.ascii	"\375\000\000\000_pal_lld_setgroupmode\000\000\002\000"
 212      5F70616C 
 212      5F6C6C64 
 212      5F736574 
 212      67726F75 
 213 006b 00000000 		.ascii	"\000\000\000\000\000\000\000\000\011\001\000\000"
 213      00000000 
 213      09010000 
 214              		.text
 215              		.section	.gnu.lto_.opts,"",%progbits
 216 0000 272D6D63 		.ascii	"'-mcpu=cortex-m4' '-mno-thumb-interwork' '-mthumb' "
 216      70753D63 
 216      6F727465 
 216      782D6D34 
 216      2720272D 
 217 0033 272D6767 		.ascii	"'-ggdb' '-O2' '-fomit-frame-pointer' '-falign-funct"
 217      64622720 
 217      272D4F32 
 217      2720272D 
 217      666F6D69 
 218 0066 696F6E73 		.ascii	"ions=16' '-ffunction-sections' '-fdata-sections' '-"
 218      3D313627 
 218      20272D66 
 218      66756E63 
 218      74696F6E 
 219 0099 666E6F2D 		.ascii	"fno-common' '-flto'\000"
 219      636F6D6D 
 219      6F6E2720 
 219      272D666C 
 219      746F2700 
 220              		.text
 221              		.cfi_sections	.debug_frame
 222              		.section	.text.palReadBus,"ax",%progbits
 223              		.align	2
 224              		.p2align 4,,15
 225              		.global	palReadBus
 226              		.thumb
 227              		.thumb_func
 228              		.type	palReadBus, %function
 229              	palReadBus:
 230              	.LFB272:
 231              		.file 1 "../ChibiOS/os/hal/src/pal.c"
 232              		.loc 1 65 0
 233              		.cfi_startproc
 234              		@ args = 0, pretend = 0, frame = 0
 235              		@ frame_needed = 0, uses_anonymous_args = 0
 236              		@ link register save eliminated.
 237              	.LVL0:
 238              		.loc 1 69 0
 239 0000 0368     		ldr	r3, [r0]
 240 0002 8268     		ldr	r2, [r0, #8]
 241 0004 1969     		ldr	r1, [r3, #16]
ARM GAS  /tmp/ccXLDN7f.s 			page 17


 242 0006 4368     		ldr	r3, [r0, #4]
 243 0008 21FA02F0 		lsr	r0, r1, r2
 244              	.LVL1:
 245              		.loc 1 70 0
 246 000c 1840     		ands	r0, r0, r3
 247 000e 7047     		bx	lr
 248              		.cfi_endproc
 249              	.LFE272:
 250              		.size	palReadBus, .-palReadBus
 251              		.section	.text.palWriteBus,"ax",%progbits
 252              		.align	2
 253              		.p2align 4,,15
 254              		.global	palWriteBus
 255              		.thumb
 256              		.thumb_func
 257              		.type	palWriteBus, %function
 258              	palWriteBus:
 259              	.LFB273:
 260              		.loc 1 90 0
 261              		.cfi_startproc
 262              		@ args = 0, pretend = 0, frame = 0
 263              		@ frame_needed = 0, uses_anonymous_args = 0
 264              		@ link register save eliminated.
 265              	.LVL2:
 266              		.loc 1 94 0
 267 0000 0DC8     		ldmia	r0, {r0, r2, r3}
 268              	.LVL3:
 269              		.loc 1 90 0
 270 0002 30B4     		push	{r4, r5}
 271              		.cfi_def_cfa_offset 8
 272              		.cfi_offset 4, -8
 273              		.cfi_offset 5, -4
 274              		.loc 1 94 0
 275 0004 22EA0105 		bic	r5, r2, r1
 276 0008 03F11004 		add	r4, r3, #16
 277 000c 0A40     		ands	r2, r2, r1
 278 000e 02FA03F3 		lsl	r3, r2, r3
 279 0012 05FA04F2 		lsl	r2, r5, r4
 280 0016 1343     		orrs	r3, r3, r2
 281 0018 8361     		str	r3, [r0, #24]
 282              		.loc 1 95 0
 283 001a 30BC     		pop	{r4, r5}
 284 001c 7047     		bx	lr
 285              		.cfi_endproc
 286              	.LFE273:
 287              		.size	palWriteBus, .-palWriteBus
 288 001e 00BF     		.section	.text.palSetBusMode,"ax",%progbits
 289              		.align	2
 290              		.p2align 4,,15
 291              		.global	palSetBusMode
 292              		.thumb
 293              		.thumb_func
 294              		.type	palSetBusMode, %function
 295              	palSetBusMode:
 296              	.LFB274:
 297              		.loc 1 113 0
 298              		.cfi_startproc
ARM GAS  /tmp/ccXLDN7f.s 			page 18


 299              		@ args = 0, pretend = 0, frame = 0
 300              		@ frame_needed = 0, uses_anonymous_args = 0
 301              		@ link register save eliminated.
 302              	.LVL4:
 303 0000 10B4     		push	{r4}
 304              		.cfi_def_cfa_offset 4
 305              		.cfi_offset 4, -4
 306              		.loc 1 113 0
 307 0002 0A46     		mov	r2, r1
 308              		.loc 1 117 0
 309 0004 4468     		ldr	r4, [r0, #4]
 310 0006 8168     		ldr	r1, [r0, #8]
 311              	.LVL5:
 312 0008 0068     		ldr	r0, [r0]
 313              	.LVL6:
 314 000a 04FA01F1 		lsl	r1, r4, r1
 315              		.loc 1 118 0
 316 000e 5DF8044B 		ldr	r4, [sp], #4
 317              		.loc 1 117 0
 318 0012 FFF7FEBF 		b	_pal_lld_setgroupmode
 319              	.LVL7:
 320              		.cfi_endproc
 321              	.LFE274:
 322              		.size	palSetBusMode, .-palSetBusMode
 323 0016 00BFAFF3 		.text
 323      0080AFF3 
 323      0080
 324              	.Letext0:
 325              		.file 2 "/nfs/nfs5/home/research/hardware/arm2/gcc-arm-embedded/gcc-arm-none-eabi-4_8-2014q2/arm-n
 326              		.file 3 "/nfs/nfs5/home/research/hardware/arm2/gcc-arm-embedded/gcc-arm-none-eabi-4_8-2014q2/arm-n
 327              		.file 4 "../ChibiOS/os/rt/ports/ARMCMx/compilers/GCC/chtypes.h"
 328              		.file 5 "../ChibiOS/os/rt/include/chsystypes.h"
 329              		.file 6 "../ChibiOS/os/rt/include/chschd.h"
 330              		.file 7 "../ChibiOS/os/rt/ports/ARMCMx/chcore.h"
 331              		.file 8 "../ChibiOS/os/rt/ports/ARMCMx/chcore_v7m.h"
 332              		.file 9 "../ChibiOS/os/rt/include/chtm.h"
 333              		.file 10 "../ChibiOS/os/rt/include/chsem.h"
 334              		.file 11 "../ChibiOS/os/rt/include/chmtx.h"
 335              		.file 12 "../ChibiOS/os/hal/ports/STM32/LLD/GPIOv2/pal_lld.h"
 336              		.file 13 "../ChibiOS/os/hal/include/pal.h"
 337              		.file 14 "../ChibiOS/os/ext/CMSIS/include/core_cm4.h"
 338              		.section	.debug_info,"",%progbits
 339              	.Ldebug_info0:
 340 0000 AE080000 		.4byte	0x8ae
 341 0004 0400     		.2byte	0x4
 342 0006 00000000 		.4byte	.Ldebug_abbrev0
 343 000a 04       		.byte	0x4
 344 000b 01       		.uleb128 0x1
 345 000c 2C050000 		.4byte	.LASF129
 346 0010 01       		.byte	0x1
 347 0011 A6010000 		.4byte	.LASF130
 348 0015 EF030000 		.4byte	.LASF131
 349 0019 00000000 		.4byte	.Ldebug_ranges0+0
 350 001d 00000000 		.4byte	0
 351 0021 00000000 		.4byte	.Ldebug_line0
 352 0025 02       		.uleb128 0x2
 353 0026 04       		.byte	0x4
ARM GAS  /tmp/ccXLDN7f.s 			page 19


 354 0027 05       		.byte	0x5
 355 0028 696E7400 		.ascii	"int\000"
 356 002c 03       		.uleb128 0x3
 357 002d 04       		.byte	0x4
 358 002e 07       		.byte	0x7
 359 002f 91010000 		.4byte	.LASF0
 360 0033 03       		.uleb128 0x3
 361 0034 01       		.byte	0x1
 362 0035 06       		.byte	0x6
 363 0036 E4000000 		.4byte	.LASF1
 364 003a 04       		.uleb128 0x4
 365 003b 23000000 		.4byte	.LASF4
 366 003f 02       		.byte	0x2
 367 0040 1C       		.byte	0x1c
 368 0041 45000000 		.4byte	0x45
 369 0045 03       		.uleb128 0x3
 370 0046 01       		.byte	0x1
 371 0047 08       		.byte	0x8
 372 0048 50030000 		.4byte	.LASF2
 373 004c 03       		.uleb128 0x3
 374 004d 02       		.byte	0x2
 375 004e 05       		.byte	0x5
 376 004f 68030000 		.4byte	.LASF3
 377 0053 04       		.uleb128 0x4
 378 0054 65040000 		.4byte	.LASF5
 379 0058 02       		.byte	0x2
 380 0059 26       		.byte	0x26
 381 005a 5E000000 		.4byte	0x5e
 382 005e 03       		.uleb128 0x3
 383 005f 02       		.byte	0x2
 384 0060 07       		.byte	0x7
 385 0061 DF010000 		.4byte	.LASF6
 386 0065 04       		.uleb128 0x4
 387 0066 30020000 		.4byte	.LASF7
 388 006a 02       		.byte	0x2
 389 006b 37       		.byte	0x37
 390 006c 70000000 		.4byte	0x70
 391 0070 03       		.uleb128 0x3
 392 0071 04       		.byte	0x4
 393 0072 05       		.byte	0x5
 394 0073 11010000 		.4byte	.LASF8
 395 0077 04       		.uleb128 0x4
 396 0078 9E040000 		.4byte	.LASF9
 397 007c 02       		.byte	0x2
 398 007d 38       		.byte	0x38
 399 007e 82000000 		.4byte	0x82
 400 0082 03       		.uleb128 0x3
 401 0083 04       		.byte	0x4
 402 0084 07       		.byte	0x7
 403 0085 37040000 		.4byte	.LASF10
 404 0089 03       		.uleb128 0x3
 405 008a 08       		.byte	0x8
 406 008b 05       		.byte	0x5
 407 008c D6000000 		.4byte	.LASF11
 408 0090 04       		.uleb128 0x4
 409 0091 45020000 		.4byte	.LASF12
 410 0095 02       		.byte	0x2
ARM GAS  /tmp/ccXLDN7f.s 			page 20


 411 0096 4E       		.byte	0x4e
 412 0097 9B000000 		.4byte	0x9b
 413 009b 03       		.uleb128 0x3
 414 009c 08       		.byte	0x8
 415 009d 07       		.byte	0x7
 416 009e 62000000 		.4byte	.LASF13
 417 00a2 04       		.uleb128 0x4
 418 00a3 24050000 		.4byte	.LASF14
 419 00a7 03       		.byte	0x3
 420 00a8 2A       		.byte	0x2a
 421 00a9 3A000000 		.4byte	0x3a
 422 00ad 04       		.uleb128 0x4
 423 00ae 23010000 		.4byte	.LASF15
 424 00b2 03       		.byte	0x3
 425 00b3 36       		.byte	0x36
 426 00b4 53000000 		.4byte	0x53
 427 00b8 04       		.uleb128 0x4
 428 00b9 48030000 		.4byte	.LASF16
 429 00bd 03       		.byte	0x3
 430 00be 41       		.byte	0x41
 431 00bf 65000000 		.4byte	0x65
 432 00c3 04       		.uleb128 0x4
 433 00c4 E6030000 		.4byte	.LASF17
 434 00c8 03       		.byte	0x3
 435 00c9 42       		.byte	0x42
 436 00ca 77000000 		.4byte	0x77
 437 00ce 04       		.uleb128 0x4
 438 00cf 1A000000 		.4byte	.LASF18
 439 00d3 03       		.byte	0x3
 440 00d4 4E       		.byte	0x4e
 441 00d5 90000000 		.4byte	0x90
 442 00d9 04       		.uleb128 0x4
 443 00da 8F030000 		.4byte	.LASF19
 444 00de 03       		.byte	0x3
 445 00df 60       		.byte	0x60
 446 00e0 2C000000 		.4byte	0x2c
 447 00e4 04       		.uleb128 0x4
 448 00e5 E3040000 		.4byte	.LASF20
 449 00e9 04       		.byte	0x4
 450 00ea 39       		.byte	0x39
 451 00eb C3000000 		.4byte	0xc3
 452 00ef 04       		.uleb128 0x4
 453 00f0 0E020000 		.4byte	.LASF21
 454 00f4 04       		.byte	0x4
 455 00f5 3C       		.byte	0x3c
 456 00f6 A2000000 		.4byte	0xa2
 457 00fa 04       		.uleb128 0x4
 458 00fb 1A010000 		.4byte	.LASF22
 459 00ff 04       		.byte	0x4
 460 0100 3D       		.byte	0x3d
 461 0101 A2000000 		.4byte	0xa2
 462 0105 04       		.uleb128 0x4
 463 0106 0B030000 		.4byte	.LASF23
 464 010a 04       		.byte	0x4
 465 010b 3E       		.byte	0x3e
 466 010c A2000000 		.4byte	0xa2
 467 0110 04       		.uleb128 0x4
ARM GAS  /tmp/ccXLDN7f.s 			page 21


 468 0111 2A030000 		.4byte	.LASF24
 469 0115 04       		.byte	0x4
 470 0116 40       		.byte	0x40
 471 0117 C3000000 		.4byte	0xc3
 472 011b 04       		.uleb128 0x4
 473 011c FC010000 		.4byte	.LASF25
 474 0120 04       		.byte	0x4
 475 0121 41       		.byte	0x41
 476 0122 B8000000 		.4byte	0xb8
 477 0126 04       		.uleb128 0x4
 478 0127 24020000 		.4byte	.LASF26
 479 012b 04       		.byte	0x4
 480 012c 43       		.byte	0x43
 481 012d C3000000 		.4byte	0xc3
 482 0131 04       		.uleb128 0x4
 483 0132 8B010000 		.4byte	.LASF27
 484 0136 04       		.byte	0x4
 485 0137 45       		.byte	0x45
 486 0138 B8000000 		.4byte	0xb8
 487 013c 04       		.uleb128 0x4
 488 013d 80040000 		.4byte	.LASF28
 489 0141 05       		.byte	0x5
 490 0142 33       		.byte	0x33
 491 0143 C3000000 		.4byte	0xc3
 492 0147 04       		.uleb128 0x4
 493 0148 70040000 		.4byte	.LASF29
 494 014c 05       		.byte	0x5
 495 014d 3F       		.byte	0x3f
 496 014e 52010000 		.4byte	0x152
 497 0152 05       		.uleb128 0x5
 498 0153 F2010000 		.4byte	.LASF48
 499 0157 40       		.byte	0x40
 500 0158 06       		.byte	0x6
 501 0159 C2       		.byte	0xc2
 502 015a 32020000 		.4byte	0x232
 503 015e 06       		.uleb128 0x6
 504 015f 88030000 		.4byte	.LASF30
 505 0163 06       		.byte	0x6
 506 0164 C3       		.byte	0xc3
 507 0165 3D020000 		.4byte	0x23d
 508 0169 00       		.byte	0
 509 016a 06       		.uleb128 0x6
 510 016b 23030000 		.4byte	.LASF31
 511 016f 06       		.byte	0x6
 512 0170 C5       		.byte	0xc5
 513 0171 3D020000 		.4byte	0x23d
 514 0175 04       		.byte	0x4
 515 0176 06       		.uleb128 0x6
 516 0177 CF000000 		.4byte	.LASF32
 517 017b 06       		.byte	0x6
 518 017c C7       		.byte	0xc7
 519 017d 10010000 		.4byte	0x110
 520 0181 08       		.byte	0x8
 521 0182 06       		.uleb128 0x6
 522 0183 3A060000 		.4byte	.LASF33
 523 0187 06       		.byte	0x6
 524 0188 C8       		.byte	0xc8
ARM GAS  /tmp/ccXLDN7f.s 			page 22


 525 0189 72040000 		.4byte	0x472
 526 018d 0C       		.byte	0xc
 527 018e 06       		.uleb128 0x6
 528 018f 2C010000 		.4byte	.LASF34
 529 0193 06       		.byte	0x6
 530 0194 CA       		.byte	0xca
 531 0195 3D020000 		.4byte	0x23d
 532 0199 10       		.byte	0x10
 533 019a 06       		.uleb128 0x6
 534 019b BB020000 		.4byte	.LASF35
 535 019f 06       		.byte	0x6
 536 01a0 CB       		.byte	0xcb
 537 01a1 3D020000 		.4byte	0x23d
 538 01a5 14       		.byte	0x14
 539 01a6 06       		.uleb128 0x6
 540 01a7 13060000 		.4byte	.LASF36
 541 01ab 06       		.byte	0x6
 542 01ac D2       		.byte	0xd2
 543 01ad FD050000 		.4byte	0x5fd
 544 01b1 18       		.byte	0x18
 545 01b2 06       		.uleb128 0x6
 546 01b3 72030000 		.4byte	.LASF37
 547 01b7 06       		.byte	0x6
 548 01b8 DD       		.byte	0xdd
 549 01b9 FA000000 		.4byte	0xfa
 550 01bd 1C       		.byte	0x1c
 551 01be 06       		.uleb128 0x6
 552 01bf 9C030000 		.4byte	.LASF38
 553 01c3 06       		.byte	0x6
 554 01c4 E1       		.byte	0xe1
 555 01c5 EF000000 		.4byte	0xef
 556 01c9 1D       		.byte	0x1d
 557 01ca 06       		.uleb128 0x6
 558 01cb 17050000 		.4byte	.LASF39
 559 01cf 06       		.byte	0x6
 560 01d0 E6       		.byte	0xe6
 561 01d1 05010000 		.4byte	0x105
 562 01d5 1E       		.byte	0x1e
 563 01d6 07       		.uleb128 0x7
 564 01d7 705F7500 		.ascii	"p_u\000"
 565 01db 06       		.byte	0x6
 566 01dc 3701     		.2byte	0x137
 567 01de 2C050000 		.4byte	0x52c
 568 01e2 20       		.byte	0x20
 569 01e3 08       		.uleb128 0x8
 570 01e4 5E020000 		.4byte	.LASF40
 571 01e8 06       		.byte	0x6
 572 01e9 3C01     		.2byte	0x13c
 573 01eb 43020000 		.4byte	0x243
 574 01ef 24       		.byte	0x24
 575 01f0 08       		.uleb128 0x8
 576 01f1 C9010000 		.4byte	.LASF41
 577 01f5 06       		.byte	0x6
 578 01f6 4201     		.2byte	0x142
 579 01f8 67020000 		.4byte	0x267
 580 01fc 28       		.byte	0x28
 581 01fd 08       		.uleb128 0x8
ARM GAS  /tmp/ccXLDN7f.s 			page 23


 582 01fe DB030000 		.4byte	.LASF42
 583 0202 06       		.byte	0x6
 584 0203 4801     		.2byte	0x148
 585 0205 26010000 		.4byte	0x126
 586 0209 30       		.byte	0x30
 587 020a 08       		.uleb128 0x8
 588 020b 5E030000 		.4byte	.LASF43
 589 020f 06       		.byte	0x6
 590 0210 4F01     		.2byte	0x14f
 591 0212 F7050000 		.4byte	0x5f7
 592 0216 34       		.byte	0x34
 593 0217 08       		.uleb128 0x8
 594 0218 8A040000 		.4byte	.LASF44
 595 021c 06       		.byte	0x6
 596 021d 5301     		.2byte	0x153
 597 021f 10010000 		.4byte	0x110
 598 0223 38       		.byte	0x38
 599 0224 08       		.uleb128 0x8
 600 0225 F5000000 		.4byte	.LASF45
 601 0229 06       		.byte	0x6
 602 022a 5A01     		.2byte	0x15a
 603 022c 1A030000 		.4byte	0x31a
 604 0230 3C       		.byte	0x3c
 605 0231 00       		.byte	0
 606 0232 04       		.uleb128 0x4
 607 0233 7F020000 		.4byte	.LASF46
 608 0237 05       		.byte	0x5
 609 0238 44       		.byte	0x44
 610 0239 3D020000 		.4byte	0x23d
 611 023d 09       		.uleb128 0x9
 612 023e 04       		.byte	0x4
 613 023f 47010000 		.4byte	0x147
 614 0243 04       		.uleb128 0x4
 615 0244 1A060000 		.4byte	.LASF47
 616 0248 05       		.byte	0x5
 617 0249 49       		.byte	0x49
 618 024a 4E020000 		.4byte	0x24e
 619 024e 05       		.uleb128 0x5
 620 024f 27040000 		.4byte	.LASF49
 621 0253 04       		.byte	0x4
 622 0254 06       		.byte	0x6
 623 0255 B0       		.byte	0xb0
 624 0256 67020000 		.4byte	0x267
 625 025a 06       		.uleb128 0x6
 626 025b 88030000 		.4byte	.LASF30
 627 025f 06       		.byte	0x6
 628 0260 B1       		.byte	0xb1
 629 0261 3D020000 		.4byte	0x23d
 630 0265 00       		.byte	0
 631 0266 00       		.byte	0
 632 0267 04       		.uleb128 0x4
 633 0268 FE040000 		.4byte	.LASF50
 634 026c 05       		.byte	0x5
 635 026d 50       		.byte	0x50
 636 026e 72020000 		.4byte	0x272
 637 0272 05       		.uleb128 0x5
 638 0273 BE000000 		.4byte	.LASF51
ARM GAS  /tmp/ccXLDN7f.s 			page 24


 639 0277 08       		.byte	0x8
 640 0278 06       		.byte	0x6
 641 0279 B7       		.byte	0xb7
 642 027a 97020000 		.4byte	0x297
 643 027e 06       		.uleb128 0x6
 644 027f 88030000 		.4byte	.LASF30
 645 0283 06       		.byte	0x6
 646 0284 B8       		.byte	0xb8
 647 0285 3D020000 		.4byte	0x23d
 648 0289 00       		.byte	0
 649 028a 06       		.uleb128 0x6
 650 028b 23030000 		.4byte	.LASF31
 651 028f 06       		.byte	0x6
 652 0290 B9       		.byte	0xb9
 653 0291 3D020000 		.4byte	0x23d
 654 0295 04       		.byte	0x4
 655 0296 00       		.byte	0
 656 0297 04       		.uleb128 0x4
 657 0298 00000000 		.4byte	.LASF52
 658 029c 05       		.byte	0x5
 659 029d 57       		.byte	0x57
 660 029e A2020000 		.4byte	0x2a2
 661 02a2 0A       		.uleb128 0xa
 662 02a3 16020000 		.4byte	.LASF53
 663 02a7 1C       		.byte	0x1c
 664 02a8 06       		.byte	0x6
 665 02a9 9201     		.2byte	0x192
 666 02ab FE020000 		.4byte	0x2fe
 667 02af 08       		.uleb128 0x8
 668 02b0 16040000 		.4byte	.LASF54
 669 02b4 06       		.byte	0x6
 670 02b5 9301     		.2byte	0x193
 671 02b7 67020000 		.4byte	0x267
 672 02bb 00       		.byte	0
 673 02bc 08       		.uleb128 0x8
 674 02bd 7A030000 		.4byte	.LASF55
 675 02c1 06       		.byte	0x6
 676 02c2 9401     		.2byte	0x194
 677 02c4 10010000 		.4byte	0x110
 678 02c8 08       		.byte	0x8
 679 02c9 08       		.uleb128 0x8
 680 02ca C3020000 		.4byte	.LASF56
 681 02ce 06       		.byte	0x6
 682 02cf 9601     		.2byte	0x196
 683 02d1 72040000 		.4byte	0x472
 684 02d5 0C       		.byte	0xc
 685 02d6 08       		.uleb128 0x8
 686 02d7 52010000 		.4byte	.LASF57
 687 02db 06       		.byte	0x6
 688 02dc 9901     		.2byte	0x199
 689 02de 3D020000 		.4byte	0x23d
 690 02e2 10       		.byte	0x10
 691 02e3 08       		.uleb128 0x8
 692 02e4 E4020000 		.4byte	.LASF58
 693 02e8 06       		.byte	0x6
 694 02e9 9A01     		.2byte	0x19a
 695 02eb 3D020000 		.4byte	0x23d
ARM GAS  /tmp/ccXLDN7f.s 			page 25


 696 02ef 14       		.byte	0x14
 697 02f0 08       		.uleb128 0x8
 698 02f1 DA020000 		.4byte	.LASF59
 699 02f5 06       		.byte	0x6
 700 02f6 9D01     		.2byte	0x19d
 701 02f8 3D020000 		.4byte	0x23d
 702 02fc 18       		.byte	0x18
 703 02fd 00       		.byte	0
 704 02fe 04       		.uleb128 0x4
 705 02ff 95040000 		.4byte	.LASF60
 706 0303 05       		.byte	0x5
 707 0304 5C       		.byte	0x5c
 708 0305 09030000 		.4byte	0x309
 709 0309 09       		.uleb128 0x9
 710 030a 04       		.byte	0x4
 711 030b 0F030000 		.4byte	0x30f
 712 030f 0B       		.uleb128 0xb
 713 0310 1A030000 		.4byte	0x31a
 714 0314 0C       		.uleb128 0xc
 715 0315 1A030000 		.4byte	0x31a
 716 0319 00       		.byte	0
 717 031a 0D       		.uleb128 0xd
 718 031b 04       		.byte	0x4
 719 031c 04       		.uleb128 0x4
 720 031d 13030000 		.4byte	.LASF61
 721 0321 05       		.byte	0x5
 722 0322 61       		.byte	0x61
 723 0323 27030000 		.4byte	0x327
 724 0327 0A       		.uleb128 0xa
 725 0328 BD030000 		.4byte	.LASF62
 726 032c 14       		.byte	0x14
 727 032d 06       		.byte	0x6
 728 032e 6D01     		.2byte	0x16d
 729 0330 76030000 		.4byte	0x376
 730 0334 08       		.uleb128 0x8
 731 0335 9E010000 		.4byte	.LASF63
 732 0339 06       		.byte	0x6
 733 033a 6E01     		.2byte	0x16e
 734 033c 0F060000 		.4byte	0x60f
 735 0340 00       		.byte	0
 736 0341 08       		.uleb128 0x8
 737 0342 68010000 		.4byte	.LASF64
 738 0346 06       		.byte	0x6
 739 0347 6F01     		.2byte	0x16f
 740 0349 0F060000 		.4byte	0x60f
 741 034d 04       		.byte	0x4
 742 034e 08       		.uleb128 0x8
 743 034f 1E040000 		.4byte	.LASF65
 744 0353 06       		.byte	0x6
 745 0354 7001     		.2byte	0x170
 746 0356 3C010000 		.4byte	0x13c
 747 035a 08       		.byte	0x8
 748 035b 08       		.uleb128 0x8
 749 035c 40060000 		.4byte	.LASF66
 750 0360 06       		.byte	0x6
 751 0361 7101     		.2byte	0x171
 752 0363 FE020000 		.4byte	0x2fe
ARM GAS  /tmp/ccXLDN7f.s 			page 26


 753 0367 0C       		.byte	0xc
 754 0368 08       		.uleb128 0x8
 755 0369 EB040000 		.4byte	.LASF67
 756 036d 06       		.byte	0x6
 757 036e 7301     		.2byte	0x173
 758 0370 1A030000 		.4byte	0x31a
 759 0374 10       		.byte	0x10
 760 0375 00       		.byte	0
 761 0376 04       		.uleb128 0x4
 762 0377 9B000000 		.4byte	.LASF68
 763 037b 05       		.byte	0x5
 764 037c 66       		.byte	0x66
 765 037d 81030000 		.4byte	0x381
 766 0381 0A       		.uleb128 0xa
 767 0382 92020000 		.4byte	.LASF69
 768 0386 10       		.byte	0x10
 769 0387 06       		.byte	0x6
 770 0388 7D01     		.2byte	0x17d
 771 038a C3030000 		.4byte	0x3c3
 772 038e 08       		.uleb128 0x8
 773 038f 9E010000 		.4byte	.LASF63
 774 0393 06       		.byte	0x6
 775 0394 7E01     		.2byte	0x17e
 776 0396 0F060000 		.4byte	0x60f
 777 039a 00       		.byte	0
 778 039b 08       		.uleb128 0x8
 779 039c 68010000 		.4byte	.LASF64
 780 03a0 06       		.byte	0x6
 781 03a1 8001     		.2byte	0x180
 782 03a3 0F060000 		.4byte	0x60f
 783 03a7 04       		.byte	0x4
 784 03a8 08       		.uleb128 0x8
 785 03a9 1E040000 		.4byte	.LASF65
 786 03ad 06       		.byte	0x6
 787 03ae 8201     		.2byte	0x182
 788 03b0 3C010000 		.4byte	0x13c
 789 03b4 08       		.byte	0x8
 790 03b5 08       		.uleb128 0x8
 791 03b6 AF020000 		.4byte	.LASF70
 792 03ba 06       		.byte	0x6
 793 03bb 8A01     		.2byte	0x18a
 794 03bd 3C010000 		.4byte	0x13c
 795 03c1 0C       		.byte	0xc
 796 03c2 00       		.byte	0
 797 03c3 04       		.uleb128 0x4
 798 03c4 40000000 		.4byte	.LASF71
 799 03c8 05       		.byte	0x5
 800 03c9 6B       		.byte	0x6b
 801 03ca CE030000 		.4byte	0x3ce
 802 03ce 0A       		.uleb128 0xa
 803 03cf 32030000 		.4byte	.LASF72
 804 03d3 04       		.byte	0x4
 805 03d4 06       		.byte	0x6
 806 03d5 A401     		.2byte	0x1a4
 807 03d7 E9030000 		.4byte	0x3e9
 808 03db 08       		.uleb128 0x8
 809 03dc A9040000 		.4byte	.LASF73
ARM GAS  /tmp/ccXLDN7f.s 			page 27


 810 03e0 06       		.byte	0x6
 811 03e1 AC01     		.2byte	0x1ac
 812 03e3 15060000 		.4byte	0x615
 813 03e7 00       		.byte	0
 814 03e8 00       		.byte	0
 815 03e9 04       		.uleb128 0x4
 816 03ea 02020000 		.4byte	.LASF74
 817 03ee 05       		.byte	0x5
 818 03ef 70       		.byte	0x70
 819 03f0 F4030000 		.4byte	0x3f4
 820 03f4 0E       		.uleb128 0xe
 821 03f5 B3030000 		.4byte	.LASF75
 822 03f9 5001     		.2byte	0x150
 823 03fb 06       		.byte	0x6
 824 03fc C401     		.2byte	0x1c4
 825 03fe 50040000 		.4byte	0x450
 826 0402 08       		.uleb128 0x8
 827 0403 1E050000 		.4byte	.LASF76
 828 0407 06       		.byte	0x6
 829 0408 C801     		.2byte	0x1c8
 830 040a 97020000 		.4byte	0x297
 831 040e 00       		.byte	0
 832 040f 08       		.uleb128 0x8
 833 0410 05010000 		.4byte	.LASF77
 834 0414 06       		.byte	0x6
 835 0415 CC01     		.2byte	0x1cc
 836 0417 76030000 		.4byte	0x376
 837 041b 1C       		.byte	0x1c
 838 041c 07       		.uleb128 0x7
 839 041d 64626700 		.ascii	"dbg\000"
 840 0421 06       		.byte	0x6
 841 0422 D001     		.2byte	0x1d0
 842 0424 C3030000 		.4byte	0x3c3
 843 0428 2C       		.byte	0x2c
 844 0429 08       		.uleb128 0x8
 845 042a 88000000 		.4byte	.LASF78
 846 042e 06       		.byte	0x6
 847 042f D401     		.2byte	0x1d4
 848 0431 47010000 		.4byte	0x147
 849 0435 30       		.byte	0x30
 850 0436 07       		.uleb128 0x7
 851 0437 746D00   		.ascii	"tm\000"
 852 043a 06       		.byte	0x6
 853 043b D901     		.2byte	0x1d9
 854 043d 21050000 		.4byte	0x521
 855 0441 70       		.byte	0x70
 856 0442 08       		.uleb128 0x8
 857 0443 A4030000 		.4byte	.LASF79
 858 0447 06       		.byte	0x6
 859 0448 E501     		.2byte	0x1e5
 860 044a 1A060000 		.4byte	0x61a
 861 044e 78       		.byte	0x78
 862 044f 00       		.byte	0
 863 0450 03       		.uleb128 0x3
 864 0451 04       		.byte	0x4
 865 0452 07       		.byte	0x7
 866 0453 76020000 		.4byte	.LASF80
ARM GAS  /tmp/ccXLDN7f.s 			page 28


 867 0457 0F       		.uleb128 0xf
 868 0458 C3000000 		.4byte	0xc3
 869 045c 04       		.uleb128 0x4
 870 045d 5F010000 		.4byte	.LASF81
 871 0461 07       		.byte	0x7
 872 0462 65       		.byte	0x65
 873 0463 1A030000 		.4byte	0x31a
 874 0467 04       		.uleb128 0x4
 875 0468 3A020000 		.4byte	.LASF82
 876 046c 07       		.byte	0x7
 877 046d 6D       		.byte	0x6d
 878 046e CE000000 		.4byte	0xce
 879 0472 05       		.uleb128 0x5
 880 0473 C5040000 		.4byte	.LASF83
 881 0477 04       		.byte	0x4
 882 0478 07       		.byte	0x7
 883 0479 89       		.byte	0x89
 884 047a 8B040000 		.4byte	0x48b
 885 047e 10       		.uleb128 0x10
 886 047f 72313300 		.ascii	"r13\000"
 887 0483 07       		.byte	0x7
 888 0484 8A       		.byte	0x8a
 889 0485 06050000 		.4byte	0x506
 890 0489 00       		.byte	0
 891 048a 00       		.byte	0
 892 048b 05       		.uleb128 0x5
 893 048c 34000000 		.4byte	.LASF84
 894 0490 24       		.byte	0x24
 895 0491 08       		.byte	0x8
 896 0492 FD       		.byte	0xfd
 897 0493 06050000 		.4byte	0x506
 898 0497 07       		.uleb128 0x7
 899 0498 723400   		.ascii	"r4\000"
 900 049b 08       		.byte	0x8
 901 049c 1001     		.2byte	0x110
 902 049e 5C040000 		.4byte	0x45c
 903 04a2 00       		.byte	0
 904 04a3 07       		.uleb128 0x7
 905 04a4 723500   		.ascii	"r5\000"
 906 04a7 08       		.byte	0x8
 907 04a8 1101     		.2byte	0x111
 908 04aa 5C040000 		.4byte	0x45c
 909 04ae 04       		.byte	0x4
 910 04af 07       		.uleb128 0x7
 911 04b0 723600   		.ascii	"r6\000"
 912 04b3 08       		.byte	0x8
 913 04b4 1201     		.2byte	0x112
 914 04b6 5C040000 		.4byte	0x45c
 915 04ba 08       		.byte	0x8
 916 04bb 07       		.uleb128 0x7
 917 04bc 723700   		.ascii	"r7\000"
 918 04bf 08       		.byte	0x8
 919 04c0 1301     		.2byte	0x113
 920 04c2 5C040000 		.4byte	0x45c
 921 04c6 0C       		.byte	0xc
 922 04c7 07       		.uleb128 0x7
 923 04c8 723800   		.ascii	"r8\000"
ARM GAS  /tmp/ccXLDN7f.s 			page 29


 924 04cb 08       		.byte	0x8
 925 04cc 1401     		.2byte	0x114
 926 04ce 5C040000 		.4byte	0x45c
 927 04d2 10       		.byte	0x10
 928 04d3 07       		.uleb128 0x7
 929 04d4 723900   		.ascii	"r9\000"
 930 04d7 08       		.byte	0x8
 931 04d8 1501     		.2byte	0x115
 932 04da 5C040000 		.4byte	0x45c
 933 04de 14       		.byte	0x14
 934 04df 07       		.uleb128 0x7
 935 04e0 72313000 		.ascii	"r10\000"
 936 04e4 08       		.byte	0x8
 937 04e5 1601     		.2byte	0x116
 938 04e7 5C040000 		.4byte	0x45c
 939 04eb 18       		.byte	0x18
 940 04ec 07       		.uleb128 0x7
 941 04ed 72313100 		.ascii	"r11\000"
 942 04f1 08       		.byte	0x8
 943 04f2 1701     		.2byte	0x117
 944 04f4 5C040000 		.4byte	0x45c
 945 04f8 1C       		.byte	0x1c
 946 04f9 07       		.uleb128 0x7
 947 04fa 6C7200   		.ascii	"lr\000"
 948 04fd 08       		.byte	0x8
 949 04fe 1801     		.2byte	0x118
 950 0500 5C040000 		.4byte	0x45c
 951 0504 20       		.byte	0x20
 952 0505 00       		.byte	0
 953 0506 09       		.uleb128 0x9
 954 0507 04       		.byte	0x4
 955 0508 8B040000 		.4byte	0x48b
 956 050c 11       		.uleb128 0x11
 957 050d 04       		.byte	0x4
 958 050e 09       		.byte	0x9
 959 050f 38       		.byte	0x38
 960 0510 21050000 		.4byte	0x521
 961 0514 06       		.uleb128 0x6
 962 0515 B3040000 		.4byte	.LASF85
 963 0519 09       		.byte	0x9
 964 051a 3C       		.byte	0x3c
 965 051b E4000000 		.4byte	0xe4
 966 051f 00       		.byte	0
 967 0520 00       		.byte	0
 968 0521 04       		.uleb128 0x4
 969 0522 C9020000 		.4byte	.LASF86
 970 0526 09       		.byte	0x9
 971 0527 3D       		.byte	0x3d
 972 0528 0C050000 		.4byte	0x50c
 973 052c 12       		.uleb128 0x12
 974 052d 04       		.byte	0x4
 975 052e 06       		.byte	0x6
 976 052f FA       		.byte	0xfa
 977 0530 95050000 		.4byte	0x595
 978 0534 13       		.uleb128 0x13
 979 0535 13000000 		.4byte	.LASF87
 980 0539 06       		.byte	0x6
ARM GAS  /tmp/ccXLDN7f.s 			page 30


 981 053a 0101     		.2byte	0x101
 982 053c 1B010000 		.4byte	0x11b
 983 0540 13       		.uleb128 0x13
 984 0541 7F000000 		.4byte	.LASF88
 985 0545 06       		.byte	0x6
 986 0546 0801     		.2byte	0x108
 987 0548 1B010000 		.4byte	0x11b
 988 054c 13       		.uleb128 0x13
 989 054d 0C060000 		.4byte	.LASF89
 990 0551 06       		.byte	0x6
 991 0552 0F01     		.2byte	0x10f
 992 0554 1A030000 		.4byte	0x31a
 993 0558 13       		.uleb128 0x13
 994 0559 0D000000 		.4byte	.LASF90
 995 055d 06       		.byte	0x6
 996 055e 1601     		.2byte	0x116
 997 0560 95050000 		.4byte	0x595
 998 0564 13       		.uleb128 0x13
 999 0565 93000000 		.4byte	.LASF91
 1000 0569 06       		.byte	0x6
 1001 056a 1B01     		.2byte	0x11b
 1002 056c 1B010000 		.4byte	0x11b
 1003 0570 13       		.uleb128 0x13
 1004 0571 C2010000 		.4byte	.LASF92
 1005 0575 06       		.byte	0x6
 1006 0576 2401     		.2byte	0x124
 1007 0578 C0050000 		.4byte	0x5c0
 1008 057c 13       		.uleb128 0x13
 1009 057d 5E040000 		.4byte	.LASF93
 1010 0581 06       		.byte	0x6
 1011 0582 2D01     		.2byte	0x12d
 1012 0584 F7050000 		.4byte	0x5f7
 1013 0588 13       		.uleb128 0x13
 1014 0589 81030000 		.4byte	.LASF94
 1015 058d 06       		.byte	0x6
 1016 058e 3501     		.2byte	0x135
 1017 0590 26010000 		.4byte	0x126
 1018 0594 00       		.byte	0
 1019 0595 09       		.uleb128 0x9
 1020 0596 04       		.byte	0x4
 1021 0597 32020000 		.4byte	0x232
 1022 059b 05       		.uleb128 0x5
 1023 059c CE030000 		.4byte	.LASF95
 1024 05a0 0C       		.byte	0xc
 1025 05a1 0A       		.byte	0xa
 1026 05a2 34       		.byte	0x34
 1027 05a3 C0050000 		.4byte	0x5c0
 1028 05a7 06       		.uleb128 0x6
 1029 05a8 34010000 		.4byte	.LASF96
 1030 05ac 0A       		.byte	0xa
 1031 05ad 35       		.byte	0x35
 1032 05ae 67020000 		.4byte	0x267
 1033 05b2 00       		.byte	0
 1034 05b3 06       		.uleb128 0x6
 1035 05b4 D9010000 		.4byte	.LASF97
 1036 05b8 0A       		.byte	0xa
 1037 05b9 37       		.byte	0x37
ARM GAS  /tmp/ccXLDN7f.s 			page 31


 1038 05ba 31010000 		.4byte	0x131
 1039 05be 08       		.byte	0x8
 1040 05bf 00       		.byte	0
 1041 05c0 09       		.uleb128 0x9
 1042 05c1 04       		.byte	0x4
 1043 05c2 9B050000 		.4byte	0x59b
 1044 05c6 05       		.uleb128 0x5
 1045 05c7 0E050000 		.4byte	.LASF98
 1046 05cb 10       		.byte	0x10
 1047 05cc 0B       		.byte	0xb
 1048 05cd 39       		.byte	0x39
 1049 05ce F7050000 		.4byte	0x5f7
 1050 05d2 06       		.uleb128 0x6
 1051 05d3 FD000000 		.4byte	.LASF99
 1052 05d7 0B       		.byte	0xb
 1053 05d8 3A       		.byte	0x3a
 1054 05d9 67020000 		.4byte	0x267
 1055 05dd 00       		.byte	0
 1056 05de 06       		.uleb128 0x6
 1057 05df 32060000 		.4byte	.LASF100
 1058 05e3 0B       		.byte	0xb
 1059 05e4 3C       		.byte	0x3c
 1060 05e5 3D020000 		.4byte	0x23d
 1061 05e9 08       		.byte	0x8
 1062 05ea 06       		.uleb128 0x6
 1063 05eb 79040000 		.4byte	.LASF101
 1064 05ef 0B       		.byte	0xb
 1065 05f0 3E       		.byte	0x3e
 1066 05f1 35060000 		.4byte	0x635
 1067 05f5 0C       		.byte	0xc
 1068 05f6 00       		.byte	0
 1069 05f7 09       		.uleb128 0x9
 1070 05f8 04       		.byte	0x4
 1071 05f9 C6050000 		.4byte	0x5c6
 1072 05fd 09       		.uleb128 0x9
 1073 05fe 04       		.byte	0x4
 1074 05ff 03060000 		.4byte	0x603
 1075 0603 14       		.uleb128 0x14
 1076 0604 08060000 		.4byte	0x608
 1077 0608 03       		.uleb128 0x3
 1078 0609 01       		.byte	0x1
 1079 060a 08       		.byte	0x8
 1080 060b 49040000 		.4byte	.LASF102
 1081 060f 09       		.uleb128 0x9
 1082 0610 04       		.byte	0x4
 1083 0611 1C030000 		.4byte	0x31c
 1084 0615 0F       		.uleb128 0xf
 1085 0616 FD050000 		.4byte	0x5fd
 1086 061a 15       		.uleb128 0x15
 1087 061b 67040000 		.4byte	0x467
 1088 061f 2A060000 		.4byte	0x62a
 1089 0623 16       		.uleb128 0x16
 1090 0624 50040000 		.4byte	0x450
 1091 0628 1A       		.byte	0x1a
 1092 0629 00       		.byte	0
 1093 062a 04       		.uleb128 0x4
 1094 062b 7D010000 		.4byte	.LASF103
ARM GAS  /tmp/ccXLDN7f.s 			page 32


 1095 062f 0B       		.byte	0xb
 1096 0630 34       		.byte	0x34
 1097 0631 C6050000 		.4byte	0x5c6
 1098 0635 09       		.uleb128 0x9
 1099 0636 04       		.byte	0x4
 1100 0637 2A060000 		.4byte	0x62a
 1101 063b 03       		.uleb128 0x3
 1102 063c 01       		.byte	0x1
 1103 063d 02       		.byte	0x2
 1104 063e 42030000 		.4byte	.LASF104
 1105 0642 11       		.uleb128 0x11
 1106 0643 04       		.byte	0x4
 1107 0644 0C       		.byte	0xc
 1108 0645 E7       		.byte	0xe7
 1109 0646 63060000 		.4byte	0x663
 1110 064a 10       		.uleb128 0x10
 1111 064b 73657400 		.ascii	"set\000"
 1112 064f 0C       		.byte	0xc
 1113 0650 E8       		.byte	0xe8
 1114 0651 AD000000 		.4byte	0xad
 1115 0655 00       		.byte	0
 1116 0656 06       		.uleb128 0x6
 1117 0657 A9020000 		.4byte	.LASF105
 1118 065b 0C       		.byte	0xc
 1119 065c E9       		.byte	0xe9
 1120 065d AD000000 		.4byte	0xad
 1121 0661 02       		.byte	0x2
 1122 0662 00       		.byte	0
 1123 0663 12       		.uleb128 0x12
 1124 0664 04       		.byte	0x4
 1125 0665 0C       		.byte	0xc
 1126 0666 E5       		.byte	0xe5
 1127 0667 7E060000 		.4byte	0x67e
 1128 066b 17       		.uleb128 0x17
 1129 066c 5700     		.ascii	"W\000"
 1130 066e 0C       		.byte	0xc
 1131 066f E6       		.byte	0xe6
 1132 0670 C3000000 		.4byte	0xc3
 1133 0674 17       		.uleb128 0x17
 1134 0675 4800     		.ascii	"H\000"
 1135 0677 0C       		.byte	0xc
 1136 0678 EA       		.byte	0xea
 1137 0679 42060000 		.4byte	0x642
 1138 067d 00       		.byte	0
 1139 067e 11       		.uleb128 0x11
 1140 067f 2C       		.byte	0x2c
 1141 0680 0C       		.byte	0xc
 1142 0681 DD       		.byte	0xdd
 1143 0682 0B070000 		.4byte	0x70b
 1144 0686 06       		.uleb128 0x6
 1145 0687 5C000000 		.4byte	.LASF106
 1146 068b 0C       		.byte	0xc
 1147 068c DF       		.byte	0xdf
 1148 068d 57040000 		.4byte	0x457
 1149 0691 00       		.byte	0
 1150 0692 06       		.uleb128 0x6
 1151 0693 2D000000 		.4byte	.LASF107
ARM GAS  /tmp/ccXLDN7f.s 			page 33


 1152 0697 0C       		.byte	0xc
 1153 0698 E0       		.byte	0xe0
 1154 0699 57040000 		.4byte	0x457
 1155 069d 04       		.byte	0x4
 1156 069e 06       		.uleb128 0x6
 1157 069f 4A010000 		.4byte	.LASF108
 1158 06a3 0C       		.byte	0xc
 1159 06a4 E1       		.byte	0xe1
 1160 06a5 57040000 		.4byte	0x457
 1161 06a9 08       		.byte	0x8
 1162 06aa 06       		.uleb128 0x6
 1163 06ab 79000000 		.4byte	.LASF109
 1164 06af 0C       		.byte	0xc
 1165 06b0 E2       		.byte	0xe2
 1166 06b1 57040000 		.4byte	0x457
 1167 06b5 0C       		.byte	0xc
 1168 06b6 10       		.uleb128 0x10
 1169 06b7 49445200 		.ascii	"IDR\000"
 1170 06bb 0C       		.byte	0xc
 1171 06bc E3       		.byte	0xe3
 1172 06bd 57040000 		.4byte	0x457
 1173 06c1 10       		.byte	0x10
 1174 06c2 10       		.uleb128 0x10
 1175 06c3 4F445200 		.ascii	"ODR\000"
 1176 06c7 0C       		.byte	0xc
 1177 06c8 E4       		.byte	0xe4
 1178 06c9 57040000 		.4byte	0x457
 1179 06cd 14       		.byte	0x14
 1180 06ce 06       		.uleb128 0x6
 1181 06cf F0000000 		.4byte	.LASF110
 1182 06d3 0C       		.byte	0xc
 1183 06d4 EB       		.byte	0xeb
 1184 06d5 0B070000 		.4byte	0x70b
 1185 06d9 18       		.byte	0x18
 1186 06da 06       		.uleb128 0x6
 1187 06db D4010000 		.4byte	.LASF111
 1188 06df 0C       		.byte	0xc
 1189 06e0 EC       		.byte	0xec
 1190 06e1 57040000 		.4byte	0x457
 1191 06e5 1C       		.byte	0x1c
 1192 06e6 06       		.uleb128 0x6
 1193 06e7 06030000 		.4byte	.LASF112
 1194 06eb 0C       		.byte	0xc
 1195 06ec ED       		.byte	0xed
 1196 06ed 57040000 		.4byte	0x457
 1197 06f1 20       		.byte	0x20
 1198 06f2 06       		.uleb128 0x6
 1199 06f3 F3020000 		.4byte	.LASF113
 1200 06f7 0C       		.byte	0xc
 1201 06f8 EE       		.byte	0xee
 1202 06f9 57040000 		.4byte	0x457
 1203 06fd 24       		.byte	0x24
 1204 06fe 10       		.uleb128 0x10
 1205 06ff 42525200 		.ascii	"BRR\000"
 1206 0703 0C       		.byte	0xc
 1207 0704 EF       		.byte	0xef
 1208 0705 57040000 		.4byte	0x457
ARM GAS  /tmp/ccXLDN7f.s 			page 34


 1209 0709 28       		.byte	0x28
 1210 070a 00       		.byte	0
 1211 070b 0F       		.uleb128 0xf
 1212 070c 63060000 		.4byte	0x663
 1213 0710 04       		.uleb128 0x4
 1214 0711 70010000 		.4byte	.LASF114
 1215 0715 0C       		.byte	0xc
 1216 0716 F0       		.byte	0xf0
 1217 0717 7E060000 		.4byte	0x67e
 1218 071b 18       		.uleb128 0x18
 1219 071c 4F000000 		.4byte	.LASF115
 1220 0720 0C       		.byte	0xc
 1221 0721 3F01     		.2byte	0x13f
 1222 0723 C3000000 		.4byte	0xc3
 1223 0727 18       		.uleb128 0x18
 1224 0728 29060000 		.4byte	.LASF116
 1225 072c 0C       		.byte	0xc
 1226 072d 4401     		.2byte	0x144
 1227 072f C3000000 		.4byte	0xc3
 1228 0733 18       		.uleb128 0x18
 1229 0734 BA040000 		.4byte	.LASF117
 1230 0738 0C       		.byte	0xc
 1231 0739 5101     		.2byte	0x151
 1232 073b 3F070000 		.4byte	0x73f
 1233 073f 09       		.uleb128 0x9
 1234 0740 04       		.byte	0x4
 1235 0741 10070000 		.4byte	0x710
 1236 0745 11       		.uleb128 0x11
 1237 0746 0C       		.byte	0xc
 1238 0747 0D       		.byte	0xd
 1239 0748 7A       		.byte	0x7a
 1240 0749 72070000 		.4byte	0x772
 1241 074d 06       		.uleb128 0x6
 1242 074e EC020000 		.4byte	.LASF118
 1243 0752 0D       		.byte	0xd
 1244 0753 7E       		.byte	0x7e
 1245 0754 33070000 		.4byte	0x733
 1246 0758 00       		.byte	0
 1247 0759 06       		.uleb128 0x6
 1248 075a 5A010000 		.4byte	.LASF119
 1249 075e 0D       		.byte	0xd
 1250 075f 84       		.byte	0x84
 1251 0760 1B070000 		.4byte	0x71b
 1252 0764 04       		.byte	0x4
 1253 0765 06       		.uleb128 0x6
 1254 0766 B3040000 		.4byte	.LASF85
 1255 076a 0D       		.byte	0xd
 1256 076b 88       		.byte	0x88
 1257 076c D9000000 		.4byte	0xd9
 1258 0770 08       		.byte	0x8
 1259 0771 00       		.byte	0
 1260 0772 04       		.uleb128 0x4
 1261 0773 85010000 		.4byte	.LASF120
 1262 0777 0D       		.byte	0xd
 1263 0778 89       		.byte	0x89
 1264 0779 45070000 		.4byte	0x745
 1265 077d 19       		.uleb128 0x19
ARM GAS  /tmp/ccXLDN7f.s 			page 35


 1266 077e 53040000 		.4byte	.LASF132
 1267 0782 01       		.byte	0x1
 1268 0783 41       		.byte	0x41
 1269 0784 1B070000 		.4byte	0x71b
 1270 0788 00000000 		.4byte	.LFB272
 1271 078c 10000000 		.4byte	.LFE272-.LFB272
 1272 0790 01       		.uleb128 0x1
 1273 0791 9C       		.byte	0x9c
 1274 0792 AF070000 		.4byte	0x7af
 1275 0796 1A       		.uleb128 0x1a
 1276 0797 62757300 		.ascii	"bus\000"
 1277 079b 01       		.byte	0x1
 1278 079c 41       		.byte	0x41
 1279 079d AF070000 		.4byte	0x7af
 1280 07a1 00000000 		.4byte	.LLST0
 1281 07a5 1B       		.uleb128 0x1b
 1282 07a6 50020000 		.4byte	.LASF122
 1283 07aa C5070000 		.4byte	0x7c5
 1284 07ae 00       		.byte	0
 1285 07af 09       		.uleb128 0x9
 1286 07b0 04       		.byte	0x4
 1287 07b1 72070000 		.4byte	0x772
 1288 07b5 15       		.uleb128 0x15
 1289 07b6 08060000 		.4byte	0x608
 1290 07ba C5070000 		.4byte	0x7c5
 1291 07be 16       		.uleb128 0x16
 1292 07bf 50040000 		.4byte	0x450
 1293 07c3 0A       		.byte	0xa
 1294 07c4 00       		.byte	0
 1295 07c5 14       		.uleb128 0x14
 1296 07c6 B5070000 		.4byte	0x7b5
 1297 07ca 1C       		.uleb128 0x1c
 1298 07cb F2040000 		.4byte	.LASF124
 1299 07cf 01       		.byte	0x1
 1300 07d0 5A       		.byte	0x5a
 1301 07d1 00000000 		.4byte	.LFB273
 1302 07d5 1E000000 		.4byte	.LFE273-.LFB273
 1303 07d9 01       		.uleb128 0x1
 1304 07da 9C       		.byte	0x9c
 1305 07db 05080000 		.4byte	0x805
 1306 07df 1A       		.uleb128 0x1a
 1307 07e0 62757300 		.ascii	"bus\000"
 1308 07e4 01       		.byte	0x1
 1309 07e5 5A       		.byte	0x5a
 1310 07e6 AF070000 		.4byte	0x7af
 1311 07ea 21000000 		.4byte	.LLST1
 1312 07ee 1D       		.uleb128 0x1d
 1313 07ef 0C010000 		.4byte	.LASF121
 1314 07f3 01       		.byte	0x1
 1315 07f4 5A       		.byte	0x5a
 1316 07f5 1B070000 		.4byte	0x71b
 1317 07f9 01       		.uleb128 0x1
 1318 07fa 51       		.byte	0x51
 1319 07fb 1B       		.uleb128 0x1b
 1320 07fc 68020000 		.4byte	.LASF123
 1321 0800 15080000 		.4byte	0x815
 1322 0804 00       		.byte	0
ARM GAS  /tmp/ccXLDN7f.s 			page 36


 1323 0805 15       		.uleb128 0x15
 1324 0806 08060000 		.4byte	0x608
 1325 080a 15080000 		.4byte	0x815
 1326 080e 16       		.uleb128 0x16
 1327 080f 50040000 		.4byte	0x450
 1328 0813 0B       		.byte	0xb
 1329 0814 00       		.byte	0
 1330 0815 14       		.uleb128 0x14
 1331 0816 05080000 		.4byte	0x805
 1332 081a 1C       		.uleb128 0x1c
 1333 081b F8020000 		.4byte	.LASF125
 1334 081f 01       		.byte	0x1
 1335 0820 71       		.byte	0x71
 1336 0821 00000000 		.4byte	.LFB274
 1337 0825 16000000 		.4byte	.LFE274-.LFB274
 1338 0829 01       		.uleb128 0x1
 1339 082a 9C       		.byte	0x9c
 1340 082b 68080000 		.4byte	0x868
 1341 082f 1A       		.uleb128 0x1a
 1342 0830 62757300 		.ascii	"bus\000"
 1343 0834 01       		.byte	0x1
 1344 0835 71       		.byte	0x71
 1345 0836 AF070000 		.4byte	0x7af
 1346 083a 42000000 		.4byte	.LLST2
 1347 083e 1E       		.uleb128 0x1e
 1348 083f 4E040000 		.4byte	.LASF126
 1349 0843 01       		.byte	0x1
 1350 0844 71       		.byte	0x71
 1351 0845 27070000 		.4byte	0x727
 1352 0849 63000000 		.4byte	.LLST3
 1353 084d 1B       		.uleb128 0x1b
 1354 084e 3C010000 		.4byte	.LASF127
 1355 0852 78080000 		.4byte	0x878
 1356 0856 1F       		.uleb128 0x1f
 1357 0857 16000000 		.4byte	.LVL7
 1358 085b 99080000 		.4byte	0x899
 1359 085f 20       		.uleb128 0x20
 1360 0860 01       		.uleb128 0x1
 1361 0861 52       		.byte	0x52
 1362 0862 03       		.uleb128 0x3
 1363 0863 F3       		.byte	0xf3
 1364 0864 01       		.uleb128 0x1
 1365 0865 51       		.byte	0x51
 1366 0866 00       		.byte	0
 1367 0867 00       		.byte	0
 1368 0868 15       		.uleb128 0x15
 1369 0869 08060000 		.4byte	0x608
 1370 086d 78080000 		.4byte	0x878
 1371 0871 16       		.uleb128 0x16
 1372 0872 50040000 		.4byte	0x450
 1373 0876 0D       		.byte	0xd
 1374 0877 00       		.byte	0
 1375 0878 14       		.uleb128 0x14
 1376 0879 68080000 		.4byte	0x868
 1377 087d 21       		.uleb128 0x21
 1378 087e B1000000 		.4byte	.LASF128
 1379 0882 0E       		.byte	0xe
ARM GAS  /tmp/ccXLDN7f.s 			page 37


 1380 0883 FA06     		.2byte	0x6fa
 1381 0885 89080000 		.4byte	0x889
 1382 0889 0F       		.uleb128 0xf
 1383 088a B8000000 		.4byte	0xb8
 1384 088e 22       		.uleb128 0x22
 1385 088f 636800   		.ascii	"ch\000"
 1386 0892 06       		.byte	0x6
 1387 0893 0B02     		.2byte	0x20b
 1388 0895 E9030000 		.4byte	0x3e9
 1389 0899 23       		.uleb128 0x23
 1390 089a CD040000 		.4byte	.LASF133
 1391 089e 0C       		.byte	0xc
 1392 089f 2402     		.2byte	0x224
 1393 08a1 0C       		.uleb128 0xc
 1394 08a2 33070000 		.4byte	0x733
 1395 08a6 0C       		.uleb128 0xc
 1396 08a7 1B070000 		.4byte	0x71b
 1397 08ab 0C       		.uleb128 0xc
 1398 08ac 27070000 		.4byte	0x727
 1399 08b0 00       		.byte	0
 1400 08b1 00       		.byte	0
 1401              		.section	.debug_abbrev,"",%progbits
 1402              	.Ldebug_abbrev0:
 1403 0000 01       		.uleb128 0x1
 1404 0001 11       		.uleb128 0x11
 1405 0002 01       		.byte	0x1
 1406 0003 25       		.uleb128 0x25
 1407 0004 0E       		.uleb128 0xe
 1408 0005 13       		.uleb128 0x13
 1409 0006 0B       		.uleb128 0xb
 1410 0007 03       		.uleb128 0x3
 1411 0008 0E       		.uleb128 0xe
 1412 0009 1B       		.uleb128 0x1b
 1413 000a 0E       		.uleb128 0xe
 1414 000b 55       		.uleb128 0x55
 1415 000c 17       		.uleb128 0x17
 1416 000d 11       		.uleb128 0x11
 1417 000e 01       		.uleb128 0x1
 1418 000f 10       		.uleb128 0x10
 1419 0010 17       		.uleb128 0x17
 1420 0011 00       		.byte	0
 1421 0012 00       		.byte	0
 1422 0013 02       		.uleb128 0x2
 1423 0014 24       		.uleb128 0x24
 1424 0015 00       		.byte	0
 1425 0016 0B       		.uleb128 0xb
 1426 0017 0B       		.uleb128 0xb
 1427 0018 3E       		.uleb128 0x3e
 1428 0019 0B       		.uleb128 0xb
 1429 001a 03       		.uleb128 0x3
 1430 001b 08       		.uleb128 0x8
 1431 001c 00       		.byte	0
 1432 001d 00       		.byte	0
 1433 001e 03       		.uleb128 0x3
 1434 001f 24       		.uleb128 0x24
 1435 0020 00       		.byte	0
 1436 0021 0B       		.uleb128 0xb
ARM GAS  /tmp/ccXLDN7f.s 			page 38


 1437 0022 0B       		.uleb128 0xb
 1438 0023 3E       		.uleb128 0x3e
 1439 0024 0B       		.uleb128 0xb
 1440 0025 03       		.uleb128 0x3
 1441 0026 0E       		.uleb128 0xe
 1442 0027 00       		.byte	0
 1443 0028 00       		.byte	0
 1444 0029 04       		.uleb128 0x4
 1445 002a 16       		.uleb128 0x16
 1446 002b 00       		.byte	0
 1447 002c 03       		.uleb128 0x3
 1448 002d 0E       		.uleb128 0xe
 1449 002e 3A       		.uleb128 0x3a
 1450 002f 0B       		.uleb128 0xb
 1451 0030 3B       		.uleb128 0x3b
 1452 0031 0B       		.uleb128 0xb
 1453 0032 49       		.uleb128 0x49
 1454 0033 13       		.uleb128 0x13
 1455 0034 00       		.byte	0
 1456 0035 00       		.byte	0
 1457 0036 05       		.uleb128 0x5
 1458 0037 13       		.uleb128 0x13
 1459 0038 01       		.byte	0x1
 1460 0039 03       		.uleb128 0x3
 1461 003a 0E       		.uleb128 0xe
 1462 003b 0B       		.uleb128 0xb
 1463 003c 0B       		.uleb128 0xb
 1464 003d 3A       		.uleb128 0x3a
 1465 003e 0B       		.uleb128 0xb
 1466 003f 3B       		.uleb128 0x3b
 1467 0040 0B       		.uleb128 0xb
 1468 0041 01       		.uleb128 0x1
 1469 0042 13       		.uleb128 0x13
 1470 0043 00       		.byte	0
 1471 0044 00       		.byte	0
 1472 0045 06       		.uleb128 0x6
 1473 0046 0D       		.uleb128 0xd
 1474 0047 00       		.byte	0
 1475 0048 03       		.uleb128 0x3
 1476 0049 0E       		.uleb128 0xe
 1477 004a 3A       		.uleb128 0x3a
 1478 004b 0B       		.uleb128 0xb
 1479 004c 3B       		.uleb128 0x3b
 1480 004d 0B       		.uleb128 0xb
 1481 004e 49       		.uleb128 0x49
 1482 004f 13       		.uleb128 0x13
 1483 0050 38       		.uleb128 0x38
 1484 0051 0B       		.uleb128 0xb
 1485 0052 00       		.byte	0
 1486 0053 00       		.byte	0
 1487 0054 07       		.uleb128 0x7
 1488 0055 0D       		.uleb128 0xd
 1489 0056 00       		.byte	0
 1490 0057 03       		.uleb128 0x3
 1491 0058 08       		.uleb128 0x8
 1492 0059 3A       		.uleb128 0x3a
 1493 005a 0B       		.uleb128 0xb
ARM GAS  /tmp/ccXLDN7f.s 			page 39


 1494 005b 3B       		.uleb128 0x3b
 1495 005c 05       		.uleb128 0x5
 1496 005d 49       		.uleb128 0x49
 1497 005e 13       		.uleb128 0x13
 1498 005f 38       		.uleb128 0x38
 1499 0060 0B       		.uleb128 0xb
 1500 0061 00       		.byte	0
 1501 0062 00       		.byte	0
 1502 0063 08       		.uleb128 0x8
 1503 0064 0D       		.uleb128 0xd
 1504 0065 00       		.byte	0
 1505 0066 03       		.uleb128 0x3
 1506 0067 0E       		.uleb128 0xe
 1507 0068 3A       		.uleb128 0x3a
 1508 0069 0B       		.uleb128 0xb
 1509 006a 3B       		.uleb128 0x3b
 1510 006b 05       		.uleb128 0x5
 1511 006c 49       		.uleb128 0x49
 1512 006d 13       		.uleb128 0x13
 1513 006e 38       		.uleb128 0x38
 1514 006f 0B       		.uleb128 0xb
 1515 0070 00       		.byte	0
 1516 0071 00       		.byte	0
 1517 0072 09       		.uleb128 0x9
 1518 0073 0F       		.uleb128 0xf
 1519 0074 00       		.byte	0
 1520 0075 0B       		.uleb128 0xb
 1521 0076 0B       		.uleb128 0xb
 1522 0077 49       		.uleb128 0x49
 1523 0078 13       		.uleb128 0x13
 1524 0079 00       		.byte	0
 1525 007a 00       		.byte	0
 1526 007b 0A       		.uleb128 0xa
 1527 007c 13       		.uleb128 0x13
 1528 007d 01       		.byte	0x1
 1529 007e 03       		.uleb128 0x3
 1530 007f 0E       		.uleb128 0xe
 1531 0080 0B       		.uleb128 0xb
 1532 0081 0B       		.uleb128 0xb
 1533 0082 3A       		.uleb128 0x3a
 1534 0083 0B       		.uleb128 0xb
 1535 0084 3B       		.uleb128 0x3b
 1536 0085 05       		.uleb128 0x5
 1537 0086 01       		.uleb128 0x1
 1538 0087 13       		.uleb128 0x13
 1539 0088 00       		.byte	0
 1540 0089 00       		.byte	0
 1541 008a 0B       		.uleb128 0xb
 1542 008b 15       		.uleb128 0x15
 1543 008c 01       		.byte	0x1
 1544 008d 27       		.uleb128 0x27
 1545 008e 19       		.uleb128 0x19
 1546 008f 01       		.uleb128 0x1
 1547 0090 13       		.uleb128 0x13
 1548 0091 00       		.byte	0
 1549 0092 00       		.byte	0
 1550 0093 0C       		.uleb128 0xc
ARM GAS  /tmp/ccXLDN7f.s 			page 40


 1551 0094 05       		.uleb128 0x5
 1552 0095 00       		.byte	0
 1553 0096 49       		.uleb128 0x49
 1554 0097 13       		.uleb128 0x13
 1555 0098 00       		.byte	0
 1556 0099 00       		.byte	0
 1557 009a 0D       		.uleb128 0xd
 1558 009b 0F       		.uleb128 0xf
 1559 009c 00       		.byte	0
 1560 009d 0B       		.uleb128 0xb
 1561 009e 0B       		.uleb128 0xb
 1562 009f 00       		.byte	0
 1563 00a0 00       		.byte	0
 1564 00a1 0E       		.uleb128 0xe
 1565 00a2 13       		.uleb128 0x13
 1566 00a3 01       		.byte	0x1
 1567 00a4 03       		.uleb128 0x3
 1568 00a5 0E       		.uleb128 0xe
 1569 00a6 0B       		.uleb128 0xb
 1570 00a7 05       		.uleb128 0x5
 1571 00a8 3A       		.uleb128 0x3a
 1572 00a9 0B       		.uleb128 0xb
 1573 00aa 3B       		.uleb128 0x3b
 1574 00ab 05       		.uleb128 0x5
 1575 00ac 01       		.uleb128 0x1
 1576 00ad 13       		.uleb128 0x13
 1577 00ae 00       		.byte	0
 1578 00af 00       		.byte	0
 1579 00b0 0F       		.uleb128 0xf
 1580 00b1 35       		.uleb128 0x35
 1581 00b2 00       		.byte	0
 1582 00b3 49       		.uleb128 0x49
 1583 00b4 13       		.uleb128 0x13
 1584 00b5 00       		.byte	0
 1585 00b6 00       		.byte	0
 1586 00b7 10       		.uleb128 0x10
 1587 00b8 0D       		.uleb128 0xd
 1588 00b9 00       		.byte	0
 1589 00ba 03       		.uleb128 0x3
 1590 00bb 08       		.uleb128 0x8
 1591 00bc 3A       		.uleb128 0x3a
 1592 00bd 0B       		.uleb128 0xb
 1593 00be 3B       		.uleb128 0x3b
 1594 00bf 0B       		.uleb128 0xb
 1595 00c0 49       		.uleb128 0x49
 1596 00c1 13       		.uleb128 0x13
 1597 00c2 38       		.uleb128 0x38
 1598 00c3 0B       		.uleb128 0xb
 1599 00c4 00       		.byte	0
 1600 00c5 00       		.byte	0
 1601 00c6 11       		.uleb128 0x11
 1602 00c7 13       		.uleb128 0x13
 1603 00c8 01       		.byte	0x1
 1604 00c9 0B       		.uleb128 0xb
 1605 00ca 0B       		.uleb128 0xb
 1606 00cb 3A       		.uleb128 0x3a
 1607 00cc 0B       		.uleb128 0xb
ARM GAS  /tmp/ccXLDN7f.s 			page 41


 1608 00cd 3B       		.uleb128 0x3b
 1609 00ce 0B       		.uleb128 0xb
 1610 00cf 01       		.uleb128 0x1
 1611 00d0 13       		.uleb128 0x13
 1612 00d1 00       		.byte	0
 1613 00d2 00       		.byte	0
 1614 00d3 12       		.uleb128 0x12
 1615 00d4 17       		.uleb128 0x17
 1616 00d5 01       		.byte	0x1
 1617 00d6 0B       		.uleb128 0xb
 1618 00d7 0B       		.uleb128 0xb
 1619 00d8 3A       		.uleb128 0x3a
 1620 00d9 0B       		.uleb128 0xb
 1621 00da 3B       		.uleb128 0x3b
 1622 00db 0B       		.uleb128 0xb
 1623 00dc 01       		.uleb128 0x1
 1624 00dd 13       		.uleb128 0x13
 1625 00de 00       		.byte	0
 1626 00df 00       		.byte	0
 1627 00e0 13       		.uleb128 0x13
 1628 00e1 0D       		.uleb128 0xd
 1629 00e2 00       		.byte	0
 1630 00e3 03       		.uleb128 0x3
 1631 00e4 0E       		.uleb128 0xe
 1632 00e5 3A       		.uleb128 0x3a
 1633 00e6 0B       		.uleb128 0xb
 1634 00e7 3B       		.uleb128 0x3b
 1635 00e8 05       		.uleb128 0x5
 1636 00e9 49       		.uleb128 0x49
 1637 00ea 13       		.uleb128 0x13
 1638 00eb 00       		.byte	0
 1639 00ec 00       		.byte	0
 1640 00ed 14       		.uleb128 0x14
 1641 00ee 26       		.uleb128 0x26
 1642 00ef 00       		.byte	0
 1643 00f0 49       		.uleb128 0x49
 1644 00f1 13       		.uleb128 0x13
 1645 00f2 00       		.byte	0
 1646 00f3 00       		.byte	0
 1647 00f4 15       		.uleb128 0x15
 1648 00f5 01       		.uleb128 0x1
 1649 00f6 01       		.byte	0x1
 1650 00f7 49       		.uleb128 0x49
 1651 00f8 13       		.uleb128 0x13
 1652 00f9 01       		.uleb128 0x1
 1653 00fa 13       		.uleb128 0x13
 1654 00fb 00       		.byte	0
 1655 00fc 00       		.byte	0
 1656 00fd 16       		.uleb128 0x16
 1657 00fe 21       		.uleb128 0x21
 1658 00ff 00       		.byte	0
 1659 0100 49       		.uleb128 0x49
 1660 0101 13       		.uleb128 0x13
 1661 0102 2F       		.uleb128 0x2f
 1662 0103 0B       		.uleb128 0xb
 1663 0104 00       		.byte	0
 1664 0105 00       		.byte	0
ARM GAS  /tmp/ccXLDN7f.s 			page 42


 1665 0106 17       		.uleb128 0x17
 1666 0107 0D       		.uleb128 0xd
 1667 0108 00       		.byte	0
 1668 0109 03       		.uleb128 0x3
 1669 010a 08       		.uleb128 0x8
 1670 010b 3A       		.uleb128 0x3a
 1671 010c 0B       		.uleb128 0xb
 1672 010d 3B       		.uleb128 0x3b
 1673 010e 0B       		.uleb128 0xb
 1674 010f 49       		.uleb128 0x49
 1675 0110 13       		.uleb128 0x13
 1676 0111 00       		.byte	0
 1677 0112 00       		.byte	0
 1678 0113 18       		.uleb128 0x18
 1679 0114 16       		.uleb128 0x16
 1680 0115 00       		.byte	0
 1681 0116 03       		.uleb128 0x3
 1682 0117 0E       		.uleb128 0xe
 1683 0118 3A       		.uleb128 0x3a
 1684 0119 0B       		.uleb128 0xb
 1685 011a 3B       		.uleb128 0x3b
 1686 011b 05       		.uleb128 0x5
 1687 011c 49       		.uleb128 0x49
 1688 011d 13       		.uleb128 0x13
 1689 011e 00       		.byte	0
 1690 011f 00       		.byte	0
 1691 0120 19       		.uleb128 0x19
 1692 0121 2E       		.uleb128 0x2e
 1693 0122 01       		.byte	0x1
 1694 0123 3F       		.uleb128 0x3f
 1695 0124 19       		.uleb128 0x19
 1696 0125 03       		.uleb128 0x3
 1697 0126 0E       		.uleb128 0xe
 1698 0127 3A       		.uleb128 0x3a
 1699 0128 0B       		.uleb128 0xb
 1700 0129 3B       		.uleb128 0x3b
 1701 012a 0B       		.uleb128 0xb
 1702 012b 27       		.uleb128 0x27
 1703 012c 19       		.uleb128 0x19
 1704 012d 49       		.uleb128 0x49
 1705 012e 13       		.uleb128 0x13
 1706 012f 11       		.uleb128 0x11
 1707 0130 01       		.uleb128 0x1
 1708 0131 12       		.uleb128 0x12
 1709 0132 06       		.uleb128 0x6
 1710 0133 40       		.uleb128 0x40
 1711 0134 18       		.uleb128 0x18
 1712 0135 9742     		.uleb128 0x2117
 1713 0137 19       		.uleb128 0x19
 1714 0138 01       		.uleb128 0x1
 1715 0139 13       		.uleb128 0x13
 1716 013a 00       		.byte	0
 1717 013b 00       		.byte	0
 1718 013c 1A       		.uleb128 0x1a
 1719 013d 05       		.uleb128 0x5
 1720 013e 00       		.byte	0
 1721 013f 03       		.uleb128 0x3
ARM GAS  /tmp/ccXLDN7f.s 			page 43


 1722 0140 08       		.uleb128 0x8
 1723 0141 3A       		.uleb128 0x3a
 1724 0142 0B       		.uleb128 0xb
 1725 0143 3B       		.uleb128 0x3b
 1726 0144 0B       		.uleb128 0xb
 1727 0145 49       		.uleb128 0x49
 1728 0146 13       		.uleb128 0x13
 1729 0147 02       		.uleb128 0x2
 1730 0148 17       		.uleb128 0x17
 1731 0149 00       		.byte	0
 1732 014a 00       		.byte	0
 1733 014b 1B       		.uleb128 0x1b
 1734 014c 34       		.uleb128 0x34
 1735 014d 00       		.byte	0
 1736 014e 03       		.uleb128 0x3
 1737 014f 0E       		.uleb128 0xe
 1738 0150 49       		.uleb128 0x49
 1739 0151 13       		.uleb128 0x13
 1740 0152 34       		.uleb128 0x34
 1741 0153 19       		.uleb128 0x19
 1742 0154 00       		.byte	0
 1743 0155 00       		.byte	0
 1744 0156 1C       		.uleb128 0x1c
 1745 0157 2E       		.uleb128 0x2e
 1746 0158 01       		.byte	0x1
 1747 0159 3F       		.uleb128 0x3f
 1748 015a 19       		.uleb128 0x19
 1749 015b 03       		.uleb128 0x3
 1750 015c 0E       		.uleb128 0xe
 1751 015d 3A       		.uleb128 0x3a
 1752 015e 0B       		.uleb128 0xb
 1753 015f 3B       		.uleb128 0x3b
 1754 0160 0B       		.uleb128 0xb
 1755 0161 27       		.uleb128 0x27
 1756 0162 19       		.uleb128 0x19
 1757 0163 11       		.uleb128 0x11
 1758 0164 01       		.uleb128 0x1
 1759 0165 12       		.uleb128 0x12
 1760 0166 06       		.uleb128 0x6
 1761 0167 40       		.uleb128 0x40
 1762 0168 18       		.uleb128 0x18
 1763 0169 9742     		.uleb128 0x2117
 1764 016b 19       		.uleb128 0x19
 1765 016c 01       		.uleb128 0x1
 1766 016d 13       		.uleb128 0x13
 1767 016e 00       		.byte	0
 1768 016f 00       		.byte	0
 1769 0170 1D       		.uleb128 0x1d
 1770 0171 05       		.uleb128 0x5
 1771 0172 00       		.byte	0
 1772 0173 03       		.uleb128 0x3
 1773 0174 0E       		.uleb128 0xe
 1774 0175 3A       		.uleb128 0x3a
 1775 0176 0B       		.uleb128 0xb
 1776 0177 3B       		.uleb128 0x3b
 1777 0178 0B       		.uleb128 0xb
 1778 0179 49       		.uleb128 0x49
ARM GAS  /tmp/ccXLDN7f.s 			page 44


 1779 017a 13       		.uleb128 0x13
 1780 017b 02       		.uleb128 0x2
 1781 017c 18       		.uleb128 0x18
 1782 017d 00       		.byte	0
 1783 017e 00       		.byte	0
 1784 017f 1E       		.uleb128 0x1e
 1785 0180 05       		.uleb128 0x5
 1786 0181 00       		.byte	0
 1787 0182 03       		.uleb128 0x3
 1788 0183 0E       		.uleb128 0xe
 1789 0184 3A       		.uleb128 0x3a
 1790 0185 0B       		.uleb128 0xb
 1791 0186 3B       		.uleb128 0x3b
 1792 0187 0B       		.uleb128 0xb
 1793 0188 49       		.uleb128 0x49
 1794 0189 13       		.uleb128 0x13
 1795 018a 02       		.uleb128 0x2
 1796 018b 17       		.uleb128 0x17
 1797 018c 00       		.byte	0
 1798 018d 00       		.byte	0
 1799 018e 1F       		.uleb128 0x1f
 1800 018f 898201   		.uleb128 0x4109
 1801 0192 01       		.byte	0x1
 1802 0193 11       		.uleb128 0x11
 1803 0194 01       		.uleb128 0x1
 1804 0195 9542     		.uleb128 0x2115
 1805 0197 19       		.uleb128 0x19
 1806 0198 31       		.uleb128 0x31
 1807 0199 13       		.uleb128 0x13
 1808 019a 00       		.byte	0
 1809 019b 00       		.byte	0
 1810 019c 20       		.uleb128 0x20
 1811 019d 8A8201   		.uleb128 0x410a
 1812 01a0 00       		.byte	0
 1813 01a1 02       		.uleb128 0x2
 1814 01a2 18       		.uleb128 0x18
 1815 01a3 9142     		.uleb128 0x2111
 1816 01a5 18       		.uleb128 0x18
 1817 01a6 00       		.byte	0
 1818 01a7 00       		.byte	0
 1819 01a8 21       		.uleb128 0x21
 1820 01a9 34       		.uleb128 0x34
 1821 01aa 00       		.byte	0
 1822 01ab 03       		.uleb128 0x3
 1823 01ac 0E       		.uleb128 0xe
 1824 01ad 3A       		.uleb128 0x3a
 1825 01ae 0B       		.uleb128 0xb
 1826 01af 3B       		.uleb128 0x3b
 1827 01b0 05       		.uleb128 0x5
 1828 01b1 49       		.uleb128 0x49
 1829 01b2 13       		.uleb128 0x13
 1830 01b3 3F       		.uleb128 0x3f
 1831 01b4 19       		.uleb128 0x19
 1832 01b5 3C       		.uleb128 0x3c
 1833 01b6 19       		.uleb128 0x19
 1834 01b7 00       		.byte	0
 1835 01b8 00       		.byte	0
ARM GAS  /tmp/ccXLDN7f.s 			page 45


 1836 01b9 22       		.uleb128 0x22
 1837 01ba 34       		.uleb128 0x34
 1838 01bb 00       		.byte	0
 1839 01bc 03       		.uleb128 0x3
 1840 01bd 08       		.uleb128 0x8
 1841 01be 3A       		.uleb128 0x3a
 1842 01bf 0B       		.uleb128 0xb
 1843 01c0 3B       		.uleb128 0x3b
 1844 01c1 05       		.uleb128 0x5
 1845 01c2 49       		.uleb128 0x49
 1846 01c3 13       		.uleb128 0x13
 1847 01c4 3F       		.uleb128 0x3f
 1848 01c5 19       		.uleb128 0x19
 1849 01c6 3C       		.uleb128 0x3c
 1850 01c7 19       		.uleb128 0x19
 1851 01c8 00       		.byte	0
 1852 01c9 00       		.byte	0
 1853 01ca 23       		.uleb128 0x23
 1854 01cb 2E       		.uleb128 0x2e
 1855 01cc 01       		.byte	0x1
 1856 01cd 3F       		.uleb128 0x3f
 1857 01ce 19       		.uleb128 0x19
 1858 01cf 03       		.uleb128 0x3
 1859 01d0 0E       		.uleb128 0xe
 1860 01d1 3A       		.uleb128 0x3a
 1861 01d2 0B       		.uleb128 0xb
 1862 01d3 3B       		.uleb128 0x3b
 1863 01d4 05       		.uleb128 0x5
 1864 01d5 27       		.uleb128 0x27
 1865 01d6 19       		.uleb128 0x19
 1866 01d7 3C       		.uleb128 0x3c
 1867 01d8 19       		.uleb128 0x19
 1868 01d9 00       		.byte	0
 1869 01da 00       		.byte	0
 1870 01db 00       		.byte	0
 1871              		.section	.debug_loc,"",%progbits
 1872              	.Ldebug_loc0:
 1873              	.LLST0:
 1874 0000 00000000 		.4byte	.LVL0
 1875 0004 0C000000 		.4byte	.LVL1
 1876 0008 0100     		.2byte	0x1
 1877 000a 50       		.byte	0x50
 1878 000b 0C000000 		.4byte	.LVL1
 1879 000f 10000000 		.4byte	.LFE272
 1880 0013 0400     		.2byte	0x4
 1881 0015 F3       		.byte	0xf3
 1882 0016 01       		.uleb128 0x1
 1883 0017 50       		.byte	0x50
 1884 0018 9F       		.byte	0x9f
 1885 0019 00000000 		.4byte	0
 1886 001d 00000000 		.4byte	0
 1887              	.LLST1:
 1888 0021 00000000 		.4byte	.LVL2
 1889 0025 02000000 		.4byte	.LVL3
 1890 0029 0100     		.2byte	0x1
 1891 002b 50       		.byte	0x50
 1892 002c 02000000 		.4byte	.LVL3
ARM GAS  /tmp/ccXLDN7f.s 			page 46


 1893 0030 1E000000 		.4byte	.LFE273
 1894 0034 0400     		.2byte	0x4
 1895 0036 F3       		.byte	0xf3
 1896 0037 01       		.uleb128 0x1
 1897 0038 50       		.byte	0x50
 1898 0039 9F       		.byte	0x9f
 1899 003a 00000000 		.4byte	0
 1900 003e 00000000 		.4byte	0
 1901              	.LLST2:
 1902 0042 00000000 		.4byte	.LVL4
 1903 0046 0A000000 		.4byte	.LVL6
 1904 004a 0100     		.2byte	0x1
 1905 004c 50       		.byte	0x50
 1906 004d 0A000000 		.4byte	.LVL6
 1907 0051 16000000 		.4byte	.LFE274
 1908 0055 0400     		.2byte	0x4
 1909 0057 F3       		.byte	0xf3
 1910 0058 01       		.uleb128 0x1
 1911 0059 50       		.byte	0x50
 1912 005a 9F       		.byte	0x9f
 1913 005b 00000000 		.4byte	0
 1914 005f 00000000 		.4byte	0
 1915              	.LLST3:
 1916 0063 00000000 		.4byte	.LVL4
 1917 0067 08000000 		.4byte	.LVL5
 1918 006b 0100     		.2byte	0x1
 1919 006d 51       		.byte	0x51
 1920 006e 08000000 		.4byte	.LVL5
 1921 0072 15000000 		.4byte	.LVL7-1
 1922 0076 0100     		.2byte	0x1
 1923 0078 52       		.byte	0x52
 1924 0079 15000000 		.4byte	.LVL7-1
 1925 007d 16000000 		.4byte	.LFE274
 1926 0081 0400     		.2byte	0x4
 1927 0083 F3       		.byte	0xf3
 1928 0084 01       		.uleb128 0x1
 1929 0085 51       		.byte	0x51
 1930 0086 9F       		.byte	0x9f
 1931 0087 00000000 		.4byte	0
 1932 008b 00000000 		.4byte	0
 1933              		.section	.debug_aranges,"",%progbits
 1934 0000 2C000000 		.4byte	0x2c
 1935 0004 0200     		.2byte	0x2
 1936 0006 00000000 		.4byte	.Ldebug_info0
 1937 000a 04       		.byte	0x4
 1938 000b 00       		.byte	0
 1939 000c 0000     		.2byte	0
 1940 000e 0000     		.2byte	0
 1941 0010 00000000 		.4byte	.LFB272
 1942 0014 10000000 		.4byte	.LFE272-.LFB272
 1943 0018 00000000 		.4byte	.LFB273
 1944 001c 1E000000 		.4byte	.LFE273-.LFB273
 1945 0020 00000000 		.4byte	.LFB274
 1946 0024 16000000 		.4byte	.LFE274-.LFB274
 1947 0028 00000000 		.4byte	0
 1948 002c 00000000 		.4byte	0
 1949              		.section	.debug_ranges,"",%progbits
ARM GAS  /tmp/ccXLDN7f.s 			page 47


 1950              	.Ldebug_ranges0:
 1951 0000 00000000 		.4byte	.LFB272
 1952 0004 10000000 		.4byte	.LFE272
 1953 0008 00000000 		.4byte	.LFB273
 1954 000c 1E000000 		.4byte	.LFE273
 1955 0010 00000000 		.4byte	.LFB274
 1956 0014 16000000 		.4byte	.LFE274
 1957 0018 00000000 		.4byte	0
 1958 001c 00000000 		.4byte	0
 1959              		.section	.debug_line,"",%progbits
 1960              	.Ldebug_line0:
 1961 0000 BD020000 		.section	.debug_str,"MS",%progbits,1
 1961      02007D02 
 1961      00000201 
 1961      FB0E0D00 
 1961      01010101 
 1962              	.LASF52:
 1963 0000 72656164 		.ascii	"ready_list_t\000"
 1963      795F6C69 
 1963      73745F74 
 1963      00
 1964              	.LASF90:
 1965 000d 77747472 		.ascii	"wttrp\000"
 1965      7000
 1966              	.LASF87:
 1967 0013 7264796D 		.ascii	"rdymsg\000"
 1967      736700
 1968              	.LASF18:
 1969 001a 75696E74 		.ascii	"uint64_t\000"
 1969      36345F74 
 1969      00
 1970              	.LASF4:
 1971 0023 5F5F7569 		.ascii	"__uint8_t\000"
 1971      6E74385F 
 1971      7400
 1972              	.LASF107:
 1973 002d 4F545950 		.ascii	"OTYPER\000"
 1973      455200
 1974              	.LASF84:
 1975 0034 706F7274 		.ascii	"port_intctx\000"
 1975      5F696E74 
 1975      63747800 
 1976              	.LASF71:
 1977 0040 73797374 		.ascii	"system_debug_t\000"
 1977      656D5F64 
 1977      65627567 
 1977      5F7400
 1978              	.LASF115:
 1979 004f 696F706F 		.ascii	"ioportmask_t\000"
 1979      72746D61 
 1979      736B5F74 
 1979      00
 1980              	.LASF106:
 1981 005c 4D4F4445 		.ascii	"MODER\000"
 1981      5200
 1982              	.LASF13:
 1983 0062 6C6F6E67 		.ascii	"long long unsigned int\000"
ARM GAS  /tmp/ccXLDN7f.s 			page 48


 1983      206C6F6E 
 1983      6720756E 
 1983      7369676E 
 1983      65642069 
 1984              	.LASF109:
 1985 0079 50555044 		.ascii	"PUPDR\000"
 1985      5200
 1986              	.LASF88:
 1987 007f 65786974 		.ascii	"exitcode\000"
 1987      636F6465 
 1987      00
 1988              	.LASF78:
 1989 0088 6D61696E 		.ascii	"mainthread\000"
 1989      74687265 
 1989      616400
 1990              	.LASF91:
 1991 0093 73656E74 		.ascii	"sentmsg\000"
 1991      6D736700 
 1992              	.LASF68:
 1993 009b 76697274 		.ascii	"virtual_timers_list_t\000"
 1993      75616C5F 
 1993      74696D65 
 1993      72735F6C 
 1993      6973745F 
 1994              	.LASF128:
 1995 00b1 49544D5F 		.ascii	"ITM_RxBuffer\000"
 1995      52784275 
 1995      66666572 
 1995      00
 1996              	.LASF51:
 1997 00be 63685F74 		.ascii	"ch_threads_queue\000"
 1997      68726561 
 1997      64735F71 
 1997      75657565 
 1997      00
 1998              	.LASF32:
 1999 00cf 705F7072 		.ascii	"p_prio\000"
 1999      696F00
 2000              	.LASF11:
 2001 00d6 6C6F6E67 		.ascii	"long long int\000"
 2001      206C6F6E 
 2001      6720696E 
 2001      7400
 2002              	.LASF1:
 2003 00e4 7369676E 		.ascii	"signed char\000"
 2003      65642063 
 2003      68617200 
 2004              	.LASF110:
 2005 00f0 42535252 		.ascii	"BSRR\000"
 2005      00
 2006              	.LASF45:
 2007 00f5 705F6D70 		.ascii	"p_mpool\000"
 2007      6F6F6C00 
 2008              	.LASF99:
 2009 00fd 6D5F7175 		.ascii	"m_queue\000"
 2009      65756500 
 2010              	.LASF77:
ARM GAS  /tmp/ccXLDN7f.s 			page 49


 2011 0105 76746C69 		.ascii	"vtlist\000"
 2011      737400
 2012              	.LASF121:
 2013 010c 62697473 		.ascii	"bits\000"
 2013      00
 2014              	.LASF8:
 2015 0111 6C6F6E67 		.ascii	"long int\000"
 2015      20696E74 
 2015      00
 2016              	.LASF22:
 2017 011a 74737461 		.ascii	"tstate_t\000"
 2017      74655F74 
 2017      00
 2018              	.LASF15:
 2019 0123 75696E74 		.ascii	"uint16_t\000"
 2019      31365F74 
 2019      00
 2020              	.LASF34:
 2021 012c 705F6E65 		.ascii	"p_newer\000"
 2021      77657200 
 2022              	.LASF96:
 2023 0134 735F7175 		.ascii	"s_queue\000"
 2023      65756500 
 2024              	.LASF127:
 2025 013c 5F5F6675 		.ascii	"__func__.6922\000"
 2025      6E635F5F 
 2025      2E363932 
 2025      3200
 2026              	.LASF108:
 2027 014a 4F535045 		.ascii	"OSPEEDR\000"
 2027      45445200 
 2028              	.LASF57:
 2029 0152 725F6E65 		.ascii	"r_newer\000"
 2029      77657200 
 2030              	.LASF119:
 2031 015a 6D61736B 		.ascii	"mask\000"
 2031      00
 2032              	.LASF81:
 2033 015f 72656761 		.ascii	"regarm_t\000"
 2033      726D5F74 
 2033      00
 2034              	.LASF64:
 2035 0168 76745F70 		.ascii	"vt_prev\000"
 2035      72657600 
 2036              	.LASF114:
 2037 0170 73746D33 		.ascii	"stm32_gpio_t\000"
 2037      325F6770 
 2037      696F5F74 
 2037      00
 2038              	.LASF103:
 2039 017d 6D757465 		.ascii	"mutex_t\000"
 2039      785F7400 
 2040              	.LASF120:
 2041 0185 494F4275 		.ascii	"IOBus\000"
 2041      7300
 2042              	.LASF27:
 2043 018b 636E745F 		.ascii	"cnt_t\000"
ARM GAS  /tmp/ccXLDN7f.s 			page 50


 2043      7400
 2044              	.LASF0:
 2045 0191 756E7369 		.ascii	"unsigned int\000"
 2045      676E6564 
 2045      20696E74 
 2045      00
 2046              	.LASF63:
 2047 019e 76745F6E 		.ascii	"vt_next\000"
 2047      65787400 
 2048              	.LASF130:
 2049 01a6 2E2E2F43 		.ascii	"../ChibiOS/os/hal/src/pal.c\000"
 2049      68696269 
 2049      4F532F6F 
 2049      732F6861 
 2049      6C2F7372 
 2050              	.LASF92:
 2051 01c2 77747365 		.ascii	"wtsemp\000"
 2051      6D7000
 2052              	.LASF41:
 2053 01c9 705F6D73 		.ascii	"p_msgqueue\000"
 2053      67717565 
 2053      756500
 2054              	.LASF111:
 2055 01d4 4C434B52 		.ascii	"LCKR\000"
 2055      00
 2056              	.LASF97:
 2057 01d9 735F636E 		.ascii	"s_cnt\000"
 2057      7400
 2058              	.LASF6:
 2059 01df 73686F72 		.ascii	"short unsigned int\000"
 2059      7420756E 
 2059      7369676E 
 2059      65642069 
 2059      6E7400
 2060              	.LASF48:
 2061 01f2 63685F74 		.ascii	"ch_thread\000"
 2061      68726561 
 2061      6400
 2062              	.LASF25:
 2063 01fc 6D73675F 		.ascii	"msg_t\000"
 2063      7400
 2064              	.LASF74:
 2065 0202 63685F73 		.ascii	"ch_system_t\000"
 2065      79737465 
 2065      6D5F7400 
 2066              	.LASF21:
 2067 020e 746D6F64 		.ascii	"tmode_t\000"
 2067      655F7400 
 2068              	.LASF53:
 2069 0216 63685F72 		.ascii	"ch_ready_list\000"
 2069      65616479 
 2069      5F6C6973 
 2069      7400
 2070              	.LASF26:
 2071 0224 6576656E 		.ascii	"eventmask_t\000"
 2071      746D6173 
 2071      6B5F7400 
ARM GAS  /tmp/ccXLDN7f.s 			page 51


 2072              	.LASF7:
 2073 0230 5F5F696E 		.ascii	"__int32_t\000"
 2073      7433325F 
 2073      7400
 2074              	.LASF82:
 2075 023a 73746B61 		.ascii	"stkalign_t\000"
 2075      6C69676E 
 2075      5F7400
 2076              	.LASF12:
 2077 0245 5F5F7569 		.ascii	"__uint64_t\000"
 2077      6E743634 
 2077      5F7400
 2078              	.LASF122:
 2079 0250 5F5F6675 		.ascii	"__func__.6912\000"
 2079      6E635F5F 
 2079      2E363931 
 2079      3200
 2080              	.LASF40:
 2081 025e 705F7761 		.ascii	"p_waiting\000"
 2081      6974696E 
 2081      6700
 2082              	.LASF123:
 2083 0268 5F5F6675 		.ascii	"__func__.6917\000"
 2083      6E635F5F 
 2083      2E363931 
 2083      3700
 2084              	.LASF80:
 2085 0276 73697A65 		.ascii	"sizetype\000"
 2085      74797065 
 2085      00
 2086              	.LASF46:
 2087 027f 74687265 		.ascii	"thread_reference_t\000"
 2087      61645F72 
 2087      65666572 
 2087      656E6365 
 2087      5F7400
 2088              	.LASF69:
 2089 0292 63685F76 		.ascii	"ch_virtual_timers_list\000"
 2089      69727475 
 2089      616C5F74 
 2089      696D6572 
 2089      735F6C69 
 2090              	.LASF105:
 2091 02a9 636C6561 		.ascii	"clear\000"
 2091      7200
 2092              	.LASF70:
 2093 02af 76745F6C 		.ascii	"vt_lasttime\000"
 2093      61737474 
 2093      696D6500 
 2094              	.LASF35:
 2095 02bb 705F6F6C 		.ascii	"p_older\000"
 2095      64657200 
 2096              	.LASF56:
 2097 02c3 725F6374 		.ascii	"r_ctx\000"
 2097      7800
 2098              	.LASF86:
 2099 02c9 746D5F63 		.ascii	"tm_calibration_t\000"
ARM GAS  /tmp/ccXLDN7f.s 			page 52


 2099      616C6962 
 2099      72617469 
 2099      6F6E5F74 
 2099      00
 2100              	.LASF59:
 2101 02da 725F6375 		.ascii	"r_current\000"
 2101      7272656E 
 2101      7400
 2102              	.LASF58:
 2103 02e4 725F6F6C 		.ascii	"r_older\000"
 2103      64657200 
 2104              	.LASF118:
 2105 02ec 706F7274 		.ascii	"portid\000"
 2105      696400
 2106              	.LASF113:
 2107 02f3 41465248 		.ascii	"AFRH\000"
 2107      00
 2108              	.LASF125:
 2109 02f8 70616C53 		.ascii	"palSetBusMode\000"
 2109      65744275 
 2109      734D6F64 
 2109      6500
 2110              	.LASF112:
 2111 0306 4146524C 		.ascii	"AFRL\000"
 2111      00
 2112              	.LASF23:
 2113 030b 74726566 		.ascii	"trefs_t\000"
 2113      735F7400 
 2114              	.LASF61:
 2115 0313 76697274 		.ascii	"virtual_timer_t\000"
 2115      75616C5F 
 2115      74696D65 
 2115      725F7400 
 2116              	.LASF31:
 2117 0323 705F7072 		.ascii	"p_prev\000"
 2117      657600
 2118              	.LASF24:
 2119 032a 74707269 		.ascii	"tprio_t\000"
 2119      6F5F7400 
 2120              	.LASF72:
 2121 0332 63685F73 		.ascii	"ch_system_debug\000"
 2121      79737465 
 2121      6D5F6465 
 2121      62756700 
 2122              	.LASF104:
 2123 0342 5F426F6F 		.ascii	"_Bool\000"
 2123      6C00
 2124              	.LASF16:
 2125 0348 696E7433 		.ascii	"int32_t\000"
 2125      325F7400 
 2126              	.LASF2:
 2127 0350 756E7369 		.ascii	"unsigned char\000"
 2127      676E6564 
 2127      20636861 
 2127      7200
 2128              	.LASF43:
 2129 035e 705F6D74 		.ascii	"p_mtxlist\000"
ARM GAS  /tmp/ccXLDN7f.s 			page 53


 2129      786C6973 
 2129      7400
 2130              	.LASF3:
 2131 0368 73686F72 		.ascii	"short int\000"
 2131      7420696E 
 2131      7400
 2132              	.LASF37:
 2133 0372 705F7374 		.ascii	"p_state\000"
 2133      61746500 
 2134              	.LASF55:
 2135 037a 725F7072 		.ascii	"r_prio\000"
 2135      696F00
 2136              	.LASF94:
 2137 0381 65776D61 		.ascii	"ewmask\000"
 2137      736B00
 2138              	.LASF30:
 2139 0388 705F6E65 		.ascii	"p_next\000"
 2139      787400
 2140              	.LASF19:
 2141 038f 75696E74 		.ascii	"uint_fast8_t\000"
 2141      5F666173 
 2141      74385F74 
 2141      00
 2142              	.LASF38:
 2143 039c 705F666C 		.ascii	"p_flags\000"
 2143      61677300 
 2144              	.LASF79:
 2145 03a4 69646C65 		.ascii	"idle_thread_wa\000"
 2145      5F746872 
 2145      6561645F 
 2145      776100
 2146              	.LASF75:
 2147 03b3 63685F73 		.ascii	"ch_system\000"
 2147      79737465 
 2147      6D00
 2148              	.LASF62:
 2149 03bd 63685F76 		.ascii	"ch_virtual_timer\000"
 2149      69727475 
 2149      616C5F74 
 2149      696D6572 
 2149      00
 2150              	.LASF95:
 2151 03ce 63685F73 		.ascii	"ch_semaphore\000"
 2151      656D6170 
 2151      686F7265 
 2151      00
 2152              	.LASF42:
 2153 03db 705F6570 		.ascii	"p_epending\000"
 2153      656E6469 
 2153      6E6700
 2154              	.LASF17:
 2155 03e6 75696E74 		.ascii	"uint32_t\000"
 2155      33325F74 
 2155      00
 2156              	.LASF131:
 2157 03ef 2F752F6A 		.ascii	"/u/jacoroge/442FinalProject/milestone1\000"
 2157      61636F72 
ARM GAS  /tmp/ccXLDN7f.s 			page 54


 2157      6F67652F 
 2157      34343246 
 2157      696E616C 
 2158              	.LASF54:
 2159 0416 725F7175 		.ascii	"r_queue\000"
 2159      65756500 
 2160              	.LASF65:
 2161 041e 76745F64 		.ascii	"vt_delta\000"
 2161      656C7461 
 2161      00
 2162              	.LASF49:
 2163 0427 63685F74 		.ascii	"ch_threads_list\000"
 2163      68726561 
 2163      64735F6C 
 2163      69737400 
 2164              	.LASF10:
 2165 0437 6C6F6E67 		.ascii	"long unsigned int\000"
 2165      20756E73 
 2165      69676E65 
 2165      6420696E 
 2165      7400
 2166              	.LASF102:
 2167 0449 63686172 		.ascii	"char\000"
 2167      00
 2168              	.LASF126:
 2169 044e 6D6F6465 		.ascii	"mode\000"
 2169      00
 2170              	.LASF132:
 2171 0453 70616C52 		.ascii	"palReadBus\000"
 2171      65616442 
 2171      757300
 2172              	.LASF93:
 2173 045e 77746D74 		.ascii	"wtmtxp\000"
 2173      787000
 2174              	.LASF5:
 2175 0465 5F5F7569 		.ascii	"__uint16_t\000"
 2175      6E743136 
 2175      5F7400
 2176              	.LASF29:
 2177 0470 74687265 		.ascii	"thread_t\000"
 2177      61645F74 
 2177      00
 2178              	.LASF101:
 2179 0479 6D5F6E65 		.ascii	"m_next\000"
 2179      787400
 2180              	.LASF28:
 2181 0480 73797374 		.ascii	"systime_t\000"
 2181      696D655F 
 2181      7400
 2182              	.LASF44:
 2183 048a 705F7265 		.ascii	"p_realprio\000"
 2183      616C7072 
 2183      696F00
 2184              	.LASF60:
 2185 0495 76746675 		.ascii	"vtfunc_t\000"
 2185      6E635F74 
 2185      00
ARM GAS  /tmp/ccXLDN7f.s 			page 55


 2186              	.LASF9:
 2187 049e 5F5F7569 		.ascii	"__uint32_t\000"
 2187      6E743332 
 2187      5F7400
 2188              	.LASF73:
 2189 04a9 70616E69 		.ascii	"panic_msg\000"
 2189      635F6D73 
 2189      6700
 2190              	.LASF85:
 2191 04b3 6F666673 		.ascii	"offset\000"
 2191      657400
 2192              	.LASF117:
 2193 04ba 696F706F 		.ascii	"ioportid_t\000"
 2193      72746964 
 2193      5F7400
 2194              	.LASF83:
 2195 04c5 636F6E74 		.ascii	"context\000"
 2195      65787400 
 2196              	.LASF133:
 2197 04cd 5F70616C 		.ascii	"_pal_lld_setgroupmode\000"
 2197      5F6C6C64 
 2197      5F736574 
 2197      67726F75 
 2197      706D6F64 
 2198              	.LASF20:
 2199 04e3 7274636E 		.ascii	"rtcnt_t\000"
 2199      745F7400 
 2200              	.LASF67:
 2201 04eb 76745F70 		.ascii	"vt_par\000"
 2201      617200
 2202              	.LASF124:
 2203 04f2 70616C57 		.ascii	"palWriteBus\000"
 2203      72697465 
 2203      42757300 
 2204              	.LASF50:
 2205 04fe 74687265 		.ascii	"threads_queue_t\000"
 2205      6164735F 
 2205      71756575 
 2205      655F7400 
 2206              	.LASF98:
 2207 050e 63685F6D 		.ascii	"ch_mutex\000"
 2207      75746578 
 2207      00
 2208              	.LASF39:
 2209 0517 705F7265 		.ascii	"p_refs\000"
 2209      667300
 2210              	.LASF76:
 2211 051e 726C6973 		.ascii	"rlist\000"
 2211      7400
 2212              	.LASF14:
 2213 0524 75696E74 		.ascii	"uint8_t\000"
 2213      385F7400 
 2214              	.LASF129:
 2215 052c 474E5520 		.ascii	"GNU C 4.8.4 20140526 (release) [ARM/embedded-4_8-br"
 2215      4320342E 
 2215      382E3420 
 2215      32303134 
ARM GAS  /tmp/ccXLDN7f.s 			page 56


 2215      30353236 
 2216 055f 616E6368 		.ascii	"anch revision 211358] -mcpu=cortex-m4 -mno-thumb-in"
 2216      20726576 
 2216      6973696F 
 2216      6E203231 
 2216      31333538 
 2217 0592 74657277 		.ascii	"terwork -mthumb -ggdb -O2 -fomit-frame-pointer -fal"
 2217      6F726B20 
 2217      2D6D7468 
 2217      756D6220 
 2217      2D676764 
 2218 05c5 69676E2D 		.ascii	"ign-functions=16 -ffunction-sections -fdata-section"
 2218      66756E63 
 2218      74696F6E 
 2218      733D3136 
 2218      202D6666 
 2219 05f8 73202D66 		.ascii	"s -fno-common -flto\000"
 2219      6E6F2D63 
 2219      6F6D6D6F 
 2219      6E202D66 
 2219      6C746F00 
 2220              	.LASF89:
 2221 060c 77746F62 		.ascii	"wtobjp\000"
 2221      6A7000
 2222              	.LASF36:
 2223 0613 705F6E61 		.ascii	"p_name\000"
 2223      6D6500
 2224              	.LASF47:
 2225 061a 74687265 		.ascii	"threads_list_t\000"
 2225      6164735F 
 2225      6C697374 
 2225      5F7400
 2226              	.LASF116:
 2227 0629 696F6D6F 		.ascii	"iomode_t\000"
 2227      64655F74 
 2227      00
 2228              	.LASF100:
 2229 0632 6D5F6F77 		.ascii	"m_owner\000"
 2229      6E657200 
 2230              	.LASF33:
 2231 063a 705F6374 		.ascii	"p_ctx\000"
 2231      7800
 2232              	.LASF66:
 2233 0640 76745F66 		.ascii	"vt_func\000"
 2233      756E6300 
 2234              		.comm	__gnu_lto_v1,1,1
 2235              		.ident	"GCC: (GNU Tools for ARM Embedded Processors) 4.8.4 20140526 (release) [ARM/embedded-4_8-br
ARM GAS  /tmp/ccXLDN7f.s 			page 57


DEFINED SYMBOLS
                            *ABS*:00000000 pal.c
     /tmp/ccXLDN7f.s:223    .text.palReadBus:00000000 $t
     /tmp/ccXLDN7f.s:229    .text.palReadBus:00000000 palReadBus
     /tmp/ccXLDN7f.s:252    .text.palWriteBus:00000000 $t
     /tmp/ccXLDN7f.s:258    .text.palWriteBus:00000000 palWriteBus
     /tmp/ccXLDN7f.s:289    .text.palSetBusMode:00000000 $t
     /tmp/ccXLDN7f.s:295    .text.palSetBusMode:00000000 palSetBusMode
                            *COM*:00000001 __gnu_lto_v1
                     .debug_frame:00000010 $d

UNDEFINED SYMBOLS
_pal_lld_setgroupmode
