ARM GAS  /tmp/ccXLDN7f.s 			page 1


   1              		.syntax unified
   2              		.cpu cortex-m4
   3              		.fpu softvfp
   4              		.eabi_attribute 20, 1
   5              		.eabi_attribute 21, 1
   6              		.eabi_attribute 23, 3
   7              		.eabi_attribute 24, 1
   8              		.eabi_attribute 25, 1
   9              		.eabi_attribute 26, 1
  10              		.eabi_attribute 30, 2
  11              		.eabi_attribute 34, 1
  12              		.eabi_attribute 18, 4
  13              		.thumb
  14              		.file	"pal.c"
  15              		.text
  16              	.Ltext0:
  17              		.section	.gnu.lto_.jmpfuncs.eb97b30bdae406c0,"",%progbits
  18 0000 789C6362 		.ascii	"x\234cb`b\300\006D\24043\003##3\02333\204\315\300X\006"
  18      6062C006 
  18      44A03433 
  18      03232333 
  18      13333384 
  19 0018 A4010623 		.ascii	"\244\001\006#\000\243"
  19      00A3
  20              		.text
  21              		.section	.gnu.lto_.inline.eb97b30bdae406c0,"",%progbits
  22 0000 789C6362 		.ascii	"x\234cb`b\300\006\276Cif\006\006N\016Ff\006F0\023D:"
  22      6062C006 
  22      BE436966 
  22      06064E0E 
  22      46660646 
  23 0018 8049050E 		.ascii	"\200I\005\016\266\017z\014l\013\344\231\030\030_\260"
  23      B60F7A0C 
  23      6C0BE499 
  23      18185FB0 
  24 0028 B3404810 		.ascii	"\263@H\020\301\001fr\200\010\0010S\000d\014#\003\037"
  24      C1016672 
  24      80080130 
  24      5300640C 
  24      23031F
  25 003b 2F230BC4 		.ascii	"/#\013\304\024FF\210\010\320\020\210\201\334L\027\370"
  25      14464688 
  25      08D01088 
  25      81DC4C17 
  25      F8
  26 004c 318C028A 		.ascii	"1\214\002\212\241\030\302\262@^\002\304R`b`\336!\256"
  26      A118C2B2 
  26      405E02C4 
  26      52606260 
  26      DE21AE
  27 005f C000B4DE 		.ascii	"\300\000\264\336\002d\016\023\003\2670\212\373\240\206"
  27      02640E13 
  27      03B7308A 
  27      FBA086
  28 006e 7202E588 		.ascii	"r\002\345\210s\036\320&\011\220I,\274@}\023\374@\220"
  28      731ED026 
  28      0990492C 
ARM GAS  /tmp/ccXLDN7f.s 			page 2


  28      BC407D13 
  28      FC4090
  29 0081 01003C62 		.ascii	"\001\000<b\037\210"
  29      1F88
  30              		.text
  31              		.section	.gnu.lto_.pureconst.eb97b30bdae406c0,"",%progbits
  32 0000 789C6362 		.ascii	"x\234cb`b`g\200\000f\006)F)&I\000\001\312\000_"
  32      60626067 
  32      80006606 
  32      29462926 
  32      490001CA 
  33              		.text
  34              		.section	.gnu.lto_palReadBus.eb97b30bdae406c0,"",%progbits
  35 0000 789C6D90 		.ascii	"x\234m\220\261J\003A\020\206\377\177\366.w\227\302^"
  35      B14A0341 
  35      1086FF7F 
  35      F62E7797 
  35      C25E
  36 0012 10B13670 		.ascii	"\020\2616p\367\020>\200\205\021\324.\271\"9HP\314\003"
  36      F7103E80 
  36      8511D42E 
  36      B9223948 
  36      50CC03
  37 0025 E4CCA5B2 		.ascii	"\344\314\245\262\012V\242\225\215\205El\005\033\261"
  37      0A56A295 
  37      8D85456C 
  37      051BB1
  38 0034 B08B686B 		.ascii	"\260\213hk%\330\212\257\020g7\336\211\222\205\375gw"
  38      25D88AAF 
  38      106737DE 
  38      899285FD 
  38      6777
  39 0046 76BE7F86 		.ascii	"v\276\177\206\025\010\376\257U\335\247\004\3265\322"
  39      1508FEAF 
  39      55DDA704 
  39      D635D2
  40 0055 80327906 		.ascii	"\2002y\006NB!\355\001\304P8\334\247\253\275\225\207"
  40      4E4221ED 
  40      01C45038 
  40      DCA7ABBD 
  40      9587
  41 0067 F7F97C7A 		.ascii	"\367\371|z\366t\375\311s\251\013\373\204AFx*\364U\244"
  41      F674FDC9 
  41      73A90BFB 
  41      84414678 
  41      2AF455A4 
  42 007b A662027B 		.ascii	"\246b\002{\015\255D*\236\222>\306y>\331\350S\215Rg\326"
  42      0DAD442A 
  42      9E923EC6 
  42      793ED9E8 
  42      538D5267 
  43 0090 54B51D76 		.ascii	"T\265\035v)6\232\031Fow\037/l\361J\235:4\015lf\364/"
  43      29369A19 
  43      466F771F 
  43      2F6CF14A 
  43      9D3A340D 
  44 00a8 71C18CB5 		.ascii	"q\301\214\265\016eOc\340\306h\263\034~\206\307\203\022"
ARM GAS  /tmp/ccXLDN7f.s 			page 3


  44      0E654F63 
  44      E0C668B3 
  44      1C7E86C7 
  44      8312
  45 00ba F01AB8C9 		.ascii	"\360\032\270\311\307Z\024.\230H=,\343\3770\254\230Q"
  45      C75A142E 
  45      98483D2C 
  45      E3FF30AC 
  45      9851
  46 00cc C5F8AE49 		.ascii	"\305\370\256I}y\023\371\005\276LIh\221oS\305\264J\005"
  46      7D7913F9 
  46      05BE4C49 
  46      68916F53 
  46      C5B44A05 
  47 00e0 DA5B1FFE 		.ascii	"\332[\037\376:\207\316\331[\356l*\347\342\276X)\221"
  47      3A87CED9 
  47      5BEE6C2A 
  47      E7E2BE58 
  47      2991
  48 00f2 C85985C0 		.ascii	"\310Y\205\300+\252_\210\026\205M\235^?\311N\264\026"
  48      2BAA5F88 
  48      16854D9D 
  48      5E3FC94E 
  48      B416
  49 0104 C7C95637 		.ascii	"\307\311V7kg\333;\311\341 \351\266z\311\3408M\216Z\275"
  49      6B67DB3B 
  49      C9E120E9 
  49      B67AC9E0 
  49      384D8E5A 
  50 0119 38C537E5 		.ascii	"8\3057\3451S\303"
  50      3153C3
  51              		.text
  52              		.section	.gnu.lto_palWriteBus.eb97b30bdae406c0,"",%progbits
  53 0000 789C6D51 		.ascii	"x\234mQ=K\303P\024\275\367\2754M\322/\335\024D\0047"
  53      3D4BC350 
  53      14BDF7BD 
  53      344DD22F 
  53      DD144404 
  54 0015 0BCD0F70 		.ascii	"\013\315\017ptrr\260\202\272\245\035\332@\213b\177@"
  54      747272B0 
  54      82BAA51D 
  54      DA408B62 
  54      7F40
  55 0027 5BEDE0D8 		.ascii	"[\355\340\330\331N\256\202uq\021\005\305\301M\301M\234"
  55      D94EAE82 
  55      75711105 
  55      C5C14DC1 
  55      4D9C
  56 0039 FA0B7471 		.ascii	"\372\013tq\024\352\271/M\212\245\201\234{\337y\367\236"
  56      14EAB92F 
  56      4D8AA581 
  56      9C7BDF79 
  56      F79E
  57 004b 7B6EA248 		.ascii	"{n\242H\321\354\263\214w\023\364*\"kb\325\177#\352:"
  57      D1ECB38C 
  57      7713F42A 
  57      226B62D5 
ARM GAS  /tmp/ccXLDN7f.s 			page 4


  57      7F23EA3A 
  58 005f 8A591262 		.ascii	"\212Y\022bj+n\037\260\251\275QO\243\361x\370\363r\373"
  58      6A2B6E1F 
  58      B0A9BD51 
  58      4FA3F178 
  58      F8F372FB 
  59 0073 CB03B5A8 		.ascii	"\313\003\265\250\270\311\244)d\262\220q\012\031\333"
  59      B8C9A429 
  59      64B29071 
  59      0A19DB
  60 0082 02690107 		.ascii	"\002i\001\007\240\\\001\017\2403\302e\005rr\314KV\020"
  60      A05C010F 
  60      A033C265 
  60      057272CC 
  60      4B5610
  61 0095 806E8A7A 		.ascii	"\200n\212z\235N\177\255\311\360Q5\243\312@\231\277\007"
  61      9D4E7FAD 
  61      C9F05135 
  61      A3CA4099 
  61      BF07
  62 00a7 0A51BFD2 		.ascii	"\012Q\277\322\351\347\307\367R\300\227\030Sc]\244\215"
  62      E9E7C7F7 
  62      52C09718 
  62      53635DA4 
  62      8D
  63 00b8 90AD015D 		.ascii	"\220\255\001]p\310\251\032\253}D\333x\254p\274\031z"
  63      70C8A91A 
  63      AB7D44DB 
  63      78AC70BC 
  63      197A
  64 00ca 1E74DC81 		.ascii	"\036t\334\201\"\313P\2071c\033\215\364|\015N4\316\356"
  64      22CB5087 
  64      31631B8D 
  64      F47C0D4E 
  64      34CEEE
  65 00dd 138DB491 		.ascii	"\023\215\264\221\261\377\3138F\306\231/\243\2462\347"
  65      B1FFCB38 
  65      46C6992F 
  65      A3A632E7 
  66 00ed 898C8B26 		.ascii	"\211\214\213&)R\013\221\311\257\344\306\303\245)\276"
  66      29520B91 
  66      C9AFE4C6 
  66      C3A529BE 
  67 00fd 4EA88C19 		.ascii	"N\250\214\031\353\3158\311b\233\330\311\264=\007\341"
  67      EBCD38C9 
  67      629BD8C9 
  67      B43D07E1 
  68 010d 99F6BCA9 		.ascii	"\231\366\274\251\315\031\366.a\013F7/\354\363vD\026"
  68      CD19F62E 
  68      610B4637 
  68      2FECF376 
  68      4416
  69 011f E9AAD383 		.ascii	"\351\252\323\203)7N\274h#\324i1kM6\322\223\030\235!"
  69      29374EBC 
  69      6823D469 
  69      316B4D36 
  69      D293189D 
ARM GAS  /tmp/ccXLDN7f.s 			page 5


  70 0134 45F44EDD 		.ascii	"E\364N\335\321\343z$\023?e|A\3747\331\177\245T\362\267"
  70      D1E37A24 
  70      133F657C 
  70      41FC37D9 
  70      7FA554F2 
  71 0149 EA6125DC 		.ascii	"\352a%\334\331\365\217Z~=h\370\255\223\252\177\0344"
  71      D9F58F5A 
  71      7E3D68F8 
  71      AD93AA7F 
  71      1C34
  72 015b 4A55FA03 		.ascii	"JU\372\003\\\024t:"
  72      5C14743A 
  73              		.text
  74              		.section	.gnu.lto_palSetBusMode.eb97b30bdae406c0,"",%progbits
  75 0000 789C6D90 		.ascii	"x\234m\220\277J\003A\020\306\277o\367\376\231\312RA"
  75      BF4A0341 
  75      10C6BF6F 
  75      F7FE99CA 
  75      5241
  76 0012 44B053B8 		.ascii	"D\260S\270}\010\037\300\302\010jw9\360\262\220\240\230"
  76      7D081FC0 
  76      C2086A77 
  76      39F0B290 
  76      A098
  77 0024 D22217B5 		.ascii	"\322\"\027\265\260L\255 \370\000\232\326\322\316J\203"
  77      B04CAD20 
  77      F8009AD6 
  77      D2CE4A83 
  78 0034 96567900 		.ascii	"\226Vy\000\311\003h\021g7\236\202\334\300\316\354~;"
  78      C9036811 
  78      67379E82 
  78      DCC0CEEC 
  78      7E3B
  79 0046 BF99D955 		.ascii	"\277\231\331UP\370o\313\262\016\011\254J\244\006\325"
  79      50F86FCB 
  79      B20E09AC 
  79      4AA406D5 
  80 0056 F0051824 		.ascii	"\360\005\030$\212t\033\020}\305\376>}\356H=Nf\263\373"
  80      8A741B10 
  80      7DC5FE3E 
  80      7DEE483D 
  80      4E66B3FB 
  81 006a B7A7D107 		.ascii	"\267\247\321\007oTC\261KhX\"\020\307P\234\212\304\351"
  81      6F5443B1 
  81      4B685822 
  81      10C7509C 
  81      8AC4E9
  82 007d D81D13B9 		.ascii	"\330\035\023\271uX\210\213\262\034\256u)\275s_\247)"
  82      7558888B 
  82      B21CAE75 
  82      29BD735F 
  82      A729
  83 008f DE15DF15 		.ascii	"\336\025\337\025I\242~\306\331\373\303\327R\306[\251"
  83      49A27EC6 
  83      D9FBC3D7 
  83      52C65BA9 
  84 009f 51506F62 		.ascii	"QPob\3032\270\306\025-\303\202jOb\344\007h\261\032["
ARM GAS  /tmp/ccXLDN7f.s 			page 6


  84      C332B8C6 
  84      152DC382 
  84      6A4F62E4 
  84      0768B11A 
  85 00b4 98830A08 		.ascii	"\230\203\012\010<\020\327\003\254\001B\017$\365\200"
  85      3C10D703 
  85      AC01420F 
  85      24F580
  86 00c3 FA03A6BA 		.ascii	"\372\003\246\272\"\"\201\234t~\367+\305\322\270p\324"
  86      2222819C 
  86      747EF72B 
  86      C5D2B870 
  86      D4
  87 00d4 18D15C03 		.ascii	"\030\321\\\003N\361Y^\226\213\226\013\371Ocy\216OM,"
  87      4EF1595E 
  87      968B960B 
  87      F94F6379 
  87      8E4F4D2C 
  88 00e8 1BC02B06 		.ascii	"\033\300+\006\223\351z\225=\267\246d\312/\270\266+i"
  88      93E97A95 
  88      3DB7A664 
  88      CA2FB8B6 
  88      2B69
  89 00fa 6AB6DAB6 		.ascii	"j\266\332\266e\267w\314Q\317\264\263\216\351\235\344"
  89      65B777CC 
  89      51CFB4B3 
  89      8EE99DE4 
  90 010a E638EBA4 		.ascii	"\3468\353\2449\276\001}UNr"
  90      39BE017D 
  90      554E72
  91              		.text
  92              		.section	.gnu.lto_.symbol_nodes.eb97b30bdae406c0,"",%progbits
  93 0000 789C4DC7 		.ascii	"x\234M\307\261\015\2000\024CA\373\375\331\230\313))"
  93      B10D8030 
  93      144341FB 
  93      FDD998CB 
  93      2929
  94 0012 03122D0D 		.ascii	"\003\022-\015\373\260C\026A\024 \301u\207\320\244\027"
  94      FBB04316 
  94      411420C1 
  94      7587D0A4 
  94      17
  95 0023 9D48FD94 		.ascii	"\235H\375\224\222}6\013\361\257+\341\2537RO[sQ:\306"
  95      927D360B 
  95      F1AF2BE1 
  95      AB37524F 
  95      5B73513A 
  96 0038 65DDCE89 		.ascii	"e\335\316\211\024\225"
  96      1495
  97              		.text
  98              		.section	.gnu.lto_.refs.eb97b30bdae406c0,"",%progbits
  99 0000 789C6362 		.ascii	"x\234cb`b`d\200\002\000\000F\000\006"
  99      60626064 
  99      80020000 
  99      460006
 100              		.text
 101              		.section	.gnu.lto_.decls.eb97b30bdae406c0,"",%progbits
ARM GAS  /tmp/ccXLDN7f.s 			page 7


 102 0000 789CBD58 		.ascii	"x\234\275X{l\024E\030\237\331\273+\275r\224\227\220"
 102      7B6C1445 
 102      189FD9BB 
 102      2BBD7294 
 102      9790
 103 0012 9210398C 		.ascii	"\222\0209\214\030Bh\027\016D\370\207(\024)\021ls\205"
 103      18426817 
 103      0E44F887 
 103      28142911 
 103      6C7385
 104 0025 807FADDB 		.ascii	"\200\177\255\333\273-\275\330\366\352\335VCb\342\224"
 104      BB2DBDD8 
 104      F6EADD56 
 104      4362E294 
 105 0035 F20A8952 		.ascii	"\362\012\211R\212\274B\205\003D\300\020@\240 O\017D"
 105      8ABC4285 
 105      0344C010 
 105      40A0204F 
 105      0F44
 106 0047 5A0129C1 		.ascii	"Z\001)\301\210\022c<\020B\010\230\000BD\244\234\337"
 106      8812633C 
 106      10420898 
 106      004244A4 
 106      9CDF
 107 0059 CCEEDEED 		.ascii	"\314\356\336\355no\357A\242\227|s3;3\277\357\367=\346"
 107      6E6FEF41 
 107      A2977C73 
 107      333B33BF 
 107      EFF73DE6 
 108 006d B1CB210E 		.ascii	"\261\313!\016}\200\021\212\303o\301s\010\035\346\020"
 108      7D80118A 
 108      C36FC173 
 108      081DE610 
 109 007d B2238426 		.ascii	"\262#\204&\243\344\217\2667\203<\000\351\006qb\324\343"
 109      A3E48FB6 
 109      37833C00 
 109      E9067162 
 109      D4E3
 110 008f 47FB7B83 		.ascii	"G\373{\203\334\004\351\005\342P\347m\005i\007\331\003"
 110      DC04E905 
 110      E250E76D 
 110      056907D9 
 110      03
 111 00a0 B21BE418 		.ascii	"\262\033\344\030\310A\220;j\377\001\220\323 \267An\201"
 111      C841903B 
 111      6AFF0190 
 111      D320B741 
 111      6E81
 112 00b2 60150B68 		.ascii	"`\025\013h\240{ }M\272(\007W\012=z\035[U|\252\353;U"
 112      A07B207D 
 112      4DBA2807 
 112      570A3D7A 
 112      1D5B557C 
 113 00ca 9F43D575 		.ascii	"\237C\325uK\325\325\011r^\325G1m \177\203<\006\031b"
 113      4BD5D509 
 113      725ED547 
 113      316D207F 
ARM GAS  /tmp/ccXLDN7f.s 			page 8


 113      833C0619 
 114 00df D2D96D61 		.ascii	"\322\331ma[*\235\317\303\334\002\254\340\351\365q:\337"
 114      5B2A9DCF 
 114      C3DC02AC 
 114      E0E9F571 
 114      3ADF
 115 00f1 D13E07FC 		.ascii	"\321>\007\374\347\201\0143\351\032\2066\222H,\266\355"
 115      E7810C33 
 115      E91A8636 
 115      92482CB6 
 115      ED
 116 0102 DA5DBC9E 		.ascii	"\332]\274\236D\027\221x\374C4\030\255&\360\213,!\004"
 116      44179178 
 116      FC433418 
 116      AD26F08B 
 116      2C2104
 117 0115 CB4EB48C 		.ascii	"\313N\264\214\220\205\264Q\326Y\210\320<,\342B'r\263"
 117      9085B451 
 117      D65988D0 
 117      3C2CE242 
 117      2772B3
 118 0128 8ACBC978 		.ascii	"\212\313\311x\215@\237\021\322\022\213?\331>\212\220"
 118      8D409F11 
 118      D2128B3F 
 118      D93E8A90 
 119 0138 7C116FC5 		.ascii	"|\021o\305N\320_\211\321(\264\023pZ`\276'E\010Q\366"
 119      4ED05F89 
 119      D128B413 
 119      705A60BE 
 119      27450851 
 120 014d D09B967E 		.ascii	"\320\233\226~{\022/\004:\"\336\316\300\177\301\030\211"
 120      7B122F04 
 120      3A22DECE 
 120      C07FC118 
 120      89
 121 015e F8733C2A 		.ascii	"\370s<*g\250\365+\216Mb,\277`@\2678#\220\210{9\365\034"
 121      67A8F52B 
 121      8E4D622C 
 121      BF6040B7 
 121      38239088 
 122 0176 595B1B40 		.ascii	"Y[\033@\321X\267Z\241I\334\027\375\307\303S\331Bgn\301"
 122      D158B75A 
 122      A149DC17 
 122      FDC7C353 
 122      D942676E 
 123 018b 8359CDC6 		.ascii	"\203Y\315\306b\015\011\263<\351\201\001h%\215\240[\347"
 123      620D09B3 
 123      3CE98101 
 123      68258DA0 
 123      5BE7
 124 019d 8BB7B5F9 		.ascii	"\213\267\265\371\256\244/\256\374t\336\303|\261\007"
 124      AEA42FAE 
 124      FC74DEC3 
 124      7CB107
 125 01ac 0F0094D5 		.ascii	"\017\000\224\3256\243/2\241P\026\373`\2462\207a\222"
 125      36A32F32 
 125      A15016FB 
ARM GAS  /tmp/ccXLDN7f.s 			page 9


 125      60A63287 
 125      6192
 126 01be E8C30E17 		.ascii	"\350\303\016\027\261+\317\221\001\315\360\033\216\""
 126      B12BCF91 
 126      01CDF01B 
 126      8E22
 127 01cc C036DADD 		.ascii	"\3006\332\335\3216\204DN\341L\344c\234\246w\264.\337"
 127      D1368444 
 127      4EE14CE4 
 127      639CA677 
 127      B42EDF
 128 01df 229B6C8C 		.ascii	"\"\233l\214\375A\306~Cf\366F\030J\357\260\231\376?\027"
 128      FD41C67E 
 128      4366F646 
 128      184AEFB0 
 128      99FE3F17 
 129 01f3 18FDC399 		.ascii	"\030\375\303\231\351/j\216\306/(\364Y\3665\247\315>"
 129      E92F6A8E 
 129      C62F28F4 
 129      59F635A7 
 129      CD3E
 130 0205 11EFC023 		.ascii	"\021\357\300#\262\2127\207v0K(\205THjU\371\251\003\214"
 130      B28A3787 
 130      76304B28 
 130      8554486A 
 130      55F9A903 
 131 021a B45ABA5C 		.ascii	"\264Z\272\\-\242\210\217\261\004\337\2353\230\333\000"
 131      2DA2888F 
 131      B104DF9D 
 131      3398DB00 
 132 022a D6AA076B 		.ascii	"\326\252\007k\317\006,\337\232\331'z\260\3439\203\031"
 132      CF062CDF 
 132      9AD9277A 
 132      B0E33983 
 132      19
 133 023b 99ADD183 		.ascii	"\231\255\321\203}\223\015X?kf\353\364`\0359\203\351"
 133      7D930D58 
 133      3F6B66EB 
 133      F4601D39 
 133      83E9
 134 024d 9935450F 		.ascii	"\2315E\017u\235\305\244\3255\020\265\022\322D\"yVI\201"
 134      759DC5A4 
 134      D53510B5 
 134      12D24422 
 134      79564981 
 135 0261 101B42D2 		.ascii	"\020\033B\322\016\021\361Y<\320\230\244\033V\024\322"
 135      0E11F159 
 135      3CD098A4 
 135      1B5614D2 
 136 0271 24A5CF33 		.ascii	"$\245\3173\257\261O\273\224$\325\266\316s\3148:\367"
 136      AFB14FBB 
 136      9424D5B6 
 136      CE73CC38 
 136      3AF7
 137 0283 19B20B94 		.ascii	"\031\262\013\224\267w\365&\313]\352\352\212\274\272"
 137      B777F526 
 137      CB5DEAEA 
ARM GAS  /tmp/ccXLDN7f.s 			page 10


 137      8ABCBA
 138 0292 230DF12E 		.ascii	"#\015\361.\363\352\332\324\305\271\225\307\231y\177"
 138      F3EADAD4 
 138      C5B995C7 
 138      99797F
 139 02a1 D9D55644 		.ascii	"\331\325VD\"'\261\272\265\223%d\244NW?M\027\335\374"
 139      2227B1BA 
 139      B5932564 
 139      A44E573F 
 139      4D17DDFC 
 140 02b5 12A7C4A1 		.ascii	"\022\247\304\241\321lC\270\304\014\375\336\226\362\214"
 140      D16C43B8 
 140      C40CFDDE 
 140      96F28C
 141 02c4 C80268FD 		.ascii	"\310\002h\375\212\355\312\031\361#\003\272l3\237\021"
 141      8AEDCA19 
 141      F12303BA 
 141      6C339F11 
 142 02d4 36D31961 		.ascii	"6\323\031a3\256j\2333Y\211\307m(\267\301\034\272\312"
 142      33AE6A9B 
 142      335989C7 
 142      6D28B7C1 
 142      1CBACA
 143 02e7 147625F3 		.ascii	"\024v%\363\317@2S\210\026\306\236^\337\310\\\247y\342"
 143      CF403253 
 143      8816C69E 
 143      5EDFC85C 
 143      A779E2
 144 02fa 46CE78FD 		.ascii	"F\316x\375L1\341\320\355gM\033\235\345\212\321\">\217"
 144      4C31E1D0 
 144      ED674D1B 
 144      9DE58AD1 
 144      223E8F
 145 030d 87437901 		.ascii	"\207Cy\001J\235\202?\262YtE\026F\303\012\376J\277\202"
 145      4A9D823F 
 145      B2597445 
 145      1646C30A 
 145      FE4ABF82 
 146 0321 EFE70CE6 		.ascii	"\357\347\014\3466\200\035\321\203\375\225\015\230\333"
 146      36801DD1 
 146      83FD950D 
 146      98DB
 147 032f 9AD9313D 		.ascii	"\232\3311=\330\223\234\301\214\314N\350\301\232\354"
 147      D8939CC1 
 147      8CCC4EE8 
 147      C19AEC
 148 033e 59808D4C 		.ascii	"Y\200\215L\027\024C|\222\247\241\210\217\260\343\352"
 148      1714437C 
 148      92A7A188 
 148      8FB0E3EA 
 149 034e 288BD409 		.ascii	"(\213\324\011VFYy\212\225\247Yy\206\225\235\254\374"
 149      56465979 
 149      8A95A759 
 149      7986959D 
 149      ACFC
 150 0360 9595BFB1 		.ascii	"\225\225\277\261\362*+\177\327\307\327\372F\026\375"
 150      F22A2B7F 
ARM GAS  /tmp/ccXLDN7f.s 			page 11


 150      D7C7D7FA 
 150      4616FD
 151 036f 61CD50BA 		.ascii	"a\315P\272\233\265\303-\200C\213\355\306\265f\270\031"
 151      9BB5C32D 
 151      80438BED 
 151      C6B566B8 
 151      19
 152 0380 2847BDD5 		.ascii	"(G\275\325ns\023\000Ro*=\3728\324\302\364\354{\2663"
 152      6E731300 
 152      526F2A3D 
 152      FA38D4C2 
 152      F4EC7BB6 
 153 0395 1696D895 		.ascii	"\026\226\330\225\265gZ\361\252f\3229F\273\357\256\315"
 153      B5675AF1 
 153      AA66D239 
 153      46BBEFAE 
 153      CD
 154 03a6 19D1AD47 		.ascii	"\031\321\255G\214\356=\013\201\315\345J|\375\036nfW"
 154      8CEE3D0B 
 154      81CDE54A 
 154      7CFD1E6E 
 154      6657
 155 03b8 E23B4C7F 		.ascii	"\342;L\177\233\335\274K9L\273\224\303\270\3618\234\311"
 155      9BDDBC4B 
 155      394CBB94 
 155      C3B8F138 
 155      9CC9
 156 03ca 4AE2EEB1 		.ascii	"J\342\356\2613\033+R\235\360\2513j\237.\243\366\263"
 156      331B2B52 
 156      9DF0A933 
 156      6A9F2EA3 
 156      F6B3
 157 03dc 8C3AC072 		.ascii	"\214:\300r\343\026+og\312\020\012\261\033\367N\342\315"
 157      E3162B6F 
 157      67CA100A 
 157      B11BF74E 
 157      E2CD
 158 03ee 496EA61C 		.ascii	"In\246\034\332k\262\370E\264\225\220Vx\227\211\332\341"
 158      DA6BB2F8 
 158      45B49590 
 158      56789789 
 158      DAE1
 159 0400 5DC6AE4C 		.ascii	"]\306\256L\345\320Q6l3\036fq1S\025\274\204\266Q\327"
 159      E5D05136 
 159      6C331E66 
 159      71315315 
 159      BC84B651 
 160 0415 1FBF5E51 		.ascii	"\037\277^Q\246\204\024\245\231\245\322\271\2139\275"
 160      A68414A5 
 160      99A5D2B9 
 160      8B39BD
 161 0424 BDCACB54 		.ascii	"\275\312\313T\364\341\222sp\374\223't77\274K\211x\362"
 161      F4E19273 
 161      70FC9327 
 161      743737BC 
 161      4B8978F2 
 162 0438 204B3B1F 		.ascii	" K;\037\032\357\363\012\257DC!d\366\300\327)=@\376\364"
ARM GAS  /tmp/ccXLDN7f.s 			page 12


 162      1AEFF30A 
 162      AF444321 
 162      64F6C0D7 
 162      293D40FE 
 163 044d 9729D345 		.ascii	"\227)\323E|\037\030\212\370Az\343\325i\207\2442-\231"
 163      7C1F188A 
 163      F8417AE3 
 163      D56987A4 
 163      322D99
 164 0460 CF3160EB 		.ascii	"\3171`\353i*\035\3463B>\"\213\373af\034Rg\031\222\340"
 164      692A1DE6 
 164      33423E22 
 164      8BFB6166 
 164      1C526719 
 165 0476 514A2F5D 		.ascii	"QJ/]\352p\2654\305\342\361a\331\273\350i\032\027\345"
 165      EA70B534 
 165      C5E2F161 
 165      D9BBE869 
 165      1A17E5
 166 0489 F09EBA77 		.ascii	"\360\236\272w\227\362\236\332\304QS/\366X7\333\361\263"
 166      97F29EDA 
 166      C451532F 
 166      F65837DB 
 166      F1B3
 167 049b BC029A42 		.ascii	"\274\002\232Bs\305\"9\037\377lK&\247\026\237\356\254"
 167      73C52239 
 167      1FFF6C4B 
 167      26A7169F 
 167      EEAC
 168 04ad E2B39FC6 		.ascii	"\342\263\237\306G!}\223\241[O\243\243\254\342\323m\216"
 168      47217D93 
 168      A15B4FA3 
 168      A3ACE2D3 
 168      6D8E
 169 04bf CF22AE47 		.ascii	"\317\"\256G|b\324Mg\232\360\312\346H'\271KM\314>J\313"
 169      7C62D44D 
 169      679AF0CA 
 169      E64827B9 
 169      4B4DCC3E 
 170 04d5 395394DA 		.ascii	"9S\224\332S$r\242\25525y\357\216\311{\032\325\217\215"
 170      532472A2 
 170      AD323579 
 170      EF8EC97B 
 170      1AD58F8D 
 171 04e9 545F409B 		.ascii	"T_@\233\311\305\213\261\033\327\326\341e1\322B\236\306"
 171      C9C58BB1 
 171      1BD7D6E1 
 171      6531D242 
 171      9EC6
 172 04fb E3B83F6A 		.ascii	"\343\270?ja\357}\353\012\325\224\210m\213\026\255K\246"
 172      61EF7DEB 
 172      0AD59488 
 172      6D8B16AD 
 172      4BA6
 173 050d 44BEC617 		.ascii	"D\276\306\027k)A\277Pp\211\301\244\250(\365X\021\267"
 173      6B2941BF 
 173      507089C1 
ARM GAS  /tmp/ccXLDN7f.s 			page 13


 173      A4A828F5 
 173      5811B7
 174 0520 7274075B 		.ascii	"rt\007[\2450f]J]\253\3051\345\276\320\221\352c\007\003"
 174      A530665D 
 174      4A5DABC5 
 174      31E5BED0 
 174      91EA6307 
 175 0535 483F5555 		.ascii	"H?UU:OS\252\354{I{\224\221\251G\211x5\327\237\325\230"
 175      3A4F53AA 
 175      EC7B497B 
 175      9491A947 
 175      897835D7 
 176 054c 21247162 		.ascii	"!$qb\272\234\226\201Z\243c\343r&+\005\006\316\332(\260"
 176      BA9C9681 
 176      5AA363E3 
 176      72262B05 
 176      06CEDA28 
 177 0561 6CA9C3B4 		.ascii	"l\251\303\264\223\232H\300\261\252\332.b\372QJ\011O"
 177      939A48C0 
 177      B1AADA2E 
 177      62FA514A 
 177      094F
 178 0573 F4D11992 		.ascii	"\364\321\031\222\277\227,\243\337\226\364\306\254L\032"
 178      BF972CA3 
 178      DF96F4C6 
 178      AC4C1A
 179 0582 63FAAC60 		.ascii	"c\372\254`ar\217\217\017\033r6\271\315\302\344\304\021"
 179      61728F8F 
 179      0F1B7236 
 179      B9CDC2E4 
 179      C411
 180 0594 631805D5 		.ascii	"c\030\005\325\265\234i\3774\221\340\320F\203\311\246"
 180      B59C69FF 
 180      3491E0D0 
 180      4683C9A6 
 181 05a4 FB0A5D0B 		.ascii	"\373\012]\013V\\6r\011\255\252\243.wdrT\203\006R\230"
 181      565C3672 
 181      09ADAAA3 
 181      2E776472 
 181      54830652 
 182 05b9 CE51A651 		.ascii	"\316Q\246Q\020\262\234\035\265\305\302Q}\014\216\332"
 182      10B29C1D 
 182      B5C5C251 
 182      7D0C8EDA 
 183 05c9 6276946E 		.ascii	"bv\224nG2\221\340\320.\203\243\320\320\222\022~jM\240"
 183      473291E0 
 183      D02E83A3 
 183      D0D09212 
 183      7E6A4DA0 
 184 05dd 2A505EC9 		.ascii	"*P^\311\007\303|\215X\313\207C>\276A\254-\361\241q="
 184      07C37C8D 
 184      58CB8743 
 184      3EBE41AC 
 184      2DF1A171 
 185 05f2 3B1B8221 		.ascii	";\033\202!9\314W\316\2365\316\303\317\234Y\312O\257"
 185      39CC57CE 
 185      9E35CEC3 
ARM GAS  /tmp/ccXLDN7f.s 			page 14


 185      CF9C59CA 
 185      4FAF
 186 0604 9851FE9E 		.ascii	"\230Q\376\236\207\216\027jk\375%5\310\025\010\3221u"
 186      878E176A 
 186      6BFD2535 
 186      C81508D2 
 186      3175
 187 0616 62F81D41 		.ascii	"b\370\035A\316\233\376\346\034\367T\024\346\353\253"
 187      CE9BFEE6 
 187      1CF75414 
 187      E6EBAB
 188 0625 99BCCCD7 		.ascii	"\231\274\314\327\004\353$>$\205%1\344\253\001\304\220"
 188      04EB243E 
 188      24852531 
 188      E4AB01C4 
 188      90
 189 0636 FF7D3124 		.ascii	"\377}1$\361b\250\316\303\317\367\371\212\241R,\325U"
 189      F162A8CE 
 189      C3CFF7F9 
 189      8AA1522C 
 189      D555
 190 0648 497EBFE4 		.ascii	"I~\277\344O<\250\017\326K\305\222X\025(\036/L,\366\214"
 190      4F3CA80F 
 190      D64BC592 
 190      5815281E 
 190      2F4C2CF6 
 191 065d 193BFE5D 		.ascii	"\031;\376]\017o\350\340\003\365\276\332F\277\304\207"
 191      0F6FE8E0 
 191      03F5BEDA 
 191      46BFC487 
 192 066d 657FA05E 		.ascii	"e\177\240^\006\036\371\215\360?\316#\310\315\370\377"
 192      061EF98D 
 192      F03FCE23 
 192      C8CDF8FF 
 193 067d D35E27FA 		.ascii	"\323^'\372j\002\365\022/\370\245j\261\261V\026\344\005"
 193      6A02F512 
 193      2FF8A56A 
 193      B1B15616 
 193      E405
 194 068f 0D5218D8 		.ascii	"\015R\030\330\024\010\202\306\307\335\323\251\332t\352"
 194      140882C6 
 194      C7DDD3A9 
 194      DA74EA
 195 069e F51AE498 		.ascii	"\365\032\344\230Q>\2451\354\012\313u0|~C (\310\216Y"
 195      513EA531 
 195      EC0ACB75 
 195      307C7E43 
 195      2028C88E 
 196 06b3 E5A5D3BC 		.ascii	"\345\245\323\274y\345\263\337\252\230\346\355U^Y1mZ"
 196      79E5B3DF 
 196      AA98E6ED 
 196      555E5931 
 196      6D5A
 197 06c5 A9D75131 		.ascii	"\251\327Q1\247\242\324k\233\001R^\352\305s\231\305c"
 197      A7A2D46B 
 197      9B01525E 
 197      EAC57399 
ARM GAS  /tmp/ccXLDN7f.s 			page 15


 197      C563
 198 06d7 2708B2AA 		.ascii	"'\010\262\252\214VmaIv\370j\301^\\f\237R\351\365\332"
 198      8C566D61 
 198      4976F86A 
 198      C15E5C66 
 198      9F52E9F5 
 199 06ec 674E7DC3 		.ascii	"gN}\303k\177\355u\357LZ\224\331\246x\275\005J\304\002"
 199      6B7FED75 
 199      EF4C5A94 
 199      D9A678BD 
 199      054AC402 
 200 0700 7E889752 		.ascii	"~\210\227R\261\323\350\271(\206P-\206\345\211\320\021"
 200      B1D3E8B9 
 200      2886502D 
 200      86E589D0 
 200      11
 201 0711 ACAE06A8 		.ascii	"\254\256\006\250\002`\350\225D?\360\263U5\206{Csn( "
 201      0260E895 
 201      443FF0B3 
 201      5535867B 
 201      43736E28 
 202 0726 4BD0B657 		.ascii	"K\320\266W\005\344p~ X\027\364K\202\334\007z*%\031\236"
 202      05E4707E 
 202      205817F4 
 202      4B82DC07 
 202      7A2A2519 
 203 073b CF82B69D 		.ascii	"\317\202\266\235>\034$\250I\"\000\320\374P\260\261\201"
 203      3E1C24A8 
 203      492200D0 
 203      FC50B0B1 
 203      81
 204 074c 3EB5FB20 		.ascii	">\265\373 \012\371\202P\335X\357\023\204>Z\245d\302"
 204      0AF98250 
 204      DD58EF13 
 204      843E5AA5 
 204      64C2
 205 075e A4B11E43 		.ascii	"\244\261\036C\353\025}\313\343\371\027\027\233\257\252"
 205      EB157DCB 
 205      E3F91717 
 205      9BAFAA
 206              		.text
 207              		.section	.gnu.lto_.symtab.eb97b30bdae406c0,"",%progbits
 208 0000 70616C52 		.ascii	"palReadBus\000\000\000\000\000\000\000\000\000\000\000"
 208      65616442 
 208      75730000 
 208      00000000 
 208      00000000 
 209 0015 00A10000 		.ascii	"\000\241\000\000\000palWriteBus\000\000\000\000\000"
 209      0070616C 
 209      57726974 
 209      65427573 
 209      00000000 
 210 002a 00000000 		.ascii	"\000\000\000\000\000\000\000\364\000\000\000palSetB"
 210      000000F4 
 210      00000070 
 210      616C5365 
 210      7442
ARM GAS  /tmp/ccXLDN7f.s 			page 16


 211 003c 75734D6F 		.ascii	"usMode\000\000\000\000\000\000\000\000\000\000\000\000"
 211      64650000 
 211      00000000 
 211      00000000 
 211      0000
 212 004e FD000000 		.ascii	"\375\000\000\000_pal_lld_setgroupmode\000\000\002\000"
 212      5F70616C 
 212      5F6C6C64 
 212      5F736574 
 212      67726F75 
 213 006b 00000000 		.ascii	"\000\000\000\000\000\000\000\000\011\001\000\000"
 213      00000000 
 213      09010000 
 214              		.text
 215              		.section	.gnu.lto_.opts,"",%progbits
 216 0000 272D6D63 		.ascii	"'-mcpu=cortex-m4' '-mno-thumb-interwork' '-mthumb' "
 216      70753D63 
 216      6F727465 
 216      782D6D34 
 216      2720272D 
 217 0033 272D6767 		.ascii	"'-ggdb' '-O2' '-fomit-frame-pointer' '-falign-funct"
 217      64622720 
 217      272D4F32 
 217      2720272D 
 217      666F6D69 
 218 0066 696F6E73 		.ascii	"ions=16' '-ffunction-sections' '-fdata-sections' '-"
 218      3D313627 
 218      20272D66 
 218      66756E63 
 218      74696F6E 
 219 0099 666E6F2D 		.ascii	"fno-common' '-flto'\000"
 219      636F6D6D 
 219      6F6E2720 
 219      272D666C 
 219      746F2700 
 220              		.text
 221              		.cfi_sections	.debug_frame
 222              		.section	.text.palReadBus,"ax",%progbits
 223              		.align	2
 224              		.p2align 4,,15
 225              		.global	palReadBus
 226              		.thumb
 227              		.thumb_func
 228              		.type	palReadBus, %function
 229              	palReadBus:
 230              	.LFB272:
 231              		.file 1 "../ChibiOS/os/hal/src/pal.c"
 232              		.loc 1 65 0
 233              		.cfi_startproc
 234              		@ args = 0, pretend = 0, frame = 0
 235              		@ frame_needed = 0, uses_anonymous_args = 0
 236              		@ link register save eliminated.
 237              	.LVL0:
 238              		.loc 1 69 0
 239 0000 0368     		ldr	r3, [r0]
 240 0002 8268     		ldr	r2, [r0, #8]
 241 0004 1969     		ldr	r1, [r3, #16]
ARM GAS  /tmp/ccXLDN7f.s 			page 17


 242 0006 4368     		ldr	r3, [r0, #4]
 243 0008 21FA02F0 		lsr	r0, r1, r2
 244              	.LVL1:
 245              		.loc 1 70 0
 246 000c 1840     		ands	r0, r0, r3
 247 000e 7047     		bx	lr
 248              		.cfi_endproc
 249              	.LFE272:
 250              		.size	palReadBus, .-palReadBus
 251              		.section	.text.palWriteBus,"ax",%progbits
 252              		.align	2
 253              		.p2align 4,,15
 254              		.global	palWriteBus
 255              		.thumb
 256              		.thumb_func
 257              		.type	palWriteBus, %function
 258              	palWriteBus:
 259              	.LFB273:
 260              		.loc 1 90 0
 261              		.cfi_startproc
 262              		@ args = 0, pretend = 0, frame = 0
 263              		@ frame_needed = 0, uses_anonymous_args = 0
 264              		@ link register save eliminated.
 265              	.LVL2:
 266              		.loc 1 94 0
 267 0000 0DC8     		ldmia	r0, {r0, r2, r3}
 268              	.LVL3:
 269              		.loc 1 90 0
 270 0002 30B4     		push	{r4, r5}
 271              		.cfi_def_cfa_offset 8
 272              		.cfi_offset 4, -8
 273              		.cfi_offset 5, -4
 274              		.loc 1 94 0
 275 0004 22EA0105 		bic	r5, r2, r1
 276 0008 03F11004 		add	r4, r3, #16
 277 000c 0A40     		ands	r2, r2, r1
 278 000e 02FA03F3 		lsl	r3, r2, r3
 279 0012 05FA04F2 		lsl	r2, r5, r4
 280 0016 1343     		orrs	r3, r3, r2
 281 0018 8361     		str	r3, [r0, #24]
 282              		.loc 1 95 0
 283 001a 30BC     		pop	{r4, r5}
 284 001c 7047     		bx	lr
 285              		.cfi_endproc
 286              	.LFE273:
 287              		.size	palWriteBus, .-palWriteBus
 288 001e 00BF     		.section	.text.palSetBusMode,"ax",%progbits
 289              		.align	2
 290              		.p2align 4,,15
 291              		.global	palSetBusMode
 292              		.thumb
 293              		.thumb_func
 294              		.type	palSetBusMode, %function
 295              	palSetBusMode:
 296              	.LFB274:
 297              		.loc 1 113 0
 298              		.cfi_startproc
ARM GAS  /tmp/ccXLDN7f.s 			page 18


 299              		@ args = 0, pretend = 0, frame = 0
 300              		@ frame_needed = 0, uses_anonymous_args = 0
 301              		@ link register save eliminated.
 302              	.LVL4:
 303 0000 10B4     		push	{r4}
 304              		.cfi_def_cfa_offset 4
 305              		.cfi_offset 4, -4
 306              		.loc 1 113 0
 307 0002 0A46     		mov	r2, r1
 308              		.loc 1 117 0
 309 0004 4468     		ldr	r4, [r0, #4]
 310 0006 8168     		ldr	r1, [r0, #8]
 311              	.LVL5:
 312 0008 0068     		ldr	r0, [r0]
 313              	.LVL6:
 314 000a 04FA01F1 		lsl	r1, r4, r1
 315              		.loc 1 118 0
 316 000e 5DF8044B 		ldr	r4, [sp], #4
 317              		.loc 1 117 0
 318 0012 FFF7FEBF 		b	_pal_lld_setgroupmode
 319              	.LVL7:
 320              		.cfi_endproc
 321              	.LFE274:
 322              		.size	palSetBusMode, .-palSetBusMode
 323 0016 00BFAFF3 		.text
 323      0080AFF3 
 323      0080
 324              	.Letext0:
 325              		.file 2 "/nfs/nfs5/home/research/hardware/arm2/gcc-arm-embedded/gcc-arm-none-eabi-4_8-2014q2/arm-n
 326              		.file 3 "/nfs/nfs5/home/research/hardware/arm2/gcc-arm-embedded/gcc-arm-none-eabi-4_8-2014q2/arm-n
 327              		.file 4 "../ChibiOS/os/rt/ports/ARMCMx/compilers/GCC/chtypes.h"
 328              		.file 5 "../ChibiOS/os/rt/include/chsystypes.h"
 329              		.file 6 "../ChibiOS/os/rt/include/chschd.h"
 330              		.file 7 "../ChibiOS/os/rt/ports/ARMCMx/chcore.h"
 331              		.file 8 "../ChibiOS/os/rt/ports/ARMCMx/chcore_v7m.h"
 332              		.file 9 "../ChibiOS/os/rt/include/chtm.h"
 333              		.file 10 "../ChibiOS/os/rt/include/chsem.h"
 334              		.file 11 "../ChibiOS/os/rt/include/chmtx.h"
 335              		.file 12 "../ChibiOS/os/hal/ports/STM32/LLD/GPIOv2/pal_lld.h"
 336              		.file 13 "../ChibiOS/os/hal/include/pal.h"
 337              		.file 14 "../ChibiOS/os/ext/CMSIS/include/core_cm4.h"