ARM GAS  /tmp/cczwjAuM.s 			page 1


   1              		.syntax unified
   2              		.cpu cortex-m4
   3              		.fpu softvfp
   4              		.eabi_attribute 20, 1
   5              		.eabi_attribute 21, 1
   6              		.eabi_attribute 23, 3
   7              		.eabi_attribute 24, 1
   8              		.eabi_attribute 25, 1
   9              		.eabi_attribute 26, 1
  10              		.eabi_attribute 30, 2
  11              		.eabi_attribute 34, 1
  12              		.eabi_attribute 18, 4
  13              		.thumb
  14              		.file	"st.c"
  15              		.text
  16              	.Ltext0:
  17              		.section	.gnu.lto_.jmpfuncs.7c0e7d73c20638cf,"",%progbits
  18 0000 789C6362 		.ascii	"x\234cb`b\300\006x\2414+\020322103\26200\000\000\002"
  18      6062C006 
  18      78A1342B 
  18      10333232 
  18      313033B2 
  19 0019 6D0023   		.ascii	"m\000#"
  20              		.text
  21              		.section	.gnu.lto_.inline.7c0e7d73c20638cf,"",%progbits
  22 0000 789C6362 		.ascii	"x\234cb`b\300\006R\2414+\003\003\013\017#X\021\333\002"
  22      6062C006 
  22      52A1342B 
  22      03030B0F 
  22      235811DB 
  23 0015 79B05A46 		.ascii	"y\260ZF.\020\301\300\306\012\024f\373\240\007\027gb"
  23      2E10C1C0 
  23      C60A1466 
  23      FBA00717 
  23      6762
  24 0027 6061060A 		.ascii	"`a\006\0121]\340\207\0131c\012\261`\0121\000\000\232"
  24      315DE087 
  24      0B31630A 
  24      B1600A31 
  24      00009A
  25 003a 48086D   		.ascii	"H\010m"
  26              		.text
  27              		.section	.gnu.lto_.pureconst.7c0e7d73c20638cf,"",%progbits
  28 0000 789C6362 		.ascii	"x\234cb`b\340f\200\000V\006\011F)&)f)\026)\000\004\027"
  28      6062E066 
  28      80005606 
  28      09462926 
  28      29662916 
  29 0018 009F     		.ascii	"\000\237"
  30              		.text
  31              		.section	.gnu.lto_stInit.7c0e7d73c20638cf,"",%progbits
  32 0000 789C6362 		.ascii	"x\234cb`b@\007\222@\\\011\304\262@\314\310\314\300\310"
  32      60624007 
  32      92405C09 
  32      C4B240CC 
  32      C8CCC0C8 
  33 0014 34E11C03 		.ascii	"4\341\034\003C#\007\023##\210\301\300\310P\317\304X"
ARM GAS  /tmp/cczwjAuM.s 			page 2


  33      43230713 
  33      232388C1 
  33      C0C850CF 
  33      C458
  34 0026 1FC90856 		.ascii	"\037\311\010V\273\236\351\300\203\377\377\327\375X\373"
  34      BB9EE9C0 
  34      83FFFFD7 
  34      FD58FB
  35 0035 B01EA894 		.ascii	"\260\036\250\224\201\201\225\241\245\241a\202\002\003"
  35      818195A1 
  35      A5A16182 
  35      0203
  36 0043 4332583E 		.ascii	"C2X>\004H\2024\20522\201h\346\363\014\315\017\376\331"
  36      04488234 
  36      85323281 
  36      68E6F30C 
  36      CD0FFED9 
  37 0057 24322E64 		.ascii	"$2.dd\005\312V3\374j\350h\020\310d\004\252\206\030\227"
  37      6405CA56 
  37      33FC6AE8 
  37      6810C864 
  37      04AA8618 
  38 006c 09A22F32 		.ascii	"\011\242/24>\370\317\004S\004\001!@\011\240\001 \307"
  38      343EF8CF 
  38      04530401 
  38      214009A0 
  38      0120C7
  39 007f 4AEBE9E9 		.ascii	"J\353\351\351;gd&e\372\007\353\347\027\353g$\346\350"
  39      3B676426 
  39      65FA07EB 
  39      E717EB67 
  39      24E6E8
  40 0092 171725EB 		.ascii	"\027\027%\353\027\227\350%3\000\000\355\343*\327"
  40      1797E825 
  40      330000ED 
  40      E32AD7
  41              		.text
  42              		.section	.gnu.lto_stStartAlarm.7c0e7d73c20638cf,"",%progbits
  43 0000 789C9D91 		.ascii	"x\234\235\221AK\002A\024\307\337\233\335Uou\215 \302"
  43      414B0241 
  43      14C7DF9B 
  43      DD556F75 
  43      8D20C2
  44 0013 6BB583F5 		.ascii	"k\265\203\365\001:\324%P:\270A\235b\265\310\005\305"
  44      013AD425 
  44      503AB841 
  44      9D62B5C8 
  44      05C5
  45 0025 70A5ABB3 		.ascii	"p\245\253\263\"\236E\210\302NJ\021\204\344)\220\272"
  45      229E4588 
  45      C24E4A11 
  45      84E42990 
  45      BA
  46 0036 58B79202 		.ascii	"X\267\222\002\243k\340\027\010\374\000\301\366fT\302"
  46      A36BE017 
  46      08FC00C1 
  46      F66654C2 
ARM GAS  /tmp/cczwjAuM.s 			page 3


  47 0046 3A043DD8 		.ascii	":\004=\330y;\377y\357\367\177\3140`\3603f\350{B\000"
  47      793BFF79 
  47      EFF77FCC 
  47      3060F033 
  47      66E87B42 
  48 005b 8B326A80 		.ascii	"\2132j\200\254\362\002\340\205\030\242\374\001\204\002"
  48      ACF202E0 
  48      8518A2FC 
  48      018402
  49 006a C3C20EAA 		.ascii	"\303\302\016\252\332\026\353\364}\377\372\266|\331\304"
  49      DA16EBF4 
  49      7DFFFAB6 
  49      7CD9C4
  50 0079 1A0B32CC 		.ascii	"\032\0132\314(\335\200\222\020\225\371\014\322.\251"
  50      28DD8092 
  50      1095F90C 
  50      D22EA9
  51 0088 148B56D9 		.ascii	"\024\213V\331\276\205Lf\355\021\212!\2000\324\205\250"
  51      BE854C66 
  51      ED118A21 
  51      8030D485 
  51      A8
  52 0099 76EECA5D 		.ascii	"v\356\312]\024U\341\015|\177\312A\032i\016e\3336:\210"
  52      1455E10D 
  52      7C7FCA41 
  52      1A690E65 
  52      DB363A88 
  53 00ad F32A317D 		.ascii	"\363*1}r\306\003\302\3003<t?_\337\213\301\221\335\330"
  53      72C603C2 
  53      C0333C74 
  53      3F5FDF8B 
  53      C191DDD8 
  54 00c1 B7D37DEB 		.ascii	"\267\323}\353\031660L\2256\326\321 \232\232b\011\232"
  54      19363630 
  54      4C9536D6 
  54      D1209A9A 
  54      62099A
  55 00d4 A2E4F54F 		.ascii	"\242\344\365O>\216\027\035\324\026\340\212vb\325A\375"
  55      3E8E171D 
  55      D416E08A 
  55      7662D541 
  55      FD
  56 00e5 0C6A5E45 		.ascii	"\014j^EL;hH\267\200\240\320\225q@\331%P\221.\210\244"
  56      4C3B6848 
  56      B780A0D0 
  56      957140D9 
  56      2550912E 
  57 00fb D4E0708A 		.ascii	"\324\340p\212\2212\036\246}\332\272\327l<'\355\033\255"
  57      91321EA6 
  57      7DDABAD7 
  57      6C3C27ED 
  57      1BAD
  58 010d FD89C609 		.ascii	"\375\211\306\011\264&E\011k\377\013\306&a\362u{\340"
  58      B4264509 
  58      6BFF0BC6 
  58      2661F275 
  58      7BE0
ARM GAS  /tmp/cczwjAuM.s 			page 4


  59 011f 0D1A37FA 		.ascii	"\015\0327\372\360\"\306a\221-\275\203<\2375M\276\226"
  59      F022C661 
  59      912DBD83 
  59      3C9F354D 
  59      BE96
  60 0131 7212CE66 		.ascii	"r\022\316f\234g]\236\262\323\334\315%\271\2337\223\240"
  60      9C675D9E 
  60      B2D3DCCD 
  60      25B99B37 
  60      93A0
  61 0143 E79DCC7E 		.ascii	"\347\235\314~\344w\301a6\227wy\334\212\255,\363ht\235"
  61      E477C161 
  61      36977779 
  61      DC8AAD2C 
  61      F368749D 
  62 0157 5B1BB1A3 		.ascii	"[\033\261\243\010\265\354\246\323{f\012\276\000\313"
  62      08B5ECA6 
  62      D37B660A 
  62      BE00CB
  63 0166 6F8BC9   		.ascii	"o\213\311"
  64              		.text
  65              		.section	.gnu.lto_stStopAlarm.7c0e7d73c20638cf,"",%progbits
  66 0000 789C6362 		.ascii	"x\234cb`b@\007\222@|\024\210\375\201\230\221\231\201"
  66      60624007 
  66      92407C14 
  66      88FD8198 
  66      919981
  67 0013 9169C239 		.ascii	"\221i\3029\006\206F\016&FF\020\203\201\221\241\236\211"
  67      0686460E 
  67      26464610 
  67      838191A1 
  67      9E89
  68 0025 B13E9211 		.ascii	"\261>\222\021\254v=\323\201\007\377\377\257\373\326"
  68      AC763DD3 
  68      8107FFFF 
  68      AFFBD6
  69 0034 36E70DE3 		.ascii	"6\347\015\343l&\026\240\010+CKC\303\004\005\006\206"
  69      6C2616A0 
  69      082B434B 
  69      43C30405 
  69      0686
  70 0046 64B08A10 		.ascii	"d\260\212\020 \011\322\026\312\310\004\242\231\3172"
  70      2009D216 
  70      CAC804A2 
  70      99CF32
  71 0055 1CDA71E7 		.ascii	"\034\332q\347\374\363G\254pu\020\306\201\323\367\016"
  71      FCF347AC 
  71      707510C6 
  71      81D3F70E 
  72 0065 B2323024 		.ascii	"\26220$2.dd\005j\005\353\325fX\325\320\322\370\340\357"
  72      322E6464 
  72      056A05EB 
  72      D56658D5 
  72      D0D2F8E0 
  73 007a 9E69F299 		.ascii	"\236i\362\231\214\014\263\031f5Nh\020\310dd\214`\314"
  73      8C0CB319 
  73      66354E68 
ARM GAS  /tmp/cczwjAuM.s 			page 5


  73      10C86464 
  73      8C60CC
  74 008d 64646A00 		.ascii	"ddj\000\002\026\0060\023\354\222$\220\226D\306\305@"
  74      02160630 
  74      13EC9224 
  74      909644C6 
  74      C540
  75 009f ED6051B0 		.ascii	"\355`Q\260\340E\206\306\017\217\266\263@L\205\201\020"
  75      E04586C6 
  75      0F8FB6B3 
  75      404C8581 
  75      10
  76 00b0 A0E940A7 		.ascii	"\240\351@\247\200\264I\353\351\351;gd&e\372\007\353"
  76      80B449EB 
  76      E9E93B67 
  76      642665FA 
  76      07EB
  77 00c2 E717EB67 		.ascii	"\347\027\353g$\346\350\027\027%\353\027\227\350%3\030"
  77      24E6E817 
  77      1725EB17 
  77      97E82533 
  77      18
  78 00d3 62CA15E4 		.ascii	"b\312\025\344\027\225\024\353\007\207\370\032\033\351"
  78      179514EB 
  78      0787F81A 
  78      1BE9
  79 00e1 FBF8B8E8 		.ascii	"\373\370\270\350\207x\372\226\031\002U\307\347\344\244"
  79      8778FA96 
  79      190255C7 
  79      E7E4A4
  80 00f0 E8653000 		.ascii	"\350e0\000\000Y\022QV"
  80      00591251 
  80      56
  81              		.text
  82              		.section	.gnu.lto_stSetAlarm.7c0e7d73c20638cf,"",%progbits
  83 0000 789C6550 		.ascii	"x\234eP\277KBQ\024>\337\365=u\2535\202\010\327\352\335"
  83      BF4B4251 
  83      143EDFF5 
  83      3D75AB35 
  83      8208D7EA 
  84 0015 AC3FA0A1 		.ascii	"\254?\240\241\226@i\360\0055\205Z\344\005\305Pi\365"
  84      964069F0 
  84      0535855A 
  84      E405C550 
  84      69F5
  85 0027 3E115CC5 		.ascii	">\021\\\305E(\032\014j\210~P\215-\322\026RP\177\201"
  85      45281A0C 
  85      6A887E50 
  85      8D2DD216 
  85      52507F81 
  86 003b 3447B8B4 		.ascii	"4G\270\264\005\257\363\256:T\007\356=\347|\234\363}"
  86      05AFF3AE 
  86      3A5407EE 
  86      3DE77C9C 
  86      F37D
  87 004d DFBD8204 		.ascii	"\337\275\202\004\375\215)>\213 r9#D\020\315\027\"/*"
  87      FD8D293E 
ARM GAS  /tmp/cczwjAuM.s 			page 6


  87      8B207239 
  87      234410CD 
  87      17222F2A 
  88 0061 80A02050 		.ascii	"\200\240 PU\240\272\0153{#\272}\337\277\276k\234\177"
  88      55A0BA0D 
  88      337B23BA 
  88      7DDFBFBE 
  88      6B9C7F
  89 0074 E044D802 		.ascii	"\340D\330\002\005\203\333T\327\2729[\000wY\203\270|"
  89      0583DB54 
  89      D7BA395B 
  89      00775983 
  89      B87C
  90 0086 07EB9B10 		.ascii	"\007\353\233\020A\016=Q-J\024\243\216\326\255\356}\243"
  90      410E3D51 
  90      2D4A14A3 
  90      8ED6ADEE 
  90      7DA3
  91 0098 07DDD2DE 		.ascii	"\007\335\322\336\300\367'\024\330\322\014\202\265-("
  91      C0F72714 
  91      D8D20C82 
  91      B52D28
  92 00a7 60D62461 		.ascii	"`\326$a\375\366\270\3174\364L\217\275\357\267\257Zd"
  92      FDF6B8CF 
  92      34F44C8F 
  92      BDEFB7AF 
  92      5A64
  93 00b9 2437D6ED 		.ascii	"$7\326\355\366>o\3554N\021\343\3114:\260\231\315\270"
  93      F63E6FED 
  93      344E11E3 
  93      C9343AB0 
  93      99CDB8
  94 00cc 58A04B5D 		.ascii	"X\240K]\367\372\355\253\366\274Bh\216.\270\323+\012"
  94      F7FAEDAB 
  94      F6BC4268 
  94      8E2EB8D3 
  94      2B0A
  95 00de D6311D79 		.ascii	"\3261\035yM=\251`\007ja\315a\031\341\260\221\313\300"
  95      4D3DA960 
  95      076A61CD 
  95      6119E1B0 
  95      91CBC0
  96 00f1 309D3193 		.ascii	"0\2351\223A#C\027#\304\230y%o\360\376`\015\345\306\341"
  96      41234317 
  96      23C49879 
  96      256FF0FE 
  96      600DE5C6 
  97 0106 B22CBF36 		.ascii	"\262,\2776\370\343i\307\221\2539\225Q\033)Y,\313\\:"
  97      F8E369C7 
  97      91AB3995 
  97      511B2959 
  97      2CCB5C3A 
  98 011a 2FCBA5AC 		.ascii	"/\313\245\254,W\234,Y\025U\330\213\377\0378(\226*e\231"
  98      2C579C2C 
  98      591555D8 
  98      8BFF1F38 
  98      28962A65 
ARM GAS  /tmp/cczwjAuM.s 			page 7


  99 012f 7293CB4B 		.ascii	"r\223\313K2\221X\223\356z\3620\316+;\371\374\256\223"
  99      32915893 
  99      EE7AF230 
  99      CE2B3BF9 
  99      FCAE93
 100 0142 A31F76FD 		.ascii	"\243\037v\375gl"
 100      676C
 101              		.text
 102              		.section	.gnu.lto_stGetAlarm.7c0e7d73c20638cf,"",%progbits
 103 0000 789C6362 		.ascii	"x\234cb`b@\007\222@\374\014\210\375\201\230\221\231"
 103      60624007 
 103      9240FC0C 
 103      88FD8198 
 103      9199
 104 0012 819169C2 		.ascii	"\201\221i\3029\006\206F\016&FF\020\203\201\221\241\236"
 104      39068646 
 104      0E264646 
 104      10838191 
 104      A19E
 105 0024 89B13E92 		.ascii	"\211\261>\222\021\254v=\323\201\007\377\377\257\373"
 105      11AC763D 
 105      D38107FF 
 105      FFAFFB
 106 0033 D43EEF0D 		.ascii	"\324>\357\015\343|&\026f\206L\2608+CKC\303\004\205\\"
 106      E37C2616 
 106      66864CB0 
 106      382B434B 
 106      43C30485 
 107 0048 1027192C 		.ascii	"\020'\031,\022\002$A\332C\031\231@4\363Y\206Cw\356\234"
 107      12022441 
 107      DA431999 
 107      4034F359 
 107      864377EE 
 108 005d FF6F0455 		.ascii	"\377o\004U\011\323r\340\344?\240\302D\306\205\214\254"
 108      09D372E0 
 108      E43FA0C2 
 108      44C6858C 
 108      AC
 109 006e 408D609D 		.ascii	"@\215`\235\351\214\314\272\014k\032Z\032\037\374\375"
 109      E98CCCBA 
 109      0C6B1A5A 
 109      1A1FFCFD 
 110 007e 335D2A93 		.ascii	"3]*\223\221Q\233a\025\220\3270\2311\223\221i6\303\254"
 110      91519B61 
 110      1590D730 
 110      99319391 
 110      6936C3AC 
 111 0092 C6090D02 		.ascii	"\306\011\015\002\231\214\314\021@.K\003\020\2600\200"
 111      998CCC11 
 111      402E4B03 
 111      10B03080 
 112 00a2 9960E725 		.ascii	"\231`\347%\201LHd\\\0144\015,\312\012\361!T\204\201"
 112      814C4864 
 112      5C0C340D 
 112      2CCA0AF1 
 112      21548481 
 113 00b6 E12243E3 		.ascii	"\341\"C\343\207K\373y \366\001-\202H\207\000-\006\272"
ARM GAS  /tmp/cczwjAuM.s 			page 8


 113      874BFB79 
 113      20F6012D 
 113      82488700 
 113      2D06BA
 114 00c9 111432D2 		.ascii	"\021\0242\322zz\372\316\031\231I\231\376\301\372\371"
 114      7A7AFACE 
 114      19994999 
 114      FEC1FAF9 
 115 00d9 C5FA1989 		.ascii	"\305\372\031\2119\372\305E\311\372\305%z\311\014\206"
 115      39FAC545 
 115      C9FAC525 
 115      7AC90C86 
 116 00e9 987205F9 		.ascii	"\230r\005\371E%\305\372\301!\276\306F\372>>.\372!\236"
 116      4525C5FA 
 116      C121BEC6 
 116      46FA3E3E 
 116      2EFA219E 
 117 00fd BE658640 		.ascii	"\276e\206@\325\36199)z\031\014\000[\223W<"
 117      D5F13939 
 117      297A190C 
 117      005B9357 
 117      3C
 118              		.text
 119              		.section	.gnu.lto_.symbol_nodes.7c0e7d73c20638cf,"",%progbits
 120 0000 789C4DC7 		.ascii	"x\234M\307\261\015\2000\020\004\301\3735\256\224B\316"
 120      B10D8030 
 120      1004C1FB 
 120      35AE9442 
 120      CE
 121 0011 1209A101 		.ascii	"\022\011\241\001\223R\0225P\011\"\000\011O6\010\215"
 121      93521235 
 121      50092200 
 121      094F3608 
 121      8D
 122 0022 FA50B154 		.ascii	"\372P\261TO\311>\346`\301\321u\305t\335p\352\332\360"
 122      4FC93EE6 
 122      60C1D175 
 122      C574DD70 
 122      EADAF0
 123 0035 F037769C 		.ascii	"\3607v\234\337\226\022IY\323u\207\036\334\301\035\316"
 123      DF961249 
 123      59D37587 
 123      1EDCC11D 
 123      CE
 124              		.text
 125              		.section	.gnu.lto_.refs.7c0e7d73c20638cf,"",%progbits
 126 0000 789C6362 		.ascii	"x\234cb`b`d\200\002\000\000F\000\006"
 126      60626064 
 126      80020000 
 126      460006
 127              		.text
 128              		.section	.gnu.lto_.decls.7c0e7d73c20638cf,"",%progbits
 129 0000 789CBD58 		.ascii	"x\234\275Xkl\024U\024\276wv[v\333\245\024P\2541\221"
 129      6B6C1455 
 129      14BE7776 
 129      5B76DBA5 
 129      1450AC31 
ARM GAS  /tmp/cczwjAuM.s 			page 9


 130 0015 4A841892 		.ascii	"J\204\030\222v\350\362\210\374ApK(\011\005\262[\222"
 130      76E8F288 
 130      FC41704B 
 130      280905B2 
 130      5B92
 131 0027 26FE58A7 		.ascii	"&\376X\247\273\003\273I\273\255\273S\015\377n[ (bJy"
 131      BB03BB49 
 131      BBADBB53 
 131      0DFF6E5B 
 131      2028624A 
 132 003c 580D81E5 		.ascii	"X\015\201\345\015\011\250\251X-\362X\036\205F|\000\025"
 132      0D09A8A9 
 132      582DF258 
 132      1E85467C 
 132      0015
 133 004e 14AAB286 		.ascii	"\024\252\262\206`}\206\032\302S\350z\346\316\314\356"
 133      607D861A 
 133      C253E87A 
 133      E6CECCEE 
 134 005e CC74A6CC 		.ascii	"\314t\246\314\222\350$\347\364\356\3149\337\375\356"
 134      92E824E7 
 134      F4EECC39 
 134      DFFDEE
 135 006d 39E7CE9C 		.ascii	"9\347\316\234[\0061h3F(\005\327\204\261\010=d\020\312"
 135      5B063168 
 135      33462805 
 135      D784B108 
 135      3D6410CA 
 136 0081 4508CD42 		.ascii	"E\010\315B\231K\374\275\015d7H'H\027\310\021\220\343"
 136      994BFCBD 
 136      0D643748 
 136      274817C8 
 136      1190E3
 137 0094 68E825DA 		.ascii	"h\350%\332\001\004:\011\262]\276\307\310\367\215\354"
 137      01043A09 
 137      B25DBEC7 
 137      C8F78DEC 
 138 00a4 454C07C8 		.ascii	"EL\007\310>\220\002\020\027\310)\220n\220\036\220\273"
 138      3E900210 
 138      17C82990 
 138      6E901E90 
 138      BB
 139 00b5 2076101B 		.ascii	" v\020\033H?\310E\220^\031S\364\275'\217?\006\031\324"
 139      483FC845 
 139      905E1953 
 139      F4BD278F 
 139      3F0619D4 
 140 00c9 6177CA7E 		.ascii	"aw\312~\247TXX\345/>w\340\241\234\272,r\3022'F\366\311"
 140      A7545858 
 140      E52F3E77 
 140      E0A19CBA 
 140      2C72C232 
 141 00e1 C7D2F873 		.ascii	"\307\322\370s\220Q:\\1^\2712\346\243\260D\333'\260t"
 141      90513A5C 
 141      315EB932 
 141      E6A3B044 
 141      DB27B074 
ARM GAS  /tmp/cczwjAuM.s 			page 10


 142 00f5 EF291DCE 		.ascii	"\357)\035\316x\264\205\304\223\311\225[\317b\322F\036"
 142      78B485C4 
 142      93C9955B 
 142      CF62D246 
 142      1E
 143 0106 A4523634 		.ascii	"\244R64\016m$p\305W\021\202\005\016\317z\022Uc\016\027"
 143      0E6D2470 
 143      C5571182 
 143      050ECF7A 
 143      1255630E 
 144 011b 3851311D 		.ascii	"8Q1\035\270\234t\002\2048\274\035\217\223GKl\022\034"
 144      B89C7402 
 144      8438BC1D 
 144      8F93474B 
 144      6C121C
 145 012e 839EC568 		.ascii	"\203\236\305h2\332\007\376\255\204l\037;4\030pMB\273"
 145      32DA07FE 
 145      AD846C1F 
 145      3B341870 
 145      4D42BB
 146 0141 C409C85E 		.ascii	"\304\011\310^b\243\360\"\3006<^m\302\341\035\230\321"
 146      62A3F022 
 146      C0363C5E 
 146      6DC2E11D 
 146      98D1
 147 0153 F34C0E24 		.ascii	"\363L\016$\016\235v\2656%S\251\361\326I\356\221I\332"
 147      0E9D76B5 
 147      362553A9 
 147      F1D649EE 
 147      9149DA
 148 0166 682C9013 		.ascii	"h,\220\023\255&\244Yt\254\350\201d\030yMD;\201~\262"
 148      AD26A459 
 148      74ACE881 
 148      6418794D 
 148      443B817E 
 149 017b EB402F43 		.ascii	"\353@/C\210\203\303\373\260\023|}\030\300v\342\3112"
 149      8883C3FB 
 149      B0137C7D 
 149      18C076E2 
 149      C932
 150 018d 21EB38FF 		.ascii	"!\3538\377\254\352>\216\233\201'\207\367S\244\363\370"
 150      ACEA3E8E 
 150      9B812787 
 150      F753A4F3 
 150      F8
 151 019e 71A16EBD 		.ascii	"q\241n\275sx&\245\364!\005\272\312h\2018<\302\251\215"
 151      737826A5 
 151      F42105BA 
 151      CA688138 
 151      3CC2A98D 
 152 01b2 22FC560C 		.ascii	"\"\374V\014D4\372X\036\210;t\024\372\217\3153\225A\213"
 152      4434FA58 
 152      1E883B74 
 152      14FA8FCD 
 152      3395418B 
 153 01c6 E3771DE1 		.ascii	"\343w\035\341\347\321\016B\332\222\273\372\177\265\275"
 153      E7D10E42 
ARM GAS  /tmp/cczwjAuM.s 			page 11


 153      DA92BBFA 
 153      7FB5BD
 154 01d5 47127625 		.ascii	"G\022v%\324w\250\331n(\011\243XHV\231:ZKV\026\342t!"
 154      D477A8D9 
 154      6E2809A3 
 154      58485699 
 154      3A5A4B56 
 155 01ed EDD61752 		.ascii	"\355\326\027R\207a!\335V\012I\252b\006\245t\324\214"
 155      876121DD 
 155      560A49AA 
 155      6206A574 
 155      D48C
 156 01ff CBB4538F 		.ascii	"\313\264S\217\376\251!z\307\2314\372\036\212\276\306"
 156      FEA9217A 
 156      C79934FA 
 156      1E8ABEC6 
 157 020f 66B47072 		.ascii	"f\264pr'X!\255\206\303\007\001\210\303]\217\265\346"
 157      275821AD 
 157      86C30701 
 157      88C35D8F 
 157      B5E6
 158 0221 2E3DAB43 		.ascii	".=\253C\206\254n\236Y\3734\2117'R\251\227\364\233\\"
 158      86AC6E9E 
 158      59FB3489 
 158      372752A9 
 158      97F49B5C 
 159 0235 4437DB40 		.ascii	"D7\333@G\015v\371&\233a\264\232I\307^\342T\310r\370"
 159      470D76F9 
 159      269B61B4 
 159      9A49C75E 
 159      E254C872 
 160 024a 88C97264 		.ascii	"\210\311rd\274c\0064[\223\353\373\0366\341u-\361\036"
 160      BC630634 
 160      5B93EBFB 
 160      1E36E175 
 160      2DF11E
 161 025d 3220D690 		.ascii	"2 \326\220\222\240\336!SJ '\264 \371\350\255\314f\222"
 161      92A0DE21 
 161      534A2027 
 161      B420F9E8 
 161      ADCC6692 
 162 0271 7CCD1676 		.ascii	"|\315\026v\022\347+^t\013\266\014\273\0059|\000O\264"
 162      12E72B5E 
 162      740BB60C 
 162      BB05397C 
 162      004FB4
 163 0284 54F4A351 		.ascii	"T\364\243Q\253\030\333bq\376S\231\300\022\254\300\025"
 163      AB18DB62 
 163      71FE5399 
 163      C012ACC0 
 163      15
 164 0295 D239D566 		.ascii	"\3229\325f\373\315\3158|\032\217\316\220$\351\245\271"
 164      FBCDCD38 
 164      7C1A8FCE 
 164      9024E9A5 
 164      B9
 165 02a6 CC537646 		.ascii	"\314SvF*\026\345vz\220\331\213j+4\006\255\223\231\244"
ARM GAS  /tmp/cczwjAuM.s 			page 12


 165      2A16E576 
 165      7A90D98B 
 165      6A2B3406 
 165      AD9399A4 
 166 02ba 974E7215 		.ascii	"\227Nr\025\237WQ\372\365\223\332rg\006}\375\364\340"
 166      9F5751FA 
 166      F593DA72 
 166      67067DFD 
 166      F4E0
 167 02cc 3190910D 		.ascii	"1\220\221\015vmF\036\011#Nz\026\\%'\012J\022\353\373"
 167      766D461E 
 167      09234E7A 
 167      165C2527 
 167      0A4A12EB 
 168 02e1 5CC42EDD 		.ascii	"\\\304.\335G\006\011\226\257\347P\234\254hIl\354\333"
 168      47060996 
 168      AFE7509C 
 168      AC68496C 
 168      ECDB
 169 02f3 0C257C02 		.ascii	"\014%|\002K\201eP\234R\020}\215B\221^\276\022\213\002"
 169      4B816550 
 169      9C52107D 
 169      8D42915E 
 169      BE128B02 
 170 0307 A70E6F53 		.ascii	"\247\016oS\237\253\225S\300vf\015V\254\001kW\203\355"
 170      9FAB9553 
 170      C076660D 
 170      56AC016B 
 170      5783ED
 171 031a B502E630 		.ascii	"\265\002\3460g\366\276\032\354@\326`Zf\233\325`\035"
 171      67F6BE1A 
 171      EC40D660 
 171      5A669BD5 
 171      601D
 172 032c 56C00ACD 		.ascii	"V\300\012\315\231mQ\203}\2225\230\226\331Gj\260.+`E"
 172      996D5183 
 172      7D923598 
 172      96D9476A 
 172      B02E2B60 
 173 0341 E6CC3AD4 		.ascii	"\346\314:\324`\307\262\006\3232;\250\006\353\266\002"
 173      60C7B206 
 173      D3323BA8 
 173      06EBB602 
 174 0351 566CCEAC 		.ascii	"Vl\316\254S\015\366E\326`Zf\237\251\301\276\266\002"
 174      530DF645 
 174      D6605A66 
 174      9FA9C1BE 
 174      B602
 175 0363 F68239B3 		.ascii	"\366\2029\263Cj\260\013Y\203i\231\035V\203]\262\002"
 175      436AB00B 
 175      59836999 
 175      1D56835D 
 175      B202
 176 0375 36C58C59 		.ascii	"6\305\214YS\342\350+\"V7\274\374\030tE\217\245}K\032"
 176      53E2E82B 
 176      225637BC 
 176      FC187445 
ARM GAS  /tmp/cczwjAuM.s 			page 13


 176      8FA57D4B 
 177 038a 8169999D 		.ascii	"\201i\231\235S3\373\311\012\263\331\346`\027\324`\327"
 177      5333FBC9 
 177      0AB3D9E6 
 177      6017D460 
 177      D7
 178 039b AC805598 		.ascii	"\254\200U\230'\340[5X\177\326`Zf\227\324`\177Z\001["
 178      27E05B35 
 178      587FD660 
 178      5A6697D4 
 178      607F5A01 
 179 03b0 6CCEEC7B 		.ascii	"l\316\354{5\330\215\254\301\324\314\232\022W \233\362"
 179      35D88DAC 
 179      C1D4CC9A 
 179      1257209B 
 179      F2
 180 03c1 172F3E5B 		.ascii	"\027/>[\367e\234\255}\205i\314\366\233\232q\370V\326"
 180      F7659CAD 
 180      7D8569CC 
 180      F69B9A71 
 180      F856D6
 181 03d4 1FC6DB26 		.ascii	"\037\306\333&\037F\365\251(c\005\313\276\245_\266\206"
 181      1F46F5A9 
 181      286305CB 
 181      BEA55FB6 
 181      86
 182 03e5 843CAC36 		.ascii	"\204<\2546\210\241\321\245\376\372q\370K\332N|\205\237"
 182      88A1D1A5 
 182      FEFA71F8 
 182      4BDA4E7C 
 182      859F
 183 03f7 03FD0DD5 		.ascii	"\003\375\015\325\347\251\356\245\372\"\325\337Q}\231"
 183      E7A9EEA5 
 183      FA22D5DF 
 183      517D99
 184 0406 EA3EAA7F 		.ascii	"\352>\252\177\244\372*\325?S}\215\352\353T\367S\375"
 184      A4FA2AD5 
 184      3F537D8D 
 184      EAEB54F7 
 184      53FD
 185 0418 1BD57F50 		.ascii	"\033\325\177P\375\027\3257\250\376\233\352\233\240\323"
 185      FD17D537 
 185      A8FE9BEA 
 185      9BA0D3
 186 0427 97AE5DEA 		.ascii	"\227\256]\3521\311\257\310\375n\246]\022;\265\304\000"
 186      31C9AFC8 
 186      FD6EA65D 
 186      123BB5C4 
 186      00
 187 0438 746A3F9C 		.ascii	"tj?\234\300m-D\352\324\342\016\245\333\275\257k\014"
 187      C06D2D44 
 187      EAD4E20E 
 187      A5DBBDAF 
 187      6B0C
 188 044a E46EB797 		.ascii	"\344n\267\227\257P:\374\2659\242\305=\213\335\356e\262"
 188      AF503AFC 
 188      B539A2C5 
ARM GAS  /tmp/cczwjAuM.s 			page 14


 188      3D8BDDEE 
 188      65B2
 189 045c B828DDEC 		.ascii	"\270(\335\354\336\3237\273\367\265\015\340\004\264\215"
 189      DED337BB 
 189      F7B50DE0 
 189      04B48D
 190 046b 9C3B97BC 		.ascii	"\234;\227\274\336\337\216W'\341\024:\230Ja\245\325j"
 190      DEDF8E57 
 190      27E1143A 
 190      984A61A5 
 190      D56A
 191 047d 2F90CF5A 		.ascii	"/\220\317Z\311]\211\242\366L\233\342P\327\201\324\227"
 191      C95D89A2 
 191      F64C9BE2 
 191      50D781D4 
 191      97
 192 048e 80039336 		.ascii	"\200\003\2236&EE\306\266\034nb\304,63\231\272\222\306"
 192      264545C6 
 192      B61C6E62 
 192      C42C3633 
 192      99BA92C6 
 193 04a2 CA28450F 		.ascii	"\312(E\017\361m9\006\377\027\220\350\017\357*O\032R"
 193      F16D3906 
 193      FF1790E8 
 193      0FEF2A4F 
 193      1A52
 194 04b4 261D496D 		.ascii	"&\035Im3\353\221,\215\2558\274\202\311v\203\254d\214"
 194      33EB912C 
 194      8DAD38BC 
 194      82C97683 
 194      AC648C
 195 04c7 37884BC3 		.ascii	"7\210K\303Y\261\202\225\275\233\243;\253\351H@\217&"
 195      59B18295 
 195      BD9BA33B 
 195      ABE94840 
 195      8F26
 196 04d9 AF9DC379 		.ascii	"\257\235\303yXU:\277\350JG\352\362?\310\261r\014[\315"
 196      58553ABF 
 196      E84A47EA 
 196      F23FC8B1 
 196      720C5BCD 
 197 04ed E86AE04D 		.ascii	"\350j\340Mf\310I\"1\220\270pV:\206mM\024*\245\231\310"
 197      66C84922 
 197      3190B870 
 197      563A866D 
 197      4D142AA5 
 198 0503 312CCD63 		.ascii	"1,\315c|\372 \366\200\036\304\3260\217Q\232k\364\264"
 198      7CFA20F6 
 198      801EC4D6 
 198      308F519A 
 198      6BF4B4
 199 0516 DE660C4B 		.ascii	"\336f\014K\363\266air\230dRY\255L\232?\\\302uV\034^"
 199      F3B66169 
 199      72986452 
 199      59AD4C9A 
 199      3F5CC275 
 200 052d 9775C2DB 		.ascii	"\227u\302\333L\022\236\247Y\210b\005\303U\214\356\240"
ARM GAS  /tmp/cczwjAuM.s 			page 15


 200      4C129EA7 
 200      59886205 
 200      C3558CEE 
 200      A0
 201 053e AA23C1A0 		.ascii	"\252#\301\240\363\306\011\037l\303\353\325\011?J\023"
 201      F3C6091F 
 201      6CC3EBD5 
 201      093F4A13 
 202 054e 72D538E1 		.ascii	"r\3258\341\372\223\344\006\223|\310\023m4\016\364\240"
 202      FA93E406 
 202      937CC813 
 202      6D340EF4 
 202      A0
 203 055f 2AD01C6E 		.ascii	"*\320\034n\205\340(\374\217\014\303\177@\303\037=SZ"
 203      85E028FC 
 203      8F0CC37F 
 203      40C31F3D 
 203      535A
 204 0571 CA7A42E1 		.ascii	"\312zB\341\232\360\"\037[\037cC\\-\033\213\006\330\230"
 204      9AF0221F 
 204      5B1F6343 
 204      5C2D1B8B 
 204      06D898
 205 0584 501A40B9 		.ascii	"P\032@\2711a~$,\344\316[\270\244\330\203&i-\243\002"
 205      31617E24 
 205      2CE4CE5B 
 205      B8A4D883 
 205      26692DA3 
 206 0599 1B8E046A 		.ascii	"\033\216\004j\033\203<\033\010\305\226\307\204\345\015"
 206      1B833C1B 
 206      08C596C7 
 206      84E50D
 207 05a8 7CAC3484 		.ascii	"|\2544\204\234\3428\\\307\373\205\030\033YJe:\033\252"
 207      9CE2385C 
 207      C7FB8518 
 207      1B594A65 
 207      3A1BAA
 208 05bb AFE3D928 		.ascii	"\257\343\331(\037\343\271h \004\223D\203opQ\236\345"
 208      1FE3B968 
 208      20049344 
 208      836F7051 
 208      9EE5
 209 05cd A2756E76 		.ascii	"\242unvY P\002\203\022\276\256\206\017\006\371`\372"
 209      59205002 
 209      8312BEAE 
 209      860F06F9 
 209      60FA
 210 05df 46A43EC2 		.ascii	"F\244>\302\227\360\\M\270d\232\377\305\022\367\224\262"
 210      97F05C4D 
 210      B8649AFF 
 210      C512F794 
 210      B2
 211 05f0 69AFB959 		.ascii	"i\257\271Y\315\2034\203\230\020\014G\004\230\335\321"
 211      CD833483 
 211      98100C47 
 211      0498DDD1 
 212 0600 087FA7BA 		.ascii	"\010\177\247\272\375B\013\376\377f\257\343\002\241p"
ARM GAS  /tmp/cczwjAuM.s 			page 16


 212      FD420BFE 
 212      FF66AFE3 
 212      02A170
 213 060f 8467FD41 		.ascii	"\204g\375A~)\327X+\370\225X\344\371\375\012\037WL\360"
 213      7E29D758 
 213      2BF89558 
 213      E4F9FD0A 
 213      1F574CF0 
 214 0623 095C5498 		.ascii	"\011\\T\230S\013\030#\270\032\032\243|\361f}\003\275"
 214      530B1823 
 214      B81A1AA3 
 214      7CF1667D 
 214      03BD
 215 0635 9707635E 		.ascii	"\227\007c^P\206\363\344a\331\320\3644\324G!\264\276"
 215      5086F3E4 
 215      61D9D0F4 
 215      34D44721 
 215      B4BE
 216 0647 AACAA96E 		.ascii	"\252\312\251nv\301\202r\266j~\345\353e\020\001\177m"
 216      76C18272 
 216      B66A7EE5 
 216      EB651001 
 216      7F6D
 217 0659 6D10E6CC 		.ascii	"m\020\346\314\227F\3760dn\232u\357:\221d\270N\002\220"
 217      9746FE30 
 217      646E9A75 
 217      EF3A9164 
 217      B84E0290 
 218 066d 7FF8059B 		.ascii	"\177\370\005\233\307[\006\342\266\373*=^{\371\374\271"
 218      C75B06E2 
 218      B6FB2A3D 
 218      5E7BF9FC 
 218      B9
 219 067e 5EC6E7B5 		.ascii	"^\306\347\265\315\235\347\315\361x*\275eT\273\355\036"
 219      CD9DE7CD 
 219      F1782ABD 
 219      6554BBED 
 219      1E
 220 068f CF5CAFCD 		.ascii	"\317\\\257\315\263\260\312\266\330\347\261\315\361z"
 220      B3B0CAB6 
 220      D8E7B1CD 
 220      F17A
 221 069d 6D5E0FFC 		.ascii	"m^\017\374\006\207\227\313\253\274\266r\321\263r\216"
 221      068797CB 
 221      ABBCB672 
 221      D1B3728E 
 222 06ad 97592479 		.ascii	"\227Y$yM\005\373j\357\030\231fL\014\212\237\023\327"
 222      4D05FB6A 
 222      EF189966 
 222      4C0C8A9F 
 222      13D7
 223 06bf 6A174362 		.ascii	"j\027Cb\017@~\034~\377\322\306H\300\357\037\251\014"
 223      0F407E1C 
 223      7EFFD2C6 
 223      48C0EF1F 
 223      A90C
 224 06d1 4A67CC2C 		.ascii	"Jg\314,\233>:\355S\337 \271\024*wx\031C\355\340v+\217"
ARM GAS  /tmp/cczwjAuM.s 			page 17


 224      9B3E3AED 
 224      53DF20B9 
 224      142A7778 
 224      1943EDE0 
 225 06e8 97193E9E 		.ascii	"\227\031>\236\361/o\366\252&"
 225      F12F6FF6 
 225      AA26
 226              		.text
 227              		.section	.gnu.lto_.symtab.7c0e7d73c20638cf,"",%progbits
 228 0000 7374496E 		.ascii	"stInit\000\000\000\000\000\000\000\000\000\000\000\000"
 228      69740000 
 228      00000000 
 228      00000000 
 228      0000
 229 0012 A1000000 		.ascii	"\241\000\000\000stStartAlarm\000\000\000\000\000\000"
 229      73745374 
 229      61727441 
 229      6C61726D 
 229      00000000 
 230 0028 00000000 		.ascii	"\000\000\000\000\000\000\246\000\000\000stStopAlarm"
 230      0000A600 
 230      00007374 
 230      53746F70 
 230      416C6172 
 231 003d 00000000 		.ascii	"\000\000\000\000\000\000\000\000\000\000\000\000\266"
 231      00000000 
 231      00000000 
 231      B6
 232 004a 00000073 		.ascii	"\000\000\000stSetAlarm\000\000\000\000\000\000\000\000"
 232      74536574 
 232      416C6172 
 232      6D000000 
 232      00000000 
 233 005f 00000000 		.ascii	"\000\000\000\000\271\000\000\000stGetAlarm\000\000\000"
 233      B9000000 
 233      73744765 
 233      74416C61 
 233      726D0000 
 234 0074 00000000 		.ascii	"\000\000\000\000\000\000\000\000\000\275\000\000\000"
 234      00000000 
 234      00BD0000 
 234      00
 235 0081 73745F6C 		.ascii	"st_lld_init\000\000\002\000\000\000\000\000\000\000"
 235      6C645F69 
 235      6E697400 
 235      00020000 
 235      00000000 
 236 0096 0000C100 		.ascii	"\000\000\301\000\000\000"
 236      0000
 237              		.text
 238              		.section	.gnu.lto_.opts,"",%progbits
 239 0000 272D6D63 		.ascii	"'-mcpu=cortex-m4' '-mno-thumb-interwork' '-mthumb' "
 239      70753D63 
 239      6F727465 
 239      782D6D34 
 239      2720272D 
 240 0033 272D6767 		.ascii	"'-ggdb' '-O2' '-fomit-frame-pointer' '-falign-funct"
ARM GAS  /tmp/cczwjAuM.s 			page 18


 240      64622720 
 240      272D4F32 
 240      2720272D 
 240      666F6D69 
 241 0066 696F6E73 		.ascii	"ions=16' '-ffunction-sections' '-fdata-sections' '-"
 241      3D313627 
 241      20272D66 
 241      66756E63 
 241      74696F6E 
 242 0099 666E6F2D 		.ascii	"fno-common' '-flto'\000"
 242      636F6D6D 
 242      6F6E2720 
 242      272D666C 
 242      746F2700 
 243              		.text
 244              		.cfi_sections	.debug_frame
 245              		.section	.text.stInit,"ax",%progbits
 246              		.align	2
 247              		.p2align 4,,15
 248              		.global	stInit
 249              		.thumb
 250              		.thumb_func
 251              		.type	stInit, %function
 252              	stInit:
 253              	.LFB272:
 254              		.file 1 "../ChibiOS/os/hal/src/st.c"
 255              		.loc 1 60 0
 256              		.cfi_startproc
 257              		@ args = 0, pretend = 0, frame = 0
 258              		@ frame_needed = 0, uses_anonymous_args = 0
 259              		@ link register save eliminated.
 260              		.loc 1 62 0
 261 0000 FFF7FEBF 		b	st_lld_init
 262              	.LVL0:
 263              		.cfi_endproc
 264              	.LFE272:
 265              		.size	stInit, .-stInit
 266 0004 AFF30080 		.section	.text.stStartAlarm,"ax",%progbits
 266      AFF30080 
 266      AFF30080 
 267              		.align	2
 268              		.p2align 4,,15
 269              		.global	stStartAlarm
 270              		.thumb
 271              		.thumb_func
 272              		.type	stStartAlarm, %function
 273              	stStartAlarm:
 274              	.LFB273:
 275              		.loc 1 77 0
 276              		.cfi_startproc
 277              		@ args = 0, pretend = 0, frame = 0
 278              		@ frame_needed = 0, uses_anonymous_args = 0
 279              		@ link register save eliminated.
 280              	.LVL1:
 281              	.LBB10:
 282              	.LBB11:
 283              		.file 2 "../ChibiOS/os/hal/ports/STM32/LLD/TIMv1/st_lld.h"
ARM GAS  /tmp/cczwjAuM.s 			page 19


 284              		.loc 2 155 0
 285 0000 4FF08043 		mov	r3, #1073741824
 286              	.LVL2:
 287              		.loc 2 156 0
 288 0004 0021     		movs	r1, #0
 289              		.loc 2 157 0
 290 0006 0222     		movs	r2, #2
 291              		.loc 2 155 0
 292 0008 5863     		str	r0, [r3, #52]
 293              		.loc 2 156 0
 294 000a 1961     		str	r1, [r3, #16]
 295              		.loc 2 157 0
 296 000c DA60     		str	r2, [r3, #12]
 297 000e 7047     		bx	lr
 298              	.LBE11:
 299              	.LBE10:
 300              		.cfi_endproc
 301              	.LFE273:
 302              		.size	stStartAlarm, .-stStartAlarm
 303              		.section	.text.stStopAlarm,"ax",%progbits
 304              		.align	2
 305              		.p2align 4,,15
 306              		.global	stStopAlarm
 307              		.thumb
 308              		.thumb_func
 309              		.type	stStopAlarm, %function
 310              	stStopAlarm:
 311              	.LFB274:
 312              		.loc 1 91 0
 313              		.cfi_startproc
 314              		@ args = 0, pretend = 0, frame = 0
 315              		@ frame_needed = 0, uses_anonymous_args = 0
 316              		@ link register save eliminated.
 317              	.LBB12:
 318              	.LBB13:
 319              		.loc 2 167 0
 320 0000 4FF08043 		mov	r3, #1073741824
 321 0004 0022     		movs	r2, #0
 322 0006 DA60     		str	r2, [r3, #12]
 323 0008 7047     		bx	lr
 324              	.LBE13:
 325              	.LBE12:
 326              		.cfi_endproc
 327              	.LFE274:
 328              		.size	stStopAlarm, .-stStopAlarm
 329 000a 00BFAFF3 		.section	.text.stSetAlarm,"ax",%progbits
 329      0080
 330              		.align	2
 331              		.p2align 4,,15
 332              		.global	stSetAlarm
 333              		.thumb
 334              		.thumb_func
 335              		.type	stSetAlarm, %function
 336              	stSetAlarm:
 337              	.LFB275:
 338              		.loc 1 105 0
 339              		.cfi_startproc
ARM GAS  /tmp/cczwjAuM.s 			page 20


 340              		@ args = 0, pretend = 0, frame = 0
 341              		@ frame_needed = 0, uses_anonymous_args = 0
 342              		@ link register save eliminated.
 343              	.LVL3:
 344              	.LBB14:
 345              	.LBB15:
 346              		.loc 2 179 0
 347 0000 4FF08043 		mov	r3, #1073741824
 348              	.LVL4:
 349 0004 5863     		str	r0, [r3, #52]
 350 0006 7047     		bx	lr
 351              	.LBE15:
 352              	.LBE14:
 353              		.cfi_endproc
 354              	.LFE275:
 355              		.size	stSetAlarm, .-stSetAlarm
 356 0008 AFF30080 		.section	.text.stGetAlarm,"ax",%progbits
 356      AFF30080 
 357              		.align	2
 358              		.p2align 4,,15
 359              		.global	stGetAlarm
 360              		.thumb
 361              		.thumb_func
 362              		.type	stGetAlarm, %function
 363              	stGetAlarm:
 364              	.LFB276:
 365              		.loc 1 121 0
 366              		.cfi_startproc
 367              		@ args = 0, pretend = 0, frame = 0
 368              		@ frame_needed = 0, uses_anonymous_args = 0
 369              		@ link register save eliminated.
 370              	.LBB16:
 371              	.LBB17:
 372              		.loc 2 191 0
 373 0000 4FF08043 		mov	r3, #1073741824
 374 0004 586B     		ldr	r0, [r3, #52]
 375              	.LBE17:
 376              	.LBE16:
 377              		.loc 1 126 0
 378 0006 7047     		bx	lr
 379              		.cfi_endproc
 380              	.LFE276:
 381              		.size	stGetAlarm, .-stGetAlarm
 382 0008 AFF30080 		.text
 382      AFF30080 
 383              	.Letext0:
 384              		.file 3 "/nfs/nfs5/home/research/hardware/arm2/gcc-arm-embedded/gcc-arm-none-eabi-4_8-2014q2/arm-n
 385              		.file 4 "/nfs/nfs5/home/research/hardware/arm2/gcc-arm-embedded/gcc-arm-none-eabi-4_8-2014q2/arm-n
 386              		.file 5 "../ChibiOS/os/rt/ports/ARMCMx/compilers/GCC/chtypes.h"
 387              		.file 6 "../ChibiOS/os/rt/include/chsystypes.h"
 388              		.file 7 "../ChibiOS/os/rt/include/chschd.h"
 389              		.file 8 "../ChibiOS/os/rt/ports/ARMCMx/chcore.h"
 390              		.file 9 "../ChibiOS/os/rt/ports/ARMCMx/chcore_v7m.h"
 391              		.file 10 "../ChibiOS/os/hal/ports/STM32/LLD/TIMv1/stm32_tim.h"
 392              		.file 11 "../ChibiOS/os/rt/include/chtm.h"
 393              		.file 12 "../ChibiOS/os/rt/include/chsem.h"
 394              		.file 13 "../ChibiOS/os/rt/include/chmtx.h"
ARM GAS  /tmp/cczwjAuM.s 			page 21


 395              		.file 14 "../ChibiOS/os/ext/CMSIS/include/core_cm4.h"
 396              		.section	.debug_info,"",%progbits
 397              	.Ldebug_info0:
 398 0000 F2080000 		.4byte	0x8f2
 399 0004 0400     		.2byte	0x4
 400 0006 00000000 		.4byte	.Ldebug_abbrev0
 401 000a 04       		.byte	0x4
 402 000b 01       		.uleb128 0x1
 403 000c F1040000 		.4byte	.LASF124
 404 0010 01       		.byte	0x1
 405 0011 4D000000 		.4byte	.LASF125
 406 0015 C9030000 		.4byte	.LASF126
 407 0019 00000000 		.4byte	.Ldebug_ranges0+0
 408 001d 00000000 		.4byte	0
 409 0021 00000000 		.4byte	.Ldebug_line0
 410 0025 02       		.uleb128 0x2
 411 0026 04       		.byte	0x4
 412 0027 05       		.byte	0x5
 413 0028 696E7400 		.ascii	"int\000"
 414 002c 03       		.uleb128 0x3
 415 002d 04       		.byte	0x4
 416 002e 07       		.byte	0x7
 417 002f BA010000 		.4byte	.LASF0
 418 0033 03       		.uleb128 0x3
 419 0034 01       		.byte	0x1
 420 0035 06       		.byte	0x6
 421 0036 F9000000 		.4byte	.LASF1
 422 003a 04       		.uleb128 0x4
 423 003b 28000000 		.4byte	.LASF5
 424 003f 03       		.byte	0x3
 425 0040 1C       		.byte	0x1c
 426 0041 45000000 		.4byte	0x45
 427 0045 03       		.uleb128 0x3
 428 0046 01       		.byte	0x1
 429 0047 08       		.byte	0x8
 430 0048 3A030000 		.4byte	.LASF2
 431 004c 03       		.uleb128 0x3
 432 004d 02       		.byte	0x2
 433 004e 05       		.byte	0x5
 434 004f 52030000 		.4byte	.LASF3
 435 0053 03       		.uleb128 0x3
 436 0054 02       		.byte	0x2
 437 0055 07       		.byte	0x7
 438 0056 5B010000 		.4byte	.LASF4
 439 005a 04       		.uleb128 0x4
 440 005b 2E020000 		.4byte	.LASF6
 441 005f 03       		.byte	0x3
 442 0060 37       		.byte	0x37
 443 0061 65000000 		.4byte	0x65
 444 0065 03       		.uleb128 0x3
 445 0066 04       		.byte	0x4
 446 0067 05       		.byte	0x5
 447 0068 1E010000 		.4byte	.LASF7
 448 006c 04       		.uleb128 0x4
 449 006d 6E040000 		.4byte	.LASF8
 450 0071 03       		.byte	0x3
 451 0072 38       		.byte	0x38
ARM GAS  /tmp/cczwjAuM.s 			page 22


 452 0073 77000000 		.4byte	0x77
 453 0077 03       		.uleb128 0x3
 454 0078 04       		.byte	0x4
 455 0079 07       		.byte	0x7
 456 007a 11040000 		.4byte	.LASF9
 457 007e 03       		.uleb128 0x3
 458 007f 08       		.byte	0x8
 459 0080 05       		.byte	0x5
 460 0081 3D010000 		.4byte	.LASF10
 461 0085 04       		.uleb128 0x4
 462 0086 EA020000 		.4byte	.LASF11
 463 008a 03       		.byte	0x3
 464 008b 4E       		.byte	0x4e
 465 008c 90000000 		.4byte	0x90
 466 0090 03       		.uleb128 0x3
 467 0091 08       		.byte	0x8
 468 0092 07       		.byte	0x7
 469 0093 68000000 		.4byte	.LASF12
 470 0097 04       		.uleb128 0x4
 471 0098 79030000 		.4byte	.LASF13
 472 009c 04       		.byte	0x4
 473 009d 2A       		.byte	0x2a
 474 009e 3A000000 		.4byte	0x3a
 475 00a2 04       		.uleb128 0x4
 476 00a3 32030000 		.4byte	.LASF14
 477 00a7 04       		.byte	0x4
 478 00a8 41       		.byte	0x41
 479 00a9 5A000000 		.4byte	0x5a
 480 00ad 04       		.uleb128 0x4
 481 00ae C0030000 		.4byte	.LASF15
 482 00b2 04       		.byte	0x4
 483 00b3 42       		.byte	0x42
 484 00b4 6C000000 		.4byte	0x6c
 485 00b8 04       		.uleb128 0x4
 486 00b9 1F000000 		.4byte	.LASF16
 487 00bd 04       		.byte	0x4
 488 00be 4E       		.byte	0x4e
 489 00bf 85000000 		.4byte	0x85
 490 00c3 04       		.uleb128 0x4
 491 00c4 9F040000 		.4byte	.LASF17
 492 00c8 05       		.byte	0x5
 493 00c9 39       		.byte	0x39
 494 00ca AD000000 		.4byte	0xad
 495 00ce 04       		.uleb128 0x4
 496 00cf 27010000 		.4byte	.LASF18
 497 00d3 05       		.byte	0x5
 498 00d4 3C       		.byte	0x3c
 499 00d5 97000000 		.4byte	0x97
 500 00d9 04       		.uleb128 0x4
 501 00da 2F010000 		.4byte	.LASF19
 502 00de 05       		.byte	0x5
 503 00df 3D       		.byte	0x3d
 504 00e0 97000000 		.4byte	0x97
 505 00e4 04       		.uleb128 0x4
 506 00e5 F5020000 		.4byte	.LASF20
 507 00e9 05       		.byte	0x5
 508 00ea 3E       		.byte	0x3e
ARM GAS  /tmp/cczwjAuM.s 			page 23


 509 00eb 97000000 		.4byte	0x97
 510 00ef 04       		.uleb128 0x4
 511 00f0 14030000 		.4byte	.LASF21
 512 00f4 05       		.byte	0x5
 513 00f5 40       		.byte	0x40
 514 00f6 AD000000 		.4byte	0xad
 515 00fa 04       		.uleb128 0x4
 516 00fb F6010000 		.4byte	.LASF22
 517 00ff 05       		.byte	0x5
 518 0100 41       		.byte	0x41
 519 0101 A2000000 		.4byte	0xa2
 520 0105 04       		.uleb128 0x4
 521 0106 22020000 		.4byte	.LASF23
 522 010a 05       		.byte	0x5
 523 010b 43       		.byte	0x43
 524 010c AD000000 		.4byte	0xad
 525 0110 04       		.uleb128 0x4
 526 0111 B4010000 		.4byte	.LASF24
 527 0115 05       		.byte	0x5
 528 0116 45       		.byte	0x45
 529 0117 A2000000 		.4byte	0xa2
 530 011b 04       		.uleb128 0x4
 531 011c 50040000 		.4byte	.LASF25
 532 0120 06       		.byte	0x6
 533 0121 33       		.byte	0x33
 534 0122 AD000000 		.4byte	0xad
 535 0126 04       		.uleb128 0x4
 536 0127 40040000 		.4byte	.LASF26
 537 012b 06       		.byte	0x6
 538 012c 3F       		.byte	0x3f
 539 012d 31010000 		.4byte	0x131
 540 0131 05       		.uleb128 0x5
 541 0132 EC010000 		.4byte	.LASF45
 542 0136 40       		.byte	0x40
 543 0137 07       		.byte	0x7
 544 0138 C2       		.byte	0xc2
 545 0139 11020000 		.4byte	0x211
 546 013d 06       		.uleb128 0x6
 547 013e 72030000 		.4byte	.LASF27
 548 0142 07       		.byte	0x7
 549 0143 C3       		.byte	0xc3
 550 0144 1C020000 		.4byte	0x21c
 551 0148 00       		.byte	0
 552 0149 06       		.uleb128 0x6
 553 014a 0D030000 		.4byte	.LASF28
 554 014e 07       		.byte	0x7
 555 014f C5       		.byte	0xc5
 556 0150 1C020000 		.4byte	0x21c
 557 0154 04       		.byte	0x4
 558 0155 06       		.uleb128 0x6
 559 0156 E0000000 		.4byte	.LASF29
 560 015a 07       		.byte	0x7
 561 015b C7       		.byte	0xc7
 562 015c EF000000 		.4byte	0xef
 563 0160 08       		.byte	0x8
 564 0161 06       		.uleb128 0x6
 565 0162 30060000 		.4byte	.LASF30
ARM GAS  /tmp/cczwjAuM.s 			page 24


 566 0166 07       		.byte	0x7
 567 0167 C8       		.byte	0xc8
 568 0168 71040000 		.4byte	0x471
 569 016c 0C       		.byte	0xc
 570 016d 06       		.uleb128 0x6
 571 016e 4B010000 		.4byte	.LASF31
 572 0172 07       		.byte	0x7
 573 0173 CA       		.byte	0xca
 574 0174 1C020000 		.4byte	0x21c
 575 0178 10       		.byte	0x10
 576 0179 06       		.uleb128 0x6
 577 017a AD020000 		.4byte	.LASF32
 578 017e 07       		.byte	0x7
 579 017f CB       		.byte	0xcb
 580 0180 1C020000 		.4byte	0x21c
 581 0184 14       		.byte	0x14
 582 0185 06       		.uleb128 0x6
 583 0186 E3050000 		.4byte	.LASF33
 584 018a 07       		.byte	0x7
 585 018b D2       		.byte	0xd2
 586 018c 1E070000 		.4byte	0x71e
 587 0190 18       		.byte	0x18
 588 0191 06       		.uleb128 0x6
 589 0192 5C030000 		.4byte	.LASF34
 590 0196 07       		.byte	0x7
 591 0197 DD       		.byte	0xdd
 592 0198 D9000000 		.4byte	0xd9
 593 019c 1C       		.byte	0x1c
 594 019d 06       		.uleb128 0x6
 595 019e 0F060000 		.4byte	.LASF35
 596 01a2 07       		.byte	0x7
 597 01a3 E1       		.byte	0xe1
 598 01a4 CE000000 		.4byte	0xce
 599 01a8 1D       		.byte	0x1d
 600 01a9 06       		.uleb128 0x6
 601 01aa D9040000 		.4byte	.LASF36
 602 01ae 07       		.byte	0x7
 603 01af E6       		.byte	0xe6
 604 01b0 E4000000 		.4byte	0xe4
 605 01b4 1E       		.byte	0x1e
 606 01b5 07       		.uleb128 0x7
 607 01b6 705F7500 		.ascii	"p_u\000"
 608 01ba 07       		.byte	0x7
 609 01bb 3701     		.2byte	0x137
 610 01bd 4D060000 		.4byte	0x64d
 611 01c1 20       		.byte	0x20
 612 01c2 08       		.uleb128 0x8
 613 01c3 56020000 		.4byte	.LASF37
 614 01c7 07       		.byte	0x7
 615 01c8 3C01     		.2byte	0x13c
 616 01ca 22020000 		.4byte	0x222
 617 01ce 24       		.byte	0x24
 618 01cf 08       		.uleb128 0x8
 619 01d0 D6010000 		.4byte	.LASF38
 620 01d4 07       		.byte	0x7
 621 01d5 4201     		.2byte	0x142
 622 01d7 46020000 		.4byte	0x246
ARM GAS  /tmp/cczwjAuM.s 			page 25


 623 01db 28       		.byte	0x28
 624 01dc 08       		.uleb128 0x8
 625 01dd B5030000 		.4byte	.LASF39
 626 01e1 07       		.byte	0x7
 627 01e2 4801     		.2byte	0x148
 628 01e4 05010000 		.4byte	0x105
 629 01e8 30       		.byte	0x30
 630 01e9 08       		.uleb128 0x8
 631 01ea 48030000 		.4byte	.LASF40
 632 01ee 07       		.byte	0x7
 633 01ef 4F01     		.2byte	0x14f
 634 01f1 18070000 		.4byte	0x718
 635 01f5 34       		.byte	0x34
 636 01f6 08       		.uleb128 0x8
 637 01f7 5A040000 		.4byte	.LASF41
 638 01fb 07       		.byte	0x7
 639 01fc 5301     		.2byte	0x153
 640 01fe EF000000 		.4byte	0xef
 641 0202 38       		.byte	0x38
 642 0203 08       		.uleb128 0x8
 643 0204 84010000 		.4byte	.LASF42
 644 0208 07       		.byte	0x7
 645 0209 5A01     		.2byte	0x15a
 646 020b F9020000 		.4byte	0x2f9
 647 020f 3C       		.byte	0x3c
 648 0210 00       		.byte	0
 649 0211 04       		.uleb128 0x4
 650 0212 69020000 		.4byte	.LASF43
 651 0216 06       		.byte	0x6
 652 0217 44       		.byte	0x44
 653 0218 1C020000 		.4byte	0x21c
 654 021c 09       		.uleb128 0x9
 655 021d 04       		.byte	0x4
 656 021e 26010000 		.4byte	0x126
 657 0222 04       		.uleb128 0x4
 658 0223 F8050000 		.4byte	.LASF44
 659 0227 06       		.byte	0x6
 660 0228 49       		.byte	0x49
 661 0229 2D020000 		.4byte	0x22d
 662 022d 05       		.uleb128 0x5
 663 022e 01040000 		.4byte	.LASF46
 664 0232 04       		.byte	0x4
 665 0233 07       		.byte	0x7
 666 0234 B0       		.byte	0xb0
 667 0235 46020000 		.4byte	0x246
 668 0239 06       		.uleb128 0x6
 669 023a 72030000 		.4byte	.LASF27
 670 023e 07       		.byte	0x7
 671 023f B1       		.byte	0xb1
 672 0240 1C020000 		.4byte	0x21c
 673 0244 00       		.byte	0
 674 0245 00       		.byte	0
 675 0246 04       		.uleb128 0x4
 676 0247 C0040000 		.4byte	.LASF47
 677 024b 06       		.byte	0x6
 678 024c 50       		.byte	0x50
 679 024d 51020000 		.4byte	0x251
ARM GAS  /tmp/cczwjAuM.s 			page 26


 680 0251 05       		.uleb128 0x5
 681 0252 CF000000 		.4byte	.LASF48
 682 0256 08       		.byte	0x8
 683 0257 07       		.byte	0x7
 684 0258 B7       		.byte	0xb7
 685 0259 76020000 		.4byte	0x276
 686 025d 06       		.uleb128 0x6
 687 025e 72030000 		.4byte	.LASF27
 688 0262 07       		.byte	0x7
 689 0263 B8       		.byte	0xb8
 690 0264 1C020000 		.4byte	0x21c
 691 0268 00       		.byte	0
 692 0269 06       		.uleb128 0x6
 693 026a 0D030000 		.4byte	.LASF28
 694 026e 07       		.byte	0x7
 695 026f B9       		.byte	0xb9
 696 0270 1C020000 		.4byte	0x21c
 697 0274 04       		.byte	0x4
 698 0275 00       		.byte	0
 699 0276 04       		.uleb128 0x4
 700 0277 00000000 		.4byte	.LASF49
 701 027b 06       		.byte	0x6
 702 027c 57       		.byte	0x57
 703 027d 81020000 		.4byte	0x281
 704 0281 0A       		.uleb128 0xa
 705 0282 14020000 		.4byte	.LASF50
 706 0286 1C       		.byte	0x1c
 707 0287 07       		.byte	0x7
 708 0288 9201     		.2byte	0x192
 709 028a DD020000 		.4byte	0x2dd
 710 028e 08       		.uleb128 0x8
 711 028f F0030000 		.4byte	.LASF51
 712 0293 07       		.byte	0x7
 713 0294 9301     		.2byte	0x193
 714 0296 46020000 		.4byte	0x246
 715 029a 00       		.byte	0
 716 029b 08       		.uleb128 0x8
 717 029c 64030000 		.4byte	.LASF52
 718 02a0 07       		.byte	0x7
 719 02a1 9401     		.2byte	0x194
 720 02a3 EF000000 		.4byte	0xef
 721 02a7 08       		.byte	0x8
 722 02a8 08       		.uleb128 0x8
 723 02a9 BC020000 		.4byte	.LASF53
 724 02ad 07       		.byte	0x7
 725 02ae 9601     		.2byte	0x196
 726 02b0 71040000 		.4byte	0x471
 727 02b4 0C       		.byte	0xc
 728 02b5 08       		.uleb128 0x8
 729 02b6 7C010000 		.4byte	.LASF54
 730 02ba 07       		.byte	0x7
 731 02bb 9901     		.2byte	0x199
 732 02bd 1C020000 		.4byte	0x21c
 733 02c1 10       		.byte	0x10
 734 02c2 08       		.uleb128 0x8
 735 02c3 E2020000 		.4byte	.LASF55
 736 02c7 07       		.byte	0x7
ARM GAS  /tmp/cczwjAuM.s 			page 27


 737 02c8 9A01     		.2byte	0x19a
 738 02ca 1C020000 		.4byte	0x21c
 739 02ce 14       		.byte	0x14
 740 02cf 08       		.uleb128 0x8
 741 02d0 D8020000 		.4byte	.LASF56
 742 02d4 07       		.byte	0x7
 743 02d5 9D01     		.2byte	0x19d
 744 02d7 1C020000 		.4byte	0x21c
 745 02db 18       		.byte	0x18
 746 02dc 00       		.byte	0
 747 02dd 04       		.uleb128 0x4
 748 02de 65040000 		.4byte	.LASF57
 749 02e2 06       		.byte	0x6
 750 02e3 5C       		.byte	0x5c
 751 02e4 E8020000 		.4byte	0x2e8
 752 02e8 09       		.uleb128 0x9
 753 02e9 04       		.byte	0x4
 754 02ea EE020000 		.4byte	0x2ee
 755 02ee 0B       		.uleb128 0xb
 756 02ef F9020000 		.4byte	0x2f9
 757 02f3 0C       		.uleb128 0xc
 758 02f4 F9020000 		.4byte	0x2f9
 759 02f8 00       		.byte	0
 760 02f9 0D       		.uleb128 0xd
 761 02fa 04       		.byte	0x4
 762 02fb 04       		.uleb128 0x4
 763 02fc FD020000 		.4byte	.LASF58
 764 0300 06       		.byte	0x6
 765 0301 61       		.byte	0x61
 766 0302 06030000 		.4byte	0x306
 767 0306 0A       		.uleb128 0xa
 768 0307 81030000 		.4byte	.LASF59
 769 030b 14       		.byte	0x14
 770 030c 07       		.byte	0x7
 771 030d 6D01     		.2byte	0x16d
 772 030f 55030000 		.4byte	0x355
 773 0313 08       		.uleb128 0x8
 774 0314 C7010000 		.4byte	.LASF60
 775 0318 07       		.byte	0x7
 776 0319 6E01     		.2byte	0x16e
 777 031b 30070000 		.4byte	0x730
 778 031f 00       		.byte	0
 779 0320 08       		.uleb128 0x8
 780 0321 95010000 		.4byte	.LASF61
 781 0325 07       		.byte	0x7
 782 0326 6F01     		.2byte	0x16f
 783 0328 30070000 		.4byte	0x730
 784 032c 04       		.byte	0x4
 785 032d 08       		.uleb128 0x8
 786 032e F8030000 		.4byte	.LASF62
 787 0332 07       		.byte	0x7
 788 0333 7001     		.2byte	0x170
 789 0335 1B010000 		.4byte	0x11b
 790 0339 08       		.byte	0x8
 791 033a 08       		.uleb128 0x8
 792 033b 36060000 		.4byte	.LASF63
 793 033f 07       		.byte	0x7
ARM GAS  /tmp/cczwjAuM.s 			page 28


 794 0340 7101     		.2byte	0x171
 795 0342 DD020000 		.4byte	0x2dd
 796 0346 0C       		.byte	0xc
 797 0347 08       		.uleb128 0x8
 798 0348 B9040000 		.4byte	.LASF64
 799 034c 07       		.byte	0x7
 800 034d 7301     		.2byte	0x173
 801 034f F9020000 		.4byte	0x2f9
 802 0353 10       		.byte	0x10
 803 0354 00       		.byte	0
 804 0355 04       		.uleb128 0x4
 805 0356 9B000000 		.4byte	.LASF65
 806 035a 06       		.byte	0x6
 807 035b 66       		.byte	0x66
 808 035c 60030000 		.4byte	0x360
 809 0360 0A       		.uleb128 0xa
 810 0361 7C020000 		.4byte	.LASF66
 811 0365 10       		.byte	0x10
 812 0366 07       		.byte	0x7
 813 0367 7D01     		.2byte	0x17d
 814 0369 A2030000 		.4byte	0x3a2
 815 036d 08       		.uleb128 0x8
 816 036e C7010000 		.4byte	.LASF60
 817 0372 07       		.byte	0x7
 818 0373 7E01     		.2byte	0x17e
 819 0375 30070000 		.4byte	0x730
 820 0379 00       		.byte	0
 821 037a 08       		.uleb128 0x8
 822 037b 95010000 		.4byte	.LASF61
 823 037f 07       		.byte	0x7
 824 0380 8001     		.2byte	0x180
 825 0382 30070000 		.4byte	0x730
 826 0386 04       		.byte	0x4
 827 0387 08       		.uleb128 0x8
 828 0388 F8030000 		.4byte	.LASF62
 829 038c 07       		.byte	0x7
 830 038d 8201     		.2byte	0x182
 831 038f 1B010000 		.4byte	0x11b
 832 0393 08       		.byte	0x8
 833 0394 08       		.uleb128 0x8
 834 0395 A1020000 		.4byte	.LASF67
 835 0399 07       		.byte	0x7
 836 039a 8A01     		.2byte	0x18a
 837 039c 1B010000 		.4byte	0x11b
 838 03a0 0C       		.byte	0xc
 839 03a1 00       		.byte	0
 840 03a2 04       		.uleb128 0x4
 841 03a3 3E000000 		.4byte	.LASF68
 842 03a7 06       		.byte	0x6
 843 03a8 6B       		.byte	0x6b
 844 03a9 AD030000 		.4byte	0x3ad
 845 03ad 0A       		.uleb128 0xa
 846 03ae 1C030000 		.4byte	.LASF69
 847 03b2 04       		.byte	0x4
 848 03b3 07       		.byte	0x7
 849 03b4 A401     		.2byte	0x1a4
 850 03b6 C8030000 		.4byte	0x3c8
ARM GAS  /tmp/cczwjAuM.s 			page 29


 851 03ba 08       		.uleb128 0x8
 852 03bb 79040000 		.4byte	.LASF70
 853 03bf 07       		.byte	0x7
 854 03c0 AC01     		.2byte	0x1ac
 855 03c2 36070000 		.4byte	0x736
 856 03c6 00       		.byte	0
 857 03c7 00       		.byte	0
 858 03c8 04       		.uleb128 0x4
 859 03c9 FC010000 		.4byte	.LASF71
 860 03cd 06       		.byte	0x6
 861 03ce 70       		.byte	0x70
 862 03cf D3030000 		.4byte	0x3d3
 863 03d3 0E       		.uleb128 0xe
 864 03d4 14010000 		.4byte	.LASF72
 865 03d8 5001     		.2byte	0x150
 866 03da 07       		.byte	0x7
 867 03db C401     		.2byte	0x1c4
 868 03dd 2F040000 		.4byte	0x42f
 869 03e1 08       		.uleb128 0x8
 870 03e2 E0040000 		.4byte	.LASF73
 871 03e6 07       		.byte	0x7
 872 03e7 C801     		.2byte	0x1c8
 873 03e9 76020000 		.4byte	0x276
 874 03ed 00       		.byte	0
 875 03ee 08       		.uleb128 0x8
 876 03ef 0D010000 		.4byte	.LASF74
 877 03f3 07       		.byte	0x7
 878 03f4 CC01     		.2byte	0x1cc
 879 03f6 55030000 		.4byte	0x355
 880 03fa 1C       		.byte	0x1c
 881 03fb 07       		.uleb128 0x7
 882 03fc 64626700 		.ascii	"dbg\000"
 883 0400 07       		.byte	0x7
 884 0401 D001     		.2byte	0x1d0
 885 0403 A2030000 		.4byte	0x3a2
 886 0407 2C       		.byte	0x2c
 887 0408 08       		.uleb128 0x8
 888 0409 88000000 		.4byte	.LASF75
 889 040d 07       		.byte	0x7
 890 040e D401     		.2byte	0x1d4
 891 0410 26010000 		.4byte	0x126
 892 0414 30       		.byte	0x30
 893 0415 07       		.uleb128 0x7
 894 0416 746D00   		.ascii	"tm\000"
 895 0419 07       		.byte	0x7
 896 041a D901     		.2byte	0x1d9
 897 041c 42060000 		.4byte	0x642
 898 0420 70       		.byte	0x70
 899 0421 08       		.uleb128 0x8
 900 0422 A5010000 		.4byte	.LASF76
 901 0426 07       		.byte	0x7
 902 0427 E501     		.2byte	0x1e5
 903 0429 3B070000 		.4byte	0x73b
 904 042d 78       		.byte	0x78
 905 042e 00       		.byte	0
 906 042f 03       		.uleb128 0x3
 907 0430 04       		.byte	0x4
ARM GAS  /tmp/cczwjAuM.s 			page 30


 908 0431 07       		.byte	0x7
 909 0432 60020000 		.4byte	.LASF77
 910 0436 0F       		.uleb128 0xf
 911 0437 AD000000 		.4byte	0xad
 912 043b 10       		.uleb128 0x10
 913 043c AD000000 		.4byte	0xad
 914 0440 4B040000 		.4byte	0x44b
 915 0444 11       		.uleb128 0x11
 916 0445 2F040000 		.4byte	0x42f
 917 0449 01       		.byte	0x1
 918 044a 00       		.byte	0
 919 044b 10       		.uleb128 0x10
 920 044c AD000000 		.4byte	0xad
 921 0450 5B040000 		.4byte	0x45b
 922 0454 11       		.uleb128 0x11
 923 0455 2F040000 		.4byte	0x42f
 924 0459 03       		.byte	0x3
 925 045a 00       		.byte	0
 926 045b 04       		.uleb128 0x4
 927 045c 8C010000 		.4byte	.LASF78
 928 0460 08       		.byte	0x8
 929 0461 65       		.byte	0x65
 930 0462 F9020000 		.4byte	0x2f9
 931 0466 04       		.uleb128 0x4
 932 0467 4B020000 		.4byte	.LASF79
 933 046b 08       		.byte	0x8
 934 046c 6D       		.byte	0x6d
 935 046d B8000000 		.4byte	0xb8
 936 0471 05       		.uleb128 0x5
 937 0472 97040000 		.4byte	.LASF80
 938 0476 04       		.byte	0x4
 939 0477 08       		.byte	0x8
 940 0478 89       		.byte	0x89
 941 0479 8A040000 		.4byte	0x48a
 942 047d 12       		.uleb128 0x12
 943 047e 72313300 		.ascii	"r13\000"
 944 0482 08       		.byte	0x8
 945 0483 8A       		.byte	0x8a
 946 0484 05050000 		.4byte	0x505
 947 0488 00       		.byte	0
 948 0489 00       		.byte	0
 949 048a 05       		.uleb128 0x5
 950 048b 32000000 		.4byte	.LASF81
 951 048f 24       		.byte	0x24
 952 0490 09       		.byte	0x9
 953 0491 FD       		.byte	0xfd
 954 0492 05050000 		.4byte	0x505
 955 0496 07       		.uleb128 0x7
 956 0497 723400   		.ascii	"r4\000"
 957 049a 09       		.byte	0x9
 958 049b 1001     		.2byte	0x110
 959 049d 5B040000 		.4byte	0x45b
 960 04a1 00       		.byte	0
 961 04a2 07       		.uleb128 0x7
 962 04a3 723500   		.ascii	"r5\000"
 963 04a6 09       		.byte	0x9
 964 04a7 1101     		.2byte	0x111
ARM GAS  /tmp/cczwjAuM.s 			page 31


 965 04a9 5B040000 		.4byte	0x45b
 966 04ad 04       		.byte	0x4
 967 04ae 07       		.uleb128 0x7
 968 04af 723600   		.ascii	"r6\000"
 969 04b2 09       		.byte	0x9
 970 04b3 1201     		.2byte	0x112
 971 04b5 5B040000 		.4byte	0x45b
 972 04b9 08       		.byte	0x8
 973 04ba 07       		.uleb128 0x7
 974 04bb 723700   		.ascii	"r7\000"
 975 04be 09       		.byte	0x9
 976 04bf 1301     		.2byte	0x113
 977 04c1 5B040000 		.4byte	0x45b
 978 04c5 0C       		.byte	0xc
 979 04c6 07       		.uleb128 0x7
 980 04c7 723800   		.ascii	"r8\000"
 981 04ca 09       		.byte	0x9
 982 04cb 1401     		.2byte	0x114
 983 04cd 5B040000 		.4byte	0x45b
 984 04d1 10       		.byte	0x10
 985 04d2 07       		.uleb128 0x7
 986 04d3 723900   		.ascii	"r9\000"
 987 04d6 09       		.byte	0x9
 988 04d7 1501     		.2byte	0x115
 989 04d9 5B040000 		.4byte	0x45b
 990 04dd 14       		.byte	0x14
 991 04de 07       		.uleb128 0x7
 992 04df 72313000 		.ascii	"r10\000"
 993 04e3 09       		.byte	0x9
 994 04e4 1601     		.2byte	0x116
 995 04e6 5B040000 		.4byte	0x45b
 996 04ea 18       		.byte	0x18
 997 04eb 07       		.uleb128 0x7
 998 04ec 72313100 		.ascii	"r11\000"
 999 04f0 09       		.byte	0x9
 1000 04f1 1701     		.2byte	0x117
 1001 04f3 5B040000 		.4byte	0x45b
 1002 04f7 1C       		.byte	0x1c
 1003 04f8 07       		.uleb128 0x7
 1004 04f9 6C7200   		.ascii	"lr\000"
 1005 04fc 09       		.byte	0x9
 1006 04fd 1801     		.2byte	0x118
 1007 04ff 5B040000 		.4byte	0x45b
 1008 0503 20       		.byte	0x20
 1009 0504 00       		.byte	0
 1010 0505 09       		.uleb128 0x9
 1011 0506 04       		.byte	0x4
 1012 0507 8A040000 		.4byte	0x48a
 1013 050b 13       		.uleb128 0x13
 1014 050c 60       		.byte	0x60
 1015 050d 0A       		.byte	0xa
 1016 050e A101     		.2byte	0x1a1
 1017 0510 17060000 		.4byte	0x617
 1018 0514 07       		.uleb128 0x7
 1019 0515 43523100 		.ascii	"CR1\000"
 1020 0519 0A       		.byte	0xa
 1021 051a A201     		.2byte	0x1a2
ARM GAS  /tmp/cczwjAuM.s 			page 32


 1022 051c 36040000 		.4byte	0x436
 1023 0520 00       		.byte	0
 1024 0521 07       		.uleb128 0x7
 1025 0522 43523200 		.ascii	"CR2\000"
 1026 0526 0A       		.byte	0xa
 1027 0527 A301     		.2byte	0x1a3
 1028 0529 36040000 		.4byte	0x436
 1029 052d 04       		.byte	0x4
 1030 052e 08       		.uleb128 0x8
 1031 052f E7010000 		.4byte	.LASF82
 1032 0533 0A       		.byte	0xa
 1033 0534 A401     		.2byte	0x1a4
 1034 0536 36040000 		.4byte	0x436
 1035 053a 08       		.byte	0x8
 1036 053b 08       		.uleb128 0x8
 1037 053c 0D000000 		.4byte	.LASF83
 1038 0540 0A       		.byte	0xa
 1039 0541 A501     		.2byte	0x1a5
 1040 0543 36040000 		.4byte	0x436
 1041 0547 0C       		.byte	0xc
 1042 0548 07       		.uleb128 0x7
 1043 0549 535200   		.ascii	"SR\000"
 1044 054c 0A       		.byte	0xa
 1045 054d A601     		.2byte	0x1a6
 1046 054f 36040000 		.4byte	0x436
 1047 0553 10       		.byte	0x10
 1048 0554 07       		.uleb128 0x7
 1049 0555 45475200 		.ascii	"EGR\000"
 1050 0559 0A       		.byte	0xa
 1051 055a A701     		.2byte	0x1a7
 1052 055c 36040000 		.4byte	0x436
 1053 0560 14       		.byte	0x14
 1054 0561 08       		.uleb128 0x8
 1055 0562 E7000000 		.4byte	.LASF84
 1056 0566 0A       		.byte	0xa
 1057 0567 A801     		.2byte	0x1a8
 1058 0569 36040000 		.4byte	0x436
 1059 056d 18       		.byte	0x18
 1060 056e 08       		.uleb128 0x8
 1061 056f ED000000 		.4byte	.LASF85
 1062 0573 0A       		.byte	0xa
 1063 0574 A901     		.2byte	0x1a9
 1064 0576 36040000 		.4byte	0x436
 1065 057a 1C       		.byte	0x1c
 1066 057b 08       		.uleb128 0x8
 1067 057c 38010000 		.4byte	.LASF86
 1068 0580 0A       		.byte	0xa
 1069 0581 AA01     		.2byte	0x1aa
 1070 0583 36040000 		.4byte	0x436
 1071 0587 20       		.byte	0x20
 1072 0588 07       		.uleb128 0x7
 1073 0589 434E5400 		.ascii	"CNT\000"
 1074 058d 0A       		.byte	0xa
 1075 058e AB01     		.2byte	0x1ab
 1076 0590 36040000 		.4byte	0x436
 1077 0594 24       		.byte	0x24
 1078 0595 07       		.uleb128 0x7
ARM GAS  /tmp/cczwjAuM.s 			page 33


 1079 0596 50534300 		.ascii	"PSC\000"
 1080 059a 0A       		.byte	0xa
 1081 059b AC01     		.2byte	0x1ac
 1082 059d 36040000 		.4byte	0x436
 1083 05a1 28       		.byte	0x28
 1084 05a2 07       		.uleb128 0x7
 1085 05a3 41525200 		.ascii	"ARR\000"
 1086 05a7 0A       		.byte	0xa
 1087 05a8 AD01     		.2byte	0x1ad
 1088 05aa 36040000 		.4byte	0x436
 1089 05ae 2C       		.byte	0x2c
 1090 05af 07       		.uleb128 0x7
 1091 05b0 52435200 		.ascii	"RCR\000"
 1092 05b4 0A       		.byte	0xa
 1093 05b5 AE01     		.2byte	0x1ae
 1094 05b7 36040000 		.4byte	0x436
 1095 05bb 30       		.byte	0x30
 1096 05bc 07       		.uleb128 0x7
 1097 05bd 43435200 		.ascii	"CCR\000"
 1098 05c1 0A       		.byte	0xa
 1099 05c2 AF01     		.2byte	0x1af
 1100 05c4 17060000 		.4byte	0x617
 1101 05c8 34       		.byte	0x34
 1102 05c9 08       		.uleb128 0x8
 1103 05ca CA000000 		.4byte	.LASF87
 1104 05ce 0A       		.byte	0xa
 1105 05cf B001     		.2byte	0x1b0
 1106 05d1 36040000 		.4byte	0x436
 1107 05d5 44       		.byte	0x44
 1108 05d6 07       		.uleb128 0x7
 1109 05d7 44435200 		.ascii	"DCR\000"
 1110 05db 0A       		.byte	0xa
 1111 05dc B101     		.2byte	0x1b1
 1112 05de 36040000 		.4byte	0x436
 1113 05e2 48       		.byte	0x48
 1114 05e3 08       		.uleb128 0x8
 1115 05e4 3B040000 		.4byte	.LASF88
 1116 05e8 0A       		.byte	0xa
 1117 05e9 B201     		.2byte	0x1b2
 1118 05eb 36040000 		.4byte	0x436
 1119 05ef 4C       		.byte	0x4c
 1120 05f0 07       		.uleb128 0x7
 1121 05f1 4F5200   		.ascii	"OR\000"
 1122 05f4 0A       		.byte	0xa
 1123 05f5 B301     		.2byte	0x1b3
 1124 05f7 36040000 		.4byte	0x436
 1125 05fb 50       		.byte	0x50
 1126 05fc 08       		.uleb128 0x8
 1127 05fd F3000000 		.4byte	.LASF89
 1128 0601 0A       		.byte	0xa
 1129 0602 B401     		.2byte	0x1b4
 1130 0604 36040000 		.4byte	0x436
 1131 0608 54       		.byte	0x54
 1132 0609 08       		.uleb128 0x8
 1133 060a B0030000 		.4byte	.LASF90
 1134 060e 0A       		.byte	0xa
 1135 060f B501     		.2byte	0x1b5
ARM GAS  /tmp/cczwjAuM.s 			page 34


 1136 0611 1C060000 		.4byte	0x61c
 1137 0615 58       		.byte	0x58
 1138 0616 00       		.byte	0
 1139 0617 0F       		.uleb128 0xf
 1140 0618 4B040000 		.4byte	0x44b
 1141 061c 0F       		.uleb128 0xf
 1142 061d 3B040000 		.4byte	0x43b
 1143 0621 14       		.uleb128 0x14
 1144 0622 08020000 		.4byte	.LASF91
 1145 0626 0A       		.byte	0xa
 1146 0627 B601     		.2byte	0x1b6
 1147 0629 0B050000 		.4byte	0x50b
 1148 062d 15       		.uleb128 0x15
 1149 062e 04       		.byte	0x4
 1150 062f 0B       		.byte	0xb
 1151 0630 38       		.byte	0x38
 1152 0631 42060000 		.4byte	0x642
 1153 0635 06       		.uleb128 0x6
 1154 0636 83040000 		.4byte	.LASF92
 1155 063a 0B       		.byte	0xb
 1156 063b 3C       		.byte	0x3c
 1157 063c C3000000 		.4byte	0xc3
 1158 0640 00       		.byte	0
 1159 0641 00       		.byte	0
 1160 0642 04       		.uleb128 0x4
 1161 0643 C2020000 		.4byte	.LASF93
 1162 0647 0B       		.byte	0xb
 1163 0648 3D       		.byte	0x3d
 1164 0649 2D060000 		.4byte	0x62d
 1165 064d 16       		.uleb128 0x16
 1166 064e 04       		.byte	0x4
 1167 064f 07       		.byte	0x7
 1168 0650 FA       		.byte	0xfa
 1169 0651 B6060000 		.4byte	0x6b6
 1170 0655 17       		.uleb128 0x17
 1171 0656 18000000 		.4byte	.LASF94
 1172 065a 07       		.byte	0x7
 1173 065b 0101     		.2byte	0x101
 1174 065d FA000000 		.4byte	0xfa
 1175 0661 17       		.uleb128 0x17
 1176 0662 7F000000 		.4byte	.LASF95
 1177 0666 07       		.byte	0x7
 1178 0667 0801     		.2byte	0x108
 1179 0669 FA000000 		.4byte	0xfa
 1180 066d 17       		.uleb128 0x17
 1181 066e DC050000 		.4byte	.LASF96
 1182 0672 07       		.byte	0x7
 1183 0673 0F01     		.2byte	0x10f
 1184 0675 F9020000 		.4byte	0x2f9
 1185 0679 17       		.uleb128 0x17
 1186 067a 12000000 		.4byte	.LASF97
 1187 067e 07       		.byte	0x7
 1188 067f 1601     		.2byte	0x116
 1189 0681 B6060000 		.4byte	0x6b6
 1190 0685 17       		.uleb128 0x17
 1191 0686 93000000 		.4byte	.LASF98
 1192 068a 07       		.byte	0x7
ARM GAS  /tmp/cczwjAuM.s 			page 35


 1193 068b 1B01     		.2byte	0x11b
 1194 068d FA000000 		.4byte	0xfa
 1195 0691 17       		.uleb128 0x17
 1196 0692 CF010000 		.4byte	.LASF99
 1197 0696 07       		.byte	0x7
 1198 0697 2401     		.2byte	0x124
 1199 0699 E1060000 		.4byte	0x6e1
 1200 069d 17       		.uleb128 0x17
 1201 069e 34040000 		.4byte	.LASF100
 1202 06a2 07       		.byte	0x7
 1203 06a3 2D01     		.2byte	0x12d
 1204 06a5 18070000 		.4byte	0x718
 1205 06a9 17       		.uleb128 0x17
 1206 06aa 6B030000 		.4byte	.LASF101
 1207 06ae 07       		.byte	0x7
 1208 06af 3501     		.2byte	0x135
 1209 06b1 05010000 		.4byte	0x105
 1210 06b5 00       		.byte	0
 1211 06b6 09       		.uleb128 0x9
 1212 06b7 04       		.byte	0x4
 1213 06b8 11020000 		.4byte	0x211
 1214 06bc 05       		.uleb128 0x5
 1215 06bd A3030000 		.4byte	.LASF102
 1216 06c1 0C       		.byte	0xc
 1217 06c2 0C       		.byte	0xc
 1218 06c3 34       		.byte	0x34
 1219 06c4 E1060000 		.4byte	0x6e1
 1220 06c8 06       		.uleb128 0x6
 1221 06c9 53010000 		.4byte	.LASF103
 1222 06cd 0C       		.byte	0xc
 1223 06ce 35       		.byte	0x35
 1224 06cf 46020000 		.4byte	0x246
 1225 06d3 00       		.byte	0
 1226 06d4 06       		.uleb128 0x6
 1227 06d5 E1010000 		.4byte	.LASF104
 1228 06d9 0C       		.byte	0xc
 1229 06da 37       		.byte	0x37
 1230 06db 10010000 		.4byte	0x110
 1231 06df 08       		.byte	0x8
 1232 06e0 00       		.byte	0
 1233 06e1 09       		.uleb128 0x9
 1234 06e2 04       		.byte	0x4
 1235 06e3 BC060000 		.4byte	0x6bc
 1236 06e7 05       		.uleb128 0x5
 1237 06e8 D0040000 		.4byte	.LASF105
 1238 06ec 10       		.byte	0x10
 1239 06ed 0D       		.byte	0xd
 1240 06ee 39       		.byte	0x39
 1241 06ef 18070000 		.4byte	0x718
 1242 06f3 06       		.uleb128 0x6
 1243 06f4 05010000 		.4byte	.LASF106
 1244 06f8 0D       		.byte	0xd
 1245 06f9 3A       		.byte	0x3a
 1246 06fa 46020000 		.4byte	0x246
 1247 06fe 00       		.byte	0
 1248 06ff 06       		.uleb128 0x6
 1249 0700 28060000 		.4byte	.LASF107
ARM GAS  /tmp/cczwjAuM.s 			page 36


 1250 0704 0D       		.byte	0xd
 1251 0705 3C       		.byte	0x3c
 1252 0706 1C020000 		.4byte	0x21c
 1253 070a 08       		.byte	0x8
 1254 070b 06       		.uleb128 0x6
 1255 070c 49040000 		.4byte	.LASF108
 1256 0710 0D       		.byte	0xd
 1257 0711 3E       		.byte	0x3e
 1258 0712 56070000 		.4byte	0x756
 1259 0716 0C       		.byte	0xc
 1260 0717 00       		.byte	0
 1261 0718 09       		.uleb128 0x9
 1262 0719 04       		.byte	0x4
 1263 071a E7060000 		.4byte	0x6e7
 1264 071e 09       		.uleb128 0x9
 1265 071f 04       		.byte	0x4
 1266 0720 24070000 		.4byte	0x724
 1267 0724 18       		.uleb128 0x18
 1268 0725 29070000 		.4byte	0x729
 1269 0729 03       		.uleb128 0x3
 1270 072a 01       		.byte	0x1
 1271 072b 08       		.byte	0x8
 1272 072c 2F040000 		.4byte	.LASF109
 1273 0730 09       		.uleb128 0x9
 1274 0731 04       		.byte	0x4
 1275 0732 FB020000 		.4byte	0x2fb
 1276 0736 0F       		.uleb128 0xf
 1277 0737 1E070000 		.4byte	0x71e
 1278 073b 10       		.uleb128 0x10
 1279 073c 66040000 		.4byte	0x466
 1280 0740 4B070000 		.4byte	0x74b
 1281 0744 11       		.uleb128 0x11
 1282 0745 2F040000 		.4byte	0x42f
 1283 0749 1A       		.byte	0x1a
 1284 074a 00       		.byte	0
 1285 074b 04       		.uleb128 0x4
 1286 074c 9D010000 		.4byte	.LASF110
 1287 0750 0D       		.byte	0xd
 1288 0751 34       		.byte	0x34
 1289 0752 E7060000 		.4byte	0x6e7
 1290 0756 09       		.uleb128 0x9
 1291 0757 04       		.byte	0x4
 1292 0758 4B070000 		.4byte	0x74b
 1293 075c 03       		.uleb128 0x3
 1294 075d 01       		.byte	0x1
 1295 075e 02       		.byte	0x2
 1296 075f 2C030000 		.4byte	.LASF111
 1297 0763 19       		.uleb128 0x19
 1298 0764 38020000 		.4byte	.LASF112
 1299 0768 02       		.byte	0x2
 1300 0769 99       		.byte	0x99
 1301 076a 03       		.byte	0x3
 1302 076b 7B070000 		.4byte	0x77b
 1303 076f 1A       		.uleb128 0x1a
 1304 0770 D3020000 		.4byte	.LASF114
 1305 0774 02       		.byte	0x2
 1306 0775 99       		.byte	0x99
ARM GAS  /tmp/cczwjAuM.s 			page 37


 1307 0776 1B010000 		.4byte	0x11b
 1308 077a 00       		.byte	0
 1309 077b 1B       		.uleb128 0x1b
 1310 077c A7040000 		.4byte	.LASF127
 1311 0780 02       		.byte	0x2
 1312 0781 A5       		.byte	0xa5
 1313 0782 03       		.byte	0x3
 1314 0783 19       		.uleb128 0x19
 1315 0784 17060000 		.4byte	.LASF113
 1316 0788 02       		.byte	0x2
 1317 0789 B1       		.byte	0xb1
 1318 078a 03       		.byte	0x3
 1319 078b 9B070000 		.4byte	0x79b
 1320 078f 1A       		.uleb128 0x1a
 1321 0790 D3020000 		.4byte	.LASF114
 1322 0794 02       		.byte	0x2
 1323 0795 B1       		.byte	0xb1
 1324 0796 1B010000 		.4byte	0x11b
 1325 079a 00       		.byte	0
 1326 079b 1C       		.uleb128 0x1c
 1327 079c 92030000 		.4byte	.LASF128
 1328 07a0 02       		.byte	0x2
 1329 07a1 BD       		.byte	0xbd
 1330 07a2 1B010000 		.4byte	0x11b
 1331 07a6 03       		.byte	0x3
 1332 07a7 1D       		.uleb128 0x1d
 1333 07a8 B5020000 		.4byte	.LASF115
 1334 07ac 01       		.byte	0x1
 1335 07ad 3C       		.byte	0x3c
 1336 07ae 00000000 		.4byte	.LFB272
 1337 07b2 04000000 		.4byte	.LFE272-.LFB272
 1338 07b6 01       		.uleb128 0x1
 1339 07b7 9C       		.byte	0x9c
 1340 07b8 C6070000 		.4byte	0x7c6
 1341 07bc 1E       		.uleb128 0x1e
 1342 07bd 04000000 		.4byte	.LVL0
 1343 07c1 EE080000 		.4byte	0x8ee
 1344 07c5 00       		.byte	0
 1345 07c6 1D       		.uleb128 0x1d
 1346 07c7 8A040000 		.4byte	.LASF116
 1347 07cb 01       		.byte	0x1
 1348 07cc 4D       		.byte	0x4d
 1349 07cd 00000000 		.4byte	.LFB273
 1350 07d1 10000000 		.4byte	.LFE273-.LFB273
 1351 07d5 01       		.uleb128 0x1
 1352 07d6 9C       		.byte	0x9c
 1353 07d7 09080000 		.4byte	0x809
 1354 07db 1F       		.uleb128 0x1f
 1355 07dc 07060000 		.4byte	.LASF119
 1356 07e0 01       		.byte	0x1
 1357 07e1 4D       		.byte	0x4d
 1358 07e2 1B010000 		.4byte	0x11b
 1359 07e6 01       		.uleb128 0x1
 1360 07e7 50       		.byte	0x50
 1361 07e8 20       		.uleb128 0x20
 1362 07e9 93020000 		.4byte	.LASF120
 1363 07ed 19080000 		.4byte	0x819
ARM GAS  /tmp/cczwjAuM.s 			page 38


 1364 07f1 21       		.uleb128 0x21
 1365 07f2 63070000 		.4byte	0x763
 1366 07f6 00000000 		.4byte	.LBB10
 1367 07fa 10000000 		.4byte	.LBE10-.LBB10
 1368 07fe 01       		.byte	0x1
 1369 07ff 51       		.byte	0x51
 1370 0800 22       		.uleb128 0x22
 1371 0801 6F070000 		.4byte	0x76f
 1372 0805 01       		.uleb128 0x1
 1373 0806 50       		.byte	0x50
 1374 0807 00       		.byte	0
 1375 0808 00       		.byte	0
 1376 0809 10       		.uleb128 0x10
 1377 080a 29070000 		.4byte	0x729
 1378 080e 19080000 		.4byte	0x819
 1379 0812 11       		.uleb128 0x11
 1380 0813 2F040000 		.4byte	0x42f
 1381 0817 0C       		.byte	0xc
 1382 0818 00       		.byte	0
 1383 0819 18       		.uleb128 0x18
 1384 081a 09080000 		.4byte	0x809
 1385 081e 1D       		.uleb128 0x1d
 1386 081f 23040000 		.4byte	.LASF117
 1387 0823 01       		.byte	0x1
 1388 0824 5B       		.byte	0x5b
 1389 0825 00000000 		.4byte	.LFB274
 1390 0829 0A000000 		.4byte	.LFE274-.LFB274
 1391 082d 01       		.uleb128 0x1
 1392 082e 9C       		.byte	0x9c
 1393 082f 43080000 		.4byte	0x843
 1394 0833 23       		.uleb128 0x23
 1395 0834 7B070000 		.4byte	0x77b
 1396 0838 00000000 		.4byte	.LBB12
 1397 083c 0A000000 		.4byte	.LBE12-.LBB12
 1398 0840 01       		.byte	0x1
 1399 0841 5D       		.byte	0x5d
 1400 0842 00       		.byte	0
 1401 0843 1D       		.uleb128 0x1d
 1402 0844 E6040000 		.4byte	.LASF118
 1403 0848 01       		.byte	0x1
 1404 0849 69       		.byte	0x69
 1405 084a 00000000 		.4byte	.LFB275
 1406 084e 08000000 		.4byte	.LFE275-.LFB275
 1407 0852 01       		.uleb128 0x1
 1408 0853 9C       		.byte	0x9c
 1409 0854 86080000 		.4byte	0x886
 1410 0858 1F       		.uleb128 0x1f
 1411 0859 07060000 		.4byte	.LASF119
 1412 085d 01       		.byte	0x1
 1413 085e 69       		.byte	0x69
 1414 085f 1B010000 		.4byte	0x11b
 1415 0863 01       		.uleb128 0x1
 1416 0864 50       		.byte	0x50
 1417 0865 20       		.uleb128 0x20
 1418 0866 6E010000 		.4byte	.LASF121
 1419 086a 96080000 		.4byte	0x896
 1420 086e 21       		.uleb128 0x21
ARM GAS  /tmp/cczwjAuM.s 			page 39


 1421 086f 83070000 		.4byte	0x783
 1422 0873 00000000 		.4byte	.LBB14
 1423 0877 08000000 		.4byte	.LBE14-.LBB14
 1424 087b 01       		.byte	0x1
 1425 087c 6D       		.byte	0x6d
 1426 087d 22       		.uleb128 0x22
 1427 087e 8F070000 		.4byte	0x78f
 1428 0882 01       		.uleb128 0x1
 1429 0883 50       		.byte	0x50
 1430 0884 00       		.byte	0
 1431 0885 00       		.byte	0
 1432 0886 10       		.uleb128 0x10
 1433 0887 29070000 		.4byte	0x729
 1434 088b 96080000 		.4byte	0x896
 1435 088f 11       		.uleb128 0x11
 1436 0890 2F040000 		.4byte	0x42f
 1437 0894 0A       		.byte	0xa
 1438 0895 00       		.byte	0
 1439 0896 18       		.uleb128 0x18
 1440 0897 86080000 		.4byte	0x886
 1441 089b 24       		.uleb128 0x24
 1442 089c D1050000 		.4byte	.LASF129
 1443 08a0 01       		.byte	0x1
 1444 08a1 79       		.byte	0x79
 1445 08a2 1B010000 		.4byte	0x11b
 1446 08a6 00000000 		.4byte	.LFB276
 1447 08aa 08000000 		.4byte	.LFE276-.LFB276
 1448 08ae 01       		.uleb128 0x1
 1449 08af 9C       		.byte	0x9c
 1450 08b0 CD080000 		.4byte	0x8cd
 1451 08b4 20       		.uleb128 0x20
 1452 08b5 EA050000 		.4byte	.LASF122
 1453 08b9 CD080000 		.4byte	0x8cd
 1454 08bd 23       		.uleb128 0x23
 1455 08be 9B070000 		.4byte	0x79b
 1456 08c2 00000000 		.4byte	.LBB16
 1457 08c6 06000000 		.4byte	.LBE16-.LBB16
 1458 08ca 01       		.byte	0x1
 1459 08cb 7D       		.byte	0x7d
 1460 08cc 00       		.byte	0
 1461 08cd 18       		.uleb128 0x18
 1462 08ce 86080000 		.4byte	0x886
 1463 08d2 25       		.uleb128 0x25
 1464 08d3 B1000000 		.4byte	.LASF123
 1465 08d7 0E       		.byte	0xe
 1466 08d8 FA06     		.2byte	0x6fa
 1467 08da DE080000 		.4byte	0x8de
 1468 08de 0F       		.uleb128 0xf
 1469 08df A2000000 		.4byte	0xa2
 1470 08e3 26       		.uleb128 0x26
 1471 08e4 636800   		.ascii	"ch\000"
 1472 08e7 07       		.byte	0x7
 1473 08e8 0B02     		.2byte	0x20b
 1474 08ea C8030000 		.4byte	0x3c8
 1475 08ee 27       		.uleb128 0x27
 1476 08ef BE000000 		.4byte	.LASF130
 1477 08f3 02       		.byte	0x2
ARM GAS  /tmp/cczwjAuM.s 			page 40


 1478 08f4 7B       		.byte	0x7b
 1479 08f5 00       		.byte	0
 1480              		.section	.debug_abbrev,"",%progbits
 1481              	.Ldebug_abbrev0:
 1482 0000 01       		.uleb128 0x1
 1483 0001 11       		.uleb128 0x11
 1484 0002 01       		.byte	0x1
 1485 0003 25       		.uleb128 0x25
 1486 0004 0E       		.uleb128 0xe
 1487 0005 13       		.uleb128 0x13
 1488 0006 0B       		.uleb128 0xb
 1489 0007 03       		.uleb128 0x3
 1490 0008 0E       		.uleb128 0xe
 1491 0009 1B       		.uleb128 0x1b
 1492 000a 0E       		.uleb128 0xe
 1493 000b 55       		.uleb128 0x55
 1494 000c 17       		.uleb128 0x17
 1495 000d 11       		.uleb128 0x11
 1496 000e 01       		.uleb128 0x1
 1497 000f 10       		.uleb128 0x10
 1498 0010 17       		.uleb128 0x17
 1499 0011 00       		.byte	0
 1500 0012 00       		.byte	0
 1501 0013 02       		.uleb128 0x2
 1502 0014 24       		.uleb128 0x24
 1503 0015 00       		.byte	0
 1504 0016 0B       		.uleb128 0xb
 1505 0017 0B       		.uleb128 0xb
 1506 0018 3E       		.uleb128 0x3e
 1507 0019 0B       		.uleb128 0xb
 1508 001a 03       		.uleb128 0x3
 1509 001b 08       		.uleb128 0x8
 1510 001c 00       		.byte	0
 1511 001d 00       		.byte	0
 1512 001e 03       		.uleb128 0x3
 1513 001f 24       		.uleb128 0x24
 1514 0020 00       		.byte	0
 1515 0021 0B       		.uleb128 0xb
 1516 0022 0B       		.uleb128 0xb
 1517 0023 3E       		.uleb128 0x3e
 1518 0024 0B       		.uleb128 0xb
 1519 0025 03       		.uleb128 0x3
 1520 0026 0E       		.uleb128 0xe
 1521 0027 00       		.byte	0
 1522 0028 00       		.byte	0
 1523 0029 04       		.uleb128 0x4
 1524 002a 16       		.uleb128 0x16
 1525 002b 00       		.byte	0
 1526 002c 03       		.uleb128 0x3
 1527 002d 0E       		.uleb128 0xe
 1528 002e 3A       		.uleb128 0x3a
 1529 002f 0B       		.uleb128 0xb
 1530 0030 3B       		.uleb128 0x3b
 1531 0031 0B       		.uleb128 0xb
 1532 0032 49       		.uleb128 0x49
 1533 0033 13       		.uleb128 0x13
 1534 0034 00       		.byte	0
ARM GAS  /tmp/cczwjAuM.s 			page 41


 1535 0035 00       		.byte	0
 1536 0036 05       		.uleb128 0x5
 1537 0037 13       		.uleb128 0x13
 1538 0038 01       		.byte	0x1
 1539 0039 03       		.uleb128 0x3
 1540 003a 0E       		.uleb128 0xe
 1541 003b 0B       		.uleb128 0xb
 1542 003c 0B       		.uleb128 0xb
 1543 003d 3A       		.uleb128 0x3a
 1544 003e 0B       		.uleb128 0xb
 1545 003f 3B       		.uleb128 0x3b
 1546 0040 0B       		.uleb128 0xb
 1547 0041 01       		.uleb128 0x1
 1548 0042 13       		.uleb128 0x13
 1549 0043 00       		.byte	0
 1550 0044 00       		.byte	0
 1551 0045 06       		.uleb128 0x6
 1552 0046 0D       		.uleb128 0xd
 1553 0047 00       		.byte	0
 1554 0048 03       		.uleb128 0x3
 1555 0049 0E       		.uleb128 0xe
 1556 004a 3A       		.uleb128 0x3a
 1557 004b 0B       		.uleb128 0xb
 1558 004c 3B       		.uleb128 0x3b
 1559 004d 0B       		.uleb128 0xb
 1560 004e 49       		.uleb128 0x49
 1561 004f 13       		.uleb128 0x13
 1562 0050 38       		.uleb128 0x38
 1563 0051 0B       		.uleb128 0xb
 1564 0052 00       		.byte	0
 1565 0053 00       		.byte	0
 1566 0054 07       		.uleb128 0x7
 1567 0055 0D       		.uleb128 0xd
 1568 0056 00       		.byte	0
 1569 0057 03       		.uleb128 0x3
 1570 0058 08       		.uleb128 0x8
 1571 0059 3A       		.uleb128 0x3a
 1572 005a 0B       		.uleb128 0xb
 1573 005b 3B       		.uleb128 0x3b
 1574 005c 05       		.uleb128 0x5
 1575 005d 49       		.uleb128 0x49
 1576 005e 13       		.uleb128 0x13
 1577 005f 38       		.uleb128 0x38
 1578 0060 0B       		.uleb128 0xb
 1579 0061 00       		.byte	0
 1580 0062 00       		.byte	0
 1581 0063 08       		.uleb128 0x8
 1582 0064 0D       		.uleb128 0xd
 1583 0065 00       		.byte	0
 1584 0066 03       		.uleb128 0x3
 1585 0067 0E       		.uleb128 0xe
 1586 0068 3A       		.uleb128 0x3a
 1587 0069 0B       		.uleb128 0xb
 1588 006a 3B       		.uleb128 0x3b
 1589 006b 05       		.uleb128 0x5
 1590 006c 49       		.uleb128 0x49
 1591 006d 13       		.uleb128 0x13
ARM GAS  /tmp/cczwjAuM.s 			page 42


 1592 006e 38       		.uleb128 0x38
 1593 006f 0B       		.uleb128 0xb
 1594 0070 00       		.byte	0
 1595 0071 00       		.byte	0
 1596 0072 09       		.uleb128 0x9
 1597 0073 0F       		.uleb128 0xf
 1598 0074 00       		.byte	0
 1599 0075 0B       		.uleb128 0xb
 1600 0076 0B       		.uleb128 0xb
 1601 0077 49       		.uleb128 0x49
 1602 0078 13       		.uleb128 0x13
 1603 0079 00       		.byte	0
 1604 007a 00       		.byte	0
 1605 007b 0A       		.uleb128 0xa
 1606 007c 13       		.uleb128 0x13
 1607 007d 01       		.byte	0x1
 1608 007e 03       		.uleb128 0x3
 1609 007f 0E       		.uleb128 0xe
 1610 0080 0B       		.uleb128 0xb
 1611 0081 0B       		.uleb128 0xb
 1612 0082 3A       		.uleb128 0x3a
 1613 0083 0B       		.uleb128 0xb
 1614 0084 3B       		.uleb128 0x3b
 1615 0085 05       		.uleb128 0x5
 1616 0086 01       		.uleb128 0x1
 1617 0087 13       		.uleb128 0x13
 1618 0088 00       		.byte	0
 1619 0089 00       		.byte	0
 1620 008a 0B       		.uleb128 0xb
 1621 008b 15       		.uleb128 0x15
 1622 008c 01       		.byte	0x1
 1623 008d 27       		.uleb128 0x27
 1624 008e 19       		.uleb128 0x19
 1625 008f 01       		.uleb128 0x1
 1626 0090 13       		.uleb128 0x13
 1627 0091 00       		.byte	0
 1628 0092 00       		.byte	0
 1629 0093 0C       		.uleb128 0xc
 1630 0094 05       		.uleb128 0x5
 1631 0095 00       		.byte	0
 1632 0096 49       		.uleb128 0x49
 1633 0097 13       		.uleb128 0x13
 1634 0098 00       		.byte	0
 1635 0099 00       		.byte	0
 1636 009a 0D       		.uleb128 0xd
 1637 009b 0F       		.uleb128 0xf
 1638 009c 00       		.byte	0
 1639 009d 0B       		.uleb128 0xb
 1640 009e 0B       		.uleb128 0xb
 1641 009f 00       		.byte	0
 1642 00a0 00       		.byte	0
 1643 00a1 0E       		.uleb128 0xe
 1644 00a2 13       		.uleb128 0x13
 1645 00a3 01       		.byte	0x1
 1646 00a4 03       		.uleb128 0x3
 1647 00a5 0E       		.uleb128 0xe
 1648 00a6 0B       		.uleb128 0xb
ARM GAS  /tmp/cczwjAuM.s 			page 43


 1649 00a7 05       		.uleb128 0x5
 1650 00a8 3A       		.uleb128 0x3a
 1651 00a9 0B       		.uleb128 0xb
 1652 00aa 3B       		.uleb128 0x3b
 1653 00ab 05       		.uleb128 0x5
 1654 00ac 01       		.uleb128 0x1
 1655 00ad 13       		.uleb128 0x13
 1656 00ae 00       		.byte	0
 1657 00af 00       		.byte	0
 1658 00b0 0F       		.uleb128 0xf
 1659 00b1 35       		.uleb128 0x35
 1660 00b2 00       		.byte	0
 1661 00b3 49       		.uleb128 0x49
 1662 00b4 13       		.uleb128 0x13
 1663 00b5 00       		.byte	0
 1664 00b6 00       		.byte	0
 1665 00b7 10       		.uleb128 0x10
 1666 00b8 01       		.uleb128 0x1
 1667 00b9 01       		.byte	0x1
 1668 00ba 49       		.uleb128 0x49
 1669 00bb 13       		.uleb128 0x13
 1670 00bc 01       		.uleb128 0x1
 1671 00bd 13       		.uleb128 0x13
 1672 00be 00       		.byte	0
 1673 00bf 00       		.byte	0
 1674 00c0 11       		.uleb128 0x11
 1675 00c1 21       		.uleb128 0x21
 1676 00c2 00       		.byte	0
 1677 00c3 49       		.uleb128 0x49
 1678 00c4 13       		.uleb128 0x13
 1679 00c5 2F       		.uleb128 0x2f
 1680 00c6 0B       		.uleb128 0xb
 1681 00c7 00       		.byte	0
 1682 00c8 00       		.byte	0
 1683 00c9 12       		.uleb128 0x12
 1684 00ca 0D       		.uleb128 0xd
 1685 00cb 00       		.byte	0
 1686 00cc 03       		.uleb128 0x3
 1687 00cd 08       		.uleb128 0x8
 1688 00ce 3A       		.uleb128 0x3a
 1689 00cf 0B       		.uleb128 0xb
 1690 00d0 3B       		.uleb128 0x3b
 1691 00d1 0B       		.uleb128 0xb
 1692 00d2 49       		.uleb128 0x49
 1693 00d3 13       		.uleb128 0x13
 1694 00d4 38       		.uleb128 0x38
 1695 00d5 0B       		.uleb128 0xb
 1696 00d6 00       		.byte	0
 1697 00d7 00       		.byte	0
 1698 00d8 13       		.uleb128 0x13
 1699 00d9 13       		.uleb128 0x13
 1700 00da 01       		.byte	0x1
 1701 00db 0B       		.uleb128 0xb
 1702 00dc 0B       		.uleb128 0xb
 1703 00dd 3A       		.uleb128 0x3a
 1704 00de 0B       		.uleb128 0xb
 1705 00df 3B       		.uleb128 0x3b
ARM GAS  /tmp/cczwjAuM.s 			page 44


 1706 00e0 05       		.uleb128 0x5
 1707 00e1 01       		.uleb128 0x1
 1708 00e2 13       		.uleb128 0x13
 1709 00e3 00       		.byte	0
 1710 00e4 00       		.byte	0
 1711 00e5 14       		.uleb128 0x14
 1712 00e6 16       		.uleb128 0x16
 1713 00e7 00       		.byte	0
 1714 00e8 03       		.uleb128 0x3
 1715 00e9 0E       		.uleb128 0xe
 1716 00ea 3A       		.uleb128 0x3a
 1717 00eb 0B       		.uleb128 0xb
 1718 00ec 3B       		.uleb128 0x3b
 1719 00ed 05       		.uleb128 0x5
 1720 00ee 49       		.uleb128 0x49
 1721 00ef 13       		.uleb128 0x13
 1722 00f0 00       		.byte	0
 1723 00f1 00       		.byte	0
 1724 00f2 15       		.uleb128 0x15
 1725 00f3 13       		.uleb128 0x13
 1726 00f4 01       		.byte	0x1
 1727 00f5 0B       		.uleb128 0xb
 1728 00f6 0B       		.uleb128 0xb
 1729 00f7 3A       		.uleb128 0x3a
 1730 00f8 0B       		.uleb128 0xb
 1731 00f9 3B       		.uleb128 0x3b
 1732 00fa 0B       		.uleb128 0xb
 1733 00fb 01       		.uleb128 0x1
 1734 00fc 13       		.uleb128 0x13
 1735 00fd 00       		.byte	0
 1736 00fe 00       		.byte	0
 1737 00ff 16       		.uleb128 0x16
 1738 0100 17       		.uleb128 0x17
 1739 0101 01       		.byte	0x1
 1740 0102 0B       		.uleb128 0xb
 1741 0103 0B       		.uleb128 0xb
 1742 0104 3A       		.uleb128 0x3a
 1743 0105 0B       		.uleb128 0xb
 1744 0106 3B       		.uleb128 0x3b
 1745 0107 0B       		.uleb128 0xb
 1746 0108 01       		.uleb128 0x1
 1747 0109 13       		.uleb128 0x13
 1748 010a 00       		.byte	0
 1749 010b 00       		.byte	0
 1750 010c 17       		.uleb128 0x17
 1751 010d 0D       		.uleb128 0xd
 1752 010e 00       		.byte	0
 1753 010f 03       		.uleb128 0x3
 1754 0110 0E       		.uleb128 0xe
 1755 0111 3A       		.uleb128 0x3a
 1756 0112 0B       		.uleb128 0xb
 1757 0113 3B       		.uleb128 0x3b
 1758 0114 05       		.uleb128 0x5
 1759 0115 49       		.uleb128 0x49
 1760 0116 13       		.uleb128 0x13
 1761 0117 00       		.byte	0
 1762 0118 00       		.byte	0
ARM GAS  /tmp/cczwjAuM.s 			page 45


 1763 0119 18       		.uleb128 0x18
 1764 011a 26       		.uleb128 0x26
 1765 011b 00       		.byte	0
 1766 011c 49       		.uleb128 0x49
 1767 011d 13       		.uleb128 0x13
 1768 011e 00       		.byte	0
 1769 011f 00       		.byte	0
 1770 0120 19       		.uleb128 0x19
 1771 0121 2E       		.uleb128 0x2e
 1772 0122 01       		.byte	0x1
 1773 0123 03       		.uleb128 0x3
 1774 0124 0E       		.uleb128 0xe
 1775 0125 3A       		.uleb128 0x3a
 1776 0126 0B       		.uleb128 0xb
 1777 0127 3B       		.uleb128 0x3b
 1778 0128 0B       		.uleb128 0xb
 1779 0129 27       		.uleb128 0x27
 1780 012a 19       		.uleb128 0x19
 1781 012b 20       		.uleb128 0x20
 1782 012c 0B       		.uleb128 0xb
 1783 012d 01       		.uleb128 0x1
 1784 012e 13       		.uleb128 0x13
 1785 012f 00       		.byte	0
 1786 0130 00       		.byte	0
 1787 0131 1A       		.uleb128 0x1a
 1788 0132 05       		.uleb128 0x5
 1789 0133 00       		.byte	0
 1790 0134 03       		.uleb128 0x3
 1791 0135 0E       		.uleb128 0xe
 1792 0136 3A       		.uleb128 0x3a
 1793 0137 0B       		.uleb128 0xb
 1794 0138 3B       		.uleb128 0x3b
 1795 0139 0B       		.uleb128 0xb
 1796 013a 49       		.uleb128 0x49
 1797 013b 13       		.uleb128 0x13
 1798 013c 00       		.byte	0
 1799 013d 00       		.byte	0
 1800 013e 1B       		.uleb128 0x1b
 1801 013f 2E       		.uleb128 0x2e
 1802 0140 00       		.byte	0
 1803 0141 03       		.uleb128 0x3
 1804 0142 0E       		.uleb128 0xe
 1805 0143 3A       		.uleb128 0x3a
 1806 0144 0B       		.uleb128 0xb
 1807 0145 3B       		.uleb128 0x3b
 1808 0146 0B       		.uleb128 0xb
 1809 0147 27       		.uleb128 0x27
 1810 0148 19       		.uleb128 0x19
 1811 0149 20       		.uleb128 0x20
 1812 014a 0B       		.uleb128 0xb
 1813 014b 00       		.byte	0
 1814 014c 00       		.byte	0
 1815 014d 1C       		.uleb128 0x1c
 1816 014e 2E       		.uleb128 0x2e
 1817 014f 00       		.byte	0
 1818 0150 03       		.uleb128 0x3
 1819 0151 0E       		.uleb128 0xe
ARM GAS  /tmp/cczwjAuM.s 			page 46


 1820 0152 3A       		.uleb128 0x3a
 1821 0153 0B       		.uleb128 0xb
 1822 0154 3B       		.uleb128 0x3b
 1823 0155 0B       		.uleb128 0xb
 1824 0156 27       		.uleb128 0x27
 1825 0157 19       		.uleb128 0x19
 1826 0158 49       		.uleb128 0x49
 1827 0159 13       		.uleb128 0x13
 1828 015a 20       		.uleb128 0x20
 1829 015b 0B       		.uleb128 0xb
 1830 015c 00       		.byte	0
 1831 015d 00       		.byte	0
 1832 015e 1D       		.uleb128 0x1d
 1833 015f 2E       		.uleb128 0x2e
 1834 0160 01       		.byte	0x1
 1835 0161 3F       		.uleb128 0x3f
 1836 0162 19       		.uleb128 0x19
 1837 0163 03       		.uleb128 0x3
 1838 0164 0E       		.uleb128 0xe
 1839 0165 3A       		.uleb128 0x3a
 1840 0166 0B       		.uleb128 0xb
 1841 0167 3B       		.uleb128 0x3b
 1842 0168 0B       		.uleb128 0xb
 1843 0169 27       		.uleb128 0x27
 1844 016a 19       		.uleb128 0x19
 1845 016b 11       		.uleb128 0x11
 1846 016c 01       		.uleb128 0x1
 1847 016d 12       		.uleb128 0x12
 1848 016e 06       		.uleb128 0x6
 1849 016f 40       		.uleb128 0x40
 1850 0170 18       		.uleb128 0x18
 1851 0171 9742     		.uleb128 0x2117
 1852 0173 19       		.uleb128 0x19
 1853 0174 01       		.uleb128 0x1
 1854 0175 13       		.uleb128 0x13
 1855 0176 00       		.byte	0
 1856 0177 00       		.byte	0
 1857 0178 1E       		.uleb128 0x1e
 1858 0179 898201   		.uleb128 0x4109
 1859 017c 00       		.byte	0
 1860 017d 11       		.uleb128 0x11
 1861 017e 01       		.uleb128 0x1
 1862 017f 9542     		.uleb128 0x2115
 1863 0181 19       		.uleb128 0x19
 1864 0182 31       		.uleb128 0x31
 1865 0183 13       		.uleb128 0x13
 1866 0184 00       		.byte	0
 1867 0185 00       		.byte	0
 1868 0186 1F       		.uleb128 0x1f
 1869 0187 05       		.uleb128 0x5
 1870 0188 00       		.byte	0
 1871 0189 03       		.uleb128 0x3
 1872 018a 0E       		.uleb128 0xe
 1873 018b 3A       		.uleb128 0x3a
 1874 018c 0B       		.uleb128 0xb
 1875 018d 3B       		.uleb128 0x3b
 1876 018e 0B       		.uleb128 0xb
ARM GAS  /tmp/cczwjAuM.s 			page 47


 1877 018f 49       		.uleb128 0x49
 1878 0190 13       		.uleb128 0x13
 1879 0191 02       		.uleb128 0x2
 1880 0192 18       		.uleb128 0x18
 1881 0193 00       		.byte	0
 1882 0194 00       		.byte	0
 1883 0195 20       		.uleb128 0x20
 1884 0196 34       		.uleb128 0x34
 1885 0197 00       		.byte	0
 1886 0198 03       		.uleb128 0x3
 1887 0199 0E       		.uleb128 0xe
 1888 019a 49       		.uleb128 0x49
 1889 019b 13       		.uleb128 0x13
 1890 019c 34       		.uleb128 0x34
 1891 019d 19       		.uleb128 0x19
 1892 019e 00       		.byte	0
 1893 019f 00       		.byte	0
 1894 01a0 21       		.uleb128 0x21
 1895 01a1 1D       		.uleb128 0x1d
 1896 01a2 01       		.byte	0x1
 1897 01a3 31       		.uleb128 0x31
 1898 01a4 13       		.uleb128 0x13
 1899 01a5 11       		.uleb128 0x11
 1900 01a6 01       		.uleb128 0x1
 1901 01a7 12       		.uleb128 0x12
 1902 01a8 06       		.uleb128 0x6
 1903 01a9 58       		.uleb128 0x58
 1904 01aa 0B       		.uleb128 0xb
 1905 01ab 59       		.uleb128 0x59
 1906 01ac 0B       		.uleb128 0xb
 1907 01ad 00       		.byte	0
 1908 01ae 00       		.byte	0
 1909 01af 22       		.uleb128 0x22
 1910 01b0 05       		.uleb128 0x5
 1911 01b1 00       		.byte	0
 1912 01b2 31       		.uleb128 0x31
 1913 01b3 13       		.uleb128 0x13
 1914 01b4 02       		.uleb128 0x2
 1915 01b5 18       		.uleb128 0x18
 1916 01b6 00       		.byte	0
 1917 01b7 00       		.byte	0
 1918 01b8 23       		.uleb128 0x23
 1919 01b9 1D       		.uleb128 0x1d
 1920 01ba 00       		.byte	0
 1921 01bb 31       		.uleb128 0x31
 1922 01bc 13       		.uleb128 0x13
 1923 01bd 11       		.uleb128 0x11
 1924 01be 01       		.uleb128 0x1
 1925 01bf 12       		.uleb128 0x12
 1926 01c0 06       		.uleb128 0x6
 1927 01c1 58       		.uleb128 0x58
 1928 01c2 0B       		.uleb128 0xb
 1929 01c3 59       		.uleb128 0x59
 1930 01c4 0B       		.uleb128 0xb
 1931 01c5 00       		.byte	0
 1932 01c6 00       		.byte	0
 1933 01c7 24       		.uleb128 0x24
ARM GAS  /tmp/cczwjAuM.s 			page 48


 1934 01c8 2E       		.uleb128 0x2e
 1935 01c9 01       		.byte	0x1
 1936 01ca 3F       		.uleb128 0x3f
 1937 01cb 19       		.uleb128 0x19
 1938 01cc 03       		.uleb128 0x3
 1939 01cd 0E       		.uleb128 0xe
 1940 01ce 3A       		.uleb128 0x3a
 1941 01cf 0B       		.uleb128 0xb
 1942 01d0 3B       		.uleb128 0x3b
 1943 01d1 0B       		.uleb128 0xb
 1944 01d2 27       		.uleb128 0x27
 1945 01d3 19       		.uleb128 0x19
 1946 01d4 49       		.uleb128 0x49
 1947 01d5 13       		.uleb128 0x13
 1948 01d6 11       		.uleb128 0x11
 1949 01d7 01       		.uleb128 0x1
 1950 01d8 12       		.uleb128 0x12
 1951 01d9 06       		.uleb128 0x6
 1952 01da 40       		.uleb128 0x40
 1953 01db 18       		.uleb128 0x18
 1954 01dc 9742     		.uleb128 0x2117
 1955 01de 19       		.uleb128 0x19
 1956 01df 01       		.uleb128 0x1
 1957 01e0 13       		.uleb128 0x13
 1958 01e1 00       		.byte	0
 1959 01e2 00       		.byte	0
 1960 01e3 25       		.uleb128 0x25
 1961 01e4 34       		.uleb128 0x34
 1962 01e5 00       		.byte	0
 1963 01e6 03       		.uleb128 0x3
 1964 01e7 0E       		.uleb128 0xe
 1965 01e8 3A       		.uleb128 0x3a
 1966 01e9 0B       		.uleb128 0xb
 1967 01ea 3B       		.uleb128 0x3b
 1968 01eb 05       		.uleb128 0x5
 1969 01ec 49       		.uleb128 0x49
 1970 01ed 13       		.uleb128 0x13
 1971 01ee 3F       		.uleb128 0x3f
 1972 01ef 19       		.uleb128 0x19
 1973 01f0 3C       		.uleb128 0x3c
 1974 01f1 19       		.uleb128 0x19
 1975 01f2 00       		.byte	0
 1976 01f3 00       		.byte	0
 1977 01f4 26       		.uleb128 0x26
 1978 01f5 34       		.uleb128 0x34
 1979 01f6 00       		.byte	0
 1980 01f7 03       		.uleb128 0x3
 1981 01f8 08       		.uleb128 0x8
 1982 01f9 3A       		.uleb128 0x3a
 1983 01fa 0B       		.uleb128 0xb
 1984 01fb 3B       		.uleb128 0x3b
 1985 01fc 05       		.uleb128 0x5
 1986 01fd 49       		.uleb128 0x49
 1987 01fe 13       		.uleb128 0x13
 1988 01ff 3F       		.uleb128 0x3f
 1989 0200 19       		.uleb128 0x19
 1990 0201 3C       		.uleb128 0x3c
ARM GAS  /tmp/cczwjAuM.s 			page 49


 1991 0202 19       		.uleb128 0x19
 1992 0203 00       		.byte	0
 1993 0204 00       		.byte	0
 1994 0205 27       		.uleb128 0x27
 1995 0206 2E       		.uleb128 0x2e
 1996 0207 00       		.byte	0
 1997 0208 3F       		.uleb128 0x3f
 1998 0209 19       		.uleb128 0x19
 1999 020a 03       		.uleb128 0x3
 2000 020b 0E       		.uleb128 0xe
 2001 020c 3A       		.uleb128 0x3a
 2002 020d 0B       		.uleb128 0xb
 2003 020e 3B       		.uleb128 0x3b
 2004 020f 0B       		.uleb128 0xb
 2005 0210 27       		.uleb128 0x27
 2006 0211 19       		.uleb128 0x19
 2007 0212 3C       		.uleb128 0x3c
 2008 0213 19       		.uleb128 0x19
 2009 0214 00       		.byte	0
 2010 0215 00       		.byte	0
 2011 0216 00       		.byte	0
 2012              		.section	.debug_aranges,"",%progbits
 2013 0000 3C000000 		.4byte	0x3c
 2014 0004 0200     		.2byte	0x2
 2015 0006 00000000 		.4byte	.Ldebug_info0
 2016 000a 04       		.byte	0x4
 2017 000b 00       		.byte	0
 2018 000c 0000     		.2byte	0
 2019 000e 0000     		.2byte	0
 2020 0010 00000000 		.4byte	.LFB272
 2021 0014 04000000 		.4byte	.LFE272-.LFB272
 2022 0018 00000000 		.4byte	.LFB273
 2023 001c 10000000 		.4byte	.LFE273-.LFB273
 2024 0020 00000000 		.4byte	.LFB274
 2025 0024 0A000000 		.4byte	.LFE274-.LFB274
 2026 0028 00000000 		.4byte	.LFB275
 2027 002c 08000000 		.4byte	.LFE275-.LFB275
 2028 0030 00000000 		.4byte	.LFB276
 2029 0034 08000000 		.4byte	.LFE276-.LFB276
 2030 0038 00000000 		.4byte	0
 2031 003c 00000000 		.4byte	0
 2032              		.section	.debug_ranges,"",%progbits
 2033              	.Ldebug_ranges0:
 2034 0000 00000000 		.4byte	.LFB272
 2035 0004 04000000 		.4byte	.LFE272
 2036 0008 00000000 		.4byte	.LFB273
 2037 000c 10000000 		.4byte	.LFE273
 2038 0010 00000000 		.4byte	.LFB274
 2039 0014 0A000000 		.4byte	.LFE274
 2040 0018 00000000 		.4byte	.LFB275
 2041 001c 08000000 		.4byte	.LFE275
 2042 0020 00000000 		.4byte	.LFB276
 2043 0024 08000000 		.4byte	.LFE276
 2044 0028 00000000 		.4byte	0
 2045 002c 00000000 		.4byte	0
 2046              		.section	.debug_line,"",%progbits
 2047              	.Ldebug_line0:
ARM GAS  /tmp/cczwjAuM.s 			page 50


 2048 0000 DF020000 		.section	.debug_str,"MS",%progbits,1
 2048      02006602 
 2048      00000201 
 2048      FB0E0D00 
 2048      01010101 
 2049              	.LASF49:
 2050 0000 72656164 		.ascii	"ready_list_t\000"
 2050      795F6C69 
 2050      73745F74 
 2050      00
 2051              	.LASF83:
 2052 000d 44494552 		.ascii	"DIER\000"
 2052      00
 2053              	.LASF97:
 2054 0012 77747472 		.ascii	"wttrp\000"
 2054      7000
 2055              	.LASF94:
 2056 0018 7264796D 		.ascii	"rdymsg\000"
 2056      736700
 2057              	.LASF16:
 2058 001f 75696E74 		.ascii	"uint64_t\000"
 2058      36345F74 
 2058      00
 2059              	.LASF5:
 2060 0028 5F5F7569 		.ascii	"__uint8_t\000"
 2060      6E74385F 
 2060      7400
 2061              	.LASF81:
 2062 0032 706F7274 		.ascii	"port_intctx\000"
 2062      5F696E74 
 2062      63747800 
 2063              	.LASF68:
 2064 003e 73797374 		.ascii	"system_debug_t\000"
 2064      656D5F64 
 2064      65627567 
 2064      5F7400
 2065              	.LASF125:
 2066 004d 2E2E2F43 		.ascii	"../ChibiOS/os/hal/src/st.c\000"
 2066      68696269 
 2066      4F532F6F 
 2066      732F6861 
 2066      6C2F7372 
 2067              	.LASF12:
 2068 0068 6C6F6E67 		.ascii	"long long unsigned int\000"
 2068      206C6F6E 
 2068      6720756E 
 2068      7369676E 
 2068      65642069 
 2069              	.LASF95:
 2070 007f 65786974 		.ascii	"exitcode\000"
 2070      636F6465 
 2070      00
 2071              	.LASF75:
 2072 0088 6D61696E 		.ascii	"mainthread\000"
 2072      74687265 
 2072      616400
 2073              	.LASF98:
ARM GAS  /tmp/cczwjAuM.s 			page 51


 2074 0093 73656E74 		.ascii	"sentmsg\000"
 2074      6D736700 
 2075              	.LASF65:
 2076 009b 76697274 		.ascii	"virtual_timers_list_t\000"
 2076      75616C5F 
 2076      74696D65 
 2076      72735F6C 
 2076      6973745F 
 2077              	.LASF123:
 2078 00b1 49544D5F 		.ascii	"ITM_RxBuffer\000"
 2078      52784275 
 2078      66666572 
 2078      00
 2079              	.LASF130:
 2080 00be 73745F6C 		.ascii	"st_lld_init\000"
 2080      6C645F69 
 2080      6E697400 
 2081              	.LASF87:
 2082 00ca 42445452 		.ascii	"BDTR\000"
 2082      00
 2083              	.LASF48:
 2084 00cf 63685F74 		.ascii	"ch_threads_queue\000"
 2084      68726561 
 2084      64735F71 
 2084      75657565 
 2084      00
 2085              	.LASF29:
 2086 00e0 705F7072 		.ascii	"p_prio\000"
 2086      696F00
 2087              	.LASF84:
 2088 00e7 43434D52 		.ascii	"CCMR1\000"
 2088      3100
 2089              	.LASF85:
 2090 00ed 43434D52 		.ascii	"CCMR2\000"
 2090      3200
 2091              	.LASF89:
 2092 00f3 43434D52 		.ascii	"CCMR3\000"
 2092      3300
 2093              	.LASF1:
 2094 00f9 7369676E 		.ascii	"signed char\000"
 2094      65642063 
 2094      68617200 
 2095              	.LASF106:
 2096 0105 6D5F7175 		.ascii	"m_queue\000"
 2096      65756500 
 2097              	.LASF74:
 2098 010d 76746C69 		.ascii	"vtlist\000"
 2098      737400
 2099              	.LASF72:
 2100 0114 63685F73 		.ascii	"ch_system\000"
 2100      79737465 
 2100      6D00
 2101              	.LASF7:
 2102 011e 6C6F6E67 		.ascii	"long int\000"
 2102      20696E74 
 2102      00
 2103              	.LASF18:
ARM GAS  /tmp/cczwjAuM.s 			page 52


 2104 0127 746D6F64 		.ascii	"tmode_t\000"
 2104      655F7400 
 2105              	.LASF19:
 2106 012f 74737461 		.ascii	"tstate_t\000"
 2106      74655F74 
 2106      00
 2107              	.LASF86:
 2108 0138 43434552 		.ascii	"CCER\000"
 2108      00
 2109              	.LASF10:
 2110 013d 6C6F6E67 		.ascii	"long long int\000"
 2110      206C6F6E 
 2110      6720696E 
 2110      7400
 2111              	.LASF31:
 2112 014b 705F6E65 		.ascii	"p_newer\000"
 2112      77657200 
 2113              	.LASF103:
 2114 0153 735F7175 		.ascii	"s_queue\000"
 2114      65756500 
 2115              	.LASF4:
 2116 015b 73686F72 		.ascii	"short unsigned int\000"
 2116      7420756E 
 2116      7369676E 
 2116      65642069 
 2116      6E7400
 2117              	.LASF121:
 2118 016e 5F5F6675 		.ascii	"__func__.6922\000"
 2118      6E635F5F 
 2118      2E363932 
 2118      3200
 2119              	.LASF54:
 2120 017c 725F6E65 		.ascii	"r_newer\000"
 2120      77657200 
 2121              	.LASF42:
 2122 0184 705F6D70 		.ascii	"p_mpool\000"
 2122      6F6F6C00 
 2123              	.LASF78:
 2124 018c 72656761 		.ascii	"regarm_t\000"
 2124      726D5F74 
 2124      00
 2125              	.LASF61:
 2126 0195 76745F70 		.ascii	"vt_prev\000"
 2126      72657600 
 2127              	.LASF110:
 2128 019d 6D757465 		.ascii	"mutex_t\000"
 2128      785F7400 
 2129              	.LASF76:
 2130 01a5 69646C65 		.ascii	"idle_thread_wa\000"
 2130      5F746872 
 2130      6561645F 
 2130      776100
 2131              	.LASF24:
 2132 01b4 636E745F 		.ascii	"cnt_t\000"
 2132      7400
 2133              	.LASF0:
 2134 01ba 756E7369 		.ascii	"unsigned int\000"
ARM GAS  /tmp/cczwjAuM.s 			page 53


 2134      676E6564 
 2134      20696E74 
 2134      00
 2135              	.LASF60:
 2136 01c7 76745F6E 		.ascii	"vt_next\000"
 2136      65787400 
 2137              	.LASF99:
 2138 01cf 77747365 		.ascii	"wtsemp\000"
 2138      6D7000
 2139              	.LASF38:
 2140 01d6 705F6D73 		.ascii	"p_msgqueue\000"
 2140      67717565 
 2140      756500
 2141              	.LASF104:
 2142 01e1 735F636E 		.ascii	"s_cnt\000"
 2142      7400
 2143              	.LASF82:
 2144 01e7 534D4352 		.ascii	"SMCR\000"
 2144      00
 2145              	.LASF45:
 2146 01ec 63685F74 		.ascii	"ch_thread\000"
 2146      68726561 
 2146      6400
 2147              	.LASF22:
 2148 01f6 6D73675F 		.ascii	"msg_t\000"
 2148      7400
 2149              	.LASF71:
 2150 01fc 63685F73 		.ascii	"ch_system_t\000"
 2150      79737465 
 2150      6D5F7400 
 2151              	.LASF91:
 2152 0208 73746D33 		.ascii	"stm32_tim_t\000"
 2152      325F7469 
 2152      6D5F7400 
 2153              	.LASF50:
 2154 0214 63685F72 		.ascii	"ch_ready_list\000"
 2154      65616479 
 2154      5F6C6973 
 2154      7400
 2155              	.LASF23:
 2156 0222 6576656E 		.ascii	"eventmask_t\000"
 2156      746D6173 
 2156      6B5F7400 
 2157              	.LASF6:
 2158 022e 5F5F696E 		.ascii	"__int32_t\000"
 2158      7433325F 
 2158      7400
 2159              	.LASF112:
 2160 0238 73745F6C 		.ascii	"st_lld_start_alarm\000"
 2160      6C645F73 
 2160      74617274 
 2160      5F616C61 
 2160      726D00
 2161              	.LASF79:
 2162 024b 73746B61 		.ascii	"stkalign_t\000"
 2162      6C69676E 
 2162      5F7400
ARM GAS  /tmp/cczwjAuM.s 			page 54


 2163              	.LASF37:
 2164 0256 705F7761 		.ascii	"p_waiting\000"
 2164      6974696E 
 2164      6700
 2165              	.LASF77:
 2166 0260 73697A65 		.ascii	"sizetype\000"
 2166      74797065 
 2166      00
 2167              	.LASF43:
 2168 0269 74687265 		.ascii	"thread_reference_t\000"
 2168      61645F72 
 2168      65666572 
 2168      656E6365 
 2168      5F7400
 2169              	.LASF66:
 2170 027c 63685F76 		.ascii	"ch_virtual_timers_list\000"
 2170      69727475 
 2170      616C5F74 
 2170      696D6572 
 2170      735F6C69 
 2171              	.LASF120:
 2172 0293 5F5F6675 		.ascii	"__func__.6915\000"
 2172      6E635F5F 
 2172      2E363931 
 2172      3500
 2173              	.LASF67:
 2174 02a1 76745F6C 		.ascii	"vt_lasttime\000"
 2174      61737474 
 2174      696D6500 
 2175              	.LASF32:
 2176 02ad 705F6F6C 		.ascii	"p_older\000"
 2176      64657200 
 2177              	.LASF115:
 2178 02b5 7374496E 		.ascii	"stInit\000"
 2178      697400
 2179              	.LASF53:
 2180 02bc 725F6374 		.ascii	"r_ctx\000"
 2180      7800
 2181              	.LASF93:
 2182 02c2 746D5F63 		.ascii	"tm_calibration_t\000"
 2182      616C6962 
 2182      72617469 
 2182      6F6E5F74 
 2182      00
 2183              	.LASF114:
 2184 02d3 74696D65 		.ascii	"time\000"
 2184      00
 2185              	.LASF56:
 2186 02d8 725F6375 		.ascii	"r_current\000"
 2186      7272656E 
 2186      7400
 2187              	.LASF55:
 2188 02e2 725F6F6C 		.ascii	"r_older\000"
 2188      64657200 
 2189              	.LASF11:
 2190 02ea 5F5F7569 		.ascii	"__uint64_t\000"
 2190      6E743634 
ARM GAS  /tmp/cczwjAuM.s 			page 55


 2190      5F7400
 2191              	.LASF20:
 2192 02f5 74726566 		.ascii	"trefs_t\000"
 2192      735F7400 
 2193              	.LASF58:
 2194 02fd 76697274 		.ascii	"virtual_timer_t\000"
 2194      75616C5F 
 2194      74696D65 
 2194      725F7400 
 2195              	.LASF28:
 2196 030d 705F7072 		.ascii	"p_prev\000"
 2196      657600
 2197              	.LASF21:
 2198 0314 74707269 		.ascii	"tprio_t\000"
 2198      6F5F7400 
 2199              	.LASF69:
 2200 031c 63685F73 		.ascii	"ch_system_debug\000"
 2200      79737465 
 2200      6D5F6465 
 2200      62756700 
 2201              	.LASF111:
 2202 032c 5F426F6F 		.ascii	"_Bool\000"
 2202      6C00
 2203              	.LASF14:
 2204 0332 696E7433 		.ascii	"int32_t\000"
 2204      325F7400 
 2205              	.LASF2:
 2206 033a 756E7369 		.ascii	"unsigned char\000"
 2206      676E6564 
 2206      20636861 
 2206      7200
 2207              	.LASF40:
 2208 0348 705F6D74 		.ascii	"p_mtxlist\000"
 2208      786C6973 
 2208      7400
 2209              	.LASF3:
 2210 0352 73686F72 		.ascii	"short int\000"
 2210      7420696E 
 2210      7400
 2211              	.LASF34:
 2212 035c 705F7374 		.ascii	"p_state\000"
 2212      61746500 
 2213              	.LASF52:
 2214 0364 725F7072 		.ascii	"r_prio\000"
 2214      696F00
 2215              	.LASF101:
 2216 036b 65776D61 		.ascii	"ewmask\000"
 2216      736B00
 2217              	.LASF27:
 2218 0372 705F6E65 		.ascii	"p_next\000"
 2218      787400
 2219              	.LASF13:
 2220 0379 75696E74 		.ascii	"uint8_t\000"
 2220      385F7400 
 2221              	.LASF59:
 2222 0381 63685F76 		.ascii	"ch_virtual_timer\000"
 2222      69727475 
ARM GAS  /tmp/cczwjAuM.s 			page 56


 2222      616C5F74 
 2222      696D6572 
 2222      00
 2223              	.LASF128:
 2224 0392 73745F6C 		.ascii	"st_lld_get_alarm\000"
 2224      6C645F67 
 2224      65745F61 
 2224      6C61726D 
 2224      00
 2225              	.LASF102:
 2226 03a3 63685F73 		.ascii	"ch_semaphore\000"
 2226      656D6170 
 2226      686F7265 
 2226      00
 2227              	.LASF90:
 2228 03b0 43435852 		.ascii	"CCXR\000"
 2228      00
 2229              	.LASF39:
 2230 03b5 705F6570 		.ascii	"p_epending\000"
 2230      656E6469 
 2230      6E6700
 2231              	.LASF15:
 2232 03c0 75696E74 		.ascii	"uint32_t\000"
 2232      33325F74 
 2232      00
 2233              	.LASF126:
 2234 03c9 2F752F6A 		.ascii	"/u/jacoroge/442FinalProject/milestone1\000"
 2234      61636F72 
 2234      6F67652F 
 2234      34343246 
 2234      696E616C 
 2235              	.LASF51:
 2236 03f0 725F7175 		.ascii	"r_queue\000"
 2236      65756500 
 2237              	.LASF62:
 2238 03f8 76745F64 		.ascii	"vt_delta\000"
 2238      656C7461 
 2238      00
 2239              	.LASF46:
 2240 0401 63685F74 		.ascii	"ch_threads_list\000"
 2240      68726561 
 2240      64735F6C 
 2240      69737400 
 2241              	.LASF9:
 2242 0411 6C6F6E67 		.ascii	"long unsigned int\000"
 2242      20756E73 
 2242      69676E65 
 2242      6420696E 
 2242      7400
 2243              	.LASF117:
 2244 0423 73745374 		.ascii	"stStopAlarm\000"
 2244      6F70416C 
 2244      61726D00 
 2245              	.LASF109:
 2246 042f 63686172 		.ascii	"char\000"
 2246      00
 2247              	.LASF100:
ARM GAS  /tmp/cczwjAuM.s 			page 57


 2248 0434 77746D74 		.ascii	"wtmtxp\000"
 2248      787000
 2249              	.LASF88:
 2250 043b 444D4152 		.ascii	"DMAR\000"
 2250      00
 2251              	.LASF26:
 2252 0440 74687265 		.ascii	"thread_t\000"
 2252      61645F74 
 2252      00
 2253              	.LASF108:
 2254 0449 6D5F6E65 		.ascii	"m_next\000"
 2254      787400
 2255              	.LASF25:
 2256 0450 73797374 		.ascii	"systime_t\000"
 2256      696D655F 
 2256      7400
 2257              	.LASF41:
 2258 045a 705F7265 		.ascii	"p_realprio\000"
 2258      616C7072 
 2258      696F00
 2259              	.LASF57:
 2260 0465 76746675 		.ascii	"vtfunc_t\000"
 2260      6E635F74 
 2260      00
 2261              	.LASF8:
 2262 046e 5F5F7569 		.ascii	"__uint32_t\000"
 2262      6E743332 
 2262      5F7400
 2263              	.LASF70:
 2264 0479 70616E69 		.ascii	"panic_msg\000"
 2264      635F6D73 
 2264      6700
 2265              	.LASF92:
 2266 0483 6F666673 		.ascii	"offset\000"
 2266      657400
 2267              	.LASF116:
 2268 048a 73745374 		.ascii	"stStartAlarm\000"
 2268      61727441 
 2268      6C61726D 
 2268      00
 2269              	.LASF80:
 2270 0497 636F6E74 		.ascii	"context\000"
 2270      65787400 
 2271              	.LASF17:
 2272 049f 7274636E 		.ascii	"rtcnt_t\000"
 2272      745F7400 
 2273              	.LASF127:
 2274 04a7 73745F6C 		.ascii	"st_lld_stop_alarm\000"
 2274      6C645F73 
 2274      746F705F 
 2274      616C6172 
 2274      6D00
 2275              	.LASF64:
 2276 04b9 76745F70 		.ascii	"vt_par\000"
 2276      617200
 2277              	.LASF47:
 2278 04c0 74687265 		.ascii	"threads_queue_t\000"
ARM GAS  /tmp/cczwjAuM.s 			page 58


 2278      6164735F 
 2278      71756575 
 2278      655F7400 
 2279              	.LASF105:
 2280 04d0 63685F6D 		.ascii	"ch_mutex\000"
 2280      75746578 
 2280      00
 2281              	.LASF36:
 2282 04d9 705F7265 		.ascii	"p_refs\000"
 2282      667300
 2283              	.LASF73:
 2284 04e0 726C6973 		.ascii	"rlist\000"
 2284      7400
 2285              	.LASF118:
 2286 04e6 73745365 		.ascii	"stSetAlarm\000"
 2286      74416C61 
 2286      726D00
 2287              	.LASF124:
 2288 04f1 474E5520 		.ascii	"GNU C 4.8.4 20140526 (release) [ARM/embedded-4_8-br"
 2288      4320342E 
 2288      382E3420 
 2288      32303134 
 2288      30353236 
 2289 0524 616E6368 		.ascii	"anch revision 211358] -mcpu=cortex-m4 -mno-thumb-in"
 2289      20726576 
 2289      6973696F 
 2289      6E203231 
 2289      31333538 
 2290 0557 74657277 		.ascii	"terwork -mthumb -ggdb -O2 -fomit-frame-pointer -fal"
 2290      6F726B20 
 2290      2D6D7468 
 2290      756D6220 
 2290      2D676764 
 2291 058a 69676E2D 		.ascii	"ign-functions=16 -ffunction-sections -fdata-section"
 2291      66756E63 
 2291      74696F6E 
 2291      733D3136 
 2291      202D6666 
 2292 05bd 73202D66 		.ascii	"s -fno-common -flto\000"
 2292      6E6F2D63 
 2292      6F6D6D6F 
 2292      6E202D66 
 2292      6C746F00 
 2293              	.LASF129:
 2294 05d1 73744765 		.ascii	"stGetAlarm\000"
 2294      74416C61 
 2294      726D00
 2295              	.LASF96:
 2296 05dc 77746F62 		.ascii	"wtobjp\000"
 2296      6A7000
 2297              	.LASF33:
 2298 05e3 705F6E61 		.ascii	"p_name\000"
 2298      6D6500
 2299              	.LASF122:
 2300 05ea 5F5F6675 		.ascii	"__func__.6926\000"
 2300      6E635F5F 
 2300      2E363932 
ARM GAS  /tmp/cczwjAuM.s 			page 59


 2300      3600
 2301              	.LASF44:
 2302 05f8 74687265 		.ascii	"threads_list_t\000"
 2302      6164735F 
 2302      6C697374 
 2302      5F7400
 2303              	.LASF119:
 2304 0607 61627374 		.ascii	"abstime\000"
 2304      696D6500 
 2305              	.LASF35:
 2306 060f 705F666C 		.ascii	"p_flags\000"
 2306      61677300 
 2307              	.LASF113:
 2308 0617 73745F6C 		.ascii	"st_lld_set_alarm\000"
 2308      6C645F73 
 2308      65745F61 
 2308      6C61726D 
 2308      00
 2309              	.LASF107:
 2310 0628 6D5F6F77 		.ascii	"m_owner\000"
 2310      6E657200 
 2311              	.LASF30:
 2312 0630 705F6374 		.ascii	"p_ctx\000"
 2312      7800
 2313              	.LASF63:
 2314 0636 76745F66 		.ascii	"vt_func\000"
 2314      756E6300 
 2315              		.comm	__gnu_lto_v1,1,1
 2316              		.ident	"GCC: (GNU Tools for ARM Embedded Processors) 4.8.4 20140526 (release) [ARM/embedded-4_8-br
ARM GAS  /tmp/cczwjAuM.s 			page 60


DEFINED SYMBOLS
                            *ABS*:00000000 st.c
     /tmp/cczwjAuM.s:246    .text.stInit:00000000 $t
     /tmp/cczwjAuM.s:252    .text.stInit:00000000 stInit
     /tmp/cczwjAuM.s:267    .text.stStartAlarm:00000000 $t
     /tmp/cczwjAuM.s:273    .text.stStartAlarm:00000000 stStartAlarm
     /tmp/cczwjAuM.s:304    .text.stStopAlarm:00000000 $t
     /tmp/cczwjAuM.s:310    .text.stStopAlarm:00000000 stStopAlarm
     /tmp/cczwjAuM.s:330    .text.stSetAlarm:00000000 $t
     /tmp/cczwjAuM.s:336    .text.stSetAlarm:00000000 stSetAlarm
     /tmp/cczwjAuM.s:357    .text.stGetAlarm:00000000 $t
     /tmp/cczwjAuM.s:363    .text.stGetAlarm:00000000 stGetAlarm
                            *COM*:00000001 __gnu_lto_v1
                     .debug_frame:00000010 $d

UNDEFINED SYMBOLS
st_lld_init
