ARM GAS  /tmp/cczwjAuM.s 			page 1


   1              		.syntax unified
   2              		.cpu cortex-m4
   3              		.fpu softvfp
   4              		.eabi_attribute 20, 1
   5              		.eabi_attribute 21, 1
   6              		.eabi_attribute 23, 3
   7              		.eabi_attribute 24, 1
   8              		.eabi_attribute 25, 1
   9              		.eabi_attribute 26, 1
  10              		.eabi_attribute 30, 2
  11              		.eabi_attribute 34, 1
  12              		.eabi_attribute 18, 4
  13              		.thumb
  14              		.file	"st.c"
  15              		.text
  16              	.Ltext0:
  17              		.section	.gnu.lto_.jmpfuncs.7c0e7d73c20638cf,"",%progbits
  18 0000 789C6362 		.ascii	"x\234cb`b\300\006x\2414+\020322103\26200\000\000\002"
  18      6062C006 
  18      78A1342B 
  18      10333232 
  18      313033B2 
  19 0019 6D0023   		.ascii	"m\000#"
  20              		.text
  21              		.section	.gnu.lto_.inline.7c0e7d73c20638cf,"",%progbits
  22 0000 789C6362 		.ascii	"x\234cb`b\300\006R\2414+\003\003\013\017#X\021\333\002"
  22      6062C006 
  22      52A1342B 
  22      03030B0F 
  22      235811DB 
  23 0015 79B05A46 		.ascii	"y\260ZF.\020\301\300\306\012\024f\373\240\007\027gb"
  23      2E10C1C0 
  23      C60A1466 
  23      FBA00717 
  23      6762
  24 0027 6061060A 		.ascii	"`a\006\0121]\340\207\0131c\012\261`\0121\000\000\232"
  24      315DE087 
  24      0B31630A 
  24      B1600A31 
  24      00009A
  25 003a 48086D   		.ascii	"H\010m"
  26              		.text
  27              		.section	.gnu.lto_.pureconst.7c0e7d73c20638cf,"",%progbits
  28 0000 789C6362 		.ascii	"x\234cb`b\340f\200\000V\006\011F)&)f)\026)\000\004\027"
  28      6062E066 
  28      80005606 
  28      09462926 
  28      29662916 
  29 0018 009F     		.ascii	"\000\237"
  30              		.text
  31              		.section	.gnu.lto_stInit.7c0e7d73c20638cf,"",%progbits
  32 0000 789C6362 		.ascii	"x\234cb`b@\007\222@\\\011\304\262@\314\310\314\300\310"
  32      60624007 
  32      92405C09 
  32      C4B240CC 
  32      C8CCC0C8 
  33 0014 34E11C03 		.ascii	"4\341\034\003C#\007\023##\210\301\300\310P\317\304X"
ARM GAS  /tmp/cczwjAuM.s 			page 2


  33      43230713 
  33      232388C1 
  33      C0C850CF 
  33      C458
  34 0026 1FC90856 		.ascii	"\037\311\010V\273\236\351\300\203\377\377\327\375X\373"
  34      BB9EE9C0 
  34      83FFFFD7 
  34      FD58FB
  35 0035 B01EA894 		.ascii	"\260\036\250\224\201\201\225\241\245\241a\202\002\003"
  35      818195A1 
  35      A5A16182 
  35      0203
  36 0043 4332583E 		.ascii	"C2X>\004H\2024\20522\201h\346\363\014\315\017\376\331"
  36      04488234 
  36      85323281 
  36      68E6F30C 
  36      CD0FFED9 
  37 0057 24322E64 		.ascii	"$2.dd\005\312V3\374j\350h\020\310d\004\252\206\030\227"
  37      6405CA56 
  37      33FC6AE8 
  37      6810C864 
  37      04AA8618 
  38 006c 09A22F32 		.ascii	"\011\242/24>\370\317\004S\004\001!@\011\240\001 \307"
  38      343EF8CF 
  38      04530401 
  38      214009A0 
  38      0120C7
  39 007f 4AEBE9E9 		.ascii	"J\353\351\351;gd&e\372\007\353\347\027\353g$\346\350"
  39      3B676426 
  39      65FA07EB 
  39      E717EB67 
  39      24E6E8
  40 0092 171725EB 		.ascii	"\027\027%\353\027\227\350%3\000\000\355\343*\327"
  40      1797E825 
  40      330000ED 
  40      E32AD7
  41              		.text
  42              		.section	.gnu.lto_stStartAlarm.7c0e7d73c20638cf,"",%progbits
  43 0000 789C9D91 		.ascii	"x\234\235\221AK\002A\024\307\337\233\335Uou\215 \302"
  43      414B0241 
  43      14C7DF9B 
  43      DD556F75 
  43      8D20C2
  44 0013 6BB583F5 		.ascii	"k\265\203\365\001:\324%P:\270A\235b\265\310\005\305"
  44      013AD425 
  44      503AB841 
  44      9D62B5C8 
  44      05C5
  45 0025 70A5ABB3 		.ascii	"p\245\253\263\"\236E\210\302NJ\021\204\344)\220\272"
  45      229E4588 
  45      C24E4A11 
  45      84E42990 
  45      BA
  46 0036 58B79202 		.ascii	"X\267\222\002\243k\340\027\010\374\000\301\366fT\302"
  46      A36BE017 
  46      08FC00C1 
  46      F66654C2 
ARM GAS  /tmp/cczwjAuM.s 			page 3


  47 0046 3A043DD8 		.ascii	":\004=\330y;\377y\357\367\177\3140`\3603f\350{B\000"
  47      793BFF79 
  47      EFF77FCC 
  47      3060F033 
  47      66E87B42 
  48 005b 8B326A80 		.ascii	"\2132j\200\254\362\002\340\205\030\242\374\001\204\002"
  48      ACF202E0 
  48      8518A2FC 
  48      018402
  49 006a C3C20EAA 		.ascii	"\303\302\016\252\332\026\353\364}\377\372\266|\331\304"
  49      DA16EBF4 
  49      7DFFFAB6 
  49      7CD9C4
  50 0079 1A0B32CC 		.ascii	"\032\0132\314(\335\200\222\020\225\371\014\322.\251"
  50      28DD8092 
  50      1095F90C 
  50      D22EA9
  51 0088 148B56D9 		.ascii	"\024\213V\331\276\205Lf\355\021\212!\2000\324\205\250"
  51      BE854C66 
  51      ED118A21 
  51      8030D485 
  51      A8
  52 0099 76EECA5D 		.ascii	"v\356\312]\024U\341\015|\177\312A\032i\016e\3336:\210"
  52      1455E10D 
  52      7C7FCA41 
  52      1A690E65 
  52      DB363A88 
  53 00ad F32A317D 		.ascii	"\363*1}r\306\003\302\3003<t?_\337\213\301\221\335\330"
  53      72C603C2 
  53      C0333C74 
  53      3F5FDF8B 
  53      C191DDD8 
  54 00c1 B7D37DEB 		.ascii	"\267\323}\353\031660L\2256\326\321 \232\232b\011\232"
  54      19363630 
  54      4C9536D6 
  54      D1209A9A 
  54      62099A
  55 00d4 A2E4F54F 		.ascii	"\242\344\365O>\216\027\035\324\026\340\212vb\325A\375"
  55      3E8E171D 
  55      D416E08A 
  55      7662D541 
  55      FD
  56 00e5 0C6A5E45 		.ascii	"\014j^EL;hH\267\200\240\320\225q@\331%P\221.\210\244"
  56      4C3B6848 
  56      B780A0D0 
  56      957140D9 
  56      2550912E 
  57 00fb D4E0708A 		.ascii	"\324\340p\212\2212\036\246}\332\272\327l<'\355\033\255"
  57      91321EA6 
  57      7DDABAD7 
  57      6C3C27ED 
  57      1BAD
  58 010d FD89C609 		.ascii	"\375\211\306\011\264&E\011k\377\013\306&a\362u{\340"
  58      B4264509 
  58      6BFF0BC6 
  58      2661F275 
  58      7BE0
ARM GAS  /tmp/cczwjAuM.s 			page 4


  59 011f 0D1A37FA 		.ascii	"\015\0327\372\360\"\306a\221-\275\203<\2375M\276\226"
  59      F022C661 
  59      912DBD83 
  59      3C9F354D 
  59      BE96
  60 0131 7212CE66 		.ascii	"r\022\316f\234g]\236\262\323\334\315%\271\2337\223\240"
  60      9C675D9E 
  60      B2D3DCCD 
  60      25B99B37 
  60      93A0
  61 0143 E79DCC7E 		.ascii	"\347\235\314~\344w\301a6\227wy\334\212\255,\363ht\235"
  61      E477C161 
  61      36977779 
  61      DC8AAD2C 
  61      F368749D 
  62 0157 5B1BB1A3 		.ascii	"[\033\261\243\010\265\354\246\323{f\012\276\000\313"
  62      08B5ECA6 
  62      D37B660A 
  62      BE00CB
  63 0166 6F8BC9   		.ascii	"o\213\311"
  64              		.text
  65              		.section	.gnu.lto_stStopAlarm.7c0e7d73c20638cf,"",%progbits
  66 0000 789C6362 		.ascii	"x\234cb`b@\007\222@|\024\210\375\201\230\221\231\201"
  66      60624007 
  66      92407C14 
  66      88FD8198 
  66      919981
  67 0013 9169C239 		.ascii	"\221i\3029\006\206F\016&FF\020\203\201\221\241\236\211"
  67      0686460E 
  67      26464610 
  67      838191A1 
  67      9E89
  68 0025 B13E9211 		.ascii	"\261>\222\021\254v=\323\201\007\377\377\257\373\326"
  68      AC763DD3 
  68      8107FFFF 
  68      AFFBD6
  69 0034 36E70DE3 		.ascii	"6\347\015\343l&\026\240\010+CKC\303\004\005\006\206"
  69      6C2616A0 
  69      082B434B 
  69      43C30405 
  69      0686
  70 0046 64B08A10 		.ascii	"d\260\212\020 \011\322\026\312\310\004\242\231\3172"
  70      2009D216 
  70      CAC804A2 
  70      99CF32
  71 0055 1CDA71E7 		.ascii	"\034\332q\347\374\363G\254pu\020\306\201\323\367\016"
  71      FCF347AC 
  71      707510C6 
  71      81D3F70E 
  72 0065 B2323024 		.ascii	"\26220$2.dd\005j\005\353\325fX\325\320\322\370\340\357"
  72      322E6464 
  72      056A05EB 
  72      D56658D5 
  72      D0D2F8E0 
  73 007a 9E69F299 		.ascii	"\236i\362\231\214\014\263\031f5Nh\020\310dd\214`\314"
  73      8C0CB319 
  73      66354E68 
ARM GAS  /tmp/cczwjAuM.s 			page 5


  73      10C86464 
  73      8C60CC
  74 008d 64646A00 		.ascii	"ddj\000\002\026\0060\023\354\222$\220\226D\306\305@"
  74      02160630 
  74      13EC9224 
  74      909644C6 
  74      C540
  75 009f ED6051B0 		.ascii	"\355`Q\260\340E\206\306\017\217\266\263@L\205\201\020"
  75      E04586C6 
  75      0F8FB6B3 
  75      404C8581 
  75      10
  76 00b0 A0E940A7 		.ascii	"\240\351@\247\200\264I\353\351\351;gd&e\372\007\353"
  76      80B449EB 
  76      E9E93B67 
  76      642665FA 
  76      07EB
  77 00c2 E717EB67 		.ascii	"\347\027\353g$\346\350\027\027%\353\027\227\350%3\030"
  77      24E6E817 
  77      1725EB17 
  77      97E82533 
  77      18
  78 00d3 62CA15E4 		.ascii	"b\312\025\344\027\225\024\353\007\207\370\032\033\351"
  78      179514EB 
  78      0787F81A 
  78      1BE9
  79 00e1 FBF8B8E8 		.ascii	"\373\370\270\350\207x\372\226\031\002U\307\347\344\244"
  79      8778FA96 
  79      190255C7 
  79      E7E4A4
  80 00f0 E8653000 		.ascii	"\350e0\000\000Y\022QV"
  80      00591251 
  80      56
  81              		.text
  82              		.section	.gnu.lto_stSetAlarm.7c0e7d73c20638cf,"",%progbits
  83 0000 789C6550 		.ascii	"x\234eP\277KBQ\024>\337\365=u\2535\202\010\327\352\335"
  83      BF4B4251 
  83      143EDFF5 
  83      3D75AB35 
  83      8208D7EA 
  84 0015 AC3FA0A1 		.ascii	"\254?\240\241\226@i\360\0055\205Z\344\005\305Pi\365"
  84      964069F0 
  84      0535855A 
  84      E405C550 
  84      69F5
  85 0027 3E115CC5 		.ascii	">\021\\\305E(\032\014j\210~P\215-\322\026RP\177\201"
  85      45281A0C 
  85      6A887E50 
  85      8D2DD216 
  85      52507F81 
  86 003b 3447B8B4 		.ascii	"4G\270\264\005\257\363\256:T\007\356=\347|\234\363}"
  86      05AFF3AE 
  86      3A5407EE 
  86      3DE77C9C 
  86      F37D
  87 004d DFBD8204 		.ascii	"\337\275\202\004\375\215)>\213 r9#D\020\315\027\"/*"
  87      FD8D293E 
ARM GAS  /tmp/cczwjAuM.s 			page 6


  87      8B207239 
  87      234410CD 
  87      17222F2A 
  88 0061 80A02050 		.ascii	"\200\240 PU\240\272\0153{#\272}\337\277\276k\234\177"
  88      55A0BA0D 
  88      337B23BA 
  88      7DDFBFBE 
  88      6B9C7F
  89 0074 E044D802 		.ascii	"\340D\330\002\005\203\333T\327\2729[\000wY\203\270|"
  89      0583DB54 
  89      D7BA395B 
  89      00775983 
  89      B87C
  90 0086 07EB9B10 		.ascii	"\007\353\233\020A\016=Q-J\024\243\216\326\255\356}\243"
  90      410E3D51 
  90      2D4A14A3 
  90      8ED6ADEE 
  90      7DA3
  91 0098 07DDD2DE 		.ascii	"\007\335\322\336\300\367'\024\330\322\014\202\265-("
  91      C0F72714 
  91      D8D20C82 
  91      B52D28
  92 00a7 60D62461 		.ascii	"`\326$a\375\366\270\3174\364L\217\275\357\267\257Zd"
  92      FDF6B8CF 
  92      34F44C8F 
  92      BDEFB7AF 
  92      5A64
  93 00b9 2437D6ED 		.ascii	"$7\326\355\366>o\3554N\021\343\3114:\260\231\315\270"
  93      F63E6FED 
  93      344E11E3 
  93      C9343AB0 
  93      99CDB8
  94 00cc 58A04B5D 		.ascii	"X\240K]\367\372\355\253\366\274Bh\216.\270\323+\012"
  94      F7FAEDAB 
  94      F6BC4268 
  94      8E2EB8D3 
  94      2B0A
  95 00de D6311D79 		.ascii	"\3261\035yM=\251`\007ja\315a\031\341\260\221\313\300"
  95      4D3DA960 
  95      076A61CD 
  95      6119E1B0 
  95      91CBC0
  96 00f1 309D3193 		.ascii	"0\2351\223A#C\027#\304\230y%o\360\376`\015\345\306\341"
  96      41234317 
  96      23C49879 
  96      256FF0FE 
  96      600DE5C6 
  97 0106 B22CBF36 		.ascii	"\262,\2776\370\343i\307\221\2539\225Q\033)Y,\313\\:"
  97      F8E369C7 
  97      91AB3995 
  97      511B2959 
  97      2CCB5C3A 
  98 011a 2FCBA5AC 		.ascii	"/\313\245\254,W\234,Y\025U\330\213\377\0378(\226*e\231"
  98      2C579C2C 
  98      591555D8 
  98      8BFF1F38 
  98      28962A65 
ARM GAS  /tmp/cczwjAuM.s 			page 7


  99 012f 7293CB4B 		.ascii	"r\223\313K2\221X\223\356z\3620\316+;\371\374\256\223"
  99      32915893 
  99      EE7AF230 
  99      CE2B3BF9 
  99      FCAE93
 100 0142 A31F76FD 		.ascii	"\243\037v\375gl"
 100      676C
 101              		.text
 102              		.section	.gnu.lto_stGetAlarm.7c0e7d73c20638cf,"",%progbits
 103 0000 789C6362 		.ascii	"x\234cb`b@\007\222@\374\014\210\375\201\230\221\231"
 103      60624007 
 103      9240FC0C 
 103      88FD8198 
 103      9199
 104 0012 819169C2 		.ascii	"\201\221i\3029\006\206F\016&FF\020\203\201\221\241\236"
 104      39068646 
 104      0E264646 
 104      10838191 
 104      A19E
 105 0024 89B13E92 		.ascii	"\211\261>\222\021\254v=\323\201\007\377\377\257\373"
 105      11AC763D 
 105      D38107FF 
 105      FFAFFB
 106 0033 D43EEF0D 		.ascii	"\324>\357\015\343|&\026f\206L\2608+CKC\303\004\205\\"
 106      E37C2616 
 106      66864CB0 
 106      382B434B 
 106      43C30485 
 107 0048 1027192C 		.ascii	"\020'\031,\022\002$A\332C\031\231@4\363Y\206Cw\356\234"
 107      12022441 
 107      DA431999 
 107      4034F359 
 107      864377EE 
 108 005d FF6F0455 		.ascii	"\377o\004U\011\323r\340\344?\240\302D\306\205\214\254"
 108      09D372E0 
 108      E43FA0C2 
 108      44C6858C 
 108      AC
 109 006e 408D609D 		.ascii	"@\215`\235\351\214\314\272\014k\032Z\032\037\374\375"
 109      E98CCCBA 
 109      0C6B1A5A 
 109      1A1FFCFD 
 110 007e 335D2A93 		.ascii	"3]*\223\221Q\233a\025\220\3270\2311\223\221i6\303\254"
 110      91519B61 
 110      1590D730 
 110      99319391 
 110      6936C3AC 
 111 0092 C6090D02 		.ascii	"\306\011\015\002\231\214\314\021@.K\003\020\2600\200"
 111      998CCC11 
 111      402E4B03 
 111      10B03080 
 112 00a2 9960E725 		.ascii	"\231`\347%\201LHd\\\0144\015,\312\012\361!T\204\201"
 112      814C4864 
 112      5C0C340D 
 112      2CCA0AF1 
 112      21548481 
 113 00b6 E12243E3 		.ascii	"\341\"C\343\207K\373y \366\001-\202H\207\000-\006\272"
ARM GAS  /tmp/cczwjAuM.s 			page 8


 113      874BFB79 
 113      20F6012D 
 113      82488700 
 113      2D06BA
 114 00c9 111432D2 		.ascii	"\021\0242\322zz\372\316\031\231I\231\376\301\372\371"
 114      7A7AFACE 
 114      19994999 
 114      FEC1FAF9 
 115 00d9 C5FA1989 		.ascii	"\305\372\031\2119\372\305E\311\372\305%z\311\014\206"
 115      39FAC545 
 115      C9FAC525 
 115      7AC90C86 
 116 00e9 987205F9 		.ascii	"\230r\005\371E%\305\372\301!\276\306F\372>>.\372!\236"
 116      4525C5FA 
 116      C121BEC6 
 116      46FA3E3E 
 116      2EFA219E 
 117 00fd BE658640 		.ascii	"\276e\206@\325\36199)z\031\014\000[\223W<"
 117      D5F13939 
 117      297A190C 
 117      005B9357 
 117      3C
 118              		.text
 119              		.section	.gnu.lto_.symbol_nodes.7c0e7d73c20638cf,"",%progbits
 120 0000 789C4DC7 		.ascii	"x\234M\307\261\015\2000\020\004\301\3735\256\224B\316"
 120      B10D8030 
 120      1004C1FB 
 120      35AE9442 
 120      CE
 121 0011 1209A101 		.ascii	"\022\011\241\001\223R\0225P\011\"\000\011O6\010\215"
 121      93521235 
 121      50092200 
 121      094F3608 
 121      8D
 122 0022 FA50B154 		.ascii	"\372P\261TO\311>\346`\301\321u\305t\335p\352\332\360"
 122      4FC93EE6 
 122      60C1D175 
 122      C574DD70 
 122      EADAF0
 123 0035 F037769C 		.ascii	"\3607v\234\337\226\022IY\323u\207\036\334\301\035\316"
 123      DF961249 
 123      59D37587 
 123      1EDCC11D 
 123      CE
 124              		.text
 125              		.section	.gnu.lto_.refs.7c0e7d73c20638cf,"",%progbits
 126 0000 789C6362 		.ascii	"x\234cb`b`d\200\002\000\000F\000\006"
 126      60626064 
 126      80020000 
 126      460006
 127              		.text
 128              		.section	.gnu.lto_.decls.7c0e7d73c20638cf,"",%progbits
 129 0000 789CBD58 		.ascii	"x\234\275Xkl\024U\024\276wv[v\333\245\024P\2541\221"
 129      6B6C1455 
 129      14BE7776 
 129      5B76DBA5 
 129      1450AC31 
ARM GAS  /tmp/cczwjAuM.s 			page 9


 130 0015 4A841892 		.ascii	"J\204\030\222v\350\362\210\374ApK(\011\005\262[\222"
 130      76E8F288 
 130      FC41704B 
 130      280905B2 
 130      5B92
 131 0027 26FE58A7 		.ascii	"&\376X\247\273\003\273I\273\255\273S\015\377n[ (bJy"
 131      BB03BB49 
 131      BBADBB53 
 131      0DFF6E5B 
 131      2028624A 
 132 003c 580D81E5 		.ascii	"X\015\201\345\015\011\250\251X-\362X\036\205F|\000\025"
 132      0D09A8A9 
 132      582DF258 
 132      1E85467C 
 132      0015
 133 004e 14AAB286 		.ascii	"\024\252\262\206`}\206\032\302S\350z\346\316\314\356"
 133      607D861A 
 133      C253E87A 
 133      E6CECCEE 
 134 005e CC74A6CC 		.ascii	"\314t\246\314\222\350$\347\364\356\3149\337\375\356"
 134      92E824E7 
 134      F4EECC39 
 134      DFFDEE
 135 006d 39E7CE9C 		.ascii	"9\347\316\234[\0061h3F(\005\327\204\261\010=d\020\312"
 135      5B063168 
 135      33462805 
 135      D784B108 
 135      3D6410CA 
 136 0081 4508CD42 		.ascii	"E\010\315B\231K\374\275\015d7H'H\027\310\021\220\343"
 136      994BFCBD 
 136      0D643748 
 136      274817C8 
 136      1190E3
 137 0094 68E825DA 		.ascii	"h\350%\332\001\004:\011\262]\276\307\310\367\215\354"
 137      01043A09 
 137      B25DBEC7 
 137      C8F78DEC 
 138 00a4 454C07C8 		.ascii	"EL\007\310>\220\002\020\027\310)\220n\220\036\220\273"
 138      3E900210 
 138      17C82990 
 138      6E901E90 
 138      BB
 139 00b5 2076101B 		.ascii	" v\020\033H?\310E\220^\031S\364\275'\217?\006\031\324"
 139      483FC845 
 139      905E1953 
 139      F4BD278F 
 139      3F0619D4 
 140 00c9 6177CA7E 		.ascii	"aw\312~\247TXX\345/>w\340\241\234\272,r\3022'F\366\311"
 140      A7545858 
 140      E52F3E77 
 140      E0A19CBA 
 140      2C72C232 
 141 00e1 C7D2F873 		.ascii	"\307\322\370s\220Q:\\1^\2712\346\243\260D\333'\260t"
 141      90513A5C 
 141      315EB932 
 141      E6A3B044 
 141      DB27B074 
ARM GAS  /tmp/cczwjAuM.s 			page 10


 142 00f5 EF291DCE 		.ascii	"\357)\035\316x\264\205\304\223\311\225[\317b\322F\036"
 142      78B485C4 
 142      93C9955B 
 142      CF62D246 
 142      1E
 143 0106 A4523634 		.ascii	"\244R64\016m$p\305W\021\202\005\016\317z\022Uc\016\027"
 143      0E6D2470 
 143      C5571182 
 143      050ECF7A 
 143      1255630E 
 144 011b 3851311D 		.ascii	"8Q1\035\270\234t\002\2048\274\035\217\223GKl\022\034"
 144      B89C7402 
 144      8438BC1D 
 144      8F93474B 
 144      6C121C
 145 012e 839EC568 		.ascii	"\203\236\305h2\332\007\376\255\204l\037;4\030pMB\273"
 145      32DA07FE 
 145      AD846C1F 
 145      3B341870 
 145      4D42BB
 146 0141 C409C85E 		.ascii	"\304\011\310^b\243\360\"\3006<^m\302\341\035\230\321"
 146      62A3F022 
 146      C0363C5E 
 146      6DC2E11D 
 146      98D1
 147 0153 F34C0E24 		.ascii	"\363L\016$\016\235v\2656%S\251\361\326I\356\221I\332"
 147      0E9D76B5 
 147      362553A9 
 147      F1D649EE 
 147      9149DA
 148 0166 682C9013 		.ascii	"h,\220\023\255&\244Yt\254\350\201d\030yMD;\201~\262"
 148      AD26A459 
 148      74ACE881 
 148      6418794D 
 148      443B817E 
 149 017b EB402F43 		.ascii	"\353@/C\210\203\303\373\260\023|}\030\300v\342\3112"
 149      8883C3FB 
 149      B0137C7D 
 149      18C076E2 
 149      C932
 150 018d 21EB38FF 		.ascii	"!\3538\377\254\352>\216\233\201'\207\367S\244\363\370"
 150      ACEA3E8E 
 150      9B812787 
 150      F753A4F3 
 150      F8
 151 019e 71A16EBD 		.ascii	"q\241n\275sx&\245\364!\005\272\312h\2018<\302\251\215"
 151      737826A5 
 151      F42105BA 
 151      CA688138 
 151      3CC2A98D 
 152 01b2 22FC560C 		.ascii	"\"\374V\014D4\372X\036\210;t\024\372\217\3153\225A\213"
 152      4434FA58 
 152      1E883B74 
 152      14FA8FCD 
 152      3395418B 
 153 01c6 E3771DE1 		.ascii	"\343w\035\341\347\321\016B\332\222\273\372\177\265\275"
 153      E7D10E42 
ARM GAS  /tmp/cczwjAuM.s 			page 11


 153      DA92BBFA 
 153      7FB5BD
 154 01d5 47127625 		.ascii	"G\022v%\324w\250\331n(\011\243XHV\231:ZKV\026\342t!"
 154      D477A8D9 
 154      6E2809A3 
 154      58485699 
 154      3A5A4B56 
 155 01ed EDD61752 		.ascii	"\355\326\027R\207a!\335V\012I\252b\006\245t\324\214"
 155      876121DD 
 155      560A49AA 
 155      6206A574 
 155      D48C
 156 01ff CBB4538F 		.ascii	"\313\264S\217\376\251!z\307\2314\372\036\212\276\306"
 156      FEA9217A 
 156      C79934FA 
 156      1E8ABEC6 
 157 020f 66B47072 		.ascii	"f\264pr'X!\255\206\303\007\001\210\303]\217\265\346"
 157      275821AD 
 157      86C30701 
 157      88C35D8F 
 157      B5E6
 158 0221 2E3DAB43 		.ascii	".=\253C\206\254n\236Y\3734\2117'R\251\227\364\233\\"
 158      86AC6E9E 
 158      59FB3489 
 158      372752A9 
 158      97F49B5C 
 159 0235 4437DB40 		.ascii	"D7\333@G\015v\371&\233a\264\232I\307^\342T\310r\370"
 159      470D76F9 
 159      269B61B4 
 159      9A49C75E 
 159      E254C872 
 160 024a 88C97264 		.ascii	"\210\311rd\274c\0064[\223\353\373\0366\341u-\361\036"
 160      BC630634 
 160      5B93EBFB 
 160      1E36E175 
 160      2DF11E
 161 025d 3220D690 		.ascii	"2 \326\220\222\240\336!SJ '\264 \371\350\255\314f\222"
 161      92A0DE21 
 161      534A2027 
 161      B420F9E8 
 161      ADCC6692 
 162 0271 7CCD1676 		.ascii	"|\315\026v\022\347+^t\013\266\014\273\0059|\000O\264"
 162      12E72B5E 
 162      740BB60C 
 162      BB05397C 
 162      004FB4
 163 0284 54F4A351 		.ascii	"T\364\243Q\253\030\333bq\376S\231\300\022\254\300\025"
 163      AB18DB62 
 163      71FE5399 
 163      C012ACC0 
 163      15
 164 0295 D239D566 		.ascii	"\3229\325f\373\315\3158|\032\217\316\220$\351\245\271"
 164      FBCDCD38 
 164      7C1A8FCE 
 164      9024E9A5 
 164      B9
 165 02a6 CC537646 		.ascii	"\314SvF*\026\345vz\220\331\213j+4\006\255\223\231\244"
ARM GAS  /tmp/cczwjAuM.s 			page 12


 165      2A16E576 
 165      7A90D98B 
 165      6A2B3406 
 165      AD9399A4 
 166 02ba 974E7215 		.ascii	"\227Nr\025\237WQ\372\365\223\332rg\006}\375\364\340"
 166      9F5751FA 
 166      F593DA72 
 166      67067DFD 
 166      F4E0
 167 02cc 3190910D 		.ascii	"1\220\221\015vmF\036\011#Nz\026\\%'\012J\022\353\373"
 167      766D461E 
 167      09234E7A 
 167      165C2527 
 167      0A4A12EB 
 168 02e1 5CC42EDD 		.ascii	"\\\304.\335G\006\011\226\257\347P\234\254hIl\354\333"
 168      47060996 
 168      AFE7509C 
 168      AC68496C 
 168      ECDB
 169 02f3 0C257C02 		.ascii	"\014%|\002K\201eP\234R\020}\215B\221^\276\022\213\002"
 169      4B816550 
 169      9C52107D 
 169      8D42915E 
 169      BE128B02 
 170 0307 A70E6F53 		.ascii	"\247\016oS\237\253\225S\300vf\015V\254\001kW\203\355"
 170      9FAB9553 
 170      C076660D 
 170      56AC016B 
 170      5783ED
 171 031a B502E630 		.ascii	"\265\002\3460g\366\276\032\354@\326`Zf\233\325`\035"
 171      67F6BE1A 
 171      EC40D660 
 171      5A669BD5 
 171      601D
 172 032c 56C00ACD 		.ascii	"V\300\012\315\231mQ\203}\2225\230\226\331Gj\260.+`E"
 172      996D5183 
 172      7D923598 
 172      96D9476A 
 172      B02E2B60 
 173 0341 E6CC3AD4 		.ascii	"\346\314:\324`\307\262\006\3232;\250\006\353\266\002"
 173      60C7B206 
 173      D3323BA8 
 173      06EBB602 
 174 0351 566CCEAC 		.ascii	"Vl\316\254S\015\366E\326`Zf\237\251\301\276\266\002"
 174      530DF645 
 174      D6605A66 
 174      9FA9C1BE 
 174      B602
 175 0363 F68239B3 		.ascii	"\366\2029\263Cj\260\013Y\203i\231\035V\203]\262\002"
 175      436AB00B 
 175      59836999 
 175      1D56835D 
 175      B202
 176 0375 36C58C59 		.ascii	"6\305\214YS\342\350+\"V7\274\374\030tE\217\245}K\032"
 176      53E2E82B 
 176      225637BC 
 176      FC187445 
ARM GAS  /tmp/cczwjAuM.s 			page 13


 176      8FA57D4B 
 177 038a 8169999D 		.ascii	"\201i\231\235S3\373\311\012\263\331\346`\027\324`\327"
 177      5333FBC9 
 177      0AB3D9E6 
 177      6017D460 
 177      D7
 178 039b AC805598 		.ascii	"\254\200U\230'\340[5X\177\326`Zf\227\324`\177Z\001["
 178      27E05B35 
 178      587FD660 
 178      5A6697D4 
 178      607F5A01 
 179 03b0 6CCEEC7B 		.ascii	"l\316\354{5\330\215\254\301\324\314\232\022W \233\362"
 179      35D88DAC 
 179      C1D4CC9A 
 179      1257209B 
 179      F2
 180 03c1 172F3E5B 		.ascii	"\027/>[\367e\234\255}\205i\314\366\233\232q\370V\326"
 180      F7659CAD 
 180      7D8569CC 
 180      F69B9A71 
 180      F856D6
 181 03d4 1FC6DB26 		.ascii	"\037\306\333&\037F\365\251(c\005\313\276\245_\266\206"
 181      1F46F5A9 
 181      286305CB 
 181      BEA55FB6 
 181      86
 182 03e5 843CAC36 		.ascii	"\204<\2546\210\241\321\245\376\372q\370K\332N|\205\237"
 182      88A1D1A5 
 182      FEFA71F8 
 182      4BDA4E7C 
 182      859F
 183 03f7 03FD0DD5 		.ascii	"\003\375\015\325\347\251\356\245\372\"\325\337Q}\231"
 183      E7A9EEA5 
 183      FA22D5DF 
 183      517D99
 184 0406 EA3EAA7F 		.ascii	"\352>\252\177\244\372*\325?S}\215\352\353T\367S\375"
 184      A4FA2AD5 
 184      3F537D8D 
 184      EAEB54F7 
 184      53FD
 185 0418 1BD57F50 		.ascii	"\033\325\177P\375\027\3257\250\376\233\352\233\240\323"
 185      FD17D537 
 185      A8FE9BEA 
 185      9BA0D3
 186 0427 97AE5DEA 		.ascii	"\227\256]\3521\311\257\310\375n\246]\022;\265\304\000"
 186      31C9AFC8 
 186      FD6EA65D 
 186      123BB5C4 
 186      00
 187 0438 746A3F9C 		.ascii	"tj?\234\300m-D\352\324\342\016\245\333\275\257k\014"
 187      C06D2D44 
 187      EAD4E20E 
 187      A5DBBDAF 
 187      6B0C
 188 044a E46EB797 		.ascii	"\344n\267\227\257P:\374\2659\242\305=\213\335\356e\262"
 188      AF503AFC 
 188      B539A2C5 
ARM GAS  /tmp/cczwjAuM.s 			page 14


 188      3D8BDDEE 
 188      65B2
 189 045c B828DDEC 		.ascii	"\270(\335\354\336\3237\273\367\265\015\340\004\264\215"
 189      DED337BB 
 189      F7B50DE0 
 189      04B48D
 190 046b 9C3B97BC 		.ascii	"\234;\227\274\336\337\216W'\341\024:\230Ja\245\325j"
 190      DEDF8E57 
 190      27E1143A 
 190      984A61A5 
 190      D56A
 191 047d 2F90CF5A 		.ascii	"/\220\317Z\311]\211\242\366L\233\342P\327\201\324\227"
 191      C95D89A2 
 191      F64C9BE2 
 191      50D781D4 
 191      97
 192 048e 80039336 		.ascii	"\200\003\2236&EE\306\266\034nb\304,63\231\272\222\306"
 192      264545C6 
 192      B61C6E62 
 192      C42C3633 
 192      99BA92C6 
 193 04a2 CA28450F 		.ascii	"\312(E\017\361m9\006\377\027\220\350\017\357*O\032R"
 193      F16D3906 
 193      FF1790E8 
 193      0FEF2A4F 
 193      1A52
 194 04b4 261D496D 		.ascii	"&\035Im3\353\221,\215\2558\274\202\311v\203\254d\214"
 194      33EB912C 
 194      8DAD38BC 
 194      82C97683 
 194      AC648C
 195 04c7 37884BC3 		.ascii	"7\210K\303Y\261\202\225\275\233\243;\253\351H@\217&"
 195      59B18295 
 195      BD9BA33B 
 195      ABE94840 
 195      8F26
 196 04d9 AF9DC379 		.ascii	"\257\235\303yXU:\277\350JG\352\362?\310\261r\014[\315"
 196      58553ABF 
 196      E84A47EA 
 196      F23FC8B1 
 196      720C5BCD 
 197 04ed E86AE04D 		.ascii	"\350j\340Mf\310I\"1\220\270pV:\206mM\024*\245\231\310"
 197      66C84922 
 197      3190B870 
 197      563A866D 
 197      4D142AA5 
 198 0503 312CCD63 		.ascii	"1,\315c|\372 \366\200\036\304\3260\217Q\232k\364\264"
 198      7CFA20F6 
 198      801EC4D6 
 198      308F519A 
 198      6BF4B4
 199 0516 DE660C4B 		.ascii	"\336f\014K\363\266air\230dRY\255L\232?\\\302uV\034^"
 199      F3B66169 
 199      72986452 
 199      59AD4C9A 
 199      3F5CC275 
 200 052d 9775C2DB 		.ascii	"\227u\302\333L\022\236\247Y\210b\005\303U\214\356\240"
ARM GAS  /tmp/cczwjAuM.s 			page 15


 200      4C129EA7 
 200      59886205 
 200      C3558CEE 
 200      A0
 201 053e AA23C1A0 		.ascii	"\252#\301\240\363\306\011\037l\303\353\325\011?J\023"
 201      F3C6091F 
 201      6CC3EBD5 
 201      093F4A13 
 202 054e 72D538E1 		.ascii	"r\3258\341\372\223\344\006\223|\310\023m4\016\364\240"
 202      FA93E406 
 202      937CC813 
 202      6D340EF4 
 202      A0
 203 055f 2AD01C6E 		.ascii	"*\320\034n\205\340(\374\217\014\303\177@\303\037=SZ"
 203      85E028FC 
 203      8F0CC37F 
 203      40C31F3D 
 203      535A
 204 0571 CA7A42E1 		.ascii	"\312zB\341\232\360\"\037[\037cC\\-\033\213\006\330\230"
 204      9AF0221F 
 204      5B1F6343 
 204      5C2D1B8B 
 204      06D898
 205 0584 501A40B9 		.ascii	"P\032@\2711a~$,\344\316[\270\244\330\203&i-\243\002"
 205      31617E24 
 205      2CE4CE5B 
 205      B8A4D883 
 205      26692DA3 
 206 0599 1B8E046A 		.ascii	"\033\216\004j\033\203<\033\010\305\226\307\204\345\015"
 206      1B833C1B 
 206      08C596C7 
 206      84E50D
 207 05a8 7CAC3484 		.ascii	"|\2544\204\234\3428\\\307\373\205\030\033YJe:\033\252"
 207      9CE2385C 
 207      C7FB8518 
 207      1B594A65 
 207      3A1BAA
 208 05bb AFE3D928 		.ascii	"\257\343\331(\037\343\271h \004\223D\203opQ\236\345"
 208      1FE3B968 
 208      20049344 
 208      836F7051 
 208      9EE5
 209 05cd A2756E76 		.ascii	"\242unvY P\002\203\022\276\256\206\017\006\371`\372"
 209      59205002 
 209      8312BEAE 
 209      860F06F9 
 209      60FA
 210 05df 46A43EC2 		.ascii	"F\244>\302\227\360\\M\270d\232\377\305\022\367\224\262"
 210      97F05C4D 
 210      B8649AFF 
 210      C512F794 
 210      B2
 211 05f0 69AFB959 		.ascii	"i\257\271Y\315\2034\203\230\020\014G\004\230\335\321"
 211      CD833483 
 211      98100C47 
 211      0498DDD1 
 212 0600 087FA7BA 		.ascii	"\010\177\247\272\375B\013\376\377f\257\343\002\241p"
ARM GAS  /tmp/cczwjAuM.s 			page 16


 212      FD420BFE 
 212      FF66AFE3 
 212      02A170
 213 060f 8467FD41 		.ascii	"\204g\375A~)\327X+\370\225X\344\371\375\012\037WL\360"
 213      7E29D758 
 213      2BF89558 
 213      E4F9FD0A 
 213      1F574CF0 
 214 0623 095C5498 		.ascii	"\011\\T\230S\013\030#\270\032\032\243|\361f}\003\275"
 214      530B1823 
 214      B81A1AA3 
 214      7CF1667D 
 214      03BD
 215 0635 9707635E 		.ascii	"\227\007c^P\206\363\344a\331\320\3644\324G!\264\276"
 215      5086F3E4 
 215      61D9D0F4 
 215      34D44721 
 215      B4BE
 216 0647 AACAA96E 		.ascii	"\252\312\251nv\301\202r\266j~\345\353e\020\001\177m"
 216      76C18272 
 216      B66A7EE5 
 216      EB651001 
 216      7F6D
 217 0659 6D10E6CC 		.ascii	"m\020\346\314\227F\3760dn\232u\357:\221d\270N\002\220"
 217      9746FE30 
 217      646E9A75 
 217      EF3A9164 
 217      B84E0290 
 218 066d 7FF8059B 		.ascii	"\177\370\005\233\307[\006\342\266\373*=^{\371\374\271"
 218      C75B06E2 
 218      B6FB2A3D 
 218      5E7BF9FC 
 218      B9
 219 067e 5EC6E7B5 		.ascii	"^\306\347\265\315\235\347\315\361x*\275eT\273\355\036"
 219      CD9DE7CD 
 219      F1782ABD 
 219      6554BBED 
 219      1E
 220 068f CF5CAFCD 		.ascii	"\317\\\257\315\263\260\312\266\330\347\261\315\361z"
 220      B3B0CAB6 
 220      D8E7B1CD 
 220      F17A
 221 069d 6D5E0FFC 		.ascii	"m^\017\374\006\207\227\313\253\274\266r\321\263r\216"
 221      068797CB 
 221      ABBCB672 
 221      D1B3728E 
 222 06ad 97592479 		.ascii	"\227Y$yM\005\373j\357\030\231fL\014\212\237\023\327"
 222      4D05FB6A 
 222      EF189966 
 222      4C0C8A9F 
 222      13D7
 223 06bf 6A174362 		.ascii	"j\027Cb\017@~\034~\377\322\306H\300\357\037\251\014"
 223      0F407E1C 
 223      7EFFD2C6 
 223      48C0EF1F 
 223      A90C
 224 06d1 4A67CC2C 		.ascii	"Jg\314,\233>:\355S\337 \271\024*wx\031C\355\340v+\217"
ARM GAS  /tmp/cczwjAuM.s 			page 17


 224      9B3E3AED 
 224      53DF20B9 
 224      142A7778 
 224      1943EDE0 
 225 06e8 97193E9E 		.ascii	"\227\031>\236\361/o\366\252&"
 225      F12F6FF6 
 225      AA26
 226              		.text
 227              		.section	.gnu.lto_.symtab.7c0e7d73c20638cf,"",%progbits
 228 0000 7374496E 		.ascii	"stInit\000\000\000\000\000\000\000\000\000\000\000\000"
 228      69740000 
 228      00000000 
 228      00000000 
 228      0000
 229 0012 A1000000 		.ascii	"\241\000\000\000stStartAlarm\000\000\000\000\000\000"
 229      73745374 
 229      61727441 
 229      6C61726D 
 229      00000000 
 230 0028 00000000 		.ascii	"\000\000\000\000\000\000\246\000\000\000stStopAlarm"
 230      0000A600 
 230      00007374 
 230      53746F70 
 230      416C6172 
 231 003d 00000000 		.ascii	"\000\000\000\000\000\000\000\000\000\000\000\000\266"
 231      00000000 
 231      00000000 
 231      B6
 232 004a 00000073 		.ascii	"\000\000\000stSetAlarm\000\000\000\000\000\000\000\000"
 232      74536574 
 232      416C6172 
 232      6D000000 
 232      00000000 
 233 005f 00000000 		.ascii	"\000\000\000\000\271\000\000\000stGetAlarm\000\000\000"
 233      B9000000 
 233      73744765 
 233      74416C61 
 233      726D0000 
 234 0074 00000000 		.ascii	"\000\000\000\000\000\000\000\000\000\275\000\000\000"
 234      00000000 
 234      00BD0000 
 234      00
 235 0081 73745F6C 		.ascii	"st_lld_init\000\000\002\000\000\000\000\000\000\000"
 235      6C645F69 
 235      6E697400 
 235      00020000 
 235      00000000 
 236 0096 0000C100 		.ascii	"\000\000\301\000\000\000"
 236      0000
 237              		.text
 238              		.section	.gnu.lto_.opts,"",%progbits
 239 0000 272D6D63 		.ascii	"'-mcpu=cortex-m4' '-mno-thumb-interwork' '-mthumb' "
 239      70753D63 
 239      6F727465 
 239      782D6D34 
 239      2720272D 
 240 0033 272D6767 		.ascii	"'-ggdb' '-O2' '-fomit-frame-pointer' '-falign-funct"
ARM GAS  /tmp/cczwjAuM.s 			page 18


 240      64622720 
 240      272D4F32 
 240      2720272D 
 240      666F6D69 
 241 0066 696F6E73 		.ascii	"ions=16' '-ffunction-sections' '-fdata-sections' '-"
 241      3D313627 
 241      20272D66 
 241      66756E63 
 241      74696F6E 
 242 0099 666E6F2D 		.ascii	"fno-common' '-flto'\000"
 242      636F6D6D 
 242      6F6E2720 
 242      272D666C 
 242      746F2700 
 243              		.text
 244              		.cfi_sections	.debug_frame
 245              		.section	.text.stInit,"ax",%progbits
 246              		.align	2
 247              		.p2align 4,,15
 248              		.global	stInit
 249              		.thumb
 250              		.thumb_func
 251              		.type	stInit, %function
 252              	stInit:
 253              	.LFB272:
 254              		.file 1 "../ChibiOS/os/hal/src/st.c"
 255              		.loc 1 60 0
 256              		.cfi_startproc
 257              		@ args = 0, pretend = 0, frame = 0
 258              		@ frame_needed = 0, uses_anonymous_args = 0
 259              		@ link register save eliminated.
 260              		.loc 1 62 0
 261 0000 FFF7FEBF 		b	st_lld_init
 262              	.LVL0:
 263              		.cfi_endproc
 264              	.LFE272:
 265              		.size	stInit, .-stInit
 266 0004 AFF30080 		.section	.text.stStartAlarm,"ax",%progbits
 266      AFF30080 
 266      AFF30080 
 267              		.align	2
 268              		.p2align 4,,15
 269              		.global	stStartAlarm
 270              		.thumb
 271              		.thumb_func
 272              		.type	stStartAlarm, %function
 273              	stStartAlarm:
 274              	.LFB273:
 275              		.loc 1 77 0
 276              		.cfi_startproc
 277              		@ args = 0, pretend = 0, frame = 0
 278              		@ frame_needed = 0, uses_anonymous_args = 0
 279              		@ link register save eliminated.
 280              	.LVL1:
 281              	.LBB10:
 282              	.LBB11:
 283              		.file 2 "../ChibiOS/os/hal/ports/STM32/LLD/TIMv1/st_lld.h"
ARM GAS  /tmp/cczwjAuM.s 			page 19


 284              		.loc 2 155 0
 285 0000 4FF08043 		mov	r3, #1073741824
 286              	.LVL2:
 287              		.loc 2 156 0
 288 0004 0021     		movs	r1, #0
 289              		.loc 2 157 0
 290 0006 0222     		movs	r2, #2
 291              		.loc 2 155 0
 292 0008 5863     		str	r0, [r3, #52]
 293              		.loc 2 156 0
 294 000a 1961     		str	r1, [r3, #16]
 295              		.loc 2 157 0
 296 000c DA60     		str	r2, [r3, #12]
 297 000e 7047     		bx	lr
 298              	.LBE11:
 299              	.LBE10:
 300              		.cfi_endproc
 301              	.LFE273:
 302              		.size	stStartAlarm, .-stStartAlarm
 303              		.section	.text.stStopAlarm,"ax",%progbits
 304              		.align	2
 305              		.p2align 4,,15
 306              		.global	stStopAlarm
 307              		.thumb
 308              		.thumb_func
 309              		.type	stStopAlarm, %function
 310              	stStopAlarm:
 311              	.LFB274:
 312              		.loc 1 91 0
 313              		.cfi_startproc
 314              		@ args = 0, pretend = 0, frame = 0
 315              		@ frame_needed = 0, uses_anonymous_args = 0
 316              		@ link register save eliminated.
 317              	.LBB12:
 318              	.LBB13:
 319              		.loc 2 167 0
 320 0000 4FF08043 		mov	r3, #1073741824
 321 0004 0022     		movs	r2, #0
 322 0006 DA60     		str	r2, [r3, #12]
 323 0008 7047     		bx	lr
 324              	.LBE13:
 325              	.LBE12:
 326              		.cfi_endproc
 327              	.LFE274:
 328              		.size	stStopAlarm, .-stStopAlarm
 329 000a 00BFAFF3 		.section	.text.stSetAlarm,"ax",%progbits
 329      0080
 330              		.align	2
 331              		.p2align 4,,15
 332              		.global	stSetAlarm
 333              		.thumb
 334              		.thumb_func
 335              		.type	stSetAlarm, %function
 336              	stSetAlarm:
 337              	.LFB275:
 338              		.loc 1 105 0
 339              		.cfi_startproc
ARM GAS  /tmp/cczwjAuM.s 			page 20


 340              		@ args = 0, pretend = 0, frame = 0
 341              		@ frame_needed = 0, uses_anonymous_args = 0
 342              		@ link register save eliminated.
 343              	.LVL3:
 344              	.LBB14:
 345              	.LBB15:
 346              		.loc 2 179 0
 347 0000 4FF08043 		mov	r3, #1073741824
 348              	.LVL4:
 349 0004 5863     		str	r0, [r3, #52]
 350 0006 7047     		bx	lr
 351              	.LBE15:
 352              	.LBE14:
 353              		.cfi_endproc
 354              	.LFE275:
 355              		.size	stSetAlarm, .-stSetAlarm
 356 0008 AFF30080 		.section	.text.stGetAlarm,"ax",%progbits
 356      AFF30080 
 357              		.align	2
 358              		.p2align 4,,15
 359              		.global	stGetAlarm
 360              		.thumb
 361              		.thumb_func
 362              		.type	stGetAlarm, %function
 363              	stGetAlarm:
 364              	.LFB276:
 365              		.loc 1 121 0
 366              		.cfi_startproc
 367              		@ args = 0, pretend = 0, frame = 0
 368              		@ frame_needed = 0, uses_anonymous_args = 0
 369              		@ link register save eliminated.
 370              	.LBB16:
 371              	.LBB17:
 372              		.loc 2 191 0
 373 0000 4FF08043 		mov	r3, #1073741824
 374 0004 586B     		ldr	r0, [r3, #52]
 375              	.LBE17:
 376              	.LBE16:
 377              		.loc 1 126 0
 378 0006 7047     		bx	lr
 379              		.cfi_endproc
 380              	.LFE276:
 381              		.size	stGetAlarm, .-stGetAlarm
 382 0008 AFF30080 		.text
 382      AFF30080 
 383              	.Letext0:
 384              		.file 3 "/nfs/nfs5/home/research/hardware/arm2/gcc-arm-embedded/gcc-arm-none-eabi-4_8-2014q2/arm-n
 385              		.file 4 "/nfs/nfs5/home/research/hardware/arm2/gcc-arm-embedded/gcc-arm-none-eabi-4_8-2014q2/arm-n
 386              		.file 5 "../ChibiOS/os/rt/ports/ARMCMx/compilers/GCC/chtypes.h"
 387              		.file 6 "../ChibiOS/os/rt/include/chsystypes.h"
 388              		.file 7 "../ChibiOS/os/rt/include/chschd.h"
 389              		.file 8 "../ChibiOS/os/rt/ports/ARMCMx/chcore.h"
 390              		.file 9 "../ChibiOS/os/rt/ports/ARMCMx/chcore_v7m.h"
 391              		.file 10 "../ChibiOS/os/hal/ports/STM32/LLD/TIMv1/stm32_tim.h"
 392              		.file 11 "../ChibiOS/os/rt/include/chtm.h"
 393              		.file 12 "../ChibiOS/os/rt/include/chsem.h"
 394              		.file 13 "../ChibiOS/os/rt/include/chmtx.h"
ARM GAS  /tmp/cczwjAuM.s 			page 21


 395              		.file 14 "../ChibiOS/os/ext/CMSIS/include/core_cm4.h"