ARM GAS  /tmp/ccPQLUrc.s 			page 1


   1              		.syntax unified
   2              		.cpu cortex-m4
   3              		.fpu softvfp
   4              		.eabi_attribute 20, 1
   5              		.eabi_attribute 21, 1
   6              		.eabi_attribute 23, 3
   7              		.eabi_attribute 24, 1
   8              		.eabi_attribute 25, 1
   9              		.eabi_attribute 26, 1
  10              		.eabi_attribute 30, 2
  11              		.eabi_attribute 34, 1
  12              		.eabi_attribute 18, 4
  13              		.thumb
  14              		.file	"testheap.c"
  15              		.text
  16              	.Ltext0:
  17              		.section	.gnu.lto_.jmpfuncs.6a22afd8e816e659,"",%progbits
  18 0000 789C6362 		.ascii	"x\234cb`b\300\006f2Ch\240,\023S\004c&#\003\017\230\013"
  18      6062C006 
  18      66324368 
  18      A02C1353 
  18      04632623 
  19 0018 617343D8 		.ascii	"asC\330\325\014\277\032:\032\0042\031\031s\031\241\372"
  19      D50CBF1A 
  19      3A1A0432 
  19      19197319 
  19      A1FA
  20 002a 18E16AB8 		.ascii	"\030\341j\270p\252!E\020l\024'>\353\030\261J\20152)"
  20      70AA2145 
  20      106C1427 
  20      3EEB18B1 
  20      4A813532 
  21 003f C08DE0C0 		.ascii	"\300\215\340\300\357b\034\372\005\010\311\201\315f'"
  21      EF621CFA 
  21      0508C981 
  21      CD6627
  22 004e E83CB032 		.ascii	"\350<\26026\212\003\004\335bV\252{J\020n6\013\001OQ"
  22      368A0304 
  22      DD6256AA 
  22      7B4A106E 
  22      360B014F 
  23 0063 146C047D 		.ascii	"\024l\004}\306<P\266\343N\204L\0106#L\017C\303\277\377"
  23      C63C50B6 
  23      E34E844C 
  23      0836234C 
  23      0F43C3BF 
  24 0078 FFF99123 		.ascii	"\377\371\221#\231\021\213*\204\277\240F210cq\004\\\204"
  24      99118B2A 
  24      84BFA046 
  24      32313063 
  24      71045C84 
  25 008c 599B6155 		.ascii	"Y\233aUC\003\210\305\222\313\310\230\004s\007\334\322"
  25      430388C5 
  25      92CBC898 
  25      047307DC 
  25      D2
  26 009d 17A0AC08 		.ascii	"\027\240\254\010\000\207\223\212\230"
ARM GAS  /tmp/ccPQLUrc.s 			page 2


  26      0087938A 
  26      98
  27              		.text
  28              		.section	.gnu.lto_.inline.6a22afd8e816e659,"",%progbits
  29 0000 789C6362 		.ascii	"x\234cb`b\300\006\3662Bh&\006\216\347\214g\031\030\031"
  29      6062C006 
  29      F6324268 
  29      26068EE7 
  29      8C671918 
  30 0015 98429A9C 		.ascii	"\230B\232\234\030\330\026\310\203\225\263\360\202d&"
  30      18D816C8 
  30      8395B3F0 
  30      826426
  31 0024 F8A1D20C 		.ascii	"\370\241\322\014L\334\014\014\214\030\2420.3\017\012"
  31      4CDC0C0C 
  31      8C18A230 
  31      2E330F0A 
  32 0034 17550F8A 		.ascii	"\027U\017\212V\034jP$\2111\007\273\026\312M\307\243"
  32      561C6A50 
  32      24893107 
  32      BB16CA4D 
  32      C7A3
  33 0046 837C8D78 		.ascii	"\203|\215x\203\007M\024\252\226\221\013\034C\354\374"
  33      83074D14 
  33      AA96910B 
  33      1C43ECFC 
  34 0056 8CE05844 		.ascii	"\214\340XD\216\035f\020\003\000\363\332 \205"
  34      8E1D6610 
  34      0300F3DA 
  34      2085
  35              		.text
  36              		.section	.gnu.lto_.pureconst.6a22afd8e816e659,"",%progbits
  37 0000 789C6362 		.ascii	"x\234cb`b`e\200\000&\006\011&\011\000\001\000\000>"
  37      60626065 
  37      80002606 
  37      09260900 
  37      0100003E 
  38              		.text
  39              		.section	.gnu.lto_heap1_execute.6a22afd8e816e659,"",%progbits
  40 0000 789CAD58 		.ascii	"x\234\255X]lTE\024>s\357\376uw\333\335n\2734})\224\246"
  40      5D6C5445 
  40      143E73EF 
  40      FE7577DB 
  40      DD6EBB34 
  41 0018 5613E85A 		.ascii	"V\023\350Z\252\374\244iJ0\2014M#\244l\004$\244e\255"
  41      AAFCA469 
  41      4A308134 
  41      4D23A46C 
  41      0424A465 
  42 002d 742D6D36 		.ascii	"t-m6R_\340\201K\273\030$6\022\022\023B4\226 *\251\204"
  42      525FE081 
  42      4BBB1824 
  42      36121213 
  42      42349620 
  43 0044 101F3001 		.ascii	"\020\0370\001\264Q\243-\021\032\023\022\301\370\263"
  43      B451A32D 
  43      111A1312 
ARM GAS  /tmp/ccPQLUrc.s 			page 3


  43      C1F8B3
  44 0053 F1458C04 		.ascii	"\361E\214\004y0\321\210\262\23633;\333\355\375q\011"
  44      7930D188 
  44      B29E3333 
  44      3BDBEDFD 
  44      7109
  45 0065 771F66EE 		.ascii	"w\037f\3569s\316\2319\337\367\335\273wW\003\015\026"
  45      3973CE99 
  45      39DFF7DD 
  45      BB775703 
  45      0D16
  46 0077 7F020CE0 		.ascii	"\177\002\014\340\317Z\200.\274fq`\332\261\353\000\207"
  46      CF5A802E 
  46      BC667160 
  46      DAB1EB00 
  46      87
  47 0088 029A16BB 		.ascii	"\002\232\026\273\274\006\214\240~c\011\030a]Z\036ny"
  47      BC068CA0 
  47      7E630918 
  47      615D5A1E 
  47      6E79
  48 009a A4E5E596 		.ascii	"\244\345\345\226WZ>n\371\244\345\347\226_\013N>\206"
  48      575A3E6E 
  48      F9A4E5E7 
  48      965F0B4E 
  48      3E86
  49 00ac 5660E271 		.ascii	"V`\342q\264\002Z\355\2758Z\301\251\265h\325\262 m\305"
  49      B4025AED 
  49      BD385AC1 
  49      A9B568D5 
  49      B2206DC5 
  50 00c0 823223C4 		.ascii	"\2022#\3043B\322\012s+,\255JnUJ\253\212[U\322\212p+"
  50      3342D20A 
  50      732B2CAD 
  50      4A6E554A 
  50      AB8A5B55 
  51 00d8 22AD28B7 		.ascii	"\"\255(\267\242Z\354F\002\255\352\313\015hU\263\032"
  51      A25AEC46 
  51      02ADEACB 
  51      0D6855B3 
  51      1A
  52 00e9 D154AC70 		.ascii	"\321T\254pQ\303\030]\000\203\203\232\356\361\372\374"
  52      51C3185D 
  52      0083839A 
  52      EEF1FAFC 
  53 00f9 81DA6028 		.ascii	"\201\332`(\\Y\025\211V\307j\330\301\355\214#\263\034"
  53      5C591589 
  53      56C76AD8 
  53      C1ED8C23 
  53      B31C
  54 010b 4E19C6B1 		.ascii	"N\031\306\261\334\341\373'\352\217N\215\0373\036\344"
  54      DCE1FB27 
  54      EA8F4E8D 
  54      1F331EE4 
  55 011b F32CCD10 		.ascii	"\363,\315\020\303F\006)\006\333\320`\313\370\244yJA"
  55      C3460629 
  55      06DBD060 
ARM GAS  /tmp/ccPQLUrc.s 			page 4


  55      CBF8A479 
  55      4A41
  56 012d E599C767 		.ascii	"\345\231\307g\336\276\372\346\302L]\203'\312\314\274"
  56      DEBEFAE6 
  56      C24C5D83 
  56      27CACCBC 
  57 013d 7875EE14 		.ascii	"xu\356\0243\216\033\207\356\345\363\021\236\271\262"
  57      338E1B87 
  57      EEE5F311 
  57      9EB9B2
  58 014c DC3DBF7C 		.ascii	"\334=\277|\275\336(\356\351\321`Uy\231\306\225\027f"
  58      BDDE28EE 
  58      E9D16055 
  58      7999C695 
  58      1766
  59 015e 8DEC4C3E 		.ascii	"\215\354L>\337\305\263\236.3\353\333\222\254\265\345"
  59      DFC5B39E 
  59      2E33EBDB 
  59      92ACB5E5 
  60 016e 64CD1C9F 		.ascii	"d\315\034\237y\347\325\311\205\247\364j\320Q^\246q\251"
  60      79E7D5C9 
  60      85A7F46A 
  60      D0515EA6 
  60      71A9
  61 0180 B81F6675 		.ascii	"\270\037fu\376_\326ym&\227\317\177\177\341\335\237\337"
  61      FE5FD679 
  61      6D2697CF 
  61      7F7FE1DD 
  61      9FDF
  62 0192 62B15718 		.ascii	"b\261W\030\014\260Sl9T\340\374>\316AH3_\230\206\210"
  62      0CB0536C 
  62      3954E0FC 
  62      3ECE4148 
  62      335F9886 
  63 01a7 F444C988 		.ascii	"\364D\311\210\321\020\227\236:\234\317\342\\\217\363"
  63      D110979E 
  63      3A9CCFE2 
  63      5C8FF3
  64 01b6 34CE0DB8 		.ascii	"4\316\015\270\250/\245\210F\032\232dX\263\014k\221a"
  64      A82FA588 
  64      461A9A64 
  64      58B30C6B 
  64      9161
  65 01c8 2B286C25 		.ascii	"+(l%E$hh\223a\3552l5-\257\241\225u4t\310\345Nrw\321"
  65      45246868 
  65      9361ED32 
  65      6C352DAF 
  65      A1957534 
  66 01e3 B09EDC1B 		.ascii	"\260\236\334\033h\330H\346&\272\352\246\241G\206\366"
  66      68D848E6 
  66      26BAEAA6 
  66      A14786F6 
  67 01f3 CA4A9B69 		.ascii	"\312J\233iy\013\255\364\321\220\224\313\333\311\275"
  67      790BADF4 
  67      D19094CB 
  67      DBC9BD
  68 0202 833C3B69 		.ascii	"\203<;i\330\205\356\323\350\356\227\313\273i9E+\203"
ARM GAS  /tmp/ccPQLUrc.s 			page 5


  68      D885EED3 
  68      E8EE97CB 
  68      BB693945 
  68      2B83
  69 0214 340C9199 		.ascii	"4\014\221\231\246\253a\032\366\312\350\021\234\317\340"
  69      A6AB611A 
  69      F6CAE811 
  69      9CCFE0
  70 0223 3C4ACE0C 		.ascii	"<J\316\014\015\010\251\027\262x[,\023u\304\031D\313"
  70      0D08A917 
  70      B2785B2C 
  70      1375C419 
  70      44CB
  71 0235 03EC1C1F 		.ascii	"\003\354\034\037\317\343\010\304\013~\266\342H\267Z"
  71      CFE308C4 
  71      0B7EB6E2 
  71      48B75A
  72 0244 926934EB 		.ascii	"\222i4\353\3630\221;\231\032`\027\230\027W\017\300\337"
  72      F330913B 
  72      991A6017 
  72      9817570F 
  72      C0DF
  73 0256 C611239A 		.ascii	"\306\021#\232f\376\024\343\341\270E\000`\036\016O}\240"
  73      66FE14E3 
  73      E1B84500 
  73      601E0E4F 
  73      7DA0
  74 0268 9B822A52 		.ascii	"\233\202*RL<\277\210\350\240X\300\317\363i\026\022\233"
  74      4C3CBF88 
  74      E8A058C0 
  74      CFF36916 
  74      129B
  75 027a CA8C340B 		.ascii	"\312\2144\013\363\032\271\263\2373\341\332\303*T\225"
  75      F31AB9B3 
  75      9F33E1DA 
  75      C32A5495 
  76 028a CA14D317 		.ascii	"\312\024\323\027V\241\311K\264W\001\314\201&\022Ds\230"
  76      56A1C94B 
  76      B45701CC 
  76      81261244 
  76      7398
  77 029c 06700D26 		.ascii	"\006p\015&nNLO\352\205JA\364R\016\027\332<x\013\376"
  77      6E4E4C4F 
  77      EA854A41 
  77      F4520E17 
  77      DA3C780B 
  78 02b1 B0DA2192 		.ascii	"\260\332!\222\022\213\274\264\316('\315\242\000\263"
  78      128BBCB4 
  78      CE2827CD 
  78      A200B3
  79 02c0 90BDA30E 		.ascii	"\220\275\243\016\024\246E\337B\251&\361\\7\226 B\331"
  79      14A645DF 
  79      42A926F1 
  79      5C379620 
  79      42D9
  80 02d2 DCF469BF 		.ascii	"\334\364i\277\251\373\352\024\267\201N\225f1\321\341"
  80      A9FBEA14 
ARM GAS  /tmp/ccPQLUrc.s 			page 6


  80      B7814E95 
  80      6631D1E1 
  81 02e2 87C50E23 		.ascii	"\207\305\016#\216\035\352t\247El\272\214\360.\347'."
  81      8E1DEA74 
  81      A7456CBA 
  81      8CF02EE7 
  81      272E
  82 02f4 16BB8CA2 		.ascii	"\026\273\214\242\327\252\313\230M\227\032\345\230\273"
  82      D7AACB98 
  82      4D971AE5 
  82      98BB
  83 0302 8C5974E9 		.ascii	"\214Yt\351\2019\237N\024\177\354@\261\360\020\267\301"
  83      81399F4E 
  83      147FEC40 
  83      B1F010B7 
  83      C1
  84 0313 115620F6 		.ascii	"\021V \366\000\354\267\345\372R\021\211\270\031\011"
  84      00ECB7E5 
  84      FA521189 
  84      B81909
  85 0322 59EEB992 		.ascii	"Y\356\271\222r\245\314\217\317\370JQ\211\013!^V\230"
  85      72A5CC8F 
  85      CFF84A51 
  85      890B215E 
  85      5698
  86 0334 D43D6ADD 		.ascii	"\324=j\335\263\274n\235\250{E\325\255\177\324\272\323"
  86      B3BC6E9D 
  86      A87B45D5 
  86      AD7FD4BA 
  86      D3
  87 0345 BC6E3DD5 		.ascii	"\274n=\325\315\346>q\326N\\j';\365\251\031\376\005q"
  87      CDE63E71 
  87      D64E5C6A 
  87      273BF5A9 
  87      19FE0571 
  88 0359 752A6ED6 		.ascii	"u*n\3261\256^iq.Uh\250\301\232\317\200%\231\347\026"
  88      31AE5E69 
  88      712E5568 
  88      A8C19ACF 
  88      802599E7 
  89 036e 91494A54 		.ascii	"\221IJT\320,\305b\274mV*\303F\033\031\352\224c\226a"
  89      D02CC562 
  89      BC6D562A 
  89      C3461B19 
  89      EA946396 
  90 0383 A3850CBD 		.ascii	"\243\205\014\275\360\007#\031\346\276.*\247\311\035"
  90      F0072319 
  90      E6BE2E2A 
  90      A7C91D
  91 0392 E5340986 		.ascii	"\3454\011\206\257\2516\232\335QN\263\250{]\325mqG9-"
  91      AFA9369A 
  91      DD514EB3 
  91      A87B5DD5 
  91      6D714739 
  92 03a7 4239F3CE 		.ascii	"B9\363\316\312iQ\212\270\351\250\210f\025w\3131\256"
  92      CA69518A 
  92      B8E9A888 
ARM GAS  /tmp/ccPQLUrc.s 			page 7


  92      661577CB 
  92      31AE
  93 03b9 4929E73B 		.ascii	"I)\347;\245\234\025\256)g%\026\263RN\302F9\036\3121"
  93      A59C15AE 
  93      29672516 
  93      B3524EC2 
  93      46391ECA 
  94 03ce 2B2761A1 		.ascii	"+'a\241\034\037|\005\\9?\024\225\323\3660LT\333*\247"
  94      1C1F7C05 
  94      5C393F14 
  94      95D3F630 
  94      4C54DB2A 
  95 03e3 4D30FCA3 		.ascii	"M0\374\243j\243\335\035\345\264\013\206\177rf\270M1"
  95      6AA3DD1D 
  95      E5B40B86 
  95      7F7266B8 
  95      4D31
  96 03f5 725B31B2 		.ascii	"r[1\262\3325F\326`\261m\342e\257\204\221u6\214\360\034"
  96      DA3546D6 
  96      60B16DE2 
  96      65AF8491 
  96      75368CF0 
  97 040a 3323EB2C 		.ascii	"3#\353,\030\361C\234\023\362k\221\220\016wn\345\016"
  97      18F1439C 
  97      13F26B91 
  97      900E776E 
  97      E50E
  98 041c 81C71D85 		.ascii	"\201\307\035\205G\347\243\3401\013_\374\242N\330\251"
  98      47E7A3E0 
  98      310B5FFC 
  98      A24ED8A9 
  99 042c E4596C24 		.ascii	"\344Yl$\000!}\0014]\256m\326\245\220/|\266\262Z\320"
  99      00217D01 
  99      345DAE6D 
  99      D6A5902F 
  99      7CB6B25A 
 100 0441 59125F10 		.ascii	"Y\022_\020\342\3725\030\277\253xZ\277\207\336\305\026"
 100      E2FA3518 
 100      BFAB785A 
 100      BF87DEC5 
 100      16
 101 0452 9C62830D 		.ascii	"\234b\203\015A>\0126\023\264a\021A\267\200\221\007\177"
 101      413E0A36 
 101      13B46111 
 101      41B78091 
 101      077F
 102 0464 6CD5F23C 		.ascii	"l\325\362<t\005@z\374\274\353\020\370\370k\317]gy\266"
 102      7405407A 
 102      FCBCEB10 
 102      F8F86BCF 
 102      5D6779B6 
 103 0478 AB07CBEF 		.ascii	"\253\007\313\357\216\017\226\016%\343\277\024m\033]"
 103      8E0F960E 
 103      25E3BF14 
 103      6D1B5D
 104 0487 93F1262C 		.ascii	"\223\361&,f\365`\351\266A\311O9f\224\272-d\034\006\215"
 104      66F560E9 
ARM GAS  /tmp/ccPQLUrc.s 			page 8


 104      B641C94F 
 104      396694BA 
 104      2D641C06 
 105 049c CBF87E51 		.ascii	"\313\370~Q\306=\356\310\270G<W\376Q]\364\272\363\\\351"
 105      C63DEEC8 
 105      B8473C57 
 105      FE515DF4 
 105      BAF35CE9 
 106 04b0 15CF957F 		.ascii	"\025\317\225\177\235\211\353Q\204<P\204lv\215\220-X"
 106      9D89EB51 
 106      843C5084 
 106      6C768D90 
 106      2D58
 107 04c2 CCEAB9D2 		.ascii	"\314\352\271\322gCH\200r\314\204\364Y\020R\011\342\025"
 107      67434880 
 107      72CC84F4 
 107      59105209 
 107      E215
 108 04d4 215F2424 		.ascii	"!_$$\3710\300-\263%$)\200;r\306\021\270\244R\374k^\247"
 108      F930C02D 
 108      B3252429 
 108      803B72C6 
 108      11B8A452 
 109 04ec B85E05F0 		.ascii	"\270^\005\360\321\301\302A\267\273\006\360\016,f\245"
 109      D1C1C241 
 109      B7BB06F0 
 109      0E2C66A5 
 110 04fc F89D3600 		.ascii	"\370\2356\000WP\216\031\340\235\026\000#8\374\247\300"
 110      57508E19 
 110      E09D1600 
 110      2338FCA7 
 110      C0
 111 050d A4B9BDF2 		.ascii	"\244\271\275\362~\012\230\017>>w\363\364-\255\260\351"
 111      7E0A980F 
 111      3E3E77F3 
 111      F42DADB0 
 111      E9
 112 051e 2E11C2C1 		.ascii	".\021\302\301)p\260\207\365\227I\"\346\333\021\330/"
 112      2970B087 
 112      F5974922 
 112      E6DB11D8 
 112      2F
 113 052f F07E43E1 		.ascii	"\360~C\341\275\3335\274SX\214\343\015\245x\017\332\340"
 113      BDDB35BC 
 113      53588CE3 
 113      0DA5780F 
 113      DAE0
 114 0541 1DA41C33 		.ascii	"\035\244\0343\336\203\026xG8\336\331\334\011g\335\365"
 114      DE831678 
 114      4738DED9 
 114      DC0967DD 
 114      F5
 115 0552 2B3D9D54 		.ascii	"+=\235T\375\015\271\326_\032\213Y\351i\330\246\277\020"
 115      FD0DB9D6 
 115      5F1A8B59 
 115      E969D8A6 
 115      BF10
ARM GAS  /tmp/ccPQLUrc.s 			page 9


 116 0564 E598FB1B 		.ascii	"\345\230\373\033\266\350\017c\350\313l\356\366{*loA"
 116      B6E80F63 
 116      E8CB6CEE 
 116      F67B2A6C 
 116      6F41
 117 0576 01E8EF2E 		.ascii	"\001\350\357.8G\012\377R\224\034l\024\243q\255\344P"
 117      38470AFF 
 117      52941C6C 
 117      14A371AD 
 117      E450
 118 0588 199B4385 		.ascii	"\031\233C\205)\336|\250\214\305\241\252\371\241>\373"
 118      29DE7CA8 
 118      8CC5A1AA 
 118      F9A13EFB 
 119 0598 4DFDEAA6 		.ascii	"M\375\352\246\363<\005\037\031G$\311%\213\347\027-\212"
 119      F33C051F 
 119      194724C9 
 119      258BE717 
 119      2D8A
 120 05aa 1A31FEEF 		.ascii	"\0321\376\357\011\005\316\276\344Pf\330\271J\015\257"
 120      0905CEBE 
 120      E45066D8 
 120      B94A0DAF 
 121 05ba F20D1C0A 		.ascii	"\362\015\034\012\024\317\267\025\277\355\321K\2146\264"
 121      14CFB715 
 121      BFEDD14B 
 121      8C36B4
 122 05c9 B6269E19 		.ascii	"\266&\236\031J\357N?\333\227\030\033\3347\226xy\214"
 122      4AEF4E3F 
 122      DB97181B 
 122      DC379678 
 122      798C
 123 05db CF438303 		.ascii	"\317C\203\003\231\326\024\370\323/\216\215dZ\237\324"
 123      99D614F8 
 123      D32F8E8D 
 123      645A9FD4 
 124 05eb 475BDB3C 		.ascii	"G[\333<\373\366\267\256\3222mZ\006\307v6\252\355\333"
 124      FBF6B7AE 
 124      D2326D5A 
 124      06C77636 
 124      AAEDDB
 125 05fe FF1F59C0 		.ascii	"\377\037Y\300\276\345"
 125      BEE5
 126              		.text
 127              		.section	.gnu.lto_heap1_setup.6a22afd8e816e659,"",%progbits
 128 0000 789C6362 		.ascii	"x\234cb`b@\007\222@|\000\210\025\200\230\221\231\201"
 128      60624007 
 128      92407C00 
 128      88158098 
 128      919981
 129 0013 9169C239 		.ascii	"\221i\3029\006\206F\016&FF\020\203\201\221\241\236\211"
 129      0686460E 
 129      26464610 
 129      838191A1 
 129      9E89
 130 0025 B13E9211 		.ascii	"\261>\222\021\254v=\323\201\007\377\377\257\233pl\376"
 130      AC763DD3 
ARM GAS  /tmp/ccPQLUrc.s 			page 10


 130      8107FFFF 
 130      AF9B706C 
 130      FE
 131 0036 1EC6194C 		.ascii	"\036\306\031L\314@\021V\206\226\206\206\011@\275\311"
 131      CC401156 
 131      86968686 
 131      0940BDC9 
 132 0046 60152140 		.ascii	"`\025!@\022\244-\224\221\011D3\237gh{\320\365\230+\221"
 132      12A42D94 
 132      91094433 
 132      9F67687B 
 132      D0F5982B 
 133 005b 7121232B 		.ascii	"q!#+P\272\232\341WCG\203@&#P9\304D\220\010G&#c.#\003"
 133      50BA9AE1 
 133      57434783 
 133      40262350 
 133      39C44490 
 134 0077 5411444D 		.ascii	"T\021DM\303D\306LF&m\206U\015@0\023\310f\316edL\202"
 134      C344C64C 
 134      46266D86 
 134      550D4030 
 134      13C866CE 
 135 008f E881A98C 		.ascii	"\350\201\251\214\000\012\263\274\340a\310\004q.24>\350"
 135      000AB3BC 
 135      E061C804 
 135      712E3234 
 135      3EE8
 136 00a1 56865904 		.ascii	"V\206Y\004\001!@K\200\256\000\371YNOO\3379#3)\323?X"
 136      0121404B 
 136      80AE00F9 
 136      594E4F4F 
 136      DF392333 
 137 00b9 BF24B5B8 		.ascii	"\277$\265\270D\277\250\004Lg\244&\026\350%3\000\000"
 137      44BFA804 
 137      4C67A426 
 137      16E82533 
 137      0000
 138 00cb 2B9D3CB6 		.ascii	"+\235<\266"
 139              		.text
 140              		.section	.gnu.lto_.symbol_nodes.6a22afd8e816e659,"",%progbits
 141 0000 789C4D90 		.ascii	"x\234M\220\313J\003A\020E\253\272g2QW\356C\262\363\247"
 141      CB4A0341 
 141      1045ABBA 
 141      67325157 
 141      EE43B2F3 
 142 0015 5C990103 		.ascii	"\\\231\001\003\011D\360\007*\320\240\250\020\305\354"
 142      0944F007 
 142      2AD0A0A8 
 142      10C5EC
 143 0024 44DCF4CA 		.ascii	"D\334\364\312\357\350\275\313d\2534~\200\357'b\327\355"
 143      EFE8BDCB 
 143      64AB347E 
 143      80EF2762 
 143      D7ED
 144 0036 C171167D 		.ascii	"\301q\026}\372\326\343V\365\0302\264i(\177\346\211\205"
 144      FAD6E356 
 144      F51832B4 
ARM GAS  /tmp/ccPQLUrc.s 			page 11


 144      69287FE6 
 144      8985
 145 0048 E8EC8648 		.ascii	"\350\354\206H\344\362h\247|`*\304\232G\026\376\027\375"
 145      E4F268A7 
 145      7C602AC4 
 145      9A4716FE 
 145      17FD
 146 005a 6626A1F2 		.ascii	"f&\241\362\205M\231\360\3146\201?XL\256\231\315\230"
 146      854D99F0 
 146      CC36813F 
 146      584CAE99 
 146      CD98
 147 006c DF586CAB 		.ascii	"\337Xl\253>Y\212V\275\263\224\255ze\351\264\352\213"
 147      3E598A56 
 147      BDB394AD 
 147      7A65E9B4 
 147      EA8B
 148 007e A5FA5396 		.ascii	"\245\372S\226\326\311\335\376$V\344\3015\012`\207\374"
 148      D6C9DDFE 
 148      2456E4C1 
 148      350A6087 
 148      FC
 149 008f 9DB24BF1 		.ascii	"\235\262K\361zK\303\356\340\276\320p\004S\371\3412\227"
 149      7A4BC3EE 
 149      E0BED070 
 149      0453F9E1 
 149      3297
 150 00a1 3774C78D 		.ascii	"7t\307\215\006\273\344N2}\303\000V\024\301d?\317\365"
 150      06BBE44E 
 150      327DC300 
 150      5614C164 
 150      3FCFF5
 151 00b4 71DE53F8 		.ascii	"q\336S\370S *R\3239\0202\242\242\"\267\350icX\240\322"
 151      53202A52 
 151      D3391032 
 151      A2A222B7 
 151      E8696358 
 152 00ca 2D2DC629 		.ascii	"--\306)\322\264\225\305R\212\264\343\0129\177\221'f"
 152      D2B495C5 
 152      528AB4E3 
 152      0A397F91 
 152      2766
 153 00dc F86D4DB9 		.ascii	"\370mM\271\253\274M\037\306}\370\016`;\200\353\020\246"
 153      ABBC4D1F 
 153      C67DF80E 
 153      603B80EB 
 153      10A6
 154 00ee 4378D668 		.ascii	"Cx\326h\253\341X\303p\027]8\335\010\331\021\262\371"
 154      ABE158C3 
 154      70175D38 
 154      DD08D911 
 154      B2F9
 155 0100 3EC60BC6 		.ascii	">\306\013\306\270O\020\237\3401S\215\204)\306\357\341"
 155      B84F109F 
 155      E031538D 
 155      8429C6EF 
 155      E1
ARM GAS  /tmp/ccPQLUrc.s 			page 12


 156 0111 EDFBD66C 		.ascii	"\355\373\326l\340\307\323/\023a\201+"
 156      E0C7D32F 
 156      1361812B 
 157              		.text
 158              		.section	.gnu.lto_.refs.6a22afd8e816e659,"",%progbits
 159 0000 789C6362 		.ascii	"x\234cb`bpe\200\000I\006&F\222!\023\02033\2620\261\002"
 159      60627065 
 159      80004906 
 159      26469221 
 159      13103333 
 160 0018 21131303 		.ascii	"!\023\023\003\003\000*\354\000\323"
 160      03002AEC 
 160      00D3
 161              		.text
 162              		.section	.gnu.lto_.decls.6a22afd8e816e659,"",%progbits
 163 0000 789CBD5A 		.ascii	"x\234\275Z{t\024\325\031\277w6\331G\262 j\265@=\270"
 163      7B7414D5 
 163      19BF7736 
 163      D947B220 
 163      6AB5403D 
 164 0015 788A5229 		.ascii	"x\212R),`T\350\351\021,\347\370h\217zN\305s\374o;l&"
 164      2C6054E8 
 164      E9112CE7 
 164      F8688F7A 
 164      4EC573FC 
 165 002d C96AB2BB 		.ascii	"\311j\262\273\316N\010\264\1778l \242r0J\201 \204\004"
 165      CE4E08B4 
 165      7F386C20 
 165      A272304A 
 165      81208404 
 166 0041 01051104 		.ascii	"\001\005\021\004$*\2572 \204\010\"\257\224\247\245\013"
 166      242AAF32 
 166      20840822 
 166      AF94A7A5 
 166      0B
 167 0052 14080F79 		.ascii	"\024\010\017y\010\261P\012\351w\357\314\354\316\314"
 167      08B1500A 
 167      E977EFCC 
 167      ECCECC
 168 0061 CEECCE2E 		.ascii	"\316\354\316.\3229\271w\356\316\334\373\373\336\337"
 168      D239B977 
 168      EECEDCFB 
 168      FBDEDF
 169 0070 7D6418C4 		.ascii	"}d\030\304\240\221\030\241.\270<%\010\235v\"\344@\010"
 169      A09118A1 
 169      2EB83C25 
 169      089D7622 
 169      E44008
 170 0083 3D01A550 		.ascii	"=\001\245P)\363\240,\205R\013\375&B\201?T\007\225\033"
 170      29F3A02C 
 170      85520BFD 
 170      2642813F 
 170      5407951B 
 171 0097 EEB3E1DE 		.ascii	"\356\263\341\336\004\345\003(\037CY\016e\025\224\325"
 171      04E50328 
 171      1F43590E 
 171      651594D5 
ARM GAS  /tmp/ccPQLUrc.s 			page 13


 172 00a7 50D64129 		.ascii	"P\326A)\200>\233\340\276\031J+\224\357\310`\315E\306"
 172      803E9BE0 
 172      BE194A2B 
 172      94EFC860 
 172      CD45C6
 173 00ba DF8DE47E 		.ascii	"\337\215\344~\335\241x\025\232#\024\232\013\340\375"
 173      DDA17815 
 173      9A23149A 
 173      0BE0FD
 174 00c9 29286BA0 		.ascii	")(k\240t`\231\227ep_\002\3454\224\026(g\240\314\207"
 174      74609997 
 174      65705F02 
 174      E5349416 
 174      2867A0CC 
 175 00de 7216CA0A 		.ascii	"r\026\312\012\005\337\251`\257V\370Z\245\360\270\\\341"
 175      05DFA960 
 175      AF56F85A 
 175      A5F0B85C 
 175      E1
 176 00ef 7F93810F 		.ascii	"\177\223\201\017\"\003\031sN\241\241\312JxY\257\221"
 176      22031973 
 176      4EA1A1CA 
 176      4A7859AF 
 176      91
 177 0100 9951FAAE 		.ascii	"\231Q\372\256S\332\252l\332\253\030\275%\212q\261\271"
 177      53DAAA6C 
 177      DAAB18BD 
 177      258A71B1 
 177      B9
 178 0111 4E7CA6AD 		.ascii	"N|\246\255\373]\350]\021.\337\344\343\320\353e\314\342"
 178      FB5DE85D 
 178      112EDFE4 
 178      E3D0EB65 
 178      CCE2
 179 0123 EE1E2432 		.ascii	"\356\036$2\264\345\365 \037t\357\207\026\210b}bRS\037"
 179      B4E5F520 
 179      1F74EF87 
 179      1688627D 
 179      6252531F 
 180 0137 B180C51F 		.ascii	"\261\200\305\037\340\273\000\270\037F\017\243\3050\256"
 180      E0BB00B8 
 180      1F460FA3 
 180      C530AE
 181 0146 5E148FF5 		.ascii	"^\024\217\365F\351WvX\006\375\006#\026\177\010x,^\210"
 181      46E95776 
 181      5806FD06 
 181      23167F08 
 181      782C5E88 
 182 015a 1F96E988 		.ascii	"\037\226\351\210\322\206:/\241C\236#\345\215\311\325"
 182      D2863A2F 
 182      A1439E23 
 182      E58DC9D5 
 183 016a 1735830C 		.ascii	"\0275\203\014\322\356\3269\275\304\346MX'\322\275h:"
 183      D2EED639 
 183      BDC4E64D 
 183      5827D2BD 
 183      683A
ARM GAS  /tmp/ccPQLUrc.s 			page 14


 184 017c A10D3F44 		.ascii	"\241\015?D,\260xD\261\312\200O\245_@1X\274\004\337K"
 184      2CB07844 
 184      B1CA804F 
 184      A55F4031 
 184      58BC04DF 
 185 0191 5B0EAA2B 		.ascii	"[\016\252+\344A\223S(\310t\224\242\214\306\272}\227"
 185      E4419353 
 185      28C87494 
 185      A28CC6BA 
 185      7D97
 186 01a3 711CF059 		.ascii	"q\034\360Y\274\024{`\364\327\030\353\230eq\241G\313"
 186      BC147B60 
 186      F4D718EB 
 186      986571A1 
 186      47CB
 187 01b5 2FFDAD76 		.ascii	"/\375\255v x\364\265\322 \316}\007\351\363\222#9 \003"
 187      2078F4B5 
 187      D220CE7D 
 187      07E9F392 
 187      23392003 
 188 01c9 F1DD533F 		.ascii	"\361\335S?\377\225(\272Y\3741\310\315\240\037\015\244"
 188      FF9528BA 
 188      59FC31C8 
 188      CDA01F0D 
 188      A4
 189 01da 75BA9065 		.ascii	"u\272\220e\264\222\177%\000\230\2538\355\035\203j\031"
 189      B4927F25 
 189      0098AB38 
 189      ED1D836A 
 189      19
 190 01eb D55E6670 		.ascii	"\325^fpJS\307\274\326Vbb\313\2316\307\373\242\3240\370"
 190      4A53C7BC 
 190      D6566262 
 190      CB9936C7 
 190      FBA2D430 
 191 0200 6EF41EB1 		.ascii	"n\364\036\261\217\344\324:\307H\025\301M\211M\245\304"
 191      8FE4D43A 
 191      C74815C1 
 191      4D894DA5 
 191      C4
 192 0211 5AF0DD7A 		.ascii	"Z\360\335z\347\230\326\352\360\311\217\263\373\306\364"
 192      E798D6EA 
 192      F0C98FB3 
 192      FBC6F4
 193 0220 BA777A8B 		.ascii	"\272wz\213\315Sz*V\225\352\304\311x\302\212\373\314"
 193      CD537A2A 
 193      5695EAC4 
 193      C978C28A 
 193      FBCC
 194 0232 292AAAED 		.ascii	")*\252\355\334s~\236b\327\325\324\256\233\030\275rs"
 194      DC737E9E 
 194      62D7D5D4 
 194      AE9B18BD 
 194      7273
 195 0244 015B3B63 		.ascii	"\001[;c\347F\005l\035\005\333\350\310\033\254\271\345"
 195      E746056C 
 195      1D05DBE8 
ARM GAS  /tmp/ccPQLUrc.s 			page 15


 195      C81BACB9 
 195      E5
 196 0255 C87D242C 		.ascii	"\310}$,6P\240\235\005Fo\363\030\274\315\243\3676\217"
 196      3650A09D 
 196      05466FF3 
 196      18BCCDA3 
 196      F7368F
 197 0268 27D5E852 		.ascii	"'\325\350R/}Z\270\255c\030t\250@5\250\231\220\331\275"
 197      2F7D5AB8 
 197      AD631874 
 197      A84035A8 
 197      9990D9BD 
 198 027c 67E1C945 		.ascii	"g\341\311E\230D\272\222X\232Gj\"T\007E\270\332lL*3["
 198      9844BA92 
 198      589A476A 
 198      22540745 
 198      B8DA6C4C 
 199 0293 B14F7E9C 		.ascii	"\261O~\234\315oD\251\251u;\026\337\363*^\332\354\264"
 199      CD6F44A9 
 199      A9753B16 
 199      DFF32A5E 
 199      DAECB4
 200 02a6 4A050469 		.ascii	"J\005\004i\253\321Ag\2652>\371qv\007\235]\327\230\236"
 200      ABD14167 
 200      B5323EF9 
 200      7176079D 
 200      5DD7989E 
 201 02ba BC743A4A 		.ascii	"\274t:J\243\267\015:+\027\203\022T\245[-\272gSi\\\232"
 201      A3B70D3A 
 201      2B178312 
 201      54A55B2D 
 201      BA675369 
 202 02d0 D3EAAD67 		.ascii	"\323\352\255gY<\217f\221\023\371\202%/\006\235\241\030"
 202      593C8F66 
 202      9113F982 
 202      252F069D 
 202      A118
 203 02e2 9BF3CC10 		.ascii	"\233\363\314\020qi\205\222\315\325\244z.g<_\032O\227"
 203      71698592 
 203      CDD5A47A 
 203      2E673C5F 
 203      1A4F97
 204 02f5 F2F53B0D 		.ascii	"\362\365;\015\306\345\002C\3463\303p[\311%J\007\236"
 204      C6E50243 
 204      E633C370 
 204      5BC9254A 
 204      079E
 205 0307 AA67D509 		.ascii	"\252g\325\011Q\343M\"V\307\366@\311\244q\345T\302I\223"
 205      51E34D22 
 205      56C7F640 
 205      C9A471E5 
 205      54C24993 
 206 031b 7B3B9D68 		.ascii	"{;\235h\347\024\352#=+\014\203\026\320!\373\215!p\231"
 206      E714EA23 
 206      3D2B0C83 
 206      16D021FB 
 206      8D217099 
ARM GAS  /tmp/ccPQLUrc.s 			page 16


 207 032f F5C94FB3 		.ascii	"\365\311O\263G@\347\011\017\004\200\011)\323,wV\352"
 207      4740E709 
 207      0F048009 
 207      29D32C77 
 207      56EA
 208 0341 FDB528F6 		.ascii	"\375\265(\366`\361a\312q\2739\307\326\001\313\240\177"
 208      60F161CA 
 208      71BB39C7 
 208      D601CBA0 
 208      7F
 209 0352 D121470C 		.ascii	"\321!G\014\034'\016_\270:\250\201\"\037\261\265\030"
 209      1C270E5F 
 209      B83AA881 
 209      221FB1B5 
 209      18
 210 0363 B8F4B649 		.ascii	"\270\364\266I<\231)\254@%?2%\306\232\263W]T\357\307"
 210      3C9929AC 
 210      40253F32 
 210      25C69AB3 
 210      575D54EF 
 211 0378 A9140DCE 		.ascii	"\251\024\015\316\354z\327\3010h\036\035r2]\212]\303"
 211      EC7AD7C1 
 211      30681E1D 
 211      72325D8A 
 211      5DC3
 212 038a 64294EDA 		.ascii	"d)N\332\222b\346\324F%\010\216\321\300\\\222\204\315"
 212      9262E6D4 
 212      4625088E 
 212      D1C05C92 
 212      84CD
 213 039c 2FA8DEFF 		.ascii	"/\250\336\377\226F\271\014\2662g0\237\016\254\351[9"
 213      9646B90C 
 213      B6326730 
 213      9F0EACE9 
 213      5B39
 214 03ae 42EDAF94 		.ascii	"B\355\257\224._\226z\256\247\342\237\2471}\321i:\007"
 214      2E5F967A 
 214      AEA7E29F 
 214      A7317DD1 
 214      693A07
 215 03c1 DA405A3B 		.ascii	"\332@Z;c\213:\235^\242PW\363\206j\231\273n85\366\025"
 215      638B3A9D 
 215      5EA25057 
 215      F3866A99 
 215      BB6E3835 
 216 03d7 0A34C165 		.ascii	"\0124\301e\234N]\206\351\324\245\237\346\\\236TCY\274"
 216      9C4E5D86 
 216      E9D4A59F 
 216      E65C9E54 
 216      4359BC
 217 03ea DDDEEE0C 		.ascii	"\335\336\356\014\232\342\262a9\353\034\2248tA\032>K"
 217      9AE2B261 
 217      39EB1C94 
 217      3874411A 
 217      3E4B
 218 03fc 94263AD4 		.ascii	"\224&:\324x\264\234\327\0304\215\322\272f\364\344\316"
 218      78B49CD7 
ARM GAS  /tmp/ccPQLUrc.s 			page 17


 218      18348DD2 
 218      BA66F4E4 
 218      CE
 219 040d 3DDFC4F1 		.ascii	"=\337\304\361\004j\200k\266\\\271e\333L[\001\331\234"
 219      046A806B 
 219      B65CB965 
 219      DB4C5B01 
 219      D99C
 220 041f DC18FC92 		.ascii	"\334\030\374\222\322\237M\351\3374\322o\272\3361B\216"
 220      D29F4DE9 
 220      DF34D26F 
 220      BADE3142 
 220      8E
 221 0430 A49BF636 		.ascii	"\244\233\3666\007{\376j6\277>qO&\327\350\334s\362\222"
 221      077BFE6A 
 221      36BF3E71 
 221      4F26D7E8 
 221      DC73F292 
 222 0444 22649C21 		.ascii	"\"d\234!!\2637\3159F\024k\211\321\337\272\205\362wI"
 222      21B337CD 
 222      3946146B 
 222      89D1DFBA 
 222      85F27749 
 223 0458 F6F38A58 		.ascii	"\366\363\212X\220\263\355\367\213W\212\342\233N\225"
 223      90B3EDF7 
 223      8B578AE2 
 223      9B4E95
 224 0467 877FE68C 		.ascii	"\207\177\346\214\350\323i\242}\017\315\0012\3301;`\226"
 224      E8D369A2 
 224      7D0FCD01 
 224      32D8313B 
 224      6096
 225 0479 9E1497F6 		.ascii	"\236\024\227\366i\301N\344\014\246\347\354\200\026\254"
 225      69C14EE4 
 225      0CA6E7EC 
 225      8016AC
 226 0488 C30E580F 		.ascii	"\303\016X\017k\316\016i\301\316\346\014\246\347\354"
 226      6BCE0E69 
 226      C1CEE60C 
 226      A6E7EC
 227 0497 3B2DD879 		.ascii	";-\330y;`=\2559;\242\005\373!g0=g\027\265`?\332\001"
 227      3B603DAD 
 227      393BA205 
 227      FB216730 
 227      3D6717B5 
 228 04af F3997096 		.ascii	"\363\231p\226\274\254\326\2327\264k\315k\311\224\220"
 228      BCACD69A 
 228      37B46BCD 
 228      6BC99490 
 229 04bf FFF2F046 		.ascii	"\377\362\360F\316)L'7\231I\207\257Q\342B\236\316j\335"
 229      CE294C27 
 229      37994987 
 229      AF51E242 
 229      9ECE6ADD 
 230 04d3 36103338 		.ascii	"6\02038\314\347\332\271\361\355\234\301\364fi'`\272"
 230      CCE7DAB9 
 230      F1ED9CC1 
ARM GAS  /tmp/ccPQLUrc.s 			page 18


 230      F4666927 
 230      60BA
 231 04e5 5CA34C48 		.ascii	"\\\243LH\211\205R\317\206T\266s\253Xd/%\247\266zQd\222"
 231      898552CF 
 231      8654B673 
 231      AB58642F 
 231      25A7B67A 
 232 04fc 9DC59E3D 		.ascii	"\235\305\236=\315\373\262\270\211\351\007u3\343Ir!\267"
 232      CDFBB2B8 
 232      89E90775 
 232      33E34972 
 232      21B7
 233 050e D596BCD5 		.ascii	"\325\226\274\325\232\3466\034\370\250W\266\241V\236"
 233      9AE6361C 
 233      F8A857B6 
 233      A1569E
 234 051d D0C8683C 		.ascii	"\320\310h<\241\301\216\2322\204\302\365o\347\374\\L"
 234      A1C18E9A 
 234      3284C2F5 
 234      6FE7FC5C 
 234      4C
 235 052e 4858236F 		.ascii	"HX#oF\345\220%D\307~\\KS\362\002\206\314\327Mn\323\211"
 235      46E59025 
 235      44C77E5C 
 235      4B53F202 
 235      86CCD74D 
 236 0545 DF06D4DA 		.ascii	"\337\006\324\332\031K\007\320\211\377#\012\264(o\240"
 236      194B07D0 
 236      89FF230A 
 236      B4286FA0 
 237 0555 96B97387 		.ascii	"\226\271s\207\311g0\024h\271\3338I`\303\012\002\353"
 237      C9673014 
 237      68B9DB38 
 237      4960C30A 
 237      02EB
 238 0567 E778EC49 		.ascii	"\347x\354I5\3226\325?a_\006\2551\332K'N\326l\003Q\327"
 238      35D236D5 
 238      3F615F06 
 238      AD31DA4B 
 238      274ED66C 
 239 057e F6DBD5CB 		.ascii	"\366\333\325\313D\261\326\231\213\305\022\252\305>\245"
 239      44B1D699 
 239      8BC512AA 
 239      C53EA5
 240 058d FAD994A6 		.ascii	"\372\331\224\246\237\217\230\334\024\304\240m9\013\322"
 240      9F8F98DC 
 240      14C4A06D 
 240      390BD2
 241 059c DF20C8C5 		.ascii	"\337 \310\305<\004\271\250\012\262\212\012\262\347'"
 241      3C04B9A8 
 241      0AB28A0A 
 241      B2E727
 242 05ab 10E450CE 		.ascii	"\020\344P\316\202\014\326\010B\367E\317\257\246y\320"
 242      820CD608 
 242      42F745CF 
 242      AFA679D0 
 243 05bb D619C56A 		.ascii	"\326\031\305j\306pF\321\271\223\034\206\220\307\331"
ARM GAS  /tmp/ccPQLUrc.s 			page 19


 243      C67046D1 
 243      B9931C86 
 243      90C7D9
 244 05ca B782D3F6 		.ascii	"\267\202\323\366h\026\374\242\275\005\177\233\262\340"
 244      6816FCA2 
 244      BD057F9B 
 244      B2E0
 245 05d8 5F473576 		.ascii	"_G5v\324,\306\354 5\257\335w\017=\362\2420\247\362\205"
 245      D42CC6EC 
 245      2035AFDD 
 245      770F3DF2 
 245      A230A7F2 
 246 05ed 49B41CF9 		.ascii	"I\264\034\371B\016\325M\024\350B\232\005\235\006\003"
 246      420ED54D 
 246      14E8429A 
 246      059D0603 
 247 05fd 3AF50684 		.ascii	":\365\006\204\237\204\322Uz\224\365\272\362\204\374"
 247      9F84D255 
 247      7A94F5BA 
 247      F284FC
 248 060c 70A1FFFB 		.ascii	"p\241\377\3738\230\210)\373\304x\371,.\211\363H\317"
 248      38988829 
 248      FBC478F9 
 248      2C2E89F3 
 248      48CF
 249 061e AE562651 		.ascii	"\256V&Q\331@\242\347V\020\343\322\206\367\324\015\353"
 249      D940A2E7 
 249      5610E3D2 
 249      86F7D40D 
 249      EB
 250 062f 08328DBE 		.ascii	"\0102\215\276y\213pt\335\245\233F\015\353\367\343\026"
 250      798B7074 
 250      DDA59B46 
 250      0DEBF7E3 
 250      16
 251 0640 534FF23C 		.ascii	"SO\362<\"\321\363\023\352\177\337\320\005R\275\307h"
 251      22D1F313 
 251      EA7FDFD0 
 251      0552BDC7 
 251      68
 252 0651 EF63D8B0 		.ascii	"\357c\330\260\200?\246?\352\266\012\244\355\332ip\376"
 252      803FA63F 
 252      EAB60AA4 
 252      EDDA6970 
 252      FE
 253 0662 2D8949EC 		.ascii	"-\211I\354p\340\017z;,\276E\305\315\232f\357\370\343"
 253      70E00F7A 
 253      3B2CBE45 
 253      C5CD9A66 
 253      EFF8E3
 254 0675 4F2A9697 		.ascii	"O*\226\227\012\262\202\222mg\014\233\255\033K\216\326"
 254      0AB28292 
 254      6D670C9B 
 254      AD1B4B8E 
 254      D6
 255 0686 29BB6DF2 		.ascii	")\273m\362.{\2468L\017\215\324S\240D\022U\241:R\273"
 255      2E7BA638 
ARM GAS  /tmp/ccPQLUrc.s 			page 20


 255      4C0F8DD4 
 255      53A04412 
 255      55A13A52 
 256 069b C0CBAA1E 		.ascii	"\300\313\252\036\351\010\32768\227\234\323\241\344\234"
 256      E908D736 
 256      38979CD3 
 256      A1E49C
 257 06aa 4354951D 		.ascii	"CT\225\035i6\337`\314\3229\005\335y\2434v\267L\311\313"
 257      6936DF60 
 257      CCD23905 
 257      DD79A334 
 257      76B74CC9 
 258 06bf CAA7F66A 		.ascii	"\312\247\366j}\352\312\255y\000\370T\307s\362\002\331"
 258      7DEACAAD 
 258      7900F854 
 258      C773F202 
 258      D9
 259 06d0 1032FB2D 		.ascii	"\0202\373-B\206p\220\320rp\375\026}\360\360\336\334"
 259      42867090 
 259      D07270FD 
 259      167DF0F0 
 259      DEDC
 260 06e2 CF870E28 		.ascii	"\317\207\016(\246;NM\027/2\232\356\222q)e\347\270dj"
 260      A63B4E4D 
 260      172F329A 
 260      EE927129 
 260      65E7B864 
 261 06f7 519E8224 		.ascii	"Q\236\202$/\006M/\262\261\322\365Y\3720\230#\361\202"
 261      2F064D2F 
 261      B2B1D2F5 
 261      59FA3098 
 261      23F182
 262 070a 1CE259CF 		.ascii	"\034\342Y\317\\\222\271\253\255W\033U\306i\206D\321"
 262      5C92B9AB 
 262      AD571B55 
 262      C6698644 
 262      D1
 263 071b 2C83326C 		.ascii	",\2032l\234\335,\242C\316\031\303\031\322\276r\226z"
 263      9CDD2CA2 
 263      43CE19C3 
 263      19D2BE72 
 263      967A
 264 072d CE4634C7 		.ascii	"\316F4\307\245\275okO!Y|\0063\012l\276\372\324\2310"
 264      A5BD6F6B 
 264      4F21597C 
 264      06330A6C 
 264      BEFAD499 
 265 0742 C51F8BCF 		.ascii	"\305\037\213\317\323M\315\005\246\257V\367_\346\254"
 265      D34DCD05 
 265      A6AF56F7 
 265      5FE6AC
 266 0751 7B9F56F7 		.ascii	"{\237V\367\322\364}s\260\314\277\234\2176\031\361\314"
 266      D2F47D73 
 266      B0CCBF9C 
 266      8F3619F1 
 266      CC
 267 0762 F2517F2B 		.ascii	"\362Q\177+[\306\245\345\373\350NQ\366\321\035v\230\033"
ARM GAS  /tmp/ccPQLUrc.s 			page 21


 267      5BC6A5E5 
 267      FBE84E51 
 267      F6D11D76 
 267      981B
 268 0774 6C0DB661 		.ascii	"l\015\266a\206\252\334\004\235\242\016\344\214\347\323"
 268      86AADC04 
 268      9DA20EE4 
 268      8CE7D3
 269 0783 E1EDDFA7 		.ascii	"\341\355\337\247\376\337D>c=f\007o\2305\177\2353t3\372"
 269      FEDF443E 
 269      633D6607 
 269      6F98357F 
 269      9D337433 
 270 0798 F739C3F9 		.ascii	"\3679\303\3712\331>uB\316\342\016Ll\177\032\367\205"
 270      32D93E75 
 270      42CEE20E 
 270      4C6C7F1A 
 270      F785
 271 07aa FA2CADBF 		.ascii	"\372,\255\277\247\365UZ70\244~\237\326sh=\237\326\313"
 271      A7F5555A 
 271      3730A47E 
 271      9FD67368 
 271      3D9FD6CB 
 272 07be 68FD19AD 		.ascii	"h\375\031\255\277\244u\007\255/\321\3722\255;i\375o"
 272      BFA47507 
 272      AD2FD1FA 
 272      32AD3B69 
 272      FD6F
 273 07d0 5A5FD3FA 		.ascii	"Z_\323\372\226U\0364,\002T\227?\222\367\301\373\017"
 273      96551E34 
 273      2C025497 
 273      3F92F7C1 
 273      FB0F
 274 07e2 DB93870B 		.ascii	"\333\223\207\013\340\3609\203e\324\341\021\215\016\023"
 274      E0F03983 
 274      65D4E111 
 274      8D0E13
 275 07f1 548747A9 		.ascii	"T\207G\251\306\256\353\243\250\263H\375WP>\263p\234"
 275      C6AEEBA3 
 275      A8B348FD 
 275      57503EB3 
 275      709C
 276 0803 FC33CA45 		.ascii	"\3743\312E\017\215\3253\222\033F@\273\023\241\242\223"
 276      0F8DD533 
 276      921B4640 
 276      BB13A1A2 
 276      93
 277 0814 FFC2B46E 		.ascii	"\377\302\264n\230\233\3323\314M\242C37M*\316\225vF\025"
 277      989BDA33 
 277      CC4DA243 
 277      33374D2A 
 277      CE957646 
 278 0829 EED7A8F0 		.ascii	"\356\327\250\360 U\341!\252\302\033\324e\272\364\212"
 278      2055E121 
 278      AAC21BD4 
 278      65BAF48A 
 279 0839 9C526CF8 		.ascii	"\234Rl\370\017\240\376\237n\232\246\275\374\367\241"
ARM GAS  /tmp/ccPQLUrc.s 			page 22


 279      0FA0FE9F 
 279      6E9AA6BD 
 279      FCF7A1
 280 0848 86F8224A 		.ascii	"\206\370\"J|1%\276\212\326{\261\015\177\235\227Z\305"
 280      7C3125BE 
 280      8AD67BB1 
 280      0D7F9D97 
 280      5AC5
 281 085a EA347A27 		.ascii	"\3524z'\252\247+\276\206\356\362\336T\031/\225\251\000"
 281      AAA72BBE 
 281      86EEF2DE 
 281      54192F95 
 281      A900
 282 086c 1D5E0561 		.ascii	"\035^\005a\242\343N\332\322\255\263h\027+\232\223\034"
 282      A2E34EDA 
 282      D2ADB368 
 282      172B9A93 
 282      1C
 283 087d A9E323AF 		.ascii	"\251\343#\257'\3258\345\315\302lm\312\220\312\344\370"
 283      27D538E5 
 283      CDC26C6D 
 283      CA90CAE4 
 283      F8
 284 088e F735077B 		.ascii	"\3675\007{\315\216\223\335\270\314\010\203\226\202\216"
 284      CD8E93DD 
 284      B8CC0883 
 284      96828E
 285 089d 950DADEE 		.ascii	"\225\015\255\356\263!\003\347\014ZE\2151\331a\330\326"
 285      B32103E7 
 285      0C5A458D 
 285      31D961D8 
 285      D6
 286 08ae CEA4DF86 		.ascii	"\316\244\337\206\220\307\331\027\253-\255E\3421\011"
 286      90C7D917 
 286      AB2DAD45 
 286      E23109
 287 08bd 9B7DA564 		.ascii	"\233}\245d\242\250)\016\303\377Rg\321\317\011\310\343"
 287      A2A8290E 
 287      C3FF5267 
 287      D1CF09C8 
 287      E3
 288 08ce ECA466CB 		.ascii	"\354\244f\313\244T\263\000)\371\333\022\225\334\317"
 288      A454B300 
 288      29F9DB12 
 288      95DCCF
 289 08dd 54726D8C 		.ascii	"Trm\214B\356\235\234\355Roa\027\345\000\204|zBuF86\247"
 289      42EE9D9C 
 289      ED526F61 
 289      17E50084 
 289      7C7A4275 
 290 08f5 9B7D453E 		.ascii	"\233}E>\347\251\372:\257\314\034\2036\333\203SD2\305"
 290      E7A9FA3A 
 290      AFCC1C83 
 290      36DB8353 
 290      4432C5
 291 0908 9BABC5DB 		.ascii	"\233\253\305\333j\017\257\276\320\032o\271\026o\233"
 291      6A0FAFBE 
ARM GAS  /tmp/ccPQLUrc.s 			page 23


 291      D01A6FB9 
 291      166F9B
 292 0917 3DBC032E 		.ascii	"=\274\003.k\274\225Z\274\035\366\360\232\213L\360\222"
 292      6BBC955A 
 292      BC1DF6F0 
 292      9A8B4CF0 
 292      92
 293 0928 17837625 		.ascii	"\027\203v%=\327\334\3312X\201\305u\216\364\254`\177"
 293      3DD7DCD9 
 293      325881C5 
 293      758EF4AC 
 293      607F
 294 093a FCFD68AE 		.ascii	"\374\375h\256(]L\354\377\333\351\236\215dM*\336\354"
 294      285D4CEC 
 294      FFDBE99E 
 294      8D644D2A 
 294      DEEC
 295 094c 7A1D1BBE 		.ascii	"z\035\033\276\224\263\370\317\030!>\307q\257\322R\277"
 295      94B3F8CF 
 295      18213EC7 
 295      71AFD252 
 295      BF
 296 095d 5163D00F 		.ascii	"Qc\320\017\305\330\340\375\017\242\205\004O\\$:(\032"
 296      C5D8E0FD 
 296      0FA28504 
 296      4F5C243A 
 296      281A
 297 096f E93FDB71 		.ascii	"\351?\333q\277V\011,nt0\332\0072cR}\253\267~B\242\253"
 297      BF56092C 
 297      6E7430DA 
 297      07326352 
 297      7DABB77E 
 298 0986 EB7E9916 		.ascii	"\353~\231\026\203D\257\035\364&#zs:z\242\036\262\315"
 298      8344AF1D 
 298      F426237A 
 298      733A7AA2 
 298      1EB2CD
 299 0999 EE5F34AC 		.ascii	"\356_4\254\024'\232\210\355Fo\320\303\300I\342\004\374"
 299      14279A88 
 299      ED466FD0 
 299      C3C049E2 
 299      04FC
 300 09ab 5A526B16 		.ascii	"ZRk\026\207\364,^\340p\223\371\300ky\304N:\250\352\227"
 300      87F42C5E 
 300      E07093F9 
 300      C06B79C4 
 300      4E3AA8EA 
 301 09c0 DB6A2BC3 		.ascii	"\333j+\303\011\373|\207\356CD\372U`\262\255 \352>\017"
 301      09FB7C87 
 301      EE4344FA 
 301      5560B2AD 
 301      20EA3E0F 
 302 09d4 64D07B69 		.ascii	"d\320{i\372\221;-6U\300\302\037w\341Y\342\246\211bW"
 302      FA913B2D 
 302      3655C0C2 
 302      1F77E159 
 302      E2A68962 
ARM GAS  /tmp/ccPQLUrc.s 			page 24


 303 09e9 D7EBC860 		.ascii	"\327\353\310`\366\245\330:\263,12F\246\035\345\207a"
 303      F6A5D83A 
 303      B32C3132 
 303      46A61DE5 
 303      8761
 304 09fb 22CF04B3 		.ascii	"\"\317\004\263\314Q\254cR'I\223\205$\237\232I\"\255"
 304      CC51AC63 
 304      52274993 
 304      85249F9A 
 304      4922AD
 305 0a0e 78634A2F 		.ascii	"xcJ/q^\\\352\352\032a\024$\203\377\2560\312A\377i\253"
 305      715E5CEA 
 305      EA1A6114 
 305      2483FFAE 
 305      30CA41FF 
 306 0a24 63E3130B 		.ascii	"c\343\023\0136>3e\243i\253%\033\031>8m\311\240NY\203"
 306      363E3365 
 306      A369AB25 
 306      1B193E38 
 306      6DC9A04E 
 307 0a3a E9EAF9C2 		.ascii	"\351\352\371\302\202\257/M\015\275{\352\211y\370\335"
 307      82AF2F4D 
 307      0DBD7BEA 
 307      8979F8DD 
 308 0a4a DAE636F1 		.ascii	"\332\3466\361\"\331\012\347`\3525&!\376\225\005\355"
 308      22D90AE7 
 308      60EA3526 
 308      21FE9505 
 308      ED
 309 0a5b B5A6B4B7 		.ascii	"\265\246\264\267\\\226,\235,\203m\326gT\212\374\337"
 309      5C962C9D 
 309      2C836DD6 
 309      67548AFC 
 309      DF
 310 0a6c F62C3A6A 		.ascii	"\366,:j\267\340s\243\236\317\007\320<Q\332\005I\360"
 310      B7E073A3 
 310      9ECF07D0 
 310      3C51DA05 
 310      49F0
 311 0a7e E0490C0B 		.ascii	"\340I\014\013\215\311\265\344\304\007w9\324\317\232"
 311      8DC9B5E4 
 311      C4077739 
 311      D4CF9A
 312 0a8d 4F2461D4 		.ascii	"O$a\324e\236\356\223e\202\370U\012\221\240\321\334\262"
 312      659EEE93 
 312      6582F855 
 312      0A91A0D1 
 312      DCB2
 313 0a9f 71E0DAB8 		.ascii	"q\340\332\2708q\005H\013`#\344\004\317\240\013F0\223"
 313      38710548 
 313      0B6023E4 
 313      04CFA00B 
 313      463093
 314 0ab2 95C5163D 		.ascii	"\225\305\026=\332r\011x\333=`G\234$h\2315e\335@>\237"
 314      DA720978 
 314      DB3D6047 
 314      9C246899 
ARM GAS  /tmp/ccPQLUrc.s 			page 25


 314      3565DD40 
 315 0ac8 4AC69B94 		.ascii	"J\306\233\224:\330\203\251\012g\370\026\354\012\360"
 315      3AD883A9 
 315      0A67F816 
 315      EC0AF0
 316 0ad7 90F59331 		.ascii	"\220\365\2231\026os\220\335\311v\3032\207\254\321\336"
 316      166F7390 
 316      DDC976C3 
 316      3287ACD1 
 316      DE
 317 0ae8 50BE85D8 		.ascii	"P\276\205\330nc\255\023\227\256\335h\303\364\020\260"
 317      6E63AD13 
 317      97AEDD68 
 317      C3F410B0 
 318 0af8 91EE6B6F 		.ascii	"\221\356koP\015lw\344\273\203\272~\232\302\031\362\014"
 318      500D6C77 
 318      E4BB83BA 
 318      7E9AC219 
 318      F20C
 319 0b0a 991EAC5C 		.ascii	"\231\036\254\\i\227v\303\020\357\226+y\237\216<\331"
 319      699776C3 
 319      10EF962B 
 319      799F8E3C 
 319      D9
 320 0b1b ACC8900C 		.ascii	"\254\310\220\014\232l\007+\303\306\347\246\006\353\335"
 320      9A6C072B 
 320      C3C6E7A6 
 320      06EBDD
 321 0b2a 9CB17C06 		.ascii	"\234\261|\006u\253v`\361\016\007\3310\354\244\365\036"
 321      75AB7660 
 321      F10E07D9 
 321      30ECA4F5 
 321      1E
 322 0b3b 5AB79B2C 		.ascii	"Z\267\233,\023\014z2(\364k\013N\010\376>]\342\326@\216"
 322      130C7A32 
 322      28F46B0B 
 322      4E08FE3E 
 322      5DE2D640 
 323 0b50 D433AA71 		.ascii	"\3243\252qSy\220y7\330v\345\274\270=`\261\270\325\316"
 323      53799079 
 323      37D876E5 
 323      BCB83D60 
 323      B1B8D5CE 
 324 0b64 C0A95EE4 		.ascii	"\300\251^\344\324\254\233!\360\322\2308\250\204]\011"
 324      D4AC9B21 
 324      F0D29838 
 324      A8845D09 
 325 0b74 FA4C9C2C 		.ascii	"\372L\234,\301R~+p\225\264\333_\320\177\304\006\021"
 325      C1527E2B 
 325      7095B4DB 
 325      5FD07FC4 
 325      0611
 326 0b86 22F1E800 		.ascii	"\"\361\350\000\207,\014\211\315\213\273\244\365o5b\261"
 326      872C0C89 
 326      CD8BBBA4 
 326      F56F3562 
 326      B1
ARM GAS  /tmp/ccPQLUrc.s 			page 26


 327 0b97 1982F366 		.ascii	"\031\202\363fW\027\226\365\306\240\205Fj\372\340\"\344"
 327      571796F5 
 327      C6A08546 
 327      6AFAE022 
 327      E4
 328 0ba8 FE01E4FA 		.ascii	"\376\001\344\372\240O\2735\212n\015\331\2212\202lC\231"
 328      A04FBB35 
 328      8A6E0DD9 
 328      9132826C 
 328      4399
 329 0bba A6B4611B 		.ascii	"\246\264a\033\266\334\3145k6s\311\264\324_!q,g\265\036"
 329      B6DCCC35 
 329      6B3673C9 
 329      B4D45F21 
 329      712C67B5 
 330 0bcf B750EB43 		.ascii	"\267P\353C\031]\207\305GS\036\321\007m\004\231\032F"
 330      195D87C5 
 330      47531ED1 
 330      076D0499 
 330      1A46
 331 0be1 A6C8CBAE 		.ascii	"\246\310\313\256H\204\231\014\211\266H\366\370\344*"
 331      4884990C 
 331      89B648F6 
 331      F8E42A
 332 0bf0 4D765182 		.ascii	"MvQ\202'\307\251\354\254J\357\366do\355\212Q\341BV\251"
 332      27C7A9EC 
 332      AC4AEFF6 
 332      646FED8A 
 332      51E14256 
 333 0c05 EA8C06FF 		.ascii	"\352\214\006\377]\223!!\234r\230\357\222\345\225\215"
 333      5D932121 
 333      9C7298EF 
 333      92E5958D 
 334 0c15 D5A80ECB 		.ascii	"\325\250\016\313Q-\031F\235\266\0345?\303\2503\226\243"
 334      512D1946 
 334      9DB61C35 
 334      3FC3A833 
 334      96A3
 335 0c27 56641875 		.ascii	"Vd\030u\326\241;\2552\214\\\237a\3449MD?0h\220\177T"
 335      D6A13BAD 
 335      328C5C9F 
 335      61E4394D 
 335      443F3068 
 336 0c3e 45684CE8 		.ascii	"EhL\350\205\027\375\221\230\237\027\374\241p\260\262"
 336      8517FD91 
 336      989F17FC 
 336      A170B0B2 
 337 0c4e BA94F307 		.ascii	"\272\224\363\007+*86:\250\002u\253\342\252\"\374\370"
 337      2B2A3836 
 337      3AA80275 
 337      ABE2AA22 
 337      FCF8
 338 0c60 00F91910 		.ascii	"\000\371\031\020\234O?\377\222o\024*\326<\234\200\375"
 338      9C4F3FFF 
 338      926F142A 
 338      D63C9C80 
 338      FD
ARM GAS  /tmp/ccPQLUrc.s 			page 27


 339 0c71 E1B21829 		.ascii	"\341\262\030)\217\372+\"U\234\237\347b\034\313\007+"
 339      8FFA2B22 
 339      559C9FE7 
 339      621CCB07 
 339      2B
 340 0c82 FC152C5F 		.ascii	"\374\025,_Z\303\362\234\237\345\253\206\372\313\203"
 340      5AC3F29C 
 340      9FE5AB86 
 340      FACB83
 341 0c91 C181D018 		.ascii	"\301\201\320\030\310U\215\341JK\271\322\344\203p$\314"
 341      C8558DE1 
 341      4A4BB9D2 
 341      E4837024 
 341      CC
 342 0ca2 0DE4D831 		.ascii	"\015\344\3301\241\201%\201a\003\207\016\036R\362\332"
 342      A1812581 
 342      6103870E 
 342      1E52F2DA 
 343 0cb2 507F6568 		.ascii	"P\177eh\014\351\340\327u\360\227\014\0326\250$\311c"
 343      0CE9E0D7 
 343      75F0970C 
 343      1A36A824 
 343      C963
 344 0cc4 4C009C32 		.ascii	"L\000\2342\340\321\031\013\375\231\013\010\3752H\003"
 344      E0D1190B 
 344      FD990B08 
 344      FD324803 
 345 0cd4 0C07233C 		.ascii	"\014\007#<\007\235\275\320,\347\204\262\352p0 \024U"
 345      079DBDD0 
 345      2CE784B2 
 345      EA703020 
 345      1455
 346 0ce6 04A27C64 		.ascii	"\004\242|dl\250\224\343\213\251\204PA\373\2414\244h"
 346      6CA894E3 
 346      8BA98450 
 346      41FBA134 
 346      A468
 347 0cf8 841762FE 		.ascii	"\204\027b\376'\377\370\334\250\347\306\001\234\202U"
 347      27FFF8DC 
 347      A8E7C601 
 347      9C8255
 348 0d07 14135E65 		.ascii	"\024\023^e+C\345\341\200\020\273\035Z\320K\257\221;"
 348      2B43E5E1 
 348      8010BB1D 
 348      5AD04BAF 
 348      913B
 349 0d19 141680BC 		.ascii	"\024\026\200\274\273\032\356\217\225\004\204\332\333"
 349      BB1AEE8F 
 349      950484DA 
 349      DB
 350 0d26 620373EA 		.ascii	"b\003s\352Ul\260\"\024\346\374\001\320=[])\004\204\361"
 350      556CB022 
 350      14E6FC01 
 350      D03D5B5D 
 350      290484F1 
 351 0d3a 512E4694 		.ascii	"Q.F\224\021\010\250\374\024R\245\024\204\271qB\001Q"
 351      1108A8FC 
ARM GAS  /tmp/ccPQLUrc.s 			page 28


 351      1452A514 
 351      84B97142 
 351      0151
 352 0d4c 2BAE2E20 		.ascii	"+\256. &\302\025\316\212@\031\317q}3YJ\030\007`\256"
 352      26C215CE 
 352      8A4019CF 
 352      717D3359 
 352      4A180760 
 353 0d61 AA6A811B 		.ascii	"\252j\201\033\027\020\334\301\212\000m>\230aHl|Le\342"
 353      1710DCC1 
 353      8A006D3E 
 353      9861486C 
 353      7C4C65E2 
 354 0d75 0EA18207 		.ascii	"\016\241\202\007\023\306\002\257Us\325\340\023=`\274"
 354      13C602AF 
 354      5573D5E0 
 354      133D60BC 
 355 0d85 EE512697 		.ascii	"\356Q&\227\217\005+J\211Z\345\001\001\301\223\034\354"
 355      8F052B4A 
 355      895AE501 
 355      01C1931C 
 355      EC
 356 0d96 8C068830 		.ascii	"\214\006\2100p\213\362\334\330\307\262\270G\244*\032"
 356      708BF2DC 
 356      D8C7B2B8 
 356      47A42A1A 
 357 0da6 AAE4F898 		.ascii	"\252\344\370\230\377\351Q\243\000V\345\315%D\371P\004"
 357      FFE951A3 
 357      0056E5CD 
 357      2544F950 
 357      04
 358 0db7 64226A7A 		.ascii	"d\"jzd(x\237\2541\322\244\310\241\210+\030\011\203\260"
 358      6428789F 
 358      AC31D2A4 
 358      C8A1882B 
 358      180983B0 
 359 0dcb 4231010C 		.ascii	"B1\001\014\300\273\2400n\200\035g\014\214}\274\212\260"
 359      C0BBA030 
 359      6E801D67 
 359      0C8C7DBC 
 359      8AB0
 360 0ddd CE73E560 		.ascii	"\316s\345`\266\200\300\360%\014\377(\303?\306\360\217"
 360      B680C0F0 
 360      250CFF28 
 360      C33FC6F0 
 360      8F
 361 0dee 33FC3086 		.ascii	"3\3740\206\037\356\340\207\014\2062\204\251\344\341"
 361      1FEEE087 
 361      0C863284 
 361      A9E4E1
 362 0dfd F6486134 		.ascii	"\366Ha4\000\330.\"W\015\307\303=R\011\216_\020\004\207"
 362      00D82E22 
 362      570DC7C3 
 362      3D52098E 
 362      5F100487 
 363 0e11 21C2B255 		.ascii	"!\302\262U\234[\210\011\254\000:t\021&\207\201:dv\241"
 363      9C5B8809 
ARM GAS  /tmp/ccPQLUrc.s 			page 29


 363      AC003A74 
 363      11268781 
 363      3A6476A1 
 364 0e25 05DDE93B 		.ascii	"\005\335\351;\227P\025)\345\350\357\262J\266<\346\022"
 364      97501529 
 364      E5E8EFB2 
 364      4AB63CE6 
 364      12
 365 0e36 78AE2C46 		.ascii	"x\256,F\245!\215\302\252X9\274TD\204\341\252\260|\351"
 365      A5218DC2 
 365      AA5839BC 
 365      544484E1 
 365      AAB07CE9 
 366 0e4a 7878E5E6 		.ascii	"xx\345\346\306\205\204 \0008k\204\310\230W\242w)z\207"
 366      C6858420 
 366      00386B84 
 366      C89857A2 
 366      77297A87 
 367 0e5e A11CCF85 		.ascii	"\241\034\317\205\203\000\\X#\010|\324\025\343\302\002"
 367      83005C58 
 367      23087CD4 
 367      15E3C202 
 368 0e6e 0CF0823D 		.ascii	"\014\360\202=b\\\025\033\255\000\2113\371\020t\"\372"
 368      625C151B 
 368      AD008933 
 368      F9107422 
 368      FA
 369 0e7f 564C5E18 		.ascii	"VL^\030\014\203\227\026\306\002p\007R\3602\0127\360"
 369      0C839716 
 369      C6027007 
 369      52F0320A 
 369      37F0
 370 0e91 B3683137 		.ascii	"\263h17\226 \263\261W\201)\256\2064\034\321@uw\325c"
 370      9620B3B1 
 370      578129AE 
 370      86341CD1 
 370      407577D5 
 371 0ea6 2A433118 		.ascii	"*C1\030y\207\306\207\310\023O4P\303\206\204P\270\274"
 371      7987C687 
 371      C8134F34 
 371      50C38684 
 371      50B8BC
 372 0eb9 281A00B6 		.ascii	"(\032\000\266(\021hrQ.\014\221Y\016\357\001\234\364"
 372      28116872 
 372      512E0C91 
 372      590EEF01 
 372      9CF4
 373 0ecb 2C227A60 		.ascii	",\"z`+\251e\341a4\022\251tU\311L\301=R\023\346xg\025"
 373      2BA965E1 
 373      613412A9 
 373      7455C94C 
 373      C13D5213 
 374 0ee3 F5ACC20A 		.ascii	"\365\254\302\0122\246\267F&\201\213\011D*r'9nLu\031"
 374      32A6B746 
 374      26818B09 
 374      442A7227 
 374      396E4C75 
ARM GAS  /tmp/ccPQLUrc.s 			page 30


 375 0ef8 A8C54B7E 		.ascii	"\250\305K~\006\344v\214\031=\230\031=\204\031=\224\031"
 375      06E4768C 
 375      193D9819 
 375      3D84193D 
 375      9419
 376 0f0a FD0833BA 		.ascii	"\375\0103\272\204\251a\373X\000\320d\036D\335\310}H"
 376      84A961FB 
 376      5800D064 
 376      1E44DDC8 
 376      7D48
 377 0f1c 801BC705 		.ascii	"\200\033\307\005!\246\212\345_1N\250\216\026\006~\007"
 377      21A68AE5 
 377      5F314EA8 
 377      8E16067E 
 377      07
 378 0f2d CC790314 		.ascii	"\314y\003\024\236\215\3058^\000m?\003\035^\004CW\307"
 378      9E8DC538 
 378      5E006D3F 
 378      031D5E04 
 378      4357C7
 379 0f40 8AE41F4F 		.ascii	"\212\344\037OA\360\026\313\315'++#A\010\257Q`\213\247"
 379      41F016CB 
 379      CD272B2B 
 379      234108AF 
 379      51608BA7 
 380 0f54 3941EEF6 		.ascii	"9A\356\366r\017\371\345\013c^\341\202\302\263\341\220"
 380      720FF9E5 
 380      0B635EE1 
 380      82C2B3E1 
 380      90
 381 0f65 E0A18884 		.ascii	"\340\241\210\204R\001i\271I\025dc\\\001q\261BJ\033\236"
 381      520169B9 
 381      49156463 
 381      5C0171B1 
 381      424A1B9E 
 382 0f79 4196026D 		.ascii	"A\226\002m\270T\306\242\254 p|\230\214\362\250\354\017"
 382      B854C6A2 
 382      AC20707C 
 382      988CF2A8 
 382      EC0F
 383 0f8b B973101F 		.ascii	"\271s\020\037)e\005vP\362I\177B\352\327>\226p\302\012"
 383      29650576 
 383      50F2497F 
 383      42EAD73E 
 383      9670C20A 
 384 0f9f A1       		.ascii	"\241"
 385 0fa0 48D8C786 		.ascii	"H\330\307\206K}e<[^\005f\225\237\220\316\350\177J?'"
 385      4B7D653C 
 385      5B5E0566 
 385      959F90CE 
 385      E87F4A3F 
 386 0fb5 37       		.ascii	"7"
 387              		.text
 388              		.section	.gnu.lto_.symtab.6a22afd8e816e659,"",%progbits
 389 0000 70617474 		.ascii	"patternheap\000\000\000\000\000\000\000\000\000\000"
 389      65726E68 
 389      65617000 
ARM GAS  /tmp/ccPQLUrc.s 			page 31


 389      00000000 
 389      00000000 
 390 0015 0000C601 		.ascii	"\000\000\306\001\000\000testheap1\000\000\000\000\000"
 390      00007465 
 390      73746865 
 390      61703100 
 390      00000000 
 391 0029 00000000 		.ascii	"\000\000\000\000\000\000\000\334\001\000\000test\000"
 391      000000DC 
 391      01000074 
 391      65737400 
 392 0039 00020000 		.ascii	"\000\002\000\000\000\000\000\000\000\000\000\304\001"
 392      00000000 
 392      000000C4 
 392      01
 393 0046 00005F74 		.ascii	"\000\000_test_assert\000\000\002\000\000\000\000\000"
 393      6573745F 
 393      61737365 
 393      72740000 
 393      02000000 
 394 005c 00000000 		.ascii	"\000\000\000\000\242\001\000\000chHeapStatus\000\000"
 394      A2010000 
 394      63684865 
 394      61705374 
 394      61747573 
 395 0072 02000000 		.ascii	"\002\000\000\000\000\000\000\000\000\000\252\001\000"
 395      00000000 
 395      0000AA01 
 395      00
 396 007f 00636848 		.ascii	"\000chHeapFree\000\000\002\000\000\000\000\000\000\000"
 396      65617046 
 396      72656500 
 396      00020000 
 396      00000000 
 397 0094 0000B001 		.ascii	"\000\000\260\001\000\000chHeapAlloc\000\000\002\000"
 397      00006368 
 397      48656170 
 397      416C6C6F 
 397      63000002 
 398 00a9 00000000 		.ascii	"\000\000\000\000\000\000\000\000\264\001\000\000chC"
 398      00000000 
 398      B4010000 
 398      636843
 399 00b8 6F726547 		.ascii	"oreGetStatusX\000\000\002\000\000\000\000\000\000\000"
 399      65745374 
 399      61747573 
 399      58000002 
 399      00000000 
 400 00cf 0000B901 		.ascii	"\000\000\271\001\000\000chHeapObjectInit\000\000\002"
 400      00006368 
 400      48656170 
 400      4F626A65 
 400      6374496E 
 401 00e8 00000000 		.ascii	"\000\000\000\000\000\000\000\000\000\274\001\000\000"
 401      00000000 
 401      00BC0100 
 401      00
ARM GAS  /tmp/ccPQLUrc.s 			page 32


 402              		.text
 403              		.section	.gnu.lto_.opts,"",%progbits
 404 0000 272D6D63 		.ascii	"'-mcpu=cortex-m4' '-mno-thumb-interwork' '-mthumb' "
 404      70753D63 
 404      6F727465 
 404      782D6D34 
 404      2720272D 
 405 0033 272D6767 		.ascii	"'-ggdb' '-O2' '-fomit-frame-pointer' '-falign-funct"
 405      64622720 
 405      272D4F32 
 405      2720272D 
 405      666F6D69 
 406 0066 696F6E73 		.ascii	"ions=16' '-ffunction-sections' '-fdata-sections' '-"
 406      3D313627 
 406      20272D66 
 406      66756E63 
 406      74696F6E 
 407 0099 666E6F2D 		.ascii	"fno-common' '-flto'\000"
 407      636F6D6D 
 407      6F6E2720 
 407      272D666C 
 407      746F2700 
 408              		.text
 409              		.cfi_sections	.debug_frame
 410              		.section	.text.heap1_execute,"ax",%progbits
 411              		.align	2
 412              		.p2align 4,,15
 413              		.thumb
 414              		.thumb_func
 415              		.type	heap1_execute, %function
 416              	heap1_execute:
 417              	.LFB242:
 418              		.file 1 "../ChibiOS/test/rt/testheap.c"
 419              		.loc 1 69 0
 420              		.cfi_startproc
 421              		@ args = 0, pretend = 0, frame = 8
 422              		@ frame_needed = 0, uses_anonymous_args = 0
 423 0000 70B5     		push	{r4, r5, r6, lr}
 424              		.cfi_def_cfa_offset 16
 425              		.cfi_offset 4, -16
 426              		.cfi_offset 5, -12
 427              		.cfi_offset 6, -8
 428              		.cfi_offset 14, -4
 429 0002 82B0     		sub	sp, sp, #8
 430              		.cfi_def_cfa_offset 24
 431              		.loc 1 74 0
 432 0004 FFF7FEFF 		bl	chCoreGetStatusX
 433              	.LVL0:
 434              		.loc 1 80 0
 435 0008 01A9     		add	r1, sp, #4
 436 000a 0020     		movs	r0, #0
 437 000c FFF7FEFF 		bl	chHeapStatus
 438              	.LVL1:
 439              		.loc 1 81 0
 440 0010 1021     		movs	r1, #16
 441 0012 0020     		movs	r0, #0
 442 0014 FFF7FEFF 		bl	chHeapAlloc
ARM GAS  /tmp/ccPQLUrc.s 			page 33


 443              	.LVL2:
 444              		.loc 1 82 0
 445 0018 011C     		adds	r1, r0, #0
 446 001a 0446     		mov	r4, r0
 447 001c 18BF     		it	ne
 448 001e 0121     		movne	r1, #1
 449 0020 0120     		movs	r0, #1
 450              	.LVL3:
 451 0022 FFF7FEFF 		bl	_test_assert
 452              	.LVL4:
 453 0026 0546     		mov	r5, r0
 454 0028 08B1     		cbz	r0, .L7
 455              	.LVL5:
 456              	.L1:
 457              		.loc 1 140 0
 458 002a 02B0     		add	sp, sp, #8
 459              		@ sp needed
 460 002c 70BD     		pop	{r4, r5, r6, pc}
 461              	.LVL6:
 462              	.L7:
 463              		.loc 1 83 0
 464 002e 2046     		mov	r0, r4
 465 0030 FFF7FEFF 		bl	chHeapFree
 466              	.LVL7:
 467              		.loc 1 84 0
 468 0034 6FF0FF01 		mvn	r1, #255
 469 0038 2846     		mov	r0, r5
 470 003a FFF7FEFF 		bl	chHeapAlloc
 471              	.LVL8:
 472              		.loc 1 85 0
 473 003e D0F10101 		rsbs	r1, r0, #1
 474 0042 38BF     		it	cc
 475 0044 0021     		movcc	r1, #0
 476 0046 0220     		movs	r0, #2
 477              	.LVL9:
 478 0048 FFF7FEFF 		bl	_test_assert
 479              	.LVL10:
 480 004c 0028     		cmp	r0, #0
 481 004e ECD1     		bne	.L1
 482              		.loc 1 88 0
 483 0050 01A9     		add	r1, sp, #4
 484 0052 7B48     		ldr	r0, .L8
 485 0054 FFF7FEFF 		bl	chHeapStatus
 486              	.LVL11:
 487              		.loc 1 91 0
 488 0058 1021     		movs	r1, #16
 489 005a 7948     		ldr	r0, .L8
 490 005c FFF7FEFF 		bl	chHeapAlloc
 491              	.LVL12:
 492              		.loc 1 92 0
 493 0060 1021     		movs	r1, #16
 494              		.loc 1 91 0
 495 0062 0546     		mov	r5, r0
 496              	.LVL13:
 497              		.loc 1 92 0
 498 0064 7648     		ldr	r0, .L8
 499              	.LVL14:
ARM GAS  /tmp/ccPQLUrc.s 			page 34


 500 0066 FFF7FEFF 		bl	chHeapAlloc
 501              	.LVL15:
 502              		.loc 1 93 0
 503 006a 1021     		movs	r1, #16
 504              		.loc 1 92 0
 505 006c 0446     		mov	r4, r0
 506              	.LVL16:
 507              		.loc 1 93 0
 508 006e 7448     		ldr	r0, .L8
 509              	.LVL17:
 510 0070 FFF7FEFF 		bl	chHeapAlloc
 511              	.LVL18:
 512 0074 0646     		mov	r6, r0
 513              	.LVL19:
 514              		.loc 1 94 0
 515 0076 2846     		mov	r0, r5
 516              	.LVL20:
 517 0078 FFF7FEFF 		bl	chHeapFree
 518              	.LVL21:
 519              		.loc 1 95 0
 520 007c 2046     		mov	r0, r4
 521 007e FFF7FEFF 		bl	chHeapFree
 522              	.LVL22:
 523              		.loc 1 96 0
 524 0082 3046     		mov	r0, r6
 525 0084 FFF7FEFF 		bl	chHeapFree
 526              	.LVL23:
 527              		.loc 1 97 0
 528 0088 6946     		mov	r1, sp
 529 008a 6D48     		ldr	r0, .L8
 530 008c FFF7FEFF 		bl	chHeapStatus
 531              	.LVL24:
 532 0090 421E     		subs	r2, r0, #1
 533 0092 5142     		rsbs	r1, r2, #0
 534 0094 5141     		adcs	r1, r1, r2
 535 0096 0320     		movs	r0, #3
 536 0098 FFF7FEFF 		bl	_test_assert
 537              	.LVL25:
 538 009c 0028     		cmp	r0, #0
 539 009e C4D1     		bne	.L1
 540              		.loc 1 100 0
 541 00a0 1021     		movs	r1, #16
 542 00a2 6748     		ldr	r0, .L8
 543 00a4 FFF7FEFF 		bl	chHeapAlloc
 544              	.LVL26:
 545              		.loc 1 101 0
 546 00a8 1021     		movs	r1, #16
 547              		.loc 1 100 0
 548 00aa 0446     		mov	r4, r0
 549              	.LVL27:
 550              		.loc 1 101 0
 551 00ac 6448     		ldr	r0, .L8
 552              	.LVL28:
 553 00ae FFF7FEFF 		bl	chHeapAlloc
 554              	.LVL29:
 555              		.loc 1 102 0
 556 00b2 1021     		movs	r1, #16
ARM GAS  /tmp/ccPQLUrc.s 			page 35


 557              		.loc 1 101 0
 558 00b4 0546     		mov	r5, r0
 559              	.LVL30:
 560              		.loc 1 102 0
 561 00b6 6248     		ldr	r0, .L8
 562              	.LVL31:
 563 00b8 FFF7FEFF 		bl	chHeapAlloc
 564              	.LVL32:
 565              		.loc 1 103 0
 566 00bc FFF7FEFF 		bl	chHeapFree
 567              	.LVL33:
 568              		.loc 1 104 0
 569 00c0 2846     		mov	r0, r5
 570 00c2 FFF7FEFF 		bl	chHeapFree
 571              	.LVL34:
 572              		.loc 1 105 0
 573 00c6 2046     		mov	r0, r4
 574 00c8 FFF7FEFF 		bl	chHeapFree
 575              	.LVL35:
 576              		.loc 1 106 0
 577 00cc 6946     		mov	r1, sp
 578 00ce 5C48     		ldr	r0, .L8
 579 00d0 FFF7FEFF 		bl	chHeapStatus
 580              	.LVL36:
 581 00d4 431E     		subs	r3, r0, #1
 582 00d6 5942     		rsbs	r1, r3, #0
 583 00d8 5941     		adcs	r1, r1, r3
 584 00da 0420     		movs	r0, #4
 585 00dc FFF7FEFF 		bl	_test_assert
 586              	.LVL37:
 587 00e0 0028     		cmp	r0, #0
 588 00e2 A2D1     		bne	.L1
 589              		.loc 1 109 0
 590 00e4 1121     		movs	r1, #17
 591 00e6 5648     		ldr	r0, .L8
 592 00e8 FFF7FEFF 		bl	chHeapAlloc
 593              	.LVL38:
 594              		.loc 1 110 0
 595 00ec 1021     		movs	r1, #16
 596              		.loc 1 109 0
 597 00ee 0446     		mov	r4, r0
 598              	.LVL39:
 599              		.loc 1 110 0
 600 00f0 5348     		ldr	r0, .L8
 601              	.LVL40:
 602 00f2 FFF7FEFF 		bl	chHeapAlloc
 603              	.LVL41:
 604 00f6 0546     		mov	r5, r0
 605              	.LVL42:
 606              		.loc 1 111 0
 607 00f8 2046     		mov	r0, r4
 608              	.LVL43:
 609 00fa FFF7FEFF 		bl	chHeapFree
 610              	.LVL44:
 611              		.loc 1 112 0
 612 00fe 6946     		mov	r1, sp
 613 0100 4F48     		ldr	r0, .L8
ARM GAS  /tmp/ccPQLUrc.s 			page 36


 614 0102 FFF7FEFF 		bl	chHeapStatus
 615              	.LVL45:
 616 0106 B0F1020C 		subs	ip, r0, #2
 617 010a DCF10001 		rsbs	r1, ip, #0
 618 010e 51EB0C01 		adcs	r1, r1, ip
 619 0112 0520     		movs	r0, #5
 620 0114 FFF7FEFF 		bl	_test_assert
 621              	.LVL46:
 622 0118 0028     		cmp	r0, #0
 623 011a 86D1     		bne	.L1
 624              		.loc 1 113 0
 625 011c 1021     		movs	r1, #16
 626 011e 4848     		ldr	r0, .L8
 627 0120 FFF7FEFF 		bl	chHeapAlloc
 628              	.LVL47:
 629              		.loc 1 116 0
 630 0124 6946     		mov	r1, sp
 631              		.loc 1 113 0
 632 0126 0446     		mov	r4, r0
 633              	.LVL48:
 634              		.loc 1 116 0
 635 0128 4548     		ldr	r0, .L8
 636              	.LVL49:
 637 012a FFF7FEFF 		bl	chHeapStatus
 638              	.LVL50:
 639 012e 0128     		cmp	r0, #1
 640 0130 00F08380 		beq	.L5
 641              		.loc 1 116 0 is_stmt 0 discriminator 2
 642 0134 6946     		mov	r1, sp
 643 0136 4248     		ldr	r0, .L8
 644 0138 FFF7FEFF 		bl	chHeapStatus
 645              	.LVL51:
 646 013c B0F1020E 		subs	lr, r0, #2
 647 0140 DEF10001 		rsbs	r1, lr, #0
 648 0144 51EB0E01 		adcs	r1, r1, lr
 649              	.L3:
 650              		.loc 1 116 0 discriminator 4
 651 0148 0620     		movs	r0, #6
 652 014a FFF7FEFF 		bl	_test_assert
 653              	.LVL52:
 654 014e 0028     		cmp	r0, #0
 655 0150 7FF46BAF 		bne	.L1
 656              		.loc 1 118 0 is_stmt 1
 657 0154 2846     		mov	r0, r5
 658 0156 FFF7FEFF 		bl	chHeapFree
 659              	.LVL53:
 660              		.loc 1 119 0
 661 015a 2046     		mov	r0, r4
 662 015c FFF7FEFF 		bl	chHeapFree
 663              	.LVL54:
 664              		.loc 1 120 0
 665 0160 6946     		mov	r1, sp
 666 0162 3748     		ldr	r0, .L8
 667 0164 FFF7FEFF 		bl	chHeapStatus
 668              	.LVL55:
 669 0168 461E     		subs	r6, r0, #1
 670 016a 7142     		rsbs	r1, r6, #0
ARM GAS  /tmp/ccPQLUrc.s 			page 37


 671 016c 7141     		adcs	r1, r1, r6
 672 016e 0720     		movs	r0, #7
 673 0170 FFF7FEFF 		bl	_test_assert
 674              	.LVL56:
 675 0174 0028     		cmp	r0, #0
 676 0176 7FF458AF 		bne	.L1
 677              		.loc 1 123 0
 678 017a 1021     		movs	r1, #16
 679 017c 3048     		ldr	r0, .L8
 680 017e FFF7FEFF 		bl	chHeapAlloc
 681              	.LVL57:
 682              		.loc 1 124 0
 683 0182 1021     		movs	r1, #16
 684              		.loc 1 123 0
 685 0184 0546     		mov	r5, r0
 686              	.LVL58:
 687              		.loc 1 124 0
 688 0186 2E48     		ldr	r0, .L8
 689              	.LVL59:
 690 0188 FFF7FEFF 		bl	chHeapAlloc
 691              	.LVL60:
 692 018c 0446     		mov	r4, r0
 693              	.LVL61:
 694              		.loc 1 125 0
 695 018e 2846     		mov	r0, r5
 696              	.LVL62:
 697 0190 FFF7FEFF 		bl	chHeapFree
 698              	.LVL63:
 699              		.loc 1 126 0
 700 0194 6946     		mov	r1, sp
 701 0196 2A48     		ldr	r0, .L8
 702 0198 FFF7FEFF 		bl	chHeapStatus
 703              	.LVL64:
 704 019c 851E     		subs	r5, r0, #2
 705              	.LVL65:
 706 019e 6942     		rsbs	r1, r5, #0
 707 01a0 6941     		adcs	r1, r1, r5
 708 01a2 0820     		movs	r0, #8
 709 01a4 FFF7FEFF 		bl	_test_assert
 710              	.LVL66:
 711 01a8 0028     		cmp	r0, #0
 712 01aa 7FF43EAF 		bne	.L1
 713              		.loc 1 127 0
 714 01ae 2021     		movs	r1, #32
 715 01b0 2348     		ldr	r0, .L8
 716 01b2 FFF7FEFF 		bl	chHeapAlloc
 717              	.LVL67:
 718              		.loc 1 128 0
 719 01b6 FFF7FEFF 		bl	chHeapFree
 720              	.LVL68:
 721              		.loc 1 129 0
 722 01ba 2046     		mov	r0, r4
 723 01bc FFF7FEFF 		bl	chHeapFree
 724              	.LVL69:
 725              		.loc 1 130 0
 726 01c0 6946     		mov	r1, sp
 727 01c2 1F48     		ldr	r0, .L8
ARM GAS  /tmp/ccPQLUrc.s 			page 38


 728 01c4 FFF7FEFF 		bl	chHeapStatus
 729              	.LVL70:
 730 01c8 0138     		subs	r0, r0, #1
 731 01ca 4142     		rsbs	r1, r0, #0
 732 01cc 4141     		adcs	r1, r1, r0
 733 01ce 0920     		movs	r0, #9
 734 01d0 FFF7FEFF 		bl	_test_assert
 735              	.LVL71:
 736 01d4 0028     		cmp	r0, #0
 737 01d6 7FF428AF 		bne	.L1
 738              		.loc 1 133 0
 739 01da 6946     		mov	r1, sp
 740 01dc 1848     		ldr	r0, .L8
 741 01de FFF7FEFF 		bl	chHeapStatus
 742              	.LVL72:
 743              		.loc 1 134 0
 744 01e2 0099     		ldr	r1, [sp]
 745 01e4 1648     		ldr	r0, .L8
 746 01e6 FFF7FEFF 		bl	chHeapAlloc
 747              	.LVL73:
 748              		.loc 1 135 0
 749 01ea 6946     		mov	r1, sp
 750              		.loc 1 134 0
 751 01ec 0446     		mov	r4, r0
 752              	.LVL74:
 753              		.loc 1 135 0
 754 01ee 1448     		ldr	r0, .L8
 755              	.LVL75:
 756 01f0 FFF7FEFF 		bl	chHeapStatus
 757              	.LVL76:
 758 01f4 D0F10101 		rsbs	r1, r0, #1
 759 01f8 38BF     		it	cc
 760 01fa 0021     		movcc	r1, #0
 761 01fc 0A20     		movs	r0, #10
 762 01fe FFF7FEFF 		bl	_test_assert
 763              	.LVL77:
 764 0202 0028     		cmp	r0, #0
 765 0204 7FF411AF 		bne	.L1
 766              		.loc 1 136 0
 767 0208 2046     		mov	r0, r4
 768 020a FFF7FEFF 		bl	chHeapFree
 769              	.LVL78:
 770              		.loc 1 138 0
 771 020e 6946     		mov	r1, sp
 772 0210 0B48     		ldr	r0, .L8
 773 0212 FFF7FEFF 		bl	chHeapStatus
 774              	.LVL79:
 775 0216 421E     		subs	r2, r0, #1
 776 0218 5142     		rsbs	r1, r2, #0
 777 021a 5141     		adcs	r1, r1, r2
 778 021c 0B20     		movs	r0, #11
 779 021e FFF7FEFF 		bl	_test_assert
 780              	.LVL80:
 781 0222 0028     		cmp	r0, #0
 782 0224 7FF401AF 		bne	.L1
 783              		.loc 1 139 0
 784 0228 9DE80A00 		ldmia	sp, {r1, r3}
ARM GAS  /tmp/ccPQLUrc.s 			page 39


 785 022c CB1A     		subs	r3, r1, r3
 786 022e 5942     		rsbs	r1, r3, #0
 787 0230 5941     		adcs	r1, r1, r3
 788 0232 0C20     		movs	r0, #12
 789 0234 FFF7FEFF 		bl	_test_assert
 790              	.LVL81:
 791 0238 F7E6     		b	.L1
 792              	.LVL82:
 793              	.L5:
 794 023a 0146     		mov	r1, r0
 795 023c 84E7     		b	.L3
 796              	.L9:
 797 023e 00BF     		.align	2
 798              	.L8:
 799 0240 00000000 		.word	.LANCHOR0
 800              		.cfi_endproc
 801              	.LFE242:
 802              		.size	heap1_execute, .-heap1_execute
 803 0244 AFF30080 		.section	.text.heap1_setup,"ax",%progbits
 803      AFF30080 
 803      AFF30080 
 804              		.align	2
 805              		.p2align 4,,15
 806              		.thumb
 807              		.thumb_func
 808              		.type	heap1_setup, %function
 809              	heap1_setup:
 810              	.LFB241:
 811              		.loc 1 64 0
 812              		.cfi_startproc
 813              		@ args = 0, pretend = 0, frame = 0
 814              		@ frame_needed = 0, uses_anonymous_args = 0
 815              		@ link register save eliminated.
 816              		.loc 1 66 0
 817 0000 0248     		ldr	r0, .L11
 818 0002 0349     		ldr	r1, .L11+4
 819 0004 4FF4CD62 		mov	r2, #1640
 820 0008 FFF7FEBF 		b	chHeapObjectInit
 821              	.LVL83:
 822              	.L12:
 823              		.align	2
 824              	.L11:
 825 000c 00000000 		.word	.LANCHOR0
 826 0010 00000000 		.word	test
 827              		.cfi_endproc
 828              	.LFE241:
 829              		.size	heap1_setup, .-heap1_setup
 830              		.global	patternheap
 831              		.global	testheap1
 832 0014 AFF30080 		.section	.rodata.patternheap,"a",%progbits
 832      AFF30080 
 832      AFF30080 
 833              		.align	2
 834              		.type	patternheap, %object
 835              		.size	patternheap, 8
 836              	patternheap:
 837 0000 00000000 		.word	testheap1
ARM GAS  /tmp/ccPQLUrc.s 			page 40


 838 0004 00000000 		.word	0
 839              		.section	.rodata.str1.4,"aMS",%progbits,1
 840              		.align	2
 841              	.LC0:
 842 0000 48656170 		.ascii	"Heap, allocation and fragmentation test\000"
 842      2C20616C 
 842      6C6F6361 
 842      74696F6E 
 842      20616E64 
 843              		.section	.rodata.testheap1,"a",%progbits
 844              		.align	2
 845              		.type	testheap1, %object
 846              		.size	testheap1, 16
 847              	testheap1:
 848 0000 00000000 		.word	.LC0
 849 0004 00000000 		.word	heap1_setup
 850 0008 00000000 		.word	0
 851 000c 00000000 		.word	heap1_execute
 852              		.section	.bss.test_heap,"aw",%nobits
 853              		.align	3
 854              		.set	.LANCHOR0,. + 0
 855              		.type	test_heap, %object
 856              		.size	test_heap, 32
 857              	test_heap:
 858 0000 00000000 		.space	32
 858      00000000 
 858      00000000 
 858      00000000 
 858      00000000 
 859              		.text
 860              	.Letext0:
 861              		.file 2 "/nfs/nfs5/home/research/hardware/arm2/gcc-arm-embedded/gcc-arm-none-eabi-4_8-2014q2/lib/g
 862              		.file 3 "/nfs/nfs5/home/research/hardware/arm2/gcc-arm-embedded/gcc-arm-none-eabi-4_8-2014q2/arm-n
 863              		.file 4 "/nfs/nfs5/home/research/hardware/arm2/gcc-arm-embedded/gcc-arm-none-eabi-4_8-2014q2/arm-n
 864              		.file 5 "../ChibiOS/os/rt/ports/ARMCMx/compilers/GCC/chtypes.h"
 865              		.file 6 "../ChibiOS/os/rt/include/chsystypes.h"
 866              		.file 7 "../ChibiOS/os/rt/include/chschd.h"
 867              		.file 8 "../ChibiOS/os/rt/ports/ARMCMx/chcore.h"
 868              		.file 9 "../ChibiOS/os/rt/ports/ARMCMx/chcore_v7m.h"
 869              		.file 10 "../ChibiOS/os/rt/include/chtm.h"
 870              		.file 11 "../ChibiOS/os/rt/include/chsem.h"
 871              		.file 12 "../ChibiOS/os/rt/include/chmtx.h"
 872              		.file 13 "../ChibiOS/os/rt/include/chmemcore.h"
 873              		.file 14 "../ChibiOS/os/rt/include/chheap.h"
 874              		.file 15 "../ChibiOS/test/rt/test.h"
 875              		.file 16 "../ChibiOS/os/ext/CMSIS/include/core_cm4.h"