ARM GAS  /tmp/ccBCm3Tg.s 			page 1


   1              		.syntax unified
   2              		.cpu cortex-m4
   3              		.fpu softvfp
   4              		.eabi_attribute 20, 1
   5              		.eabi_attribute 21, 1
   6              		.eabi_attribute 23, 3
   7              		.eabi_attribute 24, 1
   8              		.eabi_attribute 25, 1
   9              		.eabi_attribute 26, 1
  10              		.eabi_attribute 30, 2
  11              		.eabi_attribute 34, 1
  12              		.eabi_attribute 18, 4
  13              		.thumb
  14              		.file	"adc_lld.c"
  15              		.text
  16              	.Ltext0:
  17              		.cfi_sections	.debug_frame
  18              		.section	.text.adc_lld_init,"ax",%progbits
  19              		.align	2
  20              		.p2align 4,,15
  21              		.global	adc_lld_init
  22              		.thumb
  23              		.thumb_func
  24              		.type	adc_lld_init, %function
  25              	adc_lld_init:
  26              	.LFB281:
  27              		.file 1 "../ChibiOS/os/hal/ports/STM32/LLD/ADCv3/adc_lld.c"
  28              		.loc 1 429 0
  29              		.cfi_startproc
  30              		@ args = 0, pretend = 0, frame = 0
  31              		@ frame_needed = 0, uses_anonymous_args = 0
  32 0000 70B5     		push	{r4, r5, r6, lr}
  33              		.cfi_def_cfa_offset 16
  34              		.cfi_offset 4, -16
  35              		.cfi_offset 5, -12
  36              		.cfi_offset 6, -8
  37              		.cfi_offset 14, -4
  38              		.loc 1 435 0
  39 0002 134C     		ldr	r4, .L2
  40              		.loc 1 431 0
  41 0004 134B     		ldr	r3, .L2+4
  42              		.loc 1 437 0
  43 0006 144D     		ldr	r5, .L2+8
  44              		.loc 1 435 0
  45 0008 2046     		mov	r0, r4
  46              		.loc 1 431 0
  47 000a 0026     		movs	r6, #0
  48 000c 1E60     		str	r6, [r3]
  49              		.loc 1 435 0
  50 000e FFF7FEFF 		bl	adcObjectInit
  51              	.LVL0:
  52              		.loc 1 443 0
  53 0012 4FF0A043 		mov	r3, #1342177280
  54              		.loc 1 447 0
  55 0016 114A     		ldr	r2, .L2+12
  56              		.loc 1 443 0
  57 0018 A362     		str	r3, [r4, #40]
ARM GAS  /tmp/ccBCm3Tg.s 			page 2


  58              		.loc 1 509 0
  59 001a 0521     		movs	r1, #5
  60              		.loc 1 448 0
  61 001c 42F28A53 		movw	r3, #9610
  62              		.loc 1 509 0
  63 0020 1220     		movs	r0, #18
  64              		.loc 1 447 0
  65 0022 2263     		str	r2, [r4, #48]
  66              		.loc 1 448 0
  67 0024 6363     		str	r3, [r4, #52]
  68              		.loc 1 437 0
  69 0026 E562     		str	r5, [r4, #44]
  70              		.loc 1 509 0
  71 0028 FFF7FEFF 		bl	nvicEnableVector
  72              	.LVL1:
  73              		.loc 1 524 0
  74 002c 0C4B     		ldr	r3, .L2+16
  75 002e 5A69     		ldr	r2, [r3, #20]
  76 0030 42F08052 		orr	r2, r2, #268435456
  77 0034 5A61     		str	r2, [r3, #20]
  78              		.loc 1 525 0
  79 0036 996A     		ldr	r1, [r3, #40]
  80              		.loc 1 526 0
  81 0038 4FF48032 		mov	r2, #65536
  82              		.loc 1 525 0
  83 003c 41F08051 		orr	r1, r1, #268435456
  84 0040 9962     		str	r1, [r3, #40]
  85 0042 9E62     		str	r6, [r3, #40]
  86              		.loc 1 526 0
  87 0044 AA60     		str	r2, [r5, #8]
  88              		.loc 1 527 0
  89 0046 5A69     		ldr	r2, [r3, #20]
  90 0048 22F08052 		bic	r2, r2, #268435456
  91 004c 5A61     		str	r2, [r3, #20]
  92 004e 70BD     		pop	{r4, r5, r6, pc}
  93              	.L3:
  94              		.align	2
  95              	.L2:
  96 0050 00000000 		.word	.LANCHOR1
  97 0054 00000000 		.word	.LANCHOR0
  98 0058 00030050 		.word	1342178048
  99 005c 00000000 		.word	_stm32_dma_streams
 100 0060 00100240 		.word	1073876992
 101              		.cfi_endproc
 102              	.LFE281:
 103              		.size	adc_lld_init, .-adc_lld_init
 104 0064 AFF30080 		.section	.text.adc_lld_start,"ax",%progbits
 104      AFF30080 
 104      AFF30080 
 105              		.align	2
 106              		.p2align 4,,15
 107              		.global	adc_lld_start
 108              		.thumb
 109              		.thumb_func
 110              		.type	adc_lld_start, %function
 111              	adc_lld_start:
 112              	.LFB282:
ARM GAS  /tmp/ccBCm3Tg.s 			page 3


 113              		.loc 1 552 0
 114              		.cfi_startproc
 115              		@ args = 0, pretend = 0, frame = 0
 116              		@ frame_needed = 0, uses_anonymous_args = 0
 117              	.LVL2:
 118              		.loc 1 555 0
 119 0000 4368     		ldr	r3, [r0, #4]
 120              		.loc 1 552 0
 121 0002 70B5     		push	{r4, r5, r6, lr}
 122              		.cfi_def_cfa_offset 16
 123              		.cfi_offset 4, -16
 124              		.cfi_offset 5, -12
 125              		.cfi_offset 6, -8
 126              		.cfi_offset 14, -4
 127              		.loc 1 552 0
 128 0004 0446     		mov	r4, r0
 129              		.loc 1 555 0
 130 0006 4BB3     		cbz	r3, .L13
 131              	.L5:
 132              		.loc 1 560 0
 133 0008 2378     		ldrb	r3, [r4]	@ zero_extendqisi2
 134 000a 012B     		cmp	r3, #1
 135 000c 00D0     		beq	.L14
 136 000e 70BD     		pop	{r4, r5, r6, pc}
 137              	.L14:
 138              		.loc 1 562 0
 139 0010 1C4B     		ldr	r3, .L16
 140 0012 9C42     		cmp	r4, r3
 141 0014 25D0     		beq	.L15
 142              	.LVL3:
 143              	.L7:
 144              		.loc 1 641 0
 145 0016 216B     		ldr	r1, [r4, #48]
 146 0018 A36A     		ldr	r3, [r4, #40]
 147              		.loc 1 649 0
 148 001a 6268     		ldr	r2, [r4, #4]
 149              		.loc 1 641 0
 150 001c 4868     		ldr	r0, [r1, #4]
 151              		.loc 1 649 0
 152 001e 1568     		ldr	r5, [r2]
 153              		.loc 1 641 0
 154 0020 03F14006 		add	r6, r3, #64
 155              	.LBB210:
 156              	.LBB211:
 157              		.loc 1 117 0
 158 0024 4FF08052 		mov	r2, #268435456
 159              		.loc 1 116 0
 160 0028 0021     		movs	r1, #0
 161              	.LBE211:
 162              	.LBE210:
 163              		.loc 1 641 0
 164 002a 8660     		str	r6, [r0, #8]
 165              		.loc 1 649 0
 166 002c C3F8B050 		str	r5, [r3, #176]
 167              	.LVL4:
 168              	.LBB217:
 169              	.LBB216:
ARM GAS  /tmp/ccBCm3Tg.s 			page 4


 170              	.LBB212:
 171              	.LBB213:
 172              		.file 2 "../ChibiOS/os/hal/osal/rt/osal.h"
 173              		.loc 2 573 0
 174 0030 4FF43470 		mov	r0, #720
 175              	.LBE213:
 176              	.LBE212:
 177              		.loc 1 116 0
 178 0034 9960     		str	r1, [r3, #8]
 179              		.loc 1 117 0
 180 0036 9A60     		str	r2, [r3, #8]
 181              	.LVL5:
 182              	.LBB215:
 183              	.LBB214:
 184              		.loc 2 573 0
 185 0038 FFF7FEFF 		bl	chSysPolledDelayX
 186              	.LVL6:
 187              	.LBE214:
 188              	.LBE215:
 189              	.LBE216:
 190              	.LBE217:
 191              		.loc 1 552 0
 192 003c A36A     		ldr	r3, [r4, #40]
 193              	.LVL7:
 194              	.LBB218:
 195              	.LBB219:
 196              		.loc 1 216 0
 197 003e 9A68     		ldr	r2, [r3, #8]
 198 0040 42F00042 		orr	r2, r2, #-2147483648
 199 0044 9A60     		str	r2, [r3, #8]
 200              	.L9:
 201              		.loc 1 217 0
 202 0046 9A68     		ldr	r2, [r3, #8]
 203 0048 002A     		cmp	r2, #0
 204 004a FCDB     		blt	.L9
 205              	.LVL8:
 206              	.LBE219:
 207              	.LBE218:
 208              	.LBB220:
 209              	.LBB221:
 210              		.loc 1 168 0
 211 004c 9A68     		ldr	r2, [r3, #8]
 212 004e 42F00102 		orr	r2, r2, #1
 213 0052 9A60     		str	r2, [r3, #8]
 214              	.L11:
 215              		.loc 1 169 0
 216 0054 1A68     		ldr	r2, [r3]
 217 0056 D207     		lsls	r2, r2, #31
 218 0058 FCD5     		bpl	.L11
 219 005a 70BD     		pop	{r4, r5, r6, pc}
 220              	.LVL9:
 221              	.L13:
 222              	.LBE221:
 223              	.LBE220:
 224              		.loc 1 556 0
 225 005c 0A4B     		ldr	r3, .L16+4
 226 005e 4360     		str	r3, [r0, #4]
ARM GAS  /tmp/ccBCm3Tg.s 			page 5


 227 0060 D2E7     		b	.L5
 228              	.L15:
 229              	.LBB222:
 230              		.loc 1 564 0
 231 0062 0A4A     		ldr	r2, .L16+8
 232 0064 206B     		ldr	r0, [r4, #48]
 233              	.LVL10:
 234 0066 0521     		movs	r1, #5
 235 0068 2346     		mov	r3, r4
 236 006a FFF7FEFF 		bl	dmaStreamAllocate
 237              	.LVL11:
 238              		.loc 1 570 0
 239 006e 084A     		ldr	r2, .L16+12
 240              		.loc 1 572 0
 241 0070 084B     		ldr	r3, .L16+16
 242              		.loc 1 570 0
 243 0072 1168     		ldr	r1, [r2]
 244 0074 41F00101 		orr	r1, r1, #1
 245 0078 1160     		str	r1, [r2]
 246              		.loc 1 572 0
 247 007a 5A69     		ldr	r2, [r3, #20]
 248 007c 42F08052 		orr	r2, r2, #268435456
 249 0080 5A61     		str	r2, [r3, #20]
 250 0082 C8E7     		b	.L7
 251              	.L17:
 252              		.align	2
 253              	.L16:
 254 0084 00000000 		.word	.LANCHOR1
 255 0088 00000000 		.word	.LANCHOR2
 256 008c 00000000 		.word	adc_lld_serve_dma_interrupt
 257 0090 00000000 		.word	.LANCHOR0
 258 0094 00100240 		.word	1073876992
 259              	.LBE222:
 260              		.cfi_endproc
 261              	.LFE282:
 262              		.size	adc_lld_start, .-adc_lld_start
 263 0098 AFF30080 		.section	.text.adc_lld_stop,"ax",%progbits
 263      AFF30080 
 264              		.align	2
 265              		.p2align 4,,15
 266              		.global	adc_lld_stop
 267              		.thumb
 268              		.thumb_func
 269              		.type	adc_lld_stop, %function
 270              	adc_lld_stop:
 271              	.LFB283:
 272              		.loc 1 668 0
 273              		.cfi_startproc
 274              		@ args = 0, pretend = 0, frame = 0
 275              		@ frame_needed = 0, uses_anonymous_args = 0
 276              	.LVL12:
 277              		.loc 1 671 0
 278 0000 0378     		ldrb	r3, [r0]	@ zero_extendqisi2
 279 0002 022B     		cmp	r3, #2
 280              		.loc 1 668 0
 281 0004 10B5     		push	{r4, lr}
 282              		.cfi_def_cfa_offset 8
ARM GAS  /tmp/ccBCm3Tg.s 			page 6


 283              		.cfi_offset 4, -8
 284              		.cfi_offset 14, -4
 285              		.loc 1 668 0
 286 0006 0446     		mov	r4, r0
 287              		.loc 1 671 0
 288 0008 00D0     		beq	.L33
 289              	.LVL13:
 290              	.L18:
 291 000a 10BD     		pop	{r4, pc}
 292              	.LVL14:
 293              	.L33:
 294              		.loc 1 674 0
 295 000c 006B     		ldr	r0, [r0, #48]
 296              	.LVL15:
 297 000e FFF7FEFF 		bl	dmaStreamRelease
 298              	.LVL16:
 299              		.loc 1 668 0
 300 0012 A26A     		ldr	r2, [r4, #40]
 301              	.LVL17:
 302              	.LBB223:
 303              	.LBB224:
 304              		.loc 1 248 0
 305 0014 9368     		ldr	r3, [r2, #8]
 306 0016 5807     		lsls	r0, r3, #29
 307 0018 06D5     		bpl	.L23
 308              		.loc 1 249 0
 309 001a 9368     		ldr	r3, [r2, #8]
 310 001c 43F01003 		orr	r3, r3, #16
 311 0020 9360     		str	r3, [r2, #8]
 312              	.L24:
 313              		.loc 1 250 0
 314 0022 9368     		ldr	r3, [r2, #8]
 315 0024 D906     		lsls	r1, r3, #27
 316 0026 FCD4     		bmi	.L24
 317              	.L23:
 318              	.LVL18:
 319              	.LBE224:
 320              	.LBE223:
 321              	.LBB225:
 322              	.LBB226:
 323              		.loc 1 197 0
 324 0028 9368     		ldr	r3, [r2, #8]
 325 002a 43F00203 		orr	r3, r3, #2
 326 002e 9360     		str	r3, [r2, #8]
 327              	.L22:
 328              		.loc 1 198 0
 329 0030 9368     		ldr	r3, [r2, #8]
 330 0032 13F00203 		ands	r3, r3, #2
 331 0036 FBD1     		bne	.L22
 332              	.LVL19:
 333              	.LBE226:
 334              	.LBE225:
 335              		.loc 1 689 0
 336 0038 1149     		ldr	r1, .L34
 337              	.LBB227:
 338              	.LBB228:
 339              		.loc 1 142 0
ARM GAS  /tmp/ccBCm3Tg.s 			page 7


 340 003a 9360     		str	r3, [r2, #8]
 341              	.LBE228:
 342              	.LBE227:
 343              		.loc 1 689 0
 344 003c 8C42     		cmp	r4, r1
 345              	.LBB230:
 346              	.LBB229:
 347              		.loc 1 143 0
 348 003e 4FF00053 		mov	r3, #536870912
 349 0042 9360     		str	r3, [r2, #8]
 350              	.LBE229:
 351              	.LBE230:
 352              		.loc 1 689 0
 353 0044 11D0     		beq	.L26
 354 0046 0F4B     		ldr	r3, .L34+4
 355 0048 1B68     		ldr	r3, [r3]
 356              	.L27:
 357              		.loc 1 729 0
 358 004a 9A07     		lsls	r2, r3, #30
 359 004c 04D1     		bne	.L28
 360              		.loc 1 730 0
 361 004e 0E4A     		ldr	r2, .L34+8
 362 0050 5169     		ldr	r1, [r2, #20]
 363 0052 21F08051 		bic	r1, r1, #268435456
 364 0056 5161     		str	r1, [r2, #20]
 365              	.L28:
 366              		.loc 1 732 0
 367 0058 13F00C0F 		tst	r3, #12
 368 005c D5D1     		bne	.L18
 369              		.loc 1 733 0
 370 005e 0A4B     		ldr	r3, .L34+8
 371 0060 5A69     		ldr	r2, [r3, #20]
 372 0062 22F00052 		bic	r2, r2, #536870912
 373 0066 5A61     		str	r2, [r3, #20]
 374 0068 10BD     		pop	{r4, pc}
 375              	.LVL20:
 376              	.L26:
 377              		.loc 1 694 0
 378 006a 064A     		ldr	r2, .L34+4
 379              		.loc 1 692 0
 380 006c E16A     		ldr	r1, [r4, #44]
 381              		.loc 1 694 0
 382 006e 1368     		ldr	r3, [r2]
 383              		.loc 1 692 0
 384 0070 4FF48030 		mov	r0, #65536
 385              		.loc 1 694 0
 386 0074 23F00103 		bic	r3, r3, #1
 387              		.loc 1 692 0
 388 0078 8860     		str	r0, [r1, #8]
 389              		.loc 1 694 0
 390 007a 1360     		str	r3, [r2]
 391 007c E5E7     		b	.L27
 392              	.L35:
 393 007e 00BF     		.align	2
 394              	.L34:
 395 0080 00000000 		.word	.LANCHOR1
 396 0084 00000000 		.word	.LANCHOR0
ARM GAS  /tmp/ccBCm3Tg.s 			page 8


 397 0088 00100240 		.word	1073876992
 398              		.cfi_endproc
 399              	.LFE283:
 400              		.size	adc_lld_stop, .-adc_lld_stop
 401 008c AFF30080 		.section	.text.adc_lld_start_conversion,"ax",%progbits
 402              		.align	2
 403              		.p2align 4,,15
 404              		.global	adc_lld_start_conversion
 405              		.thumb
 406              		.thumb_func
 407              		.type	adc_lld_start_conversion, %function
 408              	adc_lld_start_conversion:
 409              	.LFB284:
 410              		.loc 1 752 0
 411              		.cfi_startproc
 412              		@ args = 0, pretend = 0, frame = 0
 413              		@ frame_needed = 0, uses_anonymous_args = 0
 414              		@ link register save eliminated.
 415              	.LVL21:
 416              		.loc 1 754 0
 417 0000 0269     		ldr	r2, [r0, #16]
 418              	.LVL22:
 419              		.loc 1 763 0
 420 0002 436B     		ldr	r3, [r0, #52]
 421              	.LVL23:
 422              		.loc 1 765 0
 423 0004 1178     		ldrb	r1, [r2]	@ zero_extendqisi2
 424              		.loc 1 752 0
 425 0006 2DE9F007 		push	{r4, r5, r6, r7, r8, r9, r10}
 426              		.cfi_def_cfa_offset 28
 427              		.cfi_offset 4, -28
 428              		.cfi_offset 5, -24
 429              		.cfi_offset 6, -20
 430              		.cfi_offset 7, -16
 431              		.cfi_offset 8, -12
 432              		.cfi_offset 9, -8
 433              		.cfi_offset 10, -4
 434              		.loc 1 764 0
 435 000a D768     		ldr	r7, [r2, #12]
 436              	.LVL24:
 437              		.loc 1 765 0
 438 000c 0029     		cmp	r1, #0
 439 000e 3AD0     		beq	.L40
 440              	.LVL25:
 441              		.loc 1 772 0
 442 0010 C568     		ldr	r5, [r0, #12]
 443 0012 012D     		cmp	r5, #1
 444              		.loc 1 770 0
 445 0014 47F00307 		orr	r7, r7, #3
 446              	.LVL26:
 447              		.loc 1 766 0
 448 0018 94BF     		ite	ls
 449 001a 43F02003 		orrls	r3, r3, #32
 450              	.LVL27:
 451              		.loc 1 775 0
 452 001e 43F02403 		orrhi	r3, r3, #36
 453              	.LVL28:
ARM GAS  /tmp/ccBCm3Tg.s 			page 9


 454              	.L38:
 455              		.loc 1 780 0
 456 0022 016B     		ldr	r1, [r0, #48]
 457              		.loc 1 785 0
 458 0024 5488     		ldrh	r4, [r2, #2]
 459              		.loc 1 780 0
 460 0026 4968     		ldr	r1, [r1, #4]
 461 0028 8668     		ldr	r6, [r0, #8]
 462 002a CE60     		str	r6, [r1, #12]
 463              		.loc 1 785 0
 464 002c 04FB05F5 		mul	r5, r4, r5
 465 0030 4D60     		str	r5, [r1, #4]
 466              		.loc 1 788 0
 467 0032 0B60     		str	r3, [r1]
 468              		.loc 1 789 0
 469 0034 D1F80090 		ldr	r9, [r1]
 470              		.loc 1 793 0
 471 0038 836A     		ldr	r3, [r0, #40]
 472              	.LVL29:
 473              		.loc 1 820 0
 474 003a D2F81CA0 		ldr	r10, [r2, #28]
 475              		.loc 1 795 0
 476 003e D2F81080 		ldr	r8, [r2, #16]
 477              		.loc 1 819 0
 478 0042 9669     		ldr	r6, [r2, #24]
 479              		.loc 1 821 0
 480 0044 156A     		ldr	r5, [r2, #32]
 481              		.loc 1 818 0
 482 0046 D2F814C0 		ldr	ip, [r2, #20]
 483              		.loc 1 822 0
 484 004a 506A     		ldr	r0, [r2, #36]
 485              	.LVL30:
 486              		.loc 1 823 0
 487 004c 926A     		ldr	r2, [r2, #40]
 488              	.LVL31:
 489              		.loc 1 789 0
 490 004e 49F00109 		orr	r9, r9, #1
 491 0052 C1F80090 		str	r9, [r1]
 492              	.LVL32:
 493              		.loc 1 793 0
 494 0056 1968     		ldr	r1, [r3]
 495 0058 1960     		str	r1, [r3]
 496              		.loc 1 820 0
 497 005a 013C     		subs	r4, r4, #1
 498 005c 44EA0A04 		orr	r4, r4, r10
 499              		.loc 1 794 0
 500 0060 9021     		movs	r1, #144
 501 0062 5960     		str	r1, [r3, #4]
 502              		.loc 1 795 0
 503 0064 C3F82080 		str	r8, [r3, #32]
 504              		.loc 1 818 0
 505 0068 C3F814C0 		str	ip, [r3, #20]
 506              		.loc 1 819 0
 507 006c 9E61     		str	r6, [r3, #24]
 508              		.loc 1 820 0
 509 006e 1C63     		str	r4, [r3, #48]
 510              		.loc 1 821 0
ARM GAS  /tmp/ccBCm3Tg.s 			page 10


 511 0070 5D63     		str	r5, [r3, #52]
 512              		.loc 1 822 0
 513 0072 9863     		str	r0, [r3, #56]
 514              		.loc 1 823 0
 515 0074 DA63     		str	r2, [r3, #60]
 516              		.loc 1 827 0
 517 0076 DF60     		str	r7, [r3, #12]
 518              		.loc 1 830 0
 519 0078 9A68     		ldr	r2, [r3, #8]
 520 007a 42F00402 		orr	r2, r2, #4
 521 007e 9A60     		str	r2, [r3, #8]
 522              		.loc 1 831 0
 523 0080 BDE8F007 		pop	{r4, r5, r6, r7, r8, r9, r10}
 524              	.LVL33:
 525 0084 7047     		bx	lr
 526              	.LVL34:
 527              	.L40:
 528              		.loc 1 764 0
 529 0086 47F00107 		orr	r7, r7, #1
 530              	.LVL35:
 531 008a C568     		ldr	r5, [r0, #12]
 532 008c C9E7     		b	.L38
 533              		.cfi_endproc
 534              	.LFE284:
 535              		.size	adc_lld_start_conversion, .-adc_lld_start_conversion
 536 008e 00BF     		.section	.text.adc_lld_stop_conversion,"ax",%progbits
 537              		.align	2
 538              		.p2align 4,,15
 539              		.global	adc_lld_stop_conversion
 540              		.thumb
 541              		.thumb_func
 542              		.type	adc_lld_stop_conversion, %function
 543              	adc_lld_stop_conversion:
 544              	.LFB285:
 545              		.loc 1 840 0
 546              		.cfi_startproc
 547              		@ args = 0, pretend = 0, frame = 0
 548              		@ frame_needed = 0, uses_anonymous_args = 0
 549              		@ link register save eliminated.
 550              	.LVL36:
 551              		.loc 1 842 0
 552 0000 036B     		ldr	r3, [r0, #48]
 553              		.loc 1 840 0
 554 0002 826A     		ldr	r2, [r0, #40]
 555              	.LVL37:
 556              		.loc 1 842 0
 557 0004 93E80300 		ldmia	r3, {r0, r1}
 558              	.LVL38:
 559              		.loc 1 840 0
 560 0008 30B4     		push	{r4, r5}
 561              		.cfi_def_cfa_offset 8
 562              		.cfi_offset 4, -8
 563              		.cfi_offset 5, -4
 564              		.loc 1 842 0
 565 000a 0D68     		ldr	r5, [r1]
 566 000c 25F00F05 		bic	r5, r5, #15
 567 0010 0D60     		str	r5, [r1]
ARM GAS  /tmp/ccBCm3Tg.s 			page 11


 568 0012 1B7C     		ldrb	r3, [r3, #16]	@ zero_extendqisi2
 569 0014 0F24     		movs	r4, #15
 570 0016 04FA03F3 		lsl	r3, r4, r3
 571 001a 4360     		str	r3, [r0, #4]
 572              	.LBB231:
 573              	.LBB232:
 574              		.loc 1 248 0
 575 001c 9368     		ldr	r3, [r2, #8]
 576 001e 5907     		lsls	r1, r3, #29
 577 0020 06D5     		bpl	.L41
 578              		.loc 1 249 0
 579 0022 9368     		ldr	r3, [r2, #8]
 580 0024 43F01003 		orr	r3, r3, #16
 581 0028 9360     		str	r3, [r2, #8]
 582              	.L44:
 583              		.loc 1 250 0
 584 002a 9368     		ldr	r3, [r2, #8]
 585 002c DB06     		lsls	r3, r3, #27
 586 002e FCD4     		bmi	.L44
 587              	.L41:
 588              	.LBE232:
 589              	.LBE231:
 590              		.loc 1 844 0
 591 0030 30BC     		pop	{r4, r5}
 592 0032 7047     		bx	lr
 593              		.cfi_endproc
 594              	.LFE285:
 595              		.size	adc_lld_stop_conversion, .-adc_lld_stop_conversion
 596 0034 AFF30080 		.section	.text.adc_lld_serve_dma_interrupt,"ax",%progbits
 596      AFF30080 
 596      AFF30080 
 597              		.align	2
 598              		.p2align 4,,15
 599              		.thumb
 600              		.thumb_func
 601              		.type	adc_lld_serve_dma_interrupt, %function
 602              	adc_lld_serve_dma_interrupt:
 603              	.LFB278:
 604              		.loc 1 261 0
 605              		.cfi_startproc
 606              		@ args = 0, pretend = 0, frame = 0
 607              		@ frame_needed = 0, uses_anonymous_args = 0
 608              	.LVL39:
 609 0000 38B5     		push	{r3, r4, r5, lr}
 610              		.cfi_def_cfa_offset 16
 611              		.cfi_offset 3, -16
 612              		.cfi_offset 4, -12
 613              		.cfi_offset 5, -8
 614              		.cfi_offset 14, -4
 615              		.loc 1 264 0
 616 0002 0B07     		lsls	r3, r1, #28
 617              		.loc 1 261 0
 618 0004 0446     		mov	r4, r0
 619              		.loc 1 264 0
 620 0006 1DD4     		bmi	.L71
 621              		.loc 1 272 0
 622 0008 0369     		ldr	r3, [r0, #16]
ARM GAS  /tmp/ccBCm3Tg.s 			page 12


 623 000a D3B1     		cbz	r3, .L48
 624              		.loc 1 273 0
 625 000c 8D07     		lsls	r5, r1, #30
 626 000e 10D5     		bpl	.L54
 627              		.loc 1 275 0
 628 0010 1D78     		ldrb	r5, [r3]	@ zero_extendqisi2
 629 0012 002D     		cmp	r5, #0
 630 0014 36D0     		beq	.L55
 631              		.loc 1 275 0 is_stmt 0 discriminator 1
 632 0016 5D68     		ldr	r5, [r3, #4]
 633 0018 9DB1     		cbz	r5, .L48
 634 001a C268     		ldr	r2, [r0, #12]
 635 001c 012A     		cmp	r2, #1
 636 001e 2ED9     		bls	.L56
 637              	.LBB233:
 638 0020 5988     		ldrh	r1, [r3, #2]
 639              	.LVL40:
 640 0022 8368     		ldr	r3, [r0, #8]
 641 0024 5208     		lsrs	r2, r2, #1
 642              	.LVL41:
 643 0026 01FB02F1 		mul	r1, r1, r2
 644 002a 03EB4101 		add	r1, r3, r1, lsl #1
 645 002e A847     		blx	r5
 646              	.LVL42:
 647              	.LBE233:
 648 0030 38BD     		pop	{r3, r4, r5, pc}
 649              	.LVL43:
 650              	.L54:
 651              		.loc 1 277 0 is_stmt 1
 652 0032 4A07     		lsls	r2, r1, #29
 653 0034 05D5     		bpl	.L48
 654              		.loc 1 279 0
 655 0036 5B68     		ldr	r3, [r3, #4]
 656 0038 1BB1     		cbz	r3, .L48
 657              		.loc 1 279 0 is_stmt 0 discriminator 1
 658 003a C268     		ldr	r2, [r0, #12]
 659 003c 8168     		ldr	r1, [r0, #8]
 660              	.LVL44:
 661 003e 5208     		lsrs	r2, r2, #1
 662 0040 9847     		blx	r3
 663              	.LVL45:
 664              	.L48:
 665 0042 38BD     		pop	{r3, r4, r5, pc}
 666              	.LVL46:
 667              	.L71:
 668              		.loc 1 267 0 is_stmt 1
 669 0044 FFF7FEFF 		bl	adc_lld_stop_conversion
 670              	.LVL47:
 671 0048 2369     		ldr	r3, [r4, #16]
 672 004a 9B68     		ldr	r3, [r3, #8]
 673 004c 4BB1     		cbz	r3, .L51
 674              		.loc 1 267 0 is_stmt 0 discriminator 1
 675 004e 0522     		movs	r2, #5
 676 0050 2270     		strb	r2, [r4]
 677 0052 2046     		mov	r0, r4
 678 0054 0021     		movs	r1, #0
 679 0056 9847     		blx	r3
ARM GAS  /tmp/ccBCm3Tg.s 			page 13


 680              	.LVL48:
 681 0058 2378     		ldrb	r3, [r4]	@ zero_extendqisi2
 682 005a 052B     		cmp	r3, #5
 683 005c 04BF     		itt	eq
 684 005e 0223     		moveq	r3, #2
 685 0060 2370     		strbeq	r3, [r4]
 686              	.L51:
 687              		.loc 1 267 0 discriminator 2
 688 0062 0025     		movs	r5, #0
 689 0064 2561     		str	r5, [r4, #16]
 690              	.LVL49:
 691              	.LBB234:
 692              	.LBB235:
 693              	.LBB236:
 694              	.LBB237:
 695              	.LBB238:
 696              	.LBB239:
 697              		.file 3 "../ChibiOS/os/ext/CMSIS/include/core_cmFunc.h"
 698              		.loc 3 548 0 is_stmt 1 discriminator 2
 699 0066 2023     		movs	r3, #32
 700              	@ 548 "../ChibiOS/os/ext/CMSIS/include/core_cmFunc.h" 1
 701 0068 83F31188 		MSR basepri, r3
 702              	@ 0 "" 2
 703              	.LVL50:
 704              		.thumb
 705              	.LBE239:
 706              	.LBE238:
 707              	.LBE237:
 708              	.LBE236:
 709              	.LBE235:
 710              	.LBE234:
 711              	.LBB240:
 712              	.LBB241:
 713              		.loc 2 728 0 discriminator 2
 714 006c 4FF0FF31 		mov	r1, #-1
 715 0070 04F11400 		add	r0, r4, #20
 716              	.LVL51:
 717 0074 FFF7FEFF 		bl	chThdResumeI
 718              	.LVL52:
 719              	.LBE241:
 720              	.LBE240:
 721              	.LBB242:
 722              	.LBB243:
 723              	.LBB244:
 724              	.LBB245:
 725              	.LBB246:
 726              	.LBB247:
 727              		.loc 3 548 0 discriminator 2
 728              	@ 548 "../ChibiOS/os/ext/CMSIS/include/core_cmFunc.h" 1
 729 0078 85F31188 		MSR basepri, r5
 730              	@ 0 "" 2
 731              		.thumb
 732 007c 38BD     		pop	{r3, r4, r5, pc}
 733              	.LVL53:
 734              	.L56:
 735              	.LBE247:
 736              	.LBE246:
ARM GAS  /tmp/ccBCm3Tg.s 			page 14


 737              	.LBE245:
 738              	.LBE244:
 739              	.LBE243:
 740              	.LBE242:
 741              		.loc 1 275 0 discriminator 2
 742 007e 8168     		ldr	r1, [r0, #8]
 743              	.LVL54:
 744 0080 A847     		blx	r5
 745              	.LVL55:
 746 0082 38BD     		pop	{r3, r4, r5, pc}
 747              	.LVL56:
 748              	.L55:
 749 0084 FFF7FEFF 		bl	adc_lld_stop_conversion
 750              	.LVL57:
 751 0088 2369     		ldr	r3, [r4, #16]
 752 008a 5B68     		ldr	r3, [r3, #4]
 753 008c C3B1     		cbz	r3, .L57
 754              		.loc 1 275 0 is_stmt 0 discriminator 1
 755 008e 0422     		movs	r2, #4
 756 0090 2270     		strb	r2, [r4]
 757 0092 2046     		mov	r0, r4
 758 0094 A168     		ldr	r1, [r4, #8]
 759 0096 E268     		ldr	r2, [r4, #12]
 760 0098 9847     		blx	r3
 761              	.LVL58:
 762 009a 2378     		ldrb	r3, [r4]	@ zero_extendqisi2
 763 009c 042B     		cmp	r3, #4
 764 009e 0BD0     		beq	.L72
 765              	.L58:
 766              	.LVL59:
 767              	.LBB248:
 768              	.LBB249:
 769              	.LBB250:
 770              	.LBB251:
 771              	.LBB252:
 772              	.LBB253:
 773              		.loc 3 548 0 is_stmt 1 discriminator 1
 774 00a0 2023     		movs	r3, #32
 775              	@ 548 "../ChibiOS/os/ext/CMSIS/include/core_cmFunc.h" 1
 776 00a2 83F31188 		MSR basepri, r3
 777              	@ 0 "" 2
 778              	.LVL60:
 779              		.thumb
 780              	.LBE253:
 781              	.LBE252:
 782              	.LBE251:
 783              	.LBE250:
 784              	.LBE249:
 785              	.LBE248:
 786              	.LBB254:
 787              	.LBB255:
 788              		.loc 2 728 0 discriminator 1
 789 00a6 0021     		movs	r1, #0
 790 00a8 04F11400 		add	r0, r4, #20
 791              	.LVL61:
 792 00ac FFF7FEFF 		bl	chThdResumeI
 793              	.LVL62:
ARM GAS  /tmp/ccBCm3Tg.s 			page 15


 794              	.LBE255:
 795              	.LBE254:
 796              	.LBB256:
 797              	.LBB257:
 798              	.LBB258:
 799              	.LBB259:
 800              	.LBB260:
 801              	.LBB261:
 802              		.loc 3 548 0 discriminator 1
 803 00b0 0023     		movs	r3, #0
 804              	@ 548 "../ChibiOS/os/ext/CMSIS/include/core_cmFunc.h" 1
 805 00b2 83F31188 		MSR basepri, r3
 806              	@ 0 "" 2
 807              		.thumb
 808 00b6 38BD     		pop	{r3, r4, r5, pc}
 809              	.LVL63:
 810              	.L72:
 811              	.LBE261:
 812              	.LBE260:
 813              	.LBE259:
 814              	.LBE258:
 815              	.LBE257:
 816              	.LBE256:
 817              		.loc 1 275 0 discriminator 1
 818 00b8 0223     		movs	r3, #2
 819 00ba 2561     		str	r5, [r4, #16]
 820 00bc 2370     		strb	r3, [r4]
 821 00be EFE7     		b	.L58
 822              	.L57:
 823              		.loc 1 275 0 is_stmt 0 discriminator 2
 824 00c0 0222     		movs	r2, #2
 825 00c2 2361     		str	r3, [r4, #16]
 826 00c4 2270     		strb	r2, [r4]
 827 00c6 EBE7     		b	.L58
 828              		.cfi_endproc
 829              	.LFE278:
 830              		.size	adc_lld_serve_dma_interrupt, .-adc_lld_serve_dma_interrupt
 831 00c8 AFF30080 		.section	.text.Vector88,"ax",%progbits
 831      AFF30080 
 832              		.align	2
 833              		.p2align 4,,15
 834              		.global	Vector88
 835              		.thumb
 836              		.thumb_func
 837              		.type	Vector88, %function
 838              	Vector88:
 839              	.LFB280:
 840              		.loc 1 329 0 is_stmt 1
 841              		.cfi_startproc
 842              		@ args = 0, pretend = 0, frame = 0
 843              		@ frame_needed = 0, uses_anonymous_args = 0
 844 0000 70B5     		push	{r4, r5, r6, lr}
 845              		.cfi_def_cfa_offset 16
 846              		.cfi_offset 4, -16
 847              		.cfi_offset 5, -12
 848              		.cfi_offset 6, -8
 849              		.cfi_offset 14, -4
ARM GAS  /tmp/ccBCm3Tg.s 			page 16


 850              	.LBB320:
 851              	.LBB321:
 852              		.loc 1 295 0
 853 0002 4A4D     		ldr	r5, .L111
 854              	.LBE321:
 855              	.LBE320:
 856              		.loc 1 343 0
 857 0004 4FF0A043 		mov	r3, #1342177280
 858              	.LBB381:
 859              	.LBB378:
 860              		.loc 1 295 0
 861 0008 2A69     		ldr	r2, [r5, #16]
 862              	.LBE378:
 863              	.LBE381:
 864              		.loc 1 343 0
 865 000a 1C68     		ldr	r4, [r3]
 866              	.LVL64:
 867              		.loc 1 344 0
 868 000c 1C60     		str	r4, [r3]
 869              	.LVL65:
 870              	.LBB382:
 871              	.LBB379:
 872              		.loc 1 295 0
 873 000e 3AB1     		cbz	r2, .L75
 874              		.loc 1 298 0
 875 0010 E006     		lsls	r0, r4, #27
 876 0012 09D4     		bmi	.L107
 877              	.L76:
 878              		.loc 1 304 0
 879 0014 2106     		lsls	r1, r4, #24
 880 0016 2AD4     		bmi	.L108
 881              	.L80:
 882              		.loc 1 308 0
 883 0018 E205     		lsls	r2, r4, #23
 884 001a 47D4     		bmi	.L109
 885              	.L84:
 886              		.loc 1 312 0
 887 001c A305     		lsls	r3, r4, #22
 888 001e 64D4     		bmi	.L110
 889              	.L75:
 890              	.LBE379:
 891              	.LBE382:
 892              		.loc 1 357 0
 893 0020 BDE87040 		pop	{r4, r5, r6, lr}
 894              	.LVL66:
 895              		.loc 1 356 0
 896 0024 FFF7FEBF 		b	_port_irq_epilogue
 897              	.LVL67:
 898              	.L107:
 899              	.LBB383:
 900              	.LBB380:
 901              		.loc 1 299 0
 902 0028 2B6B     		ldr	r3, [r5, #48]
 903 002a 5B68     		ldr	r3, [r3, #4]
 904 002c 5B68     		ldr	r3, [r3, #4]
 905              		.loc 1 298 0
 906 002e 002B     		cmp	r3, #0
ARM GAS  /tmp/ccBCm3Tg.s 			page 17


 907 0030 F0D0     		beq	.L76
 908              		.loc 1 302 0
 909 0032 2846     		mov	r0, r5
 910 0034 FFF7FEFF 		bl	adc_lld_stop_conversion
 911              	.LVL68:
 912 0038 2B69     		ldr	r3, [r5, #16]
 913 003a 9B68     		ldr	r3, [r3, #8]
 914 003c 4BB1     		cbz	r3, .L78
 915 003e 0522     		movs	r2, #5
 916 0040 2A70     		strb	r2, [r5]
 917 0042 2846     		mov	r0, r5
 918 0044 0121     		movs	r1, #1
 919 0046 9847     		blx	r3
 920              	.LVL69:
 921 0048 2B78     		ldrb	r3, [r5]	@ zero_extendqisi2
 922 004a 052B     		cmp	r3, #5
 923 004c 04BF     		itt	eq
 924 004e 0223     		moveq	r3, #2
 925 0050 2B70     		strbeq	r3, [r5]
 926              	.L78:
 927 0052 0026     		movs	r6, #0
 928 0054 2E61     		str	r6, [r5, #16]
 929              	.LVL70:
 930              	.LBB322:
 931              	.LBB323:
 932              	.LBB324:
 933              	.LBB325:
 934              	.LBB326:
 935              	.LBB327:
 936              		.loc 3 548 0
 937 0056 2023     		movs	r3, #32
 938              	@ 548 "../ChibiOS/os/ext/CMSIS/include/core_cmFunc.h" 1
 939 0058 83F31188 		MSR basepri, r3
 940              	@ 0 "" 2
 941              	.LVL71:
 942              		.thumb
 943              	.LBE327:
 944              	.LBE326:
 945              	.LBE325:
 946              	.LBE324:
 947              	.LBE323:
 948              	.LBE322:
 949              	.LBB328:
 950              	.LBB329:
 951              		.loc 2 728 0
 952 005c 3448     		ldr	r0, .L111+4
 953 005e 4FF0FF31 		mov	r1, #-1
 954 0062 FFF7FEFF 		bl	chThdResumeI
 955              	.LVL72:
 956              	.LBE329:
 957              	.LBE328:
 958              	.LBB330:
 959              	.LBB331:
 960              	.LBB332:
 961              	.LBB333:
 962              	.LBB334:
 963              	.LBB335:
ARM GAS  /tmp/ccBCm3Tg.s 			page 18


 964              		.loc 3 548 0
 965              	@ 548 "../ChibiOS/os/ext/CMSIS/include/core_cmFunc.h" 1
 966 0066 86F31188 		MSR basepri, r6
 967              	@ 0 "" 2
 968              		.thumb
 969              	.LBE335:
 970              	.LBE334:
 971              	.LBE333:
 972              	.LBE332:
 973              	.LBE331:
 974              	.LBE330:
 975              		.loc 1 304 0
 976 006a 2106     		lsls	r1, r4, #24
 977 006c D4D5     		bpl	.L80
 978              	.LVL73:
 979              	.L108:
 980              		.loc 1 306 0
 981 006e 2F4E     		ldr	r6, .L111
 982 0070 3046     		mov	r0, r6
 983 0072 FFF7FEFF 		bl	adc_lld_stop_conversion
 984              	.LVL74:
 985 0076 2B69     		ldr	r3, [r5, #16]
 986 0078 9B68     		ldr	r3, [r3, #8]
 987 007a 4BB1     		cbz	r3, .L82
 988 007c 0522     		movs	r2, #5
 989 007e 3270     		strb	r2, [r6]
 990 0080 3046     		mov	r0, r6
 991 0082 0221     		movs	r1, #2
 992 0084 9847     		blx	r3
 993              	.LVL75:
 994 0086 3378     		ldrb	r3, [r6]	@ zero_extendqisi2
 995 0088 052B     		cmp	r3, #5
 996 008a 04BF     		itt	eq
 997 008c 0223     		moveq	r3, #2
 998 008e 3370     		strbeq	r3, [r6]
 999              	.L82:
 1000 0090 0026     		movs	r6, #0
 1001 0092 2E61     		str	r6, [r5, #16]
 1002              	.LVL76:
 1003              	.LBB336:
 1004              	.LBB337:
 1005              	.LBB338:
 1006              	.LBB339:
 1007              	.LBB340:
 1008              	.LBB341:
 1009              		.loc 3 548 0
 1010 0094 2023     		movs	r3, #32
 1011              	@ 548 "../ChibiOS/os/ext/CMSIS/include/core_cmFunc.h" 1
 1012 0096 83F31188 		MSR basepri, r3
 1013              	@ 0 "" 2
 1014              	.LVL77:
 1015              		.thumb
 1016              	.LBE341:
 1017              	.LBE340:
 1018              	.LBE339:
 1019              	.LBE338:
 1020              	.LBE337:
ARM GAS  /tmp/ccBCm3Tg.s 			page 19


 1021              	.LBE336:
 1022              	.LBB342:
 1023              	.LBB343:
 1024              		.loc 2 728 0
 1025 009a 2548     		ldr	r0, .L111+4
 1026 009c 4FF0FF31 		mov	r1, #-1
 1027 00a0 FFF7FEFF 		bl	chThdResumeI
 1028              	.LVL78:
 1029              	.LBE343:
 1030              	.LBE342:
 1031              	.LBB344:
 1032              	.LBB345:
 1033              	.LBB346:
 1034              	.LBB347:
 1035              	.LBB348:
 1036              	.LBB349:
 1037              		.loc 3 548 0
 1038              	@ 548 "../ChibiOS/os/ext/CMSIS/include/core_cmFunc.h" 1
 1039 00a4 86F31188 		MSR basepri, r6
 1040              	@ 0 "" 2
 1041              		.thumb
 1042              	.LBE349:
 1043              	.LBE348:
 1044              	.LBE347:
 1045              	.LBE346:
 1046              	.LBE345:
 1047              	.LBE344:
 1048              		.loc 1 308 0
 1049 00a8 E205     		lsls	r2, r4, #23
 1050 00aa B7D5     		bpl	.L84
 1051              	.LVL79:
 1052              	.L109:
 1053              		.loc 1 310 0
 1054 00ac 1F4E     		ldr	r6, .L111
 1055 00ae 3046     		mov	r0, r6
 1056 00b0 FFF7FEFF 		bl	adc_lld_stop_conversion
 1057              	.LVL80:
 1058 00b4 2B69     		ldr	r3, [r5, #16]
 1059 00b6 9B68     		ldr	r3, [r3, #8]
 1060 00b8 4BB1     		cbz	r3, .L86
 1061 00ba 0522     		movs	r2, #5
 1062 00bc 3270     		strb	r2, [r6]
 1063 00be 3046     		mov	r0, r6
 1064 00c0 0321     		movs	r1, #3
 1065 00c2 9847     		blx	r3
 1066              	.LVL81:
 1067 00c4 3378     		ldrb	r3, [r6]	@ zero_extendqisi2
 1068 00c6 052B     		cmp	r3, #5
 1069 00c8 04BF     		itt	eq
 1070 00ca 0223     		moveq	r3, #2
 1071 00cc 3370     		strbeq	r3, [r6]
 1072              	.L86:
 1073 00ce 0026     		movs	r6, #0
 1074 00d0 2E61     		str	r6, [r5, #16]
 1075              	.LVL82:
 1076              	.LBB350:
 1077              	.LBB351:
ARM GAS  /tmp/ccBCm3Tg.s 			page 20


 1078              	.LBB352:
 1079              	.LBB353:
 1080              	.LBB354:
 1081              	.LBB355:
 1082              		.loc 3 548 0
 1083 00d2 2023     		movs	r3, #32
 1084              	@ 548 "../ChibiOS/os/ext/CMSIS/include/core_cmFunc.h" 1
 1085 00d4 83F31188 		MSR basepri, r3
 1086              	@ 0 "" 2
 1087              	.LVL83:
 1088              		.thumb
 1089              	.LBE355:
 1090              	.LBE354:
 1091              	.LBE353:
 1092              	.LBE352:
 1093              	.LBE351:
 1094              	.LBE350:
 1095              	.LBB356:
 1096              	.LBB357:
 1097              		.loc 2 728 0
 1098 00d8 1548     		ldr	r0, .L111+4
 1099 00da 4FF0FF31 		mov	r1, #-1
 1100 00de FFF7FEFF 		bl	chThdResumeI
 1101              	.LVL84:
 1102              	.LBE357:
 1103              	.LBE356:
 1104              	.LBB358:
 1105              	.LBB359:
 1106              	.LBB360:
 1107              	.LBB361:
 1108              	.LBB362:
 1109              	.LBB363:
 1110              		.loc 3 548 0
 1111              	@ 548 "../ChibiOS/os/ext/CMSIS/include/core_cmFunc.h" 1
 1112 00e2 86F31188 		MSR basepri, r6
 1113              	@ 0 "" 2
 1114              		.thumb
 1115              	.LBE363:
 1116              	.LBE362:
 1117              	.LBE361:
 1118              	.LBE360:
 1119              	.LBE359:
 1120              	.LBE358:
 1121              		.loc 1 312 0
 1122 00e6 A305     		lsls	r3, r4, #22
 1123 00e8 9AD5     		bpl	.L75
 1124              	.LVL85:
 1125              	.L110:
 1126              		.loc 1 314 0
 1127 00ea 104C     		ldr	r4, .L111
 1128              	.LVL86:
 1129 00ec 2046     		mov	r0, r4
 1130 00ee FFF7FEFF 		bl	adc_lld_stop_conversion
 1131              	.LVL87:
 1132 00f2 2B69     		ldr	r3, [r5, #16]
 1133 00f4 9B68     		ldr	r3, [r3, #8]
 1134 00f6 4BB1     		cbz	r3, .L90
ARM GAS  /tmp/ccBCm3Tg.s 			page 21


 1135 00f8 0522     		movs	r2, #5
 1136 00fa 2270     		strb	r2, [r4]
 1137 00fc 2046     		mov	r0, r4
 1138 00fe 0421     		movs	r1, #4
 1139 0100 9847     		blx	r3
 1140              	.LVL88:
 1141 0102 2378     		ldrb	r3, [r4]	@ zero_extendqisi2
 1142 0104 052B     		cmp	r3, #5
 1143 0106 04BF     		itt	eq
 1144 0108 0223     		moveq	r3, #2
 1145 010a 2370     		strbeq	r3, [r4]
 1146              	.L90:
 1147 010c 0024     		movs	r4, #0
 1148 010e 2C61     		str	r4, [r5, #16]
 1149              	.LVL89:
 1150              	.LBB364:
 1151              	.LBB365:
 1152              	.LBB366:
 1153              	.LBB367:
 1154              	.LBB368:
 1155              	.LBB369:
 1156              		.loc 3 548 0
 1157 0110 2023     		movs	r3, #32
 1158              	@ 548 "../ChibiOS/os/ext/CMSIS/include/core_cmFunc.h" 1
 1159 0112 83F31188 		MSR basepri, r3
 1160              	@ 0 "" 2
 1161              	.LVL90:
 1162              		.thumb
 1163              	.LBE369:
 1164              	.LBE368:
 1165              	.LBE367:
 1166              	.LBE366:
 1167              	.LBE365:
 1168              	.LBE364:
 1169              	.LBB370:
 1170              	.LBB371:
 1171              		.loc 2 728 0
 1172 0116 0648     		ldr	r0, .L111+4
 1173 0118 4FF0FF31 		mov	r1, #-1
 1174 011c FFF7FEFF 		bl	chThdResumeI
 1175              	.LVL91:
 1176              	.LBE371:
 1177              	.LBE370:
 1178              	.LBB372:
 1179              	.LBB373:
 1180              	.LBB374:
 1181              	.LBB375:
 1182              	.LBB376:
 1183              	.LBB377:
 1184              		.loc 3 548 0
 1185              	@ 548 "../ChibiOS/os/ext/CMSIS/include/core_cmFunc.h" 1
 1186 0120 84F31188 		MSR basepri, r4
 1187              	@ 0 "" 2
 1188              		.thumb
 1189              	.LBE377:
 1190              	.LBE376:
 1191              	.LBE375:
ARM GAS  /tmp/ccBCm3Tg.s 			page 22


 1192              	.LBE374:
 1193              	.LBE373:
 1194              	.LBE372:
 1195              	.LBE380:
 1196              	.LBE383:
 1197              		.loc 1 357 0
 1198 0124 BDE87040 		pop	{r4, r5, r6, lr}
 1199              		.loc 1 356 0
 1200 0128 FFF7FEBF 		b	_port_irq_epilogue
 1201              	.LVL92:
 1202              	.L112:
 1203              		.align	2
 1204              	.L111:
 1205 012c 00000000 		.word	.LANCHOR1
 1206 0130 14000000 		.word	.LANCHOR1+20
 1207              		.cfi_endproc
 1208              	.LFE280:
 1209              		.size	Vector88, .-Vector88
 1210 0134 AFF30080 		.section	.text.adcSTM32EnableVREF,"ax",%progbits
 1210      AFF30080 
 1210      AFF30080 
 1211              		.align	2
 1212              		.p2align 4,,15
 1213              		.global	adcSTM32EnableVREF
 1214              		.thumb
 1215              		.thumb_func
 1216              		.type	adcSTM32EnableVREF, %function
 1217              	adcSTM32EnableVREF:
 1218              	.LFB286:
 1219              		.loc 1 856 0
 1220              		.cfi_startproc
 1221              		@ args = 0, pretend = 0, frame = 0
 1222              		@ frame_needed = 0, uses_anonymous_args = 0
 1223              		@ link register save eliminated.
 1224              	.LVL93:
 1225              		.loc 1 858 0
 1226 0000 C36A     		ldr	r3, [r0, #44]
 1227 0002 9A68     		ldr	r2, [r3, #8]
 1228 0004 42F08072 		orr	r2, r2, #16777216
 1229 0008 9A60     		str	r2, [r3, #8]
 1230 000a 7047     		bx	lr
 1231              		.cfi_endproc
 1232              	.LFE286:
 1233              		.size	adcSTM32EnableVREF, .-adcSTM32EnableVREF
 1234 000c AFF30080 		.section	.text.adcSTM32DisableVREF,"ax",%progbits
 1235              		.align	2
 1236              		.p2align 4,,15
 1237              		.global	adcSTM32DisableVREF
 1238              		.thumb
 1239              		.thumb_func
 1240              		.type	adcSTM32DisableVREF, %function
 1241              	adcSTM32DisableVREF:
 1242              	.LFB287:
 1243              		.loc 1 871 0
 1244              		.cfi_startproc
 1245              		@ args = 0, pretend = 0, frame = 0
 1246              		@ frame_needed = 0, uses_anonymous_args = 0
ARM GAS  /tmp/ccBCm3Tg.s 			page 23


 1247              		@ link register save eliminated.
 1248              	.LVL94:
 1249              		.loc 1 873 0
 1250 0000 C36A     		ldr	r3, [r0, #44]
 1251 0002 9A68     		ldr	r2, [r3, #8]
 1252 0004 22F08072 		bic	r2, r2, #16777216
 1253 0008 9A60     		str	r2, [r3, #8]
 1254 000a 7047     		bx	lr
 1255              		.cfi_endproc
 1256              	.LFE287:
 1257              		.size	adcSTM32DisableVREF, .-adcSTM32DisableVREF
 1258 000c AFF30080 		.section	.text.adcSTM32EnableTS,"ax",%progbits
 1259              		.align	2
 1260              		.p2align 4,,15
 1261              		.global	adcSTM32EnableTS
 1262              		.thumb
 1263              		.thumb_func
 1264              		.type	adcSTM32EnableTS, %function
 1265              	adcSTM32EnableTS:
 1266              	.LFB288:
 1267              		.loc 1 886 0
 1268              		.cfi_startproc
 1269              		@ args = 0, pretend = 0, frame = 0
 1270              		@ frame_needed = 0, uses_anonymous_args = 0
 1271              		@ link register save eliminated.
 1272              	.LVL95:
 1273              		.loc 1 888 0
 1274 0000 C36A     		ldr	r3, [r0, #44]
 1275 0002 9A68     		ldr	r2, [r3, #8]
 1276 0004 42F40002 		orr	r2, r2, #8388608
 1277 0008 9A60     		str	r2, [r3, #8]
 1278 000a 7047     		bx	lr
 1279              		.cfi_endproc
 1280              	.LFE288:
 1281              		.size	adcSTM32EnableTS, .-adcSTM32EnableTS
 1282 000c AFF30080 		.section	.text.adcSTM32DisableTS,"ax",%progbits
 1283              		.align	2
 1284              		.p2align 4,,15
 1285              		.global	adcSTM32DisableTS
 1286              		.thumb
 1287              		.thumb_func
 1288              		.type	adcSTM32DisableTS, %function
 1289              	adcSTM32DisableTS:
 1290              	.LFB289:
 1291              		.loc 1 901 0
 1292              		.cfi_startproc
 1293              		@ args = 0, pretend = 0, frame = 0
 1294              		@ frame_needed = 0, uses_anonymous_args = 0
 1295              		@ link register save eliminated.
 1296              	.LVL96:
 1297              		.loc 1 903 0
 1298 0000 C36A     		ldr	r3, [r0, #44]
 1299 0002 9A68     		ldr	r2, [r3, #8]
 1300 0004 22F40002 		bic	r2, r2, #8388608
 1301 0008 9A60     		str	r2, [r3, #8]
 1302 000a 7047     		bx	lr
 1303              		.cfi_endproc
ARM GAS  /tmp/ccBCm3Tg.s 			page 24


 1304              	.LFE289:
 1305              		.size	adcSTM32DisableTS, .-adcSTM32DisableTS
 1306 000c AFF30080 		.section	.text.adcSTM32EnableVBAT,"ax",%progbits
 1307              		.align	2
 1308              		.p2align 4,,15
 1309              		.global	adcSTM32EnableVBAT
 1310              		.thumb
 1311              		.thumb_func
 1312              		.type	adcSTM32EnableVBAT, %function
 1313              	adcSTM32EnableVBAT:
 1314              	.LFB290:
 1315              		.loc 1 916 0
 1316              		.cfi_startproc
 1317              		@ args = 0, pretend = 0, frame = 0
 1318              		@ frame_needed = 0, uses_anonymous_args = 0
 1319              		@ link register save eliminated.
 1320              	.LVL97:
 1321              		.loc 1 918 0
 1322 0000 C36A     		ldr	r3, [r0, #44]
 1323 0002 9A68     		ldr	r2, [r3, #8]
 1324 0004 42F08072 		orr	r2, r2, #16777216
 1325 0008 9A60     		str	r2, [r3, #8]
 1326 000a 7047     		bx	lr
 1327              		.cfi_endproc
 1328              	.LFE290:
 1329              		.size	adcSTM32EnableVBAT, .-adcSTM32EnableVBAT
 1330 000c AFF30080 		.section	.text.adcSTM32DisableVBAT,"ax",%progbits
 1331              		.align	2
 1332              		.p2align 4,,15
 1333              		.global	adcSTM32DisableVBAT
 1334              		.thumb
 1335              		.thumb_func
 1336              		.type	adcSTM32DisableVBAT, %function
 1337              	adcSTM32DisableVBAT:
 1338              	.LFB291:
 1339              		.loc 1 931 0
 1340              		.cfi_startproc
 1341              		@ args = 0, pretend = 0, frame = 0
 1342              		@ frame_needed = 0, uses_anonymous_args = 0
 1343              		@ link register save eliminated.
 1344              	.LVL98:
 1345              		.loc 1 933 0
 1346 0000 C36A     		ldr	r3, [r0, #44]
 1347 0002 9A68     		ldr	r2, [r3, #8]
 1348 0004 22F08072 		bic	r2, r2, #16777216
 1349 0008 9A60     		str	r2, [r3, #8]
 1350 000a 7047     		bx	lr
 1351              		.cfi_endproc
 1352              	.LFE291:
 1353              		.size	adcSTM32DisableVBAT, .-adcSTM32DisableVBAT
 1354              		.global	ADCD1
 1355 000c AFF30080 		.section	.rodata.default_config,"a",%progbits
 1356              		.align	2
 1357              		.set	.LANCHOR2,. + 0
 1358              		.type	default_config, %object
 1359              		.size	default_config, 4
 1360              	default_config:
ARM GAS  /tmp/ccBCm3Tg.s 			page 25


 1361 0000 00000000 		.space	4
 1362              		.section	.bss.ADCD1,"aw",%nobits
 1363              		.align	2
 1364              		.set	.LANCHOR1,. + 0
 1365              		.type	ADCD1, %object
 1366              		.size	ADCD1, 56
 1367              	ADCD1:
 1368 0000 00000000 		.space	56
 1368      00000000 
 1368      00000000 
 1368      00000000 
 1368      00000000 
 1369              		.section	.bss.clkmask,"aw",%nobits
 1370              		.align	2
 1371              		.set	.LANCHOR0,. + 0
 1372              		.type	clkmask, %object
 1373              		.size	clkmask, 4
 1374              	clkmask:
 1375 0000 00000000 		.space	4
 1376              		.text
 1377              	.Letext0:
 1378              		.file 4 "/nfs/nfs5/home/research/hardware/arm2/gcc-arm-embedded/gcc-arm-none-eabi-4_8-2014q2/lib/g
 1379              		.file 5 "/nfs/nfs5/home/research/hardware/arm2/gcc-arm-embedded/gcc-arm-none-eabi-4_8-2014q2/arm-n
 1380              		.file 6 "/nfs/nfs5/home/research/hardware/arm2/gcc-arm-embedded/gcc-arm-none-eabi-4_8-2014q2/arm-n
 1381              		.file 7 "../ChibiOS/os/rt/ports/ARMCMx/compilers/GCC/chtypes.h"
 1382              		.file 8 "../ChibiOS/os/rt/include/chsystypes.h"
 1383              		.file 9 "../ChibiOS/os/rt/include/chschd.h"
 1384              		.file 10 "../ChibiOS/os/ext/CMSIS/ST/STM32F3xx/stm32f303xc.h"
 1385              		.file 11 "../ChibiOS/os/rt/ports/ARMCMx/chcore.h"
 1386              		.file 12 "../ChibiOS/os/rt/ports/ARMCMx/chcore_v7m.h"
 1387              		.file 13 "../ChibiOS/os/rt/include/chtm.h"
 1388              		.file 14 "../ChibiOS/os/rt/include/chsem.h"
 1389              		.file 15 "../ChibiOS/os/rt/include/chmtx.h"
 1390              		.file 16 "../ChibiOS/os/hal/ports/STM32/LLD/DMAv1/stm32_dma.h"
 1391              		.file 17 "../ChibiOS/os/hal/include/adc.h"
 1392              		.file 18 "../ChibiOS/os/hal/ports/STM32/LLD/ADCv3/adc_lld.h"
 1393              		.file 19 "../ChibiOS/os/rt/include/chsys.h"
 1394              		.file 20 "../ChibiOS/os/ext/CMSIS/include/core_cm4.h"
 1395              		.file 21 "../ChibiOS/os/hal/ports/common/ARMCMx/nvic.h"
 1396              		.file 22 "../ChibiOS/os/rt/include/chthreads.h"