ARM GAS  /tmp/ccpSxgvQ.s 			page 1


   1              		.syntax unified
   2              		.cpu cortex-m4
   3              		.fpu softvfp
   4              		.eabi_attribute 20, 1
   5              		.eabi_attribute 21, 1
   6              		.eabi_attribute 23, 3
   7              		.eabi_attribute 24, 1
   8              		.eabi_attribute 25, 1
   9              		.eabi_attribute 26, 1
  10              		.eabi_attribute 30, 2
  11              		.eabi_attribute 34, 1
  12              		.eabi_attribute 18, 4
  13              		.thumb
  14              		.file	"chcond.c"
  15              		.text
  16              	.Ltext0:
  17              		.cfi_sections	.debug_frame
  18              		.section	.text.chCondObjectInit,"ax",%progbits
  19              		.align	2
  20              		.p2align 4,,15
  21              		.global	chCondObjectInit
  22              		.thumb
  23              		.thumb_func
  24              		.type	chCondObjectInit, %function
  25              	chCondObjectInit:
  26              	.LFB241:
  27              		.file 1 "../ChibiOS/os/rt/src/chcond.c"
  28              		.loc 1 75 0
  29              		.cfi_startproc
  30              		@ args = 0, pretend = 0, frame = 0
  31              		@ frame_needed = 0, uses_anonymous_args = 0
  32              		@ link register save eliminated.
  33              	.LVL0:
  34              	.LBB83:
  35              	.LBB84:
  36              		.file 2 "../ChibiOS/os/rt/include/chschd.h"
  37              		.loc 2 606 0
  38 0000 0060     		str	r0, [r0]
  39              		.loc 2 607 0
  40 0002 4060     		str	r0, [r0, #4]
  41 0004 7047     		bx	lr
  42              	.LBE84:
  43              	.LBE83:
  44              		.cfi_endproc
  45              	.LFE241:
  46              		.size	chCondObjectInit, .-chCondObjectInit
  47 0006 00BFAFF3 		.section	.text.chCondSignal,"ax",%progbits
  47      0080AFF3 
  47      0080
  48              		.align	2
  49              		.p2align 4,,15
  50              		.global	chCondSignal
  51              		.thumb
  52              		.thumb_func
  53              		.type	chCondSignal, %function
  54              	chCondSignal:
  55              	.LFB242:
ARM GAS  /tmp/ccpSxgvQ.s 			page 2


  56              		.loc 1 89 0
  57              		.cfi_startproc
  58              		@ args = 0, pretend = 0, frame = 0
  59              		@ frame_needed = 0, uses_anonymous_args = 0
  60              	.LVL1:
  61 0000 08B5     		push	{r3, lr}
  62              		.cfi_def_cfa_offset 8
  63              		.cfi_offset 3, -8
  64              		.cfi_offset 14, -4
  65              	.LBB85:
  66              	.LBB86:
  67              	.LBB87:
  68              	.LBB88:
  69              		.file 3 "../ChibiOS/os/ext/CMSIS/include/core_cmFunc.h"
  70              		.loc 3 548 0
  71 0002 2022     		movs	r2, #32
  72              	.LBE88:
  73              	.LBE87:
  74              	.LBE86:
  75              	.LBE85:
  76              		.loc 1 89 0
  77 0004 0346     		mov	r3, r0
  78              	.LBB92:
  79              	.LBB91:
  80              	.LBB90:
  81              	.LBB89:
  82              		.loc 3 548 0
  83              	@ 548 "../ChibiOS/os/ext/CMSIS/include/core_cmFunc.h" 1
  84 0006 82F31188 		MSR basepri, r2
  85              	@ 0 "" 2
  86              	.LVL2:
  87              		.thumb
  88              	.LBE89:
  89              	.LBE90:
  90              	.LBE91:
  91              	.LBE92:
  92              	.LBB93:
  93              	.LBB94:
  94              		.loc 2 633 0
  95 000a 0068     		ldr	r0, [r0]
  96              	.LVL3:
  97              	.LBE94:
  98              	.LBE93:
  99              		.loc 1 94 0
 100 000c 8342     		cmp	r3, r0
 101 000e 05D0     		beq	.L3
 102              	.LVL4:
 103              	.LBB95:
 104              	.LBB96:
 105              		.loc 2 676 0
 106 0010 0268     		ldr	r2, [r0]
 107 0012 1A60     		str	r2, [r3]
 108              	.LBE96:
 109              	.LBE95:
 110              		.loc 1 95 0
 111 0014 0021     		movs	r1, #0
 112              	.LBB98:
ARM GAS  /tmp/ccpSxgvQ.s 			page 3


 113              	.LBB97:
 114              		.loc 2 677 0
 115 0016 5360     		str	r3, [r2, #4]
 116              	.LBE97:
 117              	.LBE98:
 118              		.loc 1 95 0
 119 0018 FFF7FEFF 		bl	chSchWakeupS
 120              	.LVL5:
 121              	.L3:
 122              	.LBB99:
 123              	.LBB100:
 124              	.LBB101:
 125              	.LBB102:
 126              	.LBB103:
 127              		.loc 3 548 0
 128 001c 0023     		movs	r3, #0
 129              	@ 548 "../ChibiOS/os/ext/CMSIS/include/core_cmFunc.h" 1
 130 001e 83F31188 		MSR basepri, r3
 131              	@ 0 "" 2
 132              		.thumb
 133 0022 08BD     		pop	{r3, pc}
 134              	.LBE103:
 135              	.LBE102:
 136              	.LBE101:
 137              	.LBE100:
 138              	.LBE99:
 139              		.cfi_endproc
 140              	.LFE242:
 141              		.size	chCondSignal, .-chCondSignal
 142 0024 AFF30080 		.section	.text.chCondSignalI,"ax",%progbits
 142      AFF30080 
 142      AFF30080 
 143              		.align	2
 144              		.p2align 4,,15
 145              		.global	chCondSignalI
 146              		.thumb
 147              		.thumb_func
 148              		.type	chCondSignalI, %function
 149              	chCondSignalI:
 150              	.LFB243:
 151              		.loc 1 111 0
 152              		.cfi_startproc
 153              		@ args = 0, pretend = 0, frame = 0
 154              		@ frame_needed = 0, uses_anonymous_args = 0
 155              		@ link register save eliminated.
 156              	.LVL6:
 157              	.LBB104:
 158              	.LBB105:
 159              		.loc 2 633 0
 160 0000 0368     		ldr	r3, [r0]
 161              	.LBE105:
 162              	.LBE104:
 163              		.loc 1 116 0
 164 0002 9842     		cmp	r0, r3
 165 0004 07D0     		beq	.L5
 166              	.LVL7:
 167              	.LBB106:
ARM GAS  /tmp/ccpSxgvQ.s 			page 4


 168              	.LBB107:
 169              	.LBB108:
 170              		.loc 2 676 0
 171 0006 1A68     		ldr	r2, [r3]
 172 0008 0260     		str	r2, [r0]
 173              	.LBE108:
 174              	.LBE107:
 175              		.loc 1 118 0
 176 000a 0021     		movs	r1, #0
 177              	.LBB110:
 178              	.LBB109:
 179              		.loc 2 677 0
 180 000c 5060     		str	r0, [r2, #4]
 181              	.LBE109:
 182              	.LBE110:
 183              		.loc 1 119 0
 184 000e 1846     		mov	r0, r3
 185              	.LVL8:
 186              		.loc 1 118 0
 187 0010 1962     		str	r1, [r3, #32]
 188              		.loc 1 119 0
 189 0012 FFF7FEBF 		b	chSchReadyI
 190              	.LVL9:
 191              	.L5:
 192 0016 7047     		bx	lr
 193              	.LBE106:
 194              		.cfi_endproc
 195              	.LFE243:
 196              		.size	chCondSignalI, .-chCondSignalI
 197 0018 AFF30080 		.section	.text.chCondBroadcastI,"ax",%progbits
 197      AFF30080 
 198              		.align	2
 199              		.p2align 4,,15
 200              		.global	chCondBroadcastI
 201              		.thumb
 202              		.thumb_func
 203              		.type	chCondBroadcastI, %function
 204              	chCondBroadcastI:
 205              	.LFB245:
 206              		.loc 1 149 0
 207              		.cfi_startproc
 208              		@ args = 0, pretend = 0, frame = 0
 209              		@ frame_needed = 0, uses_anonymous_args = 0
 210              	.LVL10:
 211 0000 38B5     		push	{r3, r4, r5, lr}
 212              		.cfi_def_cfa_offset 16
 213              		.cfi_offset 3, -16
 214              		.cfi_offset 4, -12
 215              		.cfi_offset 5, -8
 216              		.cfi_offset 14, -4
 217              		.loc 1 149 0
 218 0002 0446     		mov	r4, r0
 219              	.LVL11:
 220              	.LBB111:
 221              	.LBB112:
 222              		.loc 2 633 0
 223 0004 0068     		ldr	r0, [r0]
ARM GAS  /tmp/ccpSxgvQ.s 			page 5


 224              	.LVL12:
 225              	.LBE112:
 226              	.LBE111:
 227              		.loc 1 157 0
 228 0006 8442     		cmp	r4, r0
 229 0008 0AD0     		beq	.L7
 230              		.loc 1 158 0
 231 000a 6FF00105 		mvn	r5, #1
 232              	.L10:
 233              	.LVL13:
 234              	.LBB114:
 235              	.LBB115:
 236              		.loc 2 676 0
 237 000e 0368     		ldr	r3, [r0]
 238 0010 2360     		str	r3, [r4]
 239              		.loc 2 677 0
 240 0012 5C60     		str	r4, [r3, #4]
 241              	.LBE115:
 242              	.LBE114:
 243              		.loc 1 158 0
 244 0014 FFF7FEFF 		bl	chSchReadyI
 245              	.LVL14:
 246 0018 0562     		str	r5, [r0, #32]
 247              	.LBB116:
 248              	.LBB113:
 249              		.loc 2 633 0
 250 001a 2068     		ldr	r0, [r4]
 251              	.LBE113:
 252              	.LBE116:
 253              		.loc 1 157 0
 254 001c A042     		cmp	r0, r4
 255 001e F6D1     		bne	.L10
 256              	.LVL15:
 257              	.L7:
 258 0020 38BD     		pop	{r3, r4, r5, pc}
 259              		.cfi_endproc
 260              	.LFE245:
 261              		.size	chCondBroadcastI, .-chCondBroadcastI
 262 0022 00BFAFF3 		.section	.text.chCondBroadcast,"ax",%progbits
 262      0080AFF3 
 262      0080AFF3 
 262      0080
 263              		.align	2
 264              		.p2align 4,,15
 265              		.global	chCondBroadcast
 266              		.thumb
 267              		.thumb_func
 268              		.type	chCondBroadcast, %function
 269              	chCondBroadcast:
 270              	.LFB244:
 271              		.loc 1 130 0
 272              		.cfi_startproc
 273              		@ args = 0, pretend = 0, frame = 0
 274              		@ frame_needed = 0, uses_anonymous_args = 0
 275              	.LVL16:
 276 0000 08B5     		push	{r3, lr}
 277              		.cfi_def_cfa_offset 8
ARM GAS  /tmp/ccpSxgvQ.s 			page 6


 278              		.cfi_offset 3, -8
 279              		.cfi_offset 14, -4
 280              	.LBB117:
 281              	.LBB118:
 282              	.LBB119:
 283              	.LBB120:
 284              		.loc 3 548 0
 285 0002 2023     		movs	r3, #32
 286              	@ 548 "../ChibiOS/os/ext/CMSIS/include/core_cmFunc.h" 1
 287 0004 83F31188 		MSR basepri, r3
 288              	@ 0 "" 2
 289              		.thumb
 290              	.LBE120:
 291              	.LBE119:
 292              	.LBE118:
 293              	.LBE117:
 294              		.loc 1 133 0
 295 0008 FFF7FEFF 		bl	chCondBroadcastI
 296              	.LVL17:
 297              		.loc 1 134 0
 298 000c FFF7FEFF 		bl	chSchRescheduleS
 299              	.LVL18:
 300              	.LBB121:
 301              	.LBB122:
 302              	.LBB123:
 303              	.LBB124:
 304              	.LBB125:
 305              		.loc 3 548 0
 306 0010 0023     		movs	r3, #0
 307              	@ 548 "../ChibiOS/os/ext/CMSIS/include/core_cmFunc.h" 1
 308 0012 83F31188 		MSR basepri, r3
 309              	@ 0 "" 2
 310              		.thumb
 311 0016 08BD     		pop	{r3, pc}
 312              	.LBE125:
 313              	.LBE124:
 314              	.LBE123:
 315              	.LBE122:
 316              	.LBE121:
 317              		.cfi_endproc
 318              	.LFE244:
 319              		.size	chCondBroadcast, .-chCondBroadcast
 320 0018 AFF30080 		.section	.text.chCondWaitS,"ax",%progbits
 320      AFF30080 
 321              		.align	2
 322              		.p2align 4,,15
 323              		.global	chCondWaitS
 324              		.thumb
 325              		.thumb_func
 326              		.type	chCondWaitS, %function
 327              	chCondWaitS:
 328              	.LFB247:
 329              		.loc 1 205 0
 330              		.cfi_startproc
 331              		@ args = 0, pretend = 0, frame = 0
 332              		@ frame_needed = 0, uses_anonymous_args = 0
 333              	.LVL19:
ARM GAS  /tmp/ccpSxgvQ.s 			page 7


 334              		.loc 1 206 0
 335 0000 0F4B     		ldr	r3, .L18
 336              		.loc 1 205 0
 337 0002 70B5     		push	{r4, r5, r6, lr}
 338              		.cfi_def_cfa_offset 16
 339              		.cfi_offset 4, -16
 340              		.cfi_offset 5, -12
 341              		.cfi_offset 6, -8
 342              		.cfi_offset 14, -4
 343              		.loc 1 206 0
 344 0004 9C69     		ldr	r4, [r3, #24]
 345              	.LVL20:
 346              	.LBB126:
 347              	.LBB127:
 348              		.file 4 "../ChibiOS/os/rt/include/chmtx.h"
 349              		.loc 4 146 0
 350 0006 666B     		ldr	r6, [r4, #52]
 351              	.LBE127:
 352              	.LBE126:
 353              		.loc 1 205 0
 354 0008 0546     		mov	r5, r0
 355              		.loc 1 216 0
 356 000a 3046     		mov	r0, r6
 357              	.LVL21:
 358 000c FFF7FEFF 		bl	chMtxUnlockS
 359              	.LVL22:
 360              		.loc 1 220 0
 361 0010 2562     		str	r5, [r4, #32]
 362              	.LVL23:
 363              	.LBB128:
 364              	.LBB129:
 365              		.loc 2 655 0
 366 0012 2B46     		mov	r3, r5
 367 0014 03E0     		b	.L15
 368              	.LVL24:
 369              	.L17:
 370              		.loc 2 658 0
 371 0016 9968     		ldr	r1, [r3, #8]
 372 0018 A268     		ldr	r2, [r4, #8]
 373 001a 9142     		cmp	r1, r2
 374 001c 02D3     		bcc	.L14
 375              	.L15:
 376              		.loc 2 657 0
 377 001e 1B68     		ldr	r3, [r3]
 378              	.LVL25:
 379              		.loc 2 658 0
 380 0020 9D42     		cmp	r5, r3
 381 0022 F8D1     		bne	.L17
 382              	.L14:
 383              		.loc 2 660 0
 384 0024 5A68     		ldr	r2, [r3, #4]
 385 0026 6260     		str	r2, [r4, #4]
 386              		.loc 2 659 0
 387 0028 2360     		str	r3, [r4]
 388              	.LBE129:
 389              	.LBE128:
 390              		.loc 1 222 0
ARM GAS  /tmp/ccpSxgvQ.s 			page 8


 391 002a 0720     		movs	r0, #7
 392              	.LBB131:
 393              	.LBB130:
 394              		.loc 2 661 0
 395 002c 1460     		str	r4, [r2]
 396              		.loc 2 662 0
 397 002e 5C60     		str	r4, [r3, #4]
 398              	.LBE130:
 399              	.LBE131:
 400              		.loc 1 222 0
 401 0030 FFF7FEFF 		bl	chSchGoSleepS
 402              	.LVL26:
 403              		.loc 1 223 0
 404 0034 246A     		ldr	r4, [r4, #32]
 405              	.LVL27:
 406              		.loc 1 224 0
 407 0036 3046     		mov	r0, r6
 408 0038 FFF7FEFF 		bl	chMtxLockS
 409              	.LVL28:
 410              		.loc 1 227 0
 411 003c 2046     		mov	r0, r4
 412 003e 70BD     		pop	{r4, r5, r6, pc}
 413              	.LVL29:
 414              	.L19:
 415              		.align	2
 416              	.L18:
 417 0040 00000000 		.word	ch
 418              		.cfi_endproc
 419              	.LFE247:
 420              		.size	chCondWaitS, .-chCondWaitS
 421 0044 AFF30080 		.section	.text.chCondWait,"ax",%progbits
 421      AFF30080 
 421      AFF30080 
 422              		.align	2
 423              		.p2align 4,,15
 424              		.global	chCondWait
 425              		.thumb
 426              		.thumb_func
 427              		.type	chCondWait, %function
 428              	chCondWait:
 429              	.LFB246:
 430              		.loc 1 179 0
 431              		.cfi_startproc
 432              		@ args = 0, pretend = 0, frame = 0
 433              		@ frame_needed = 0, uses_anonymous_args = 0
 434              	.LVL30:
 435 0000 08B5     		push	{r3, lr}
 436              		.cfi_def_cfa_offset 8
 437              		.cfi_offset 3, -8
 438              		.cfi_offset 14, -4
 439              	.LBB132:
 440              	.LBB133:
 441              	.LBB134:
 442              	.LBB135:
 443              		.loc 3 548 0
 444 0002 2023     		movs	r3, #32
 445              	@ 548 "../ChibiOS/os/ext/CMSIS/include/core_cmFunc.h" 1
ARM GAS  /tmp/ccpSxgvQ.s 			page 9


 446 0004 83F31188 		MSR basepri, r3
 447              	@ 0 "" 2
 448              		.thumb
 449              	.LBE135:
 450              	.LBE134:
 451              	.LBE133:
 452              	.LBE132:
 453              		.loc 1 183 0
 454 0008 FFF7FEFF 		bl	chCondWaitS
 455              	.LVL31:
 456              	.LBB136:
 457              	.LBB137:
 458              	.LBB138:
 459              	.LBB139:
 460              	.LBB140:
 461              		.loc 3 548 0
 462 000c 0023     		movs	r3, #0
 463              	@ 548 "../ChibiOS/os/ext/CMSIS/include/core_cmFunc.h" 1
 464 000e 83F31188 		MSR basepri, r3
 465              	@ 0 "" 2
 466              		.thumb
 467              	.LBE140:
 468              	.LBE139:
 469              	.LBE138:
 470              	.LBE137:
 471              	.LBE136:
 472              		.loc 1 186 0
 473 0012 08BD     		pop	{r3, pc}
 474              		.cfi_endproc
 475              	.LFE246:
 476              		.size	chCondWait, .-chCondWait
 477 0014 AFF30080 		.section	.text.chCondWaitTimeoutS,"ax",%progbits
 477      AFF30080 
 477      AFF30080 
 478              		.align	2
 479              		.p2align 4,,15
 480              		.global	chCondWaitTimeoutS
 481              		.thumb
 482              		.thumb_func
 483              		.type	chCondWaitTimeoutS, %function
 484              	chCondWaitTimeoutS:
 485              	.LFB249:
 486              		.loc 1 296 0
 487              		.cfi_startproc
 488              		@ args = 0, pretend = 0, frame = 0
 489              		@ frame_needed = 0, uses_anonymous_args = 0
 490              	.LVL32:
 491 0000 2DE9F041 		push	{r4, r5, r6, r7, r8, lr}
 492              		.cfi_def_cfa_offset 24
 493              		.cfi_offset 4, -24
 494              		.cfi_offset 5, -20
 495              		.cfi_offset 6, -16
 496              		.cfi_offset 7, -12
 497              		.cfi_offset 8, -8
 498              		.cfi_offset 14, -4
 499              	.LBB141:
 500              	.LBB142:
ARM GAS  /tmp/ccpSxgvQ.s 			page 10


 501              	.LBB143:
 502              	.LBB144:
 503              		.file 5 "../ChibiOS/os/rt/include/chthreads.h"
 504              		.loc 5 176 0
 505 0004 124C     		ldr	r4, .L27
 506              	.LBE144:
 507              	.LBE143:
 508              		.loc 4 146 0
 509 0006 A369     		ldr	r3, [r4, #24]
 510 0008 5F6B     		ldr	r7, [r3, #52]
 511              	.LBE142:
 512              	.LBE141:
 513              		.loc 1 296 0
 514 000a 0646     		mov	r6, r0
 515              		.loc 1 306 0
 516 000c 3846     		mov	r0, r7
 517              	.LVL33:
 518              		.loc 1 296 0
 519 000e 8846     		mov	r8, r1
 520              		.loc 1 306 0
 521 0010 FFF7FEFF 		bl	chMtxUnlockS
 522              	.LVL34:
 523              		.loc 1 310 0
 524 0014 A569     		ldr	r5, [r4, #24]
 525              	.LBB145:
 526              	.LBB146:
 527              		.loc 2 655 0
 528 0016 3346     		mov	r3, r6
 529              	.LBE146:
 530              	.LBE145:
 531              		.loc 1 310 0
 532 0018 2E62     		str	r6, [r5, #32]
 533              	.LVL35:
 534 001a 03E0     		b	.L26
 535              	.LVL36:
 536              	.L22:
 537              	.LBB150:
 538              	.LBB147:
 539              		.loc 2 658 0
 540 001c 9C68     		ldr	r4, [r3, #8]
 541 001e AA68     		ldr	r2, [r5, #8]
 542 0020 9442     		cmp	r4, r2
 543 0022 02D3     		bcc	.L25
 544              	.L26:
 545              		.loc 2 657 0
 546 0024 1B68     		ldr	r3, [r3]
 547              	.LVL37:
 548              		.loc 2 658 0
 549 0026 9E42     		cmp	r6, r3
 550 0028 F8D1     		bne	.L22
 551              	.L25:
 552              		.loc 2 660 0
 553 002a 5A68     		ldr	r2, [r3, #4]
 554 002c 6A60     		str	r2, [r5, #4]
 555              		.loc 2 659 0
 556 002e 2B60     		str	r3, [r5]
 557              	.LBE147:
ARM GAS  /tmp/ccpSxgvQ.s 			page 11


 558              	.LBE150:
 559              		.loc 1 312 0
 560 0030 4146     		mov	r1, r8
 561              	.LBB151:
 562              	.LBB148:
 563              		.loc 2 661 0
 564 0032 1560     		str	r5, [r2]
 565              	.LBE148:
 566              	.LBE151:
 567              		.loc 1 312 0
 568 0034 0720     		movs	r0, #7
 569              	.LBB152:
 570              	.LBB149:
 571              		.loc 2 662 0
 572 0036 5D60     		str	r5, [r3, #4]
 573              	.LBE149:
 574              	.LBE152:
 575              		.loc 1 312 0
 576 0038 FFF7FEFF 		bl	chSchGoSleepTimeoutS
 577              	.LVL38:
 578              		.loc 1 313 0
 579 003c 431C     		adds	r3, r0, #1
 580              		.loc 1 312 0
 581 003e 0446     		mov	r4, r0
 582              	.LVL39:
 583              		.loc 1 313 0
 584 0040 02D0     		beq	.L24
 585              		.loc 1 314 0
 586 0042 3846     		mov	r0, r7
 587              	.LVL40:
 588 0044 FFF7FEFF 		bl	chMtxLockS
 589              	.LVL41:
 590              	.L24:
 591              		.loc 1 318 0
 592 0048 2046     		mov	r0, r4
 593 004a BDE8F081 		pop	{r4, r5, r6, r7, r8, pc}
 594              	.LVL42:
 595              	.L28:
 596 004e 00BF     		.align	2
 597              	.L27:
 598 0050 00000000 		.word	ch
 599              		.cfi_endproc
 600              	.LFE249:
 601              		.size	chCondWaitTimeoutS, .-chCondWaitTimeoutS
 602 0054 AFF30080 		.section	.text.chCondWaitTimeout,"ax",%progbits
 602      AFF30080 
 602      AFF30080 
 603              		.align	2
 604              		.p2align 4,,15
 605              		.global	chCondWaitTimeout
 606              		.thumb
 607              		.thumb_func
 608              		.type	chCondWaitTimeout, %function
 609              	chCondWaitTimeout:
 610              	.LFB248:
 611              		.loc 1 258 0
 612              		.cfi_startproc
ARM GAS  /tmp/ccpSxgvQ.s 			page 12


 613              		@ args = 0, pretend = 0, frame = 0
 614              		@ frame_needed = 0, uses_anonymous_args = 0
 615              	.LVL43:
 616 0000 08B5     		push	{r3, lr}
 617              		.cfi_def_cfa_offset 8
 618              		.cfi_offset 3, -8
 619              		.cfi_offset 14, -4
 620              	.LBB153:
 621              	.LBB154:
 622              	.LBB155:
 623              	.LBB156:
 624              		.loc 3 548 0
 625 0002 2023     		movs	r3, #32
 626              	@ 548 "../ChibiOS/os/ext/CMSIS/include/core_cmFunc.h" 1
 627 0004 83F31188 		MSR basepri, r3
 628              	@ 0 "" 2
 629              		.thumb
 630              	.LBE156:
 631              	.LBE155:
 632              	.LBE154:
 633              	.LBE153:
 634              		.loc 1 262 0
 635 0008 FFF7FEFF 		bl	chCondWaitTimeoutS
 636              	.LVL44:
 637              	.LBB157:
 638              	.LBB158:
 639              	.LBB159:
 640              	.LBB160:
 641              	.LBB161:
 642              		.loc 3 548 0
 643 000c 0023     		movs	r3, #0
 644              	@ 548 "../ChibiOS/os/ext/CMSIS/include/core_cmFunc.h" 1
 645 000e 83F31188 		MSR basepri, r3
 646              	@ 0 "" 2
 647              		.thumb
 648              	.LBE161:
 649              	.LBE160:
 650              	.LBE159:
 651              	.LBE158:
 652              	.LBE157:
 653              		.loc 1 266 0
 654 0012 08BD     		pop	{r3, pc}
 655              		.cfi_endproc
 656              	.LFE248:
 657              		.size	chCondWaitTimeout, .-chCondWaitTimeout
 658 0014 AFF30080 		.text
 658      AFF30080 
 658      AFF30080 
 659              	.Letext0:
 660              		.file 6 "/nfs/nfs5/home/research/hardware/arm2/gcc-arm-embedded/gcc-arm-none-eabi-4_8-2014q2/arm-n
 661              		.file 7 "/nfs/nfs5/home/research/hardware/arm2/gcc-arm-embedded/gcc-arm-none-eabi-4_8-2014q2/arm-n
 662              		.file 8 "../ChibiOS/os/rt/ports/ARMCMx/compilers/GCC/chtypes.h"
 663              		.file 9 "../ChibiOS/os/rt/include/chsystypes.h"
 664              		.file 10 "../ChibiOS/os/rt/ports/ARMCMx/chcore.h"
 665              		.file 11 "../ChibiOS/os/rt/ports/ARMCMx/chcore_v7m.h"
 666              		.file 12 "../ChibiOS/os/rt/include/chtm.h"
 667              		.file 13 "../ChibiOS/os/rt/include/chsem.h"
ARM GAS  /tmp/ccpSxgvQ.s 			page 13


 668              		.file 14 "../ChibiOS/os/rt/include/chcond.h"
 669              		.file 15 "../ChibiOS/os/rt/include/chsys.h"
 670              		.file 16 "../ChibiOS/os/ext/CMSIS/include/core_cm4.h"
 671              		.section	.debug_info,"",%progbits
 672              	.Ldebug_info0:
 673 0000 080F0000 		.4byte	0xf08
 674 0004 0400     		.2byte	0x4
 675 0006 00000000 		.4byte	.Ldebug_abbrev0
 676 000a 04       		.byte	0x4
 677 000b 01       		.uleb128 0x1
 678 000c FA040000 		.4byte	.LASF134
 679 0010 01       		.byte	0x1
 680 0011 D5000000 		.4byte	.LASF135
 681 0015 15030000 		.4byte	.LASF136
 682 0019 A0000000 		.4byte	.Ldebug_ranges0+0xa0
 683 001d 00000000 		.4byte	0
 684 0021 00000000 		.4byte	.Ldebug_line0
 685 0025 02       		.uleb128 0x2
 686 0026 04       		.byte	0x4
 687 0027 05       		.byte	0x5
 688 0028 696E7400 		.ascii	"int\000"
 689 002c 03       		.uleb128 0x3
 690 002d 04       		.byte	0x4
 691 002e 07       		.byte	0x7
 692 002f 09020000 		.4byte	.LASF0
 693 0033 03       		.uleb128 0x3
 694 0034 01       		.byte	0x1
 695 0035 06       		.byte	0x6
 696 0036 08010000 		.4byte	.LASF1
 697 003a 04       		.uleb128 0x4
 698 003b 23000000 		.4byte	.LASF5
 699 003f 06       		.byte	0x6
 700 0040 1C       		.byte	0x1c
 701 0041 45000000 		.4byte	0x45
 702 0045 03       		.uleb128 0x3
 703 0046 01       		.byte	0x1
 704 0047 08       		.byte	0x8
 705 0048 E6030000 		.4byte	.LASF2
 706 004c 03       		.uleb128 0x3
 707 004d 02       		.byte	0x2
 708 004e 05       		.byte	0x5
 709 004f FE030000 		.4byte	.LASF3
 710 0053 03       		.uleb128 0x3
 711 0054 02       		.byte	0x2
 712 0055 07       		.byte	0x7
 713 0056 3F020000 		.4byte	.LASF4
 714 005a 04       		.uleb128 0x4
 715 005b 9D020000 		.4byte	.LASF6
 716 005f 06       		.byte	0x6
 717 0060 37       		.byte	0x37
 718 0061 65000000 		.4byte	0x65
 719 0065 03       		.uleb128 0x3
 720 0066 04       		.byte	0x4
 721 0067 05       		.byte	0x5
 722 0068 56010000 		.4byte	.LASF7
 723 006c 04       		.uleb128 0x4
 724 006d 04060000 		.4byte	.LASF8
ARM GAS  /tmp/ccpSxgvQ.s 			page 14


 725 0071 06       		.byte	0x6
 726 0072 38       		.byte	0x38
 727 0073 77000000 		.4byte	0x77
 728 0077 03       		.uleb128 0x3
 729 0078 04       		.byte	0x4
 730 0079 07       		.byte	0x7
 731 007a C6040000 		.4byte	.LASF9
 732 007e 03       		.uleb128 0x3
 733 007f 08       		.byte	0x8
 734 0080 05       		.byte	0x5
 735 0081 FA000000 		.4byte	.LASF10
 736 0085 04       		.uleb128 0x4
 737 0086 98030000 		.4byte	.LASF11
 738 008a 06       		.byte	0x6
 739 008b 4E       		.byte	0x4e
 740 008c 90000000 		.4byte	0x90
 741 0090 03       		.uleb128 0x3
 742 0091 08       		.byte	0x8
 743 0092 07       		.byte	0x7
 744 0093 6E000000 		.4byte	.LASF12
 745 0097 04       		.uleb128 0x4
 746 0098 8D060000 		.4byte	.LASF13
 747 009c 07       		.byte	0x7
 748 009d 2A       		.byte	0x2a
 749 009e 3A000000 		.4byte	0x3a
 750 00a2 04       		.uleb128 0x4
 751 00a3 DE030000 		.4byte	.LASF14
 752 00a7 07       		.byte	0x7
 753 00a8 41       		.byte	0x41
 754 00a9 5A000000 		.4byte	0x5a
 755 00ad 04       		.uleb128 0x4
 756 00ae 92040000 		.4byte	.LASF15
 757 00b2 07       		.byte	0x7
 758 00b3 42       		.byte	0x42
 759 00b4 6C000000 		.4byte	0x6c
 760 00b8 04       		.uleb128 0x4
 761 00b9 1A000000 		.4byte	.LASF16
 762 00bd 07       		.byte	0x7
 763 00be 4E       		.byte	0x4e
 764 00bf 85000000 		.4byte	0x85
 765 00c3 04       		.uleb128 0x4
 766 00c4 36060000 		.4byte	.LASF17
 767 00c8 08       		.byte	0x8
 768 00c9 39       		.byte	0x39
 769 00ca AD000000 		.4byte	0xad
 770 00ce 04       		.uleb128 0x4
 771 00cf 7B020000 		.4byte	.LASF18
 772 00d3 08       		.byte	0x8
 773 00d4 3C       		.byte	0x3c
 774 00d5 97000000 		.4byte	0x97
 775 00d9 04       		.uleb128 0x4
 776 00da 5F010000 		.4byte	.LASF19
 777 00de 08       		.byte	0x8
 778 00df 3D       		.byte	0x3d
 779 00e0 97000000 		.4byte	0x97
 780 00e4 04       		.uleb128 0x4
 781 00e5 A3030000 		.4byte	.LASF20
ARM GAS  /tmp/ccpSxgvQ.s 			page 15


 782 00e9 08       		.byte	0x8
 783 00ea 3E       		.byte	0x3e
 784 00eb 97000000 		.4byte	0x97
 785 00ef 04       		.uleb128 0x4
 786 00f0 C2030000 		.4byte	.LASF21
 787 00f4 08       		.byte	0x8
 788 00f5 40       		.byte	0x40
 789 00f6 AD000000 		.4byte	0xad
 790 00fa 04       		.uleb128 0x4
 791 00fb 69020000 		.4byte	.LASF22
 792 00ff 08       		.byte	0x8
 793 0100 41       		.byte	0x41
 794 0101 A2000000 		.4byte	0xa2
 795 0105 04       		.uleb128 0x4
 796 0106 91020000 		.4byte	.LASF23
 797 010a 08       		.byte	0x8
 798 010b 43       		.byte	0x43
 799 010c AD000000 		.4byte	0xad
 800 0110 04       		.uleb128 0x4
 801 0111 F6010000 		.4byte	.LASF24
 802 0115 08       		.byte	0x8
 803 0116 45       		.byte	0x45
 804 0117 A2000000 		.4byte	0xa2
 805 011b 04       		.uleb128 0x4
 806 011c E6050000 		.4byte	.LASF25
 807 0120 09       		.byte	0x9
 808 0121 33       		.byte	0x33
 809 0122 AD000000 		.4byte	0xad
 810 0126 04       		.uleb128 0x4
 811 0127 70060000 		.4byte	.LASF26
 812 012b 09       		.byte	0x9
 813 012c 3F       		.byte	0x3f
 814 012d 31010000 		.4byte	0x131
 815 0131 05       		.uleb128 0x5
 816 0132 52020000 		.4byte	.LASF45
 817 0136 40       		.byte	0x40
 818 0137 02       		.byte	0x2
 819 0138 C2       		.byte	0xc2
 820 0139 11020000 		.4byte	0x211
 821 013d 06       		.uleb128 0x6
 822 013e 1E040000 		.4byte	.LASF27
 823 0142 02       		.byte	0x2
 824 0143 C3       		.byte	0xc3
 825 0144 1C020000 		.4byte	0x21c
 826 0148 00       		.byte	0
 827 0149 06       		.uleb128 0x6
 828 014a BB030000 		.4byte	.LASF28
 829 014e 02       		.byte	0x2
 830 014f C5       		.byte	0xc5
 831 0150 1C020000 		.4byte	0x21c
 832 0154 04       		.byte	0x4
 833 0155 06       		.uleb128 0x6
 834 0156 F3000000 		.4byte	.LASF29
 835 015a 02       		.byte	0x2
 836 015b C7       		.byte	0xc7
 837 015c EF000000 		.4byte	0xef
 838 0160 08       		.byte	0x8
ARM GAS  /tmp/ccpSxgvQ.s 			page 16


 839 0161 06       		.uleb128 0x6
 840 0162 FF060000 		.4byte	.LASF30
 841 0166 02       		.byte	0x2
 842 0167 C8       		.byte	0xc8
 843 0168 4C040000 		.4byte	0x44c
 844 016c 0C       		.byte	0xc
 845 016d 06       		.uleb128 0x6
 846 016e 82010000 		.4byte	.LASF31
 847 0172 02       		.byte	0x2
 848 0173 CA       		.byte	0xca
 849 0174 1C020000 		.4byte	0x21c
 850 0178 10       		.byte	0x10
 851 0179 06       		.uleb128 0x6
 852 017a 4B030000 		.4byte	.LASF32
 853 017e 02       		.byte	0x2
 854 017f CB       		.byte	0xcb
 855 0180 1C020000 		.4byte	0x21c
 856 0184 14       		.byte	0x14
 857 0185 06       		.uleb128 0x6
 858 0186 9C060000 		.4byte	.LASF33
 859 018a 02       		.byte	0x2
 860 018b D2       		.byte	0xd2
 861 018c D7050000 		.4byte	0x5d7
 862 0190 18       		.byte	0x18
 863 0191 06       		.uleb128 0x6
 864 0192 08040000 		.4byte	.LASF34
 865 0196 02       		.byte	0x2
 866 0197 DD       		.byte	0xdd
 867 0198 D9000000 		.4byte	0xd9
 868 019c 1C       		.byte	0x1c
 869 019d 06       		.uleb128 0x6
 870 019e 25040000 		.4byte	.LASF35
 871 01a2 02       		.byte	0x2
 872 01a3 E1       		.byte	0xe1
 873 01a4 CE000000 		.4byte	0xce
 874 01a8 1D       		.byte	0x1d
 875 01a9 06       		.uleb128 0x6
 876 01aa 69060000 		.4byte	.LASF36
 877 01ae 02       		.byte	0x2
 878 01af E6       		.byte	0xe6
 879 01b0 E4000000 		.4byte	0xe4
 880 01b4 1E       		.byte	0x1e
 881 01b5 07       		.uleb128 0x7
 882 01b6 705F7500 		.ascii	"p_u\000"
 883 01ba 02       		.byte	0x2
 884 01bb 3701     		.2byte	0x137
 885 01bd 06050000 		.4byte	0x506
 886 01c1 20       		.byte	0x20
 887 01c2 08       		.uleb128 0x8
 888 01c3 B2020000 		.4byte	.LASF37
 889 01c7 02       		.byte	0x2
 890 01c8 3C01     		.2byte	0x13c
 891 01ca 22020000 		.4byte	0x222
 892 01ce 24       		.byte	0x24
 893 01cf 08       		.uleb128 0x8
 894 01d0 2E020000 		.4byte	.LASF38
 895 01d4 02       		.byte	0x2
ARM GAS  /tmp/ccpSxgvQ.s 			page 17


 896 01d5 4201     		.2byte	0x142
 897 01d7 46020000 		.4byte	0x246
 898 01db 28       		.byte	0x28
 899 01dc 08       		.uleb128 0x8
 900 01dd 74040000 		.4byte	.LASF39
 901 01e1 02       		.byte	0x2
 902 01e2 4801     		.2byte	0x148
 903 01e4 05010000 		.4byte	0x105
 904 01e8 30       		.byte	0x30
 905 01e9 08       		.uleb128 0x8
 906 01ea F4030000 		.4byte	.LASF40
 907 01ee 02       		.byte	0x2
 908 01ef 4F01     		.2byte	0x14f
 909 01f1 D1050000 		.4byte	0x5d1
 910 01f5 34       		.byte	0x34
 911 01f6 08       		.uleb128 0x8
 912 01f7 F0050000 		.4byte	.LASF41
 913 01fb 02       		.byte	0x2
 914 01fc 5301     		.2byte	0x153
 915 01fe EF000000 		.4byte	0xef
 916 0202 38       		.byte	0x38
 917 0203 08       		.uleb128 0x8
 918 0204 29010000 		.4byte	.LASF42
 919 0208 02       		.byte	0x2
 920 0209 5A01     		.2byte	0x15a
 921 020b F9020000 		.4byte	0x2f9
 922 020f 3C       		.byte	0x3c
 923 0210 00       		.byte	0
 924 0211 04       		.uleb128 0x4
 925 0212 C5020000 		.4byte	.LASF43
 926 0216 09       		.byte	0x9
 927 0217 44       		.byte	0x44
 928 0218 1C020000 		.4byte	0x21c
 929 021c 09       		.uleb128 0x9
 930 021d 04       		.byte	0x4
 931 021e 26010000 		.4byte	0x126
 932 0222 04       		.uleb128 0x4
 933 0223 B5060000 		.4byte	.LASF44
 934 0227 09       		.byte	0x9
 935 0228 49       		.byte	0x49
 936 0229 2D020000 		.4byte	0x22d
 937 022d 05       		.uleb128 0x5
 938 022e B6040000 		.4byte	.LASF46
 939 0232 04       		.byte	0x4
 940 0233 02       		.byte	0x2
 941 0234 B0       		.byte	0xb0
 942 0235 46020000 		.4byte	0x246
 943 0239 06       		.uleb128 0x6
 944 023a 1E040000 		.4byte	.LASF27
 945 023e 02       		.byte	0x2
 946 023f B1       		.byte	0xb1
 947 0240 1C020000 		.4byte	0x21c
 948 0244 00       		.byte	0
 949 0245 00       		.byte	0
 950 0246 04       		.uleb128 0x4
 951 0247 50060000 		.4byte	.LASF47
 952 024b 09       		.byte	0x9
ARM GAS  /tmp/ccpSxgvQ.s 			page 18


 953 024c 50       		.byte	0x50
 954 024d 51020000 		.4byte	0x251
 955 0251 05       		.uleb128 0x5
 956 0252 C4000000 		.4byte	.LASF48
 957 0256 08       		.byte	0x8
 958 0257 02       		.byte	0x2
 959 0258 B7       		.byte	0xb7
 960 0259 76020000 		.4byte	0x276
 961 025d 06       		.uleb128 0x6
 962 025e 1E040000 		.4byte	.LASF27
 963 0262 02       		.byte	0x2
 964 0263 B8       		.byte	0xb8
 965 0264 1C020000 		.4byte	0x21c
 966 0268 00       		.byte	0
 967 0269 06       		.uleb128 0x6
 968 026a BB030000 		.4byte	.LASF28
 969 026e 02       		.byte	0x2
 970 026f B9       		.byte	0xb9
 971 0270 1C020000 		.4byte	0x21c
 972 0274 04       		.byte	0x4
 973 0275 00       		.byte	0
 974 0276 04       		.uleb128 0x4
 975 0277 00000000 		.4byte	.LASF49
 976 027b 09       		.byte	0x9
 977 027c 57       		.byte	0x57
 978 027d 81020000 		.4byte	0x281
 979 0281 0A       		.uleb128 0xa
 980 0282 83020000 		.4byte	.LASF50
 981 0286 1C       		.byte	0x1c
 982 0287 02       		.byte	0x2
 983 0288 9201     		.2byte	0x192
 984 028a DD020000 		.4byte	0x2dd
 985 028e 08       		.uleb128 0x8
 986 028f A2040000 		.4byte	.LASF51
 987 0293 02       		.byte	0x2
 988 0294 9301     		.2byte	0x193
 989 0296 46020000 		.4byte	0x246
 990 029a 00       		.byte	0
 991 029b 08       		.uleb128 0x8
 992 029c 10040000 		.4byte	.LASF52
 993 02a0 02       		.byte	0x2
 994 02a1 9401     		.2byte	0x194
 995 02a3 EF000000 		.4byte	0xef
 996 02a7 08       		.byte	0x8
 997 02a8 08       		.uleb128 0x8
 998 02a9 53030000 		.4byte	.LASF53
 999 02ad 02       		.byte	0x2
 1000 02ae 9601     		.2byte	0x196
 1001 02b0 4C040000 		.4byte	0x44c
 1002 02b4 0C       		.byte	0xc
 1003 02b5 08       		.uleb128 0x8
 1004 02b6 A3010000 		.4byte	.LASF54
 1005 02ba 02       		.byte	0x2
 1006 02bb 9901     		.2byte	0x199
 1007 02bd 1C020000 		.4byte	0x21c
 1008 02c1 10       		.byte	0x10
 1009 02c2 08       		.uleb128 0x8
ARM GAS  /tmp/ccpSxgvQ.s 			page 19


 1010 02c3 80030000 		.4byte	.LASF55
 1011 02c7 02       		.byte	0x2
 1012 02c8 9A01     		.2byte	0x19a
 1013 02ca 1C020000 		.4byte	0x21c
 1014 02ce 14       		.byte	0x14
 1015 02cf 08       		.uleb128 0x8
 1016 02d0 76030000 		.4byte	.LASF56
 1017 02d4 02       		.byte	0x2
 1018 02d5 9D01     		.2byte	0x19d
 1019 02d7 1C020000 		.4byte	0x21c
 1020 02db 18       		.byte	0x18
 1021 02dc 00       		.byte	0
 1022 02dd 04       		.uleb128 0x4
 1023 02de FB050000 		.4byte	.LASF57
 1024 02e2 09       		.byte	0x9
 1025 02e3 5C       		.byte	0x5c
 1026 02e4 E8020000 		.4byte	0x2e8
 1027 02e8 09       		.uleb128 0x9
 1028 02e9 04       		.byte	0x4
 1029 02ea EE020000 		.4byte	0x2ee
 1030 02ee 0B       		.uleb128 0xb
 1031 02ef F9020000 		.4byte	0x2f9
 1032 02f3 0C       		.uleb128 0xc
 1033 02f4 F9020000 		.4byte	0x2f9
 1034 02f8 00       		.byte	0
 1035 02f9 0D       		.uleb128 0xd
 1036 02fa 04       		.byte	0x4
 1037 02fb 04       		.uleb128 0x4
 1038 02fc AB030000 		.4byte	.LASF58
 1039 0300 09       		.byte	0x9
 1040 0301 61       		.byte	0x61
 1041 0302 06030000 		.4byte	0x306
 1042 0306 0A       		.uleb128 0xa
 1043 0307 40040000 		.4byte	.LASF59
 1044 030b 14       		.byte	0x14
 1045 030c 02       		.byte	0x2
 1046 030d 6D01     		.2byte	0x16d
 1047 030f 55030000 		.4byte	0x355
 1048 0313 08       		.uleb128 0x8
 1049 0314 16020000 		.4byte	.LASF60
 1050 0318 02       		.byte	0x2
 1051 0319 6E01     		.2byte	0x16e
 1052 031b E9050000 		.4byte	0x5e9
 1053 031f 00       		.byte	0
 1054 0320 08       		.uleb128 0x8
 1055 0321 B4010000 		.4byte	.LASF61
 1056 0325 02       		.byte	0x2
 1057 0326 6F01     		.2byte	0x16f
 1058 0328 E9050000 		.4byte	0x5e9
 1059 032c 04       		.byte	0x4
 1060 032d 08       		.uleb128 0x8
 1061 032e 25020000 		.4byte	.LASF62
 1062 0332 02       		.byte	0x2
 1063 0333 7001     		.2byte	0x170
 1064 0335 1B010000 		.4byte	0x11b
 1065 0339 08       		.byte	0x8
 1066 033a 08       		.uleb128 0x8
ARM GAS  /tmp/ccpSxgvQ.s 			page 20


 1067 033b 05070000 		.4byte	.LASF63
 1068 033f 02       		.byte	0x2
 1069 0340 7101     		.2byte	0x171
 1070 0342 DD020000 		.4byte	0x2dd
 1071 0346 0C       		.byte	0xc
 1072 0347 08       		.uleb128 0x8
 1073 0348 49060000 		.4byte	.LASF64
 1074 034c 02       		.byte	0x2
 1075 034d 7301     		.2byte	0x173
 1076 034f F9020000 		.4byte	0x2f9
 1077 0353 10       		.byte	0x10
 1078 0354 00       		.byte	0
 1079 0355 04       		.uleb128 0x4
 1080 0356 A1000000 		.4byte	.LASF65
 1081 035a 09       		.byte	0x9
 1082 035b 66       		.byte	0x66
 1083 035c 60030000 		.4byte	0x360
 1084 0360 0A       		.uleb128 0xa
 1085 0361 D8020000 		.4byte	.LASF66
 1086 0365 10       		.byte	0x10
 1087 0366 02       		.byte	0x2
 1088 0367 7D01     		.2byte	0x17d
 1089 0369 A2030000 		.4byte	0x3a2
 1090 036d 08       		.uleb128 0x8
 1091 036e 16020000 		.4byte	.LASF60
 1092 0372 02       		.byte	0x2
 1093 0373 7E01     		.2byte	0x17e
 1094 0375 E9050000 		.4byte	0x5e9
 1095 0379 00       		.byte	0
 1096 037a 08       		.uleb128 0x8
 1097 037b B4010000 		.4byte	.LASF61
 1098 037f 02       		.byte	0x2
 1099 0380 8001     		.2byte	0x180
 1100 0382 E9050000 		.4byte	0x5e9
 1101 0386 04       		.byte	0x4
 1102 0387 08       		.uleb128 0x8
 1103 0388 25020000 		.4byte	.LASF62
 1104 038c 02       		.byte	0x2
 1105 038d 8201     		.2byte	0x182
 1106 038f 1B010000 		.4byte	0x11b
 1107 0393 08       		.byte	0x8
 1108 0394 08       		.uleb128 0x8
 1109 0395 3F030000 		.4byte	.LASF67
 1110 0399 02       		.byte	0x2
 1111 039a 8A01     		.2byte	0x18a
 1112 039c 1B010000 		.4byte	0x11b
 1113 03a0 0C       		.byte	0xc
 1114 03a1 00       		.byte	0
 1115 03a2 04       		.uleb128 0x4
 1116 03a3 39000000 		.4byte	.LASF68
 1117 03a7 09       		.byte	0x9
 1118 03a8 6B       		.byte	0x6b
 1119 03a9 AD030000 		.4byte	0x3ad
 1120 03ad 0A       		.uleb128 0xa
 1121 03ae BC010000 		.4byte	.LASF69
 1122 03b2 04       		.byte	0x4
 1123 03b3 02       		.byte	0x2
ARM GAS  /tmp/ccpSxgvQ.s 			page 21


 1124 03b4 A401     		.2byte	0x1a4
 1125 03b6 C8030000 		.4byte	0x3c8
 1126 03ba 08       		.uleb128 0x8
 1127 03bb 1D060000 		.4byte	.LASF70
 1128 03bf 02       		.byte	0x2
 1129 03c0 AC01     		.2byte	0x1ac
 1130 03c2 EF050000 		.4byte	0x5ef
 1131 03c6 00       		.byte	0
 1132 03c7 00       		.byte	0
 1133 03c8 04       		.uleb128 0x4
 1134 03c9 6F020000 		.4byte	.LASF71
 1135 03cd 09       		.byte	0x9
 1136 03ce 70       		.byte	0x70
 1137 03cf D3030000 		.4byte	0x3d3
 1138 03d3 0E       		.uleb128 0xe
 1139 03d4 4C010000 		.4byte	.LASF72
 1140 03d8 5001     		.2byte	0x150
 1141 03da 02       		.byte	0x2
 1142 03db C401     		.2byte	0x1c4
 1143 03dd 2F040000 		.4byte	0x42f
 1144 03e1 08       		.uleb128 0x8
 1145 03e2 79060000 		.4byte	.LASF73
 1146 03e6 02       		.byte	0x2
 1147 03e7 C801     		.2byte	0x1c8
 1148 03e9 76020000 		.4byte	0x276
 1149 03ed 00       		.byte	0
 1150 03ee 08       		.uleb128 0x8
 1151 03ef 39010000 		.4byte	.LASF74
 1152 03f3 02       		.byte	0x2
 1153 03f4 CC01     		.2byte	0x1cc
 1154 03f6 55030000 		.4byte	0x355
 1155 03fa 1C       		.byte	0x1c
 1156 03fb 07       		.uleb128 0x7
 1157 03fc 64626700 		.ascii	"dbg\000"
 1158 0400 02       		.byte	0x2
 1159 0401 D001     		.2byte	0x1d0
 1160 0403 A2030000 		.4byte	0x3a2
 1161 0407 2C       		.byte	0x2c
 1162 0408 08       		.uleb128 0x8
 1163 0409 8E000000 		.4byte	.LASF75
 1164 040d 02       		.byte	0x2
 1165 040e D401     		.2byte	0x1d4
 1166 0410 26010000 		.4byte	0x126
 1167 0414 30       		.byte	0x30
 1168 0415 07       		.uleb128 0x7
 1169 0416 746D00   		.ascii	"tm\000"
 1170 0419 02       		.byte	0x2
 1171 041a D901     		.2byte	0x1d9
 1172 041c FB040000 		.4byte	0x4fb
 1173 0420 70       		.byte	0x70
 1174 0421 08       		.uleb128 0x8
 1175 0422 E7010000 		.4byte	.LASF76
 1176 0426 02       		.byte	0x2
 1177 0427 E501     		.2byte	0x1e5
 1178 0429 F4050000 		.4byte	0x5f4
 1179 042d 78       		.byte	0x78
 1180 042e 00       		.byte	0
ARM GAS  /tmp/ccpSxgvQ.s 			page 22


 1181 042f 03       		.uleb128 0x3
 1182 0430 04       		.byte	0x4
 1183 0431 07       		.byte	0x7
 1184 0432 BC020000 		.4byte	.LASF77
 1185 0436 04       		.uleb128 0x4
 1186 0437 AB010000 		.4byte	.LASF78
 1187 043b 0A       		.byte	0xa
 1188 043c 65       		.byte	0x65
 1189 043d F9020000 		.4byte	0x2f9
 1190 0441 04       		.uleb128 0x4
 1191 0442 A7020000 		.4byte	.LASF79
 1192 0446 0A       		.byte	0xa
 1193 0447 6D       		.byte	0x6d
 1194 0448 B8000000 		.4byte	0xb8
 1195 044c 05       		.uleb128 0x5
 1196 044d 2E060000 		.4byte	.LASF80
 1197 0451 04       		.byte	0x4
 1198 0452 0A       		.byte	0xa
 1199 0453 89       		.byte	0x89
 1200 0454 65040000 		.4byte	0x465
 1201 0458 0F       		.uleb128 0xf
 1202 0459 72313300 		.ascii	"r13\000"
 1203 045d 0A       		.byte	0xa
 1204 045e 8A       		.byte	0x8a
 1205 045f E0040000 		.4byte	0x4e0
 1206 0463 00       		.byte	0
 1207 0464 00       		.byte	0
 1208 0465 05       		.uleb128 0x5
 1209 0466 2D000000 		.4byte	.LASF81
 1210 046a 24       		.byte	0x24
 1211 046b 0B       		.byte	0xb
 1212 046c FD       		.byte	0xfd
 1213 046d E0040000 		.4byte	0x4e0
 1214 0471 07       		.uleb128 0x7
 1215 0472 723400   		.ascii	"r4\000"
 1216 0475 0B       		.byte	0xb
 1217 0476 1001     		.2byte	0x110
 1218 0478 36040000 		.4byte	0x436
 1219 047c 00       		.byte	0
 1220 047d 07       		.uleb128 0x7
 1221 047e 723500   		.ascii	"r5\000"
 1222 0481 0B       		.byte	0xb
 1223 0482 1101     		.2byte	0x111
 1224 0484 36040000 		.4byte	0x436
 1225 0488 04       		.byte	0x4
 1226 0489 07       		.uleb128 0x7
 1227 048a 723600   		.ascii	"r6\000"
 1228 048d 0B       		.byte	0xb
 1229 048e 1201     		.2byte	0x112
 1230 0490 36040000 		.4byte	0x436
 1231 0494 08       		.byte	0x8
 1232 0495 07       		.uleb128 0x7
 1233 0496 723700   		.ascii	"r7\000"
 1234 0499 0B       		.byte	0xb
 1235 049a 1301     		.2byte	0x113
 1236 049c 36040000 		.4byte	0x436
 1237 04a0 0C       		.byte	0xc
ARM GAS  /tmp/ccpSxgvQ.s 			page 23


 1238 04a1 07       		.uleb128 0x7
 1239 04a2 723800   		.ascii	"r8\000"
 1240 04a5 0B       		.byte	0xb
 1241 04a6 1401     		.2byte	0x114
 1242 04a8 36040000 		.4byte	0x436
 1243 04ac 10       		.byte	0x10
 1244 04ad 07       		.uleb128 0x7
 1245 04ae 723900   		.ascii	"r9\000"
 1246 04b1 0B       		.byte	0xb
 1247 04b2 1501     		.2byte	0x115
 1248 04b4 36040000 		.4byte	0x436
 1249 04b8 14       		.byte	0x14
 1250 04b9 07       		.uleb128 0x7
 1251 04ba 72313000 		.ascii	"r10\000"
 1252 04be 0B       		.byte	0xb
 1253 04bf 1601     		.2byte	0x116
 1254 04c1 36040000 		.4byte	0x436
 1255 04c5 18       		.byte	0x18
 1256 04c6 07       		.uleb128 0x7
 1257 04c7 72313100 		.ascii	"r11\000"
 1258 04cb 0B       		.byte	0xb
 1259 04cc 1701     		.2byte	0x117
 1260 04ce 36040000 		.4byte	0x436
 1261 04d2 1C       		.byte	0x1c
 1262 04d3 07       		.uleb128 0x7
 1263 04d4 6C7200   		.ascii	"lr\000"
 1264 04d7 0B       		.byte	0xb
 1265 04d8 1801     		.2byte	0x118
 1266 04da 36040000 		.4byte	0x436
 1267 04de 20       		.byte	0x20
 1268 04df 00       		.byte	0
 1269 04e0 09       		.uleb128 0x9
 1270 04e1 04       		.byte	0x4
 1271 04e2 65040000 		.4byte	0x465
 1272 04e6 10       		.uleb128 0x10
 1273 04e7 04       		.byte	0x4
 1274 04e8 0C       		.byte	0xc
 1275 04e9 38       		.byte	0x38
 1276 04ea FB040000 		.4byte	0x4fb
 1277 04ee 06       		.uleb128 0x6
 1278 04ef 27060000 		.4byte	.LASF82
 1279 04f3 0C       		.byte	0xc
 1280 04f4 3C       		.byte	0x3c
 1281 04f5 C3000000 		.4byte	0xc3
 1282 04f9 00       		.byte	0
 1283 04fa 00       		.byte	0
 1284 04fb 04       		.uleb128 0x4
 1285 04fc 59030000 		.4byte	.LASF83
 1286 0500 0C       		.byte	0xc
 1287 0501 3D       		.byte	0x3d
 1288 0502 E6040000 		.4byte	0x4e6
 1289 0506 11       		.uleb128 0x11
 1290 0507 04       		.byte	0x4
 1291 0508 02       		.byte	0x2
 1292 0509 FA       		.byte	0xfa
 1293 050a 6F050000 		.4byte	0x56f
 1294 050e 12       		.uleb128 0x12
ARM GAS  /tmp/ccpSxgvQ.s 			page 24


 1295 050f 13000000 		.4byte	.LASF84
 1296 0513 02       		.byte	0x2
 1297 0514 0101     		.2byte	0x101
 1298 0516 FA000000 		.4byte	0xfa
 1299 051a 12       		.uleb128 0x12
 1300 051b 85000000 		.4byte	.LASF85
 1301 051f 02       		.byte	0x2
 1302 0520 0801     		.2byte	0x108
 1303 0522 FA000000 		.4byte	0xfa
 1304 0526 12       		.uleb128 0x12
 1305 0527 95060000 		.4byte	.LASF86
 1306 052b 02       		.byte	0x2
 1307 052c 0F01     		.2byte	0x10f
 1308 052e F9020000 		.4byte	0x2f9
 1309 0532 12       		.uleb128 0x12
 1310 0533 0D000000 		.4byte	.LASF87
 1311 0537 02       		.byte	0x2
 1312 0538 1601     		.2byte	0x116
 1313 053a 6F050000 		.4byte	0x56f
 1314 053e 12       		.uleb128 0x12
 1315 053f 99000000 		.4byte	.LASF88
 1316 0543 02       		.byte	0x2
 1317 0544 1B01     		.2byte	0x11b
 1318 0546 FA000000 		.4byte	0xfa
 1319 054a 12       		.uleb128 0x12
 1320 054b 1E020000 		.4byte	.LASF89
 1321 054f 02       		.byte	0x2
 1322 0550 2401     		.2byte	0x124
 1323 0552 9A050000 		.4byte	0x59a
 1324 0556 12       		.uleb128 0x12
 1325 0557 9B040000 		.4byte	.LASF90
 1326 055b 02       		.byte	0x2
 1327 055c 2D01     		.2byte	0x12d
 1328 055e D1050000 		.4byte	0x5d1
 1329 0562 12       		.uleb128 0x12
 1330 0563 17040000 		.4byte	.LASF91
 1331 0567 02       		.byte	0x2
 1332 0568 3501     		.2byte	0x135
 1333 056a 05010000 		.4byte	0x105
 1334 056e 00       		.byte	0
 1335 056f 09       		.uleb128 0x9
 1336 0570 04       		.byte	0x4
 1337 0571 11020000 		.4byte	0x211
 1338 0575 05       		.uleb128 0x5
 1339 0576 59040000 		.4byte	.LASF92
 1340 057a 0C       		.byte	0xc
 1341 057b 0D       		.byte	0xd
 1342 057c 34       		.byte	0x34
 1343 057d 9A050000 		.4byte	0x59a
 1344 0581 06       		.uleb128 0x6
 1345 0582 8A010000 		.4byte	.LASF93
 1346 0586 0D       		.byte	0xd
 1347 0587 35       		.byte	0x35
 1348 0588 46020000 		.4byte	0x246
 1349 058c 00       		.byte	0
 1350 058d 06       		.uleb128 0x6
 1351 058e 39020000 		.4byte	.LASF94
ARM GAS  /tmp/ccpSxgvQ.s 			page 25


 1352 0592 0D       		.byte	0xd
 1353 0593 37       		.byte	0x37
 1354 0594 10010000 		.4byte	0x110
 1355 0598 08       		.byte	0x8
 1356 0599 00       		.byte	0
 1357 059a 09       		.uleb128 0x9
 1358 059b 04       		.byte	0x4
 1359 059c 75050000 		.4byte	0x575
 1360 05a0 05       		.uleb128 0x5
 1361 05a1 60060000 		.4byte	.LASF95
 1362 05a5 10       		.byte	0x10
 1363 05a6 04       		.byte	0x4
 1364 05a7 39       		.byte	0x39
 1365 05a8 D1050000 		.4byte	0x5d1
 1366 05ac 06       		.uleb128 0x6
 1367 05ad 31010000 		.4byte	.LASF96
 1368 05b1 04       		.byte	0x4
 1369 05b2 3A       		.byte	0x3a
 1370 05b3 46020000 		.4byte	0x246
 1371 05b7 00       		.byte	0
 1372 05b8 06       		.uleb128 0x6
 1373 05b9 F7060000 		.4byte	.LASF97
 1374 05bd 04       		.byte	0x4
 1375 05be 3C       		.byte	0x3c
 1376 05bf 1C020000 		.4byte	0x21c
 1377 05c3 08       		.byte	0x8
 1378 05c4 06       		.uleb128 0x6
 1379 05c5 6A030000 		.4byte	.LASF98
 1380 05c9 04       		.byte	0x4
 1381 05ca 3E       		.byte	0x3e
 1382 05cb 0F060000 		.4byte	0x60f
 1383 05cf 0C       		.byte	0xc
 1384 05d0 00       		.byte	0
 1385 05d1 09       		.uleb128 0x9
 1386 05d2 04       		.byte	0x4
 1387 05d3 A0050000 		.4byte	0x5a0
 1388 05d7 09       		.uleb128 0x9
 1389 05d8 04       		.byte	0x4
 1390 05d9 DD050000 		.4byte	0x5dd
 1391 05dd 13       		.uleb128 0x13
 1392 05de E2050000 		.4byte	0x5e2
 1393 05e2 03       		.uleb128 0x3
 1394 05e3 01       		.byte	0x1
 1395 05e4 08       		.byte	0x8
 1396 05e5 D8040000 		.4byte	.LASF99
 1397 05e9 09       		.uleb128 0x9
 1398 05ea 04       		.byte	0x4
 1399 05eb FB020000 		.4byte	0x2fb
 1400 05ef 14       		.uleb128 0x14
 1401 05f0 D7050000 		.4byte	0x5d7
 1402 05f4 15       		.uleb128 0x15
 1403 05f5 41040000 		.4byte	0x441
 1404 05f9 04060000 		.4byte	0x604
 1405 05fd 16       		.uleb128 0x16
 1406 05fe 2F040000 		.4byte	0x42f
 1407 0602 1A       		.byte	0x1a
 1408 0603 00       		.byte	0
ARM GAS  /tmp/ccpSxgvQ.s 			page 26


 1409 0604 04       		.uleb128 0x4
 1410 0605 CC010000 		.4byte	.LASF100
 1411 0609 04       		.byte	0x4
 1412 060a 34       		.byte	0x34
 1413 060b A0050000 		.4byte	0x5a0
 1414 060f 09       		.uleb128 0x9
 1415 0610 04       		.byte	0x4
 1416 0611 04060000 		.4byte	0x604
 1417 0615 05       		.uleb128 0x5
 1418 0616 EF020000 		.4byte	.LASF101
 1419 061a 08       		.byte	0x8
 1420 061b 0E       		.byte	0xe
 1421 061c 3B       		.byte	0x3b
 1422 061d 2E060000 		.4byte	0x62e
 1423 0621 06       		.uleb128 0x6
 1424 0622 51040000 		.4byte	.LASF102
 1425 0626 0E       		.byte	0xe
 1426 0627 3C       		.byte	0x3c
 1427 0628 46020000 		.4byte	0x246
 1428 062c 00       		.byte	0
 1429 062d 00       		.byte	0
 1430 062e 04       		.uleb128 0x4
 1431 062f 14010000 		.4byte	.LASF103
 1432 0633 0E       		.byte	0xe
 1433 0634 3E       		.byte	0x3e
 1434 0635 15060000 		.4byte	0x615
 1435 0639 17       		.uleb128 0x17
 1436 063a 0F060000 		.4byte	.LASF106
 1437 063e 03       		.byte	0x3
 1438 063f 2202     		.2byte	0x222
 1439 0641 03       		.byte	0x3
 1440 0642 53060000 		.4byte	0x653
 1441 0646 18       		.uleb128 0x18
 1442 0647 D4010000 		.4byte	.LASF108
 1443 064b 03       		.byte	0x3
 1444 064c 2202     		.2byte	0x222
 1445 064e AD000000 		.4byte	0xad
 1446 0652 00       		.byte	0
 1447 0653 19       		.uleb128 0x19
 1448 0654 53000000 		.4byte	.LASF104
 1449 0658 0B       		.byte	0xb
 1450 0659 C801     		.2byte	0x1c8
 1451 065b 03       		.byte	0x3
 1452 065c 19       		.uleb128 0x19
 1453 065d 40010000 		.4byte	.LASF105
 1454 0661 0B       		.byte	0xb
 1455 0662 E001     		.2byte	0x1e0
 1456 0664 03       		.byte	0x3
 1457 0665 1A       		.uleb128 0x1a
 1458 0666 7F060000 		.4byte	.LASF115
 1459 066a 05       		.byte	0x5
 1460 066b AE       		.byte	0xae
 1461 066c 1C020000 		.4byte	0x21c
 1462 0670 03       		.byte	0x3
 1463 0671 17       		.uleb128 0x17
 1464 0672 48000000 		.4byte	.LASF107
 1465 0676 02       		.byte	0x2
ARM GAS  /tmp/ccpSxgvQ.s 			page 27


 1466 0677 5C02     		.2byte	0x25c
 1467 0679 03       		.byte	0x3
 1468 067a 8B060000 		.4byte	0x68b
 1469 067e 1B       		.uleb128 0x1b
 1470 067f 74717000 		.ascii	"tqp\000"
 1471 0683 02       		.byte	0x2
 1472 0684 5C02     		.2byte	0x25c
 1473 0686 8B060000 		.4byte	0x68b
 1474 068a 00       		.byte	0
 1475 068b 09       		.uleb128 0x9
 1476 068c 04       		.byte	0x4
 1477 068d 46020000 		.4byte	0x246
 1478 0691 19       		.uleb128 0x19
 1479 0692 36040000 		.4byte	.LASF109
 1480 0696 0F       		.byte	0xf
 1481 0697 5A01     		.2byte	0x15a
 1482 0699 03       		.byte	0x3
 1483 069a 1C       		.uleb128 0x1c
 1484 069b 68010000 		.4byte	.LASF111
 1485 069f 02       		.byte	0x2
 1486 06a0 7702     		.2byte	0x277
 1487 06a2 B8060000 		.4byte	0x6b8
 1488 06a6 03       		.byte	0x3
 1489 06a7 B8060000 		.4byte	0x6b8
 1490 06ab 1B       		.uleb128 0x1b
 1491 06ac 74717000 		.ascii	"tqp\000"
 1492 06b0 02       		.byte	0x2
 1493 06b1 7702     		.2byte	0x277
 1494 06b3 BF060000 		.4byte	0x6bf
 1495 06b7 00       		.byte	0
 1496 06b8 03       		.uleb128 0x3
 1497 06b9 01       		.byte	0x1
 1498 06ba 02       		.byte	0x2
 1499 06bb D8030000 		.4byte	.LASF110
 1500 06bf 09       		.uleb128 0x9
 1501 06c0 04       		.byte	0x4
 1502 06c1 C5060000 		.4byte	0x6c5
 1503 06c5 13       		.uleb128 0x13
 1504 06c6 46020000 		.4byte	0x246
 1505 06ca 1C       		.uleb128 0x1c
 1506 06cb D4050000 		.4byte	.LASF112
 1507 06cf 02       		.byte	0x2
 1508 06d0 A102     		.2byte	0x2a1
 1509 06d2 1C020000 		.4byte	0x21c
 1510 06d6 03       		.byte	0x3
 1511 06d7 F3060000 		.4byte	0x6f3
 1512 06db 1B       		.uleb128 0x1b
 1513 06dc 74717000 		.ascii	"tqp\000"
 1514 06e0 02       		.byte	0x2
 1515 06e1 A102     		.2byte	0x2a1
 1516 06e3 8B060000 		.4byte	0x68b
 1517 06e7 1D       		.uleb128 0x1d
 1518 06e8 747000   		.ascii	"tp\000"
 1519 06eb 02       		.byte	0x2
 1520 06ec A202     		.2byte	0x2a2
 1521 06ee 1C020000 		.4byte	0x21c
 1522 06f2 00       		.byte	0
ARM GAS  /tmp/ccpSxgvQ.s 			page 28


 1523 06f3 17       		.uleb128 0x17
 1524 06f4 D9060000 		.4byte	.LASF113
 1525 06f8 0F       		.byte	0xf
 1526 06f9 6601     		.2byte	0x166
 1527 06fb 03       		.byte	0x3
 1528 06fc 0E070000 		.4byte	0x70e
 1529 0700 1E       		.uleb128 0x1e
 1530 0701 2D040000 		.4byte	.LASF114
 1531 0705 1E070000 		.4byte	0x71e
 1532 0709 D9060000 		.4byte	.LASF113
 1533 070d 00       		.byte	0
 1534 070e 15       		.uleb128 0x15
 1535 070f E2050000 		.4byte	0x5e2
 1536 0713 1E070000 		.4byte	0x71e
 1537 0717 16       		.uleb128 0x16
 1538 0718 2F040000 		.4byte	0x42f
 1539 071c 0B       		.byte	0xb
 1540 071d 00       		.byte	0
 1541 071e 13       		.uleb128 0x13
 1542 071f 0E070000 		.4byte	0x70e
 1543 0723 1A       		.uleb128 0x1a
 1544 0724 7F040000 		.4byte	.LASF116
 1545 0728 04       		.byte	0x4
 1546 0729 90       		.byte	0x90
 1547 072a 0F060000 		.4byte	0x60f
 1548 072e 03       		.byte	0x3
 1549 072f 17       		.uleb128 0x17
 1550 0730 E5060000 		.4byte	.LASF117
 1551 0734 02       		.byte	0x2
 1552 0735 8D02     		.2byte	0x28d
 1553 0737 03       		.byte	0x3
 1554 0738 5F070000 		.4byte	0x75f
 1555 073c 1B       		.uleb128 0x1b
 1556 073d 747000   		.ascii	"tp\000"
 1557 0740 02       		.byte	0x2
 1558 0741 8D02     		.2byte	0x28d
 1559 0743 1C020000 		.4byte	0x21c
 1560 0747 1B       		.uleb128 0x1b
 1561 0748 74717000 		.ascii	"tqp\000"
 1562 074c 02       		.byte	0x2
 1563 074d 8D02     		.2byte	0x28d
 1564 074f 8B060000 		.4byte	0x68b
 1565 0753 1D       		.uleb128 0x1d
 1566 0754 637000   		.ascii	"cp\000"
 1567 0757 02       		.byte	0x2
 1568 0758 8F02     		.2byte	0x28f
 1569 075a 1C020000 		.4byte	0x21c
 1570 075e 00       		.byte	0
 1571 075f 1F       		.uleb128 0x1f
 1572 0760 E9040000 		.4byte	.LASF118
 1573 0764 01       		.byte	0x1
 1574 0765 4B       		.byte	0x4b
 1575 0766 00000000 		.4byte	.LFB241
 1576 076a 06000000 		.4byte	.LFE241-.LFB241
 1577 076e 01       		.uleb128 0x1
 1578 076f 9C       		.byte	0x9c
 1579 0770 A1070000 		.4byte	0x7a1
ARM GAS  /tmp/ccpSxgvQ.s 			page 29


 1580 0774 20       		.uleb128 0x20
 1581 0775 637000   		.ascii	"cp\000"
 1582 0778 01       		.byte	0x1
 1583 0779 4B       		.byte	0x4b
 1584 077a A1070000 		.4byte	0x7a1
 1585 077e 01       		.uleb128 0x1
 1586 077f 50       		.byte	0x50
 1587 0780 21       		.uleb128 0x21
 1588 0781 2D040000 		.4byte	.LASF114
 1589 0785 B7070000 		.4byte	0x7b7
 1590 0789 22       		.uleb128 0x22
 1591 078a 71060000 		.4byte	0x671
 1592 078e 00000000 		.4byte	.LBB83
 1593 0792 06000000 		.4byte	.LBE83-.LBB83
 1594 0796 01       		.byte	0x1
 1595 0797 4F       		.byte	0x4f
 1596 0798 23       		.uleb128 0x23
 1597 0799 7E060000 		.4byte	0x67e
 1598 079d 01       		.uleb128 0x1
 1599 079e 50       		.byte	0x50
 1600 079f 00       		.byte	0
 1601 07a0 00       		.byte	0
 1602 07a1 09       		.uleb128 0x9
 1603 07a2 04       		.byte	0x4
 1604 07a3 2E060000 		.4byte	0x62e
 1605 07a7 15       		.uleb128 0x15
 1606 07a8 E2050000 		.4byte	0x5e2
 1607 07ac B7070000 		.4byte	0x7b7
 1608 07b0 16       		.uleb128 0x16
 1609 07b1 2F040000 		.4byte	0x42f
 1610 07b5 10       		.byte	0x10
 1611 07b6 00       		.byte	0
 1612 07b7 13       		.uleb128 0x13
 1613 07b8 A7070000 		.4byte	0x7a7
 1614 07bc 1F       		.uleb128 0x1f
 1615 07bd DA010000 		.4byte	.LASF119
 1616 07c1 01       		.byte	0x1
 1617 07c2 59       		.byte	0x59
 1618 07c3 00000000 		.4byte	.LFB242
 1619 07c7 24000000 		.4byte	.LFE242-.LFB242
 1620 07cb 01       		.uleb128 0x1
 1621 07cc 9C       		.byte	0x9c
 1622 07cd C8080000 		.4byte	0x8c8
 1623 07d1 24       		.uleb128 0x24
 1624 07d2 637000   		.ascii	"cp\000"
 1625 07d5 01       		.byte	0x1
 1626 07d6 59       		.byte	0x59
 1627 07d7 A1070000 		.4byte	0x7a1
 1628 07db 00000000 		.4byte	.LLST0
 1629 07df 21       		.uleb128 0x21
 1630 07e0 2D040000 		.4byte	.LASF114
 1631 07e4 D8080000 		.4byte	0x8d8
 1632 07e8 25       		.uleb128 0x25
 1633 07e9 91060000 		.4byte	0x691
 1634 07ed 02000000 		.4byte	.LBB85
 1635 07f1 00000000 		.4byte	.Ldebug_ranges0+0
 1636 07f5 01       		.byte	0x1
ARM GAS  /tmp/ccpSxgvQ.s 			page 30


 1637 07f6 5D       		.byte	0x5d
 1638 07f7 24080000 		.4byte	0x824
 1639 07fb 26       		.uleb128 0x26
 1640 07fc 53060000 		.4byte	0x653
 1641 0800 02000000 		.4byte	.LBB86
 1642 0804 00000000 		.4byte	.Ldebug_ranges0+0
 1643 0808 0F       		.byte	0xf
 1644 0809 5C01     		.2byte	0x15c
 1645 080b 26       		.uleb128 0x26
 1646 080c 39060000 		.4byte	0x639
 1647 0810 02000000 		.4byte	.LBB87
 1648 0814 00000000 		.4byte	.Ldebug_ranges0+0
 1649 0818 0B       		.byte	0xb
 1650 0819 D001     		.2byte	0x1d0
 1651 081b 27       		.uleb128 0x27
 1652 081c 46060000 		.4byte	0x646
 1653 0820 20       		.byte	0x20
 1654 0821 00       		.byte	0
 1655 0822 00       		.byte	0
 1656 0823 00       		.byte	0
 1657 0824 28       		.uleb128 0x28
 1658 0825 9A060000 		.4byte	0x69a
 1659 0829 0A000000 		.4byte	.LBB93
 1660 082d 02000000 		.4byte	.LBE93-.LBB93
 1661 0831 01       		.byte	0x1
 1662 0832 5E       		.byte	0x5e
 1663 0833 41080000 		.4byte	0x841
 1664 0837 29       		.uleb128 0x29
 1665 0838 AB060000 		.4byte	0x6ab
 1666 083c 2C000000 		.4byte	.LLST1
 1667 0840 00       		.byte	0
 1668 0841 25       		.uleb128 0x25
 1669 0842 CA060000 		.4byte	0x6ca
 1670 0846 10000000 		.4byte	.LBB95
 1671 084a 18000000 		.4byte	.Ldebug_ranges0+0x18
 1672 084e 01       		.byte	0x1
 1673 084f 5F       		.byte	0x5f
 1674 0850 6D080000 		.4byte	0x86d
 1675 0854 29       		.uleb128 0x29
 1676 0855 DB060000 		.4byte	0x6db
 1677 0859 58000000 		.4byte	.LLST2
 1678 085d 2A       		.uleb128 0x2a
 1679 085e 18000000 		.4byte	.Ldebug_ranges0+0x18
 1680 0862 2B       		.uleb128 0x2b
 1681 0863 E7060000 		.4byte	0x6e7
 1682 0867 79000000 		.4byte	.LLST3
 1683 086b 00       		.byte	0
 1684 086c 00       		.byte	0
 1685 086d 28       		.uleb128 0x28
 1686 086e F3060000 		.4byte	0x6f3
 1687 0872 1C000000 		.4byte	.LBB99
 1688 0876 08000000 		.4byte	.LBE99-.LBB99
 1689 087a 01       		.byte	0x1
 1690 087b 61       		.byte	0x61
 1691 087c B8080000 		.4byte	0x8b8
 1692 0880 2C       		.uleb128 0x2c
 1693 0881 1C000000 		.4byte	.LBB100
ARM GAS  /tmp/ccpSxgvQ.s 			page 31


 1694 0885 08000000 		.4byte	.LBE100-.LBB100
 1695 0889 2D       		.uleb128 0x2d
 1696 088a 00070000 		.4byte	0x700
 1697 088e 2E       		.uleb128 0x2e
 1698 088f 5C060000 		.4byte	0x65c
 1699 0893 1C000000 		.4byte	.LBB101
 1700 0897 08000000 		.4byte	.LBE101-.LBB101
 1701 089b 0F       		.byte	0xf
 1702 089c 7301     		.2byte	0x173
 1703 089e 2E       		.uleb128 0x2e
 1704 089f 39060000 		.4byte	0x639
 1705 08a3 1C000000 		.4byte	.LBB102
 1706 08a7 08000000 		.4byte	.LBE102-.LBB102
 1707 08ab 0B       		.byte	0xb
 1708 08ac E301     		.2byte	0x1e3
 1709 08ae 27       		.uleb128 0x27
 1710 08af 46060000 		.4byte	0x646
 1711 08b3 00       		.byte	0
 1712 08b4 00       		.byte	0
 1713 08b5 00       		.byte	0
 1714 08b6 00       		.byte	0
 1715 08b7 00       		.byte	0
 1716 08b8 2F       		.uleb128 0x2f
 1717 08b9 1C000000 		.4byte	.LVL5
 1718 08bd 8B0E0000 		.4byte	0xe8b
 1719 08c1 30       		.uleb128 0x30
 1720 08c2 01       		.uleb128 0x1
 1721 08c3 51       		.byte	0x51
 1722 08c4 01       		.uleb128 0x1
 1723 08c5 30       		.byte	0x30
 1724 08c6 00       		.byte	0
 1725 08c7 00       		.byte	0
 1726 08c8 15       		.uleb128 0x15
 1727 08c9 E2050000 		.4byte	0x5e2
 1728 08cd D8080000 		.4byte	0x8d8
 1729 08d1 16       		.uleb128 0x16
 1730 08d2 2F040000 		.4byte	0x42f
 1731 08d6 0C       		.byte	0xc
 1732 08d7 00       		.byte	0
 1733 08d8 13       		.uleb128 0x13
 1734 08d9 C8080000 		.4byte	0x8c8
 1735 08dd 1F       		.uleb128 0x1f
 1736 08de CA030000 		.4byte	.LASF120
 1737 08e2 01       		.byte	0x1
 1738 08e3 6F       		.byte	0x6f
 1739 08e4 00000000 		.4byte	.LFB243
 1740 08e8 18000000 		.4byte	.LFE243-.LFB243
 1741 08ec 01       		.uleb128 0x1
 1742 08ed 9C       		.byte	0x9c
 1743 08ee 70090000 		.4byte	0x970
 1744 08f2 24       		.uleb128 0x24
 1745 08f3 637000   		.ascii	"cp\000"
 1746 08f6 01       		.byte	0x1
 1747 08f7 6F       		.byte	0x6f
 1748 08f8 A1070000 		.4byte	0x7a1
 1749 08fc 8C000000 		.4byte	.LLST4
 1750 0900 21       		.uleb128 0x21
ARM GAS  /tmp/ccpSxgvQ.s 			page 32


 1751 0901 2D040000 		.4byte	.LASF114
 1752 0905 80090000 		.4byte	0x980
 1753 0909 28       		.uleb128 0x28
 1754 090a 9A060000 		.4byte	0x69a
 1755 090e 00000000 		.4byte	.LBB104
 1756 0912 02000000 		.4byte	.LBE104-.LBB104
 1757 0916 01       		.byte	0x1
 1758 0917 74       		.byte	0x74
 1759 0918 26090000 		.4byte	0x926
 1760 091c 29       		.uleb128 0x29
 1761 091d AB060000 		.4byte	0x6ab
 1762 0921 8C000000 		.4byte	.LLST4
 1763 0925 00       		.byte	0
 1764 0926 2C       		.uleb128 0x2c
 1765 0927 06000000 		.4byte	.LBB106
 1766 092b 12000000 		.4byte	.LBE106-.LBB106
 1767 092f 31       		.uleb128 0x31
 1768 0930 747000   		.ascii	"tp\000"
 1769 0933 01       		.byte	0x1
 1770 0934 75       		.byte	0x75
 1771 0935 1C020000 		.4byte	0x21c
 1772 0939 25       		.uleb128 0x25
 1773 093a CA060000 		.4byte	0x6ca
 1774 093e 06000000 		.4byte	.LBB107
 1775 0942 30000000 		.4byte	.Ldebug_ranges0+0x30
 1776 0946 01       		.byte	0x1
 1777 0947 75       		.byte	0x75
 1778 0948 65090000 		.4byte	0x965
 1779 094c 29       		.uleb128 0x29
 1780 094d DB060000 		.4byte	0x6db
 1781 0951 C4000000 		.4byte	.LLST6
 1782 0955 2A       		.uleb128 0x2a
 1783 0956 30000000 		.4byte	.Ldebug_ranges0+0x30
 1784 095a 2B       		.uleb128 0x2b
 1785 095b E7060000 		.4byte	0x6e7
 1786 095f F1000000 		.4byte	.LLST7
 1787 0963 00       		.byte	0
 1788 0964 00       		.byte	0
 1789 0965 32       		.uleb128 0x32
 1790 0966 16000000 		.4byte	.LVL9
 1791 096a A20E0000 		.4byte	0xea2
 1792 096e 00       		.byte	0
 1793 096f 00       		.byte	0
 1794 0970 15       		.uleb128 0x15
 1795 0971 E2050000 		.4byte	0x5e2
 1796 0975 80090000 		.4byte	0x980
 1797 0979 16       		.uleb128 0x16
 1798 097a 2F040000 		.4byte	0x42f
 1799 097e 0D       		.byte	0xd
 1800 097f 00       		.byte	0
 1801 0980 13       		.uleb128 0x13
 1802 0981 70090000 		.4byte	0x970
 1803 0985 1F       		.uleb128 0x1f
 1804 0986 5D000000 		.4byte	.LASF121
 1805 098a 01       		.byte	0x1
 1806 098b 95       		.byte	0x95
 1807 098c 00000000 		.4byte	.LFB245
ARM GAS  /tmp/ccpSxgvQ.s 			page 33


 1808 0990 22000000 		.4byte	.LFE245-.LFB245
 1809 0994 01       		.uleb128 0x1
 1810 0995 9C       		.byte	0x9c
 1811 0996 080A0000 		.4byte	0xa08
 1812 099a 24       		.uleb128 0x24
 1813 099b 637000   		.ascii	"cp\000"
 1814 099e 01       		.byte	0x1
 1815 099f 95       		.byte	0x95
 1816 09a0 A1070000 		.4byte	0x7a1
 1817 09a4 04010000 		.4byte	.LLST8
 1818 09a8 21       		.uleb128 0x21
 1819 09a9 2D040000 		.4byte	.LASF114
 1820 09ad 080A0000 		.4byte	0xa08
 1821 09b1 25       		.uleb128 0x25
 1822 09b2 9A060000 		.4byte	0x69a
 1823 09b6 04000000 		.4byte	.LBB111
 1824 09ba 48000000 		.4byte	.Ldebug_ranges0+0x48
 1825 09be 01       		.byte	0x1
 1826 09bf 9D       		.byte	0x9d
 1827 09c0 CE090000 		.4byte	0x9ce
 1828 09c4 29       		.uleb128 0x29
 1829 09c5 AB060000 		.4byte	0x6ab
 1830 09c9 22010000 		.4byte	.LLST9
 1831 09cd 00       		.byte	0
 1832 09ce 28       		.uleb128 0x28
 1833 09cf CA060000 		.4byte	0x6ca
 1834 09d3 0E000000 		.4byte	.LBB114
 1835 09d7 06000000 		.4byte	.LBE114-.LBB114
 1836 09db 01       		.byte	0x1
 1837 09dc 9E       		.byte	0x9e
 1838 09dd FE090000 		.4byte	0x9fe
 1839 09e1 29       		.uleb128 0x29
 1840 09e2 DB060000 		.4byte	0x6db
 1841 09e6 40010000 		.4byte	.LLST10
 1842 09ea 2C       		.uleb128 0x2c
 1843 09eb 0E000000 		.4byte	.LBB115
 1844 09ef 06000000 		.4byte	.LBE115-.LBB115
 1845 09f3 2B       		.uleb128 0x2b
 1846 09f4 E7060000 		.4byte	0x6e7
 1847 09f8 53010000 		.4byte	.LLST11
 1848 09fc 00       		.byte	0
 1849 09fd 00       		.byte	0
 1850 09fe 33       		.uleb128 0x33
 1851 09ff 18000000 		.4byte	.LVL14
 1852 0a03 A20E0000 		.4byte	0xea2
 1853 0a07 00       		.byte	0
 1854 0a08 13       		.uleb128 0x13
 1855 0a09 A7070000 		.4byte	0x7a7
 1856 0a0d 1F       		.uleb128 0x1f
 1857 0a0e 88030000 		.4byte	.LASF122
 1858 0a12 01       		.byte	0x1
 1859 0a13 82       		.byte	0x82
 1860 0a14 00000000 		.4byte	.LFB244
 1861 0a18 18000000 		.4byte	.LFE244-.LFB244
 1862 0a1c 01       		.uleb128 0x1
 1863 0a1d 9C       		.byte	0x9c
 1864 0a1e D60A0000 		.4byte	0xad6
ARM GAS  /tmp/ccpSxgvQ.s 			page 34


 1865 0a22 24       		.uleb128 0x24
 1866 0a23 637000   		.ascii	"cp\000"
 1867 0a26 01       		.byte	0x1
 1868 0a27 82       		.byte	0x82
 1869 0a28 A1070000 		.4byte	0x7a1
 1870 0a2c 66010000 		.4byte	.LLST12
 1871 0a30 28       		.uleb128 0x28
 1872 0a31 91060000 		.4byte	0x691
 1873 0a35 02000000 		.4byte	.LBB117
 1874 0a39 06000000 		.4byte	.LBE117-.LBB117
 1875 0a3d 01       		.byte	0x1
 1876 0a3e 84       		.byte	0x84
 1877 0a3f 6C0A0000 		.4byte	0xa6c
 1878 0a43 2E       		.uleb128 0x2e
 1879 0a44 53060000 		.4byte	0x653
 1880 0a48 02000000 		.4byte	.LBB118
 1881 0a4c 06000000 		.4byte	.LBE118-.LBB118
 1882 0a50 0F       		.byte	0xf
 1883 0a51 5C01     		.2byte	0x15c
 1884 0a53 2E       		.uleb128 0x2e
 1885 0a54 39060000 		.4byte	0x639
 1886 0a58 02000000 		.4byte	.LBB119
 1887 0a5c 06000000 		.4byte	.LBE119-.LBB119
 1888 0a60 0B       		.byte	0xb
 1889 0a61 D001     		.2byte	0x1d0
 1890 0a63 27       		.uleb128 0x27
 1891 0a64 46060000 		.4byte	0x646
 1892 0a68 20       		.byte	0x20
 1893 0a69 00       		.byte	0
 1894 0a6a 00       		.byte	0
 1895 0a6b 00       		.byte	0
 1896 0a6c 28       		.uleb128 0x28
 1897 0a6d F3060000 		.4byte	0x6f3
 1898 0a71 10000000 		.4byte	.LBB121
 1899 0a75 08000000 		.4byte	.LBE121-.LBB121
 1900 0a79 01       		.byte	0x1
 1901 0a7a 87       		.byte	0x87
 1902 0a7b B70A0000 		.4byte	0xab7
 1903 0a7f 2C       		.uleb128 0x2c
 1904 0a80 10000000 		.4byte	.LBB122
 1905 0a84 08000000 		.4byte	.LBE122-.LBB122
 1906 0a88 2D       		.uleb128 0x2d
 1907 0a89 00070000 		.4byte	0x700
 1908 0a8d 2E       		.uleb128 0x2e
 1909 0a8e 5C060000 		.4byte	0x65c
 1910 0a92 10000000 		.4byte	.LBB123
 1911 0a96 08000000 		.4byte	.LBE123-.LBB123
 1912 0a9a 0F       		.byte	0xf
 1913 0a9b 7301     		.2byte	0x173
 1914 0a9d 2E       		.uleb128 0x2e
 1915 0a9e 39060000 		.4byte	0x639
 1916 0aa2 10000000 		.4byte	.LBB124
 1917 0aa6 08000000 		.4byte	.LBE124-.LBB124
 1918 0aaa 0B       		.byte	0xb
 1919 0aab E301     		.2byte	0x1e3
 1920 0aad 27       		.uleb128 0x27
 1921 0aae 46060000 		.4byte	0x646
ARM GAS  /tmp/ccpSxgvQ.s 			page 35


 1922 0ab2 00       		.byte	0
 1923 0ab3 00       		.byte	0
 1924 0ab4 00       		.byte	0
 1925 0ab5 00       		.byte	0
 1926 0ab6 00       		.byte	0
 1927 0ab7 34       		.uleb128 0x34
 1928 0ab8 0C000000 		.4byte	.LVL17
 1929 0abc 85090000 		.4byte	0x985
 1930 0ac0 CC0A0000 		.4byte	0xacc
 1931 0ac4 30       		.uleb128 0x30
 1932 0ac5 01       		.uleb128 0x1
 1933 0ac6 50       		.byte	0x50
 1934 0ac7 03       		.uleb128 0x3
 1935 0ac8 F3       		.byte	0xf3
 1936 0ac9 01       		.uleb128 0x1
 1937 0aca 50       		.byte	0x50
 1938 0acb 00       		.byte	0
 1939 0acc 33       		.uleb128 0x33
 1940 0acd 10000000 		.4byte	.LVL18
 1941 0ad1 B80E0000 		.4byte	0xeb8
 1942 0ad5 00       		.byte	0
 1943 0ad6 35       		.uleb128 0x35
 1944 0ad7 DD040000 		.4byte	.LASF123
 1945 0adb 01       		.byte	0x1
 1946 0adc CD       		.byte	0xcd
 1947 0add FA000000 		.4byte	0xfa
 1948 0ae1 00000000 		.4byte	.LFB247
 1949 0ae5 44000000 		.4byte	.LFE247-.LFB247
 1950 0ae9 01       		.uleb128 0x1
 1951 0aea 9C       		.byte	0x9c
 1952 0aeb AA0B0000 		.4byte	0xbaa
 1953 0aef 24       		.uleb128 0x24
 1954 0af0 637000   		.ascii	"cp\000"
 1955 0af3 01       		.byte	0x1
 1956 0af4 CD       		.byte	0xcd
 1957 0af5 A1070000 		.4byte	0x7a1
 1958 0af9 87010000 		.4byte	.LLST13
 1959 0afd 36       		.uleb128 0x36
 1960 0afe 63747000 		.ascii	"ctp\000"
 1961 0b02 01       		.byte	0x1
 1962 0b03 CE       		.byte	0xce
 1963 0b04 1C020000 		.4byte	0x21c
 1964 0b08 B3010000 		.4byte	.LLST14
 1965 0b0c 31       		.uleb128 0x31
 1966 0b0d 6D7000   		.ascii	"mp\000"
 1967 0b10 01       		.byte	0x1
 1968 0b11 CF       		.byte	0xcf
 1969 0b12 0F060000 		.4byte	0x60f
 1970 0b16 36       		.uleb128 0x36
 1971 0b17 6D736700 		.ascii	"msg\000"
 1972 0b1b 01       		.byte	0x1
 1973 0b1c D0       		.byte	0xd0
 1974 0b1d FA000000 		.4byte	0xfa
 1975 0b21 C6010000 		.4byte	.LLST15
 1976 0b25 21       		.uleb128 0x21
 1977 0b26 2D040000 		.4byte	.LASF114
 1978 0b2a AA0B0000 		.4byte	0xbaa
ARM GAS  /tmp/ccpSxgvQ.s 			page 36


 1979 0b2e 37       		.uleb128 0x37
 1980 0b2f 23070000 		.4byte	0x723
 1981 0b33 06000000 		.4byte	.LBB126
 1982 0b37 02000000 		.4byte	.LBE126-.LBB126
 1983 0b3b 01       		.byte	0x1
 1984 0b3c D7       		.byte	0xd7
 1985 0b3d 25       		.uleb128 0x25
 1986 0b3e 2F070000 		.4byte	0x72f
 1987 0b42 12000000 		.4byte	.LBB128
 1988 0b46 60000000 		.4byte	.Ldebug_ranges0+0x60
 1989 0b4a 01       		.byte	0x1
 1990 0b4b DD       		.byte	0xdd
 1991 0b4c 720B0000 		.4byte	0xb72
 1992 0b50 29       		.uleb128 0x29
 1993 0b51 47070000 		.4byte	0x747
 1994 0b55 E4010000 		.4byte	.LLST16
 1995 0b59 29       		.uleb128 0x29
 1996 0b5a 3C070000 		.4byte	0x73c
 1997 0b5e 05020000 		.4byte	.LLST17
 1998 0b62 2A       		.uleb128 0x2a
 1999 0b63 60000000 		.4byte	.Ldebug_ranges0+0x60
 2000 0b67 2B       		.uleb128 0x2b
 2001 0b68 53070000 		.4byte	0x753
 2002 0b6c 18020000 		.4byte	.LLST18
 2003 0b70 00       		.byte	0
 2004 0b71 00       		.byte	0
 2005 0b72 34       		.uleb128 0x34
 2006 0b73 10000000 		.4byte	.LVL22
 2007 0b77 C00E0000 		.4byte	0xec0
 2008 0b7b 860B0000 		.4byte	0xb86
 2009 0b7f 30       		.uleb128 0x30
 2010 0b80 01       		.uleb128 0x1
 2011 0b81 50       		.byte	0x50
 2012 0b82 02       		.uleb128 0x2
 2013 0b83 76       		.byte	0x76
 2014 0b84 00       		.sleb128 0
 2015 0b85 00       		.byte	0
 2016 0b86 34       		.uleb128 0x34
 2017 0b87 34000000 		.4byte	.LVL26
 2018 0b8b D10E0000 		.4byte	0xed1
 2019 0b8f 990B0000 		.4byte	0xb99
 2020 0b93 30       		.uleb128 0x30
 2021 0b94 01       		.uleb128 0x1
 2022 0b95 50       		.byte	0x50
 2023 0b96 01       		.uleb128 0x1
 2024 0b97 37       		.byte	0x37
 2025 0b98 00       		.byte	0
 2026 0b99 2F       		.uleb128 0x2f
 2027 0b9a 3C000000 		.4byte	.LVL28
 2028 0b9e E30E0000 		.4byte	0xee3
 2029 0ba2 30       		.uleb128 0x30
 2030 0ba3 01       		.uleb128 0x1
 2031 0ba4 50       		.byte	0x50
 2032 0ba5 02       		.uleb128 0x2
 2033 0ba6 76       		.byte	0x76
 2034 0ba7 00       		.sleb128 0
 2035 0ba8 00       		.byte	0
ARM GAS  /tmp/ccpSxgvQ.s 			page 37


 2036 0ba9 00       		.byte	0
 2037 0baa 13       		.uleb128 0x13
 2038 0bab 0E070000 		.4byte	0x70e
 2039 0baf 35       		.uleb128 0x35
 2040 0bb0 3E060000 		.4byte	.LASF124
 2041 0bb4 01       		.byte	0x1
 2042 0bb5 B3       		.byte	0xb3
 2043 0bb6 FA000000 		.4byte	0xfa
 2044 0bba 00000000 		.4byte	.LFB246
 2045 0bbe 14000000 		.4byte	.LFE246-.LFB246
 2046 0bc2 01       		.uleb128 0x1
 2047 0bc3 9C       		.byte	0x9c
 2048 0bc4 7C0C0000 		.4byte	0xc7c
 2049 0bc8 24       		.uleb128 0x24
 2050 0bc9 637000   		.ascii	"cp\000"
 2051 0bcc 01       		.byte	0x1
 2052 0bcd B3       		.byte	0xb3
 2053 0bce A1070000 		.4byte	0x7a1
 2054 0bd2 36020000 		.4byte	.LLST19
 2055 0bd6 38       		.uleb128 0x38
 2056 0bd7 6D736700 		.ascii	"msg\000"
 2057 0bdb 01       		.byte	0x1
 2058 0bdc B4       		.byte	0xb4
 2059 0bdd FA000000 		.4byte	0xfa
 2060 0be1 01       		.uleb128 0x1
 2061 0be2 50       		.byte	0x50
 2062 0be3 28       		.uleb128 0x28
 2063 0be4 91060000 		.4byte	0x691
 2064 0be8 02000000 		.4byte	.LBB132
 2065 0bec 06000000 		.4byte	.LBE132-.LBB132
 2066 0bf0 01       		.byte	0x1
 2067 0bf1 B6       		.byte	0xb6
 2068 0bf2 1F0C0000 		.4byte	0xc1f
 2069 0bf6 2E       		.uleb128 0x2e
 2070 0bf7 53060000 		.4byte	0x653
 2071 0bfb 02000000 		.4byte	.LBB133
 2072 0bff 06000000 		.4byte	.LBE133-.LBB133
 2073 0c03 0F       		.byte	0xf
 2074 0c04 5C01     		.2byte	0x15c
 2075 0c06 2E       		.uleb128 0x2e
 2076 0c07 39060000 		.4byte	0x639
 2077 0c0b 02000000 		.4byte	.LBB134
 2078 0c0f 06000000 		.4byte	.LBE134-.LBB134
 2079 0c13 0B       		.byte	0xb
 2080 0c14 D001     		.2byte	0x1d0
 2081 0c16 27       		.uleb128 0x27
 2082 0c17 46060000 		.4byte	0x646
 2083 0c1b 20       		.byte	0x20
 2084 0c1c 00       		.byte	0
 2085 0c1d 00       		.byte	0
 2086 0c1e 00       		.byte	0
 2087 0c1f 28       		.uleb128 0x28
 2088 0c20 F3060000 		.4byte	0x6f3
 2089 0c24 0C000000 		.4byte	.LBB136
 2090 0c28 06000000 		.4byte	.LBE136-.LBB136
 2091 0c2c 01       		.byte	0x1
 2092 0c2d B8       		.byte	0xb8
ARM GAS  /tmp/ccpSxgvQ.s 			page 38


 2093 0c2e 6A0C0000 		.4byte	0xc6a
 2094 0c32 2C       		.uleb128 0x2c
 2095 0c33 0C000000 		.4byte	.LBB137
 2096 0c37 06000000 		.4byte	.LBE137-.LBB137
 2097 0c3b 2D       		.uleb128 0x2d
 2098 0c3c 00070000 		.4byte	0x700
 2099 0c40 2E       		.uleb128 0x2e
 2100 0c41 5C060000 		.4byte	0x65c
 2101 0c45 0C000000 		.4byte	.LBB138
 2102 0c49 06000000 		.4byte	.LBE138-.LBB138
 2103 0c4d 0F       		.byte	0xf
 2104 0c4e 7301     		.2byte	0x173
 2105 0c50 2E       		.uleb128 0x2e
 2106 0c51 39060000 		.4byte	0x639
 2107 0c55 0C000000 		.4byte	.LBB139
 2108 0c59 06000000 		.4byte	.LBE139-.LBB139
 2109 0c5d 0B       		.byte	0xb
 2110 0c5e E301     		.2byte	0x1e3
 2111 0c60 27       		.uleb128 0x27
 2112 0c61 46060000 		.4byte	0x646
 2113 0c65 00       		.byte	0
 2114 0c66 00       		.byte	0
 2115 0c67 00       		.byte	0
 2116 0c68 00       		.byte	0
 2117 0c69 00       		.byte	0
 2118 0c6a 2F       		.uleb128 0x2f
 2119 0c6b 0C000000 		.4byte	.LVL31
 2120 0c6f D60A0000 		.4byte	0xad6
 2121 0c73 30       		.uleb128 0x30
 2122 0c74 01       		.uleb128 0x1
 2123 0c75 50       		.byte	0x50
 2124 0c76 03       		.uleb128 0x3
 2125 0c77 F3       		.byte	0xf3
 2126 0c78 01       		.uleb128 0x1
 2127 0c79 50       		.byte	0x50
 2128 0c7a 00       		.byte	0
 2129 0c7b 00       		.byte	0
 2130 0c7c 39       		.uleb128 0x39
 2131 0c7d 02030000 		.4byte	.LASF125
 2132 0c81 01       		.byte	0x1
 2133 0c82 2801     		.2byte	0x128
 2134 0c84 FA000000 		.4byte	0xfa
 2135 0c88 00000000 		.4byte	.LFB249
 2136 0c8c 54000000 		.4byte	.LFE249-.LFB249
 2137 0c90 01       		.uleb128 0x1
 2138 0c91 9C       		.byte	0x9c
 2139 0c92 710D0000 		.4byte	0xd71
 2140 0c96 3A       		.uleb128 0x3a
 2141 0c97 637000   		.ascii	"cp\000"
 2142 0c9a 01       		.byte	0x1
 2143 0c9b 2801     		.2byte	0x128
 2144 0c9d A1070000 		.4byte	0x7a1
 2145 0ca1 57020000 		.4byte	.LLST20
 2146 0ca5 3B       		.uleb128 0x3b
 2147 0ca6 71030000 		.4byte	.LASF126
 2148 0caa 01       		.byte	0x1
 2149 0cab 2801     		.2byte	0x128
ARM GAS  /tmp/ccpSxgvQ.s 			page 39


 2150 0cad 1B010000 		.4byte	0x11b
 2151 0cb1 83020000 		.4byte	.LLST21
 2152 0cb5 1D       		.uleb128 0x1d
 2153 0cb6 6D7000   		.ascii	"mp\000"
 2154 0cb9 01       		.byte	0x1
 2155 0cba 2901     		.2byte	0x129
 2156 0cbc 0F060000 		.4byte	0x60f
 2157 0cc0 3C       		.uleb128 0x3c
 2158 0cc1 6D736700 		.ascii	"msg\000"
 2159 0cc5 01       		.byte	0x1
 2160 0cc6 2A01     		.2byte	0x12a
 2161 0cc8 FA000000 		.4byte	0xfa
 2162 0ccc AF020000 		.4byte	.LLST22
 2163 0cd0 21       		.uleb128 0x21
 2164 0cd1 2D040000 		.4byte	.LASF114
 2165 0cd5 810D0000 		.4byte	0xd81
 2166 0cd9 3D       		.uleb128 0x3d
 2167 0cda 23070000 		.4byte	0x723
 2168 0cde 04000000 		.4byte	.LBB141
 2169 0ce2 06000000 		.4byte	.LBE141-.LBB141
 2170 0ce6 01       		.byte	0x1
 2171 0ce7 3101     		.2byte	0x131
 2172 0ce9 FD0C0000 		.4byte	0xcfd
 2173 0ced 37       		.uleb128 0x37
 2174 0cee 65060000 		.4byte	0x665
 2175 0cf2 04000000 		.4byte	.LBB143
 2176 0cf6 02000000 		.4byte	.LBE143-.LBB143
 2177 0cfa 04       		.byte	0x4
 2178 0cfb 92       		.byte	0x92
 2179 0cfc 00       		.byte	0
 2180 0cfd 3E       		.uleb128 0x3e
 2181 0cfe 2F070000 		.4byte	0x72f
 2182 0d02 16000000 		.4byte	.LBB145
 2183 0d06 78000000 		.4byte	.Ldebug_ranges0+0x78
 2184 0d0a 01       		.byte	0x1
 2185 0d0b 3701     		.2byte	0x137
 2186 0d0d 330D0000 		.4byte	0xd33
 2187 0d11 29       		.uleb128 0x29
 2188 0d12 47070000 		.4byte	0x747
 2189 0d16 D8020000 		.4byte	.LLST23
 2190 0d1a 29       		.uleb128 0x29
 2191 0d1b 3C070000 		.4byte	0x73c
 2192 0d1f F9020000 		.4byte	.LLST24
 2193 0d23 2A       		.uleb128 0x2a
 2194 0d24 78000000 		.4byte	.Ldebug_ranges0+0x78
 2195 0d28 2B       		.uleb128 0x2b
 2196 0d29 53070000 		.4byte	0x753
 2197 0d2d 0C030000 		.4byte	.LLST25
 2198 0d31 00       		.byte	0
 2199 0d32 00       		.byte	0
 2200 0d33 34       		.uleb128 0x34
 2201 0d34 14000000 		.4byte	.LVL34
 2202 0d38 C00E0000 		.4byte	0xec0
 2203 0d3c 470D0000 		.4byte	0xd47
 2204 0d40 30       		.uleb128 0x30
 2205 0d41 01       		.uleb128 0x1
 2206 0d42 50       		.byte	0x50
ARM GAS  /tmp/ccpSxgvQ.s 			page 40


 2207 0d43 02       		.uleb128 0x2
 2208 0d44 77       		.byte	0x77
 2209 0d45 00       		.sleb128 0
 2210 0d46 00       		.byte	0
 2211 0d47 34       		.uleb128 0x34
 2212 0d48 3C000000 		.4byte	.LVL38
 2213 0d4c F40E0000 		.4byte	0xef4
 2214 0d50 600D0000 		.4byte	0xd60
 2215 0d54 30       		.uleb128 0x30
 2216 0d55 01       		.uleb128 0x1
 2217 0d56 51       		.byte	0x51
 2218 0d57 02       		.uleb128 0x2
 2219 0d58 78       		.byte	0x78
 2220 0d59 00       		.sleb128 0
 2221 0d5a 30       		.uleb128 0x30
 2222 0d5b 01       		.uleb128 0x1
 2223 0d5c 50       		.byte	0x50
 2224 0d5d 01       		.uleb128 0x1
 2225 0d5e 37       		.byte	0x37
 2226 0d5f 00       		.byte	0
 2227 0d60 2F       		.uleb128 0x2f
 2228 0d61 48000000 		.4byte	.LVL41
 2229 0d65 E30E0000 		.4byte	0xee3
 2230 0d69 30       		.uleb128 0x30
 2231 0d6a 01       		.uleb128 0x1
 2232 0d6b 50       		.byte	0x50
 2233 0d6c 02       		.uleb128 0x2
 2234 0d6d 77       		.byte	0x77
 2235 0d6e 00       		.sleb128 0
 2236 0d6f 00       		.byte	0
 2237 0d70 00       		.byte	0
 2238 0d71 15       		.uleb128 0x15
 2239 0d72 E2050000 		.4byte	0x5e2
 2240 0d76 810D0000 		.4byte	0xd81
 2241 0d7a 16       		.uleb128 0x16
 2242 0d7b 2F040000 		.4byte	0x42f
 2243 0d7f 12       		.byte	0x12
 2244 0d80 00       		.byte	0
 2245 0d81 13       		.uleb128 0x13
 2246 0d82 710D0000 		.4byte	0xd71
 2247 0d86 39       		.uleb128 0x39
 2248 0d87 A3060000 		.4byte	.LASF127
 2249 0d8b 01       		.byte	0x1
 2250 0d8c 0201     		.2byte	0x102
 2251 0d8e FA000000 		.4byte	0xfa
 2252 0d92 00000000 		.4byte	.LFB248
 2253 0d96 14000000 		.4byte	.LFE248-.LFB248
 2254 0d9a 01       		.uleb128 0x1
 2255 0d9b 9C       		.byte	0x9c
 2256 0d9c 6F0E0000 		.4byte	0xe6f
 2257 0da0 3A       		.uleb128 0x3a
 2258 0da1 637000   		.ascii	"cp\000"
 2259 0da4 01       		.byte	0x1
 2260 0da5 0201     		.2byte	0x102
 2261 0da7 A1070000 		.4byte	0x7a1
 2262 0dab 2A030000 		.4byte	.LLST26
 2263 0daf 3B       		.uleb128 0x3b
ARM GAS  /tmp/ccpSxgvQ.s 			page 41


 2264 0db0 71030000 		.4byte	.LASF126
 2265 0db4 01       		.byte	0x1
 2266 0db5 0201     		.2byte	0x102
 2267 0db7 1B010000 		.4byte	0x11b
 2268 0dbb 4B030000 		.4byte	.LLST27
 2269 0dbf 3F       		.uleb128 0x3f
 2270 0dc0 6D736700 		.ascii	"msg\000"
 2271 0dc4 01       		.byte	0x1
 2272 0dc5 0301     		.2byte	0x103
 2273 0dc7 FA000000 		.4byte	0xfa
 2274 0dcb 01       		.uleb128 0x1
 2275 0dcc 50       		.byte	0x50
 2276 0dcd 3D       		.uleb128 0x3d
 2277 0dce 91060000 		.4byte	0x691
 2278 0dd2 02000000 		.4byte	.LBB153
 2279 0dd6 06000000 		.4byte	.LBE153-.LBB153
 2280 0dda 01       		.byte	0x1
 2281 0ddb 0501     		.2byte	0x105
 2282 0ddd 0A0E0000 		.4byte	0xe0a
 2283 0de1 2E       		.uleb128 0x2e
 2284 0de2 53060000 		.4byte	0x653
 2285 0de6 02000000 		.4byte	.LBB154
 2286 0dea 06000000 		.4byte	.LBE154-.LBB154
 2287 0dee 0F       		.byte	0xf
 2288 0def 5C01     		.2byte	0x15c
 2289 0df1 2E       		.uleb128 0x2e
 2290 0df2 39060000 		.4byte	0x639
 2291 0df6 02000000 		.4byte	.LBB155
 2292 0dfa 06000000 		.4byte	.LBE155-.LBB155
 2293 0dfe 0B       		.byte	0xb
 2294 0dff D001     		.2byte	0x1d0
 2295 0e01 27       		.uleb128 0x27
 2296 0e02 46060000 		.4byte	0x646
 2297 0e06 20       		.byte	0x20
 2298 0e07 00       		.byte	0
 2299 0e08 00       		.byte	0
 2300 0e09 00       		.byte	0
 2301 0e0a 3D       		.uleb128 0x3d
 2302 0e0b F3060000 		.4byte	0x6f3
 2303 0e0f 0C000000 		.4byte	.LBB157
 2304 0e13 06000000 		.4byte	.LBE157-.LBB157
 2305 0e17 01       		.byte	0x1
 2306 0e18 0701     		.2byte	0x107
 2307 0e1a 560E0000 		.4byte	0xe56
 2308 0e1e 2C       		.uleb128 0x2c
 2309 0e1f 0C000000 		.4byte	.LBB158
 2310 0e23 06000000 		.4byte	.LBE158-.LBB158
 2311 0e27 2D       		.uleb128 0x2d
 2312 0e28 00070000 		.4byte	0x700
 2313 0e2c 2E       		.uleb128 0x2e
 2314 0e2d 5C060000 		.4byte	0x65c
 2315 0e31 0C000000 		.4byte	.LBB159
 2316 0e35 06000000 		.4byte	.LBE159-.LBB159
 2317 0e39 0F       		.byte	0xf
 2318 0e3a 7301     		.2byte	0x173
 2319 0e3c 2E       		.uleb128 0x2e
 2320 0e3d 39060000 		.4byte	0x639
ARM GAS  /tmp/ccpSxgvQ.s 			page 42


 2321 0e41 0C000000 		.4byte	.LBB160
 2322 0e45 06000000 		.4byte	.LBE160-.LBB160
 2323 0e49 0B       		.byte	0xb
 2324 0e4a E301     		.2byte	0x1e3
 2325 0e4c 27       		.uleb128 0x27
 2326 0e4d 46060000 		.4byte	0x646
 2327 0e51 00       		.byte	0
 2328 0e52 00       		.byte	0
 2329 0e53 00       		.byte	0
 2330 0e54 00       		.byte	0
 2331 0e55 00       		.byte	0
 2332 0e56 2F       		.uleb128 0x2f
 2333 0e57 0C000000 		.4byte	.LVL44
 2334 0e5b 7C0C0000 		.4byte	0xc7c
 2335 0e5f 30       		.uleb128 0x30
 2336 0e60 01       		.uleb128 0x1
 2337 0e61 51       		.byte	0x51
 2338 0e62 03       		.uleb128 0x3
 2339 0e63 F3       		.byte	0xf3
 2340 0e64 01       		.uleb128 0x1
 2341 0e65 51       		.byte	0x51
 2342 0e66 30       		.uleb128 0x30
 2343 0e67 01       		.uleb128 0x1
 2344 0e68 50       		.byte	0x50
 2345 0e69 03       		.uleb128 0x3
 2346 0e6a F3       		.byte	0xf3
 2347 0e6b 01       		.uleb128 0x1
 2348 0e6c 50       		.byte	0x50
 2349 0e6d 00       		.byte	0
 2350 0e6e 00       		.byte	0
 2351 0e6f 40       		.uleb128 0x40
 2352 0e70 B7000000 		.4byte	.LASF128
 2353 0e74 10       		.byte	0x10
 2354 0e75 FA06     		.2byte	0x6fa
 2355 0e77 7B0E0000 		.4byte	0xe7b
 2356 0e7b 14       		.uleb128 0x14
 2357 0e7c A2000000 		.4byte	0xa2
 2358 0e80 41       		.uleb128 0x41
 2359 0e81 636800   		.ascii	"ch\000"
 2360 0e84 02       		.byte	0x2
 2361 0e85 0B02     		.2byte	0x20b
 2362 0e87 C8030000 		.4byte	0x3c8
 2363 0e8b 42       		.uleb128 0x42
 2364 0e8c 5C020000 		.4byte	.LASF129
 2365 0e90 02       		.byte	0x2
 2366 0e91 1802     		.2byte	0x218
 2367 0e93 A20E0000 		.4byte	0xea2
 2368 0e97 0C       		.uleb128 0xc
 2369 0e98 1C020000 		.4byte	0x21c
 2370 0e9c 0C       		.uleb128 0xc
 2371 0e9d FA000000 		.4byte	0xfa
 2372 0ea1 00       		.byte	0
 2373 0ea2 43       		.uleb128 0x43
 2374 0ea3 AA040000 		.4byte	.LASF137
 2375 0ea7 02       		.byte	0x2
 2376 0ea8 1502     		.2byte	0x215
 2377 0eaa 1C020000 		.4byte	0x21c
ARM GAS  /tmp/ccpSxgvQ.s 			page 43


 2378 0eae B80E0000 		.4byte	0xeb8
 2379 0eb2 0C       		.uleb128 0xc
 2380 0eb3 1C020000 		.4byte	0x21c
 2381 0eb7 00       		.byte	0
 2382 0eb8 44       		.uleb128 0x44
 2383 0eb9 92010000 		.4byte	.LASF138
 2384 0ebd 02       		.byte	0x2
 2385 0ebe 1902     		.2byte	0x219
 2386 0ec0 45       		.uleb128 0x45
 2387 0ec1 FC010000 		.4byte	.LASF130
 2388 0ec5 04       		.byte	0x4
 2389 0ec6 6D       		.byte	0x6d
 2390 0ec7 D10E0000 		.4byte	0xed1
 2391 0ecb 0C       		.uleb128 0xc
 2392 0ecc 0F060000 		.4byte	0x60f
 2393 0ed0 00       		.byte	0
 2394 0ed1 42       		.uleb128 0x42
 2395 0ed2 66040000 		.4byte	.LASF131
 2396 0ed6 02       		.byte	0x2
 2397 0ed7 1602     		.2byte	0x216
 2398 0ed9 E30E0000 		.4byte	0xee3
 2399 0edd 0C       		.uleb128 0xc
 2400 0ede D9000000 		.4byte	0xd9
 2401 0ee2 00       		.byte	0
 2402 0ee3 45       		.uleb128 0x45
 2403 0ee4 77010000 		.4byte	.LASF132
 2404 0ee8 04       		.byte	0x4
 2405 0ee9 69       		.byte	0x69
 2406 0eea F40E0000 		.4byte	0xef4
 2407 0eee 0C       		.uleb128 0xc
 2408 0eef 0F060000 		.4byte	0x60f
 2409 0ef3 00       		.byte	0
 2410 0ef4 46       		.uleb128 0x46
 2411 0ef5 C4060000 		.4byte	.LASF133
 2412 0ef9 02       		.byte	0x2
 2413 0efa 1702     		.2byte	0x217
 2414 0efc FA000000 		.4byte	0xfa
 2415 0f00 0C       		.uleb128 0xc
 2416 0f01 D9000000 		.4byte	0xd9
 2417 0f05 0C       		.uleb128 0xc
 2418 0f06 1B010000 		.4byte	0x11b
 2419 0f0a 00       		.byte	0
 2420 0f0b 00       		.byte	0
 2421              		.section	.debug_abbrev,"",%progbits
 2422              	.Ldebug_abbrev0:
 2423 0000 01       		.uleb128 0x1
 2424 0001 11       		.uleb128 0x11
 2425 0002 01       		.byte	0x1
 2426 0003 25       		.uleb128 0x25
 2427 0004 0E       		.uleb128 0xe
 2428 0005 13       		.uleb128 0x13
 2429 0006 0B       		.uleb128 0xb
 2430 0007 03       		.uleb128 0x3
 2431 0008 0E       		.uleb128 0xe
 2432 0009 1B       		.uleb128 0x1b
 2433 000a 0E       		.uleb128 0xe
 2434 000b 55       		.uleb128 0x55
ARM GAS  /tmp/ccpSxgvQ.s 			page 44


 2435 000c 17       		.uleb128 0x17
 2436 000d 11       		.uleb128 0x11
 2437 000e 01       		.uleb128 0x1
 2438 000f 10       		.uleb128 0x10
 2439 0010 17       		.uleb128 0x17
 2440 0011 00       		.byte	0
 2441 0012 00       		.byte	0
 2442 0013 02       		.uleb128 0x2
 2443 0014 24       		.uleb128 0x24
 2444 0015 00       		.byte	0
 2445 0016 0B       		.uleb128 0xb
 2446 0017 0B       		.uleb128 0xb
 2447 0018 3E       		.uleb128 0x3e
 2448 0019 0B       		.uleb128 0xb
 2449 001a 03       		.uleb128 0x3
 2450 001b 08       		.uleb128 0x8
 2451 001c 00       		.byte	0
 2452 001d 00       		.byte	0
 2453 001e 03       		.uleb128 0x3
 2454 001f 24       		.uleb128 0x24
 2455 0020 00       		.byte	0
 2456 0021 0B       		.uleb128 0xb
 2457 0022 0B       		.uleb128 0xb
 2458 0023 3E       		.uleb128 0x3e
 2459 0024 0B       		.uleb128 0xb
 2460 0025 03       		.uleb128 0x3
 2461 0026 0E       		.uleb128 0xe
 2462 0027 00       		.byte	0
 2463 0028 00       		.byte	0
 2464 0029 04       		.uleb128 0x4
 2465 002a 16       		.uleb128 0x16
 2466 002b 00       		.byte	0
 2467 002c 03       		.uleb128 0x3
 2468 002d 0E       		.uleb128 0xe
 2469 002e 3A       		.uleb128 0x3a
 2470 002f 0B       		.uleb128 0xb
 2471 0030 3B       		.uleb128 0x3b
 2472 0031 0B       		.uleb128 0xb
 2473 0032 49       		.uleb128 0x49
 2474 0033 13       		.uleb128 0x13
 2475 0034 00       		.byte	0
 2476 0035 00       		.byte	0
 2477 0036 05       		.uleb128 0x5
 2478 0037 13       		.uleb128 0x13
 2479 0038 01       		.byte	0x1
 2480 0039 03       		.uleb128 0x3
 2481 003a 0E       		.uleb128 0xe
 2482 003b 0B       		.uleb128 0xb
 2483 003c 0B       		.uleb128 0xb
 2484 003d 3A       		.uleb128 0x3a
 2485 003e 0B       		.uleb128 0xb
 2486 003f 3B       		.uleb128 0x3b
 2487 0040 0B       		.uleb128 0xb
 2488 0041 01       		.uleb128 0x1
 2489 0042 13       		.uleb128 0x13
 2490 0043 00       		.byte	0
 2491 0044 00       		.byte	0
ARM GAS  /tmp/ccpSxgvQ.s 			page 45


 2492 0045 06       		.uleb128 0x6
 2493 0046 0D       		.uleb128 0xd
 2494 0047 00       		.byte	0
 2495 0048 03       		.uleb128 0x3
 2496 0049 0E       		.uleb128 0xe
 2497 004a 3A       		.uleb128 0x3a
 2498 004b 0B       		.uleb128 0xb
 2499 004c 3B       		.uleb128 0x3b
 2500 004d 0B       		.uleb128 0xb
 2501 004e 49       		.uleb128 0x49
 2502 004f 13       		.uleb128 0x13
 2503 0050 38       		.uleb128 0x38
 2504 0051 0B       		.uleb128 0xb
 2505 0052 00       		.byte	0
 2506 0053 00       		.byte	0
 2507 0054 07       		.uleb128 0x7
 2508 0055 0D       		.uleb128 0xd
 2509 0056 00       		.byte	0
 2510 0057 03       		.uleb128 0x3
 2511 0058 08       		.uleb128 0x8
 2512 0059 3A       		.uleb128 0x3a
 2513 005a 0B       		.uleb128 0xb
 2514 005b 3B       		.uleb128 0x3b
 2515 005c 05       		.uleb128 0x5
 2516 005d 49       		.uleb128 0x49
 2517 005e 13       		.uleb128 0x13
 2518 005f 38       		.uleb128 0x38
 2519 0060 0B       		.uleb128 0xb
 2520 0061 00       		.byte	0
 2521 0062 00       		.byte	0
 2522 0063 08       		.uleb128 0x8
 2523 0064 0D       		.uleb128 0xd
 2524 0065 00       		.byte	0
 2525 0066 03       		.uleb128 0x3
 2526 0067 0E       		.uleb128 0xe
 2527 0068 3A       		.uleb128 0x3a
 2528 0069 0B       		.uleb128 0xb
 2529 006a 3B       		.uleb128 0x3b
 2530 006b 05       		.uleb128 0x5
 2531 006c 49       		.uleb128 0x49
 2532 006d 13       		.uleb128 0x13
 2533 006e 38       		.uleb128 0x38
 2534 006f 0B       		.uleb128 0xb
 2535 0070 00       		.byte	0
 2536 0071 00       		.byte	0
 2537 0072 09       		.uleb128 0x9
 2538 0073 0F       		.uleb128 0xf
 2539 0074 00       		.byte	0
 2540 0075 0B       		.uleb128 0xb
 2541 0076 0B       		.uleb128 0xb
 2542 0077 49       		.uleb128 0x49
 2543 0078 13       		.uleb128 0x13
 2544 0079 00       		.byte	0
 2545 007a 00       		.byte	0
 2546 007b 0A       		.uleb128 0xa
 2547 007c 13       		.uleb128 0x13
 2548 007d 01       		.byte	0x1
ARM GAS  /tmp/ccpSxgvQ.s 			page 46


 2549 007e 03       		.uleb128 0x3
 2550 007f 0E       		.uleb128 0xe
 2551 0080 0B       		.uleb128 0xb
 2552 0081 0B       		.uleb128 0xb
 2553 0082 3A       		.uleb128 0x3a
 2554 0083 0B       		.uleb128 0xb
 2555 0084 3B       		.uleb128 0x3b
 2556 0085 05       		.uleb128 0x5
 2557 0086 01       		.uleb128 0x1
 2558 0087 13       		.uleb128 0x13
 2559 0088 00       		.byte	0
 2560 0089 00       		.byte	0
 2561 008a 0B       		.uleb128 0xb
 2562 008b 15       		.uleb128 0x15
 2563 008c 01       		.byte	0x1
 2564 008d 27       		.uleb128 0x27
 2565 008e 19       		.uleb128 0x19
 2566 008f 01       		.uleb128 0x1
 2567 0090 13       		.uleb128 0x13
 2568 0091 00       		.byte	0
 2569 0092 00       		.byte	0
 2570 0093 0C       		.uleb128 0xc
 2571 0094 05       		.uleb128 0x5
 2572 0095 00       		.byte	0
 2573 0096 49       		.uleb128 0x49
 2574 0097 13       		.uleb128 0x13
 2575 0098 00       		.byte	0
 2576 0099 00       		.byte	0
 2577 009a 0D       		.uleb128 0xd
 2578 009b 0F       		.uleb128 0xf
 2579 009c 00       		.byte	0
 2580 009d 0B       		.uleb128 0xb
 2581 009e 0B       		.uleb128 0xb
 2582 009f 00       		.byte	0
 2583 00a0 00       		.byte	0
 2584 00a1 0E       		.uleb128 0xe
 2585 00a2 13       		.uleb128 0x13
 2586 00a3 01       		.byte	0x1
 2587 00a4 03       		.uleb128 0x3
 2588 00a5 0E       		.uleb128 0xe
 2589 00a6 0B       		.uleb128 0xb
 2590 00a7 05       		.uleb128 0x5
 2591 00a8 3A       		.uleb128 0x3a
 2592 00a9 0B       		.uleb128 0xb
 2593 00aa 3B       		.uleb128 0x3b
 2594 00ab 05       		.uleb128 0x5
 2595 00ac 01       		.uleb128 0x1
 2596 00ad 13       		.uleb128 0x13
 2597 00ae 00       		.byte	0
 2598 00af 00       		.byte	0
 2599 00b0 0F       		.uleb128 0xf
 2600 00b1 0D       		.uleb128 0xd
 2601 00b2 00       		.byte	0
 2602 00b3 03       		.uleb128 0x3
 2603 00b4 08       		.uleb128 0x8
 2604 00b5 3A       		.uleb128 0x3a
 2605 00b6 0B       		.uleb128 0xb
ARM GAS  /tmp/ccpSxgvQ.s 			page 47


 2606 00b7 3B       		.uleb128 0x3b
 2607 00b8 0B       		.uleb128 0xb
 2608 00b9 49       		.uleb128 0x49
 2609 00ba 13       		.uleb128 0x13
 2610 00bb 38       		.uleb128 0x38
 2611 00bc 0B       		.uleb128 0xb
 2612 00bd 00       		.byte	0
 2613 00be 00       		.byte	0
 2614 00bf 10       		.uleb128 0x10
 2615 00c0 13       		.uleb128 0x13
 2616 00c1 01       		.byte	0x1
 2617 00c2 0B       		.uleb128 0xb
 2618 00c3 0B       		.uleb128 0xb
 2619 00c4 3A       		.uleb128 0x3a
 2620 00c5 0B       		.uleb128 0xb
 2621 00c6 3B       		.uleb128 0x3b
 2622 00c7 0B       		.uleb128 0xb
 2623 00c8 01       		.uleb128 0x1
 2624 00c9 13       		.uleb128 0x13
 2625 00ca 00       		.byte	0
 2626 00cb 00       		.byte	0
 2627 00cc 11       		.uleb128 0x11
 2628 00cd 17       		.uleb128 0x17
 2629 00ce 01       		.byte	0x1
 2630 00cf 0B       		.uleb128 0xb
 2631 00d0 0B       		.uleb128 0xb
 2632 00d1 3A       		.uleb128 0x3a
 2633 00d2 0B       		.uleb128 0xb
 2634 00d3 3B       		.uleb128 0x3b
 2635 00d4 0B       		.uleb128 0xb
 2636 00d5 01       		.uleb128 0x1
 2637 00d6 13       		.uleb128 0x13
 2638 00d7 00       		.byte	0
 2639 00d8 00       		.byte	0
 2640 00d9 12       		.uleb128 0x12
 2641 00da 0D       		.uleb128 0xd
 2642 00db 00       		.byte	0
 2643 00dc 03       		.uleb128 0x3
 2644 00dd 0E       		.uleb128 0xe
 2645 00de 3A       		.uleb128 0x3a
 2646 00df 0B       		.uleb128 0xb
 2647 00e0 3B       		.uleb128 0x3b
 2648 00e1 05       		.uleb128 0x5
 2649 00e2 49       		.uleb128 0x49
 2650 00e3 13       		.uleb128 0x13
 2651 00e4 00       		.byte	0
 2652 00e5 00       		.byte	0
 2653 00e6 13       		.uleb128 0x13
 2654 00e7 26       		.uleb128 0x26
 2655 00e8 00       		.byte	0
 2656 00e9 49       		.uleb128 0x49
 2657 00ea 13       		.uleb128 0x13
 2658 00eb 00       		.byte	0
 2659 00ec 00       		.byte	0
 2660 00ed 14       		.uleb128 0x14
 2661 00ee 35       		.uleb128 0x35
 2662 00ef 00       		.byte	0
ARM GAS  /tmp/ccpSxgvQ.s 			page 48


 2663 00f0 49       		.uleb128 0x49
 2664 00f1 13       		.uleb128 0x13
 2665 00f2 00       		.byte	0
 2666 00f3 00       		.byte	0
 2667 00f4 15       		.uleb128 0x15
 2668 00f5 01       		.uleb128 0x1
 2669 00f6 01       		.byte	0x1
 2670 00f7 49       		.uleb128 0x49
 2671 00f8 13       		.uleb128 0x13
 2672 00f9 01       		.uleb128 0x1
 2673 00fa 13       		.uleb128 0x13
 2674 00fb 00       		.byte	0
 2675 00fc 00       		.byte	0
 2676 00fd 16       		.uleb128 0x16
 2677 00fe 21       		.uleb128 0x21
 2678 00ff 00       		.byte	0
 2679 0100 49       		.uleb128 0x49
 2680 0101 13       		.uleb128 0x13
 2681 0102 2F       		.uleb128 0x2f
 2682 0103 0B       		.uleb128 0xb
 2683 0104 00       		.byte	0
 2684 0105 00       		.byte	0
 2685 0106 17       		.uleb128 0x17
 2686 0107 2E       		.uleb128 0x2e
 2687 0108 01       		.byte	0x1
 2688 0109 03       		.uleb128 0x3
 2689 010a 0E       		.uleb128 0xe
 2690 010b 3A       		.uleb128 0x3a
 2691 010c 0B       		.uleb128 0xb
 2692 010d 3B       		.uleb128 0x3b
 2693 010e 05       		.uleb128 0x5
 2694 010f 27       		.uleb128 0x27
 2695 0110 19       		.uleb128 0x19
 2696 0111 20       		.uleb128 0x20
 2697 0112 0B       		.uleb128 0xb
 2698 0113 01       		.uleb128 0x1
 2699 0114 13       		.uleb128 0x13
 2700 0115 00       		.byte	0
 2701 0116 00       		.byte	0
 2702 0117 18       		.uleb128 0x18
 2703 0118 05       		.uleb128 0x5
 2704 0119 00       		.byte	0
 2705 011a 03       		.uleb128 0x3
 2706 011b 0E       		.uleb128 0xe
 2707 011c 3A       		.uleb128 0x3a
 2708 011d 0B       		.uleb128 0xb
 2709 011e 3B       		.uleb128 0x3b
 2710 011f 05       		.uleb128 0x5
 2711 0120 49       		.uleb128 0x49
 2712 0121 13       		.uleb128 0x13
 2713 0122 00       		.byte	0
 2714 0123 00       		.byte	0
 2715 0124 19       		.uleb128 0x19
 2716 0125 2E       		.uleb128 0x2e
 2717 0126 00       		.byte	0
 2718 0127 03       		.uleb128 0x3
 2719 0128 0E       		.uleb128 0xe
ARM GAS  /tmp/ccpSxgvQ.s 			page 49


 2720 0129 3A       		.uleb128 0x3a
 2721 012a 0B       		.uleb128 0xb
 2722 012b 3B       		.uleb128 0x3b
 2723 012c 05       		.uleb128 0x5
 2724 012d 27       		.uleb128 0x27
 2725 012e 19       		.uleb128 0x19
 2726 012f 20       		.uleb128 0x20
 2727 0130 0B       		.uleb128 0xb
 2728 0131 00       		.byte	0
 2729 0132 00       		.byte	0
 2730 0133 1A       		.uleb128 0x1a
 2731 0134 2E       		.uleb128 0x2e
 2732 0135 00       		.byte	0
 2733 0136 03       		.uleb128 0x3
 2734 0137 0E       		.uleb128 0xe
 2735 0138 3A       		.uleb128 0x3a
 2736 0139 0B       		.uleb128 0xb
 2737 013a 3B       		.uleb128 0x3b
 2738 013b 0B       		.uleb128 0xb
 2739 013c 27       		.uleb128 0x27
 2740 013d 19       		.uleb128 0x19
 2741 013e 49       		.uleb128 0x49
 2742 013f 13       		.uleb128 0x13
 2743 0140 20       		.uleb128 0x20
 2744 0141 0B       		.uleb128 0xb
 2745 0142 00       		.byte	0
 2746 0143 00       		.byte	0
 2747 0144 1B       		.uleb128 0x1b
 2748 0145 05       		.uleb128 0x5
 2749 0146 00       		.byte	0
 2750 0147 03       		.uleb128 0x3
 2751 0148 08       		.uleb128 0x8
 2752 0149 3A       		.uleb128 0x3a
 2753 014a 0B       		.uleb128 0xb
 2754 014b 3B       		.uleb128 0x3b
 2755 014c 05       		.uleb128 0x5
 2756 014d 49       		.uleb128 0x49
 2757 014e 13       		.uleb128 0x13
 2758 014f 00       		.byte	0
 2759 0150 00       		.byte	0
 2760 0151 1C       		.uleb128 0x1c
 2761 0152 2E       		.uleb128 0x2e
 2762 0153 01       		.byte	0x1
 2763 0154 03       		.uleb128 0x3
 2764 0155 0E       		.uleb128 0xe
 2765 0156 3A       		.uleb128 0x3a
 2766 0157 0B       		.uleb128 0xb
 2767 0158 3B       		.uleb128 0x3b
 2768 0159 05       		.uleb128 0x5
 2769 015a 27       		.uleb128 0x27
 2770 015b 19       		.uleb128 0x19
 2771 015c 49       		.uleb128 0x49
 2772 015d 13       		.uleb128 0x13
 2773 015e 20       		.uleb128 0x20
 2774 015f 0B       		.uleb128 0xb
 2775 0160 01       		.uleb128 0x1
 2776 0161 13       		.uleb128 0x13
ARM GAS  /tmp/ccpSxgvQ.s 			page 50


 2777 0162 00       		.byte	0
 2778 0163 00       		.byte	0
 2779 0164 1D       		.uleb128 0x1d
 2780 0165 34       		.uleb128 0x34
 2781 0166 00       		.byte	0
 2782 0167 03       		.uleb128 0x3
 2783 0168 08       		.uleb128 0x8
 2784 0169 3A       		.uleb128 0x3a
 2785 016a 0B       		.uleb128 0xb
 2786 016b 3B       		.uleb128 0x3b
 2787 016c 05       		.uleb128 0x5
 2788 016d 49       		.uleb128 0x49
 2789 016e 13       		.uleb128 0x13
 2790 016f 00       		.byte	0
 2791 0170 00       		.byte	0
 2792 0171 1E       		.uleb128 0x1e
 2793 0172 34       		.uleb128 0x34
 2794 0173 00       		.byte	0
 2795 0174 03       		.uleb128 0x3
 2796 0175 0E       		.uleb128 0xe
 2797 0176 49       		.uleb128 0x49
 2798 0177 13       		.uleb128 0x13
 2799 0178 34       		.uleb128 0x34
 2800 0179 19       		.uleb128 0x19
 2801 017a 1C       		.uleb128 0x1c
 2802 017b 0E       		.uleb128 0xe
 2803 017c 00       		.byte	0
 2804 017d 00       		.byte	0
 2805 017e 1F       		.uleb128 0x1f
 2806 017f 2E       		.uleb128 0x2e
 2807 0180 01       		.byte	0x1
 2808 0181 3F       		.uleb128 0x3f
 2809 0182 19       		.uleb128 0x19
 2810 0183 03       		.uleb128 0x3
 2811 0184 0E       		.uleb128 0xe
 2812 0185 3A       		.uleb128 0x3a
 2813 0186 0B       		.uleb128 0xb
 2814 0187 3B       		.uleb128 0x3b
 2815 0188 0B       		.uleb128 0xb
 2816 0189 27       		.uleb128 0x27
 2817 018a 19       		.uleb128 0x19
 2818 018b 11       		.uleb128 0x11
 2819 018c 01       		.uleb128 0x1
 2820 018d 12       		.uleb128 0x12
 2821 018e 06       		.uleb128 0x6
 2822 018f 40       		.uleb128 0x40
 2823 0190 18       		.uleb128 0x18
 2824 0191 9742     		.uleb128 0x2117
 2825 0193 19       		.uleb128 0x19
 2826 0194 01       		.uleb128 0x1
 2827 0195 13       		.uleb128 0x13
 2828 0196 00       		.byte	0
 2829 0197 00       		.byte	0
 2830 0198 20       		.uleb128 0x20
 2831 0199 05       		.uleb128 0x5
 2832 019a 00       		.byte	0
 2833 019b 03       		.uleb128 0x3
ARM GAS  /tmp/ccpSxgvQ.s 			page 51


 2834 019c 08       		.uleb128 0x8
 2835 019d 3A       		.uleb128 0x3a
 2836 019e 0B       		.uleb128 0xb
 2837 019f 3B       		.uleb128 0x3b
 2838 01a0 0B       		.uleb128 0xb
 2839 01a1 49       		.uleb128 0x49
 2840 01a2 13       		.uleb128 0x13
 2841 01a3 02       		.uleb128 0x2
 2842 01a4 18       		.uleb128 0x18
 2843 01a5 00       		.byte	0
 2844 01a6 00       		.byte	0
 2845 01a7 21       		.uleb128 0x21
 2846 01a8 34       		.uleb128 0x34
 2847 01a9 00       		.byte	0
 2848 01aa 03       		.uleb128 0x3
 2849 01ab 0E       		.uleb128 0xe
 2850 01ac 49       		.uleb128 0x49
 2851 01ad 13       		.uleb128 0x13
 2852 01ae 34       		.uleb128 0x34
 2853 01af 19       		.uleb128 0x19
 2854 01b0 00       		.byte	0
 2855 01b1 00       		.byte	0
 2856 01b2 22       		.uleb128 0x22
 2857 01b3 1D       		.uleb128 0x1d
 2858 01b4 01       		.byte	0x1
 2859 01b5 31       		.uleb128 0x31
 2860 01b6 13       		.uleb128 0x13
 2861 01b7 11       		.uleb128 0x11
 2862 01b8 01       		.uleb128 0x1
 2863 01b9 12       		.uleb128 0x12
 2864 01ba 06       		.uleb128 0x6
 2865 01bb 58       		.uleb128 0x58
 2866 01bc 0B       		.uleb128 0xb
 2867 01bd 59       		.uleb128 0x59
 2868 01be 0B       		.uleb128 0xb
 2869 01bf 00       		.byte	0
 2870 01c0 00       		.byte	0
 2871 01c1 23       		.uleb128 0x23
 2872 01c2 05       		.uleb128 0x5
 2873 01c3 00       		.byte	0
 2874 01c4 31       		.uleb128 0x31
 2875 01c5 13       		.uleb128 0x13
 2876 01c6 02       		.uleb128 0x2
 2877 01c7 18       		.uleb128 0x18
 2878 01c8 00       		.byte	0
 2879 01c9 00       		.byte	0
 2880 01ca 24       		.uleb128 0x24
 2881 01cb 05       		.uleb128 0x5
 2882 01cc 00       		.byte	0
 2883 01cd 03       		.uleb128 0x3
 2884 01ce 08       		.uleb128 0x8
 2885 01cf 3A       		.uleb128 0x3a
 2886 01d0 0B       		.uleb128 0xb
 2887 01d1 3B       		.uleb128 0x3b
 2888 01d2 0B       		.uleb128 0xb
 2889 01d3 49       		.uleb128 0x49
 2890 01d4 13       		.uleb128 0x13
ARM GAS  /tmp/ccpSxgvQ.s 			page 52


 2891 01d5 02       		.uleb128 0x2
 2892 01d6 17       		.uleb128 0x17
 2893 01d7 00       		.byte	0
 2894 01d8 00       		.byte	0
 2895 01d9 25       		.uleb128 0x25
 2896 01da 1D       		.uleb128 0x1d
 2897 01db 01       		.byte	0x1
 2898 01dc 31       		.uleb128 0x31
 2899 01dd 13       		.uleb128 0x13
 2900 01de 52       		.uleb128 0x52
 2901 01df 01       		.uleb128 0x1
 2902 01e0 55       		.uleb128 0x55
 2903 01e1 17       		.uleb128 0x17
 2904 01e2 58       		.uleb128 0x58
 2905 01e3 0B       		.uleb128 0xb
 2906 01e4 59       		.uleb128 0x59
 2907 01e5 0B       		.uleb128 0xb
 2908 01e6 01       		.uleb128 0x1
 2909 01e7 13       		.uleb128 0x13
 2910 01e8 00       		.byte	0
 2911 01e9 00       		.byte	0
 2912 01ea 26       		.uleb128 0x26
 2913 01eb 1D       		.uleb128 0x1d
 2914 01ec 01       		.byte	0x1
 2915 01ed 31       		.uleb128 0x31
 2916 01ee 13       		.uleb128 0x13
 2917 01ef 52       		.uleb128 0x52
 2918 01f0 01       		.uleb128 0x1
 2919 01f1 55       		.uleb128 0x55
 2920 01f2 17       		.uleb128 0x17
 2921 01f3 58       		.uleb128 0x58
 2922 01f4 0B       		.uleb128 0xb
 2923 01f5 59       		.uleb128 0x59
 2924 01f6 05       		.uleb128 0x5
 2925 01f7 00       		.byte	0
 2926 01f8 00       		.byte	0
 2927 01f9 27       		.uleb128 0x27
 2928 01fa 05       		.uleb128 0x5
 2929 01fb 00       		.byte	0
 2930 01fc 31       		.uleb128 0x31
 2931 01fd 13       		.uleb128 0x13
 2932 01fe 1C       		.uleb128 0x1c
 2933 01ff 0B       		.uleb128 0xb
 2934 0200 00       		.byte	0
 2935 0201 00       		.byte	0
 2936 0202 28       		.uleb128 0x28
 2937 0203 1D       		.uleb128 0x1d
 2938 0204 01       		.byte	0x1
 2939 0205 31       		.uleb128 0x31
 2940 0206 13       		.uleb128 0x13
 2941 0207 11       		.uleb128 0x11
 2942 0208 01       		.uleb128 0x1
 2943 0209 12       		.uleb128 0x12
 2944 020a 06       		.uleb128 0x6
 2945 020b 58       		.uleb128 0x58
 2946 020c 0B       		.uleb128 0xb
 2947 020d 59       		.uleb128 0x59
ARM GAS  /tmp/ccpSxgvQ.s 			page 53


 2948 020e 0B       		.uleb128 0xb
 2949 020f 01       		.uleb128 0x1
 2950 0210 13       		.uleb128 0x13
 2951 0211 00       		.byte	0
 2952 0212 00       		.byte	0
 2953 0213 29       		.uleb128 0x29
 2954 0214 05       		.uleb128 0x5
 2955 0215 00       		.byte	0
 2956 0216 31       		.uleb128 0x31
 2957 0217 13       		.uleb128 0x13
 2958 0218 02       		.uleb128 0x2
 2959 0219 17       		.uleb128 0x17
 2960 021a 00       		.byte	0
 2961 021b 00       		.byte	0
 2962 021c 2A       		.uleb128 0x2a
 2963 021d 0B       		.uleb128 0xb
 2964 021e 01       		.byte	0x1
 2965 021f 55       		.uleb128 0x55
 2966 0220 17       		.uleb128 0x17
 2967 0221 00       		.byte	0
 2968 0222 00       		.byte	0
 2969 0223 2B       		.uleb128 0x2b
 2970 0224 34       		.uleb128 0x34
 2971 0225 00       		.byte	0
 2972 0226 31       		.uleb128 0x31
 2973 0227 13       		.uleb128 0x13
 2974 0228 02       		.uleb128 0x2
 2975 0229 17       		.uleb128 0x17
 2976 022a 00       		.byte	0
 2977 022b 00       		.byte	0
 2978 022c 2C       		.uleb128 0x2c
 2979 022d 0B       		.uleb128 0xb
 2980 022e 01       		.byte	0x1
 2981 022f 11       		.uleb128 0x11
 2982 0230 01       		.uleb128 0x1
 2983 0231 12       		.uleb128 0x12
 2984 0232 06       		.uleb128 0x6
 2985 0233 00       		.byte	0
 2986 0234 00       		.byte	0
 2987 0235 2D       		.uleb128 0x2d
 2988 0236 34       		.uleb128 0x34
 2989 0237 00       		.byte	0
 2990 0238 31       		.uleb128 0x31
 2991 0239 13       		.uleb128 0x13
 2992 023a 00       		.byte	0
 2993 023b 00       		.byte	0
 2994 023c 2E       		.uleb128 0x2e
 2995 023d 1D       		.uleb128 0x1d
 2996 023e 01       		.byte	0x1
 2997 023f 31       		.uleb128 0x31
 2998 0240 13       		.uleb128 0x13
 2999 0241 11       		.uleb128 0x11
 3000 0242 01       		.uleb128 0x1
 3001 0243 12       		.uleb128 0x12
 3002 0244 06       		.uleb128 0x6
 3003 0245 58       		.uleb128 0x58
 3004 0246 0B       		.uleb128 0xb
ARM GAS  /tmp/ccpSxgvQ.s 			page 54


 3005 0247 59       		.uleb128 0x59
 3006 0248 05       		.uleb128 0x5
 3007 0249 00       		.byte	0
 3008 024a 00       		.byte	0
 3009 024b 2F       		.uleb128 0x2f
 3010 024c 898201   		.uleb128 0x4109
 3011 024f 01       		.byte	0x1
 3012 0250 11       		.uleb128 0x11
 3013 0251 01       		.uleb128 0x1
 3014 0252 31       		.uleb128 0x31
 3015 0253 13       		.uleb128 0x13
 3016 0254 00       		.byte	0
 3017 0255 00       		.byte	0
 3018 0256 30       		.uleb128 0x30
 3019 0257 8A8201   		.uleb128 0x410a
 3020 025a 00       		.byte	0
 3021 025b 02       		.uleb128 0x2
 3022 025c 18       		.uleb128 0x18
 3023 025d 9142     		.uleb128 0x2111
 3024 025f 18       		.uleb128 0x18
 3025 0260 00       		.byte	0
 3026 0261 00       		.byte	0
 3027 0262 31       		.uleb128 0x31
 3028 0263 34       		.uleb128 0x34
 3029 0264 00       		.byte	0
 3030 0265 03       		.uleb128 0x3
 3031 0266 08       		.uleb128 0x8
 3032 0267 3A       		.uleb128 0x3a
 3033 0268 0B       		.uleb128 0xb
 3034 0269 3B       		.uleb128 0x3b
 3035 026a 0B       		.uleb128 0xb
 3036 026b 49       		.uleb128 0x49
 3037 026c 13       		.uleb128 0x13
 3038 026d 00       		.byte	0
 3039 026e 00       		.byte	0
 3040 026f 32       		.uleb128 0x32
 3041 0270 898201   		.uleb128 0x4109
 3042 0273 00       		.byte	0
 3043 0274 11       		.uleb128 0x11
 3044 0275 01       		.uleb128 0x1
 3045 0276 9542     		.uleb128 0x2115
 3046 0278 19       		.uleb128 0x19
 3047 0279 31       		.uleb128 0x31
 3048 027a 13       		.uleb128 0x13
 3049 027b 00       		.byte	0
 3050 027c 00       		.byte	0
 3051 027d 33       		.uleb128 0x33
 3052 027e 898201   		.uleb128 0x4109
 3053 0281 00       		.byte	0
 3054 0282 11       		.uleb128 0x11
 3055 0283 01       		.uleb128 0x1
 3056 0284 31       		.uleb128 0x31
 3057 0285 13       		.uleb128 0x13
 3058 0286 00       		.byte	0
 3059 0287 00       		.byte	0
 3060 0288 34       		.uleb128 0x34
 3061 0289 898201   		.uleb128 0x4109
ARM GAS  /tmp/ccpSxgvQ.s 			page 55


 3062 028c 01       		.byte	0x1
 3063 028d 11       		.uleb128 0x11
 3064 028e 01       		.uleb128 0x1
 3065 028f 31       		.uleb128 0x31
 3066 0290 13       		.uleb128 0x13
 3067 0291 01       		.uleb128 0x1
 3068 0292 13       		.uleb128 0x13
 3069 0293 00       		.byte	0
 3070 0294 00       		.byte	0
 3071 0295 35       		.uleb128 0x35
 3072 0296 2E       		.uleb128 0x2e
 3073 0297 01       		.byte	0x1
 3074 0298 3F       		.uleb128 0x3f
 3075 0299 19       		.uleb128 0x19
 3076 029a 03       		.uleb128 0x3
 3077 029b 0E       		.uleb128 0xe
 3078 029c 3A       		.uleb128 0x3a
 3079 029d 0B       		.uleb128 0xb
 3080 029e 3B       		.uleb128 0x3b
 3081 029f 0B       		.uleb128 0xb
 3082 02a0 27       		.uleb128 0x27
 3083 02a1 19       		.uleb128 0x19
 3084 02a2 49       		.uleb128 0x49
 3085 02a3 13       		.uleb128 0x13
 3086 02a4 11       		.uleb128 0x11
 3087 02a5 01       		.uleb128 0x1
 3088 02a6 12       		.uleb128 0x12
 3089 02a7 06       		.uleb128 0x6
 3090 02a8 40       		.uleb128 0x40
 3091 02a9 18       		.uleb128 0x18
 3092 02aa 9742     		.uleb128 0x2117
 3093 02ac 19       		.uleb128 0x19
 3094 02ad 01       		.uleb128 0x1
 3095 02ae 13       		.uleb128 0x13
 3096 02af 00       		.byte	0
 3097 02b0 00       		.byte	0
 3098 02b1 36       		.uleb128 0x36
 3099 02b2 34       		.uleb128 0x34
 3100 02b3 00       		.byte	0
 3101 02b4 03       		.uleb128 0x3
 3102 02b5 08       		.uleb128 0x8
 3103 02b6 3A       		.uleb128 0x3a
 3104 02b7 0B       		.uleb128 0xb
 3105 02b8 3B       		.uleb128 0x3b
 3106 02b9 0B       		.uleb128 0xb
 3107 02ba 49       		.uleb128 0x49
 3108 02bb 13       		.uleb128 0x13
 3109 02bc 02       		.uleb128 0x2
 3110 02bd 17       		.uleb128 0x17
 3111 02be 00       		.byte	0
 3112 02bf 00       		.byte	0
 3113 02c0 37       		.uleb128 0x37
 3114 02c1 1D       		.uleb128 0x1d
 3115 02c2 00       		.byte	0
 3116 02c3 31       		.uleb128 0x31
 3117 02c4 13       		.uleb128 0x13
 3118 02c5 11       		.uleb128 0x11
ARM GAS  /tmp/ccpSxgvQ.s 			page 56


 3119 02c6 01       		.uleb128 0x1
 3120 02c7 12       		.uleb128 0x12
 3121 02c8 06       		.uleb128 0x6
 3122 02c9 58       		.uleb128 0x58
 3123 02ca 0B       		.uleb128 0xb
 3124 02cb 59       		.uleb128 0x59
 3125 02cc 0B       		.uleb128 0xb
 3126 02cd 00       		.byte	0
 3127 02ce 00       		.byte	0
 3128 02cf 38       		.uleb128 0x38
 3129 02d0 34       		.uleb128 0x34
 3130 02d1 00       		.byte	0
 3131 02d2 03       		.uleb128 0x3
 3132 02d3 08       		.uleb128 0x8
 3133 02d4 3A       		.uleb128 0x3a
 3134 02d5 0B       		.uleb128 0xb
 3135 02d6 3B       		.uleb128 0x3b
 3136 02d7 0B       		.uleb128 0xb
 3137 02d8 49       		.uleb128 0x49
 3138 02d9 13       		.uleb128 0x13
 3139 02da 02       		.uleb128 0x2
 3140 02db 18       		.uleb128 0x18
 3141 02dc 00       		.byte	0
 3142 02dd 00       		.byte	0
 3143 02de 39       		.uleb128 0x39
 3144 02df 2E       		.uleb128 0x2e
 3145 02e0 01       		.byte	0x1
 3146 02e1 3F       		.uleb128 0x3f
 3147 02e2 19       		.uleb128 0x19
 3148 02e3 03       		.uleb128 0x3
 3149 02e4 0E       		.uleb128 0xe
 3150 02e5 3A       		.uleb128 0x3a
 3151 02e6 0B       		.uleb128 0xb
 3152 02e7 3B       		.uleb128 0x3b
 3153 02e8 05       		.uleb128 0x5
 3154 02e9 27       		.uleb128 0x27
 3155 02ea 19       		.uleb128 0x19
 3156 02eb 49       		.uleb128 0x49
 3157 02ec 13       		.uleb128 0x13
 3158 02ed 11       		.uleb128 0x11
 3159 02ee 01       		.uleb128 0x1
 3160 02ef 12       		.uleb128 0x12
 3161 02f0 06       		.uleb128 0x6
 3162 02f1 40       		.uleb128 0x40
 3163 02f2 18       		.uleb128 0x18
 3164 02f3 9742     		.uleb128 0x2117
 3165 02f5 19       		.uleb128 0x19
 3166 02f6 01       		.uleb128 0x1
 3167 02f7 13       		.uleb128 0x13
 3168 02f8 00       		.byte	0
 3169 02f9 00       		.byte	0
 3170 02fa 3A       		.uleb128 0x3a
 3171 02fb 05       		.uleb128 0x5
 3172 02fc 00       		.byte	0
 3173 02fd 03       		.uleb128 0x3
 3174 02fe 08       		.uleb128 0x8
 3175 02ff 3A       		.uleb128 0x3a
ARM GAS  /tmp/ccpSxgvQ.s 			page 57


 3176 0300 0B       		.uleb128 0xb
 3177 0301 3B       		.uleb128 0x3b
 3178 0302 05       		.uleb128 0x5
 3179 0303 49       		.uleb128 0x49
 3180 0304 13       		.uleb128 0x13
 3181 0305 02       		.uleb128 0x2
 3182 0306 17       		.uleb128 0x17
 3183 0307 00       		.byte	0
 3184 0308 00       		.byte	0
 3185 0309 3B       		.uleb128 0x3b
 3186 030a 05       		.uleb128 0x5
 3187 030b 00       		.byte	0
 3188 030c 03       		.uleb128 0x3
 3189 030d 0E       		.uleb128 0xe
 3190 030e 3A       		.uleb128 0x3a
 3191 030f 0B       		.uleb128 0xb
 3192 0310 3B       		.uleb128 0x3b
 3193 0311 05       		.uleb128 0x5
 3194 0312 49       		.uleb128 0x49
 3195 0313 13       		.uleb128 0x13
 3196 0314 02       		.uleb128 0x2
 3197 0315 17       		.uleb128 0x17
 3198 0316 00       		.byte	0
 3199 0317 00       		.byte	0
 3200 0318 3C       		.uleb128 0x3c
 3201 0319 34       		.uleb128 0x34
 3202 031a 00       		.byte	0
 3203 031b 03       		.uleb128 0x3
 3204 031c 08       		.uleb128 0x8
 3205 031d 3A       		.uleb128 0x3a
 3206 031e 0B       		.uleb128 0xb
 3207 031f 3B       		.uleb128 0x3b
 3208 0320 05       		.uleb128 0x5
 3209 0321 49       		.uleb128 0x49
 3210 0322 13       		.uleb128 0x13
 3211 0323 02       		.uleb128 0x2
 3212 0324 17       		.uleb128 0x17
 3213 0325 00       		.byte	0
 3214 0326 00       		.byte	0
 3215 0327 3D       		.uleb128 0x3d
 3216 0328 1D       		.uleb128 0x1d
 3217 0329 01       		.byte	0x1
 3218 032a 31       		.uleb128 0x31
 3219 032b 13       		.uleb128 0x13
 3220 032c 11       		.uleb128 0x11
 3221 032d 01       		.uleb128 0x1
 3222 032e 12       		.uleb128 0x12
 3223 032f 06       		.uleb128 0x6
 3224 0330 58       		.uleb128 0x58
 3225 0331 0B       		.uleb128 0xb
 3226 0332 59       		.uleb128 0x59
 3227 0333 05       		.uleb128 0x5
 3228 0334 01       		.uleb128 0x1
 3229 0335 13       		.uleb128 0x13
 3230 0336 00       		.byte	0
 3231 0337 00       		.byte	0
 3232 0338 3E       		.uleb128 0x3e
ARM GAS  /tmp/ccpSxgvQ.s 			page 58


 3233 0339 1D       		.uleb128 0x1d
 3234 033a 01       		.byte	0x1
 3235 033b 31       		.uleb128 0x31
 3236 033c 13       		.uleb128 0x13
 3237 033d 52       		.uleb128 0x52
 3238 033e 01       		.uleb128 0x1
 3239 033f 55       		.uleb128 0x55
 3240 0340 17       		.uleb128 0x17
 3241 0341 58       		.uleb128 0x58
 3242 0342 0B       		.uleb128 0xb
 3243 0343 59       		.uleb128 0x59
 3244 0344 05       		.uleb128 0x5
 3245 0345 01       		.uleb128 0x1
 3246 0346 13       		.uleb128 0x13
 3247 0347 00       		.byte	0
 3248 0348 00       		.byte	0
 3249 0349 3F       		.uleb128 0x3f
 3250 034a 34       		.uleb128 0x34
 3251 034b 00       		.byte	0
 3252 034c 03       		.uleb128 0x3
 3253 034d 08       		.uleb128 0x8
 3254 034e 3A       		.uleb128 0x3a
 3255 034f 0B       		.uleb128 0xb
 3256 0350 3B       		.uleb128 0x3b
 3257 0351 05       		.uleb128 0x5
 3258 0352 49       		.uleb128 0x49
 3259 0353 13       		.uleb128 0x13
 3260 0354 02       		.uleb128 0x2
 3261 0355 18       		.uleb128 0x18
 3262 0356 00       		.byte	0
 3263 0357 00       		.byte	0
 3264 0358 40       		.uleb128 0x40
 3265 0359 34       		.uleb128 0x34
 3266 035a 00       		.byte	0
 3267 035b 03       		.uleb128 0x3
 3268 035c 0E       		.uleb128 0xe
 3269 035d 3A       		.uleb128 0x3a
 3270 035e 0B       		.uleb128 0xb
 3271 035f 3B       		.uleb128 0x3b
 3272 0360 05       		.uleb128 0x5
 3273 0361 49       		.uleb128 0x49
 3274 0362 13       		.uleb128 0x13
 3275 0363 3F       		.uleb128 0x3f
 3276 0364 19       		.uleb128 0x19
 3277 0365 3C       		.uleb128 0x3c
 3278 0366 19       		.uleb128 0x19
 3279 0367 00       		.byte	0
 3280 0368 00       		.byte	0
 3281 0369 41       		.uleb128 0x41
 3282 036a 34       		.uleb128 0x34
 3283 036b 00       		.byte	0
 3284 036c 03       		.uleb128 0x3
 3285 036d 08       		.uleb128 0x8
 3286 036e 3A       		.uleb128 0x3a
 3287 036f 0B       		.uleb128 0xb
 3288 0370 3B       		.uleb128 0x3b
 3289 0371 05       		.uleb128 0x5
ARM GAS  /tmp/ccpSxgvQ.s 			page 59


 3290 0372 49       		.uleb128 0x49
 3291 0373 13       		.uleb128 0x13
 3292 0374 3F       		.uleb128 0x3f
 3293 0375 19       		.uleb128 0x19
 3294 0376 3C       		.uleb128 0x3c
 3295 0377 19       		.uleb128 0x19
 3296 0378 00       		.byte	0
 3297 0379 00       		.byte	0
 3298 037a 42       		.uleb128 0x42
 3299 037b 2E       		.uleb128 0x2e
 3300 037c 01       		.byte	0x1
 3301 037d 3F       		.uleb128 0x3f
 3302 037e 19       		.uleb128 0x19
 3303 037f 03       		.uleb128 0x3
 3304 0380 0E       		.uleb128 0xe
 3305 0381 3A       		.uleb128 0x3a
 3306 0382 0B       		.uleb128 0xb
 3307 0383 3B       		.uleb128 0x3b
 3308 0384 05       		.uleb128 0x5
 3309 0385 27       		.uleb128 0x27
 3310 0386 19       		.uleb128 0x19
 3311 0387 3C       		.uleb128 0x3c
 3312 0388 19       		.uleb128 0x19
 3313 0389 01       		.uleb128 0x1
 3314 038a 13       		.uleb128 0x13
 3315 038b 00       		.byte	0
 3316 038c 00       		.byte	0
 3317 038d 43       		.uleb128 0x43
 3318 038e 2E       		.uleb128 0x2e
 3319 038f 01       		.byte	0x1
 3320 0390 3F       		.uleb128 0x3f
 3321 0391 19       		.uleb128 0x19
 3322 0392 03       		.uleb128 0x3
 3323 0393 0E       		.uleb128 0xe
 3324 0394 3A       		.uleb128 0x3a
 3325 0395 0B       		.uleb128 0xb
 3326 0396 3B       		.uleb128 0x3b
 3327 0397 05       		.uleb128 0x5
 3328 0398 27       		.uleb128 0x27
 3329 0399 19       		.uleb128 0x19
 3330 039a 49       		.uleb128 0x49
 3331 039b 13       		.uleb128 0x13
 3332 039c 3C       		.uleb128 0x3c
 3333 039d 19       		.uleb128 0x19
 3334 039e 01       		.uleb128 0x1
 3335 039f 13       		.uleb128 0x13
 3336 03a0 00       		.byte	0
 3337 03a1 00       		.byte	0
 3338 03a2 44       		.uleb128 0x44
 3339 03a3 2E       		.uleb128 0x2e
 3340 03a4 00       		.byte	0
 3341 03a5 3F       		.uleb128 0x3f
 3342 03a6 19       		.uleb128 0x19
 3343 03a7 03       		.uleb128 0x3
 3344 03a8 0E       		.uleb128 0xe
 3345 03a9 3A       		.uleb128 0x3a
 3346 03aa 0B       		.uleb128 0xb
ARM GAS  /tmp/ccpSxgvQ.s 			page 60


 3347 03ab 3B       		.uleb128 0x3b
 3348 03ac 05       		.uleb128 0x5
 3349 03ad 27       		.uleb128 0x27
 3350 03ae 19       		.uleb128 0x19
 3351 03af 3C       		.uleb128 0x3c
 3352 03b0 19       		.uleb128 0x19
 3353 03b1 00       		.byte	0
 3354 03b2 00       		.byte	0
 3355 03b3 45       		.uleb128 0x45
 3356 03b4 2E       		.uleb128 0x2e
 3357 03b5 01       		.byte	0x1
 3358 03b6 3F       		.uleb128 0x3f
 3359 03b7 19       		.uleb128 0x19
 3360 03b8 03       		.uleb128 0x3
 3361 03b9 0E       		.uleb128 0xe
 3362 03ba 3A       		.uleb128 0x3a
 3363 03bb 0B       		.uleb128 0xb
 3364 03bc 3B       		.uleb128 0x3b
 3365 03bd 0B       		.uleb128 0xb
 3366 03be 27       		.uleb128 0x27
 3367 03bf 19       		.uleb128 0x19
 3368 03c0 3C       		.uleb128 0x3c
 3369 03c1 19       		.uleb128 0x19
 3370 03c2 01       		.uleb128 0x1
 3371 03c3 13       		.uleb128 0x13
 3372 03c4 00       		.byte	0
 3373 03c5 00       		.byte	0
 3374 03c6 46       		.uleb128 0x46
 3375 03c7 2E       		.uleb128 0x2e
 3376 03c8 01       		.byte	0x1
 3377 03c9 3F       		.uleb128 0x3f
 3378 03ca 19       		.uleb128 0x19
 3379 03cb 03       		.uleb128 0x3
 3380 03cc 0E       		.uleb128 0xe
 3381 03cd 3A       		.uleb128 0x3a
 3382 03ce 0B       		.uleb128 0xb
 3383 03cf 3B       		.uleb128 0x3b
 3384 03d0 05       		.uleb128 0x5
 3385 03d1 27       		.uleb128 0x27
 3386 03d2 19       		.uleb128 0x19
 3387 03d3 49       		.uleb128 0x49
 3388 03d4 13       		.uleb128 0x13
 3389 03d5 3C       		.uleb128 0x3c
 3390 03d6 19       		.uleb128 0x19
 3391 03d7 00       		.byte	0
 3392 03d8 00       		.byte	0
 3393 03d9 00       		.byte	0
 3394              		.section	.debug_loc,"",%progbits
 3395              	.Ldebug_loc0:
 3396              	.LLST0:
 3397 0000 00000000 		.4byte	.LVL1
 3398 0004 0C000000 		.4byte	.LVL3
 3399 0008 0100     		.2byte	0x1
 3400 000a 50       		.byte	0x50
 3401 000b 0C000000 		.4byte	.LVL3
 3402 000f 1B000000 		.4byte	.LVL5-1
 3403 0013 0100     		.2byte	0x1
ARM GAS  /tmp/ccpSxgvQ.s 			page 61


 3404 0015 53       		.byte	0x53
 3405 0016 1B000000 		.4byte	.LVL5-1
 3406 001a 24000000 		.4byte	.LFE242
 3407 001e 0400     		.2byte	0x4
 3408 0020 F3       		.byte	0xf3
 3409 0021 01       		.uleb128 0x1
 3410 0022 50       		.byte	0x50
 3411 0023 9F       		.byte	0x9f
 3412 0024 00000000 		.4byte	0
 3413 0028 00000000 		.4byte	0
 3414              	.LLST1:
 3415 002c 0A000000 		.4byte	.LVL2
 3416 0030 0C000000 		.4byte	.LVL3
 3417 0034 0100     		.2byte	0x1
 3418 0036 50       		.byte	0x50
 3419 0037 0C000000 		.4byte	.LVL3
 3420 003b 1B000000 		.4byte	.LVL5-1
 3421 003f 0100     		.2byte	0x1
 3422 0041 53       		.byte	0x53
 3423 0042 1B000000 		.4byte	.LVL5-1
 3424 0046 24000000 		.4byte	.LFE242
 3425 004a 0400     		.2byte	0x4
 3426 004c F3       		.byte	0xf3
 3427 004d 01       		.uleb128 0x1
 3428 004e 50       		.byte	0x50
 3429 004f 9F       		.byte	0x9f
 3430 0050 00000000 		.4byte	0
 3431 0054 00000000 		.4byte	0
 3432              	.LLST2:
 3433 0058 10000000 		.4byte	.LVL4
 3434 005c 1B000000 		.4byte	.LVL5-1
 3435 0060 0100     		.2byte	0x1
 3436 0062 53       		.byte	0x53
 3437 0063 1B000000 		.4byte	.LVL5-1
 3438 0067 1C000000 		.4byte	.LVL5
 3439 006b 0400     		.2byte	0x4
 3440 006d F3       		.byte	0xf3
 3441 006e 01       		.uleb128 0x1
 3442 006f 50       		.byte	0x50
 3443 0070 9F       		.byte	0x9f
 3444 0071 00000000 		.4byte	0
 3445 0075 00000000 		.4byte	0
 3446              	.LLST3:
 3447 0079 10000000 		.4byte	.LVL4
 3448 007d 1B000000 		.4byte	.LVL5-1
 3449 0081 0100     		.2byte	0x1
 3450 0083 50       		.byte	0x50
 3451 0084 00000000 		.4byte	0
 3452 0088 00000000 		.4byte	0
 3453              	.LLST4:
 3454 008c 00000000 		.4byte	.LVL6
 3455 0090 10000000 		.4byte	.LVL8
 3456 0094 0100     		.2byte	0x1
 3457 0096 50       		.byte	0x50
 3458 0097 10000000 		.4byte	.LVL8
 3459 009b 15000000 		.4byte	.LVL9-1
 3460 009f 0200     		.2byte	0x2
ARM GAS  /tmp/ccpSxgvQ.s 			page 62


 3461 00a1 72       		.byte	0x72
 3462 00a2 04       		.sleb128 4
 3463 00a3 15000000 		.4byte	.LVL9-1
 3464 00a7 16000000 		.4byte	.LVL9
 3465 00ab 0400     		.2byte	0x4
 3466 00ad F3       		.byte	0xf3
 3467 00ae 01       		.uleb128 0x1
 3468 00af 50       		.byte	0x50
 3469 00b0 9F       		.byte	0x9f
 3470 00b1 16000000 		.4byte	.LVL9
 3471 00b5 18000000 		.4byte	.LFE243
 3472 00b9 0100     		.2byte	0x1
 3473 00bb 50       		.byte	0x50
 3474 00bc 00000000 		.4byte	0
 3475 00c0 00000000 		.4byte	0
 3476              	.LLST6:
 3477 00c4 06000000 		.4byte	.LVL7
 3478 00c8 10000000 		.4byte	.LVL8
 3479 00cc 0100     		.2byte	0x1
 3480 00ce 50       		.byte	0x50
 3481 00cf 10000000 		.4byte	.LVL8
 3482 00d3 15000000 		.4byte	.LVL9-1
 3483 00d7 0200     		.2byte	0x2
 3484 00d9 72       		.byte	0x72
 3485 00da 04       		.sleb128 4
 3486 00db 15000000 		.4byte	.LVL9-1
 3487 00df 16000000 		.4byte	.LVL9
 3488 00e3 0400     		.2byte	0x4
 3489 00e5 F3       		.byte	0xf3
 3490 00e6 01       		.uleb128 0x1
 3491 00e7 50       		.byte	0x50
 3492 00e8 9F       		.byte	0x9f
 3493 00e9 00000000 		.4byte	0
 3494 00ed 00000000 		.4byte	0
 3495              	.LLST7:
 3496 00f1 06000000 		.4byte	.LVL7
 3497 00f5 15000000 		.4byte	.LVL9-1
 3498 00f9 0100     		.2byte	0x1
 3499 00fb 53       		.byte	0x53
 3500 00fc 00000000 		.4byte	0
 3501 0100 00000000 		.4byte	0
 3502              	.LLST8:
 3503 0104 00000000 		.4byte	.LVL10
 3504 0108 06000000 		.4byte	.LVL12
 3505 010c 0100     		.2byte	0x1
 3506 010e 50       		.byte	0x50
 3507 010f 06000000 		.4byte	.LVL12
 3508 0113 22000000 		.4byte	.LFE245
 3509 0117 0100     		.2byte	0x1
 3510 0119 54       		.byte	0x54
 3511 011a 00000000 		.4byte	0
 3512 011e 00000000 		.4byte	0
 3513              	.LLST9:
 3514 0122 04000000 		.4byte	.LVL11
 3515 0126 06000000 		.4byte	.LVL12
 3516 012a 0100     		.2byte	0x1
 3517 012c 50       		.byte	0x50
ARM GAS  /tmp/ccpSxgvQ.s 			page 63


 3518 012d 06000000 		.4byte	.LVL12
 3519 0131 22000000 		.4byte	.LFE245
 3520 0135 0100     		.2byte	0x1
 3521 0137 54       		.byte	0x54
 3522 0138 00000000 		.4byte	0
 3523 013c 00000000 		.4byte	0
 3524              	.LLST10:
 3525 0140 0E000000 		.4byte	.LVL13
 3526 0144 20000000 		.4byte	.LVL15
 3527 0148 0100     		.2byte	0x1
 3528 014a 54       		.byte	0x54
 3529 014b 00000000 		.4byte	0
 3530 014f 00000000 		.4byte	0
 3531              	.LLST11:
 3532 0153 0E000000 		.4byte	.LVL13
 3533 0157 17000000 		.4byte	.LVL14-1
 3534 015b 0100     		.2byte	0x1
 3535 015d 50       		.byte	0x50
 3536 015e 00000000 		.4byte	0
 3537 0162 00000000 		.4byte	0
 3538              	.LLST12:
 3539 0166 00000000 		.4byte	.LVL16
 3540 016a 0B000000 		.4byte	.LVL17-1
 3541 016e 0100     		.2byte	0x1
 3542 0170 50       		.byte	0x50
 3543 0171 0B000000 		.4byte	.LVL17-1
 3544 0175 18000000 		.4byte	.LFE244
 3545 0179 0400     		.2byte	0x4
 3546 017b F3       		.byte	0xf3
 3547 017c 01       		.uleb128 0x1
 3548 017d 50       		.byte	0x50
 3549 017e 9F       		.byte	0x9f
 3550 017f 00000000 		.4byte	0
 3551 0183 00000000 		.4byte	0
 3552              	.LLST13:
 3553 0187 00000000 		.4byte	.LVL19
 3554 018b 0C000000 		.4byte	.LVL21
 3555 018f 0100     		.2byte	0x1
 3556 0191 50       		.byte	0x50
 3557 0192 0C000000 		.4byte	.LVL21
 3558 0196 40000000 		.4byte	.LVL29
 3559 019a 0100     		.2byte	0x1
 3560 019c 55       		.byte	0x55
 3561 019d 40000000 		.4byte	.LVL29
 3562 01a1 44000000 		.4byte	.LFE247
 3563 01a5 0400     		.2byte	0x4
 3564 01a7 F3       		.byte	0xf3
 3565 01a8 01       		.uleb128 0x1
 3566 01a9 50       		.byte	0x50
 3567 01aa 9F       		.byte	0x9f
 3568 01ab 00000000 		.4byte	0
 3569 01af 00000000 		.4byte	0
 3570              	.LLST14:
 3571 01b3 06000000 		.4byte	.LVL20
 3572 01b7 36000000 		.4byte	.LVL27
 3573 01bb 0100     		.2byte	0x1
 3574 01bd 54       		.byte	0x54
ARM GAS  /tmp/ccpSxgvQ.s 			page 64


 3575 01be 00000000 		.4byte	0
 3576 01c2 00000000 		.4byte	0
 3577              	.LLST15:
 3578 01c6 36000000 		.4byte	.LVL27
 3579 01ca 40000000 		.4byte	.LVL29
 3580 01ce 0100     		.2byte	0x1
 3581 01d0 54       		.byte	0x54
 3582 01d1 40000000 		.4byte	.LVL29
 3583 01d5 44000000 		.4byte	.LFE247
 3584 01d9 0100     		.2byte	0x1
 3585 01db 50       		.byte	0x50
 3586 01dc 00000000 		.4byte	0
 3587 01e0 00000000 		.4byte	0
 3588              	.LLST16:
 3589 01e4 12000000 		.4byte	.LVL23
 3590 01e8 40000000 		.4byte	.LVL29
 3591 01ec 0100     		.2byte	0x1
 3592 01ee 55       		.byte	0x55
 3593 01ef 40000000 		.4byte	.LVL29
 3594 01f3 44000000 		.4byte	.LFE247
 3595 01f7 0400     		.2byte	0x4
 3596 01f9 F3       		.byte	0xf3
 3597 01fa 01       		.uleb128 0x1
 3598 01fb 50       		.byte	0x50
 3599 01fc 9F       		.byte	0x9f
 3600 01fd 00000000 		.4byte	0
 3601 0201 00000000 		.4byte	0
 3602              	.LLST17:
 3603 0205 12000000 		.4byte	.LVL23
 3604 0209 36000000 		.4byte	.LVL27
 3605 020d 0100     		.2byte	0x1
 3606 020f 54       		.byte	0x54
 3607 0210 00000000 		.4byte	0
 3608 0214 00000000 		.4byte	0
 3609              	.LLST18:
 3610 0218 12000000 		.4byte	.LVL23
 3611 021c 16000000 		.4byte	.LVL24
 3612 0220 0100     		.2byte	0x1
 3613 0222 55       		.byte	0x55
 3614 0223 16000000 		.4byte	.LVL24
 3615 0227 33000000 		.4byte	.LVL26-1
 3616 022b 0100     		.2byte	0x1
 3617 022d 53       		.byte	0x53
 3618 022e 00000000 		.4byte	0
 3619 0232 00000000 		.4byte	0
 3620              	.LLST19:
 3621 0236 00000000 		.4byte	.LVL30
 3622 023a 0B000000 		.4byte	.LVL31-1
 3623 023e 0100     		.2byte	0x1
 3624 0240 50       		.byte	0x50
 3625 0241 0B000000 		.4byte	.LVL31-1
 3626 0245 14000000 		.4byte	.LFE246
 3627 0249 0400     		.2byte	0x4
 3628 024b F3       		.byte	0xf3
 3629 024c 01       		.uleb128 0x1
 3630 024d 50       		.byte	0x50
 3631 024e 9F       		.byte	0x9f
ARM GAS  /tmp/ccpSxgvQ.s 			page 65


 3632 024f 00000000 		.4byte	0
 3633 0253 00000000 		.4byte	0
 3634              	.LLST20:
 3635 0257 00000000 		.4byte	.LVL32
 3636 025b 0E000000 		.4byte	.LVL33
 3637 025f 0100     		.2byte	0x1
 3638 0261 50       		.byte	0x50
 3639 0262 0E000000 		.4byte	.LVL33
 3640 0266 4E000000 		.4byte	.LVL42
 3641 026a 0100     		.2byte	0x1
 3642 026c 56       		.byte	0x56
 3643 026d 4E000000 		.4byte	.LVL42
 3644 0271 54000000 		.4byte	.LFE249
 3645 0275 0400     		.2byte	0x4
 3646 0277 F3       		.byte	0xf3
 3647 0278 01       		.uleb128 0x1
 3648 0279 50       		.byte	0x50
 3649 027a 9F       		.byte	0x9f
 3650 027b 00000000 		.4byte	0
 3651 027f 00000000 		.4byte	0
 3652              	.LLST21:
 3653 0283 00000000 		.4byte	.LVL32
 3654 0287 13000000 		.4byte	.LVL34-1
 3655 028b 0100     		.2byte	0x1
 3656 028d 51       		.byte	0x51
 3657 028e 13000000 		.4byte	.LVL34-1
 3658 0292 4E000000 		.4byte	.LVL42
 3659 0296 0100     		.2byte	0x1
 3660 0298 58       		.byte	0x58
 3661 0299 4E000000 		.4byte	.LVL42
 3662 029d 54000000 		.4byte	.LFE249
 3663 02a1 0400     		.2byte	0x4
 3664 02a3 F3       		.byte	0xf3
 3665 02a4 01       		.uleb128 0x1
 3666 02a5 51       		.byte	0x51
 3667 02a6 9F       		.byte	0x9f
 3668 02a7 00000000 		.4byte	0
 3669 02ab 00000000 		.4byte	0
 3670              	.LLST22:
 3671 02af 40000000 		.4byte	.LVL39
 3672 02b3 44000000 		.4byte	.LVL40
 3673 02b7 0100     		.2byte	0x1
 3674 02b9 50       		.byte	0x50
 3675 02ba 44000000 		.4byte	.LVL40
 3676 02be 4E000000 		.4byte	.LVL42
 3677 02c2 0100     		.2byte	0x1
 3678 02c4 54       		.byte	0x54
 3679 02c5 4E000000 		.4byte	.LVL42
 3680 02c9 54000000 		.4byte	.LFE249
 3681 02cd 0100     		.2byte	0x1
 3682 02cf 50       		.byte	0x50
 3683 02d0 00000000 		.4byte	0
 3684 02d4 00000000 		.4byte	0
 3685              	.LLST23:
 3686 02d8 1A000000 		.4byte	.LVL35
 3687 02dc 4E000000 		.4byte	.LVL42
 3688 02e0 0100     		.2byte	0x1
ARM GAS  /tmp/ccpSxgvQ.s 			page 66


 3689 02e2 56       		.byte	0x56
 3690 02e3 4E000000 		.4byte	.LVL42
 3691 02e7 54000000 		.4byte	.LFE249
 3692 02eb 0400     		.2byte	0x4
 3693 02ed F3       		.byte	0xf3
 3694 02ee 01       		.uleb128 0x1
 3695 02ef 50       		.byte	0x50
 3696 02f0 9F       		.byte	0x9f
 3697 02f1 00000000 		.4byte	0
 3698 02f5 00000000 		.4byte	0
 3699              	.LLST24:
 3700 02f9 1A000000 		.4byte	.LVL35
 3701 02fd 4E000000 		.4byte	.LVL42
 3702 0301 0100     		.2byte	0x1
 3703 0303 55       		.byte	0x55
 3704 0304 00000000 		.4byte	0
 3705 0308 00000000 		.4byte	0
 3706              	.LLST25:
 3707 030c 1A000000 		.4byte	.LVL35
 3708 0310 1C000000 		.4byte	.LVL36
 3709 0314 0100     		.2byte	0x1
 3710 0316 56       		.byte	0x56
 3711 0317 1C000000 		.4byte	.LVL36
 3712 031b 3B000000 		.4byte	.LVL38-1
 3713 031f 0100     		.2byte	0x1
 3714 0321 53       		.byte	0x53
 3715 0322 00000000 		.4byte	0
 3716 0326 00000000 		.4byte	0
 3717              	.LLST26:
 3718 032a 00000000 		.4byte	.LVL43
 3719 032e 0B000000 		.4byte	.LVL44-1
 3720 0332 0100     		.2byte	0x1
 3721 0334 50       		.byte	0x50
 3722 0335 0B000000 		.4byte	.LVL44-1
 3723 0339 14000000 		.4byte	.LFE248
 3724 033d 0400     		.2byte	0x4
 3725 033f F3       		.byte	0xf3
 3726 0340 01       		.uleb128 0x1
 3727 0341 50       		.byte	0x50
 3728 0342 9F       		.byte	0x9f
 3729 0343 00000000 		.4byte	0
 3730 0347 00000000 		.4byte	0
 3731              	.LLST27:
 3732 034b 00000000 		.4byte	.LVL43
 3733 034f 0B000000 		.4byte	.LVL44-1
 3734 0353 0100     		.2byte	0x1
 3735 0355 51       		.byte	0x51
 3736 0356 0B000000 		.4byte	.LVL44-1
 3737 035a 14000000 		.4byte	.LFE248
 3738 035e 0400     		.2byte	0x4
 3739 0360 F3       		.byte	0xf3
 3740 0361 01       		.uleb128 0x1
 3741 0362 51       		.byte	0x51
 3742 0363 9F       		.byte	0x9f
 3743 0364 00000000 		.4byte	0
 3744 0368 00000000 		.4byte	0
 3745              		.section	.debug_aranges,"",%progbits
ARM GAS  /tmp/ccpSxgvQ.s 			page 67


 3746 0000 5C000000 		.4byte	0x5c
 3747 0004 0200     		.2byte	0x2
 3748 0006 00000000 		.4byte	.Ldebug_info0
 3749 000a 04       		.byte	0x4
 3750 000b 00       		.byte	0
 3751 000c 0000     		.2byte	0
 3752 000e 0000     		.2byte	0
 3753 0010 00000000 		.4byte	.LFB241
 3754 0014 06000000 		.4byte	.LFE241-.LFB241
 3755 0018 00000000 		.4byte	.LFB242
 3756 001c 24000000 		.4byte	.LFE242-.LFB242
 3757 0020 00000000 		.4byte	.LFB243
 3758 0024 18000000 		.4byte	.LFE243-.LFB243
 3759 0028 00000000 		.4byte	.LFB245
 3760 002c 22000000 		.4byte	.LFE245-.LFB245
 3761 0030 00000000 		.4byte	.LFB244
 3762 0034 18000000 		.4byte	.LFE244-.LFB244
 3763 0038 00000000 		.4byte	.LFB247
 3764 003c 44000000 		.4byte	.LFE247-.LFB247
 3765 0040 00000000 		.4byte	.LFB246
 3766 0044 14000000 		.4byte	.LFE246-.LFB246
 3767 0048 00000000 		.4byte	.LFB249
 3768 004c 54000000 		.4byte	.LFE249-.LFB249
 3769 0050 00000000 		.4byte	.LFB248
 3770 0054 14000000 		.4byte	.LFE248-.LFB248
 3771 0058 00000000 		.4byte	0
 3772 005c 00000000 		.4byte	0
 3773              		.section	.debug_ranges,"",%progbits
 3774              	.Ldebug_ranges0:
 3775 0000 02000000 		.4byte	.LBB85
 3776 0004 04000000 		.4byte	.LBE85
 3777 0008 06000000 		.4byte	.LBB92
 3778 000c 0A000000 		.4byte	.LBE92
 3779 0010 00000000 		.4byte	0
 3780 0014 00000000 		.4byte	0
 3781 0018 10000000 		.4byte	.LBB95
 3782 001c 14000000 		.4byte	.LBE95
 3783 0020 16000000 		.4byte	.LBB98
 3784 0024 18000000 		.4byte	.LBE98
 3785 0028 00000000 		.4byte	0
 3786 002c 00000000 		.4byte	0
 3787 0030 06000000 		.4byte	.LBB107
 3788 0034 0A000000 		.4byte	.LBE107
 3789 0038 0C000000 		.4byte	.LBB110
 3790 003c 0E000000 		.4byte	.LBE110
 3791 0040 00000000 		.4byte	0
 3792 0044 00000000 		.4byte	0
 3793 0048 04000000 		.4byte	.LBB111
 3794 004c 06000000 		.4byte	.LBE111
 3795 0050 1A000000 		.4byte	.LBB116
 3796 0054 1C000000 		.4byte	.LBE116
 3797 0058 00000000 		.4byte	0
 3798 005c 00000000 		.4byte	0
 3799 0060 12000000 		.4byte	.LBB128
 3800 0064 2A000000 		.4byte	.LBE128
 3801 0068 2C000000 		.4byte	.LBB131
 3802 006c 30000000 		.4byte	.LBE131
ARM GAS  /tmp/ccpSxgvQ.s 			page 68


 3803 0070 00000000 		.4byte	0
 3804 0074 00000000 		.4byte	0
 3805 0078 16000000 		.4byte	.LBB145
 3806 007c 18000000 		.4byte	.LBE145
 3807 0080 1C000000 		.4byte	.LBB150
 3808 0084 30000000 		.4byte	.LBE150
 3809 0088 32000000 		.4byte	.LBB151
 3810 008c 34000000 		.4byte	.LBE151
 3811 0090 36000000 		.4byte	.LBB152
 3812 0094 38000000 		.4byte	.LBE152
 3813 0098 00000000 		.4byte	0
 3814 009c 00000000 		.4byte	0
 3815 00a0 00000000 		.4byte	.LFB241
 3816 00a4 06000000 		.4byte	.LFE241
 3817 00a8 00000000 		.4byte	.LFB242
 3818 00ac 24000000 		.4byte	.LFE242
 3819 00b0 00000000 		.4byte	.LFB243
 3820 00b4 18000000 		.4byte	.LFE243
 3821 00b8 00000000 		.4byte	.LFB245
 3822 00bc 22000000 		.4byte	.LFE245
 3823 00c0 00000000 		.4byte	.LFB244
 3824 00c4 18000000 		.4byte	.LFE244
 3825 00c8 00000000 		.4byte	.LFB247
 3826 00cc 44000000 		.4byte	.LFE247
 3827 00d0 00000000 		.4byte	.LFB246
 3828 00d4 14000000 		.4byte	.LFE246
 3829 00d8 00000000 		.4byte	.LFB249
 3830 00dc 54000000 		.4byte	.LFE249
 3831 00e0 00000000 		.4byte	.LFB248
 3832 00e4 14000000 		.4byte	.LFE248
 3833 00e8 00000000 		.4byte	0
 3834 00ec 00000000 		.4byte	0
 3835              		.section	.debug_line,"",%progbits
 3836              	.Ldebug_line0:
 3837 0000 4C040000 		.section	.debug_str,"MS",%progbits,1
 3837      02005D02 
 3837      00000201 
 3837      FB0E0D00 
 3837      01010101 
 3838              	.LASF49:
 3839 0000 72656164 		.ascii	"ready_list_t\000"
 3839      795F6C69 
 3839      73745F74 
 3839      00
 3840              	.LASF87:
 3841 000d 77747472 		.ascii	"wttrp\000"
 3841      7000
 3842              	.LASF84:
 3843 0013 7264796D 		.ascii	"rdymsg\000"
 3843      736700
 3844              	.LASF16:
 3845 001a 75696E74 		.ascii	"uint64_t\000"
 3845      36345F74 
 3845      00
 3846              	.LASF5:
 3847 0023 5F5F7569 		.ascii	"__uint8_t\000"
 3847      6E74385F 
ARM GAS  /tmp/ccpSxgvQ.s 			page 69


 3847      7400
 3848              	.LASF81:
 3849 002d 706F7274 		.ascii	"port_intctx\000"
 3849      5F696E74 
 3849      63747800 
 3850              	.LASF68:
 3851 0039 73797374 		.ascii	"system_debug_t\000"
 3851      656D5F64 
 3851      65627567 
 3851      5F7400
 3852              	.LASF107:
 3853 0048 71756575 		.ascii	"queue_init\000"
 3853      655F696E 
 3853      697400
 3854              	.LASF104:
 3855 0053 706F7274 		.ascii	"port_lock\000"
 3855      5F6C6F63 
 3855      6B00
 3856              	.LASF121:
 3857 005d 6368436F 		.ascii	"chCondBroadcastI\000"
 3857      6E644272 
 3857      6F616463 
 3857      61737449 
 3857      00
 3858              	.LASF12:
 3859 006e 6C6F6E67 		.ascii	"long long unsigned int\000"
 3859      206C6F6E 
 3859      6720756E 
 3859      7369676E 
 3859      65642069 
 3860              	.LASF85:
 3861 0085 65786974 		.ascii	"exitcode\000"
 3861      636F6465 
 3861      00
 3862              	.LASF75:
 3863 008e 6D61696E 		.ascii	"mainthread\000"
 3863      74687265 
 3863      616400
 3864              	.LASF88:
 3865 0099 73656E74 		.ascii	"sentmsg\000"
 3865      6D736700 
 3866              	.LASF65:
 3867 00a1 76697274 		.ascii	"virtual_timers_list_t\000"
 3867      75616C5F 
 3867      74696D65 
 3867      72735F6C 
 3867      6973745F 
 3868              	.LASF128:
 3869 00b7 49544D5F 		.ascii	"ITM_RxBuffer\000"
 3869      52784275 
 3869      66666572 
 3869      00
 3870              	.LASF48:
 3871 00c4 63685F74 		.ascii	"ch_threads_queue\000"
 3871      68726561 
 3871      64735F71 
 3871      75657565 
ARM GAS  /tmp/ccpSxgvQ.s 			page 70


 3871      00
 3872              	.LASF135:
 3873 00d5 2E2E2F43 		.ascii	"../ChibiOS/os/rt/src/chcond.c\000"
 3873      68696269 
 3873      4F532F6F 
 3873      732F7274 
 3873      2F737263 
 3874              	.LASF29:
 3875 00f3 705F7072 		.ascii	"p_prio\000"
 3875      696F00
 3876              	.LASF10:
 3877 00fa 6C6F6E67 		.ascii	"long long int\000"
 3877      206C6F6E 
 3877      6720696E 
 3877      7400
 3878              	.LASF1:
 3879 0108 7369676E 		.ascii	"signed char\000"
 3879      65642063 
 3879      68617200 
 3880              	.LASF103:
 3881 0114 636F6E64 		.ascii	"condition_variable_t\000"
 3881      6974696F 
 3881      6E5F7661 
 3881      72696162 
 3881      6C655F74 
 3882              	.LASF42:
 3883 0129 705F6D70 		.ascii	"p_mpool\000"
 3883      6F6F6C00 
 3884              	.LASF96:
 3885 0131 6D5F7175 		.ascii	"m_queue\000"
 3885      65756500 
 3886              	.LASF74:
 3887 0139 76746C69 		.ascii	"vtlist\000"
 3887      737400
 3888              	.LASF105:
 3889 0140 706F7274 		.ascii	"port_unlock\000"
 3889      5F756E6C 
 3889      6F636B00 
 3890              	.LASF72:
 3891 014c 63685F73 		.ascii	"ch_system\000"
 3891      79737465 
 3891      6D00
 3892              	.LASF7:
 3893 0156 6C6F6E67 		.ascii	"long int\000"
 3893      20696E74 
 3893      00
 3894              	.LASF19:
 3895 015f 74737461 		.ascii	"tstate_t\000"
 3895      74655F74 
 3895      00
 3896              	.LASF111:
 3897 0168 71756575 		.ascii	"queue_notempty\000"
 3897      655F6E6F 
 3897      74656D70 
 3897      747900
 3898              	.LASF132:
 3899 0177 63684D74 		.ascii	"chMtxLockS\000"
ARM GAS  /tmp/ccpSxgvQ.s 			page 71


 3899      784C6F63 
 3899      6B5300
 3900              	.LASF31:
 3901 0182 705F6E65 		.ascii	"p_newer\000"
 3901      77657200 
 3902              	.LASF93:
 3903 018a 735F7175 		.ascii	"s_queue\000"
 3903      65756500 
 3904              	.LASF138:
 3905 0192 63685363 		.ascii	"chSchRescheduleS\000"
 3905      68526573 
 3905      63686564 
 3905      756C6553 
 3905      00
 3906              	.LASF54:
 3907 01a3 725F6E65 		.ascii	"r_newer\000"
 3907      77657200 
 3908              	.LASF78:
 3909 01ab 72656761 		.ascii	"regarm_t\000"
 3909      726D5F74 
 3909      00
 3910              	.LASF61:
 3911 01b4 76745F70 		.ascii	"vt_prev\000"
 3911      72657600 
 3912              	.LASF69:
 3913 01bc 63685F73 		.ascii	"ch_system_debug\000"
 3913      79737465 
 3913      6D5F6465 
 3913      62756700 
 3914              	.LASF100:
 3915 01cc 6D757465 		.ascii	"mutex_t\000"
 3915      785F7400 
 3916              	.LASF108:
 3917 01d4 76616C75 		.ascii	"value\000"
 3917      6500
 3918              	.LASF119:
 3919 01da 6368436F 		.ascii	"chCondSignal\000"
 3919      6E645369 
 3919      676E616C 
 3919      00
 3920              	.LASF76:
 3921 01e7 69646C65 		.ascii	"idle_thread_wa\000"
 3921      5F746872 
 3921      6561645F 
 3921      776100
 3922              	.LASF24:
 3923 01f6 636E745F 		.ascii	"cnt_t\000"
 3923      7400
 3924              	.LASF130:
 3925 01fc 63684D74 		.ascii	"chMtxUnlockS\000"
 3925      78556E6C 
 3925      6F636B53 
 3925      00
 3926              	.LASF0:
 3927 0209 756E7369 		.ascii	"unsigned int\000"
 3927      676E6564 
 3927      20696E74 
ARM GAS  /tmp/ccpSxgvQ.s 			page 72


 3927      00
 3928              	.LASF60:
 3929 0216 76745F6E 		.ascii	"vt_next\000"
 3929      65787400 
 3930              	.LASF89:
 3931 021e 77747365 		.ascii	"wtsemp\000"
 3931      6D7000
 3932              	.LASF62:
 3933 0225 76745F64 		.ascii	"vt_delta\000"
 3933      656C7461 
 3933      00
 3934              	.LASF38:
 3935 022e 705F6D73 		.ascii	"p_msgqueue\000"
 3935      67717565 
 3935      756500
 3936              	.LASF94:
 3937 0239 735F636E 		.ascii	"s_cnt\000"
 3937      7400
 3938              	.LASF4:
 3939 023f 73686F72 		.ascii	"short unsigned int\000"
 3939      7420756E 
 3939      7369676E 
 3939      65642069 
 3939      6E7400
 3940              	.LASF45:
 3941 0252 63685F74 		.ascii	"ch_thread\000"
 3941      68726561 
 3941      6400
 3942              	.LASF129:
 3943 025c 63685363 		.ascii	"chSchWakeupS\000"
 3943      6857616B 
 3943      65757053 
 3943      00
 3944              	.LASF22:
 3945 0269 6D73675F 		.ascii	"msg_t\000"
 3945      7400
 3946              	.LASF71:
 3947 026f 63685F73 		.ascii	"ch_system_t\000"
 3947      79737465 
 3947      6D5F7400 
 3948              	.LASF18:
 3949 027b 746D6F64 		.ascii	"tmode_t\000"
 3949      655F7400 
 3950              	.LASF50:
 3951 0283 63685F72 		.ascii	"ch_ready_list\000"
 3951      65616479 
 3951      5F6C6973 
 3951      7400
 3952              	.LASF23:
 3953 0291 6576656E 		.ascii	"eventmask_t\000"
 3953      746D6173 
 3953      6B5F7400 
 3954              	.LASF6:
 3955 029d 5F5F696E 		.ascii	"__int32_t\000"
 3955      7433325F 
 3955      7400
 3956              	.LASF79:
ARM GAS  /tmp/ccpSxgvQ.s 			page 73


 3957 02a7 73746B61 		.ascii	"stkalign_t\000"
 3957      6C69676E 
 3957      5F7400
 3958              	.LASF37:
 3959 02b2 705F7761 		.ascii	"p_waiting\000"
 3959      6974696E 
 3959      6700
 3960              	.LASF77:
 3961 02bc 73697A65 		.ascii	"sizetype\000"
 3961      74797065 
 3961      00
 3962              	.LASF43:
 3963 02c5 74687265 		.ascii	"thread_reference_t\000"
 3963      61645F72 
 3963      65666572 
 3963      656E6365 
 3963      5F7400
 3964              	.LASF66:
 3965 02d8 63685F76 		.ascii	"ch_virtual_timers_list\000"
 3965      69727475 
 3965      616C5F74 
 3965      696D6572 
 3965      735F6C69 
 3966              	.LASF101:
 3967 02ef 636F6E64 		.ascii	"condition_variable\000"
 3967      6974696F 
 3967      6E5F7661 
 3967      72696162 
 3967      6C6500
 3968              	.LASF125:
 3969 0302 6368436F 		.ascii	"chCondWaitTimeoutS\000"
 3969      6E645761 
 3969      69745469 
 3969      6D656F75 
 3969      745300
 3970              	.LASF136:
 3971 0315 2F752F63 		.ascii	"/u/cojthack/summerResearch2016/milestone2\000"
 3971      6F6A7468 
 3971      61636B2F 
 3971      73756D6D 
 3971      65725265 
 3972              	.LASF67:
 3973 033f 76745F6C 		.ascii	"vt_lasttime\000"
 3973      61737474 
 3973      696D6500 
 3974              	.LASF32:
 3975 034b 705F6F6C 		.ascii	"p_older\000"
 3975      64657200 
 3976              	.LASF53:
 3977 0353 725F6374 		.ascii	"r_ctx\000"
 3977      7800
 3978              	.LASF83:
 3979 0359 746D5F63 		.ascii	"tm_calibration_t\000"
 3979      616C6962 
 3979      72617469 
 3979      6F6E5F74 
 3979      00
ARM GAS  /tmp/ccpSxgvQ.s 			page 74


 3980              	.LASF98:
 3981 036a 6D5F6E65 		.ascii	"m_next\000"
 3981      787400
 3982              	.LASF126:
 3983 0371 74696D65 		.ascii	"time\000"
 3983      00
 3984              	.LASF56:
 3985 0376 725F6375 		.ascii	"r_current\000"
 3985      7272656E 
 3985      7400
 3986              	.LASF55:
 3987 0380 725F6F6C 		.ascii	"r_older\000"
 3987      64657200 
 3988              	.LASF122:
 3989 0388 6368436F 		.ascii	"chCondBroadcast\000"
 3989      6E644272 
 3989      6F616463 
 3989      61737400 
 3990              	.LASF11:
 3991 0398 5F5F7569 		.ascii	"__uint64_t\000"
 3991      6E743634 
 3991      5F7400
 3992              	.LASF20:
 3993 03a3 74726566 		.ascii	"trefs_t\000"
 3993      735F7400 
 3994              	.LASF58:
 3995 03ab 76697274 		.ascii	"virtual_timer_t\000"
 3995      75616C5F 
 3995      74696D65 
 3995      725F7400 
 3996              	.LASF28:
 3997 03bb 705F7072 		.ascii	"p_prev\000"
 3997      657600
 3998              	.LASF21:
 3999 03c2 74707269 		.ascii	"tprio_t\000"
 3999      6F5F7400 
 4000              	.LASF120:
 4001 03ca 6368436F 		.ascii	"chCondSignalI\000"
 4001      6E645369 
 4001      676E616C 
 4001      4900
 4002              	.LASF110:
 4003 03d8 5F426F6F 		.ascii	"_Bool\000"
 4003      6C00
 4004              	.LASF14:
 4005 03de 696E7433 		.ascii	"int32_t\000"
 4005      325F7400 
 4006              	.LASF2:
 4007 03e6 756E7369 		.ascii	"unsigned char\000"
 4007      676E6564 
 4007      20636861 
 4007      7200
 4008              	.LASF40:
 4009 03f4 705F6D74 		.ascii	"p_mtxlist\000"
 4009      786C6973 
 4009      7400
 4010              	.LASF3:
ARM GAS  /tmp/ccpSxgvQ.s 			page 75


 4011 03fe 73686F72 		.ascii	"short int\000"
 4011      7420696E 
 4011      7400
 4012              	.LASF34:
 4013 0408 705F7374 		.ascii	"p_state\000"
 4013      61746500 
 4014              	.LASF52:
 4015 0410 725F7072 		.ascii	"r_prio\000"
 4015      696F00
 4016              	.LASF91:
 4017 0417 65776D61 		.ascii	"ewmask\000"
 4017      736B00
 4018              	.LASF27:
 4019 041e 705F6E65 		.ascii	"p_next\000"
 4019      787400
 4020              	.LASF35:
 4021 0425 705F666C 		.ascii	"p_flags\000"
 4021      61677300 
 4022              	.LASF114:
 4023 042d 5F5F6675 		.ascii	"__func__\000"
 4023      6E635F5F 
 4023      00
 4024              	.LASF109:
 4025 0436 63685379 		.ascii	"chSysLock\000"
 4025      734C6F63 
 4025      6B00
 4026              	.LASF59:
 4027 0440 63685F76 		.ascii	"ch_virtual_timer\000"
 4027      69727475 
 4027      616C5F74 
 4027      696D6572 
 4027      00
 4028              	.LASF102:
 4029 0451 635F7175 		.ascii	"c_queue\000"
 4029      65756500 
 4030              	.LASF92:
 4031 0459 63685F73 		.ascii	"ch_semaphore\000"
 4031      656D6170 
 4031      686F7265 
 4031      00
 4032              	.LASF131:
 4033 0466 63685363 		.ascii	"chSchGoSleepS\000"
 4033      68476F53 
 4033      6C656570 
 4033      5300
 4034              	.LASF39:
 4035 0474 705F6570 		.ascii	"p_epending\000"
 4035      656E6469 
 4035      6E6700
 4036              	.LASF116:
 4037 047f 63684D74 		.ascii	"chMtxGetNextMutexS\000"
 4037      78476574 
 4037      4E657874 
 4037      4D757465 
 4037      785300
 4038              	.LASF15:
 4039 0492 75696E74 		.ascii	"uint32_t\000"
ARM GAS  /tmp/ccpSxgvQ.s 			page 76


 4039      33325F74 
 4039      00
 4040              	.LASF90:
 4041 049b 77746D74 		.ascii	"wtmtxp\000"
 4041      787000
 4042              	.LASF51:
 4043 04a2 725F7175 		.ascii	"r_queue\000"
 4043      65756500 
 4044              	.LASF137:
 4045 04aa 63685363 		.ascii	"chSchReadyI\000"
 4045      68526561 
 4045      64794900 
 4046              	.LASF46:
 4047 04b6 63685F74 		.ascii	"ch_threads_list\000"
 4047      68726561 
 4047      64735F6C 
 4047      69737400 
 4048              	.LASF9:
 4049 04c6 6C6F6E67 		.ascii	"long unsigned int\000"
 4049      20756E73 
 4049      69676E65 
 4049      6420696E 
 4049      7400
 4050              	.LASF99:
 4051 04d8 63686172 		.ascii	"char\000"
 4051      00
 4052              	.LASF123:
 4053 04dd 6368436F 		.ascii	"chCondWaitS\000"
 4053      6E645761 
 4053      69745300 
 4054              	.LASF118:
 4055 04e9 6368436F 		.ascii	"chCondObjectInit\000"
 4055      6E644F62 
 4055      6A656374 
 4055      496E6974 
 4055      00
 4056              	.LASF134:
 4057 04fa 474E5520 		.ascii	"GNU C 4.8.4 20140526 (release) [ARM/embedded-4_8-br"
 4057      4320342E 
 4057      382E3420 
 4057      32303134 
 4057      30353236 
 4058 052d 616E6368 		.ascii	"anch revision 211358] -mcpu=cortex-m4 -mno-thumb-in"
 4058      20726576 
 4058      6973696F 
 4058      6E203231 
 4058      31333538 
 4059 0560 74657277 		.ascii	"terwork -mthumb -ggdb -O2 -fomit-frame-pointer -fal"
 4059      6F726B20 
 4059      2D6D7468 
 4059      756D6220 
 4059      2D676764 
 4060 0593 69676E2D 		.ascii	"ign-functions=16 -ffunction-sections -fdata-section"
 4060      66756E63 
 4060      74696F6E 
 4060      733D3136 
 4060      202D6666 
ARM GAS  /tmp/ccpSxgvQ.s 			page 77


 4061 05c6 73202D66 		.ascii	"s -fno-common\000"
 4061      6E6F2D63 
 4061      6F6D6D6F 
 4061      6E00
 4062              	.LASF112:
 4063 05d4 71756575 		.ascii	"queue_fifo_remove\000"
 4063      655F6669 
 4063      666F5F72 
 4063      656D6F76 
 4063      6500
 4064              	.LASF25:
 4065 05e6 73797374 		.ascii	"systime_t\000"
 4065      696D655F 
 4065      7400
 4066              	.LASF41:
 4067 05f0 705F7265 		.ascii	"p_realprio\000"
 4067      616C7072 
 4067      696F00
 4068              	.LASF57:
 4069 05fb 76746675 		.ascii	"vtfunc_t\000"
 4069      6E635F74 
 4069      00
 4070              	.LASF8:
 4071 0604 5F5F7569 		.ascii	"__uint32_t\000"
 4071      6E743332 
 4071      5F7400
 4072              	.LASF106:
 4073 060f 5F5F7365 		.ascii	"__set_BASEPRI\000"
 4073      745F4241 
 4073      53455052 
 4073      4900
 4074              	.LASF70:
 4075 061d 70616E69 		.ascii	"panic_msg\000"
 4075      635F6D73 
 4075      6700
 4076              	.LASF82:
 4077 0627 6F666673 		.ascii	"offset\000"
 4077      657400
 4078              	.LASF80:
 4079 062e 636F6E74 		.ascii	"context\000"
 4079      65787400 
 4080              	.LASF17:
 4081 0636 7274636E 		.ascii	"rtcnt_t\000"
 4081      745F7400 
 4082              	.LASF124:
 4083 063e 6368436F 		.ascii	"chCondWait\000"
 4083      6E645761 
 4083      697400
 4084              	.LASF64:
 4085 0649 76745F70 		.ascii	"vt_par\000"
 4085      617200
 4086              	.LASF47:
 4087 0650 74687265 		.ascii	"threads_queue_t\000"
 4087      6164735F 
 4087      71756575 
 4087      655F7400 
 4088              	.LASF95:
ARM GAS  /tmp/ccpSxgvQ.s 			page 78


 4089 0660 63685F6D 		.ascii	"ch_mutex\000"
 4089      75746578 
 4089      00
 4090              	.LASF36:
 4091 0669 705F7265 		.ascii	"p_refs\000"
 4091      667300
 4092              	.LASF26:
 4093 0670 74687265 		.ascii	"thread_t\000"
 4093      61645F74 
 4093      00
 4094              	.LASF73:
 4095 0679 726C6973 		.ascii	"rlist\000"
 4095      7400
 4096              	.LASF115:
 4097 067f 63685468 		.ascii	"chThdGetSelfX\000"
 4097      64476574 
 4097      53656C66 
 4097      5800
 4098              	.LASF13:
 4099 068d 75696E74 		.ascii	"uint8_t\000"
 4099      385F7400 
 4100              	.LASF86:
 4101 0695 77746F62 		.ascii	"wtobjp\000"
 4101      6A7000
 4102              	.LASF33:
 4103 069c 705F6E61 		.ascii	"p_name\000"
 4103      6D6500
 4104              	.LASF127:
 4105 06a3 6368436F 		.ascii	"chCondWaitTimeout\000"
 4105      6E645761 
 4105      69745469 
 4105      6D656F75 
 4105      7400
 4106              	.LASF44:
 4107 06b5 74687265 		.ascii	"threads_list_t\000"
 4107      6164735F 
 4107      6C697374 
 4107      5F7400
 4108              	.LASF133:
 4109 06c4 63685363 		.ascii	"chSchGoSleepTimeoutS\000"
 4109      68476F53 
 4109      6C656570 
 4109      54696D65 
 4109      6F757453 
 4110              	.LASF113:
 4111 06d9 63685379 		.ascii	"chSysUnlock\000"
 4111      73556E6C 
 4111      6F636B00 
 4112              	.LASF117:
 4113 06e5 71756575 		.ascii	"queue_prio_insert\000"
 4113      655F7072 
 4113      696F5F69 
 4113      6E736572 
 4113      7400
 4114              	.LASF97:
 4115 06f7 6D5F6F77 		.ascii	"m_owner\000"
 4115      6E657200 
ARM GAS  /tmp/ccpSxgvQ.s 			page 79


 4116              	.LASF30:
 4117 06ff 705F6374 		.ascii	"p_ctx\000"
 4117      7800
 4118              	.LASF63:
 4119 0705 76745F66 		.ascii	"vt_func\000"
 4119      756E6300 
 4120              		.ident	"GCC: (GNU Tools for ARM Embedded Processors) 4.8.4 20140526 (release) [ARM/embedded-4_8-br
ARM GAS  /tmp/ccpSxgvQ.s 			page 80


DEFINED SYMBOLS
                            *ABS*:00000000 chcond.c
     /tmp/ccpSxgvQ.s:19     .text.chCondObjectInit:00000000 $t
     /tmp/ccpSxgvQ.s:25     .text.chCondObjectInit:00000000 chCondObjectInit
     /tmp/ccpSxgvQ.s:48     .text.chCondSignal:00000000 $t
     /tmp/ccpSxgvQ.s:54     .text.chCondSignal:00000000 chCondSignal
     /tmp/ccpSxgvQ.s:143    .text.chCondSignalI:00000000 $t
     /tmp/ccpSxgvQ.s:149    .text.chCondSignalI:00000000 chCondSignalI
     /tmp/ccpSxgvQ.s:198    .text.chCondBroadcastI:00000000 $t
     /tmp/ccpSxgvQ.s:204    .text.chCondBroadcastI:00000000 chCondBroadcastI
     /tmp/ccpSxgvQ.s:263    .text.chCondBroadcast:00000000 $t
     /tmp/ccpSxgvQ.s:269    .text.chCondBroadcast:00000000 chCondBroadcast
     /tmp/ccpSxgvQ.s:321    .text.chCondWaitS:00000000 $t
     /tmp/ccpSxgvQ.s:327    .text.chCondWaitS:00000000 chCondWaitS
     /tmp/ccpSxgvQ.s:417    .text.chCondWaitS:00000040 $d
     /tmp/ccpSxgvQ.s:422    .text.chCondWait:00000000 $t
     /tmp/ccpSxgvQ.s:428    .text.chCondWait:00000000 chCondWait
     /tmp/ccpSxgvQ.s:478    .text.chCondWaitTimeoutS:00000000 $t
     /tmp/ccpSxgvQ.s:484    .text.chCondWaitTimeoutS:00000000 chCondWaitTimeoutS
     /tmp/ccpSxgvQ.s:598    .text.chCondWaitTimeoutS:00000050 $d
     /tmp/ccpSxgvQ.s:603    .text.chCondWaitTimeout:00000000 $t
     /tmp/ccpSxgvQ.s:609    .text.chCondWaitTimeout:00000000 chCondWaitTimeout
                     .debug_frame:00000010 $d
     /tmp/ccpSxgvQ.s:421    .text.chCondWaitS:00000044 $t
     /tmp/ccpSxgvQ.s:602    .text.chCondWaitTimeoutS:00000054 $t

UNDEFINED SYMBOLS
chSchWakeupS
chSchReadyI
chSchRescheduleS
chMtxUnlockS
chSchGoSleepS
chMtxLockS
ch
chSchGoSleepTimeoutS
