ARM GAS  /tmp/ccpSxgvQ.s 			page 1


   1              		.syntax unified
   2              		.cpu cortex-m4
   3              		.fpu softvfp
   4              		.eabi_attribute 20, 1
   5              		.eabi_attribute 21, 1
   6              		.eabi_attribute 23, 3
   7              		.eabi_attribute 24, 1
   8              		.eabi_attribute 25, 1
   9              		.eabi_attribute 26, 1
  10              		.eabi_attribute 30, 2
  11              		.eabi_attribute 34, 1
  12              		.eabi_attribute 18, 4
  13              		.thumb
  14              		.file	"chcond.c"
  15              		.text
  16              	.Ltext0:
  17              		.cfi_sections	.debug_frame
  18              		.section	.text.chCondObjectInit,"ax",%progbits
  19              		.align	2
  20              		.p2align 4,,15
  21              		.global	chCondObjectInit
  22              		.thumb
  23              		.thumb_func
  24              		.type	chCondObjectInit, %function
  25              	chCondObjectInit:
  26              	.LFB241:
  27              		.file 1 "../ChibiOS/os/rt/src/chcond.c"
  28              		.loc 1 75 0
  29              		.cfi_startproc
  30              		@ args = 0, pretend = 0, frame = 0
  31              		@ frame_needed = 0, uses_anonymous_args = 0
  32              		@ link register save eliminated.
  33              	.LVL0:
  34              	.LBB83:
  35              	.LBB84:
  36              		.file 2 "../ChibiOS/os/rt/include/chschd.h"
  37              		.loc 2 606 0
  38 0000 0060     		str	r0, [r0]
  39              		.loc 2 607 0
  40 0002 4060     		str	r0, [r0, #4]
  41 0004 7047     		bx	lr
  42              	.LBE84:
  43              	.LBE83:
  44              		.cfi_endproc
  45              	.LFE241:
  46              		.size	chCondObjectInit, .-chCondObjectInit
  47 0006 00BFAFF3 		.section	.text.chCondSignal,"ax",%progbits
  47      0080AFF3 
  47      0080
  48              		.align	2
  49              		.p2align 4,,15
  50              		.global	chCondSignal
  51              		.thumb
  52              		.thumb_func
  53              		.type	chCondSignal, %function
  54              	chCondSignal:
  55              	.LFB242:
ARM GAS  /tmp/ccpSxgvQ.s 			page 2


  56              		.loc 1 89 0
  57              		.cfi_startproc
  58              		@ args = 0, pretend = 0, frame = 0
  59              		@ frame_needed = 0, uses_anonymous_args = 0
  60              	.LVL1:
  61 0000 08B5     		push	{r3, lr}
  62              		.cfi_def_cfa_offset 8
  63              		.cfi_offset 3, -8
  64              		.cfi_offset 14, -4
  65              	.LBB85:
  66              	.LBB86:
  67              	.LBB87:
  68              	.LBB88:
  69              		.file 3 "../ChibiOS/os/ext/CMSIS/include/core_cmFunc.h"
  70              		.loc 3 548 0
  71 0002 2022     		movs	r2, #32
  72              	.LBE88:
  73              	.LBE87:
  74              	.LBE86:
  75              	.LBE85:
  76              		.loc 1 89 0
  77 0004 0346     		mov	r3, r0
  78              	.LBB92:
  79              	.LBB91:
  80              	.LBB90:
  81              	.LBB89:
  82              		.loc 3 548 0
  83              	@ 548 "../ChibiOS/os/ext/CMSIS/include/core_cmFunc.h" 1
  84 0006 82F31188 		MSR basepri, r2
  85              	@ 0 "" 2
  86              	.LVL2:
  87              		.thumb
  88              	.LBE89:
  89              	.LBE90:
  90              	.LBE91:
  91              	.LBE92:
  92              	.LBB93:
  93              	.LBB94:
  94              		.loc 2 633 0
  95 000a 0068     		ldr	r0, [r0]
  96              	.LVL3:
  97              	.LBE94:
  98              	.LBE93:
  99              		.loc 1 94 0
 100 000c 8342     		cmp	r3, r0
 101 000e 05D0     		beq	.L3
 102              	.LVL4:
 103              	.LBB95:
 104              	.LBB96:
 105              		.loc 2 676 0
 106 0010 0268     		ldr	r2, [r0]
 107 0012 1A60     		str	r2, [r3]
 108              	.LBE96:
 109              	.LBE95:
 110              		.loc 1 95 0
 111 0014 0021     		movs	r1, #0
 112              	.LBB98:
ARM GAS  /tmp/ccpSxgvQ.s 			page 3


 113              	.LBB97:
 114              		.loc 2 677 0
 115 0016 5360     		str	r3, [r2, #4]
 116              	.LBE97:
 117              	.LBE98:
 118              		.loc 1 95 0
 119 0018 FFF7FEFF 		bl	chSchWakeupS
 120              	.LVL5:
 121              	.L3:
 122              	.LBB99:
 123              	.LBB100:
 124              	.LBB101:
 125              	.LBB102:
 126              	.LBB103:
 127              		.loc 3 548 0
 128 001c 0023     		movs	r3, #0
 129              	@ 548 "../ChibiOS/os/ext/CMSIS/include/core_cmFunc.h" 1
 130 001e 83F31188 		MSR basepri, r3
 131              	@ 0 "" 2
 132              		.thumb
 133 0022 08BD     		pop	{r3, pc}
 134              	.LBE103:
 135              	.LBE102:
 136              	.LBE101:
 137              	.LBE100:
 138              	.LBE99:
 139              		.cfi_endproc
 140              	.LFE242:
 141              		.size	chCondSignal, .-chCondSignal
 142 0024 AFF30080 		.section	.text.chCondSignalI,"ax",%progbits
 142      AFF30080 
 142      AFF30080 
 143              		.align	2
 144              		.p2align 4,,15
 145              		.global	chCondSignalI
 146              		.thumb
 147              		.thumb_func
 148              		.type	chCondSignalI, %function
 149              	chCondSignalI:
 150              	.LFB243:
 151              		.loc 1 111 0
 152              		.cfi_startproc
 153              		@ args = 0, pretend = 0, frame = 0
 154              		@ frame_needed = 0, uses_anonymous_args = 0
 155              		@ link register save eliminated.
 156              	.LVL6:
 157              	.LBB104:
 158              	.LBB105:
 159              		.loc 2 633 0
 160 0000 0368     		ldr	r3, [r0]
 161              	.LBE105:
 162              	.LBE104:
 163              		.loc 1 116 0
 164 0002 9842     		cmp	r0, r3
 165 0004 07D0     		beq	.L5
 166              	.LVL7:
 167              	.LBB106:
ARM GAS  /tmp/ccpSxgvQ.s 			page 4


 168              	.LBB107:
 169              	.LBB108:
 170              		.loc 2 676 0
 171 0006 1A68     		ldr	r2, [r3]
 172 0008 0260     		str	r2, [r0]
 173              	.LBE108:
 174              	.LBE107:
 175              		.loc 1 118 0
 176 000a 0021     		movs	r1, #0
 177              	.LBB110:
 178              	.LBB109:
 179              		.loc 2 677 0
 180 000c 5060     		str	r0, [r2, #4]
 181              	.LBE109:
 182              	.LBE110:
 183              		.loc 1 119 0
 184 000e 1846     		mov	r0, r3
 185              	.LVL8:
 186              		.loc 1 118 0
 187 0010 1962     		str	r1, [r3, #32]
 188              		.loc 1 119 0
 189 0012 FFF7FEBF 		b	chSchReadyI
 190              	.LVL9:
 191              	.L5:
 192 0016 7047     		bx	lr
 193              	.LBE106:
 194              		.cfi_endproc
 195              	.LFE243:
 196              		.size	chCondSignalI, .-chCondSignalI
 197 0018 AFF30080 		.section	.text.chCondBroadcastI,"ax",%progbits
 197      AFF30080 
 198              		.align	2
 199              		.p2align 4,,15
 200              		.global	chCondBroadcastI
 201              		.thumb
 202              		.thumb_func
 203              		.type	chCondBroadcastI, %function
 204              	chCondBroadcastI:
 205              	.LFB245:
 206              		.loc 1 149 0
 207              		.cfi_startproc
 208              		@ args = 0, pretend = 0, frame = 0
 209              		@ frame_needed = 0, uses_anonymous_args = 0
 210              	.LVL10:
 211 0000 38B5     		push	{r3, r4, r5, lr}
 212              		.cfi_def_cfa_offset 16
 213              		.cfi_offset 3, -16
 214              		.cfi_offset 4, -12
 215              		.cfi_offset 5, -8
 216              		.cfi_offset 14, -4
 217              		.loc 1 149 0
 218 0002 0446     		mov	r4, r0
 219              	.LVL11:
 220              	.LBB111:
 221              	.LBB112:
 222              		.loc 2 633 0
 223 0004 0068     		ldr	r0, [r0]
ARM GAS  /tmp/ccpSxgvQ.s 			page 5


 224              	.LVL12:
 225              	.LBE112:
 226              	.LBE111:
 227              		.loc 1 157 0
 228 0006 8442     		cmp	r4, r0
 229 0008 0AD0     		beq	.L7
 230              		.loc 1 158 0
 231 000a 6FF00105 		mvn	r5, #1
 232              	.L10:
 233              	.LVL13:
 234              	.LBB114:
 235              	.LBB115:
 236              		.loc 2 676 0
 237 000e 0368     		ldr	r3, [r0]
 238 0010 2360     		str	r3, [r4]
 239              		.loc 2 677 0
 240 0012 5C60     		str	r4, [r3, #4]
 241              	.LBE115:
 242              	.LBE114:
 243              		.loc 1 158 0
 244 0014 FFF7FEFF 		bl	chSchReadyI
 245              	.LVL14:
 246 0018 0562     		str	r5, [r0, #32]
 247              	.LBB116:
 248              	.LBB113:
 249              		.loc 2 633 0
 250 001a 2068     		ldr	r0, [r4]
 251              	.LBE113:
 252              	.LBE116:
 253              		.loc 1 157 0
 254 001c A042     		cmp	r0, r4
 255 001e F6D1     		bne	.L10
 256              	.LVL15:
 257              	.L7:
 258 0020 38BD     		pop	{r3, r4, r5, pc}
 259              		.cfi_endproc
 260              	.LFE245:
 261              		.size	chCondBroadcastI, .-chCondBroadcastI
 262 0022 00BFAFF3 		.section	.text.chCondBroadcast,"ax",%progbits
 262      0080AFF3 
 262      0080AFF3 
 262      0080
 263              		.align	2
 264              		.p2align 4,,15
 265              		.global	chCondBroadcast
 266              		.thumb
 267              		.thumb_func
 268              		.type	chCondBroadcast, %function
 269              	chCondBroadcast:
 270              	.LFB244:
 271              		.loc 1 130 0
 272              		.cfi_startproc
 273              		@ args = 0, pretend = 0, frame = 0
 274              		@ frame_needed = 0, uses_anonymous_args = 0
 275              	.LVL16:
 276 0000 08B5     		push	{r3, lr}
 277              		.cfi_def_cfa_offset 8
ARM GAS  /tmp/ccpSxgvQ.s 			page 6


 278              		.cfi_offset 3, -8
 279              		.cfi_offset 14, -4
 280              	.LBB117:
 281              	.LBB118:
 282              	.LBB119:
 283              	.LBB120:
 284              		.loc 3 548 0
 285 0002 2023     		movs	r3, #32
 286              	@ 548 "../ChibiOS/os/ext/CMSIS/include/core_cmFunc.h" 1
 287 0004 83F31188 		MSR basepri, r3
 288              	@ 0 "" 2
 289              		.thumb
 290              	.LBE120:
 291              	.LBE119:
 292              	.LBE118:
 293              	.LBE117:
 294              		.loc 1 133 0
 295 0008 FFF7FEFF 		bl	chCondBroadcastI
 296              	.LVL17:
 297              		.loc 1 134 0
 298 000c FFF7FEFF 		bl	chSchRescheduleS
 299              	.LVL18:
 300              	.LBB121:
 301              	.LBB122:
 302              	.LBB123:
 303              	.LBB124:
 304              	.LBB125:
 305              		.loc 3 548 0
 306 0010 0023     		movs	r3, #0
 307              	@ 548 "../ChibiOS/os/ext/CMSIS/include/core_cmFunc.h" 1
 308 0012 83F31188 		MSR basepri, r3
 309              	@ 0 "" 2
 310              		.thumb
 311 0016 08BD     		pop	{r3, pc}
 312              	.LBE125:
 313              	.LBE124:
 314              	.LBE123:
 315              	.LBE122:
 316              	.LBE121:
 317              		.cfi_endproc
 318              	.LFE244:
 319              		.size	chCondBroadcast, .-chCondBroadcast
 320 0018 AFF30080 		.section	.text.chCondWaitS,"ax",%progbits
 320      AFF30080 
 321              		.align	2
 322              		.p2align 4,,15
 323              		.global	chCondWaitS
 324              		.thumb
 325              		.thumb_func
 326              		.type	chCondWaitS, %function
 327              	chCondWaitS:
 328              	.LFB247:
 329              		.loc 1 205 0
 330              		.cfi_startproc
 331              		@ args = 0, pretend = 0, frame = 0
 332              		@ frame_needed = 0, uses_anonymous_args = 0
 333              	.LVL19:
ARM GAS  /tmp/ccpSxgvQ.s 			page 7


 334              		.loc 1 206 0
 335 0000 0F4B     		ldr	r3, .L18
 336              		.loc 1 205 0
 337 0002 70B5     		push	{r4, r5, r6, lr}
 338              		.cfi_def_cfa_offset 16
 339              		.cfi_offset 4, -16
 340              		.cfi_offset 5, -12
 341              		.cfi_offset 6, -8
 342              		.cfi_offset 14, -4
 343              		.loc 1 206 0
 344 0004 9C69     		ldr	r4, [r3, #24]
 345              	.LVL20:
 346              	.LBB126:
 347              	.LBB127:
 348              		.file 4 "../ChibiOS/os/rt/include/chmtx.h"
 349              		.loc 4 146 0
 350 0006 666B     		ldr	r6, [r4, #52]
 351              	.LBE127:
 352              	.LBE126:
 353              		.loc 1 205 0
 354 0008 0546     		mov	r5, r0
 355              		.loc 1 216 0
 356 000a 3046     		mov	r0, r6
 357              	.LVL21:
 358 000c FFF7FEFF 		bl	chMtxUnlockS
 359              	.LVL22:
 360              		.loc 1 220 0
 361 0010 2562     		str	r5, [r4, #32]
 362              	.LVL23:
 363              	.LBB128:
 364              	.LBB129:
 365              		.loc 2 655 0
 366 0012 2B46     		mov	r3, r5
 367 0014 03E0     		b	.L15
 368              	.LVL24:
 369              	.L17:
 370              		.loc 2 658 0
 371 0016 9968     		ldr	r1, [r3, #8]
 372 0018 A268     		ldr	r2, [r4, #8]
 373 001a 9142     		cmp	r1, r2
 374 001c 02D3     		bcc	.L14
 375              	.L15:
 376              		.loc 2 657 0
 377 001e 1B68     		ldr	r3, [r3]
 378              	.LVL25:
 379              		.loc 2 658 0
 380 0020 9D42     		cmp	r5, r3
 381 0022 F8D1     		bne	.L17
 382              	.L14:
 383              		.loc 2 660 0
 384 0024 5A68     		ldr	r2, [r3, #4]
 385 0026 6260     		str	r2, [r4, #4]
 386              		.loc 2 659 0
 387 0028 2360     		str	r3, [r4]
 388              	.LBE129:
 389              	.LBE128:
 390              		.loc 1 222 0
ARM GAS  /tmp/ccpSxgvQ.s 			page 8


 391 002a 0720     		movs	r0, #7
 392              	.LBB131:
 393              	.LBB130:
 394              		.loc 2 661 0
 395 002c 1460     		str	r4, [r2]
 396              		.loc 2 662 0
 397 002e 5C60     		str	r4, [r3, #4]
 398              	.LBE130:
 399              	.LBE131:
 400              		.loc 1 222 0
 401 0030 FFF7FEFF 		bl	chSchGoSleepS
 402              	.LVL26:
 403              		.loc 1 223 0
 404 0034 246A     		ldr	r4, [r4, #32]
 405              	.LVL27:
 406              		.loc 1 224 0
 407 0036 3046     		mov	r0, r6
 408 0038 FFF7FEFF 		bl	chMtxLockS
 409              	.LVL28:
 410              		.loc 1 227 0
 411 003c 2046     		mov	r0, r4
 412 003e 70BD     		pop	{r4, r5, r6, pc}
 413              	.LVL29:
 414              	.L19:
 415              		.align	2
 416              	.L18:
 417 0040 00000000 		.word	ch
 418              		.cfi_endproc
 419              	.LFE247:
 420              		.size	chCondWaitS, .-chCondWaitS
 421 0044 AFF30080 		.section	.text.chCondWait,"ax",%progbits
 421      AFF30080 
 421      AFF30080 
 422              		.align	2
 423              		.p2align 4,,15
 424              		.global	chCondWait
 425              		.thumb
 426              		.thumb_func
 427              		.type	chCondWait, %function
 428              	chCondWait:
 429              	.LFB246:
 430              		.loc 1 179 0
 431              		.cfi_startproc
 432              		@ args = 0, pretend = 0, frame = 0
 433              		@ frame_needed = 0, uses_anonymous_args = 0
 434              	.LVL30:
 435 0000 08B5     		push	{r3, lr}
 436              		.cfi_def_cfa_offset 8
 437              		.cfi_offset 3, -8
 438              		.cfi_offset 14, -4
 439              	.LBB132:
 440              	.LBB133:
 441              	.LBB134:
 442              	.LBB135:
 443              		.loc 3 548 0
 444 0002 2023     		movs	r3, #32
 445              	@ 548 "../ChibiOS/os/ext/CMSIS/include/core_cmFunc.h" 1
ARM GAS  /tmp/ccpSxgvQ.s 			page 9


 446 0004 83F31188 		MSR basepri, r3
 447              	@ 0 "" 2
 448              		.thumb
 449              	.LBE135:
 450              	.LBE134:
 451              	.LBE133:
 452              	.LBE132:
 453              		.loc 1 183 0
 454 0008 FFF7FEFF 		bl	chCondWaitS
 455              	.LVL31:
 456              	.LBB136:
 457              	.LBB137:
 458              	.LBB138:
 459              	.LBB139:
 460              	.LBB140:
 461              		.loc 3 548 0
 462 000c 0023     		movs	r3, #0
 463              	@ 548 "../ChibiOS/os/ext/CMSIS/include/core_cmFunc.h" 1
 464 000e 83F31188 		MSR basepri, r3
 465              	@ 0 "" 2
 466              		.thumb
 467              	.LBE140:
 468              	.LBE139:
 469              	.LBE138:
 470              	.LBE137:
 471              	.LBE136:
 472              		.loc 1 186 0
 473 0012 08BD     		pop	{r3, pc}
 474              		.cfi_endproc
 475              	.LFE246:
 476              		.size	chCondWait, .-chCondWait
 477 0014 AFF30080 		.section	.text.chCondWaitTimeoutS,"ax",%progbits
 477      AFF30080 
 477      AFF30080 
 478              		.align	2
 479              		.p2align 4,,15
 480              		.global	chCondWaitTimeoutS
 481              		.thumb
 482              		.thumb_func
 483              		.type	chCondWaitTimeoutS, %function
 484              	chCondWaitTimeoutS:
 485              	.LFB249:
 486              		.loc 1 296 0
 487              		.cfi_startproc
 488              		@ args = 0, pretend = 0, frame = 0
 489              		@ frame_needed = 0, uses_anonymous_args = 0
 490              	.LVL32:
 491 0000 2DE9F041 		push	{r4, r5, r6, r7, r8, lr}
 492              		.cfi_def_cfa_offset 24
 493              		.cfi_offset 4, -24
 494              		.cfi_offset 5, -20
 495              		.cfi_offset 6, -16
 496              		.cfi_offset 7, -12
 497              		.cfi_offset 8, -8
 498              		.cfi_offset 14, -4
 499              	.LBB141:
 500              	.LBB142:
ARM GAS  /tmp/ccpSxgvQ.s 			page 10


 501              	.LBB143:
 502              	.LBB144:
 503              		.file 5 "../ChibiOS/os/rt/include/chthreads.h"
 504              		.loc 5 176 0
 505 0004 124C     		ldr	r4, .L27
 506              	.LBE144:
 507              	.LBE143:
 508              		.loc 4 146 0
 509 0006 A369     		ldr	r3, [r4, #24]
 510 0008 5F6B     		ldr	r7, [r3, #52]
 511              	.LBE142:
 512              	.LBE141:
 513              		.loc 1 296 0
 514 000a 0646     		mov	r6, r0
 515              		.loc 1 306 0
 516 000c 3846     		mov	r0, r7
 517              	.LVL33:
 518              		.loc 1 296 0
 519 000e 8846     		mov	r8, r1
 520              		.loc 1 306 0
 521 0010 FFF7FEFF 		bl	chMtxUnlockS
 522              	.LVL34:
 523              		.loc 1 310 0
 524 0014 A569     		ldr	r5, [r4, #24]
 525              	.LBB145:
 526              	.LBB146:
 527              		.loc 2 655 0
 528 0016 3346     		mov	r3, r6
 529              	.LBE146:
 530              	.LBE145:
 531              		.loc 1 310 0
 532 0018 2E62     		str	r6, [r5, #32]
 533              	.LVL35:
 534 001a 03E0     		b	.L26
 535              	.LVL36:
 536              	.L22:
 537              	.LBB150:
 538              	.LBB147:
 539              		.loc 2 658 0
 540 001c 9C68     		ldr	r4, [r3, #8]
 541 001e AA68     		ldr	r2, [r5, #8]
 542 0020 9442     		cmp	r4, r2
 543 0022 02D3     		bcc	.L25
 544              	.L26:
 545              		.loc 2 657 0
 546 0024 1B68     		ldr	r3, [r3]
 547              	.LVL37:
 548              		.loc 2 658 0
 549 0026 9E42     		cmp	r6, r3
 550 0028 F8D1     		bne	.L22
 551              	.L25:
 552              		.loc 2 660 0
 553 002a 5A68     		ldr	r2, [r3, #4]
 554 002c 6A60     		str	r2, [r5, #4]
 555              		.loc 2 659 0
 556 002e 2B60     		str	r3, [r5]
 557              	.LBE147:
ARM GAS  /tmp/ccpSxgvQ.s 			page 11


 558              	.LBE150:
 559              		.loc 1 312 0
 560 0030 4146     		mov	r1, r8
 561              	.LBB151:
 562              	.LBB148:
 563              		.loc 2 661 0
 564 0032 1560     		str	r5, [r2]
 565              	.LBE148:
 566              	.LBE151:
 567              		.loc 1 312 0
 568 0034 0720     		movs	r0, #7
 569              	.LBB152:
 570              	.LBB149:
 571              		.loc 2 662 0
 572 0036 5D60     		str	r5, [r3, #4]
 573              	.LBE149:
 574              	.LBE152:
 575              		.loc 1 312 0
 576 0038 FFF7FEFF 		bl	chSchGoSleepTimeoutS
 577              	.LVL38:
 578              		.loc 1 313 0
 579 003c 431C     		adds	r3, r0, #1
 580              		.loc 1 312 0
 581 003e 0446     		mov	r4, r0
 582              	.LVL39:
 583              		.loc 1 313 0
 584 0040 02D0     		beq	.L24
 585              		.loc 1 314 0
 586 0042 3846     		mov	r0, r7
 587              	.LVL40:
 588 0044 FFF7FEFF 		bl	chMtxLockS
 589              	.LVL41:
 590              	.L24:
 591              		.loc 1 318 0
 592 0048 2046     		mov	r0, r4
 593 004a BDE8F081 		pop	{r4, r5, r6, r7, r8, pc}
 594              	.LVL42:
 595              	.L28:
 596 004e 00BF     		.align	2
 597              	.L27:
 598 0050 00000000 		.word	ch
 599              		.cfi_endproc
 600              	.LFE249:
 601              		.size	chCondWaitTimeoutS, .-chCondWaitTimeoutS
 602 0054 AFF30080 		.section	.text.chCondWaitTimeout,"ax",%progbits
 602      AFF30080 
 602      AFF30080 
 603              		.align	2
 604              		.p2align 4,,15
 605              		.global	chCondWaitTimeout
 606              		.thumb
 607              		.thumb_func
 608              		.type	chCondWaitTimeout, %function
 609              	chCondWaitTimeout:
 610              	.LFB248:
 611              		.loc 1 258 0
 612              		.cfi_startproc
ARM GAS  /tmp/ccpSxgvQ.s 			page 12


 613              		@ args = 0, pretend = 0, frame = 0
 614              		@ frame_needed = 0, uses_anonymous_args = 0
 615              	.LVL43:
 616 0000 08B5     		push	{r3, lr}
 617              		.cfi_def_cfa_offset 8
 618              		.cfi_offset 3, -8
 619              		.cfi_offset 14, -4
 620              	.LBB153:
 621              	.LBB154:
 622              	.LBB155:
 623              	.LBB156:
 624              		.loc 3 548 0
 625 0002 2023     		movs	r3, #32
 626              	@ 548 "../ChibiOS/os/ext/CMSIS/include/core_cmFunc.h" 1
 627 0004 83F31188 		MSR basepri, r3
 628              	@ 0 "" 2
 629              		.thumb
 630              	.LBE156:
 631              	.LBE155:
 632              	.LBE154:
 633              	.LBE153:
 634              		.loc 1 262 0
 635 0008 FFF7FEFF 		bl	chCondWaitTimeoutS
 636              	.LVL44:
 637              	.LBB157:
 638              	.LBB158:
 639              	.LBB159:
 640              	.LBB160:
 641              	.LBB161:
 642              		.loc 3 548 0
 643 000c 0023     		movs	r3, #0
 644              	@ 548 "../ChibiOS/os/ext/CMSIS/include/core_cmFunc.h" 1
 645 000e 83F31188 		MSR basepri, r3
 646              	@ 0 "" 2
 647              		.thumb
 648              	.LBE161:
 649              	.LBE160:
 650              	.LBE159:
 651              	.LBE158:
 652              	.LBE157:
 653              		.loc 1 266 0
 654 0012 08BD     		pop	{r3, pc}
 655              		.cfi_endproc
 656              	.LFE248:
 657              		.size	chCondWaitTimeout, .-chCondWaitTimeout
 658 0014 AFF30080 		.text
 658      AFF30080 
 658      AFF30080 
 659              	.Letext0:
 660              		.file 6 "/nfs/nfs5/home/research/hardware/arm2/gcc-arm-embedded/gcc-arm-none-eabi-4_8-2014q2/arm-n
 661              		.file 7 "/nfs/nfs5/home/research/hardware/arm2/gcc-arm-embedded/gcc-arm-none-eabi-4_8-2014q2/arm-n
 662              		.file 8 "../ChibiOS/os/rt/ports/ARMCMx/compilers/GCC/chtypes.h"
 663              		.file 9 "../ChibiOS/os/rt/include/chsystypes.h"
 664              		.file 10 "../ChibiOS/os/rt/ports/ARMCMx/chcore.h"
 665              		.file 11 "../ChibiOS/os/rt/ports/ARMCMx/chcore_v7m.h"
 666              		.file 12 "../ChibiOS/os/rt/include/chtm.h"
 667              		.file 13 "../ChibiOS/os/rt/include/chsem.h"
ARM GAS  /tmp/ccpSxgvQ.s 			page 13


 668              		.file 14 "../ChibiOS/os/rt/include/chcond.h"
 669              		.file 15 "../ChibiOS/os/rt/include/chsys.h"
 670              		.file 16 "../ChibiOS/os/ext/CMSIS/include/core_cm4.h"