ARM GAS  /tmp/ccu2Wvq7.s 			page 1


   1              		.syntax unified
   2              		.cpu cortex-m4
   3              		.fpu softvfp
   4              		.eabi_attribute 20, 1
   5              		.eabi_attribute 21, 1
   6              		.eabi_attribute 23, 3
   7              		.eabi_attribute 24, 1
   8              		.eabi_attribute 25, 1
   9              		.eabi_attribute 26, 1
  10              		.eabi_attribute 30, 2
  11              		.eabi_attribute 34, 1
  12              		.eabi_attribute 18, 4
  13              		.thumb
  14              		.file	"chdynamic.c"
  15              		.text
  16              	.Ltext0:
  17              		.cfi_sections	.debug_frame
  18              		.section	.text.chThdAddRef,"ax",%progbits
  19              		.align	2
  20              		.p2align 4,,15
  21              		.global	chThdAddRef
  22              		.thumb
  23              		.thumb_func
  24              		.type	chThdAddRef, %function
  25              	chThdAddRef:
  26              	.LFB241:
  27              		.file 1 "../ChibiOS/os/rt/src/chdynamic.c"
  28              		.loc 1 68 0
  29              		.cfi_startproc
  30              		@ args = 0, pretend = 0, frame = 0
  31              		@ frame_needed = 0, uses_anonymous_args = 0
  32              		@ link register save eliminated.
  33              	.LVL0:
  34              	.LBB54:
  35              	.LBB55:
  36              	.LBB56:
  37              	.LBB57:
  38              		.file 2 "../ChibiOS/os/ext/CMSIS/include/core_cmFunc.h"
  39              		.loc 2 548 0
  40 0000 2022     		movs	r2, #32
  41              	@ 548 "../ChibiOS/os/ext/CMSIS/include/core_cmFunc.h" 1
  42 0002 82F31188 		MSR basepri, r2
  43              	@ 0 "" 2
  44              		.thumb
  45              	.LBE57:
  46              	.LBE56:
  47              	.LBE55:
  48              	.LBE54:
  49              		.loc 1 72 0
  50 0006 827F     		ldrb	r2, [r0, #30]	@ zero_extendqisi2
  51 0008 0132     		adds	r2, r2, #1
  52 000a 8277     		strb	r2, [r0, #30]
  53              	.LVL1:
  54              	.LBB58:
  55              	.LBB59:
  56              	.LBB60:
  57              	.LBB61:
ARM GAS  /tmp/ccu2Wvq7.s 			page 2


  58              	.LBB62:
  59              		.loc 2 548 0
  60 000c 0023     		movs	r3, #0
  61              	@ 548 "../ChibiOS/os/ext/CMSIS/include/core_cmFunc.h" 1
  62 000e 83F31188 		MSR basepri, r3
  63              	@ 0 "" 2
  64              		.thumb
  65              	.LBE62:
  66              	.LBE61:
  67              	.LBE60:
  68              	.LBE59:
  69              	.LBE58:
  70              		.loc 1 76 0
  71 0012 7047     		bx	lr
  72              		.cfi_endproc
  73              	.LFE241:
  74              		.size	chThdAddRef, .-chThdAddRef
  75 0014 AFF30080 		.section	.text.chThdRelease,"ax",%progbits
  75      AFF30080 
  75      AFF30080 
  76              		.align	2
  77              		.p2align 4,,15
  78              		.global	chThdRelease
  79              		.thumb
  80              		.thumb_func
  81              		.type	chThdRelease, %function
  82              	chThdRelease:
  83              	.LFB242:
  84              		.loc 1 91 0
  85              		.cfi_startproc
  86              		@ args = 0, pretend = 0, frame = 0
  87              		@ frame_needed = 0, uses_anonymous_args = 0
  88              		@ link register save eliminated.
  89              	.LVL2:
  90              		.loc 1 91 0
  91 0000 0146     		mov	r1, r0
  92              	.LBB63:
  93              	.LBB64:
  94              	.LBB65:
  95              	.LBB66:
  96              		.loc 2 548 0
  97 0002 2023     		movs	r3, #32
  98              	@ 548 "../ChibiOS/os/ext/CMSIS/include/core_cmFunc.h" 1
  99 0004 83F31188 		MSR basepri, r3
 100              	@ 0 "" 2
 101              		.thumb
 102              	.LBE66:
 103              	.LBE65:
 104              	.LBE64:
 105              	.LBE63:
 106              		.loc 1 96 0
 107 0008 837F     		ldrb	r3, [r0, #30]	@ zero_extendqisi2
 108 000a 013B     		subs	r3, r3, #1
 109 000c DBB2     		uxtb	r3, r3
 110 000e 8377     		strb	r3, [r0, #30]
 111              	.LVL3:
 112              	.LBB67:
ARM GAS  /tmp/ccu2Wvq7.s 			page 3


 113              	.LBB68:
 114              	.LBB69:
 115              	.LBB70:
 116              	.LBB71:
 117              		.loc 2 548 0
 118 0010 0022     		movs	r2, #0
 119              	@ 548 "../ChibiOS/os/ext/CMSIS/include/core_cmFunc.h" 1
 120 0012 82F31188 		MSR basepri, r2
 121              	@ 0 "" 2
 122              		.thumb
 123              	.LBE71:
 124              	.LBE70:
 125              	.LBE69:
 126              	.LBE68:
 127              	.LBE67:
 128              		.loc 1 103 0
 129 0016 13B9     		cbnz	r3, .L2
 130              		.loc 1 103 0 is_stmt 0 discriminator 1
 131 0018 037F     		ldrb	r3, [r0, #28]	@ zero_extendqisi2
 132              	.LVL4:
 133 001a 0F2B     		cmp	r3, #15
 134 001c 00D0     		beq	.L7
 135              	.L2:
 136 001e 7047     		bx	lr
 137              	.L7:
 138              		.loc 1 104 0 is_stmt 1
 139 0020 437F     		ldrb	r3, [r0, #29]	@ zero_extendqisi2
 140 0022 03F00303 		and	r3, r3, #3
 141 0026 012B     		cmp	r3, #1
 142 0028 02D0     		beq	.L4
 143 002a 022B     		cmp	r3, #2
 144 002c 07D0     		beq	.L5
 145 002e 7047     		bx	lr
 146              	.L4:
 147              		.loc 1 108 0
 148 0030 4369     		ldr	r3, [r0, #20]
 149 0032 0269     		ldr	r2, [r0, #16]
 150 0034 1A61     		str	r2, [r3, #16]
 151 0036 0269     		ldr	r2, [r0, #16]
 152 0038 5361     		str	r3, [r2, #20]
 153              		.loc 1 110 0
 154 003a FFF7FEBF 		b	chHeapFree
 155              	.LVL5:
 156              	.L5:
 157              		.loc 1 116 0
 158 003e 4369     		ldr	r3, [r0, #20]
 159 0040 0269     		ldr	r2, [r0, #16]
 160 0042 1A61     		str	r2, [r3, #16]
 161 0044 0269     		ldr	r2, [r0, #16]
 162              		.loc 1 118 0
 163 0046 C06B     		ldr	r0, [r0, #60]
 164              	.LVL6:
 165              		.loc 1 116 0
 166 0048 5361     		str	r3, [r2, #20]
 167              		.loc 1 118 0
 168 004a FFF7FEBF 		b	chPoolFree
 169              	.LVL7:
ARM GAS  /tmp/ccu2Wvq7.s 			page 4


 170              		.cfi_endproc
 171              	.LFE242:
 172              		.size	chThdRelease, .-chThdRelease
 173 004e 00BF     		.section	.text.chThdCreateFromHeap,"ax",%progbits
 174              		.align	2
 175              		.p2align 4,,15
 176              		.global	chThdCreateFromHeap
 177              		.thumb
 178              		.thumb_func
 179              		.type	chThdCreateFromHeap, %function
 180              	chThdCreateFromHeap:
 181              	.LFB243:
 182              		.loc 1 153 0
 183              		.cfi_startproc
 184              		@ args = 4, pretend = 0, frame = 0
 185              		@ frame_needed = 0, uses_anonymous_args = 0
 186              	.LVL8:
 187 0000 F0B5     		push	{r4, r5, r6, r7, lr}
 188              		.cfi_def_cfa_offset 20
 189              		.cfi_offset 4, -20
 190              		.cfi_offset 5, -16
 191              		.cfi_offset 6, -12
 192              		.cfi_offset 7, -8
 193              		.cfi_offset 14, -4
 194 0002 83B0     		sub	sp, sp, #12
 195              		.cfi_def_cfa_offset 32
 196              		.loc 1 153 0
 197 0004 1746     		mov	r7, r2
 198 0006 1E46     		mov	r6, r3
 199 0008 0D46     		mov	r5, r1
 200              		.loc 1 157 0
 201 000a FFF7FEFF 		bl	chHeapAlloc
 202              	.LVL9:
 203              		.loc 1 158 0
 204 000e 98B1     		cbz	r0, .L9
 205              	.LVL10:
 206              	.LBB72:
 207              	.LBB73:
 208              	.LBB74:
 209              	.LBB75:
 210              		.loc 2 548 0
 211 0010 2023     		movs	r3, #32
 212              	@ 548 "../ChibiOS/os/ext/CMSIS/include/core_cmFunc.h" 1
 213 0012 83F31188 		MSR basepri, r3
 214              	@ 0 "" 2
 215              		.thumb
 216              	.LBE75:
 217              	.LBE74:
 218              	.LBE73:
 219              	.LBE72:
 220              		.loc 1 172 0
 221 0016 089B     		ldr	r3, [sp, #32]
 222 0018 0093     		str	r3, [sp]
 223 001a 2946     		mov	r1, r5
 224 001c 3A46     		mov	r2, r7
 225 001e 3346     		mov	r3, r6
 226 0020 FFF7FEFF 		bl	chThdCreateI
ARM GAS  /tmp/ccu2Wvq7.s 			page 5


 227              	.LVL11:
 228              		.loc 1 173 0
 229 0024 0123     		movs	r3, #1
 230 0026 4377     		strb	r3, [r0, #29]
 231              		.loc 1 174 0
 232 0028 0021     		movs	r1, #0
 233              		.loc 1 172 0
 234 002a 0446     		mov	r4, r0
 235              	.LVL12:
 236              		.loc 1 174 0
 237 002c FFF7FEFF 		bl	chSchWakeupS
 238              	.LVL13:
 239              	.LBB76:
 240              	.LBB77:
 241              	.LBB78:
 242              	.LBB79:
 243              	.LBB80:
 244              		.loc 2 548 0
 245 0030 0023     		movs	r3, #0
 246              	@ 548 "../ChibiOS/os/ext/CMSIS/include/core_cmFunc.h" 1
 247 0032 83F31188 		MSR basepri, r3
 248              	@ 0 "" 2
 249              		.thumb
 250              	.LBE80:
 251              	.LBE79:
 252              	.LBE78:
 253              	.LBE77:
 254              	.LBE76:
 255              		.loc 1 177 0
 256 0036 2046     		mov	r0, r4
 257              	.LVL14:
 258              	.L9:
 259              		.loc 1 178 0
 260 0038 03B0     		add	sp, sp, #12
 261              		@ sp needed
 262 003a F0BD     		pop	{r4, r5, r6, r7, pc}
 263              		.cfi_endproc
 264              	.LFE243:
 265              		.size	chThdCreateFromHeap, .-chThdCreateFromHeap
 266 003c AFF30080 		.section	.text.chThdCreateFromMemoryPool,"ax",%progbits
 267              		.align	2
 268              		.p2align 4,,15
 269              		.global	chThdCreateFromMemoryPool
 270              		.thumb
 271              		.thumb_func
 272              		.type	chThdCreateFromMemoryPool, %function
 273              	chThdCreateFromMemoryPool:
 274              	.LFB244:
 275              		.loc 1 205 0
 276              		.cfi_startproc
 277              		@ args = 0, pretend = 0, frame = 0
 278              		@ frame_needed = 0, uses_anonymous_args = 0
 279              	.LVL15:
 280 0000 F0B5     		push	{r4, r5, r6, r7, lr}
 281              		.cfi_def_cfa_offset 20
 282              		.cfi_offset 4, -20
 283              		.cfi_offset 5, -16
ARM GAS  /tmp/ccu2Wvq7.s 			page 6


 284              		.cfi_offset 6, -12
 285              		.cfi_offset 7, -8
 286              		.cfi_offset 14, -4
 287 0002 83B0     		sub	sp, sp, #12
 288              		.cfi_def_cfa_offset 32
 289              		.loc 1 205 0
 290 0004 0F46     		mov	r7, r1
 291 0006 1646     		mov	r6, r2
 292 0008 1C46     		mov	r4, r3
 293 000a 0546     		mov	r5, r0
 294              		.loc 1 211 0
 295 000c FFF7FEFF 		bl	chPoolAlloc
 296              	.LVL16:
 297              		.loc 1 212 0
 298 0010 98B1     		cbz	r0, .L12
 299              	.LVL17:
 300              	.LBB81:
 301              	.LBB82:
 302              	.LBB83:
 303              	.LBB84:
 304              		.loc 2 548 0
 305 0012 2023     		movs	r3, #32
 306              	@ 548 "../ChibiOS/os/ext/CMSIS/include/core_cmFunc.h" 1
 307 0014 83F31188 		MSR basepri, r3
 308              	@ 0 "" 2
 309              		.thumb
 310              	.LBE84:
 311              	.LBE83:
 312              	.LBE82:
 313              	.LBE81:
 314              		.loc 1 226 0
 315 0018 6968     		ldr	r1, [r5, #4]
 316 001a 0094     		str	r4, [sp]
 317 001c 3A46     		mov	r2, r7
 318 001e 3346     		mov	r3, r6
 319 0020 FFF7FEFF 		bl	chThdCreateI
 320              	.LVL18:
 321              		.loc 1 227 0
 322 0024 0223     		movs	r3, #2
 323 0026 4377     		strb	r3, [r0, #29]
 324              		.loc 1 228 0
 325 0028 C563     		str	r5, [r0, #60]
 326              		.loc 1 229 0
 327 002a 0021     		movs	r1, #0
 328              		.loc 1 226 0
 329 002c 0446     		mov	r4, r0
 330              	.LVL19:
 331              		.loc 1 229 0
 332 002e FFF7FEFF 		bl	chSchWakeupS
 333              	.LVL20:
 334              	.LBB85:
 335              	.LBB86:
 336              	.LBB87:
 337              	.LBB88:
 338              	.LBB89:
 339              		.loc 2 548 0
 340 0032 0023     		movs	r3, #0
ARM GAS  /tmp/ccu2Wvq7.s 			page 7


 341              	@ 548 "../ChibiOS/os/ext/CMSIS/include/core_cmFunc.h" 1
 342 0034 83F31188 		MSR basepri, r3
 343              	@ 0 "" 2
 344              		.thumb
 345              	.LBE89:
 346              	.LBE88:
 347              	.LBE87:
 348              	.LBE86:
 349              	.LBE85:
 350              		.loc 1 232 0
 351 0038 2046     		mov	r0, r4
 352              	.LVL21:
 353              	.L12:
 354              		.loc 1 233 0
 355 003a 03B0     		add	sp, sp, #12
 356              		@ sp needed
 357 003c F0BD     		pop	{r4, r5, r6, r7, pc}
 358              		.cfi_endproc
 359              	.LFE244:
 360              		.size	chThdCreateFromMemoryPool, .-chThdCreateFromMemoryPool
 361 003e 00BF     		.text
 362              	.Letext0:
 363              		.file 3 "/nfs/nfs5/home/research/hardware/arm2/gcc-arm-embedded/gcc-arm-none-eabi-4_8-2014q2/lib/g
 364              		.file 4 "/nfs/nfs5/home/research/hardware/arm2/gcc-arm-embedded/gcc-arm-none-eabi-4_8-2014q2/arm-n
 365              		.file 5 "/nfs/nfs5/home/research/hardware/arm2/gcc-arm-embedded/gcc-arm-none-eabi-4_8-2014q2/arm-n
 366              		.file 6 "../ChibiOS/os/rt/ports/ARMCMx/compilers/GCC/chtypes.h"
 367              		.file 7 "../ChibiOS/os/rt/include/chsystypes.h"
 368              		.file 8 "../ChibiOS/os/rt/include/chschd.h"
 369              		.file 9 "../ChibiOS/os/rt/ports/ARMCMx/chcore.h"
 370              		.file 10 "../ChibiOS/os/rt/ports/ARMCMx/chcore_v7m.h"
 371              		.file 11 "../ChibiOS/os/rt/include/chtm.h"
 372              		.file 12 "../ChibiOS/os/rt/include/chsem.h"
 373              		.file 13 "../ChibiOS/os/rt/include/chmtx.h"
 374              		.file 14 "../ChibiOS/os/rt/include/chthreads.h"
 375              		.file 15 "../ChibiOS/os/rt/include/chmemcore.h"
 376              		.file 16 "../ChibiOS/os/rt/include/chheap.h"
 377              		.file 17 "../ChibiOS/os/rt/include/chmempools.h"
 378              		.file 18 "../ChibiOS/os/rt/include/chsys.h"
 379              		.file 19 "../ChibiOS/os/ext/CMSIS/include/core_cm4.h"
 380              		.section	.debug_info,"",%progbits
 381              	.Ldebug_info0:
 382 0000 D70C0000 		.4byte	0xcd7
 383 0004 0400     		.2byte	0x4
 384 0006 00000000 		.4byte	.Ldebug_abbrev0
 385 000a 04       		.byte	0x4
 386 000b 01       		.uleb128 0x1
 387 000c DE040000 		.4byte	.LASF138
 388 0010 01       		.byte	0x1
 389 0011 B4040000 		.4byte	.LASF139
 390 0015 FE020000 		.4byte	.LASF140
 391 0019 00000000 		.4byte	.Ldebug_ranges0+0
 392 001d 00000000 		.4byte	0
 393 0021 00000000 		.4byte	.Ldebug_line0
 394 0025 02       		.uleb128 0x2
 395 0026 04       		.byte	0x4
 396 0027 05       		.byte	0x5
 397 0028 696E7400 		.ascii	"int\000"
ARM GAS  /tmp/ccu2Wvq7.s 			page 8


 398 002c 03       		.uleb128 0x3
 399 002d 15000000 		.4byte	.LASF2
 400 0031 03       		.byte	0x3
 401 0032 D4       		.byte	0xd4
 402 0033 37000000 		.4byte	0x37
 403 0037 04       		.uleb128 0x4
 404 0038 04       		.byte	0x4
 405 0039 07       		.byte	0x7
 406 003a FC010000 		.4byte	.LASF0
 407 003e 04       		.uleb128 0x4
 408 003f 01       		.byte	0x1
 409 0040 06       		.byte	0x6
 410 0041 EB000000 		.4byte	.LASF1
 411 0045 03       		.uleb128 0x3
 412 0046 2C000000 		.4byte	.LASF3
 413 004a 04       		.byte	0x4
 414 004b 1C       		.byte	0x1c
 415 004c 50000000 		.4byte	0x50
 416 0050 04       		.uleb128 0x4
 417 0051 01       		.byte	0x1
 418 0052 08       		.byte	0x8
 419 0053 C6030000 		.4byte	.LASF4
 420 0057 04       		.uleb128 0x4
 421 0058 02       		.byte	0x2
 422 0059 05       		.byte	0x5
 423 005a EA030000 		.4byte	.LASF5
 424 005e 04       		.uleb128 0x4
 425 005f 02       		.byte	0x2
 426 0060 07       		.byte	0x7
 427 0061 37020000 		.4byte	.LASF6
 428 0065 03       		.uleb128 0x3
 429 0066 A0020000 		.4byte	.LASF7
 430 006a 04       		.byte	0x4
 431 006b 37       		.byte	0x37
 432 006c 70000000 		.4byte	0x70
 433 0070 04       		.uleb128 0x4
 434 0071 04       		.byte	0x4
 435 0072 05       		.byte	0x5
 436 0073 48010000 		.4byte	.LASF8
 437 0077 03       		.uleb128 0x3
 438 0078 DD050000 		.4byte	.LASF9
 439 007c 04       		.byte	0x4
 440 007d 38       		.byte	0x38
 441 007e 82000000 		.4byte	0x82
 442 0082 04       		.uleb128 0x4
 443 0083 04       		.byte	0x4
 444 0084 07       		.byte	0x7
 445 0085 93040000 		.4byte	.LASF10
 446 0089 04       		.uleb128 0x4
 447 008a 08       		.byte	0x8
 448 008b 05       		.byte	0x5
 449 008c DD000000 		.4byte	.LASF11
 450 0090 03       		.uleb128 0x3
 451 0091 6F030000 		.4byte	.LASF12
 452 0095 04       		.byte	0x4
 453 0096 4E       		.byte	0x4e
 454 0097 9B000000 		.4byte	0x9b
ARM GAS  /tmp/ccu2Wvq7.s 			page 9


 455 009b 04       		.uleb128 0x4
 456 009c 08       		.byte	0x8
 457 009d 07       		.byte	0x7
 458 009e 68000000 		.4byte	.LASF13
 459 00a2 03       		.uleb128 0x3
 460 00a3 61060000 		.4byte	.LASF14
 461 00a7 05       		.byte	0x5
 462 00a8 2A       		.byte	0x2a
 463 00a9 45000000 		.4byte	0x45
 464 00ad 03       		.uleb128 0x3
 465 00ae BE030000 		.4byte	.LASF15
 466 00b2 05       		.byte	0x5
 467 00b3 41       		.byte	0x41
 468 00b4 65000000 		.4byte	0x65
 469 00b8 03       		.uleb128 0x3
 470 00b9 5D040000 		.4byte	.LASF16
 471 00bd 05       		.byte	0x5
 472 00be 42       		.byte	0x42
 473 00bf 77000000 		.4byte	0x77
 474 00c3 03       		.uleb128 0x3
 475 00c4 23000000 		.4byte	.LASF17
 476 00c8 05       		.byte	0x5
 477 00c9 4E       		.byte	0x4e
 478 00ca 90000000 		.4byte	0x90
 479 00ce 03       		.uleb128 0x3
 480 00cf 29060000 		.4byte	.LASF18
 481 00d3 06       		.byte	0x6
 482 00d4 39       		.byte	0x39
 483 00d5 B8000000 		.4byte	0xb8
 484 00d9 03       		.uleb128 0x3
 485 00da 7E020000 		.4byte	.LASF19
 486 00de 06       		.byte	0x6
 487 00df 3C       		.byte	0x3c
 488 00e0 A2000000 		.4byte	0xa2
 489 00e4 03       		.uleb128 0x3
 490 00e5 65010000 		.4byte	.LASF20
 491 00e9 06       		.byte	0x6
 492 00ea 3D       		.byte	0x3d
 493 00eb A2000000 		.4byte	0xa2
 494 00ef 03       		.uleb128 0x3
 495 00f0 82030000 		.4byte	.LASF21
 496 00f4 06       		.byte	0x6
 497 00f5 3E       		.byte	0x3e
 498 00f6 A2000000 		.4byte	0xa2
 499 00fa 03       		.uleb128 0x3
 500 00fb A6030000 		.4byte	.LASF22
 501 00ff 06       		.byte	0x6
 502 0100 40       		.byte	0x40
 503 0101 B8000000 		.4byte	0xb8
 504 0105 03       		.uleb128 0x3
 505 0106 6C020000 		.4byte	.LASF23
 506 010a 06       		.byte	0x6
 507 010b 41       		.byte	0x41
 508 010c AD000000 		.4byte	0xad
 509 0110 03       		.uleb128 0x3
 510 0111 94020000 		.4byte	.LASF24
 511 0115 06       		.byte	0x6
ARM GAS  /tmp/ccu2Wvq7.s 			page 10


 512 0116 43       		.byte	0x43
 513 0117 B8000000 		.4byte	0xb8
 514 011b 03       		.uleb128 0x3
 515 011c F6010000 		.4byte	.LASF25
 516 0120 06       		.byte	0x6
 517 0121 45       		.byte	0x45
 518 0122 AD000000 		.4byte	0xad
 519 0126 03       		.uleb128 0x3
 520 0127 BF050000 		.4byte	.LASF26
 521 012b 07       		.byte	0x7
 522 012c 33       		.byte	0x33
 523 012d B8000000 		.4byte	0xb8
 524 0131 03       		.uleb128 0x3
 525 0132 D5040000 		.4byte	.LASF27
 526 0136 07       		.byte	0x7
 527 0137 3F       		.byte	0x3f
 528 0138 3C010000 		.4byte	0x13c
 529 013c 05       		.uleb128 0x5
 530 013d 4A020000 		.4byte	.LASF46
 531 0141 40       		.byte	0x40
 532 0142 08       		.byte	0x8
 533 0143 C2       		.byte	0xc2
 534 0144 1C020000 		.4byte	0x21c
 535 0148 06       		.uleb128 0x6
 536 0149 0A040000 		.4byte	.LASF28
 537 014d 08       		.byte	0x8
 538 014e C3       		.byte	0xc3
 539 014f 27020000 		.4byte	0x227
 540 0153 00       		.byte	0
 541 0154 06       		.uleb128 0x6
 542 0155 9F030000 		.4byte	.LASF29
 543 0159 08       		.byte	0x8
 544 015a C5       		.byte	0xc5
 545 015b 27020000 		.4byte	0x227
 546 015f 04       		.byte	0x4
 547 0160 06       		.uleb128 0x6
 548 0161 D6000000 		.4byte	.LASF30
 549 0165 08       		.byte	0x8
 550 0166 C7       		.byte	0xc7
 551 0167 FA000000 		.4byte	0xfa
 552 016b 08       		.byte	0x8
 553 016c 06       		.uleb128 0x6
 554 016d C1060000 		.4byte	.LASF31
 555 0171 08       		.byte	0x8
 556 0172 C8       		.byte	0xc8
 557 0173 57040000 		.4byte	0x457
 558 0177 0C       		.byte	0xc
 559 0178 06       		.uleb128 0x6
 560 0179 84010000 		.4byte	.LASF32
 561 017d 08       		.byte	0x8
 562 017e CA       		.byte	0xca
 563 017f 27020000 		.4byte	0x227
 564 0183 10       		.byte	0x10
 565 0184 06       		.uleb128 0x6
 566 0185 34030000 		.4byte	.LASF33
 567 0189 08       		.byte	0x8
 568 018a CB       		.byte	0xcb
ARM GAS  /tmp/ccu2Wvq7.s 			page 11


 569 018b 27020000 		.4byte	0x227
 570 018f 14       		.byte	0x14
 571 0190 06       		.uleb128 0x6
 572 0191 92060000 		.4byte	.LASF34
 573 0195 08       		.byte	0x8
 574 0196 D2       		.byte	0xd2
 575 0197 E2050000 		.4byte	0x5e2
 576 019b 18       		.byte	0x18
 577 019c 06       		.uleb128 0x6
 578 019d F4030000 		.4byte	.LASF35
 579 01a1 08       		.byte	0x8
 580 01a2 DD       		.byte	0xdd
 581 01a3 E4000000 		.4byte	0xe4
 582 01a7 1C       		.byte	0x1c
 583 01a8 06       		.uleb128 0x6
 584 01a9 11040000 		.4byte	.LASF36
 585 01ad 08       		.byte	0x8
 586 01ae E1       		.byte	0xe1
 587 01af D9000000 		.4byte	0xd9
 588 01b3 1D       		.byte	0x1d
 589 01b4 06       		.uleb128 0x6
 590 01b5 54060000 		.4byte	.LASF37
 591 01b9 08       		.byte	0x8
 592 01ba E6       		.byte	0xe6
 593 01bb EF000000 		.4byte	0xef
 594 01bf 1E       		.byte	0x1e
 595 01c0 07       		.uleb128 0x7
 596 01c1 705F7500 		.ascii	"p_u\000"
 597 01c5 08       		.byte	0x8
 598 01c6 3701     		.2byte	0x137
 599 01c8 11050000 		.4byte	0x511
 600 01cc 20       		.byte	0x20
 601 01cd 08       		.uleb128 0x8
 602 01ce C1020000 		.4byte	.LASF38
 603 01d2 08       		.byte	0x8
 604 01d3 3C01     		.2byte	0x13c
 605 01d5 2D020000 		.4byte	0x22d
 606 01d9 24       		.byte	0x24
 607 01da 08       		.uleb128 0x8
 608 01db 18020000 		.4byte	.LASF39
 609 01df 08       		.byte	0x8
 610 01e0 4201     		.2byte	0x142
 611 01e2 51020000 		.4byte	0x251
 612 01e6 28       		.byte	0x28
 613 01e7 08       		.uleb128 0x8
 614 01e8 52040000 		.4byte	.LASF40
 615 01ec 08       		.byte	0x8
 616 01ed 4801     		.2byte	0x148
 617 01ef 10010000 		.4byte	0x110
 618 01f3 30       		.byte	0x30
 619 01f4 08       		.uleb128 0x8
 620 01f5 E0030000 		.4byte	.LASF41
 621 01f9 08       		.byte	0x8
 622 01fa 4F01     		.2byte	0x14f
 623 01fc DC050000 		.4byte	0x5dc
 624 0200 34       		.byte	0x34
 625 0201 08       		.uleb128 0x8
ARM GAS  /tmp/ccu2Wvq7.s 			page 12


 626 0202 C9050000 		.4byte	.LASF42
 627 0206 08       		.byte	0x8
 628 0207 5301     		.2byte	0x153
 629 0209 FA000000 		.4byte	0xfa
 630 020d 38       		.byte	0x38
 631 020e 08       		.uleb128 0x8
 632 020f FD000000 		.4byte	.LASF43
 633 0213 08       		.byte	0x8
 634 0214 5A01     		.2byte	0x15a
 635 0216 04030000 		.4byte	0x304
 636 021a 3C       		.byte	0x3c
 637 021b 00       		.byte	0
 638 021c 03       		.uleb128 0x3
 639 021d D4020000 		.4byte	.LASF44
 640 0221 07       		.byte	0x7
 641 0222 44       		.byte	0x44
 642 0223 27020000 		.4byte	0x227
 643 0227 09       		.uleb128 0x9
 644 0228 04       		.byte	0x4
 645 0229 31010000 		.4byte	0x131
 646 022d 03       		.uleb128 0x3
 647 022e 9E060000 		.4byte	.LASF45
 648 0232 07       		.byte	0x7
 649 0233 49       		.byte	0x49
 650 0234 38020000 		.4byte	0x238
 651 0238 05       		.uleb128 0x5
 652 0239 7E040000 		.4byte	.LASF47
 653 023d 04       		.byte	0x4
 654 023e 08       		.byte	0x8
 655 023f B0       		.byte	0xb0
 656 0240 51020000 		.4byte	0x251
 657 0244 06       		.uleb128 0x6
 658 0245 0A040000 		.4byte	.LASF28
 659 0249 08       		.byte	0x8
 660 024a B1       		.byte	0xb1
 661 024b 27020000 		.4byte	0x227
 662 024f 00       		.byte	0
 663 0250 00       		.byte	0
 664 0251 03       		.uleb128 0x3
 665 0252 38060000 		.4byte	.LASF48
 666 0256 07       		.byte	0x7
 667 0257 50       		.byte	0x50
 668 0258 5C020000 		.4byte	0x25c
 669 025c 05       		.uleb128 0x5
 670 025d C5000000 		.4byte	.LASF49
 671 0261 08       		.byte	0x8
 672 0262 08       		.byte	0x8
 673 0263 B7       		.byte	0xb7
 674 0264 81020000 		.4byte	0x281
 675 0268 06       		.uleb128 0x6
 676 0269 0A040000 		.4byte	.LASF28
 677 026d 08       		.byte	0x8
 678 026e B8       		.byte	0xb8
 679 026f 27020000 		.4byte	0x227
 680 0273 00       		.byte	0
 681 0274 06       		.uleb128 0x6
 682 0275 9F030000 		.4byte	.LASF29
ARM GAS  /tmp/ccu2Wvq7.s 			page 13


 683 0279 08       		.byte	0x8
 684 027a B9       		.byte	0xb9
 685 027b 27020000 		.4byte	0x227
 686 027f 04       		.byte	0x4
 687 0280 00       		.byte	0
 688 0281 03       		.uleb128 0x3
 689 0282 08000000 		.4byte	.LASF50
 690 0286 07       		.byte	0x7
 691 0287 57       		.byte	0x57
 692 0288 8C020000 		.4byte	0x28c
 693 028c 0A       		.uleb128 0xa
 694 028d 86020000 		.4byte	.LASF51
 695 0291 1C       		.byte	0x1c
 696 0292 08       		.byte	0x8
 697 0293 9201     		.2byte	0x192
 698 0295 E8020000 		.4byte	0x2e8
 699 0299 08       		.uleb128 0x8
 700 029a 6D040000 		.4byte	.LASF52
 701 029e 08       		.byte	0x8
 702 029f 9301     		.2byte	0x193
 703 02a1 51020000 		.4byte	0x251
 704 02a5 00       		.byte	0
 705 02a6 08       		.uleb128 0x8
 706 02a7 FC030000 		.4byte	.LASF53
 707 02ab 08       		.byte	0x8
 708 02ac 9401     		.2byte	0x194
 709 02ae FA000000 		.4byte	0xfa
 710 02b2 08       		.byte	0x8
 711 02b3 08       		.uleb128 0x8
 712 02b4 3C030000 		.4byte	.LASF54
 713 02b8 08       		.byte	0x8
 714 02b9 9601     		.2byte	0x196
 715 02bb 57040000 		.4byte	0x457
 716 02bf 0C       		.byte	0xc
 717 02c0 08       		.uleb128 0x8
 718 02c1 AE010000 		.4byte	.LASF55
 719 02c5 08       		.byte	0x8
 720 02c6 9901     		.2byte	0x199
 721 02c8 27020000 		.4byte	0x227
 722 02cc 10       		.byte	0x10
 723 02cd 08       		.uleb128 0x8
 724 02ce 67030000 		.4byte	.LASF56
 725 02d2 08       		.byte	0x8
 726 02d3 9A01     		.2byte	0x19a
 727 02d5 27020000 		.4byte	0x227
 728 02d9 14       		.byte	0x14
 729 02da 08       		.uleb128 0x8
 730 02db A5040000 		.4byte	.LASF57
 731 02df 08       		.byte	0x8
 732 02e0 9D01     		.2byte	0x19d
 733 02e2 27020000 		.4byte	0x227
 734 02e6 18       		.byte	0x18
 735 02e7 00       		.byte	0
 736 02e8 03       		.uleb128 0x3
 737 02e9 D4050000 		.4byte	.LASF58
 738 02ed 07       		.byte	0x7
 739 02ee 5C       		.byte	0x5c
ARM GAS  /tmp/ccu2Wvq7.s 			page 14


 740 02ef F3020000 		.4byte	0x2f3
 741 02f3 09       		.uleb128 0x9
 742 02f4 04       		.byte	0x4
 743 02f5 F9020000 		.4byte	0x2f9
 744 02f9 0B       		.uleb128 0xb
 745 02fa 04030000 		.4byte	0x304
 746 02fe 0C       		.uleb128 0xc
 747 02ff 04030000 		.4byte	0x304
 748 0303 00       		.byte	0
 749 0304 0D       		.uleb128 0xd
 750 0305 04       		.byte	0x4
 751 0306 03       		.uleb128 0x3
 752 0307 8F030000 		.4byte	.LASF59
 753 030b 07       		.byte	0x7
 754 030c 61       		.byte	0x61
 755 030d 11030000 		.4byte	0x311
 756 0311 0A       		.uleb128 0xa
 757 0312 18060000 		.4byte	.LASF60
 758 0316 14       		.byte	0x14
 759 0317 08       		.byte	0x8
 760 0318 6D01     		.2byte	0x16d
 761 031a 60030000 		.4byte	0x360
 762 031e 08       		.uleb128 0x8
 763 031f 09020000 		.4byte	.LASF61
 764 0323 08       		.byte	0x8
 765 0324 6E01     		.2byte	0x16e
 766 0326 F4050000 		.4byte	0x5f4
 767 032a 00       		.byte	0
 768 032b 08       		.uleb128 0x8
 769 032c CB010000 		.4byte	.LASF62
 770 0330 08       		.byte	0x8
 771 0331 6F01     		.2byte	0x16f
 772 0333 F4050000 		.4byte	0x5f4
 773 0337 04       		.byte	0x4
 774 0338 08       		.uleb128 0x8
 775 0339 75040000 		.4byte	.LASF63
 776 033d 08       		.byte	0x8
 777 033e 7001     		.2byte	0x170
 778 0340 26010000 		.4byte	0x126
 779 0344 08       		.byte	0x8
 780 0345 08       		.uleb128 0x8
 781 0346 C7060000 		.4byte	.LASF64
 782 034a 08       		.byte	0x8
 783 034b 7101     		.2byte	0x171
 784 034d E8020000 		.4byte	0x2e8
 785 0351 0C       		.byte	0xc
 786 0352 08       		.uleb128 0x8
 787 0353 31060000 		.4byte	.LASF65
 788 0357 08       		.byte	0x8
 789 0358 7301     		.2byte	0x173
 790 035a 04030000 		.4byte	0x304
 791 035e 10       		.byte	0x10
 792 035f 00       		.byte	0
 793 0360 03       		.uleb128 0x3
 794 0361 97000000 		.4byte	.LASF66
 795 0365 07       		.byte	0x7
 796 0366 66       		.byte	0x66
ARM GAS  /tmp/ccu2Wvq7.s 			page 15


 797 0367 6B030000 		.4byte	0x36b
 798 036b 0A       		.uleb128 0xa
 799 036c E7020000 		.4byte	.LASF67
 800 0370 10       		.byte	0x10
 801 0371 08       		.byte	0x8
 802 0372 7D01     		.2byte	0x17d
 803 0374 AD030000 		.4byte	0x3ad
 804 0378 08       		.uleb128 0x8
 805 0379 09020000 		.4byte	.LASF61
 806 037d 08       		.byte	0x8
 807 037e 7E01     		.2byte	0x17e
 808 0380 F4050000 		.4byte	0x5f4
 809 0384 00       		.byte	0
 810 0385 08       		.uleb128 0x8
 811 0386 CB010000 		.4byte	.LASF62
 812 038a 08       		.byte	0x8
 813 038b 8001     		.2byte	0x180
 814 038d F4050000 		.4byte	0x5f4
 815 0391 04       		.byte	0x4
 816 0392 08       		.uleb128 0x8
 817 0393 75040000 		.4byte	.LASF63
 818 0397 08       		.byte	0x8
 819 0398 8201     		.2byte	0x182
 820 039a 26010000 		.4byte	0x126
 821 039e 08       		.byte	0x8
 822 039f 08       		.uleb128 0x8
 823 03a0 28030000 		.4byte	.LASF68
 824 03a4 08       		.byte	0x8
 825 03a5 8A01     		.2byte	0x18a
 826 03a7 26010000 		.4byte	0x126
 827 03ab 0C       		.byte	0xc
 828 03ac 00       		.byte	0
 829 03ad 03       		.uleb128 0x3
 830 03ae 42000000 		.4byte	.LASF69
 831 03b2 07       		.byte	0x7
 832 03b3 6B       		.byte	0x6b
 833 03b4 B8030000 		.4byte	0x3b8
 834 03b8 0A       		.uleb128 0xa
 835 03b9 AE030000 		.4byte	.LASF70
 836 03bd 04       		.byte	0x4
 837 03be 08       		.byte	0x8
 838 03bf A401     		.2byte	0x1a4
 839 03c1 D3030000 		.4byte	0x3d3
 840 03c5 08       		.uleb128 0x8
 841 03c6 F6050000 		.4byte	.LASF71
 842 03ca 08       		.byte	0x8
 843 03cb AC01     		.2byte	0x1ac
 844 03cd FA050000 		.4byte	0x5fa
 845 03d1 00       		.byte	0
 846 03d2 00       		.byte	0
 847 03d3 03       		.uleb128 0x3
 848 03d4 72020000 		.4byte	.LASF72
 849 03d8 07       		.byte	0x7
 850 03d9 70       		.byte	0x70
 851 03da DE030000 		.4byte	0x3de
 852 03de 0E       		.uleb128 0xe
 853 03df 3E010000 		.4byte	.LASF73
ARM GAS  /tmp/ccu2Wvq7.s 			page 16


 854 03e3 5001     		.2byte	0x150
 855 03e5 08       		.byte	0x8
 856 03e6 C401     		.2byte	0x1c4
 857 03e8 3A040000 		.4byte	0x43a
 858 03ec 08       		.uleb128 0x8
 859 03ed 5B060000 		.4byte	.LASF74
 860 03f1 08       		.byte	0x8
 861 03f2 C801     		.2byte	0x1c8
 862 03f4 81020000 		.4byte	0x281
 863 03f8 00       		.byte	0
 864 03f9 08       		.uleb128 0x8
 865 03fa 18010000 		.4byte	.LASF75
 866 03fe 08       		.byte	0x8
 867 03ff CC01     		.2byte	0x1cc
 868 0401 60030000 		.4byte	0x360
 869 0405 1C       		.byte	0x1c
 870 0406 07       		.uleb128 0x7
 871 0407 64626700 		.ascii	"dbg\000"
 872 040b 08       		.byte	0x8
 873 040c D001     		.2byte	0x1d0
 874 040e AD030000 		.4byte	0x3ad
 875 0412 2C       		.byte	0x2c
 876 0413 08       		.uleb128 0x8
 877 0414 61020000 		.4byte	.LASF76
 878 0418 08       		.byte	0x8
 879 0419 D401     		.2byte	0x1d4
 880 041b 31010000 		.4byte	0x131
 881 041f 30       		.byte	0x30
 882 0420 07       		.uleb128 0x7
 883 0421 746D00   		.ascii	"tm\000"
 884 0424 08       		.byte	0x8
 885 0425 D901     		.2byte	0x1d9
 886 0427 06050000 		.4byte	0x506
 887 042b 70       		.byte	0x70
 888 042c 08       		.uleb128 0x8
 889 042d E7010000 		.4byte	.LASF77
 890 0431 08       		.byte	0x8
 891 0432 E501     		.2byte	0x1e5
 892 0434 FF050000 		.4byte	0x5ff
 893 0438 78       		.byte	0x78
 894 0439 00       		.byte	0
 895 043a 04       		.uleb128 0x4
 896 043b 04       		.byte	0x4
 897 043c 07       		.byte	0x7
 898 043d CB020000 		.4byte	.LASF78
 899 0441 03       		.uleb128 0x3
 900 0442 C2010000 		.4byte	.LASF79
 901 0446 09       		.byte	0x9
 902 0447 65       		.byte	0x65
 903 0448 04030000 		.4byte	0x304
 904 044c 03       		.uleb128 0x3
 905 044d B6020000 		.4byte	.LASF80
 906 0451 09       		.byte	0x9
 907 0452 6D       		.byte	0x6d
 908 0453 C3000000 		.4byte	0xc3
 909 0457 05       		.uleb128 0x5
 910 0458 10060000 		.4byte	.LASF81
ARM GAS  /tmp/ccu2Wvq7.s 			page 17


 911 045c 04       		.byte	0x4
 912 045d 09       		.byte	0x9
 913 045e 89       		.byte	0x89
 914 045f 70040000 		.4byte	0x470
 915 0463 0F       		.uleb128 0xf
 916 0464 72313300 		.ascii	"r13\000"
 917 0468 09       		.byte	0x9
 918 0469 8A       		.byte	0x8a
 919 046a EB040000 		.4byte	0x4eb
 920 046e 00       		.byte	0
 921 046f 00       		.byte	0
 922 0470 05       		.uleb128 0x5
 923 0471 36000000 		.4byte	.LASF82
 924 0475 24       		.byte	0x24
 925 0476 0A       		.byte	0xa
 926 0477 FD       		.byte	0xfd
 927 0478 EB040000 		.4byte	0x4eb
 928 047c 07       		.uleb128 0x7
 929 047d 723400   		.ascii	"r4\000"
 930 0480 0A       		.byte	0xa
 931 0481 1001     		.2byte	0x110
 932 0483 41040000 		.4byte	0x441
 933 0487 00       		.byte	0
 934 0488 07       		.uleb128 0x7
 935 0489 723500   		.ascii	"r5\000"
 936 048c 0A       		.byte	0xa
 937 048d 1101     		.2byte	0x111
 938 048f 41040000 		.4byte	0x441
 939 0493 04       		.byte	0x4
 940 0494 07       		.uleb128 0x7
 941 0495 723600   		.ascii	"r6\000"
 942 0498 0A       		.byte	0xa
 943 0499 1201     		.2byte	0x112
 944 049b 41040000 		.4byte	0x441
 945 049f 08       		.byte	0x8
 946 04a0 07       		.uleb128 0x7
 947 04a1 723700   		.ascii	"r7\000"
 948 04a4 0A       		.byte	0xa
 949 04a5 1301     		.2byte	0x113
 950 04a7 41040000 		.4byte	0x441
 951 04ab 0C       		.byte	0xc
 952 04ac 07       		.uleb128 0x7
 953 04ad 723800   		.ascii	"r8\000"
 954 04b0 0A       		.byte	0xa
 955 04b1 1401     		.2byte	0x114
 956 04b3 41040000 		.4byte	0x441
 957 04b7 10       		.byte	0x10
 958 04b8 07       		.uleb128 0x7
 959 04b9 723900   		.ascii	"r9\000"
 960 04bc 0A       		.byte	0xa
 961 04bd 1501     		.2byte	0x115
 962 04bf 41040000 		.4byte	0x441
 963 04c3 14       		.byte	0x14
 964 04c4 07       		.uleb128 0x7
 965 04c5 72313000 		.ascii	"r10\000"
 966 04c9 0A       		.byte	0xa
 967 04ca 1601     		.2byte	0x116
ARM GAS  /tmp/ccu2Wvq7.s 			page 18


 968 04cc 41040000 		.4byte	0x441
 969 04d0 18       		.byte	0x18
 970 04d1 07       		.uleb128 0x7
 971 04d2 72313100 		.ascii	"r11\000"
 972 04d6 0A       		.byte	0xa
 973 04d7 1701     		.2byte	0x117
 974 04d9 41040000 		.4byte	0x441
 975 04dd 1C       		.byte	0x1c
 976 04de 07       		.uleb128 0x7
 977 04df 6C7200   		.ascii	"lr\000"
 978 04e2 0A       		.byte	0xa
 979 04e3 1801     		.2byte	0x118
 980 04e5 41040000 		.4byte	0x441
 981 04e9 20       		.byte	0x20
 982 04ea 00       		.byte	0
 983 04eb 09       		.uleb128 0x9
 984 04ec 04       		.byte	0x4
 985 04ed 70040000 		.4byte	0x470
 986 04f1 10       		.uleb128 0x10
 987 04f2 04       		.byte	0x4
 988 04f3 0B       		.byte	0xb
 989 04f4 38       		.byte	0x38
 990 04f5 06050000 		.4byte	0x506
 991 04f9 06       		.uleb128 0x6
 992 04fa 00060000 		.4byte	.LASF83
 993 04fe 0B       		.byte	0xb
 994 04ff 3C       		.byte	0x3c
 995 0500 CE000000 		.4byte	0xce
 996 0504 00       		.byte	0
 997 0505 00       		.byte	0
 998 0506 03       		.uleb128 0x3
 999 0507 51030000 		.4byte	.LASF84
 1000 050b 0B       		.byte	0xb
 1001 050c 3D       		.byte	0x3d
 1002 050d F1040000 		.4byte	0x4f1
 1003 0511 11       		.uleb128 0x11
 1004 0512 04       		.byte	0x4
 1005 0513 08       		.byte	0x8
 1006 0514 FA       		.byte	0xfa
 1007 0515 7A050000 		.4byte	0x57a
 1008 0519 12       		.uleb128 0x12
 1009 051a 1C000000 		.4byte	.LASF85
 1010 051e 08       		.byte	0x8
 1011 051f 0101     		.2byte	0x101
 1012 0521 05010000 		.4byte	0x105
 1013 0525 12       		.uleb128 0x12
 1014 0526 7F000000 		.4byte	.LASF86
 1015 052a 08       		.byte	0x8
 1016 052b 0801     		.2byte	0x108
 1017 052d 05010000 		.4byte	0x105
 1018 0531 12       		.uleb128 0x12
 1019 0532 8B060000 		.4byte	.LASF87
 1020 0536 08       		.byte	0x8
 1021 0537 0F01     		.2byte	0x10f
 1022 0539 04030000 		.4byte	0x304
 1023 053d 12       		.uleb128 0x12
 1024 053e 38010000 		.4byte	.LASF88
ARM GAS  /tmp/ccu2Wvq7.s 			page 19


 1025 0542 08       		.byte	0x8
 1026 0543 1601     		.2byte	0x116
 1027 0545 7A050000 		.4byte	0x57a
 1028 0549 12       		.uleb128 0x12
 1029 054a 8F000000 		.4byte	.LASF89
 1030 054e 08       		.byte	0x8
 1031 054f 1B01     		.2byte	0x11b
 1032 0551 05010000 		.4byte	0x105
 1033 0555 12       		.uleb128 0x12
 1034 0556 11020000 		.4byte	.LASF90
 1035 055a 08       		.byte	0x8
 1036 055b 2401     		.2byte	0x124
 1037 055d A5050000 		.4byte	0x5a5
 1038 0561 12       		.uleb128 0x12
 1039 0562 66040000 		.4byte	.LASF91
 1040 0566 08       		.byte	0x8
 1041 0567 2D01     		.2byte	0x12d
 1042 0569 DC050000 		.4byte	0x5dc
 1043 056d 12       		.uleb128 0x12
 1044 056e 03040000 		.4byte	.LASF92
 1045 0572 08       		.byte	0x8
 1046 0573 3501     		.2byte	0x135
 1047 0575 10010000 		.4byte	0x110
 1048 0579 00       		.byte	0
 1049 057a 09       		.uleb128 0x9
 1050 057b 04       		.byte	0x4
 1051 057c 1C020000 		.4byte	0x21c
 1052 0580 05       		.uleb128 0x5
 1053 0581 45040000 		.4byte	.LASF93
 1054 0585 0C       		.byte	0xc
 1055 0586 0C       		.byte	0xc
 1056 0587 34       		.byte	0x34
 1057 0588 A5050000 		.4byte	0x5a5
 1058 058c 06       		.uleb128 0x6
 1059 058d 8C010000 		.4byte	.LASF94
 1060 0591 0C       		.byte	0xc
 1061 0592 35       		.byte	0x35
 1062 0593 51020000 		.4byte	0x251
 1063 0597 00       		.byte	0
 1064 0598 06       		.uleb128 0x6
 1065 0599 31020000 		.4byte	.LASF95
 1066 059d 0C       		.byte	0xc
 1067 059e 37       		.byte	0x37
 1068 059f 1B010000 		.4byte	0x11b
 1069 05a3 08       		.byte	0x8
 1070 05a4 00       		.byte	0
 1071 05a5 09       		.uleb128 0x9
 1072 05a6 04       		.byte	0x4
 1073 05a7 80050000 		.4byte	0x580
 1074 05ab 05       		.uleb128 0x5
 1075 05ac 07060000 		.4byte	.LASF96
 1076 05b0 10       		.byte	0x10
 1077 05b1 0D       		.byte	0xd
 1078 05b2 39       		.byte	0x39
 1079 05b3 DC050000 		.4byte	0x5dc
 1080 05b7 06       		.uleb128 0x6
 1081 05b8 05010000 		.4byte	.LASF97
ARM GAS  /tmp/ccu2Wvq7.s 			page 20


 1082 05bc 0D       		.byte	0xd
 1083 05bd 3A       		.byte	0x3a
 1084 05be 51020000 		.4byte	0x251
 1085 05c2 00       		.byte	0
 1086 05c3 06       		.uleb128 0x6
 1087 05c4 B9060000 		.4byte	.LASF98
 1088 05c8 0D       		.byte	0xd
 1089 05c9 3C       		.byte	0x3c
 1090 05ca 27020000 		.4byte	0x227
 1091 05ce 08       		.byte	0x8
 1092 05cf 06       		.uleb128 0x6
 1093 05d0 B8050000 		.4byte	.LASF99
 1094 05d4 0D       		.byte	0xd
 1095 05d5 3E       		.byte	0x3e
 1096 05d6 25060000 		.4byte	0x625
 1097 05da 0C       		.byte	0xc
 1098 05db 00       		.byte	0
 1099 05dc 09       		.uleb128 0x9
 1100 05dd 04       		.byte	0x4
 1101 05de AB050000 		.4byte	0x5ab
 1102 05e2 09       		.uleb128 0x9
 1103 05e3 04       		.byte	0x4
 1104 05e4 E8050000 		.4byte	0x5e8
 1105 05e8 13       		.uleb128 0x13
 1106 05e9 ED050000 		.4byte	0x5ed
 1107 05ed 04       		.uleb128 0x4
 1108 05ee 01       		.byte	0x1
 1109 05ef 08       		.byte	0x8
 1110 05f0 AF040000 		.4byte	.LASF100
 1111 05f4 09       		.uleb128 0x9
 1112 05f5 04       		.byte	0x4
 1113 05f6 06030000 		.4byte	0x306
 1114 05fa 14       		.uleb128 0x14
 1115 05fb E2050000 		.4byte	0x5e2
 1116 05ff 15       		.uleb128 0x15
 1117 0600 4C040000 		.4byte	0x44c
 1118 0604 0F060000 		.4byte	0x60f
 1119 0608 16       		.uleb128 0x16
 1120 0609 3A040000 		.4byte	0x43a
 1121 060d 1A       		.byte	0x1a
 1122 060e 00       		.byte	0
 1123 060f 03       		.uleb128 0x3
 1124 0610 00000000 		.4byte	.LASF101
 1125 0614 0E       		.byte	0xe
 1126 0615 34       		.byte	0x34
 1127 0616 F3020000 		.4byte	0x2f3
 1128 061a 03       		.uleb128 0x3
 1129 061b D3010000 		.4byte	.LASF102
 1130 061f 0D       		.byte	0xd
 1131 0620 34       		.byte	0x34
 1132 0621 AB050000 		.4byte	0x5ab
 1133 0625 09       		.uleb128 0x9
 1134 0626 04       		.byte	0x4
 1135 0627 1A060000 		.4byte	0x61a
 1136 062b 03       		.uleb128 0x3
 1137 062c 5B000000 		.4byte	.LASF103
 1138 0630 0F       		.byte	0xf
ARM GAS  /tmp/ccu2Wvq7.s 			page 21


 1139 0631 36       		.byte	0x36
 1140 0632 36060000 		.4byte	0x636
 1141 0636 09       		.uleb128 0x9
 1142 0637 04       		.byte	0x4
 1143 0638 3C060000 		.4byte	0x63c
 1144 063c 17       		.uleb128 0x17
 1145 063d 04030000 		.4byte	0x304
 1146 0641 4B060000 		.4byte	0x64b
 1147 0645 0C       		.uleb128 0xc
 1148 0646 2C000000 		.4byte	0x2c
 1149 064a 00       		.byte	0
 1150 064b 03       		.uleb128 0x3
 1151 064c 6E010000 		.4byte	.LASF104
 1152 0650 10       		.byte	0x10
 1153 0651 3C       		.byte	0x3c
 1154 0652 56060000 		.4byte	0x656
 1155 0656 05       		.uleb128 0x5
 1156 0657 CF060000 		.4byte	.LASF105
 1157 065b 20       		.byte	0x20
 1158 065c 10       		.byte	0x10
 1159 065d 4F       		.byte	0x4f
 1160 065e 87060000 		.4byte	0x687
 1161 0662 06       		.uleb128 0x6
 1162 0663 80060000 		.4byte	.LASF106
 1163 0667 10       		.byte	0x10
 1164 0668 50       		.byte	0x50
 1165 0669 2B060000 		.4byte	0x62b
 1166 066d 00       		.byte	0
 1167 066e 06       		.uleb128 0x6
 1168 066f 88000000 		.4byte	.LASF107
 1169 0673 10       		.byte	0x10
 1170 0674 52       		.byte	0x52
 1171 0675 A6060000 		.4byte	0x6a6
 1172 0679 08       		.byte	0x8
 1173 067a 06       		.uleb128 0x6
 1174 067b F7000000 		.4byte	.LASF108
 1175 067f 10       		.byte	0x10
 1176 0680 54       		.byte	0x54
 1177 0681 1A060000 		.4byte	0x61a
 1178 0685 10       		.byte	0x10
 1179 0686 00       		.byte	0
 1180 0687 11       		.uleb128 0x11
 1181 0688 04       		.byte	0x4
 1182 0689 10       		.byte	0x10
 1183 068a 44       		.byte	0x44
 1184 068b A6060000 		.4byte	0x6a6
 1185 068f 18       		.uleb128 0x18
 1186 0690 C0000000 		.4byte	.LASF109
 1187 0694 10       		.byte	0x10
 1188 0695 45       		.byte	0x45
 1189 0696 C7060000 		.4byte	0x6c7
 1190 069a 18       		.uleb128 0x18
 1191 069b 8E040000 		.4byte	.LASF110
 1192 069f 10       		.byte	0x10
 1193 06a0 46       		.byte	0x46
 1194 06a1 CD060000 		.4byte	0x6cd
 1195 06a5 00       		.byte	0
ARM GAS  /tmp/ccu2Wvq7.s 			page 22


 1196 06a6 19       		.uleb128 0x19
 1197 06a7 D4030000 		.4byte	.LASF141
 1198 06ab 08       		.byte	0x8
 1199 06ac 10       		.byte	0x10
 1200 06ad 41       		.byte	0x41
 1201 06ae C7060000 		.4byte	0x6c7
 1202 06b2 18       		.uleb128 0x18
 1203 06b3 E1010000 		.4byte	.LASF111
 1204 06b7 10       		.byte	0x10
 1205 06b8 42       		.byte	0x42
 1206 06b9 4C040000 		.4byte	0x44c
 1207 06bd 1A       		.uleb128 0x1a
 1208 06be 6800     		.ascii	"h\000"
 1209 06c0 10       		.byte	0x10
 1210 06c1 49       		.byte	0x49
 1211 06c2 D3060000 		.4byte	0x6d3
 1212 06c6 00       		.byte	0
 1213 06c7 09       		.uleb128 0x9
 1214 06c8 04       		.byte	0x4
 1215 06c9 A6060000 		.4byte	0x6a6
 1216 06cd 09       		.uleb128 0x9
 1217 06ce 04       		.byte	0x4
 1218 06cf 4B060000 		.4byte	0x64b
 1219 06d3 10       		.uleb128 0x10
 1220 06d4 08       		.byte	0x8
 1221 06d5 10       		.byte	0x10
 1222 06d6 43       		.byte	0x43
 1223 06d7 F2060000 		.4byte	0x6f2
 1224 06db 0F       		.uleb128 0xf
 1225 06dc 7500     		.ascii	"u\000"
 1226 06de 10       		.byte	0x10
 1227 06df 47       		.byte	0x47
 1228 06e0 87060000 		.4byte	0x687
 1229 06e4 00       		.byte	0
 1230 06e5 06       		.uleb128 0x6
 1231 06e6 99060000 		.4byte	.LASF112
 1232 06ea 10       		.byte	0x10
 1233 06eb 48       		.byte	0x48
 1234 06ec 2C000000 		.4byte	0x2c
 1235 06f0 04       		.byte	0x4
 1236 06f1 00       		.byte	0
 1237 06f2 05       		.uleb128 0x5
 1238 06f3 48060000 		.4byte	.LASF113
 1239 06f7 04       		.byte	0x4
 1240 06f8 11       		.byte	0x11
 1241 06f9 38       		.byte	0x38
 1242 06fa 0B070000 		.4byte	0x70b
 1243 06fe 06       		.uleb128 0x6
 1244 06ff 7A030000 		.4byte	.LASF114
 1245 0703 11       		.byte	0x11
 1246 0704 39       		.byte	0x39
 1247 0705 0B070000 		.4byte	0x70b
 1248 0709 00       		.byte	0
 1249 070a 00       		.byte	0
 1250 070b 09       		.uleb128 0x9
 1251 070c 04       		.byte	0x4
 1252 070d F2060000 		.4byte	0x6f2
ARM GAS  /tmp/ccu2Wvq7.s 			page 23


 1253 0711 10       		.uleb128 0x10
 1254 0712 0C       		.byte	0xc
 1255 0713 11       		.byte	0x11
 1256 0714 40       		.byte	0x40
 1257 0715 3E070000 		.4byte	0x73e
 1258 0719 06       		.uleb128 0x6
 1259 071a 7C010000 		.4byte	.LASF115
 1260 071e 11       		.byte	0x11
 1261 071f 41       		.byte	0x41
 1262 0720 0B070000 		.4byte	0x70b
 1263 0724 00       		.byte	0
 1264 0725 06       		.uleb128 0x6
 1265 0726 42030000 		.4byte	.LASF116
 1266 072a 11       		.byte	0x11
 1267 072b 42       		.byte	0x42
 1268 072c 2C000000 		.4byte	0x2c
 1269 0730 04       		.byte	0x4
 1270 0731 06       		.uleb128 0x6
 1271 0732 B6010000 		.4byte	.LASF117
 1272 0736 11       		.byte	0x11
 1273 0737 44       		.byte	0x44
 1274 0738 2B060000 		.4byte	0x62b
 1275 073c 08       		.byte	0x8
 1276 073d 00       		.byte	0
 1277 073e 03       		.uleb128 0x3
 1278 073f 23020000 		.4byte	.LASF118
 1279 0743 11       		.byte	0x11
 1280 0744 46       		.byte	0x46
 1281 0745 11070000 		.4byte	0x711
 1282 0749 1B       		.uleb128 0x1b
 1283 074a E8050000 		.4byte	.LASF122
 1284 074e 02       		.byte	0x2
 1285 074f 2202     		.2byte	0x222
 1286 0751 03       		.byte	0x3
 1287 0752 63070000 		.4byte	0x763
 1288 0756 1C       		.uleb128 0x1c
 1289 0757 DB010000 		.4byte	.LASF142
 1290 075b 02       		.byte	0x2
 1291 075c 2202     		.2byte	0x222
 1292 075e B8000000 		.4byte	0xb8
 1293 0762 00       		.byte	0
 1294 0763 1D       		.uleb128 0x1d
 1295 0764 51000000 		.4byte	.LASF119
 1296 0768 0A       		.byte	0xa
 1297 0769 C801     		.2byte	0x1c8
 1298 076b 03       		.byte	0x3
 1299 076c 1D       		.uleb128 0x1d
 1300 076d 1F010000 		.4byte	.LASF120
 1301 0771 0A       		.byte	0xa
 1302 0772 E001     		.2byte	0x1e0
 1303 0774 03       		.byte	0x3
 1304 0775 1D       		.uleb128 0x1d
 1305 0776 22040000 		.4byte	.LASF121
 1306 077a 12       		.byte	0x12
 1307 077b 5A01     		.2byte	0x15a
 1308 077d 03       		.byte	0x3
 1309 077e 1B       		.uleb128 0x1b
ARM GAS  /tmp/ccu2Wvq7.s 			page 24


 1310 077f AD060000 		.4byte	.LASF123
 1311 0783 12       		.byte	0x12
 1312 0784 6601     		.2byte	0x166
 1313 0786 03       		.byte	0x3
 1314 0787 99070000 		.4byte	0x799
 1315 078b 1E       		.uleb128 0x1e
 1316 078c 19040000 		.4byte	.LASF124
 1317 0790 A9070000 		.4byte	0x7a9
 1318 0794 AD060000 		.4byte	.LASF123
 1319 0798 00       		.byte	0
 1320 0799 15       		.uleb128 0x15
 1321 079a ED050000 		.4byte	0x5ed
 1322 079e A9070000 		.4byte	0x7a9
 1323 07a2 16       		.uleb128 0x16
 1324 07a3 3A040000 		.4byte	0x43a
 1325 07a7 0B       		.byte	0xb
 1326 07a8 00       		.byte	0
 1327 07a9 13       		.uleb128 0x13
 1328 07aa 99070000 		.4byte	0x799
 1329 07ae 1F       		.uleb128 0x1f
 1330 07af AA020000 		.4byte	.LASF125
 1331 07b3 01       		.byte	0x1
 1332 07b4 44       		.byte	0x44
 1333 07b5 27020000 		.4byte	0x227
 1334 07b9 00000000 		.4byte	.LFB241
 1335 07bd 14000000 		.4byte	.LFE241-.LFB241
 1336 07c1 01       		.uleb128 0x1
 1337 07c2 9C       		.byte	0x9c
 1338 07c3 60080000 		.4byte	0x860
 1339 07c7 20       		.uleb128 0x20
 1340 07c8 747000   		.ascii	"tp\000"
 1341 07cb 01       		.byte	0x1
 1342 07cc 44       		.byte	0x44
 1343 07cd 27020000 		.4byte	0x227
 1344 07d1 01       		.uleb128 0x1
 1345 07d2 50       		.byte	0x50
 1346 07d3 21       		.uleb128 0x21
 1347 07d4 19040000 		.4byte	.LASF124
 1348 07d8 60080000 		.4byte	0x860
 1349 07dc 22       		.uleb128 0x22
 1350 07dd 75070000 		.4byte	0x775
 1351 07e1 00000000 		.4byte	.LBB54
 1352 07e5 06000000 		.4byte	.LBE54-.LBB54
 1353 07e9 01       		.byte	0x1
 1354 07ea 46       		.byte	0x46
 1355 07eb 18080000 		.4byte	0x818
 1356 07ef 23       		.uleb128 0x23
 1357 07f0 63070000 		.4byte	0x763
 1358 07f4 00000000 		.4byte	.LBB55
 1359 07f8 06000000 		.4byte	.LBE55-.LBB55
 1360 07fc 12       		.byte	0x12
 1361 07fd 5C01     		.2byte	0x15c
 1362 07ff 23       		.uleb128 0x23
 1363 0800 49070000 		.4byte	0x749
 1364 0804 00000000 		.4byte	.LBB56
 1365 0808 06000000 		.4byte	.LBE56-.LBB56
 1366 080c 0A       		.byte	0xa
ARM GAS  /tmp/ccu2Wvq7.s 			page 25


 1367 080d D001     		.2byte	0x1d0
 1368 080f 24       		.uleb128 0x24
 1369 0810 56070000 		.4byte	0x756
 1370 0814 20       		.byte	0x20
 1371 0815 00       		.byte	0
 1372 0816 00       		.byte	0
 1373 0817 00       		.byte	0
 1374 0818 25       		.uleb128 0x25
 1375 0819 7E070000 		.4byte	0x77e
 1376 081d 0C000000 		.4byte	.LBB58
 1377 0821 06000000 		.4byte	.LBE58-.LBB58
 1378 0825 01       		.byte	0x1
 1379 0826 49       		.byte	0x49
 1380 0827 26       		.uleb128 0x26
 1381 0828 0C000000 		.4byte	.LBB59
 1382 082c 06000000 		.4byte	.LBE59-.LBB59
 1383 0830 27       		.uleb128 0x27
 1384 0831 8B070000 		.4byte	0x78b
 1385 0835 23       		.uleb128 0x23
 1386 0836 6C070000 		.4byte	0x76c
 1387 083a 0C000000 		.4byte	.LBB60
 1388 083e 06000000 		.4byte	.LBE60-.LBB60
 1389 0842 12       		.byte	0x12
 1390 0843 7301     		.2byte	0x173
 1391 0845 23       		.uleb128 0x23
 1392 0846 49070000 		.4byte	0x749
 1393 084a 0C000000 		.4byte	.LBB61
 1394 084e 06000000 		.4byte	.LBE61-.LBB61
 1395 0852 0A       		.byte	0xa
 1396 0853 E301     		.2byte	0x1e3
 1397 0855 24       		.uleb128 0x24
 1398 0856 56070000 		.4byte	0x756
 1399 085a 00       		.byte	0
 1400 085b 00       		.byte	0
 1401 085c 00       		.byte	0
 1402 085d 00       		.byte	0
 1403 085e 00       		.byte	0
 1404 085f 00       		.byte	0
 1405 0860 13       		.uleb128 0x13
 1406 0861 99070000 		.4byte	0x799
 1407 0865 28       		.uleb128 0x28
 1408 0866 2C040000 		.4byte	.LASF143
 1409 086a 01       		.byte	0x1
 1410 086b 5B       		.byte	0x5b
 1411 086c 00000000 		.4byte	.LFB242
 1412 0870 4E000000 		.4byte	.LFE242-.LFB242
 1413 0874 01       		.uleb128 0x1
 1414 0875 9C       		.byte	0x9c
 1415 0876 46090000 		.4byte	0x946
 1416 087a 29       		.uleb128 0x29
 1417 087b 747000   		.ascii	"tp\000"
 1418 087e 01       		.byte	0x1
 1419 087f 5B       		.byte	0x5b
 1420 0880 27020000 		.4byte	0x227
 1421 0884 00000000 		.4byte	.LLST0
 1422 0888 2A       		.uleb128 0x2a
 1423 0889 8A030000 		.4byte	.LASF129
ARM GAS  /tmp/ccu2Wvq7.s 			page 26


 1424 088d 01       		.byte	0x1
 1425 088e 5C       		.byte	0x5c
 1426 088f EF000000 		.4byte	0xef
 1427 0893 45000000 		.4byte	.LLST1
 1428 0897 21       		.uleb128 0x21
 1429 0898 19040000 		.4byte	.LASF124
 1430 089c 56090000 		.4byte	0x956
 1431 08a0 22       		.uleb128 0x22
 1432 08a1 75070000 		.4byte	0x775
 1433 08a5 02000000 		.4byte	.LBB63
 1434 08a9 06000000 		.4byte	.LBE63-.LBB63
 1435 08ad 01       		.byte	0x1
 1436 08ae 5E       		.byte	0x5e
 1437 08af DC080000 		.4byte	0x8dc
 1438 08b3 23       		.uleb128 0x23
 1439 08b4 63070000 		.4byte	0x763
 1440 08b8 02000000 		.4byte	.LBB64
 1441 08bc 06000000 		.4byte	.LBE64-.LBB64
 1442 08c0 12       		.byte	0x12
 1443 08c1 5C01     		.2byte	0x15c
 1444 08c3 23       		.uleb128 0x23
 1445 08c4 49070000 		.4byte	0x749
 1446 08c8 02000000 		.4byte	.LBB65
 1447 08cc 06000000 		.4byte	.LBE65-.LBB65
 1448 08d0 0A       		.byte	0xa
 1449 08d1 D001     		.2byte	0x1d0
 1450 08d3 24       		.uleb128 0x24
 1451 08d4 56070000 		.4byte	0x756
 1452 08d8 20       		.byte	0x20
 1453 08d9 00       		.byte	0
 1454 08da 00       		.byte	0
 1455 08db 00       		.byte	0
 1456 08dc 22       		.uleb128 0x22
 1457 08dd 7E070000 		.4byte	0x77e
 1458 08e1 10000000 		.4byte	.LBB67
 1459 08e5 06000000 		.4byte	.LBE67-.LBB67
 1460 08e9 01       		.byte	0x1
 1461 08ea 62       		.byte	0x62
 1462 08eb 27090000 		.4byte	0x927
 1463 08ef 26       		.uleb128 0x26
 1464 08f0 10000000 		.4byte	.LBB68
 1465 08f4 06000000 		.4byte	.LBE68-.LBB68
 1466 08f8 27       		.uleb128 0x27
 1467 08f9 8B070000 		.4byte	0x78b
 1468 08fd 23       		.uleb128 0x23
 1469 08fe 6C070000 		.4byte	0x76c
 1470 0902 10000000 		.4byte	.LBB69
 1471 0906 06000000 		.4byte	.LBE69-.LBB69
 1472 090a 12       		.byte	0x12
 1473 090b 7301     		.2byte	0x173
 1474 090d 23       		.uleb128 0x23
 1475 090e 49070000 		.4byte	0x749
 1476 0912 10000000 		.4byte	.LBB70
 1477 0916 06000000 		.4byte	.LBE70-.LBB70
 1478 091a 0A       		.byte	0xa
 1479 091b E301     		.2byte	0x1e3
 1480 091d 24       		.uleb128 0x24
ARM GAS  /tmp/ccu2Wvq7.s 			page 27


 1481 091e 56070000 		.4byte	0x756
 1482 0922 00       		.byte	0
 1483 0923 00       		.byte	0
 1484 0924 00       		.byte	0
 1485 0925 00       		.byte	0
 1486 0926 00       		.byte	0
 1487 0927 2B       		.uleb128 0x2b
 1488 0928 3E000000 		.4byte	.LVL5
 1489 092c 480C0000 		.4byte	0xc48
 1490 0930 3C090000 		.4byte	0x93c
 1491 0934 2C       		.uleb128 0x2c
 1492 0935 01       		.uleb128 0x1
 1493 0936 50       		.byte	0x50
 1494 0937 03       		.uleb128 0x3
 1495 0938 F3       		.byte	0xf3
 1496 0939 01       		.uleb128 0x1
 1497 093a 50       		.byte	0x50
 1498 093b 00       		.byte	0
 1499 093c 2D       		.uleb128 0x2d
 1500 093d 4E000000 		.4byte	.LVL7
 1501 0941 590C0000 		.4byte	0xc59
 1502 0945 00       		.byte	0
 1503 0946 15       		.uleb128 0x15
 1504 0947 ED050000 		.4byte	0x5ed
 1505 094b 56090000 		.4byte	0x956
 1506 094f 16       		.uleb128 0x16
 1507 0950 3A040000 		.4byte	0x43a
 1508 0954 0C       		.byte	0xc
 1509 0955 00       		.byte	0
 1510 0956 13       		.uleb128 0x13
 1511 0957 46090000 		.4byte	0x946
 1512 095b 1F       		.uleb128 0x1f
 1513 095c 51010000 		.4byte	.LASF126
 1514 0960 01       		.byte	0x1
 1515 0961 98       		.byte	0x98
 1516 0962 27020000 		.4byte	0x227
 1517 0966 00000000 		.4byte	.LFB243
 1518 096a 3C000000 		.4byte	.LFE243-.LFB243
 1519 096e 01       		.uleb128 0x1
 1520 096f 9C       		.byte	0x9c
 1521 0970 C00A0000 		.4byte	0xac0
 1522 0974 2E       		.uleb128 0x2e
 1523 0975 BA000000 		.4byte	.LASF127
 1524 0979 01       		.byte	0x1
 1525 097a 98       		.byte	0x98
 1526 097b CD060000 		.4byte	0x6cd
 1527 097f 58000000 		.4byte	.LLST2
 1528 0983 2E       		.uleb128 0x2e
 1529 0984 99060000 		.4byte	.LASF112
 1530 0988 01       		.byte	0x1
 1531 0989 98       		.byte	0x98
 1532 098a 2C000000 		.4byte	0x2c
 1533 098e 79000000 		.4byte	.LLST3
 1534 0992 2E       		.uleb128 0x2e
 1535 0993 62030000 		.4byte	.LASF128
 1536 0997 01       		.byte	0x1
 1537 0998 99       		.byte	0x99
ARM GAS  /tmp/ccu2Wvq7.s 			page 28


 1538 0999 FA000000 		.4byte	0xfa
 1539 099d 97000000 		.4byte	.LLST4
 1540 09a1 29       		.uleb128 0x29
 1541 09a2 706600   		.ascii	"pf\000"
 1542 09a5 01       		.byte	0x1
 1543 09a6 99       		.byte	0x99
 1544 09a7 0F060000 		.4byte	0x60f
 1545 09ab B5000000 		.4byte	.LLST5
 1546 09af 20       		.uleb128 0x20
 1547 09b0 61726700 		.ascii	"arg\000"
 1548 09b4 01       		.byte	0x1
 1549 09b5 99       		.byte	0x99
 1550 09b6 04030000 		.4byte	0x304
 1551 09ba 02       		.uleb128 0x2
 1552 09bb 91       		.byte	0x91
 1553 09bc 00       		.sleb128 0
 1554 09bd 2F       		.uleb128 0x2f
 1555 09be 77737000 		.ascii	"wsp\000"
 1556 09c2 01       		.byte	0x1
 1557 09c3 9A       		.byte	0x9a
 1558 09c4 04030000 		.4byte	0x304
 1559 09c8 D3000000 		.4byte	.LLST6
 1560 09cc 2F       		.uleb128 0x2f
 1561 09cd 747000   		.ascii	"tp\000"
 1562 09d0 01       		.byte	0x1
 1563 09d1 9B       		.byte	0x9b
 1564 09d2 27020000 		.4byte	0x227
 1565 09d6 E6000000 		.4byte	.LLST7
 1566 09da 22       		.uleb128 0x22
 1567 09db 75070000 		.4byte	0x775
 1568 09df 10000000 		.4byte	.LBB72
 1569 09e3 06000000 		.4byte	.LBE72-.LBB72
 1570 09e7 01       		.byte	0x1
 1571 09e8 AB       		.byte	0xab
 1572 09e9 190A0000 		.4byte	0xa19
 1573 09ed 23       		.uleb128 0x23
 1574 09ee 63070000 		.4byte	0x763
 1575 09f2 10000000 		.4byte	.LBB73
 1576 09f6 06000000 		.4byte	.LBE73-.LBB73
 1577 09fa 12       		.byte	0x12
 1578 09fb 5C01     		.2byte	0x15c
 1579 09fd 23       		.uleb128 0x23
 1580 09fe 49070000 		.4byte	0x749
 1581 0a02 10000000 		.4byte	.LBB74
 1582 0a06 06000000 		.4byte	.LBE74-.LBB74
 1583 0a0a 0A       		.byte	0xa
 1584 0a0b D001     		.2byte	0x1d0
 1585 0a0d 30       		.uleb128 0x30
 1586 0a0e 56070000 		.4byte	0x756
 1587 0a12 04010000 		.4byte	.LLST8
 1588 0a16 00       		.byte	0
 1589 0a17 00       		.byte	0
 1590 0a18 00       		.byte	0
 1591 0a19 22       		.uleb128 0x22
 1592 0a1a 7E070000 		.4byte	0x77e
 1593 0a1e 30000000 		.4byte	.LBB76
 1594 0a22 06000000 		.4byte	.LBE76-.LBB76
ARM GAS  /tmp/ccu2Wvq7.s 			page 29


 1595 0a26 01       		.byte	0x1
 1596 0a27 AF       		.byte	0xaf
 1597 0a28 670A0000 		.4byte	0xa67
 1598 0a2c 26       		.uleb128 0x26
 1599 0a2d 30000000 		.4byte	.LBB77
 1600 0a31 06000000 		.4byte	.LBE77-.LBB77
 1601 0a35 27       		.uleb128 0x27
 1602 0a36 8B070000 		.4byte	0x78b
 1603 0a3a 23       		.uleb128 0x23
 1604 0a3b 6C070000 		.4byte	0x76c
 1605 0a3f 30000000 		.4byte	.LBB78
 1606 0a43 06000000 		.4byte	.LBE78-.LBB78
 1607 0a47 12       		.byte	0x12
 1608 0a48 7301     		.2byte	0x173
 1609 0a4a 23       		.uleb128 0x23
 1610 0a4b 49070000 		.4byte	0x749
 1611 0a4f 30000000 		.4byte	.LBB79
 1612 0a53 06000000 		.4byte	.LBE79-.LBB79
 1613 0a57 0A       		.byte	0xa
 1614 0a58 E301     		.2byte	0x1e3
 1615 0a5a 30       		.uleb128 0x30
 1616 0a5b 56070000 		.4byte	0x756
 1617 0a5f 19010000 		.4byte	.LLST9
 1618 0a63 00       		.byte	0
 1619 0a64 00       		.byte	0
 1620 0a65 00       		.byte	0
 1621 0a66 00       		.byte	0
 1622 0a67 31       		.uleb128 0x31
 1623 0a68 0E000000 		.4byte	.LVL9
 1624 0a6c 6F0C0000 		.4byte	0xc6f
 1625 0a70 820A0000 		.4byte	0xa82
 1626 0a74 2C       		.uleb128 0x2c
 1627 0a75 01       		.uleb128 0x1
 1628 0a76 51       		.byte	0x51
 1629 0a77 02       		.uleb128 0x2
 1630 0a78 75       		.byte	0x75
 1631 0a79 00       		.sleb128 0
 1632 0a7a 2C       		.uleb128 0x2c
 1633 0a7b 01       		.uleb128 0x1
 1634 0a7c 50       		.byte	0x50
 1635 0a7d 03       		.uleb128 0x3
 1636 0a7e F3       		.byte	0xf3
 1637 0a7f 01       		.uleb128 0x1
 1638 0a80 50       		.byte	0x50
 1639 0a81 00       		.byte	0
 1640 0a82 31       		.uleb128 0x31
 1641 0a83 24000000 		.4byte	.LVL11
 1642 0a87 890C0000 		.4byte	0xc89
 1643 0a8b AA0A0000 		.4byte	0xaaa
 1644 0a8f 2C       		.uleb128 0x2c
 1645 0a90 01       		.uleb128 0x1
 1646 0a91 53       		.byte	0x53
 1647 0a92 02       		.uleb128 0x2
 1648 0a93 76       		.byte	0x76
 1649 0a94 00       		.sleb128 0
 1650 0a95 2C       		.uleb128 0x2c
 1651 0a96 01       		.uleb128 0x1
ARM GAS  /tmp/ccu2Wvq7.s 			page 30


 1652 0a97 52       		.byte	0x52
 1653 0a98 02       		.uleb128 0x2
 1654 0a99 77       		.byte	0x77
 1655 0a9a 00       		.sleb128 0
 1656 0a9b 2C       		.uleb128 0x2c
 1657 0a9c 01       		.uleb128 0x1
 1658 0a9d 51       		.byte	0x51
 1659 0a9e 02       		.uleb128 0x2
 1660 0a9f 75       		.byte	0x75
 1661 0aa0 00       		.sleb128 0
 1662 0aa1 2C       		.uleb128 0x2c
 1663 0aa2 02       		.uleb128 0x2
 1664 0aa3 7D       		.byte	0x7d
 1665 0aa4 00       		.sleb128 0
 1666 0aa5 03       		.uleb128 0x3
 1667 0aa6 91       		.byte	0x91
 1668 0aa7 00       		.sleb128 0
 1669 0aa8 06       		.byte	0x6
 1670 0aa9 00       		.byte	0
 1671 0aaa 32       		.uleb128 0x32
 1672 0aab 30000000 		.4byte	.LVL13
 1673 0aaf B20C0000 		.4byte	0xcb2
 1674 0ab3 2C       		.uleb128 0x2c
 1675 0ab4 01       		.uleb128 0x1
 1676 0ab5 51       		.byte	0x51
 1677 0ab6 01       		.uleb128 0x1
 1678 0ab7 30       		.byte	0x30
 1679 0ab8 2C       		.uleb128 0x2c
 1680 0ab9 01       		.uleb128 0x1
 1681 0aba 50       		.byte	0x50
 1682 0abb 02       		.uleb128 0x2
 1683 0abc 74       		.byte	0x74
 1684 0abd 00       		.sleb128 0
 1685 0abe 00       		.byte	0
 1686 0abf 00       		.byte	0
 1687 0ac0 1F       		.uleb128 0x1f
 1688 0ac1 94010000 		.4byte	.LASF130
 1689 0ac5 01       		.byte	0x1
 1690 0ac6 CC       		.byte	0xcc
 1691 0ac7 27020000 		.4byte	0x227
 1692 0acb 00000000 		.4byte	.LFB244
 1693 0acf 3E000000 		.4byte	.LFE244-.LFB244
 1694 0ad3 01       		.uleb128 0x1
 1695 0ad4 9C       		.byte	0x9c
 1696 0ad5 110C0000 		.4byte	0xc11
 1697 0ad9 29       		.uleb128 0x29
 1698 0ada 6D7000   		.ascii	"mp\000"
 1699 0add 01       		.byte	0x1
 1700 0ade CC       		.byte	0xcc
 1701 0adf 110C0000 		.4byte	0xc11
 1702 0ae3 2D010000 		.4byte	.LLST10
 1703 0ae7 2E       		.uleb128 0x2e
 1704 0ae8 62030000 		.4byte	.LASF128
 1705 0aec 01       		.byte	0x1
 1706 0aed CC       		.byte	0xcc
 1707 0aee FA000000 		.4byte	0xfa
 1708 0af2 4B010000 		.4byte	.LLST11
ARM GAS  /tmp/ccu2Wvq7.s 			page 31


 1709 0af6 29       		.uleb128 0x29
 1710 0af7 706600   		.ascii	"pf\000"
 1711 0afa 01       		.byte	0x1
 1712 0afb CD       		.byte	0xcd
 1713 0afc 0F060000 		.4byte	0x60f
 1714 0b00 69010000 		.4byte	.LLST12
 1715 0b04 29       		.uleb128 0x29
 1716 0b05 61726700 		.ascii	"arg\000"
 1717 0b09 01       		.byte	0x1
 1718 0b0a CD       		.byte	0xcd
 1719 0b0b 04030000 		.4byte	0x304
 1720 0b0f 87010000 		.4byte	.LLST13
 1721 0b13 2F       		.uleb128 0x2f
 1722 0b14 77737000 		.ascii	"wsp\000"
 1723 0b18 01       		.byte	0x1
 1724 0b19 CE       		.byte	0xce
 1725 0b1a 04030000 		.4byte	0x304
 1726 0b1e B3010000 		.4byte	.LLST14
 1727 0b22 2F       		.uleb128 0x2f
 1728 0b23 747000   		.ascii	"tp\000"
 1729 0b26 01       		.byte	0x1
 1730 0b27 CF       		.byte	0xcf
 1731 0b28 27020000 		.4byte	0x227
 1732 0b2c C6010000 		.4byte	.LLST15
 1733 0b30 21       		.uleb128 0x21
 1734 0b31 19040000 		.4byte	.LASF124
 1735 0b35 270C0000 		.4byte	0xc27
 1736 0b39 22       		.uleb128 0x22
 1737 0b3a 75070000 		.4byte	0x775
 1738 0b3e 12000000 		.4byte	.LBB81
 1739 0b42 06000000 		.4byte	.LBE81-.LBB81
 1740 0b46 01       		.byte	0x1
 1741 0b47 E1       		.byte	0xe1
 1742 0b48 780B0000 		.4byte	0xb78
 1743 0b4c 23       		.uleb128 0x23
 1744 0b4d 63070000 		.4byte	0x763
 1745 0b51 12000000 		.4byte	.LBB82
 1746 0b55 06000000 		.4byte	.LBE82-.LBB82
 1747 0b59 12       		.byte	0x12
 1748 0b5a 5C01     		.2byte	0x15c
 1749 0b5c 23       		.uleb128 0x23
 1750 0b5d 49070000 		.4byte	0x749
 1751 0b61 12000000 		.4byte	.LBB83
 1752 0b65 06000000 		.4byte	.LBE83-.LBB83
 1753 0b69 0A       		.byte	0xa
 1754 0b6a D001     		.2byte	0x1d0
 1755 0b6c 30       		.uleb128 0x30
 1756 0b6d 56070000 		.4byte	0x756
 1757 0b71 E4010000 		.4byte	.LLST16
 1758 0b75 00       		.byte	0
 1759 0b76 00       		.byte	0
 1760 0b77 00       		.byte	0
 1761 0b78 22       		.uleb128 0x22
 1762 0b79 7E070000 		.4byte	0x77e
 1763 0b7d 32000000 		.4byte	.LBB85
 1764 0b81 06000000 		.4byte	.LBE85-.LBB85
 1765 0b85 01       		.byte	0x1
ARM GAS  /tmp/ccu2Wvq7.s 			page 32


 1766 0b86 E6       		.byte	0xe6
 1767 0b87 C60B0000 		.4byte	0xbc6
 1768 0b8b 26       		.uleb128 0x26
 1769 0b8c 32000000 		.4byte	.LBB86
 1770 0b90 06000000 		.4byte	.LBE86-.LBB86
 1771 0b94 27       		.uleb128 0x27
 1772 0b95 8B070000 		.4byte	0x78b
 1773 0b99 23       		.uleb128 0x23
 1774 0b9a 6C070000 		.4byte	0x76c
 1775 0b9e 32000000 		.4byte	.LBB87
 1776 0ba2 06000000 		.4byte	.LBE87-.LBB87
 1777 0ba6 12       		.byte	0x12
 1778 0ba7 7301     		.2byte	0x173
 1779 0ba9 23       		.uleb128 0x23
 1780 0baa 49070000 		.4byte	0x749
 1781 0bae 32000000 		.4byte	.LBB88
 1782 0bb2 06000000 		.4byte	.LBE88-.LBB88
 1783 0bb6 0A       		.byte	0xa
 1784 0bb7 E301     		.2byte	0x1e3
 1785 0bb9 30       		.uleb128 0x30
 1786 0bba 56070000 		.4byte	0x756
 1787 0bbe F9010000 		.4byte	.LLST17
 1788 0bc2 00       		.byte	0
 1789 0bc3 00       		.byte	0
 1790 0bc4 00       		.byte	0
 1791 0bc5 00       		.byte	0
 1792 0bc6 31       		.uleb128 0x31
 1793 0bc7 10000000 		.4byte	.LVL16
 1794 0bcb C90C0000 		.4byte	0xcc9
 1795 0bcf DA0B0000 		.4byte	0xbda
 1796 0bd3 2C       		.uleb128 0x2c
 1797 0bd4 01       		.uleb128 0x1
 1798 0bd5 50       		.byte	0x50
 1799 0bd6 02       		.uleb128 0x2
 1800 0bd7 75       		.byte	0x75
 1801 0bd8 00       		.sleb128 0
 1802 0bd9 00       		.byte	0
 1803 0bda 31       		.uleb128 0x31
 1804 0bdb 24000000 		.4byte	.LVL18
 1805 0bdf 890C0000 		.4byte	0xc89
 1806 0be3 FB0B0000 		.4byte	0xbfb
 1807 0be7 2C       		.uleb128 0x2c
 1808 0be8 01       		.uleb128 0x1
 1809 0be9 53       		.byte	0x53
 1810 0bea 02       		.uleb128 0x2
 1811 0beb 76       		.byte	0x76
 1812 0bec 00       		.sleb128 0
 1813 0bed 2C       		.uleb128 0x2c
 1814 0bee 01       		.uleb128 0x1
 1815 0bef 52       		.byte	0x52
 1816 0bf0 02       		.uleb128 0x2
 1817 0bf1 77       		.byte	0x77
 1818 0bf2 00       		.sleb128 0
 1819 0bf3 2C       		.uleb128 0x2c
 1820 0bf4 02       		.uleb128 0x2
 1821 0bf5 7D       		.byte	0x7d
 1822 0bf6 00       		.sleb128 0
ARM GAS  /tmp/ccu2Wvq7.s 			page 33


 1823 0bf7 02       		.uleb128 0x2
 1824 0bf8 74       		.byte	0x74
 1825 0bf9 00       		.sleb128 0
 1826 0bfa 00       		.byte	0
 1827 0bfb 32       		.uleb128 0x32
 1828 0bfc 32000000 		.4byte	.LVL20
 1829 0c00 B20C0000 		.4byte	0xcb2
 1830 0c04 2C       		.uleb128 0x2c
 1831 0c05 01       		.uleb128 0x1
 1832 0c06 51       		.byte	0x51
 1833 0c07 01       		.uleb128 0x1
 1834 0c08 30       		.byte	0x30
 1835 0c09 2C       		.uleb128 0x2c
 1836 0c0a 01       		.uleb128 0x1
 1837 0c0b 50       		.byte	0x50
 1838 0c0c 02       		.uleb128 0x2
 1839 0c0d 74       		.byte	0x74
 1840 0c0e 00       		.sleb128 0
 1841 0c0f 00       		.byte	0
 1842 0c10 00       		.byte	0
 1843 0c11 09       		.uleb128 0x9
 1844 0c12 04       		.byte	0x4
 1845 0c13 3E070000 		.4byte	0x73e
 1846 0c17 15       		.uleb128 0x15
 1847 0c18 ED050000 		.4byte	0x5ed
 1848 0c1c 270C0000 		.4byte	0xc27
 1849 0c20 16       		.uleb128 0x16
 1850 0c21 3A040000 		.4byte	0x43a
 1851 0c25 19       		.byte	0x19
 1852 0c26 00       		.byte	0
 1853 0c27 13       		.uleb128 0x13
 1854 0c28 170C0000 		.4byte	0xc17
 1855 0c2c 33       		.uleb128 0x33
 1856 0c2d AD000000 		.4byte	.LASF131
 1857 0c31 13       		.byte	0x13
 1858 0c32 FA06     		.2byte	0x6fa
 1859 0c34 380C0000 		.4byte	0xc38
 1860 0c38 14       		.uleb128 0x14
 1861 0c39 AD000000 		.4byte	0xad
 1862 0c3d 34       		.uleb128 0x34
 1863 0c3e 636800   		.ascii	"ch\000"
 1864 0c41 08       		.byte	0x8
 1865 0c42 0B02     		.2byte	0x20b
 1866 0c44 D3030000 		.4byte	0x3d3
 1867 0c48 35       		.uleb128 0x35
 1868 0c49 0D010000 		.4byte	.LASF132
 1869 0c4d 10       		.byte	0x10
 1870 0c4e 68       		.byte	0x68
 1871 0c4f 590C0000 		.4byte	0xc59
 1872 0c53 0C       		.uleb128 0xc
 1873 0c54 04030000 		.4byte	0x304
 1874 0c58 00       		.byte	0
 1875 0c59 35       		.uleb128 0x35
 1876 0c5a 75060000 		.4byte	.LASF133
 1877 0c5e 11       		.byte	0x11
 1878 0c5f 71       		.byte	0x71
 1879 0c60 6F0C0000 		.4byte	0xc6f
ARM GAS  /tmp/ccu2Wvq7.s 			page 34


 1880 0c64 0C       		.uleb128 0xc
 1881 0c65 110C0000 		.4byte	0xc11
 1882 0c69 0C       		.uleb128 0xc
 1883 0c6a 04030000 		.4byte	0x304
 1884 0c6e 00       		.byte	0
 1885 0c6f 36       		.uleb128 0x36
 1886 0c70 39040000 		.4byte	.LASF134
 1887 0c74 10       		.byte	0x10
 1888 0c75 67       		.byte	0x67
 1889 0c76 04030000 		.4byte	0x304
 1890 0c7a 890C0000 		.4byte	0xc89
 1891 0c7e 0C       		.uleb128 0xc
 1892 0c7f CD060000 		.4byte	0x6cd
 1893 0c83 0C       		.uleb128 0xc
 1894 0c84 2C000000 		.4byte	0x2c
 1895 0c88 00       		.byte	0
 1896 0c89 36       		.uleb128 0x36
 1897 0c8a 2B010000 		.4byte	.LASF135
 1898 0c8e 0E       		.byte	0xe
 1899 0c8f 87       		.byte	0x87
 1900 0c90 27020000 		.4byte	0x227
 1901 0c94 B20C0000 		.4byte	0xcb2
 1902 0c98 0C       		.uleb128 0xc
 1903 0c99 04030000 		.4byte	0x304
 1904 0c9d 0C       		.uleb128 0xc
 1905 0c9e 2C000000 		.4byte	0x2c
 1906 0ca2 0C       		.uleb128 0xc
 1907 0ca3 FA000000 		.4byte	0xfa
 1908 0ca7 0C       		.uleb128 0xc
 1909 0ca8 0F060000 		.4byte	0x60f
 1910 0cac 0C       		.uleb128 0xc
 1911 0cad 04030000 		.4byte	0x304
 1912 0cb1 00       		.byte	0
 1913 0cb2 37       		.uleb128 0x37
 1914 0cb3 54020000 		.4byte	.LASF136
 1915 0cb7 08       		.byte	0x8
 1916 0cb8 1802     		.2byte	0x218
 1917 0cba C90C0000 		.4byte	0xcc9
 1918 0cbe 0C       		.uleb128 0xc
 1919 0cbf 27020000 		.4byte	0x227
 1920 0cc3 0C       		.uleb128 0xc
 1921 0cc4 05010000 		.4byte	0x105
 1922 0cc8 00       		.byte	0
 1923 0cc9 38       		.uleb128 0x38
 1924 0cca 69060000 		.4byte	.LASF137
 1925 0cce 11       		.byte	0x11
 1926 0ccf 6F       		.byte	0x6f
 1927 0cd0 04030000 		.4byte	0x304
 1928 0cd4 0C       		.uleb128 0xc
 1929 0cd5 110C0000 		.4byte	0xc11
 1930 0cd9 00       		.byte	0
 1931 0cda 00       		.byte	0
 1932              		.section	.debug_abbrev,"",%progbits
 1933              	.Ldebug_abbrev0:
 1934 0000 01       		.uleb128 0x1
 1935 0001 11       		.uleb128 0x11
 1936 0002 01       		.byte	0x1
ARM GAS  /tmp/ccu2Wvq7.s 			page 35


 1937 0003 25       		.uleb128 0x25
 1938 0004 0E       		.uleb128 0xe
 1939 0005 13       		.uleb128 0x13
 1940 0006 0B       		.uleb128 0xb
 1941 0007 03       		.uleb128 0x3
 1942 0008 0E       		.uleb128 0xe
 1943 0009 1B       		.uleb128 0x1b
 1944 000a 0E       		.uleb128 0xe
 1945 000b 55       		.uleb128 0x55
 1946 000c 17       		.uleb128 0x17
 1947 000d 11       		.uleb128 0x11
 1948 000e 01       		.uleb128 0x1
 1949 000f 10       		.uleb128 0x10
 1950 0010 17       		.uleb128 0x17
 1951 0011 00       		.byte	0
 1952 0012 00       		.byte	0
 1953 0013 02       		.uleb128 0x2
 1954 0014 24       		.uleb128 0x24
 1955 0015 00       		.byte	0
 1956 0016 0B       		.uleb128 0xb
 1957 0017 0B       		.uleb128 0xb
 1958 0018 3E       		.uleb128 0x3e
 1959 0019 0B       		.uleb128 0xb
 1960 001a 03       		.uleb128 0x3
 1961 001b 08       		.uleb128 0x8
 1962 001c 00       		.byte	0
 1963 001d 00       		.byte	0
 1964 001e 03       		.uleb128 0x3
 1965 001f 16       		.uleb128 0x16
 1966 0020 00       		.byte	0
 1967 0021 03       		.uleb128 0x3
 1968 0022 0E       		.uleb128 0xe
 1969 0023 3A       		.uleb128 0x3a
 1970 0024 0B       		.uleb128 0xb
 1971 0025 3B       		.uleb128 0x3b
 1972 0026 0B       		.uleb128 0xb
 1973 0027 49       		.uleb128 0x49
 1974 0028 13       		.uleb128 0x13
 1975 0029 00       		.byte	0
 1976 002a 00       		.byte	0
 1977 002b 04       		.uleb128 0x4
 1978 002c 24       		.uleb128 0x24
 1979 002d 00       		.byte	0
 1980 002e 0B       		.uleb128 0xb
 1981 002f 0B       		.uleb128 0xb
 1982 0030 3E       		.uleb128 0x3e
 1983 0031 0B       		.uleb128 0xb
 1984 0032 03       		.uleb128 0x3
 1985 0033 0E       		.uleb128 0xe
 1986 0034 00       		.byte	0
 1987 0035 00       		.byte	0
 1988 0036 05       		.uleb128 0x5
 1989 0037 13       		.uleb128 0x13
 1990 0038 01       		.byte	0x1
 1991 0039 03       		.uleb128 0x3
 1992 003a 0E       		.uleb128 0xe
 1993 003b 0B       		.uleb128 0xb
ARM GAS  /tmp/ccu2Wvq7.s 			page 36


 1994 003c 0B       		.uleb128 0xb
 1995 003d 3A       		.uleb128 0x3a
 1996 003e 0B       		.uleb128 0xb
 1997 003f 3B       		.uleb128 0x3b
 1998 0040 0B       		.uleb128 0xb
 1999 0041 01       		.uleb128 0x1
 2000 0042 13       		.uleb128 0x13
 2001 0043 00       		.byte	0
 2002 0044 00       		.byte	0
 2003 0045 06       		.uleb128 0x6
 2004 0046 0D       		.uleb128 0xd
 2005 0047 00       		.byte	0
 2006 0048 03       		.uleb128 0x3
 2007 0049 0E       		.uleb128 0xe
 2008 004a 3A       		.uleb128 0x3a
 2009 004b 0B       		.uleb128 0xb
 2010 004c 3B       		.uleb128 0x3b
 2011 004d 0B       		.uleb128 0xb
 2012 004e 49       		.uleb128 0x49
 2013 004f 13       		.uleb128 0x13
 2014 0050 38       		.uleb128 0x38
 2015 0051 0B       		.uleb128 0xb
 2016 0052 00       		.byte	0
 2017 0053 00       		.byte	0
 2018 0054 07       		.uleb128 0x7
 2019 0055 0D       		.uleb128 0xd
 2020 0056 00       		.byte	0
 2021 0057 03       		.uleb128 0x3
 2022 0058 08       		.uleb128 0x8
 2023 0059 3A       		.uleb128 0x3a
 2024 005a 0B       		.uleb128 0xb
 2025 005b 3B       		.uleb128 0x3b
 2026 005c 05       		.uleb128 0x5
 2027 005d 49       		.uleb128 0x49
 2028 005e 13       		.uleb128 0x13
 2029 005f 38       		.uleb128 0x38
 2030 0060 0B       		.uleb128 0xb
 2031 0061 00       		.byte	0
 2032 0062 00       		.byte	0
 2033 0063 08       		.uleb128 0x8
 2034 0064 0D       		.uleb128 0xd
 2035 0065 00       		.byte	0
 2036 0066 03       		.uleb128 0x3
 2037 0067 0E       		.uleb128 0xe
 2038 0068 3A       		.uleb128 0x3a
 2039 0069 0B       		.uleb128 0xb
 2040 006a 3B       		.uleb128 0x3b
 2041 006b 05       		.uleb128 0x5
 2042 006c 49       		.uleb128 0x49
 2043 006d 13       		.uleb128 0x13
 2044 006e 38       		.uleb128 0x38
 2045 006f 0B       		.uleb128 0xb
 2046 0070 00       		.byte	0
 2047 0071 00       		.byte	0
 2048 0072 09       		.uleb128 0x9
 2049 0073 0F       		.uleb128 0xf
 2050 0074 00       		.byte	0
ARM GAS  /tmp/ccu2Wvq7.s 			page 37


 2051 0075 0B       		.uleb128 0xb
 2052 0076 0B       		.uleb128 0xb
 2053 0077 49       		.uleb128 0x49
 2054 0078 13       		.uleb128 0x13
 2055 0079 00       		.byte	0
 2056 007a 00       		.byte	0
 2057 007b 0A       		.uleb128 0xa
 2058 007c 13       		.uleb128 0x13
 2059 007d 01       		.byte	0x1
 2060 007e 03       		.uleb128 0x3
 2061 007f 0E       		.uleb128 0xe
 2062 0080 0B       		.uleb128 0xb
 2063 0081 0B       		.uleb128 0xb
 2064 0082 3A       		.uleb128 0x3a
 2065 0083 0B       		.uleb128 0xb
 2066 0084 3B       		.uleb128 0x3b
 2067 0085 05       		.uleb128 0x5
 2068 0086 01       		.uleb128 0x1
 2069 0087 13       		.uleb128 0x13
 2070 0088 00       		.byte	0
 2071 0089 00       		.byte	0
 2072 008a 0B       		.uleb128 0xb
 2073 008b 15       		.uleb128 0x15
 2074 008c 01       		.byte	0x1
 2075 008d 27       		.uleb128 0x27
 2076 008e 19       		.uleb128 0x19
 2077 008f 01       		.uleb128 0x1
 2078 0090 13       		.uleb128 0x13
 2079 0091 00       		.byte	0
 2080 0092 00       		.byte	0
 2081 0093 0C       		.uleb128 0xc
 2082 0094 05       		.uleb128 0x5
 2083 0095 00       		.byte	0
 2084 0096 49       		.uleb128 0x49
 2085 0097 13       		.uleb128 0x13
 2086 0098 00       		.byte	0
 2087 0099 00       		.byte	0
 2088 009a 0D       		.uleb128 0xd
 2089 009b 0F       		.uleb128 0xf
 2090 009c 00       		.byte	0
 2091 009d 0B       		.uleb128 0xb
 2092 009e 0B       		.uleb128 0xb
 2093 009f 00       		.byte	0
 2094 00a0 00       		.byte	0
 2095 00a1 0E       		.uleb128 0xe
 2096 00a2 13       		.uleb128 0x13
 2097 00a3 01       		.byte	0x1
 2098 00a4 03       		.uleb128 0x3
 2099 00a5 0E       		.uleb128 0xe
 2100 00a6 0B       		.uleb128 0xb
 2101 00a7 05       		.uleb128 0x5
 2102 00a8 3A       		.uleb128 0x3a
 2103 00a9 0B       		.uleb128 0xb
 2104 00aa 3B       		.uleb128 0x3b
 2105 00ab 05       		.uleb128 0x5
 2106 00ac 01       		.uleb128 0x1
 2107 00ad 13       		.uleb128 0x13
ARM GAS  /tmp/ccu2Wvq7.s 			page 38


 2108 00ae 00       		.byte	0
 2109 00af 00       		.byte	0
 2110 00b0 0F       		.uleb128 0xf
 2111 00b1 0D       		.uleb128 0xd
 2112 00b2 00       		.byte	0
 2113 00b3 03       		.uleb128 0x3
 2114 00b4 08       		.uleb128 0x8
 2115 00b5 3A       		.uleb128 0x3a
 2116 00b6 0B       		.uleb128 0xb
 2117 00b7 3B       		.uleb128 0x3b
 2118 00b8 0B       		.uleb128 0xb
 2119 00b9 49       		.uleb128 0x49
 2120 00ba 13       		.uleb128 0x13
 2121 00bb 38       		.uleb128 0x38
 2122 00bc 0B       		.uleb128 0xb
 2123 00bd 00       		.byte	0
 2124 00be 00       		.byte	0
 2125 00bf 10       		.uleb128 0x10
 2126 00c0 13       		.uleb128 0x13
 2127 00c1 01       		.byte	0x1
 2128 00c2 0B       		.uleb128 0xb
 2129 00c3 0B       		.uleb128 0xb
 2130 00c4 3A       		.uleb128 0x3a
 2131 00c5 0B       		.uleb128 0xb
 2132 00c6 3B       		.uleb128 0x3b
 2133 00c7 0B       		.uleb128 0xb
 2134 00c8 01       		.uleb128 0x1
 2135 00c9 13       		.uleb128 0x13
 2136 00ca 00       		.byte	0
 2137 00cb 00       		.byte	0
 2138 00cc 11       		.uleb128 0x11
 2139 00cd 17       		.uleb128 0x17
 2140 00ce 01       		.byte	0x1
 2141 00cf 0B       		.uleb128 0xb
 2142 00d0 0B       		.uleb128 0xb
 2143 00d1 3A       		.uleb128 0x3a
 2144 00d2 0B       		.uleb128 0xb
 2145 00d3 3B       		.uleb128 0x3b
 2146 00d4 0B       		.uleb128 0xb
 2147 00d5 01       		.uleb128 0x1
 2148 00d6 13       		.uleb128 0x13
 2149 00d7 00       		.byte	0
 2150 00d8 00       		.byte	0
 2151 00d9 12       		.uleb128 0x12
 2152 00da 0D       		.uleb128 0xd
 2153 00db 00       		.byte	0
 2154 00dc 03       		.uleb128 0x3
 2155 00dd 0E       		.uleb128 0xe
 2156 00de 3A       		.uleb128 0x3a
 2157 00df 0B       		.uleb128 0xb
 2158 00e0 3B       		.uleb128 0x3b
 2159 00e1 05       		.uleb128 0x5
 2160 00e2 49       		.uleb128 0x49
 2161 00e3 13       		.uleb128 0x13
 2162 00e4 00       		.byte	0
 2163 00e5 00       		.byte	0
 2164 00e6 13       		.uleb128 0x13
ARM GAS  /tmp/ccu2Wvq7.s 			page 39


 2165 00e7 26       		.uleb128 0x26
 2166 00e8 00       		.byte	0
 2167 00e9 49       		.uleb128 0x49
 2168 00ea 13       		.uleb128 0x13
 2169 00eb 00       		.byte	0
 2170 00ec 00       		.byte	0
 2171 00ed 14       		.uleb128 0x14
 2172 00ee 35       		.uleb128 0x35
 2173 00ef 00       		.byte	0
 2174 00f0 49       		.uleb128 0x49
 2175 00f1 13       		.uleb128 0x13
 2176 00f2 00       		.byte	0
 2177 00f3 00       		.byte	0
 2178 00f4 15       		.uleb128 0x15
 2179 00f5 01       		.uleb128 0x1
 2180 00f6 01       		.byte	0x1
 2181 00f7 49       		.uleb128 0x49
 2182 00f8 13       		.uleb128 0x13
 2183 00f9 01       		.uleb128 0x1
 2184 00fa 13       		.uleb128 0x13
 2185 00fb 00       		.byte	0
 2186 00fc 00       		.byte	0
 2187 00fd 16       		.uleb128 0x16
 2188 00fe 21       		.uleb128 0x21
 2189 00ff 00       		.byte	0
 2190 0100 49       		.uleb128 0x49
 2191 0101 13       		.uleb128 0x13
 2192 0102 2F       		.uleb128 0x2f
 2193 0103 0B       		.uleb128 0xb
 2194 0104 00       		.byte	0
 2195 0105 00       		.byte	0
 2196 0106 17       		.uleb128 0x17
 2197 0107 15       		.uleb128 0x15
 2198 0108 01       		.byte	0x1
 2199 0109 27       		.uleb128 0x27
 2200 010a 19       		.uleb128 0x19
 2201 010b 49       		.uleb128 0x49
 2202 010c 13       		.uleb128 0x13
 2203 010d 01       		.uleb128 0x1
 2204 010e 13       		.uleb128 0x13
 2205 010f 00       		.byte	0
 2206 0110 00       		.byte	0
 2207 0111 18       		.uleb128 0x18
 2208 0112 0D       		.uleb128 0xd
 2209 0113 00       		.byte	0
 2210 0114 03       		.uleb128 0x3
 2211 0115 0E       		.uleb128 0xe
 2212 0116 3A       		.uleb128 0x3a
 2213 0117 0B       		.uleb128 0xb
 2214 0118 3B       		.uleb128 0x3b
 2215 0119 0B       		.uleb128 0xb
 2216 011a 49       		.uleb128 0x49
 2217 011b 13       		.uleb128 0x13
 2218 011c 00       		.byte	0
 2219 011d 00       		.byte	0
 2220 011e 19       		.uleb128 0x19
 2221 011f 17       		.uleb128 0x17
ARM GAS  /tmp/ccu2Wvq7.s 			page 40


 2222 0120 01       		.byte	0x1
 2223 0121 03       		.uleb128 0x3
 2224 0122 0E       		.uleb128 0xe
 2225 0123 0B       		.uleb128 0xb
 2226 0124 0B       		.uleb128 0xb
 2227 0125 3A       		.uleb128 0x3a
 2228 0126 0B       		.uleb128 0xb
 2229 0127 3B       		.uleb128 0x3b
 2230 0128 0B       		.uleb128 0xb
 2231 0129 01       		.uleb128 0x1
 2232 012a 13       		.uleb128 0x13
 2233 012b 00       		.byte	0
 2234 012c 00       		.byte	0
 2235 012d 1A       		.uleb128 0x1a
 2236 012e 0D       		.uleb128 0xd
 2237 012f 00       		.byte	0
 2238 0130 03       		.uleb128 0x3
 2239 0131 08       		.uleb128 0x8
 2240 0132 3A       		.uleb128 0x3a
 2241 0133 0B       		.uleb128 0xb
 2242 0134 3B       		.uleb128 0x3b
 2243 0135 0B       		.uleb128 0xb
 2244 0136 49       		.uleb128 0x49
 2245 0137 13       		.uleb128 0x13
 2246 0138 00       		.byte	0
 2247 0139 00       		.byte	0
 2248 013a 1B       		.uleb128 0x1b
 2249 013b 2E       		.uleb128 0x2e
 2250 013c 01       		.byte	0x1
 2251 013d 03       		.uleb128 0x3
 2252 013e 0E       		.uleb128 0xe
 2253 013f 3A       		.uleb128 0x3a
 2254 0140 0B       		.uleb128 0xb
 2255 0141 3B       		.uleb128 0x3b
 2256 0142 05       		.uleb128 0x5
 2257 0143 27       		.uleb128 0x27
 2258 0144 19       		.uleb128 0x19
 2259 0145 20       		.uleb128 0x20
 2260 0146 0B       		.uleb128 0xb
 2261 0147 01       		.uleb128 0x1
 2262 0148 13       		.uleb128 0x13
 2263 0149 00       		.byte	0
 2264 014a 00       		.byte	0
 2265 014b 1C       		.uleb128 0x1c
 2266 014c 05       		.uleb128 0x5
 2267 014d 00       		.byte	0
 2268 014e 03       		.uleb128 0x3
 2269 014f 0E       		.uleb128 0xe
 2270 0150 3A       		.uleb128 0x3a
 2271 0151 0B       		.uleb128 0xb
 2272 0152 3B       		.uleb128 0x3b
 2273 0153 05       		.uleb128 0x5
 2274 0154 49       		.uleb128 0x49
 2275 0155 13       		.uleb128 0x13
 2276 0156 00       		.byte	0
 2277 0157 00       		.byte	0
 2278 0158 1D       		.uleb128 0x1d
ARM GAS  /tmp/ccu2Wvq7.s 			page 41


 2279 0159 2E       		.uleb128 0x2e
 2280 015a 00       		.byte	0
 2281 015b 03       		.uleb128 0x3
 2282 015c 0E       		.uleb128 0xe
 2283 015d 3A       		.uleb128 0x3a
 2284 015e 0B       		.uleb128 0xb
 2285 015f 3B       		.uleb128 0x3b
 2286 0160 05       		.uleb128 0x5
 2287 0161 27       		.uleb128 0x27
 2288 0162 19       		.uleb128 0x19
 2289 0163 20       		.uleb128 0x20
 2290 0164 0B       		.uleb128 0xb
 2291 0165 00       		.byte	0
 2292 0166 00       		.byte	0
 2293 0167 1E       		.uleb128 0x1e
 2294 0168 34       		.uleb128 0x34
 2295 0169 00       		.byte	0
 2296 016a 03       		.uleb128 0x3
 2297 016b 0E       		.uleb128 0xe
 2298 016c 49       		.uleb128 0x49
 2299 016d 13       		.uleb128 0x13
 2300 016e 34       		.uleb128 0x34
 2301 016f 19       		.uleb128 0x19
 2302 0170 1C       		.uleb128 0x1c
 2303 0171 0E       		.uleb128 0xe
 2304 0172 00       		.byte	0
 2305 0173 00       		.byte	0
 2306 0174 1F       		.uleb128 0x1f
 2307 0175 2E       		.uleb128 0x2e
 2308 0176 01       		.byte	0x1
 2309 0177 3F       		.uleb128 0x3f
 2310 0178 19       		.uleb128 0x19
 2311 0179 03       		.uleb128 0x3
 2312 017a 0E       		.uleb128 0xe
 2313 017b 3A       		.uleb128 0x3a
 2314 017c 0B       		.uleb128 0xb
 2315 017d 3B       		.uleb128 0x3b
 2316 017e 0B       		.uleb128 0xb
 2317 017f 27       		.uleb128 0x27
 2318 0180 19       		.uleb128 0x19
 2319 0181 49       		.uleb128 0x49
 2320 0182 13       		.uleb128 0x13
 2321 0183 11       		.uleb128 0x11
 2322 0184 01       		.uleb128 0x1
 2323 0185 12       		.uleb128 0x12
 2324 0186 06       		.uleb128 0x6
 2325 0187 40       		.uleb128 0x40
 2326 0188 18       		.uleb128 0x18
 2327 0189 9742     		.uleb128 0x2117
 2328 018b 19       		.uleb128 0x19
 2329 018c 01       		.uleb128 0x1
 2330 018d 13       		.uleb128 0x13
 2331 018e 00       		.byte	0
 2332 018f 00       		.byte	0
 2333 0190 20       		.uleb128 0x20
 2334 0191 05       		.uleb128 0x5
 2335 0192 00       		.byte	0
ARM GAS  /tmp/ccu2Wvq7.s 			page 42


 2336 0193 03       		.uleb128 0x3
 2337 0194 08       		.uleb128 0x8
 2338 0195 3A       		.uleb128 0x3a
 2339 0196 0B       		.uleb128 0xb
 2340 0197 3B       		.uleb128 0x3b
 2341 0198 0B       		.uleb128 0xb
 2342 0199 49       		.uleb128 0x49
 2343 019a 13       		.uleb128 0x13
 2344 019b 02       		.uleb128 0x2
 2345 019c 18       		.uleb128 0x18
 2346 019d 00       		.byte	0
 2347 019e 00       		.byte	0
 2348 019f 21       		.uleb128 0x21
 2349 01a0 34       		.uleb128 0x34
 2350 01a1 00       		.byte	0
 2351 01a2 03       		.uleb128 0x3
 2352 01a3 0E       		.uleb128 0xe
 2353 01a4 49       		.uleb128 0x49
 2354 01a5 13       		.uleb128 0x13
 2355 01a6 34       		.uleb128 0x34
 2356 01a7 19       		.uleb128 0x19
 2357 01a8 00       		.byte	0
 2358 01a9 00       		.byte	0
 2359 01aa 22       		.uleb128 0x22
 2360 01ab 1D       		.uleb128 0x1d
 2361 01ac 01       		.byte	0x1
 2362 01ad 31       		.uleb128 0x31
 2363 01ae 13       		.uleb128 0x13
 2364 01af 11       		.uleb128 0x11
 2365 01b0 01       		.uleb128 0x1
 2366 01b1 12       		.uleb128 0x12
 2367 01b2 06       		.uleb128 0x6
 2368 01b3 58       		.uleb128 0x58
 2369 01b4 0B       		.uleb128 0xb
 2370 01b5 59       		.uleb128 0x59
 2371 01b6 0B       		.uleb128 0xb
 2372 01b7 01       		.uleb128 0x1
 2373 01b8 13       		.uleb128 0x13
 2374 01b9 00       		.byte	0
 2375 01ba 00       		.byte	0
 2376 01bb 23       		.uleb128 0x23
 2377 01bc 1D       		.uleb128 0x1d
 2378 01bd 01       		.byte	0x1
 2379 01be 31       		.uleb128 0x31
 2380 01bf 13       		.uleb128 0x13
 2381 01c0 11       		.uleb128 0x11
 2382 01c1 01       		.uleb128 0x1
 2383 01c2 12       		.uleb128 0x12
 2384 01c3 06       		.uleb128 0x6
 2385 01c4 58       		.uleb128 0x58
 2386 01c5 0B       		.uleb128 0xb
 2387 01c6 59       		.uleb128 0x59
 2388 01c7 05       		.uleb128 0x5
 2389 01c8 00       		.byte	0
 2390 01c9 00       		.byte	0
 2391 01ca 24       		.uleb128 0x24
 2392 01cb 05       		.uleb128 0x5
ARM GAS  /tmp/ccu2Wvq7.s 			page 43


 2393 01cc 00       		.byte	0
 2394 01cd 31       		.uleb128 0x31
 2395 01ce 13       		.uleb128 0x13
 2396 01cf 1C       		.uleb128 0x1c
 2397 01d0 0B       		.uleb128 0xb
 2398 01d1 00       		.byte	0
 2399 01d2 00       		.byte	0
 2400 01d3 25       		.uleb128 0x25
 2401 01d4 1D       		.uleb128 0x1d
 2402 01d5 01       		.byte	0x1
 2403 01d6 31       		.uleb128 0x31
 2404 01d7 13       		.uleb128 0x13
 2405 01d8 11       		.uleb128 0x11
 2406 01d9 01       		.uleb128 0x1
 2407 01da 12       		.uleb128 0x12
 2408 01db 06       		.uleb128 0x6
 2409 01dc 58       		.uleb128 0x58
 2410 01dd 0B       		.uleb128 0xb
 2411 01de 59       		.uleb128 0x59
 2412 01df 0B       		.uleb128 0xb
 2413 01e0 00       		.byte	0
 2414 01e1 00       		.byte	0
 2415 01e2 26       		.uleb128 0x26
 2416 01e3 0B       		.uleb128 0xb
 2417 01e4 01       		.byte	0x1
 2418 01e5 11       		.uleb128 0x11
 2419 01e6 01       		.uleb128 0x1
 2420 01e7 12       		.uleb128 0x12
 2421 01e8 06       		.uleb128 0x6
 2422 01e9 00       		.byte	0
 2423 01ea 00       		.byte	0
 2424 01eb 27       		.uleb128 0x27
 2425 01ec 34       		.uleb128 0x34
 2426 01ed 00       		.byte	0
 2427 01ee 31       		.uleb128 0x31
 2428 01ef 13       		.uleb128 0x13
 2429 01f0 00       		.byte	0
 2430 01f1 00       		.byte	0
 2431 01f2 28       		.uleb128 0x28
 2432 01f3 2E       		.uleb128 0x2e
 2433 01f4 01       		.byte	0x1
 2434 01f5 3F       		.uleb128 0x3f
 2435 01f6 19       		.uleb128 0x19
 2436 01f7 03       		.uleb128 0x3
 2437 01f8 0E       		.uleb128 0xe
 2438 01f9 3A       		.uleb128 0x3a
 2439 01fa 0B       		.uleb128 0xb
 2440 01fb 3B       		.uleb128 0x3b
 2441 01fc 0B       		.uleb128 0xb
 2442 01fd 27       		.uleb128 0x27
 2443 01fe 19       		.uleb128 0x19
 2444 01ff 11       		.uleb128 0x11
 2445 0200 01       		.uleb128 0x1
 2446 0201 12       		.uleb128 0x12
 2447 0202 06       		.uleb128 0x6
 2448 0203 40       		.uleb128 0x40
 2449 0204 18       		.uleb128 0x18
ARM GAS  /tmp/ccu2Wvq7.s 			page 44


 2450 0205 9742     		.uleb128 0x2117
 2451 0207 19       		.uleb128 0x19
 2452 0208 01       		.uleb128 0x1
 2453 0209 13       		.uleb128 0x13
 2454 020a 00       		.byte	0
 2455 020b 00       		.byte	0
 2456 020c 29       		.uleb128 0x29
 2457 020d 05       		.uleb128 0x5
 2458 020e 00       		.byte	0
 2459 020f 03       		.uleb128 0x3
 2460 0210 08       		.uleb128 0x8
 2461 0211 3A       		.uleb128 0x3a
 2462 0212 0B       		.uleb128 0xb
 2463 0213 3B       		.uleb128 0x3b
 2464 0214 0B       		.uleb128 0xb
 2465 0215 49       		.uleb128 0x49
 2466 0216 13       		.uleb128 0x13
 2467 0217 02       		.uleb128 0x2
 2468 0218 17       		.uleb128 0x17
 2469 0219 00       		.byte	0
 2470 021a 00       		.byte	0
 2471 021b 2A       		.uleb128 0x2a
 2472 021c 34       		.uleb128 0x34
 2473 021d 00       		.byte	0
 2474 021e 03       		.uleb128 0x3
 2475 021f 0E       		.uleb128 0xe
 2476 0220 3A       		.uleb128 0x3a
 2477 0221 0B       		.uleb128 0xb
 2478 0222 3B       		.uleb128 0x3b
 2479 0223 0B       		.uleb128 0xb
 2480 0224 49       		.uleb128 0x49
 2481 0225 13       		.uleb128 0x13
 2482 0226 02       		.uleb128 0x2
 2483 0227 17       		.uleb128 0x17
 2484 0228 00       		.byte	0
 2485 0229 00       		.byte	0
 2486 022a 2B       		.uleb128 0x2b
 2487 022b 898201   		.uleb128 0x4109
 2488 022e 01       		.byte	0x1
 2489 022f 11       		.uleb128 0x11
 2490 0230 01       		.uleb128 0x1
 2491 0231 9542     		.uleb128 0x2115
 2492 0233 19       		.uleb128 0x19
 2493 0234 31       		.uleb128 0x31
 2494 0235 13       		.uleb128 0x13
 2495 0236 01       		.uleb128 0x1
 2496 0237 13       		.uleb128 0x13
 2497 0238 00       		.byte	0
 2498 0239 00       		.byte	0
 2499 023a 2C       		.uleb128 0x2c
 2500 023b 8A8201   		.uleb128 0x410a
 2501 023e 00       		.byte	0
 2502 023f 02       		.uleb128 0x2
 2503 0240 18       		.uleb128 0x18
 2504 0241 9142     		.uleb128 0x2111
 2505 0243 18       		.uleb128 0x18
 2506 0244 00       		.byte	0
ARM GAS  /tmp/ccu2Wvq7.s 			page 45


 2507 0245 00       		.byte	0
 2508 0246 2D       		.uleb128 0x2d
 2509 0247 898201   		.uleb128 0x4109
 2510 024a 00       		.byte	0
 2511 024b 11       		.uleb128 0x11
 2512 024c 01       		.uleb128 0x1
 2513 024d 9542     		.uleb128 0x2115
 2514 024f 19       		.uleb128 0x19
 2515 0250 31       		.uleb128 0x31
 2516 0251 13       		.uleb128 0x13
 2517 0252 00       		.byte	0
 2518 0253 00       		.byte	0
 2519 0254 2E       		.uleb128 0x2e
 2520 0255 05       		.uleb128 0x5
 2521 0256 00       		.byte	0
 2522 0257 03       		.uleb128 0x3
 2523 0258 0E       		.uleb128 0xe
 2524 0259 3A       		.uleb128 0x3a
 2525 025a 0B       		.uleb128 0xb
 2526 025b 3B       		.uleb128 0x3b
 2527 025c 0B       		.uleb128 0xb
 2528 025d 49       		.uleb128 0x49
 2529 025e 13       		.uleb128 0x13
 2530 025f 02       		.uleb128 0x2
 2531 0260 17       		.uleb128 0x17
 2532 0261 00       		.byte	0
 2533 0262 00       		.byte	0
 2534 0263 2F       		.uleb128 0x2f
 2535 0264 34       		.uleb128 0x34
 2536 0265 00       		.byte	0
 2537 0266 03       		.uleb128 0x3
 2538 0267 08       		.uleb128 0x8
 2539 0268 3A       		.uleb128 0x3a
 2540 0269 0B       		.uleb128 0xb
 2541 026a 3B       		.uleb128 0x3b
 2542 026b 0B       		.uleb128 0xb
 2543 026c 49       		.uleb128 0x49
 2544 026d 13       		.uleb128 0x13
 2545 026e 02       		.uleb128 0x2
 2546 026f 17       		.uleb128 0x17
 2547 0270 00       		.byte	0
 2548 0271 00       		.byte	0
 2549 0272 30       		.uleb128 0x30
 2550 0273 05       		.uleb128 0x5
 2551 0274 00       		.byte	0
 2552 0275 31       		.uleb128 0x31
 2553 0276 13       		.uleb128 0x13
 2554 0277 02       		.uleb128 0x2
 2555 0278 17       		.uleb128 0x17
 2556 0279 00       		.byte	0
 2557 027a 00       		.byte	0
 2558 027b 31       		.uleb128 0x31
 2559 027c 898201   		.uleb128 0x4109
 2560 027f 01       		.byte	0x1
 2561 0280 11       		.uleb128 0x11
 2562 0281 01       		.uleb128 0x1
 2563 0282 31       		.uleb128 0x31
ARM GAS  /tmp/ccu2Wvq7.s 			page 46


 2564 0283 13       		.uleb128 0x13
 2565 0284 01       		.uleb128 0x1
 2566 0285 13       		.uleb128 0x13
 2567 0286 00       		.byte	0
 2568 0287 00       		.byte	0
 2569 0288 32       		.uleb128 0x32
 2570 0289 898201   		.uleb128 0x4109
 2571 028c 01       		.byte	0x1
 2572 028d 11       		.uleb128 0x11
 2573 028e 01       		.uleb128 0x1
 2574 028f 31       		.uleb128 0x31
 2575 0290 13       		.uleb128 0x13
 2576 0291 00       		.byte	0
 2577 0292 00       		.byte	0
 2578 0293 33       		.uleb128 0x33
 2579 0294 34       		.uleb128 0x34
 2580 0295 00       		.byte	0
 2581 0296 03       		.uleb128 0x3
 2582 0297 0E       		.uleb128 0xe
 2583 0298 3A       		.uleb128 0x3a
 2584 0299 0B       		.uleb128 0xb
 2585 029a 3B       		.uleb128 0x3b
 2586 029b 05       		.uleb128 0x5
 2587 029c 49       		.uleb128 0x49
 2588 029d 13       		.uleb128 0x13
 2589 029e 3F       		.uleb128 0x3f
 2590 029f 19       		.uleb128 0x19
 2591 02a0 3C       		.uleb128 0x3c
 2592 02a1 19       		.uleb128 0x19
 2593 02a2 00       		.byte	0
 2594 02a3 00       		.byte	0
 2595 02a4 34       		.uleb128 0x34
 2596 02a5 34       		.uleb128 0x34
 2597 02a6 00       		.byte	0
 2598 02a7 03       		.uleb128 0x3
 2599 02a8 08       		.uleb128 0x8
 2600 02a9 3A       		.uleb128 0x3a
 2601 02aa 0B       		.uleb128 0xb
 2602 02ab 3B       		.uleb128 0x3b
 2603 02ac 05       		.uleb128 0x5
 2604 02ad 49       		.uleb128 0x49
 2605 02ae 13       		.uleb128 0x13
 2606 02af 3F       		.uleb128 0x3f
 2607 02b0 19       		.uleb128 0x19
 2608 02b1 3C       		.uleb128 0x3c
 2609 02b2 19       		.uleb128 0x19
 2610 02b3 00       		.byte	0
 2611 02b4 00       		.byte	0
 2612 02b5 35       		.uleb128 0x35
 2613 02b6 2E       		.uleb128 0x2e
 2614 02b7 01       		.byte	0x1
 2615 02b8 3F       		.uleb128 0x3f
 2616 02b9 19       		.uleb128 0x19
 2617 02ba 03       		.uleb128 0x3
 2618 02bb 0E       		.uleb128 0xe
 2619 02bc 3A       		.uleb128 0x3a
 2620 02bd 0B       		.uleb128 0xb
ARM GAS  /tmp/ccu2Wvq7.s 			page 47


 2621 02be 3B       		.uleb128 0x3b
 2622 02bf 0B       		.uleb128 0xb
 2623 02c0 27       		.uleb128 0x27
 2624 02c1 19       		.uleb128 0x19
 2625 02c2 3C       		.uleb128 0x3c
 2626 02c3 19       		.uleb128 0x19
 2627 02c4 01       		.uleb128 0x1
 2628 02c5 13       		.uleb128 0x13
 2629 02c6 00       		.byte	0
 2630 02c7 00       		.byte	0
 2631 02c8 36       		.uleb128 0x36
 2632 02c9 2E       		.uleb128 0x2e
 2633 02ca 01       		.byte	0x1
 2634 02cb 3F       		.uleb128 0x3f
 2635 02cc 19       		.uleb128 0x19
 2636 02cd 03       		.uleb128 0x3
 2637 02ce 0E       		.uleb128 0xe
 2638 02cf 3A       		.uleb128 0x3a
 2639 02d0 0B       		.uleb128 0xb
 2640 02d1 3B       		.uleb128 0x3b
 2641 02d2 0B       		.uleb128 0xb
 2642 02d3 27       		.uleb128 0x27
 2643 02d4 19       		.uleb128 0x19
 2644 02d5 49       		.uleb128 0x49
 2645 02d6 13       		.uleb128 0x13
 2646 02d7 3C       		.uleb128 0x3c
 2647 02d8 19       		.uleb128 0x19
 2648 02d9 01       		.uleb128 0x1
 2649 02da 13       		.uleb128 0x13
 2650 02db 00       		.byte	0
 2651 02dc 00       		.byte	0
 2652 02dd 37       		.uleb128 0x37
 2653 02de 2E       		.uleb128 0x2e
 2654 02df 01       		.byte	0x1
 2655 02e0 3F       		.uleb128 0x3f
 2656 02e1 19       		.uleb128 0x19
 2657 02e2 03       		.uleb128 0x3
 2658 02e3 0E       		.uleb128 0xe
 2659 02e4 3A       		.uleb128 0x3a
 2660 02e5 0B       		.uleb128 0xb
 2661 02e6 3B       		.uleb128 0x3b
 2662 02e7 05       		.uleb128 0x5
 2663 02e8 27       		.uleb128 0x27
 2664 02e9 19       		.uleb128 0x19
 2665 02ea 3C       		.uleb128 0x3c
 2666 02eb 19       		.uleb128 0x19
 2667 02ec 01       		.uleb128 0x1
 2668 02ed 13       		.uleb128 0x13
 2669 02ee 00       		.byte	0
 2670 02ef 00       		.byte	0
 2671 02f0 38       		.uleb128 0x38
 2672 02f1 2E       		.uleb128 0x2e
 2673 02f2 01       		.byte	0x1
 2674 02f3 3F       		.uleb128 0x3f
 2675 02f4 19       		.uleb128 0x19
 2676 02f5 03       		.uleb128 0x3
 2677 02f6 0E       		.uleb128 0xe
ARM GAS  /tmp/ccu2Wvq7.s 			page 48


 2678 02f7 3A       		.uleb128 0x3a
 2679 02f8 0B       		.uleb128 0xb
 2680 02f9 3B       		.uleb128 0x3b
 2681 02fa 0B       		.uleb128 0xb
 2682 02fb 27       		.uleb128 0x27
 2683 02fc 19       		.uleb128 0x19
 2684 02fd 49       		.uleb128 0x49
 2685 02fe 13       		.uleb128 0x13
 2686 02ff 3C       		.uleb128 0x3c
 2687 0300 19       		.uleb128 0x19
 2688 0301 00       		.byte	0
 2689 0302 00       		.byte	0
 2690 0303 00       		.byte	0
 2691              		.section	.debug_loc,"",%progbits
 2692              	.Ldebug_loc0:
 2693              	.LLST0:
 2694 0000 00000000 		.4byte	.LVL2
 2695 0004 3D000000 		.4byte	.LVL5-1
 2696 0008 0100     		.2byte	0x1
 2697 000a 50       		.byte	0x50
 2698 000b 3D000000 		.4byte	.LVL5-1
 2699 000f 3E000000 		.4byte	.LVL5
 2700 0013 0400     		.2byte	0x4
 2701 0015 F3       		.byte	0xf3
 2702 0016 01       		.uleb128 0x1
 2703 0017 50       		.byte	0x50
 2704 0018 9F       		.byte	0x9f
 2705 0019 3E000000 		.4byte	.LVL5
 2706 001d 48000000 		.4byte	.LVL6
 2707 0021 0100     		.2byte	0x1
 2708 0023 50       		.byte	0x50
 2709 0024 48000000 		.4byte	.LVL6
 2710 0028 4D000000 		.4byte	.LVL7-1
 2711 002c 0100     		.2byte	0x1
 2712 002e 51       		.byte	0x51
 2713 002f 4D000000 		.4byte	.LVL7-1
 2714 0033 4E000000 		.4byte	.LFE242
 2715 0037 0400     		.2byte	0x4
 2716 0039 F3       		.byte	0xf3
 2717 003a 01       		.uleb128 0x1
 2718 003b 50       		.byte	0x50
 2719 003c 9F       		.byte	0x9f
 2720 003d 00000000 		.4byte	0
 2721 0041 00000000 		.4byte	0
 2722              	.LLST1:
 2723 0045 10000000 		.4byte	.LVL3
 2724 0049 1A000000 		.4byte	.LVL4
 2725 004d 0100     		.2byte	0x1
 2726 004f 53       		.byte	0x53
 2727 0050 00000000 		.4byte	0
 2728 0054 00000000 		.4byte	0
 2729              	.LLST2:
 2730 0058 00000000 		.4byte	.LVL8
 2731 005c 0D000000 		.4byte	.LVL9-1
 2732 0060 0100     		.2byte	0x1
 2733 0062 50       		.byte	0x50
 2734 0063 0D000000 		.4byte	.LVL9-1
ARM GAS  /tmp/ccu2Wvq7.s 			page 49


 2735 0067 3C000000 		.4byte	.LFE243
 2736 006b 0400     		.2byte	0x4
 2737 006d F3       		.byte	0xf3
 2738 006e 01       		.uleb128 0x1
 2739 006f 50       		.byte	0x50
 2740 0070 9F       		.byte	0x9f
 2741 0071 00000000 		.4byte	0
 2742 0075 00000000 		.4byte	0
 2743              	.LLST3:
 2744 0079 00000000 		.4byte	.LVL8
 2745 007d 0D000000 		.4byte	.LVL9-1
 2746 0081 0100     		.2byte	0x1
 2747 0083 51       		.byte	0x51
 2748 0084 0D000000 		.4byte	.LVL9-1
 2749 0088 3C000000 		.4byte	.LFE243
 2750 008c 0100     		.2byte	0x1
 2751 008e 55       		.byte	0x55
 2752 008f 00000000 		.4byte	0
 2753 0093 00000000 		.4byte	0
 2754              	.LLST4:
 2755 0097 00000000 		.4byte	.LVL8
 2756 009b 0D000000 		.4byte	.LVL9-1
 2757 009f 0100     		.2byte	0x1
 2758 00a1 52       		.byte	0x52
 2759 00a2 0D000000 		.4byte	.LVL9-1
 2760 00a6 3C000000 		.4byte	.LFE243
 2761 00aa 0100     		.2byte	0x1
 2762 00ac 57       		.byte	0x57
 2763 00ad 00000000 		.4byte	0
 2764 00b1 00000000 		.4byte	0
 2765              	.LLST5:
 2766 00b5 00000000 		.4byte	.LVL8
 2767 00b9 0D000000 		.4byte	.LVL9-1
 2768 00bd 0100     		.2byte	0x1
 2769 00bf 53       		.byte	0x53
 2770 00c0 0D000000 		.4byte	.LVL9-1
 2771 00c4 3C000000 		.4byte	.LFE243
 2772 00c8 0100     		.2byte	0x1
 2773 00ca 56       		.byte	0x56
 2774 00cb 00000000 		.4byte	0
 2775 00cf 00000000 		.4byte	0
 2776              	.LLST6:
 2777 00d3 0E000000 		.4byte	.LVL9
 2778 00d7 23000000 		.4byte	.LVL11-1
 2779 00db 0100     		.2byte	0x1
 2780 00dd 50       		.byte	0x50
 2781 00de 00000000 		.4byte	0
 2782 00e2 00000000 		.4byte	0
 2783              	.LLST7:
 2784 00e6 2C000000 		.4byte	.LVL12
 2785 00ea 2F000000 		.4byte	.LVL13-1
 2786 00ee 0100     		.2byte	0x1
 2787 00f0 50       		.byte	0x50
 2788 00f1 2F000000 		.4byte	.LVL13-1
 2789 00f5 38000000 		.4byte	.LVL14
 2790 00f9 0100     		.2byte	0x1
 2791 00fb 54       		.byte	0x54
ARM GAS  /tmp/ccu2Wvq7.s 			page 50


 2792 00fc 00000000 		.4byte	0
 2793 0100 00000000 		.4byte	0
 2794              	.LLST8:
 2795 0104 10000000 		.4byte	.LVL10
 2796 0108 38000000 		.4byte	.LVL14
 2797 010c 0300     		.2byte	0x3
 2798 010e 08       		.byte	0x8
 2799 010f 20       		.byte	0x20
 2800 0110 9F       		.byte	0x9f
 2801 0111 00000000 		.4byte	0
 2802 0115 00000000 		.4byte	0
 2803              	.LLST9:
 2804 0119 30000000 		.4byte	.LVL13
 2805 011d 38000000 		.4byte	.LVL14
 2806 0121 0200     		.2byte	0x2
 2807 0123 30       		.byte	0x30
 2808 0124 9F       		.byte	0x9f
 2809 0125 00000000 		.4byte	0
 2810 0129 00000000 		.4byte	0
 2811              	.LLST10:
 2812 012d 00000000 		.4byte	.LVL15
 2813 0131 0F000000 		.4byte	.LVL16-1
 2814 0135 0100     		.2byte	0x1
 2815 0137 50       		.byte	0x50
 2816 0138 0F000000 		.4byte	.LVL16-1
 2817 013c 3E000000 		.4byte	.LFE244
 2818 0140 0100     		.2byte	0x1
 2819 0142 55       		.byte	0x55
 2820 0143 00000000 		.4byte	0
 2821 0147 00000000 		.4byte	0
 2822              	.LLST11:
 2823 014b 00000000 		.4byte	.LVL15
 2824 014f 0F000000 		.4byte	.LVL16-1
 2825 0153 0100     		.2byte	0x1
 2826 0155 51       		.byte	0x51
 2827 0156 0F000000 		.4byte	.LVL16-1
 2828 015a 3E000000 		.4byte	.LFE244
 2829 015e 0100     		.2byte	0x1
 2830 0160 57       		.byte	0x57
 2831 0161 00000000 		.4byte	0
 2832 0165 00000000 		.4byte	0
 2833              	.LLST12:
 2834 0169 00000000 		.4byte	.LVL15
 2835 016d 0F000000 		.4byte	.LVL16-1
 2836 0171 0100     		.2byte	0x1
 2837 0173 52       		.byte	0x52
 2838 0174 0F000000 		.4byte	.LVL16-1
 2839 0178 3E000000 		.4byte	.LFE244
 2840 017c 0100     		.2byte	0x1
 2841 017e 56       		.byte	0x56
 2842 017f 00000000 		.4byte	0
 2843 0183 00000000 		.4byte	0
 2844              	.LLST13:
 2845 0187 00000000 		.4byte	.LVL15
 2846 018b 0F000000 		.4byte	.LVL16-1
 2847 018f 0100     		.2byte	0x1
 2848 0191 53       		.byte	0x53
ARM GAS  /tmp/ccu2Wvq7.s 			page 51


 2849 0192 0F000000 		.4byte	.LVL16-1
 2850 0196 2E000000 		.4byte	.LVL19
 2851 019a 0100     		.2byte	0x1
 2852 019c 54       		.byte	0x54
 2853 019d 2E000000 		.4byte	.LVL19
 2854 01a1 3E000000 		.4byte	.LFE244
 2855 01a5 0400     		.2byte	0x4
 2856 01a7 F3       		.byte	0xf3
 2857 01a8 01       		.uleb128 0x1
 2858 01a9 53       		.byte	0x53
 2859 01aa 9F       		.byte	0x9f
 2860 01ab 00000000 		.4byte	0
 2861 01af 00000000 		.4byte	0
 2862              	.LLST14:
 2863 01b3 10000000 		.4byte	.LVL16
 2864 01b7 23000000 		.4byte	.LVL18-1
 2865 01bb 0100     		.2byte	0x1
 2866 01bd 50       		.byte	0x50
 2867 01be 00000000 		.4byte	0
 2868 01c2 00000000 		.4byte	0
 2869              	.LLST15:
 2870 01c6 2E000000 		.4byte	.LVL19
 2871 01ca 31000000 		.4byte	.LVL20-1
 2872 01ce 0100     		.2byte	0x1
 2873 01d0 50       		.byte	0x50
 2874 01d1 31000000 		.4byte	.LVL20-1
 2875 01d5 3A000000 		.4byte	.LVL21
 2876 01d9 0100     		.2byte	0x1
 2877 01db 54       		.byte	0x54
 2878 01dc 00000000 		.4byte	0
 2879 01e0 00000000 		.4byte	0
 2880              	.LLST16:
 2881 01e4 12000000 		.4byte	.LVL17
 2882 01e8 3A000000 		.4byte	.LVL21
 2883 01ec 0300     		.2byte	0x3
 2884 01ee 08       		.byte	0x8
 2885 01ef 20       		.byte	0x20
 2886 01f0 9F       		.byte	0x9f
 2887 01f1 00000000 		.4byte	0
 2888 01f5 00000000 		.4byte	0
 2889              	.LLST17:
 2890 01f9 32000000 		.4byte	.LVL20
 2891 01fd 3A000000 		.4byte	.LVL21
 2892 0201 0200     		.2byte	0x2
 2893 0203 30       		.byte	0x30
 2894 0204 9F       		.byte	0x9f
 2895 0205 00000000 		.4byte	0
 2896 0209 00000000 		.4byte	0
 2897              		.section	.debug_aranges,"",%progbits
 2898 0000 34000000 		.4byte	0x34
 2899 0004 0200     		.2byte	0x2
 2900 0006 00000000 		.4byte	.Ldebug_info0
 2901 000a 04       		.byte	0x4
 2902 000b 00       		.byte	0
 2903 000c 0000     		.2byte	0
 2904 000e 0000     		.2byte	0
 2905 0010 00000000 		.4byte	.LFB241
ARM GAS  /tmp/ccu2Wvq7.s 			page 52


 2906 0014 14000000 		.4byte	.LFE241-.LFB241
 2907 0018 00000000 		.4byte	.LFB242
 2908 001c 4E000000 		.4byte	.LFE242-.LFB242
 2909 0020 00000000 		.4byte	.LFB243
 2910 0024 3C000000 		.4byte	.LFE243-.LFB243
 2911 0028 00000000 		.4byte	.LFB244
 2912 002c 3E000000 		.4byte	.LFE244-.LFB244
 2913 0030 00000000 		.4byte	0
 2914 0034 00000000 		.4byte	0
 2915              		.section	.debug_ranges,"",%progbits
 2916              	.Ldebug_ranges0:
 2917 0000 00000000 		.4byte	.LFB241
 2918 0004 14000000 		.4byte	.LFE241
 2919 0008 00000000 		.4byte	.LFB242
 2920 000c 4E000000 		.4byte	.LFE242
 2921 0010 00000000 		.4byte	.LFB243
 2922 0014 3C000000 		.4byte	.LFE243
 2923 0018 00000000 		.4byte	.LFB244
 2924 001c 3E000000 		.4byte	.LFE244
 2925 0020 00000000 		.4byte	0
 2926 0024 00000000 		.4byte	0
 2927              		.section	.debug_line,"",%progbits
 2928              	.Ldebug_line0:
 2929 0000 C9030000 		.section	.debug_str,"MS",%progbits,1
 2929      02000303 
 2929      00000201 
 2929      FB0E0D00 
 2929      01010101 
 2930              	.LASF101:
 2931 0000 7466756E 		.ascii	"tfunc_t\000"
 2931      635F7400 
 2932              	.LASF50:
 2933 0008 72656164 		.ascii	"ready_list_t\000"
 2933      795F6C69 
 2933      73745F74 
 2933      00
 2934              	.LASF2:
 2935 0015 73697A65 		.ascii	"size_t\000"
 2935      5F7400
 2936              	.LASF85:
 2937 001c 7264796D 		.ascii	"rdymsg\000"
 2937      736700
 2938              	.LASF17:
 2939 0023 75696E74 		.ascii	"uint64_t\000"
 2939      36345F74 
 2939      00
 2940              	.LASF3:
 2941 002c 5F5F7569 		.ascii	"__uint8_t\000"
 2941      6E74385F 
 2941      7400
 2942              	.LASF82:
 2943 0036 706F7274 		.ascii	"port_intctx\000"
 2943      5F696E74 
 2943      63747800 
 2944              	.LASF69:
 2945 0042 73797374 		.ascii	"system_debug_t\000"
 2945      656D5F64 
ARM GAS  /tmp/ccu2Wvq7.s 			page 53


 2945      65627567 
 2945      5F7400
 2946              	.LASF119:
 2947 0051 706F7274 		.ascii	"port_lock\000"
 2947      5F6C6F63 
 2947      6B00
 2948              	.LASF103:
 2949 005b 6D656D67 		.ascii	"memgetfunc_t\000"
 2949      65746675 
 2949      6E635F74 
 2949      00
 2950              	.LASF13:
 2951 0068 6C6F6E67 		.ascii	"long long unsigned int\000"
 2951      206C6F6E 
 2951      6720756E 
 2951      7369676E 
 2951      65642069 
 2952              	.LASF86:
 2953 007f 65786974 		.ascii	"exitcode\000"
 2953      636F6465 
 2953      00
 2954              	.LASF107:
 2955 0088 685F6672 		.ascii	"h_free\000"
 2955      656500
 2956              	.LASF89:
 2957 008f 73656E74 		.ascii	"sentmsg\000"
 2957      6D736700 
 2958              	.LASF66:
 2959 0097 76697274 		.ascii	"virtual_timers_list_t\000"
 2959      75616C5F 
 2959      74696D65 
 2959      72735F6C 
 2959      6973745F 
 2960              	.LASF131:
 2961 00ad 49544D5F 		.ascii	"ITM_RxBuffer\000"
 2961      52784275 
 2961      66666572 
 2961      00
 2962              	.LASF127:
 2963 00ba 68656170 		.ascii	"heapp\000"
 2963      7000
 2964              	.LASF109:
 2965 00c0 6E657874 		.ascii	"next\000"
 2965      00
 2966              	.LASF49:
 2967 00c5 63685F74 		.ascii	"ch_threads_queue\000"
 2967      68726561 
 2967      64735F71 
 2967      75657565 
 2967      00
 2968              	.LASF30:
 2969 00d6 705F7072 		.ascii	"p_prio\000"
 2969      696F00
 2970              	.LASF11:
 2971 00dd 6C6F6E67 		.ascii	"long long int\000"
 2971      206C6F6E 
 2971      6720696E 
ARM GAS  /tmp/ccu2Wvq7.s 			page 54


 2971      7400
 2972              	.LASF1:
 2973 00eb 7369676E 		.ascii	"signed char\000"
 2973      65642063 
 2973      68617200 
 2974              	.LASF108:
 2975 00f7 685F6D74 		.ascii	"h_mtx\000"
 2975      7800
 2976              	.LASF43:
 2977 00fd 705F6D70 		.ascii	"p_mpool\000"
 2977      6F6F6C00 
 2978              	.LASF97:
 2979 0105 6D5F7175 		.ascii	"m_queue\000"
 2979      65756500 
 2980              	.LASF132:
 2981 010d 63684865 		.ascii	"chHeapFree\000"
 2981      61704672 
 2981      656500
 2982              	.LASF75:
 2983 0118 76746C69 		.ascii	"vtlist\000"
 2983      737400
 2984              	.LASF120:
 2985 011f 706F7274 		.ascii	"port_unlock\000"
 2985      5F756E6C 
 2985      6F636B00 
 2986              	.LASF135:
 2987 012b 63685468 		.ascii	"chThdCreateI\000"
 2987      64437265 
 2987      61746549 
 2987      00
 2988              	.LASF88:
 2989 0138 77747472 		.ascii	"wttrp\000"
 2989      7000
 2990              	.LASF73:
 2991 013e 63685F73 		.ascii	"ch_system\000"
 2991      79737465 
 2991      6D00
 2992              	.LASF8:
 2993 0148 6C6F6E67 		.ascii	"long int\000"
 2993      20696E74 
 2993      00
 2994              	.LASF126:
 2995 0151 63685468 		.ascii	"chThdCreateFromHeap\000"
 2995      64437265 
 2995      61746546 
 2995      726F6D48 
 2995      65617000 
 2996              	.LASF20:
 2997 0165 74737461 		.ascii	"tstate_t\000"
 2997      74655F74 
 2997      00
 2998              	.LASF104:
 2999 016e 6D656D6F 		.ascii	"memory_heap_t\000"
 2999      72795F68 
 2999      6561705F 
 2999      7400
 3000              	.LASF115:
ARM GAS  /tmp/ccu2Wvq7.s 			page 55


 3001 017c 6D705F6E 		.ascii	"mp_next\000"
 3001      65787400 
 3002              	.LASF32:
 3003 0184 705F6E65 		.ascii	"p_newer\000"
 3003      77657200 
 3004              	.LASF94:
 3005 018c 735F7175 		.ascii	"s_queue\000"
 3005      65756500 
 3006              	.LASF130:
 3007 0194 63685468 		.ascii	"chThdCreateFromMemoryPool\000"
 3007      64437265 
 3007      61746546 
 3007      726F6D4D 
 3007      656D6F72 
 3008              	.LASF55:
 3009 01ae 725F6E65 		.ascii	"r_newer\000"
 3009      77657200 
 3010              	.LASF117:
 3011 01b6 6D705F70 		.ascii	"mp_provider\000"
 3011      726F7669 
 3011      64657200 
 3012              	.LASF79:
 3013 01c2 72656761 		.ascii	"regarm_t\000"
 3013      726D5F74 
 3013      00
 3014              	.LASF62:
 3015 01cb 76745F70 		.ascii	"vt_prev\000"
 3015      72657600 
 3016              	.LASF102:
 3017 01d3 6D757465 		.ascii	"mutex_t\000"
 3017      785F7400 
 3018              	.LASF142:
 3019 01db 76616C75 		.ascii	"value\000"
 3019      6500
 3020              	.LASF111:
 3021 01e1 616C6967 		.ascii	"align\000"
 3021      6E00
 3022              	.LASF77:
 3023 01e7 69646C65 		.ascii	"idle_thread_wa\000"
 3023      5F746872 
 3023      6561645F 
 3023      776100
 3024              	.LASF25:
 3025 01f6 636E745F 		.ascii	"cnt_t\000"
 3025      7400
 3026              	.LASF0:
 3027 01fc 756E7369 		.ascii	"unsigned int\000"
 3027      676E6564 
 3027      20696E74 
 3027      00
 3028              	.LASF61:
 3029 0209 76745F6E 		.ascii	"vt_next\000"
 3029      65787400 
 3030              	.LASF90:
 3031 0211 77747365 		.ascii	"wtsemp\000"
 3031      6D7000
 3032              	.LASF39:
ARM GAS  /tmp/ccu2Wvq7.s 			page 56


 3033 0218 705F6D73 		.ascii	"p_msgqueue\000"
 3033      67717565 
 3033      756500
 3034              	.LASF118:
 3035 0223 6D656D6F 		.ascii	"memory_pool_t\000"
 3035      72795F70 
 3035      6F6F6C5F 
 3035      7400
 3036              	.LASF95:
 3037 0231 735F636E 		.ascii	"s_cnt\000"
 3037      7400
 3038              	.LASF6:
 3039 0237 73686F72 		.ascii	"short unsigned int\000"
 3039      7420756E 
 3039      7369676E 
 3039      65642069 
 3039      6E7400
 3040              	.LASF46:
 3041 024a 63685F74 		.ascii	"ch_thread\000"
 3041      68726561 
 3041      6400
 3042              	.LASF136:
 3043 0254 63685363 		.ascii	"chSchWakeupS\000"
 3043      6857616B 
 3043      65757053 
 3043      00
 3044              	.LASF76:
 3045 0261 6D61696E 		.ascii	"mainthread\000"
 3045      74687265 
 3045      616400
 3046              	.LASF23:
 3047 026c 6D73675F 		.ascii	"msg_t\000"
 3047      7400
 3048              	.LASF72:
 3049 0272 63685F73 		.ascii	"ch_system_t\000"
 3049      79737465 
 3049      6D5F7400 
 3050              	.LASF19:
 3051 027e 746D6F64 		.ascii	"tmode_t\000"
 3051      655F7400 
 3052              	.LASF51:
 3053 0286 63685F72 		.ascii	"ch_ready_list\000"
 3053      65616479 
 3053      5F6C6973 
 3053      7400
 3054              	.LASF24:
 3055 0294 6576656E 		.ascii	"eventmask_t\000"
 3055      746D6173 
 3055      6B5F7400 
 3056              	.LASF7:
 3057 02a0 5F5F696E 		.ascii	"__int32_t\000"
 3057      7433325F 
 3057      7400
 3058              	.LASF125:
 3059 02aa 63685468 		.ascii	"chThdAddRef\000"
 3059      64416464 
 3059      52656600 
ARM GAS  /tmp/ccu2Wvq7.s 			page 57


 3060              	.LASF80:
 3061 02b6 73746B61 		.ascii	"stkalign_t\000"
 3061      6C69676E 
 3061      5F7400
 3062              	.LASF38:
 3063 02c1 705F7761 		.ascii	"p_waiting\000"
 3063      6974696E 
 3063      6700
 3064              	.LASF78:
 3065 02cb 73697A65 		.ascii	"sizetype\000"
 3065      74797065 
 3065      00
 3066              	.LASF44:
 3067 02d4 74687265 		.ascii	"thread_reference_t\000"
 3067      61645F72 
 3067      65666572 
 3067      656E6365 
 3067      5F7400
 3068              	.LASF67:
 3069 02e7 63685F76 		.ascii	"ch_virtual_timers_list\000"
 3069      69727475 
 3069      616C5F74 
 3069      696D6572 
 3069      735F6C69 
 3070              	.LASF140:
 3071 02fe 2F752F63 		.ascii	"/u/cojthack/summerResearch2016/milestone2\000"
 3071      6F6A7468 
 3071      61636B2F 
 3071      73756D6D 
 3071      65725265 
 3072              	.LASF68:
 3073 0328 76745F6C 		.ascii	"vt_lasttime\000"
 3073      61737474 
 3073      696D6500 
 3074              	.LASF33:
 3075 0334 705F6F6C 		.ascii	"p_older\000"
 3075      64657200 
 3076              	.LASF54:
 3077 033c 725F6374 		.ascii	"r_ctx\000"
 3077      7800
 3078              	.LASF116:
 3079 0342 6D705F6F 		.ascii	"mp_object_size\000"
 3079      626A6563 
 3079      745F7369 
 3079      7A6500
 3080              	.LASF84:
 3081 0351 746D5F63 		.ascii	"tm_calibration_t\000"
 3081      616C6962 
 3081      72617469 
 3081      6F6E5F74 
 3081      00
 3082              	.LASF128:
 3083 0362 7072696F 		.ascii	"prio\000"
 3083      00
 3084              	.LASF56:
 3085 0367 725F6F6C 		.ascii	"r_older\000"
 3085      64657200 
ARM GAS  /tmp/ccu2Wvq7.s 			page 58


 3086              	.LASF12:
 3087 036f 5F5F7569 		.ascii	"__uint64_t\000"
 3087      6E743634 
 3087      5F7400
 3088              	.LASF114:
 3089 037a 70685F6E 		.ascii	"ph_next\000"
 3089      65787400 
 3090              	.LASF21:
 3091 0382 74726566 		.ascii	"trefs_t\000"
 3091      735F7400 
 3092              	.LASF129:
 3093 038a 72656673 		.ascii	"refs\000"
 3093      00
 3094              	.LASF59:
 3095 038f 76697274 		.ascii	"virtual_timer_t\000"
 3095      75616C5F 
 3095      74696D65 
 3095      725F7400 
 3096              	.LASF29:
 3097 039f 705F7072 		.ascii	"p_prev\000"
 3097      657600
 3098              	.LASF22:
 3099 03a6 74707269 		.ascii	"tprio_t\000"
 3099      6F5F7400 
 3100              	.LASF70:
 3101 03ae 63685F73 		.ascii	"ch_system_debug\000"
 3101      79737465 
 3101      6D5F6465 
 3101      62756700 
 3102              	.LASF15:
 3103 03be 696E7433 		.ascii	"int32_t\000"
 3103      325F7400 
 3104              	.LASF4:
 3105 03c6 756E7369 		.ascii	"unsigned char\000"
 3105      676E6564 
 3105      20636861 
 3105      7200
 3106              	.LASF141:
 3107 03d4 68656170 		.ascii	"heap_header\000"
 3107      5F686561 
 3107      64657200 
 3108              	.LASF41:
 3109 03e0 705F6D74 		.ascii	"p_mtxlist\000"
 3109      786C6973 
 3109      7400
 3110              	.LASF5:
 3111 03ea 73686F72 		.ascii	"short int\000"
 3111      7420696E 
 3111      7400
 3112              	.LASF35:
 3113 03f4 705F7374 		.ascii	"p_state\000"
 3113      61746500 
 3114              	.LASF53:
 3115 03fc 725F7072 		.ascii	"r_prio\000"
 3115      696F00
 3116              	.LASF92:
 3117 0403 65776D61 		.ascii	"ewmask\000"
ARM GAS  /tmp/ccu2Wvq7.s 			page 59


 3117      736B00
 3118              	.LASF28:
 3119 040a 705F6E65 		.ascii	"p_next\000"
 3119      787400
 3120              	.LASF36:
 3121 0411 705F666C 		.ascii	"p_flags\000"
 3121      61677300 
 3122              	.LASF124:
 3123 0419 5F5F6675 		.ascii	"__func__\000"
 3123      6E635F5F 
 3123      00
 3124              	.LASF121:
 3125 0422 63685379 		.ascii	"chSysLock\000"
 3125      734C6F63 
 3125      6B00
 3126              	.LASF143:
 3127 042c 63685468 		.ascii	"chThdRelease\000"
 3127      6452656C 
 3127      65617365 
 3127      00
 3128              	.LASF134:
 3129 0439 63684865 		.ascii	"chHeapAlloc\000"
 3129      6170416C 
 3129      6C6F6300 
 3130              	.LASF93:
 3131 0445 63685F73 		.ascii	"ch_semaphore\000"
 3131      656D6170 
 3131      686F7265 
 3131      00
 3132              	.LASF40:
 3133 0452 705F6570 		.ascii	"p_epending\000"
 3133      656E6469 
 3133      6E6700
 3134              	.LASF16:
 3135 045d 75696E74 		.ascii	"uint32_t\000"
 3135      33325F74 
 3135      00
 3136              	.LASF91:
 3137 0466 77746D74 		.ascii	"wtmtxp\000"
 3137      787000
 3138              	.LASF52:
 3139 046d 725F7175 		.ascii	"r_queue\000"
 3139      65756500 
 3140              	.LASF63:
 3141 0475 76745F64 		.ascii	"vt_delta\000"
 3141      656C7461 
 3141      00
 3142              	.LASF47:
 3143 047e 63685F74 		.ascii	"ch_threads_list\000"
 3143      68726561 
 3143      64735F6C 
 3143      69737400 
 3144              	.LASF110:
 3145 048e 68656170 		.ascii	"heap\000"
 3145      00
 3146              	.LASF10:
 3147 0493 6C6F6E67 		.ascii	"long unsigned int\000"
ARM GAS  /tmp/ccu2Wvq7.s 			page 60


 3147      20756E73 
 3147      69676E65 
 3147      6420696E 
 3147      7400
 3148              	.LASF57:
 3149 04a5 725F6375 		.ascii	"r_current\000"
 3149      7272656E 
 3149      7400
 3150              	.LASF100:
 3151 04af 63686172 		.ascii	"char\000"
 3151      00
 3152              	.LASF139:
 3153 04b4 2E2E2F43 		.ascii	"../ChibiOS/os/rt/src/chdynamic.c\000"
 3153      68696269 
 3153      4F532F6F 
 3153      732F7274 
 3153      2F737263 
 3154              	.LASF27:
 3155 04d5 74687265 		.ascii	"thread_t\000"
 3155      61645F74 
 3155      00
 3156              	.LASF138:
 3157 04de 474E5520 		.ascii	"GNU C 4.8.4 20140526 (release) [ARM/embedded-4_8-br"
 3157      4320342E 
 3157      382E3420 
 3157      32303134 
 3157      30353236 
 3158 0511 616E6368 		.ascii	"anch revision 211358] -mcpu=cortex-m4 -mno-thumb-in"
 3158      20726576 
 3158      6973696F 
 3158      6E203231 
 3158      31333538 
 3159 0544 74657277 		.ascii	"terwork -mthumb -ggdb -O2 -fomit-frame-pointer -fal"
 3159      6F726B20 
 3159      2D6D7468 
 3159      756D6220 
 3159      2D676764 
 3160 0577 69676E2D 		.ascii	"ign-functions=16 -ffunction-sections -fdata-section"
 3160      66756E63 
 3160      74696F6E 
 3160      733D3136 
 3160      202D6666 
 3161 05aa 73202D66 		.ascii	"s -fno-common\000"
 3161      6E6F2D63 
 3161      6F6D6D6F 
 3161      6E00
 3162              	.LASF99:
 3163 05b8 6D5F6E65 		.ascii	"m_next\000"
 3163      787400
 3164              	.LASF26:
 3165 05bf 73797374 		.ascii	"systime_t\000"
 3165      696D655F 
 3165      7400
 3166              	.LASF42:
 3167 05c9 705F7265 		.ascii	"p_realprio\000"
 3167      616C7072 
 3167      696F00
ARM GAS  /tmp/ccu2Wvq7.s 			page 61


 3168              	.LASF58:
 3169 05d4 76746675 		.ascii	"vtfunc_t\000"
 3169      6E635F74 
 3169      00
 3170              	.LASF9:
 3171 05dd 5F5F7569 		.ascii	"__uint32_t\000"
 3171      6E743332 
 3171      5F7400
 3172              	.LASF122:
 3173 05e8 5F5F7365 		.ascii	"__set_BASEPRI\000"
 3173      745F4241 
 3173      53455052 
 3173      4900
 3174              	.LASF71:
 3175 05f6 70616E69 		.ascii	"panic_msg\000"
 3175      635F6D73 
 3175      6700
 3176              	.LASF83:
 3177 0600 6F666673 		.ascii	"offset\000"
 3177      657400
 3178              	.LASF96:
 3179 0607 63685F6D 		.ascii	"ch_mutex\000"
 3179      75746578 
 3179      00
 3180              	.LASF81:
 3181 0610 636F6E74 		.ascii	"context\000"
 3181      65787400 
 3182              	.LASF60:
 3183 0618 63685F76 		.ascii	"ch_virtual_timer\000"
 3183      69727475 
 3183      616C5F74 
 3183      696D6572 
 3183      00
 3184              	.LASF18:
 3185 0629 7274636E 		.ascii	"rtcnt_t\000"
 3185      745F7400 
 3186              	.LASF65:
 3187 0631 76745F70 		.ascii	"vt_par\000"
 3187      617200
 3188              	.LASF48:
 3189 0638 74687265 		.ascii	"threads_queue_t\000"
 3189      6164735F 
 3189      71756575 
 3189      655F7400 
 3190              	.LASF113:
 3191 0648 706F6F6C 		.ascii	"pool_header\000"
 3191      5F686561 
 3191      64657200 
 3192              	.LASF37:
 3193 0654 705F7265 		.ascii	"p_refs\000"
 3193      667300
 3194              	.LASF74:
 3195 065b 726C6973 		.ascii	"rlist\000"
 3195      7400
 3196              	.LASF14:
 3197 0661 75696E74 		.ascii	"uint8_t\000"
 3197      385F7400 
ARM GAS  /tmp/ccu2Wvq7.s 			page 62


 3198              	.LASF137:
 3199 0669 6368506F 		.ascii	"chPoolAlloc\000"
 3199      6F6C416C 
 3199      6C6F6300 
 3200              	.LASF133:
 3201 0675 6368506F 		.ascii	"chPoolFree\000"
 3201      6F6C4672 
 3201      656500
 3202              	.LASF106:
 3203 0680 685F7072 		.ascii	"h_provider\000"
 3203      6F766964 
 3203      657200
 3204              	.LASF87:
 3205 068b 77746F62 		.ascii	"wtobjp\000"
 3205      6A7000
 3206              	.LASF34:
 3207 0692 705F6E61 		.ascii	"p_name\000"
 3207      6D6500
 3208              	.LASF112:
 3209 0699 73697A65 		.ascii	"size\000"
 3209      00
 3210              	.LASF45:
 3211 069e 74687265 		.ascii	"threads_list_t\000"
 3211      6164735F 
 3211      6C697374 
 3211      5F7400
 3212              	.LASF123:
 3213 06ad 63685379 		.ascii	"chSysUnlock\000"
 3213      73556E6C 
 3213      6F636B00 
 3214              	.LASF98:
 3215 06b9 6D5F6F77 		.ascii	"m_owner\000"
 3215      6E657200 
 3216              	.LASF31:
 3217 06c1 705F6374 		.ascii	"p_ctx\000"
 3217      7800
 3218              	.LASF64:
 3219 06c7 76745F66 		.ascii	"vt_func\000"
 3219      756E6300 
 3220              	.LASF105:
 3221 06cf 6D656D6F 		.ascii	"memory_heap\000"
 3221      72795F68 
 3221      65617000 
 3222              		.ident	"GCC: (GNU Tools for ARM Embedded Processors) 4.8.4 20140526 (release) [ARM/embedded-4_8-br
ARM GAS  /tmp/ccu2Wvq7.s 			page 63


DEFINED SYMBOLS
                            *ABS*:00000000 chdynamic.c
     /tmp/ccu2Wvq7.s:19     .text.chThdAddRef:00000000 $t
     /tmp/ccu2Wvq7.s:25     .text.chThdAddRef:00000000 chThdAddRef
     /tmp/ccu2Wvq7.s:76     .text.chThdRelease:00000000 $t
     /tmp/ccu2Wvq7.s:82     .text.chThdRelease:00000000 chThdRelease
     /tmp/ccu2Wvq7.s:174    .text.chThdCreateFromHeap:00000000 $t
     /tmp/ccu2Wvq7.s:180    .text.chThdCreateFromHeap:00000000 chThdCreateFromHeap
     /tmp/ccu2Wvq7.s:267    .text.chThdCreateFromMemoryPool:00000000 $t
     /tmp/ccu2Wvq7.s:273    .text.chThdCreateFromMemoryPool:00000000 chThdCreateFromMemoryPool
                     .debug_frame:00000010 $d

UNDEFINED SYMBOLS
chHeapFree
chPoolFree
chHeapAlloc
chThdCreateI
chSchWakeupS
chPoolAlloc
