ARM GAS  /tmp/cchKsdr4.s 			page 1


   1              		.syntax unified
   2              		.cpu cortex-m4
   3              		.fpu softvfp
   4              		.eabi_attribute 20, 1
   5              		.eabi_attribute 21, 1
   6              		.eabi_attribute 23, 3
   7              		.eabi_attribute 24, 1
   8              		.eabi_attribute 25, 1
   9              		.eabi_attribute 26, 1
  10              		.eabi_attribute 30, 2
  11              		.eabi_attribute 34, 1
  12              		.eabi_attribute 18, 4
  13              		.thumb
  14              		.file	"chevents.c"
  15              		.text
  16              	.Ltext0:
  17              		.cfi_sections	.debug_frame
  18              		.section	.text.chEvtRegisterMaskWithFlags,"ax",%progbits
  19              		.align	2
  20              		.p2align 4,,15
  21              		.global	chEvtRegisterMaskWithFlags
  22              		.thumb
  23              		.thumb_func
  24              		.type	chEvtRegisterMaskWithFlags, %function
  25              	chEvtRegisterMaskWithFlags:
  26              	.LFB241:
  27              		.file 1 "../ChibiOS/os/rt/src/chevents.c"
  28              		.loc 1 106 0
  29              		.cfi_startproc
  30              		@ args = 0, pretend = 0, frame = 0
  31              		@ frame_needed = 0, uses_anonymous_args = 0
  32              		@ link register save eliminated.
  33              	.LVL0:
  34 0000 30B4     		push	{r4, r5}
  35              		.cfi_def_cfa_offset 8
  36              		.cfi_offset 4, -8
  37              		.cfi_offset 5, -4
  38              	.LBB174:
  39              	.LBB175:
  40              	.LBB176:
  41              	.LBB177:
  42              		.file 2 "../ChibiOS/os/ext/CMSIS/include/core_cmFunc.h"
  43              		.loc 2 548 0
  44 0002 2024     		movs	r4, #32
  45              	@ 548 "../ChibiOS/os/ext/CMSIS/include/core_cmFunc.h" 1
  46 0004 84F31188 		MSR basepri, r4
  47              	@ 0 "" 2
  48              		.thumb
  49              	.LBE177:
  50              	.LBE176:
  51              	.LBE175:
  52              	.LBE174:
  53              		.loc 1 113 0
  54 0008 064D     		ldr	r5, .L2
  55              		.loc 1 111 0
  56 000a 0468     		ldr	r4, [r0]
  57              		.loc 1 113 0
ARM GAS  /tmp/cchKsdr4.s 			page 2


  58 000c AD69     		ldr	r5, [r5, #24]
  59              		.loc 1 111 0
  60 000e 0C60     		str	r4, [r1]
  61              		.loc 1 115 0
  62 0010 0024     		movs	r4, #0
  63              		.loc 1 112 0
  64 0012 0160     		str	r1, [r0]
  65              		.loc 1 113 0
  66 0014 4D60     		str	r5, [r1, #4]
  67              		.loc 1 114 0
  68 0016 8A60     		str	r2, [r1, #8]
  69              		.loc 1 116 0
  70 0018 0B61     		str	r3, [r1, #16]
  71              	.LVL1:
  72              		.loc 1 115 0
  73 001a CC60     		str	r4, [r1, #12]
  74              	.LBB178:
  75              	.LBB179:
  76              	.LBB180:
  77              	.LBB181:
  78              	.LBB182:
  79              		.loc 2 548 0
  80              	@ 548 "../ChibiOS/os/ext/CMSIS/include/core_cmFunc.h" 1
  81 001c 84F31188 		MSR basepri, r4
  82              	@ 0 "" 2
  83              		.thumb
  84              	.LBE182:
  85              	.LBE181:
  86              	.LBE180:
  87              	.LBE179:
  88              	.LBE178:
  89              		.loc 1 118 0
  90 0020 30BC     		pop	{r4, r5}
  91 0022 7047     		bx	lr
  92              	.L3:
  93              		.align	2
  94              	.L2:
  95 0024 00000000 		.word	ch
  96              		.cfi_endproc
  97              	.LFE241:
  98              		.size	chEvtRegisterMaskWithFlags, .-chEvtRegisterMaskWithFlags
  99 0028 AFF30080 		.section	.text.chEvtUnregister,"ax",%progbits
  99      AFF30080 
 100              		.align	2
 101              		.p2align 4,,15
 102              		.global	chEvtUnregister
 103              		.thumb
 104              		.thumb_func
 105              		.type	chEvtUnregister, %function
 106              	chEvtUnregister:
 107              	.LFB242:
 108              		.loc 1 133 0
 109              		.cfi_startproc
 110              		@ args = 0, pretend = 0, frame = 0
 111              		@ frame_needed = 0, uses_anonymous_args = 0
 112              		@ link register save eliminated.
 113              	.LVL2:
ARM GAS  /tmp/cchKsdr4.s 			page 3


 114              	.LBB183:
 115              	.LBB184:
 116              	.LBB185:
 117              	.LBB186:
 118              		.loc 2 548 0
 119 0000 2023     		movs	r3, #32
 120              	@ 548 "../ChibiOS/os/ext/CMSIS/include/core_cmFunc.h" 1
 121 0002 83F31188 		MSR basepri, r3
 122              	@ 0 "" 2
 123              		.thumb
 124              	.LBE186:
 125              	.LBE185:
 126              	.LBE184:
 127              	.LBE183:
 128              		.loc 1 139 0
 129 0006 0246     		mov	r2, r0
 130 0008 02E0     		b	.L5
 131              	.LVL3:
 132              	.L8:
 133              		.loc 1 145 0
 134 000a 8B42     		cmp	r3, r1
 135 000c 07D0     		beq	.L10
 136 000e 1A46     		mov	r2, r3
 137              	.LVL4:
 138              	.L5:
 139              		.loc 1 143 0 discriminator 1
 140 0010 1368     		ldr	r3, [r2]
 141 0012 8342     		cmp	r3, r0
 142 0014 F9D1     		bne	.L8
 143              	.LVL5:
 144              	.LBB187:
 145              	.LBB188:
 146              	.LBB189:
 147              	.LBB190:
 148              	.LBB191:
 149              		.loc 2 548 0
 150 0016 0023     		movs	r3, #0
 151              	@ 548 "../ChibiOS/os/ext/CMSIS/include/core_cmFunc.h" 1
 152 0018 83F31188 		MSR basepri, r3
 153              	@ 0 "" 2
 154              		.thumb
 155 001c 7047     		bx	lr
 156              	.LVL6:
 157              	.L10:
 158              	.LBE191:
 159              	.LBE190:
 160              	.LBE189:
 161              	.LBE188:
 162              	.LBE187:
 163              		.loc 1 146 0
 164 001e 0B68     		ldr	r3, [r1]
 165 0020 1360     		str	r3, [r2]
 166              	.LVL7:
 167              	.LBB196:
 168              	.LBB195:
 169              	.LBB194:
 170              	.LBB193:
ARM GAS  /tmp/cchKsdr4.s 			page 4


 171              	.LBB192:
 172              		.loc 2 548 0
 173 0022 0023     		movs	r3, #0
 174              	@ 548 "../ChibiOS/os/ext/CMSIS/include/core_cmFunc.h" 1
 175 0024 83F31188 		MSR basepri, r3
 176              	@ 0 "" 2
 177              		.thumb
 178 0028 7047     		bx	lr
 179              	.LBE192:
 180              	.LBE193:
 181              	.LBE194:
 182              	.LBE195:
 183              	.LBE196:
 184              		.cfi_endproc
 185              	.LFE242:
 186              		.size	chEvtUnregister, .-chEvtUnregister
 187 002a 00BFAFF3 		.section	.text.chEvtGetAndClearEvents,"ax",%progbits
 187      0080
 188              		.align	2
 189              		.p2align 4,,15
 190              		.global	chEvtGetAndClearEvents
 191              		.thumb
 192              		.thumb_func
 193              		.type	chEvtGetAndClearEvents, %function
 194              	chEvtGetAndClearEvents:
 195              	.LFB243:
 196              		.loc 1 162 0
 197              		.cfi_startproc
 198              		@ args = 0, pretend = 0, frame = 0
 199              		@ frame_needed = 0, uses_anonymous_args = 0
 200              		@ link register save eliminated.
 201              	.LVL8:
 202              	.LBB197:
 203              	.LBB198:
 204              	.LBB199:
 205              	.LBB200:
 206              		.loc 2 548 0
 207 0000 2023     		movs	r3, #32
 208              	@ 548 "../ChibiOS/os/ext/CMSIS/include/core_cmFunc.h" 1
 209 0002 83F31188 		MSR basepri, r3
 210              	@ 0 "" 2
 211              		.thumb
 212              	.LBE200:
 213              	.LBE199:
 214              	.LBE198:
 215              	.LBE197:
 216              		.loc 1 166 0
 217 0006 054B     		ldr	r3, .L12
 218 0008 9A69     		ldr	r2, [r3, #24]
 219 000a 136B     		ldr	r3, [r2, #48]
 220              	.LVL9:
 221              		.loc 1 167 0
 222 000c 23EA0001 		bic	r1, r3, r0
 223 0010 1163     		str	r1, [r2, #48]
 224              	.LVL10:
 225              	.LBB201:
 226              	.LBB202:
ARM GAS  /tmp/cchKsdr4.s 			page 5


 227              	.LBB203:
 228              	.LBB204:
 229              	.LBB205:
 230              		.loc 2 548 0
 231 0012 0022     		movs	r2, #0
 232              	@ 548 "../ChibiOS/os/ext/CMSIS/include/core_cmFunc.h" 1
 233 0014 82F31188 		MSR basepri, r2
 234              	@ 0 "" 2
 235              		.thumb
 236              	.LBE205:
 237              	.LBE204:
 238              	.LBE203:
 239              	.LBE202:
 240              	.LBE201:
 241              		.loc 1 171 0
 242 0018 1840     		ands	r0, r0, r3
 243              	.LVL11:
 244 001a 7047     		bx	lr
 245              	.L13:
 246              		.align	2
 247              	.L12:
 248 001c 00000000 		.word	ch
 249              		.cfi_endproc
 250              	.LFE243:
 251              		.size	chEvtGetAndClearEvents, .-chEvtGetAndClearEvents
 252              		.section	.text.chEvtAddEvents,"ax",%progbits
 253              		.align	2
 254              		.p2align 4,,15
 255              		.global	chEvtAddEvents
 256              		.thumb
 257              		.thumb_func
 258              		.type	chEvtAddEvents, %function
 259              	chEvtAddEvents:
 260              	.LFB244:
 261              		.loc 1 182 0
 262              		.cfi_startproc
 263              		@ args = 0, pretend = 0, frame = 0
 264              		@ frame_needed = 0, uses_anonymous_args = 0
 265              		@ link register save eliminated.
 266              	.LVL12:
 267              	.LBB206:
 268              	.LBB207:
 269              	.LBB208:
 270              	.LBB209:
 271              		.loc 2 548 0
 272 0000 2023     		movs	r3, #32
 273              	@ 548 "../ChibiOS/os/ext/CMSIS/include/core_cmFunc.h" 1
 274 0002 83F31188 		MSR basepri, r3
 275              	@ 0 "" 2
 276              		.thumb
 277              	.LBE209:
 278              	.LBE208:
 279              	.LBE207:
 280              	.LBE206:
 281              		.loc 1 185 0
 282 0006 044B     		ldr	r3, .L15
 283 0008 9B69     		ldr	r3, [r3, #24]
ARM GAS  /tmp/cchKsdr4.s 			page 6


 284 000a 1A6B     		ldr	r2, [r3, #48]
 285 000c 1043     		orrs	r0, r0, r2
 286              	.LVL13:
 287 000e 1863     		str	r0, [r3, #48]
 288              	.LVL14:
 289              	.LBB210:
 290              	.LBB211:
 291              	.LBB212:
 292              	.LBB213:
 293              	.LBB214:
 294              		.loc 2 548 0
 295 0010 0023     		movs	r3, #0
 296              	@ 548 "../ChibiOS/os/ext/CMSIS/include/core_cmFunc.h" 1
 297 0012 83F31188 		MSR basepri, r3
 298              	@ 0 "" 2
 299              		.thumb
 300              	.LBE214:
 301              	.LBE213:
 302              	.LBE212:
 303              	.LBE211:
 304              	.LBE210:
 305              		.loc 1 190 0
 306 0016 7047     		bx	lr
 307              	.L16:
 308              		.align	2
 309              	.L15:
 310 0018 00000000 		.word	ch
 311              		.cfi_endproc
 312              	.LFE244:
 313              		.size	chEvtAddEvents, .-chEvtAddEvents
 314 001c AFF30080 		.section	.text.chEvtGetAndClearFlags,"ax",%progbits
 315              		.align	2
 316              		.p2align 4,,15
 317              		.global	chEvtGetAndClearFlags
 318              		.thumb
 319              		.thumb_func
 320              		.type	chEvtGetAndClearFlags, %function
 321              	chEvtGetAndClearFlags:
 322              	.LFB246:
 323              		.loc 1 241 0
 324              		.cfi_startproc
 325              		@ args = 0, pretend = 0, frame = 0
 326              		@ frame_needed = 0, uses_anonymous_args = 0
 327              		@ link register save eliminated.
 328              	.LVL15:
 329              		.loc 1 241 0
 330 0000 0246     		mov	r2, r0
 331              	.LBB215:
 332              	.LBB216:
 333              	.LBB217:
 334              	.LBB218:
 335              		.loc 2 548 0
 336 0002 2023     		movs	r3, #32
 337              	@ 548 "../ChibiOS/os/ext/CMSIS/include/core_cmFunc.h" 1
 338 0004 83F31188 		MSR basepri, r3
 339              	@ 0 "" 2
 340              		.thumb
ARM GAS  /tmp/cchKsdr4.s 			page 7


 341              	.LBE218:
 342              	.LBE217:
 343              	.LBE216:
 344              	.LBE215:
 345              		.loc 1 246 0
 346 0008 0023     		movs	r3, #0
 347              		.loc 1 245 0
 348 000a C068     		ldr	r0, [r0, #12]
 349              	.LVL16:
 350              		.loc 1 246 0
 351 000c D360     		str	r3, [r2, #12]
 352              	.LVL17:
 353              	.LBB219:
 354              	.LBB220:
 355              	.LBB221:
 356              	.LBB222:
 357              	.LBB223:
 358              		.loc 2 548 0
 359              	@ 548 "../ChibiOS/os/ext/CMSIS/include/core_cmFunc.h" 1
 360 000e 83F31188 		MSR basepri, r3
 361              	@ 0 "" 2
 362              		.thumb
 363              	.LBE223:
 364              	.LBE222:
 365              	.LBE221:
 366              	.LBE220:
 367              	.LBE219:
 368              		.loc 1 250 0
 369 0012 7047     		bx	lr
 370              		.cfi_endproc
 371              	.LFE246:
 372              		.size	chEvtGetAndClearFlags, .-chEvtGetAndClearFlags
 373 0014 AFF30080 		.section	.text.chEvtSignalI,"ax",%progbits
 373      AFF30080 
 373      AFF30080 
 374              		.align	2
 375              		.p2align 4,,15
 376              		.global	chEvtSignalI
 377              		.thumb
 378              		.thumb_func
 379              		.type	chEvtSignalI, %function
 380              	chEvtSignalI:
 381              	.LFB248:
 382              		.loc 1 282 0
 383              		.cfi_startproc
 384              		@ args = 0, pretend = 0, frame = 0
 385              		@ frame_needed = 0, uses_anonymous_args = 0
 386              		@ link register save eliminated.
 387              	.LVL18:
 388              		.loc 1 287 0
 389 0000 026B     		ldr	r2, [r0, #48]
 390              		.loc 1 289 0
 391 0002 037F     		ldrb	r3, [r0, #28]	@ zero_extendqisi2
 392              		.loc 1 287 0
 393 0004 1143     		orrs	r1, r1, r2
 394              	.LVL19:
 395              		.loc 1 289 0
ARM GAS  /tmp/cchKsdr4.s 			page 8


 396 0006 0A2B     		cmp	r3, #10
 397              		.loc 1 287 0
 398 0008 0163     		str	r1, [r0, #48]
 399              		.loc 1 289 0
 400 000a 0AD0     		beq	.L22
 401              		.loc 1 290 0
 402 000c 0B2B     		cmp	r3, #11
 403 000e 00D0     		beq	.L23
 404              	.L18:
 405 0010 7047     		bx	lr
 406              	.L23:
 407              		.loc 1 292 0
 408 0012 036A     		ldr	r3, [r0, #32]
 409 0014 1940     		ands	r1, r1, r3
 410              		.loc 1 291 0
 411 0016 8B42     		cmp	r3, r1
 412 0018 FAD1     		bne	.L18
 413              	.L20:
 414              		.loc 1 293 0
 415 001a 0023     		movs	r3, #0
 416 001c 0362     		str	r3, [r0, #32]
 417              		.loc 1 294 0
 418 001e FFF7FEBF 		b	chSchReadyI
 419              	.LVL20:
 420              	.L22:
 421              		.loc 1 290 0 discriminator 1
 422 0022 036A     		ldr	r3, [r0, #32]
 423              		.loc 1 289 0 discriminator 1
 424 0024 1942     		tst	r1, r3
 425 0026 F8D1     		bne	.L20
 426 0028 7047     		bx	lr
 427              		.cfi_endproc
 428              	.LFE248:
 429              		.size	chEvtSignalI, .-chEvtSignalI
 430 002a 00BFAFF3 		.section	.text.chEvtBroadcastFlagsI,"ax",%progbits
 430      0080
 431              		.align	2
 432              		.p2align 4,,15
 433              		.global	chEvtBroadcastFlagsI
 434              		.thumb
 435              		.thumb_func
 436              		.type	chEvtBroadcastFlagsI, %function
 437              	chEvtBroadcastFlagsI:
 438              	.LFB245:
 439              		.loc 1 209 0
 440              		.cfi_startproc
 441              		@ args = 0, pretend = 0, frame = 0
 442              		@ frame_needed = 0, uses_anonymous_args = 0
 443              	.LVL21:
 444 0000 70B5     		push	{r4, r5, r6, lr}
 445              		.cfi_def_cfa_offset 16
 446              		.cfi_offset 4, -16
 447              		.cfi_offset 5, -12
 448              		.cfi_offset 6, -8
 449              		.cfi_offset 14, -4
 450              		.loc 1 215 0
 451 0002 0468     		ldr	r4, [r0]
ARM GAS  /tmp/cchKsdr4.s 			page 9


 452              	.LVL22:
 453              		.loc 1 217 0
 454 0004 A042     		cmp	r0, r4
 455              		.loc 1 209 0
 456 0006 0646     		mov	r6, r0
 457 0008 0D46     		mov	r5, r1
 458              		.loc 1 217 0
 459 000a 0DD0     		beq	.L24
 460              	.LVL23:
 461              	.L29:
 462              		.loc 1 219 0
 463 000c E368     		ldr	r3, [r4, #12]
 464 000e 2B43     		orrs	r3, r3, r5
 465 0010 E360     		str	r3, [r4, #12]
 466              		.loc 1 222 0
 467 0012 15B1     		cbz	r5, .L26
 468              		.loc 1 223 0 discriminator 1
 469 0014 2269     		ldr	r2, [r4, #16]
 470              		.loc 1 222 0 discriminator 1
 471 0016 1342     		tst	r3, r2
 472 0018 03D0     		beq	.L27
 473              	.L26:
 474              		.loc 1 224 0
 475 001a 6068     		ldr	r0, [r4, #4]
 476 001c A168     		ldr	r1, [r4, #8]
 477 001e FFF7FEFF 		bl	chEvtSignalI
 478              	.LVL24:
 479              	.L27:
 480              		.loc 1 226 0
 481 0022 2468     		ldr	r4, [r4]
 482              	.LVL25:
 483              		.loc 1 217 0
 484 0024 A642     		cmp	r6, r4
 485 0026 F1D1     		bne	.L29
 486              	.L24:
 487 0028 70BD     		pop	{r4, r5, r6, pc}
 488              		.cfi_endproc
 489              	.LFE245:
 490              		.size	chEvtBroadcastFlagsI, .-chEvtBroadcastFlagsI
 491 002a 00BFAFF3 		.section	.text.chEvtSignal,"ax",%progbits
 491      0080
 492              		.align	2
 493              		.p2align 4,,15
 494              		.global	chEvtSignal
 495              		.thumb
 496              		.thumb_func
 497              		.type	chEvtSignal, %function
 498              	chEvtSignal:
 499              	.LFB247:
 500              		.loc 1 260 0
 501              		.cfi_startproc
 502              		@ args = 0, pretend = 0, frame = 0
 503              		@ frame_needed = 0, uses_anonymous_args = 0
 504              	.LVL26:
 505 0000 08B5     		push	{r3, lr}
 506              		.cfi_def_cfa_offset 8
 507              		.cfi_offset 3, -8
ARM GAS  /tmp/cchKsdr4.s 			page 10


 508              		.cfi_offset 14, -4
 509              	.LBB224:
 510              	.LBB225:
 511              	.LBB226:
 512              	.LBB227:
 513              		.loc 2 548 0
 514 0002 2023     		movs	r3, #32
 515              	@ 548 "../ChibiOS/os/ext/CMSIS/include/core_cmFunc.h" 1
 516 0004 83F31188 		MSR basepri, r3
 517              	@ 0 "" 2
 518              		.thumb
 519              	.LBE227:
 520              	.LBE226:
 521              	.LBE225:
 522              	.LBE224:
 523              		.loc 1 265 0
 524 0008 FFF7FEFF 		bl	chEvtSignalI
 525              	.LVL27:
 526              		.loc 1 266 0
 527 000c FFF7FEFF 		bl	chSchRescheduleS
 528              	.LVL28:
 529              	.LBB228:
 530              	.LBB229:
 531              	.LBB230:
 532              	.LBB231:
 533              	.LBB232:
 534              		.loc 2 548 0
 535 0010 0023     		movs	r3, #0
 536              	@ 548 "../ChibiOS/os/ext/CMSIS/include/core_cmFunc.h" 1
 537 0012 83F31188 		MSR basepri, r3
 538              	@ 0 "" 2
 539              		.thumb
 540 0016 08BD     		pop	{r3, pc}
 541              	.LBE232:
 542              	.LBE231:
 543              	.LBE230:
 544              	.LBE229:
 545              	.LBE228:
 546              		.cfi_endproc
 547              	.LFE247:
 548              		.size	chEvtSignal, .-chEvtSignal
 549 0018 AFF30080 		.section	.text.chEvtBroadcastFlags,"ax",%progbits
 549      AFF30080 
 550              		.align	2
 551              		.p2align 4,,15
 552              		.global	chEvtBroadcastFlags
 553              		.thumb
 554              		.thumb_func
 555              		.type	chEvtBroadcastFlags, %function
 556              	chEvtBroadcastFlags:
 557              	.LFB249:
 558              		.loc 1 311 0
 559              		.cfi_startproc
 560              		@ args = 0, pretend = 0, frame = 0
 561              		@ frame_needed = 0, uses_anonymous_args = 0
 562              	.LVL29:
 563 0000 08B5     		push	{r3, lr}
ARM GAS  /tmp/cchKsdr4.s 			page 11


 564              		.cfi_def_cfa_offset 8
 565              		.cfi_offset 3, -8
 566              		.cfi_offset 14, -4
 567              	.LBB233:
 568              	.LBB234:
 569              	.LBB235:
 570              	.LBB236:
 571              		.loc 2 548 0
 572 0002 2023     		movs	r3, #32
 573              	@ 548 "../ChibiOS/os/ext/CMSIS/include/core_cmFunc.h" 1
 574 0004 83F31188 		MSR basepri, r3
 575              	@ 0 "" 2
 576              		.thumb
 577              	.LBE236:
 578              	.LBE235:
 579              	.LBE234:
 580              	.LBE233:
 581              		.loc 1 314 0
 582 0008 FFF7FEFF 		bl	chEvtBroadcastFlagsI
 583              	.LVL30:
 584              		.loc 1 315 0
 585 000c FFF7FEFF 		bl	chSchRescheduleS
 586              	.LVL31:
 587              	.LBB237:
 588              	.LBB238:
 589              	.LBB239:
 590              	.LBB240:
 591              	.LBB241:
 592              		.loc 2 548 0
 593 0010 0023     		movs	r3, #0
 594              	@ 548 "../ChibiOS/os/ext/CMSIS/include/core_cmFunc.h" 1
 595 0012 83F31188 		MSR basepri, r3
 596              	@ 0 "" 2
 597              		.thumb
 598 0016 08BD     		pop	{r3, pc}
 599              	.LBE241:
 600              	.LBE240:
 601              	.LBE239:
 602              	.LBE238:
 603              	.LBE237:
 604              		.cfi_endproc
 605              	.LFE249:
 606              		.size	chEvtBroadcastFlags, .-chEvtBroadcastFlags
 607 0018 AFF30080 		.section	.text.chEvtGetAndClearFlagsI,"ax",%progbits
 607      AFF30080 
 608              		.align	2
 609              		.p2align 4,,15
 610              		.global	chEvtGetAndClearFlagsI
 611              		.thumb
 612              		.thumb_func
 613              		.type	chEvtGetAndClearFlagsI, %function
 614              	chEvtGetAndClearFlagsI:
 615              	.LFB250:
 616              		.loc 1 330 0
 617              		.cfi_startproc
 618              		@ args = 0, pretend = 0, frame = 0
 619              		@ frame_needed = 0, uses_anonymous_args = 0
ARM GAS  /tmp/cchKsdr4.s 			page 12


 620              		@ link register save eliminated.
 621              	.LVL32:
 622              		.loc 1 330 0
 623 0000 0346     		mov	r3, r0
 624              		.loc 1 334 0
 625 0002 0022     		movs	r2, #0
 626              		.loc 1 333 0
 627 0004 C068     		ldr	r0, [r0, #12]
 628              	.LVL33:
 629              		.loc 1 334 0
 630 0006 DA60     		str	r2, [r3, #12]
 631              		.loc 1 337 0
 632 0008 7047     		bx	lr
 633              		.cfi_endproc
 634              	.LFE250:
 635              		.size	chEvtGetAndClearFlagsI, .-chEvtGetAndClearFlagsI
 636 000a 00BFAFF3 		.section	.text.chEvtDispatch,"ax",%progbits
 636      0080
 637              		.align	2
 638              		.p2align 4,,15
 639              		.global	chEvtDispatch
 640              		.thumb
 641              		.thumb_func
 642              		.type	chEvtDispatch, %function
 643              	chEvtDispatch:
 644              	.LFB251:
 645              		.loc 1 348 0
 646              		.cfi_startproc
 647              		@ args = 0, pretend = 0, frame = 0
 648              		@ frame_needed = 0, uses_anonymous_args = 0
 649              	.LVL34:
 650 0000 F8B5     		push	{r3, r4, r5, r6, r7, lr}
 651              		.cfi_def_cfa_offset 24
 652              		.cfi_offset 3, -24
 653              		.cfi_offset 4, -20
 654              		.cfi_offset 5, -16
 655              		.cfi_offset 6, -12
 656              		.cfi_offset 7, -8
 657              		.cfi_offset 14, -4
 658              		.loc 1 354 0
 659 0002 0D46     		mov	r5, r1
 660              		.loc 1 348 0
 661 0004 0646     		mov	r6, r0
 662              		.loc 1 354 0
 663 0006 99B1     		cbz	r1, .L39
 664              		.loc 1 353 0
 665 0008 0024     		movs	r4, #0
 666              		.loc 1 357 0
 667 000a 0127     		movs	r7, #1
 668 000c 01E0     		b	.L43
 669              	.LVL35:
 670              	.L41:
 671              		.loc 1 360 0
 672 000e 0134     		adds	r4, r4, #1
 673              	.LVL36:
 674              		.loc 1 354 0
 675 0010 75B1     		cbz	r5, .L39
ARM GAS  /tmp/cchKsdr4.s 			page 13


 676              	.LVL37:
 677              	.L43:
 678              		.loc 1 355 0
 679 0012 25FA04F3 		lsr	r3, r5, r4
 680 0016 DB07     		lsls	r3, r3, #31
 681 0018 F9D5     		bpl	.L41
 682              		.loc 1 357 0
 683 001a 07FA04F2 		lsl	r2, r7, r4
 684              		.loc 1 358 0
 685 001e 56F82430 		ldr	r3, [r6, r4, lsl #2]
 686 0022 2046     		mov	r0, r4
 687              		.loc 1 357 0
 688 0024 25EA0205 		bic	r5, r5, r2
 689              	.LVL38:
 690              		.loc 1 360 0
 691 0028 0134     		adds	r4, r4, #1
 692              	.LVL39:
 693              		.loc 1 358 0
 694 002a 9847     		blx	r3
 695              	.LVL40:
 696              		.loc 1 354 0
 697 002c 002D     		cmp	r5, #0
 698 002e F0D1     		bne	.L43
 699              	.LVL41:
 700              	.L39:
 701 0030 F8BD     		pop	{r3, r4, r5, r6, r7, pc}
 702              		.cfi_endproc
 703              	.LFE251:
 704              		.size	chEvtDispatch, .-chEvtDispatch
 705 0032 00BFAFF3 		.section	.text.chEvtWaitOne,"ax",%progbits
 705      0080AFF3 
 705      0080AFF3 
 705      0080
 706              		.align	2
 707              		.p2align 4,,15
 708              		.global	chEvtWaitOne
 709              		.thumb
 710              		.thumb_func
 711              		.type	chEvtWaitOne, %function
 712              	chEvtWaitOne:
 713              	.LFB252:
 714              		.loc 1 383 0
 715              		.cfi_startproc
 716              		@ args = 0, pretend = 0, frame = 0
 717              		@ frame_needed = 0, uses_anonymous_args = 0
 718              	.LVL42:
 719 0000 38B5     		push	{r3, r4, r5, lr}
 720              		.cfi_def_cfa_offset 16
 721              		.cfi_offset 3, -16
 722              		.cfi_offset 4, -12
 723              		.cfi_offset 5, -8
 724              		.cfi_offset 14, -4
 725              		.loc 1 384 0
 726 0002 0D4B     		ldr	r3, .L52
 727              		.loc 1 383 0
 728 0004 0546     		mov	r5, r0
 729              		.loc 1 384 0
ARM GAS  /tmp/cchKsdr4.s 			page 14


 730 0006 9C69     		ldr	r4, [r3, #24]
 731              	.LVL43:
 732              	.LBB242:
 733              	.LBB243:
 734              	.LBB244:
 735              	.LBB245:
 736              		.loc 2 548 0
 737 0008 2023     		movs	r3, #32
 738              	@ 548 "../ChibiOS/os/ext/CMSIS/include/core_cmFunc.h" 1
 739 000a 83F31188 		MSR basepri, r3
 740              	@ 0 "" 2
 741              		.thumb
 742              	.LBE245:
 743              	.LBE244:
 744              	.LBE243:
 745              	.LBE242:
 746              		.loc 1 388 0
 747 000e 236B     		ldr	r3, [r4, #48]
 748              	.LVL44:
 749              		.loc 1 389 0
 750 0010 10EA0302 		ands	r2, r0, r3
 751              	.LVL45:
 752 0014 06D1     		bne	.L51
 753              		.loc 1 390 0
 754 0016 2062     		str	r0, [r4, #32]
 755              		.loc 1 391 0
 756 0018 0A20     		movs	r0, #10
 757              	.LVL46:
 758 001a FFF7FEFF 		bl	chSchGoSleepS
 759              	.LVL47:
 760              		.loc 1 392 0
 761 001e 236B     		ldr	r3, [r4, #48]
 762 0020 05EA0302 		and	r2, r5, r3
 763              	.LVL48:
 764              	.L51:
 765              		.loc 1 394 0
 766 0024 5042     		negs	r0, r2
 767 0026 1040     		ands	r0, r0, r2
 768              	.LVL49:
 769              		.loc 1 395 0
 770 0028 23EA0003 		bic	r3, r3, r0
 771 002c 2363     		str	r3, [r4, #48]
 772              	.LVL50:
 773              	.LBB246:
 774              	.LBB247:
 775              	.LBB248:
 776              	.LBB249:
 777              	.LBB250:
 778              		.loc 2 548 0
 779 002e 0023     		movs	r3, #0
 780              	@ 548 "../ChibiOS/os/ext/CMSIS/include/core_cmFunc.h" 1
 781 0030 83F31188 		MSR basepri, r3
 782              	@ 0 "" 2
 783              		.thumb
 784              	.LBE250:
 785              	.LBE249:
 786              	.LBE248:
ARM GAS  /tmp/cchKsdr4.s 			page 15


 787              	.LBE247:
 788              	.LBE246:
 789              		.loc 1 399 0
 790 0034 38BD     		pop	{r3, r4, r5, pc}
 791              	.LVL51:
 792              	.L53:
 793 0036 00BF     		.align	2
 794              	.L52:
 795 0038 00000000 		.word	ch
 796              		.cfi_endproc
 797              	.LFE252:
 798              		.size	chEvtWaitOne, .-chEvtWaitOne
 799 003c AFF30080 		.section	.text.chEvtWaitAny,"ax",%progbits
 800              		.align	2
 801              		.p2align 4,,15
 802              		.global	chEvtWaitAny
 803              		.thumb
 804              		.thumb_func
 805              		.type	chEvtWaitAny, %function
 806              	chEvtWaitAny:
 807              	.LFB253:
 808              		.loc 1 413 0
 809              		.cfi_startproc
 810              		@ args = 0, pretend = 0, frame = 0
 811              		@ frame_needed = 0, uses_anonymous_args = 0
 812              	.LVL52:
 813 0000 38B5     		push	{r3, r4, r5, lr}
 814              		.cfi_def_cfa_offset 16
 815              		.cfi_offset 3, -16
 816              		.cfi_offset 4, -12
 817              		.cfi_offset 5, -8
 818              		.cfi_offset 14, -4
 819              		.loc 1 414 0
 820 0002 0B4B     		ldr	r3, .L56
 821              		.loc 1 413 0
 822 0004 0546     		mov	r5, r0
 823              		.loc 1 414 0
 824 0006 9C69     		ldr	r4, [r3, #24]
 825              	.LVL53:
 826              	.LBB251:
 827              	.LBB252:
 828              	.LBB253:
 829              	.LBB254:
 830              		.loc 2 548 0
 831 0008 2023     		movs	r3, #32
 832              	@ 548 "../ChibiOS/os/ext/CMSIS/include/core_cmFunc.h" 1
 833 000a 83F31188 		MSR basepri, r3
 834              	@ 0 "" 2
 835              		.thumb
 836              	.LBE254:
 837              	.LBE253:
 838              	.LBE252:
 839              	.LBE251:
 840              		.loc 1 418 0
 841 000e 236B     		ldr	r3, [r4, #48]
 842              	.LVL54:
 843              		.loc 1 419 0
ARM GAS  /tmp/cchKsdr4.s 			page 16


 844 0010 1840     		ands	r0, r0, r3
 845              	.LVL55:
 846 0012 06D1     		bne	.L55
 847              		.loc 1 421 0
 848 0014 0A20     		movs	r0, #10
 849              	.LVL56:
 850              		.loc 1 420 0
 851 0016 2562     		str	r5, [r4, #32]
 852              		.loc 1 421 0
 853 0018 FFF7FEFF 		bl	chSchGoSleepS
 854              	.LVL57:
 855              		.loc 1 422 0
 856 001c 236B     		ldr	r3, [r4, #48]
 857 001e 05EA0300 		and	r0, r5, r3
 858              	.LVL58:
 859              	.L55:
 860              		.loc 1 424 0
 861 0022 23EA0003 		bic	r3, r3, r0
 862 0026 2363     		str	r3, [r4, #48]
 863              	.LVL59:
 864              	.LBB255:
 865              	.LBB256:
 866              	.LBB257:
 867              	.LBB258:
 868              	.LBB259:
 869              		.loc 2 548 0
 870 0028 0023     		movs	r3, #0
 871              	@ 548 "../ChibiOS/os/ext/CMSIS/include/core_cmFunc.h" 1
 872 002a 83F31188 		MSR basepri, r3
 873              	@ 0 "" 2
 874              		.thumb
 875              	.LBE259:
 876              	.LBE258:
 877              	.LBE257:
 878              	.LBE256:
 879              	.LBE255:
 880              		.loc 1 428 0
 881 002e 38BD     		pop	{r3, r4, r5, pc}
 882              	.LVL60:
 883              	.L57:
 884              		.align	2
 885              	.L56:
 886 0030 00000000 		.word	ch
 887              		.cfi_endproc
 888              	.LFE253:
 889              		.size	chEvtWaitAny, .-chEvtWaitAny
 890 0034 AFF30080 		.section	.text.chEvtWaitAll,"ax",%progbits
 890      AFF30080 
 890      AFF30080 
 891              		.align	2
 892              		.p2align 4,,15
 893              		.global	chEvtWaitAll
 894              		.thumb
 895              		.thumb_func
 896              		.type	chEvtWaitAll, %function
 897              	chEvtWaitAll:
 898              	.LFB254:
ARM GAS  /tmp/cchKsdr4.s 			page 17


 899              		.loc 1 441 0
 900              		.cfi_startproc
 901              		@ args = 0, pretend = 0, frame = 0
 902              		@ frame_needed = 0, uses_anonymous_args = 0
 903              	.LVL61:
 904 0000 38B5     		push	{r3, r4, r5, lr}
 905              		.cfi_def_cfa_offset 16
 906              		.cfi_offset 3, -16
 907              		.cfi_offset 4, -12
 908              		.cfi_offset 5, -8
 909              		.cfi_offset 14, -4
 910              		.loc 1 442 0
 911 0002 0C4B     		ldr	r3, .L60
 912              		.loc 1 441 0
 913 0004 0446     		mov	r4, r0
 914              		.loc 1 442 0
 915 0006 9D69     		ldr	r5, [r3, #24]
 916              	.LVL62:
 917              	.LBB260:
 918              	.LBB261:
 919              	.LBB262:
 920              	.LBB263:
 921              		.loc 2 548 0
 922 0008 2023     		movs	r3, #32
 923              	@ 548 "../ChibiOS/os/ext/CMSIS/include/core_cmFunc.h" 1
 924 000a 83F31188 		MSR basepri, r3
 925              	@ 0 "" 2
 926              		.thumb
 927              	.LBE263:
 928              	.LBE262:
 929              	.LBE261:
 930              	.LBE260:
 931              		.loc 1 445 0
 932 000e 2B6B     		ldr	r3, [r5, #48]
 933 0010 00EA0302 		and	r2, r0, r3
 934 0014 8242     		cmp	r2, r0
 935 0016 04D0     		beq	.L59
 936              		.loc 1 446 0
 937 0018 2862     		str	r0, [r5, #32]
 938              		.loc 1 447 0
 939 001a 0B20     		movs	r0, #11
 940              	.LVL63:
 941 001c FFF7FEFF 		bl	chSchGoSleepS
 942              	.LVL64:
 943 0020 2B6B     		ldr	r3, [r5, #48]
 944              	.L59:
 945              		.loc 1 449 0
 946 0022 23EA0403 		bic	r3, r3, r4
 947 0026 2B63     		str	r3, [r5, #48]
 948              	.LVL65:
 949              	.LBB264:
 950              	.LBB265:
 951              	.LBB266:
 952              	.LBB267:
 953              	.LBB268:
 954              		.loc 2 548 0
 955 0028 0023     		movs	r3, #0
ARM GAS  /tmp/cchKsdr4.s 			page 18


 956              	@ 548 "../ChibiOS/os/ext/CMSIS/include/core_cmFunc.h" 1
 957 002a 83F31188 		MSR basepri, r3
 958              	@ 0 "" 2
 959              		.thumb
 960              	.LBE268:
 961              	.LBE267:
 962              	.LBE266:
 963              	.LBE265:
 964              	.LBE264:
 965              		.loc 1 453 0
 966 002e 2046     		mov	r0, r4
 967 0030 38BD     		pop	{r3, r4, r5, pc}
 968              	.LVL66:
 969              	.L61:
 970 0032 00BF     		.align	2
 971              	.L60:
 972 0034 00000000 		.word	ch
 973              		.cfi_endproc
 974              	.LFE254:
 975              		.size	chEvtWaitAll, .-chEvtWaitAll
 976 0038 AFF30080 		.section	.text.chEvtWaitOneTimeout,"ax",%progbits
 976      AFF30080 
 977              		.align	2
 978              		.p2align 4,,15
 979              		.global	chEvtWaitOneTimeout
 980              		.thumb
 981              		.thumb_func
 982              		.type	chEvtWaitOneTimeout, %function
 983              	chEvtWaitOneTimeout:
 984              	.LFB255:
 985              		.loc 1 479 0
 986              		.cfi_startproc
 987              		@ args = 0, pretend = 0, frame = 0
 988              		@ frame_needed = 0, uses_anonymous_args = 0
 989              	.LVL67:
 990              		.loc 1 480 0
 991 0000 124B     		ldr	r3, .L68
 992              		.loc 1 479 0
 993 0002 70B5     		push	{r4, r5, r6, lr}
 994              		.cfi_def_cfa_offset 16
 995              		.cfi_offset 4, -16
 996              		.cfi_offset 5, -12
 997              		.cfi_offset 6, -8
 998              		.cfi_offset 14, -4
 999              		.loc 1 479 0
 1000 0004 0446     		mov	r4, r0
 1001              		.loc 1 480 0
 1002 0006 9D69     		ldr	r5, [r3, #24]
 1003              	.LVL68:
 1004              		.loc 1 479 0
 1005 0008 0846     		mov	r0, r1
 1006              	.LVL69:
 1007              	.LBB269:
 1008              	.LBB270:
 1009              	.LBB271:
 1010              	.LBB272:
 1011              		.loc 2 548 0
ARM GAS  /tmp/cchKsdr4.s 			page 19


 1012 000a 2023     		movs	r3, #32
 1013              	@ 548 "../ChibiOS/os/ext/CMSIS/include/core_cmFunc.h" 1
 1014 000c 83F31188 		MSR basepri, r3
 1015              	@ 0 "" 2
 1016              		.thumb
 1017              	.LBE272:
 1018              	.LBE271:
 1019              	.LBE270:
 1020              	.LBE269:
 1021              		.loc 1 484 0
 1022 0010 2B6B     		ldr	r3, [r5, #48]
 1023              	.LVL70:
 1024              		.loc 1 485 0
 1025 0012 14EA0306 		ands	r6, r4, r3
 1026              	.LVL71:
 1027 0016 0CD1     		bne	.L63
 1028              		.loc 1 486 0
 1029 0018 11B9     		cbnz	r1, .L64
 1030              	.LVL72:
 1031              	.LBB273:
 1032              	.LBB274:
 1033              	.LBB275:
 1034              	.LBB276:
 1035              	.LBB277:
 1036              		.loc 2 548 0
 1037              	@ 548 "../ChibiOS/os/ext/CMSIS/include/core_cmFunc.h" 1
 1038 001a 81F31188 		MSR basepri, r1
 1039              	@ 0 "" 2
 1040              		.thumb
 1041              	.LBE277:
 1042              	.LBE276:
 1043              	.LBE275:
 1044              	.LBE274:
 1045              	.LBE273:
 1046              		.loc 1 488 0
 1047 001e 70BD     		pop	{r4, r5, r6, pc}
 1048              	.LVL73:
 1049              	.L64:
 1050              		.loc 1 490 0
 1051 0020 2C62     		str	r4, [r5, #32]
 1052              		.loc 1 491 0
 1053 0022 0A20     		movs	r0, #10
 1054 0024 FFF7FEFF 		bl	chSchGoSleepTimeoutS
 1055              	.LVL74:
 1056 0028 0028     		cmp	r0, #0
 1057 002a 0BDB     		blt	.L67
 1058              		.loc 1 495 0
 1059 002c 2B6B     		ldr	r3, [r5, #48]
 1060 002e 04EA0306 		and	r6, r4, r3
 1061              	.LVL75:
 1062              	.L63:
 1063              		.loc 1 497 0
 1064 0032 7042     		negs	r0, r6
 1065 0034 3040     		ands	r0, r0, r6
 1066              	.LVL76:
 1067              		.loc 1 498 0
 1068 0036 23EA0003 		bic	r3, r3, r0
ARM GAS  /tmp/cchKsdr4.s 			page 20


 1069 003a 2B63     		str	r3, [r5, #48]
 1070              	.LVL77:
 1071              	.LBB278:
 1072              	.LBB279:
 1073              	.LBB280:
 1074              	.LBB281:
 1075              	.LBB282:
 1076              		.loc 2 548 0
 1077 003c 0023     		movs	r3, #0
 1078              	@ 548 "../ChibiOS/os/ext/CMSIS/include/core_cmFunc.h" 1
 1079 003e 83F31188 		MSR basepri, r3
 1080              	@ 0 "" 2
 1081              		.thumb
 1082              	.LBE282:
 1083              	.LBE281:
 1084              	.LBE280:
 1085              	.LBE279:
 1086              	.LBE278:
 1087              		.loc 1 502 0
 1088 0042 70BD     		pop	{r4, r5, r6, pc}
 1089              	.LVL78:
 1090              	.L67:
 1091              	.LBB283:
 1092              	.LBB284:
 1093              	.LBB285:
 1094              	.LBB286:
 1095              	.LBB287:
 1096              		.loc 2 548 0
 1097              	@ 548 "../ChibiOS/os/ext/CMSIS/include/core_cmFunc.h" 1
 1098 0044 86F31188 		MSR basepri, r6
 1099              	@ 0 "" 2
 1100              		.thumb
 1101              	.LBE287:
 1102              	.LBE286:
 1103              	.LBE285:
 1104              	.LBE284:
 1105              	.LBE283:
 1106              		.loc 1 493 0
 1107 0048 3046     		mov	r0, r6
 1108 004a 70BD     		pop	{r4, r5, r6, pc}
 1109              	.LVL79:
 1110              	.L69:
 1111              		.align	2
 1112              	.L68:
 1113 004c 00000000 		.word	ch
 1114              		.cfi_endproc
 1115              	.LFE255:
 1116              		.size	chEvtWaitOneTimeout, .-chEvtWaitOneTimeout
 1117              		.section	.text.chEvtWaitAnyTimeout,"ax",%progbits
 1118              		.align	2
 1119              		.p2align 4,,15
 1120              		.global	chEvtWaitAnyTimeout
 1121              		.thumb
 1122              		.thumb_func
 1123              		.type	chEvtWaitAnyTimeout, %function
 1124              	chEvtWaitAnyTimeout:
 1125              	.LFB256:
ARM GAS  /tmp/cchKsdr4.s 			page 21


 1126              		.loc 1 522 0
 1127              		.cfi_startproc
 1128              		@ args = 0, pretend = 0, frame = 0
 1129              		@ frame_needed = 0, uses_anonymous_args = 0
 1130              	.LVL80:
 1131              		.loc 1 523 0
 1132 0000 124B     		ldr	r3, .L76
 1133              		.loc 1 522 0
 1134 0002 70B5     		push	{r4, r5, r6, lr}
 1135              		.cfi_def_cfa_offset 16
 1136              		.cfi_offset 4, -16
 1137              		.cfi_offset 5, -12
 1138              		.cfi_offset 6, -8
 1139              		.cfi_offset 14, -4
 1140              		.loc 1 522 0
 1141 0004 0446     		mov	r4, r0
 1142              		.loc 1 523 0
 1143 0006 9D69     		ldr	r5, [r3, #24]
 1144              	.LVL81:
 1145              		.loc 1 522 0
 1146 0008 0846     		mov	r0, r1
 1147              	.LVL82:
 1148              	.LBB288:
 1149              	.LBB289:
 1150              	.LBB290:
 1151              	.LBB291:
 1152              		.loc 2 548 0
 1153 000a 2023     		movs	r3, #32
 1154              	@ 548 "../ChibiOS/os/ext/CMSIS/include/core_cmFunc.h" 1
 1155 000c 83F31188 		MSR basepri, r3
 1156              	@ 0 "" 2
 1157              		.thumb
 1158              	.LBE291:
 1159              	.LBE290:
 1160              	.LBE289:
 1161              	.LBE288:
 1162              		.loc 1 527 0
 1163 0010 2B6B     		ldr	r3, [r5, #48]
 1164              	.LVL83:
 1165              		.loc 1 528 0
 1166 0012 14EA0306 		ands	r6, r4, r3
 1167              	.LVL84:
 1168 0016 0CD1     		bne	.L71
 1169              		.loc 1 529 0
 1170 0018 11B9     		cbnz	r1, .L72
 1171              	.LVL85:
 1172              	.LBB292:
 1173              	.LBB293:
 1174              	.LBB294:
 1175              	.LBB295:
 1176              	.LBB296:
 1177              		.loc 2 548 0
 1178              	@ 548 "../ChibiOS/os/ext/CMSIS/include/core_cmFunc.h" 1
 1179 001a 81F31188 		MSR basepri, r1
 1180              	@ 0 "" 2
 1181              		.thumb
 1182              	.LBE296:
ARM GAS  /tmp/cchKsdr4.s 			page 22


 1183              	.LBE295:
 1184              	.LBE294:
 1185              	.LBE293:
 1186              	.LBE292:
 1187              		.loc 1 531 0
 1188 001e 70BD     		pop	{r4, r5, r6, pc}
 1189              	.LVL86:
 1190              	.L72:
 1191              		.loc 1 533 0
 1192 0020 2C62     		str	r4, [r5, #32]
 1193              		.loc 1 534 0
 1194 0022 0A20     		movs	r0, #10
 1195 0024 FFF7FEFF 		bl	chSchGoSleepTimeoutS
 1196              	.LVL87:
 1197 0028 0028     		cmp	r0, #0
 1198 002a 0ADB     		blt	.L75
 1199              		.loc 1 538 0
 1200 002c 2B6B     		ldr	r3, [r5, #48]
 1201 002e 04EA0306 		and	r6, r4, r3
 1202              	.LVL88:
 1203              	.L71:
 1204              		.loc 1 540 0
 1205 0032 23EA0603 		bic	r3, r3, r6
 1206 0036 2B63     		str	r3, [r5, #48]
 1207              	.LVL89:
 1208              	.LBB297:
 1209              	.LBB298:
 1210              	.LBB299:
 1211              	.LBB300:
 1212              	.LBB301:
 1213              		.loc 2 548 0
 1214 0038 0023     		movs	r3, #0
 1215              	@ 548 "../ChibiOS/os/ext/CMSIS/include/core_cmFunc.h" 1
 1216 003a 83F31188 		MSR basepri, r3
 1217              	@ 0 "" 2
 1218              		.thumb
 1219              	.LBE301:
 1220              	.LBE300:
 1221              	.LBE299:
 1222              	.LBE298:
 1223              	.LBE297:
 1224              		.loc 1 543 0
 1225 003e 3046     		mov	r0, r6
 1226              		.loc 1 544 0
 1227 0040 70BD     		pop	{r4, r5, r6, pc}
 1228              	.LVL90:
 1229              	.L75:
 1230              	.LBB302:
 1231              	.LBB303:
 1232              	.LBB304:
 1233              	.LBB305:
 1234              	.LBB306:
 1235              		.loc 2 548 0
 1236              	@ 548 "../ChibiOS/os/ext/CMSIS/include/core_cmFunc.h" 1
 1237 0042 86F31188 		MSR basepri, r6
 1238              	@ 0 "" 2
 1239              		.thumb
ARM GAS  /tmp/cchKsdr4.s 			page 23


 1240              	.LBE306:
 1241              	.LBE305:
 1242              	.LBE304:
 1243              	.LBE303:
 1244              	.LBE302:
 1245              		.loc 1 536 0
 1246 0046 3046     		mov	r0, r6
 1247 0048 70BD     		pop	{r4, r5, r6, pc}
 1248              	.LVL91:
 1249              	.L77:
 1250 004a 00BF     		.align	2
 1251              	.L76:
 1252 004c 00000000 		.word	ch
 1253              		.cfi_endproc
 1254              	.LFE256:
 1255              		.size	chEvtWaitAnyTimeout, .-chEvtWaitAnyTimeout
 1256              		.section	.text.chEvtWaitAllTimeout,"ax",%progbits
 1257              		.align	2
 1258              		.p2align 4,,15
 1259              		.global	chEvtWaitAllTimeout
 1260              		.thumb
 1261              		.thumb_func
 1262              		.type	chEvtWaitAllTimeout, %function
 1263              	chEvtWaitAllTimeout:
 1264              	.LFB257:
 1265              		.loc 1 563 0
 1266              		.cfi_startproc
 1267              		@ args = 0, pretend = 0, frame = 0
 1268              		@ frame_needed = 0, uses_anonymous_args = 0
 1269              	.LVL92:
 1270 0000 38B5     		push	{r3, r4, r5, lr}
 1271              		.cfi_def_cfa_offset 16
 1272              		.cfi_offset 3, -16
 1273              		.cfi_offset 4, -12
 1274              		.cfi_offset 5, -8
 1275              		.cfi_offset 14, -4
 1276              		.loc 1 564 0
 1277 0002 104B     		ldr	r3, .L84
 1278              		.loc 1 563 0
 1279 0004 0446     		mov	r4, r0
 1280              		.loc 1 564 0
 1281 0006 9D69     		ldr	r5, [r3, #24]
 1282              	.LVL93:
 1283              		.loc 1 563 0
 1284 0008 0846     		mov	r0, r1
 1285              	.LVL94:
 1286              	.LBB307:
 1287              	.LBB308:
 1288              	.LBB309:
 1289              	.LBB310:
 1290              		.loc 2 548 0
 1291 000a 2023     		movs	r3, #32
 1292              	@ 548 "../ChibiOS/os/ext/CMSIS/include/core_cmFunc.h" 1
 1293 000c 83F31188 		MSR basepri, r3
 1294              	@ 0 "" 2
 1295              		.thumb
 1296              	.LBE310:
ARM GAS  /tmp/cchKsdr4.s 			page 24


 1297              	.LBE309:
 1298              	.LBE308:
 1299              	.LBE307:
 1300              		.loc 1 567 0
 1301 0010 2B6B     		ldr	r3, [r5, #48]
 1302 0012 04EA0302 		and	r2, r4, r3
 1303 0016 A242     		cmp	r2, r4
 1304 0018 0AD0     		beq	.L79
 1305              		.loc 1 568 0
 1306 001a 11B9     		cbnz	r1, .L80
 1307              	.LVL95:
 1308              	.L83:
 1309              	.LBB311:
 1310              	.LBB312:
 1311              	.LBB313:
 1312              	.LBB314:
 1313              	.LBB315:
 1314              		.loc 2 548 0
 1315              	@ 548 "../ChibiOS/os/ext/CMSIS/include/core_cmFunc.h" 1
 1316 001c 80F31188 		MSR basepri, r0
 1317              	@ 0 "" 2
 1318              		.thumb
 1319              	.LBE315:
 1320              	.LBE314:
 1321              	.LBE313:
 1322              	.LBE312:
 1323              	.LBE311:
 1324              		.loc 1 575 0
 1325 0020 38BD     		pop	{r3, r4, r5, pc}
 1326              	.LVL96:
 1327              	.L80:
 1328              		.loc 1 572 0
 1329 0022 2C62     		str	r4, [r5, #32]
 1330              		.loc 1 573 0
 1331 0024 0B20     		movs	r0, #11
 1332              	.LVL97:
 1333 0026 FFF7FEFF 		bl	chSchGoSleepTimeoutS
 1334              	.LVL98:
 1335 002a 0028     		cmp	r0, #0
 1336 002c 08DB     		blt	.L82
 1337 002e 2B6B     		ldr	r3, [r5, #48]
 1338              	.L79:
 1339              		.loc 1 578 0
 1340 0030 23EA0403 		bic	r3, r3, r4
 1341 0034 2B63     		str	r3, [r5, #48]
 1342              	.LVL99:
 1343              	.LBB320:
 1344              	.LBB321:
 1345              	.LBB322:
 1346              	.LBB323:
 1347              	.LBB324:
 1348              		.loc 2 548 0
 1349 0036 0023     		movs	r3, #0
 1350              	@ 548 "../ChibiOS/os/ext/CMSIS/include/core_cmFunc.h" 1
 1351 0038 83F31188 		MSR basepri, r3
 1352              	@ 0 "" 2
 1353              		.thumb
ARM GAS  /tmp/cchKsdr4.s 			page 25


 1354              	.LBE324:
 1355              	.LBE323:
 1356              	.LBE322:
 1357              	.LBE321:
 1358              	.LBE320:
 1359              		.loc 1 581 0
 1360 003c 2046     		mov	r0, r4
 1361              		.loc 1 582 0
 1362 003e 38BD     		pop	{r3, r4, r5, pc}
 1363              	.LVL100:
 1364              	.L82:
 1365              	.LBB325:
 1366              	.LBB319:
 1367              	.LBB318:
 1368              	.LBB317:
 1369              	.LBB316:
 1370              		.loc 2 548 0
 1371 0040 0020     		movs	r0, #0
 1372 0042 EBE7     		b	.L83
 1373              	.L85:
 1374              		.align	2
 1375              	.L84:
 1376 0044 00000000 		.word	ch
 1377              	.LBE316:
 1378              	.LBE317:
 1379              	.LBE318:
 1380              	.LBE319:
 1381              	.LBE325:
 1382              		.cfi_endproc
 1383              	.LFE257:
 1384              		.size	chEvtWaitAllTimeout, .-chEvtWaitAllTimeout
 1385 0048 AFF30080 		.text
 1385      AFF30080 
 1386              	.Letext0:
 1387              		.file 3 "/nfs/nfs5/home/research/hardware/arm2/gcc-arm-embedded/gcc-arm-none-eabi-4_8-2014q2/arm-n
 1388              		.file 4 "/nfs/nfs5/home/research/hardware/arm2/gcc-arm-embedded/gcc-arm-none-eabi-4_8-2014q2/arm-n
 1389              		.file 5 "../ChibiOS/os/rt/ports/ARMCMx/compilers/GCC/chtypes.h"
 1390              		.file 6 "../ChibiOS/os/rt/include/chsystypes.h"
 1391              		.file 7 "../ChibiOS/os/rt/include/chschd.h"
 1392              		.file 8 "../ChibiOS/os/rt/ports/ARMCMx/chcore.h"
 1393              		.file 9 "../ChibiOS/os/rt/ports/ARMCMx/chcore_v7m.h"
 1394              		.file 10 "../ChibiOS/os/rt/include/chtm.h"
 1395              		.file 11 "../ChibiOS/os/rt/include/chsem.h"
 1396              		.file 12 "../ChibiOS/os/rt/include/chmtx.h"
 1397              		.file 13 "../ChibiOS/os/rt/include/chevents.h"
 1398              		.file 14 "../ChibiOS/os/rt/include/chsys.h"
 1399              		.file 15 "../ChibiOS/os/ext/CMSIS/include/core_cm4.h"