ARM GAS  /tmp/cc0Zgg1q.s 			page 1


   1              		.syntax unified
   2              		.cpu cortex-m4
   3              		.fpu softvfp
   4              		.eabi_attribute 20, 1
   5              		.eabi_attribute 21, 1
   6              		.eabi_attribute 23, 3
   7              		.eabi_attribute 24, 1
   8              		.eabi_attribute 25, 1
   9              		.eabi_attribute 26, 1
  10              		.eabi_attribute 30, 2
  11              		.eabi_attribute 34, 1
  12              		.eabi_attribute 18, 4
  13              		.thumb
  14              		.file	"chmboxes.c"
  15              		.text
  16              	.Ltext0:
  17              		.cfi_sections	.debug_frame
  18              		.section	.text.chMBObjectInit,"ax",%progbits
  19              		.align	2
  20              		.p2align 4,,15
  21              		.global	chMBObjectInit
  22              		.thumb
  23              		.thumb_func
  24              		.type	chMBObjectInit, %function
  25              	chMBObjectInit:
  26              	.LFB241:
  27              		.file 1 "../ChibiOS/os/rt/src/chmboxes.c"
  28              		.loc 1 86 0
  29              		.cfi_startproc
  30              		@ args = 0, pretend = 0, frame = 0
  31              		@ frame_needed = 0, uses_anonymous_args = 0
  32              	.LVL0:
  33 0000 10B5     		push	{r4, lr}
  34              		.cfi_def_cfa_offset 8
  35              		.cfi_offset 4, -8
  36              		.cfi_offset 14, -4
  37              		.loc 1 86 0
  38 0002 0B46     		mov	r3, r1
  39              		.loc 1 93 0
  40 0004 01EB8201 		add	r1, r1, r2, lsl #2
  41              	.LVL1:
  42 0008 4160     		str	r1, [r0, #4]
  43              		.loc 1 86 0
  44 000a 0446     		mov	r4, r0
  45              		.loc 1 90 0
  46 000c 0360     		str	r3, [r0]
  47              		.loc 1 91 0
  48 000e C360     		str	r3, [r0, #12]
  49              		.loc 1 92 0
  50 0010 8360     		str	r3, [r0, #8]
  51              		.loc 1 94 0
  52 0012 1146     		mov	r1, r2
  53 0014 1C30     		adds	r0, r0, #28
  54              	.LVL2:
  55 0016 FFF7FEFF 		bl	chSemObjectInit
  56              	.LVL3:
  57              		.loc 1 95 0
ARM GAS  /tmp/cc0Zgg1q.s 			page 2


  58 001a 04F11000 		add	r0, r4, #16
  59 001e 0021     		movs	r1, #0
  60              		.loc 1 96 0
  61 0020 BDE81040 		pop	{r4, lr}
  62              	.LVL4:
  63              		.loc 1 95 0
  64 0024 FFF7FEBF 		b	chSemObjectInit
  65              	.LVL5:
  66              		.cfi_endproc
  67              	.LFE241:
  68              		.size	chMBObjectInit, .-chMBObjectInit
  69 0028 AFF30080 		.section	.text.chMBResetI,"ax",%progbits
  69      AFF30080 
  70              		.align	2
  71              		.p2align 4,,15
  72              		.global	chMBResetI
  73              		.thumb
  74              		.thumb_func
  75              		.type	chMBResetI, %function
  76              	chMBResetI:
  77              	.LFB243:
  78              		.loc 1 124 0
  79              		.cfi_startproc
  80              		@ args = 0, pretend = 0, frame = 0
  81              		@ frame_needed = 0, uses_anonymous_args = 0
  82              	.LVL6:
  83 0000 10B5     		push	{r4, lr}
  84              		.cfi_def_cfa_offset 8
  85              		.cfi_offset 4, -8
  86              		.cfi_offset 14, -4
  87              		.loc 1 124 0
  88 0002 0446     		mov	r4, r0
  89              		.loc 1 131 0
  90 0004 1C30     		adds	r0, r0, #28
  91              	.LVL7:
  92              		.loc 1 129 0
  93 0006 2368     		ldr	r3, [r4]
  94              		.loc 1 131 0
  95 0008 6168     		ldr	r1, [r4, #4]
  96              		.loc 1 129 0
  97 000a A360     		str	r3, [r4, #8]
  98              		.loc 1 131 0
  99 000c C91A     		subs	r1, r1, r3
 100              		.loc 1 130 0
 101 000e E360     		str	r3, [r4, #12]
 102              		.loc 1 131 0
 103 0010 8910     		asrs	r1, r1, #2
 104 0012 FFF7FEFF 		bl	chSemResetI
 105              	.LVL8:
 106              		.loc 1 132 0
 107 0016 04F11000 		add	r0, r4, #16
 108 001a 0021     		movs	r1, #0
 109              		.loc 1 133 0
 110 001c BDE81040 		pop	{r4, lr}
 111              	.LVL9:
 112              		.loc 1 132 0
 113 0020 FFF7FEBF 		b	chSemResetI
ARM GAS  /tmp/cc0Zgg1q.s 			page 3


 114              	.LVL10:
 115              		.cfi_endproc
 116              	.LFE243:
 117              		.size	chMBResetI, .-chMBResetI
 118 0024 AFF30080 		.section	.text.chMBReset,"ax",%progbits
 118      AFF30080 
 118      AFF30080 
 119              		.align	2
 120              		.p2align 4,,15
 121              		.global	chMBReset
 122              		.thumb
 123              		.thumb_func
 124              		.type	chMBReset, %function
 125              	chMBReset:
 126              	.LFB242:
 127              		.loc 1 107 0
 128              		.cfi_startproc
 129              		@ args = 0, pretend = 0, frame = 0
 130              		@ frame_needed = 0, uses_anonymous_args = 0
 131              	.LVL11:
 132 0000 08B5     		push	{r3, lr}
 133              		.cfi_def_cfa_offset 8
 134              		.cfi_offset 3, -8
 135              		.cfi_offset 14, -4
 136              	.LBB66:
 137              	.LBB67:
 138              	.LBB68:
 139              	.LBB69:
 140              		.file 2 "../ChibiOS/os/ext/CMSIS/include/core_cmFunc.h"
 141              		.loc 2 548 0
 142 0002 2023     		movs	r3, #32
 143              	@ 548 "../ChibiOS/os/ext/CMSIS/include/core_cmFunc.h" 1
 144 0004 83F31188 		MSR basepri, r3
 145              	@ 0 "" 2
 146              		.thumb
 147              	.LBE69:
 148              	.LBE68:
 149              	.LBE67:
 150              	.LBE66:
 151              		.loc 1 110 0
 152 0008 FFF7FEFF 		bl	chMBResetI
 153              	.LVL12:
 154              		.loc 1 111 0
 155 000c FFF7FEFF 		bl	chSchRescheduleS
 156              	.LVL13:
 157              	.LBB70:
 158              	.LBB71:
 159              	.LBB72:
 160              	.LBB73:
 161              	.LBB74:
 162              		.loc 2 548 0
 163 0010 0023     		movs	r3, #0
 164              	@ 548 "../ChibiOS/os/ext/CMSIS/include/core_cmFunc.h" 1
 165 0012 83F31188 		MSR basepri, r3
 166              	@ 0 "" 2
 167              		.thumb
 168 0016 08BD     		pop	{r3, pc}
ARM GAS  /tmp/cc0Zgg1q.s 			page 4


 169              	.LBE74:
 170              	.LBE73:
 171              	.LBE72:
 172              	.LBE71:
 173              	.LBE70:
 174              		.cfi_endproc
 175              	.LFE242:
 176              		.size	chMBReset, .-chMBReset
 177 0018 AFF30080 		.section	.text.chMBPostS,"ax",%progbits
 177      AFF30080 
 178              		.align	2
 179              		.p2align 4,,15
 180              		.global	chMBPostS
 181              		.thumb
 182              		.thumb_func
 183              		.type	chMBPostS, %function
 184              	chMBPostS:
 185              	.LFB245:
 186              		.loc 1 183 0
 187              		.cfi_startproc
 188              		@ args = 0, pretend = 0, frame = 0
 189              		@ frame_needed = 0, uses_anonymous_args = 0
 190              	.LVL14:
 191 0000 70B5     		push	{r4, r5, r6, lr}
 192              		.cfi_def_cfa_offset 16
 193              		.cfi_offset 4, -16
 194              		.cfi_offset 5, -12
 195              		.cfi_offset 6, -8
 196              		.cfi_offset 14, -4
 197              		.loc 1 183 0
 198 0002 0446     		mov	r4, r0
 199 0004 0E46     		mov	r6, r1
 200              		.loc 1 189 0
 201 0006 1C30     		adds	r0, r0, #28
 202              	.LVL15:
 203 0008 1146     		mov	r1, r2
 204              	.LVL16:
 205 000a FFF7FEFF 		bl	chSemWaitTimeoutS
 206              	.LVL17:
 207              		.loc 1 190 0
 208 000e 0546     		mov	r5, r0
 209 0010 78B9     		cbnz	r0, .L5
 210              		.loc 1 191 0
 211 0012 A268     		ldr	r2, [r4, #8]
 212              		.loc 1 192 0
 213 0014 6168     		ldr	r1, [r4, #4]
 214              		.loc 1 191 0
 215 0016 131D     		adds	r3, r2, #4
 216              		.loc 1 192 0
 217 0018 8B42     		cmp	r3, r1
 218              		.loc 1 191 0
 219 001a A360     		str	r3, [r4, #8]
 220              		.loc 1 193 0
 221 001c 28BF     		it	cs
 222 001e 2368     		ldrcs	r3, [r4]
 223              		.loc 1 191 0
 224 0020 1660     		str	r6, [r2]
ARM GAS  /tmp/cc0Zgg1q.s 			page 5


 225              		.loc 1 195 0
 226 0022 04F11000 		add	r0, r4, #16
 227              	.LVL18:
 228              		.loc 1 193 0
 229 0026 28BF     		it	cs
 230 0028 A360     		strcs	r3, [r4, #8]
 231              		.loc 1 195 0
 232 002a FFF7FEFF 		bl	chSemSignalI
 233              	.LVL19:
 234              		.loc 1 196 0
 235 002e FFF7FEFF 		bl	chSchRescheduleS
 236              	.LVL20:
 237              	.L5:
 238              		.loc 1 200 0
 239 0032 2846     		mov	r0, r5
 240 0034 70BD     		pop	{r4, r5, r6, pc}
 241              		.cfi_endproc
 242              	.LFE245:
 243              		.size	chMBPostS, .-chMBPostS
 244 0036 00BFAFF3 		.section	.text.chMBPost,"ax",%progbits
 244      0080AFF3 
 244      0080
 245              		.align	2
 246              		.p2align 4,,15
 247              		.global	chMBPost
 248              		.thumb
 249              		.thumb_func
 250              		.type	chMBPost, %function
 251              	chMBPost:
 252              	.LFB244:
 253              		.loc 1 154 0
 254              		.cfi_startproc
 255              		@ args = 0, pretend = 0, frame = 0
 256              		@ frame_needed = 0, uses_anonymous_args = 0
 257              	.LVL21:
 258 0000 08B5     		push	{r3, lr}
 259              		.cfi_def_cfa_offset 8
 260              		.cfi_offset 3, -8
 261              		.cfi_offset 14, -4
 262              	.LBB75:
 263              	.LBB76:
 264              	.LBB77:
 265              	.LBB78:
 266              		.loc 2 548 0
 267 0002 2023     		movs	r3, #32
 268              	@ 548 "../ChibiOS/os/ext/CMSIS/include/core_cmFunc.h" 1
 269 0004 83F31188 		MSR basepri, r3
 270              	@ 0 "" 2
 271              		.thumb
 272              	.LBE78:
 273              	.LBE77:
 274              	.LBE76:
 275              	.LBE75:
 276              		.loc 1 158 0
 277 0008 FFF7FEFF 		bl	chMBPostS
 278              	.LVL22:
 279              	.LBB79:
ARM GAS  /tmp/cc0Zgg1q.s 			page 6


 280              	.LBB80:
 281              	.LBB81:
 282              	.LBB82:
 283              	.LBB83:
 284              		.loc 2 548 0
 285 000c 0023     		movs	r3, #0
 286              	@ 548 "../ChibiOS/os/ext/CMSIS/include/core_cmFunc.h" 1
 287 000e 83F31188 		MSR basepri, r3
 288              	@ 0 "" 2
 289              		.thumb
 290              	.LBE83:
 291              	.LBE82:
 292              	.LBE81:
 293              	.LBE80:
 294              	.LBE79:
 295              		.loc 1 162 0
 296 0012 08BD     		pop	{r3, pc}
 297              		.cfi_endproc
 298              	.LFE244:
 299              		.size	chMBPost, .-chMBPost
 300 0014 AFF30080 		.section	.text.chMBPostI,"ax",%progbits
 300      AFF30080 
 300      AFF30080 
 301              		.align	2
 302              		.p2align 4,,15
 303              		.global	chMBPostI
 304              		.thumb
 305              		.thumb_func
 306              		.type	chMBPostI, %function
 307              	chMBPostI:
 308              	.LFB246:
 309              		.loc 1 216 0
 310              		.cfi_startproc
 311              		@ args = 0, pretend = 0, frame = 0
 312              		@ frame_needed = 0, uses_anonymous_args = 0
 313              	.LVL23:
 314 0000 38B5     		push	{r3, r4, r5, lr}
 315              		.cfi_def_cfa_offset 16
 316              		.cfi_offset 3, -16
 317              		.cfi_offset 4, -12
 318              		.cfi_offset 5, -8
 319              		.cfi_offset 14, -4
 320              		.loc 1 221 0
 321 0002 436A     		ldr	r3, [r0, #36]
 322              	.LVL24:
 323 0004 002B     		cmp	r3, #0
 324 0006 12DD     		ble	.L12
 325              	.LVL25:
 326              		.loc 1 226 0
 327 0008 8468     		ldr	r4, [r0, #8]
 328              		.loc 1 227 0
 329 000a 4568     		ldr	r5, [r0, #4]
 330              		.loc 1 226 0
 331 000c 221D     		adds	r2, r4, #4
 332              	.LBB84:
 333              	.LBB85:
 334              		.file 3 "../ChibiOS/os/rt/include/chsem.h"
ARM GAS  /tmp/cc0Zgg1q.s 			page 7


 335              		.loc 3 122 0
 336 000e 013B     		subs	r3, r3, #1
 337              	.LBE85:
 338              	.LBE84:
 339              		.loc 1 227 0
 340 0010 AA42     		cmp	r2, r5
 341              	.LBB87:
 342              	.LBB86:
 343              		.loc 3 122 0
 344 0012 4362     		str	r3, [r0, #36]
 345              	.LBE86:
 346              	.LBE87:
 347              		.loc 1 228 0
 348 0014 28BF     		it	cs
 349 0016 0368     		ldrcs	r3, [r0]
 350              		.loc 1 226 0
 351 0018 8260     		str	r2, [r0, #8]
 352 001a 2160     		str	r1, [r4]
 353              		.loc 1 230 0
 354 001c 00F11000 		add	r0, r0, #16
 355              	.LVL26:
 356              		.loc 1 228 0
 357 0020 28BF     		it	cs
 358 0022 40F8083C 		strcs	r3, [r0, #-8]
 359              		.loc 1 230 0
 360 0026 FFF7FEFF 		bl	chSemSignalI
 361              	.LVL27:
 362              		.loc 1 232 0
 363 002a 0020     		movs	r0, #0
 364 002c 38BD     		pop	{r3, r4, r5, pc}
 365              	.LVL28:
 366              	.L12:
 367              		.loc 1 222 0
 368 002e 4FF0FF30 		mov	r0, #-1
 369              	.LVL29:
 370              		.loc 1 233 0
 371 0032 38BD     		pop	{r3, r4, r5, pc}
 372              		.cfi_endproc
 373              	.LFE246:
 374              		.size	chMBPostI, .-chMBPostI
 375 0034 AFF30080 		.section	.text.chMBPostAheadS,"ax",%progbits
 375      AFF30080 
 375      AFF30080 
 376              		.align	2
 377              		.p2align 4,,15
 378              		.global	chMBPostAheadS
 379              		.thumb
 380              		.thumb_func
 381              		.type	chMBPostAheadS, %function
 382              	chMBPostAheadS:
 383              	.LFB248:
 384              		.loc 1 283 0
 385              		.cfi_startproc
 386              		@ args = 0, pretend = 0, frame = 0
 387              		@ frame_needed = 0, uses_anonymous_args = 0
 388              	.LVL30:
 389 0000 70B5     		push	{r4, r5, r6, lr}
ARM GAS  /tmp/cc0Zgg1q.s 			page 8


 390              		.cfi_def_cfa_offset 16
 391              		.cfi_offset 4, -16
 392              		.cfi_offset 5, -12
 393              		.cfi_offset 6, -8
 394              		.cfi_offset 14, -4
 395              		.loc 1 283 0
 396 0002 0446     		mov	r4, r0
 397 0004 0E46     		mov	r6, r1
 398              		.loc 1 289 0
 399 0006 1C30     		adds	r0, r0, #28
 400              	.LVL31:
 401 0008 1146     		mov	r1, r2
 402              	.LVL32:
 403 000a FFF7FEFF 		bl	chSemWaitTimeoutS
 404              	.LVL33:
 405              		.loc 1 290 0
 406 000e 0546     		mov	r5, r0
 407 0010 60B9     		cbnz	r0, .L14
 408              		.loc 1 291 0
 409 0012 E368     		ldr	r3, [r4, #12]
 410 0014 2268     		ldr	r2, [r4]
 411 0016 043B     		subs	r3, r3, #4
 412 0018 9342     		cmp	r3, r2
 413 001a E360     		str	r3, [r4, #12]
 414 001c 08D3     		bcc	.L16
 415              	.L15:
 416              		.loc 1 294 0
 417 001e 1E60     		str	r6, [r3]
 418              		.loc 1 295 0
 419 0020 04F11000 		add	r0, r4, #16
 420              	.LVL34:
 421 0024 FFF7FEFF 		bl	chSemSignalI
 422              	.LVL35:
 423              		.loc 1 296 0
 424 0028 FFF7FEFF 		bl	chSchRescheduleS
 425              	.LVL36:
 426              	.L14:
 427              		.loc 1 300 0
 428 002c 2846     		mov	r0, r5
 429 002e 70BD     		pop	{r4, r5, r6, pc}
 430              	.LVL37:
 431              	.L16:
 432              		.loc 1 292 0
 433 0030 6368     		ldr	r3, [r4, #4]
 434 0032 043B     		subs	r3, r3, #4
 435 0034 E360     		str	r3, [r4, #12]
 436 0036 F2E7     		b	.L15
 437              		.cfi_endproc
 438              	.LFE248:
 439              		.size	chMBPostAheadS, .-chMBPostAheadS
 440 0038 AFF30080 		.section	.text.chMBPostAhead,"ax",%progbits
 440      AFF30080 
 441              		.align	2
 442              		.p2align 4,,15
 443              		.global	chMBPostAhead
 444              		.thumb
 445              		.thumb_func
ARM GAS  /tmp/cc0Zgg1q.s 			page 9


 446              		.type	chMBPostAhead, %function
 447              	chMBPostAhead:
 448              	.LFB247:
 449              		.loc 1 254 0
 450              		.cfi_startproc
 451              		@ args = 0, pretend = 0, frame = 0
 452              		@ frame_needed = 0, uses_anonymous_args = 0
 453              	.LVL38:
 454 0000 08B5     		push	{r3, lr}
 455              		.cfi_def_cfa_offset 8
 456              		.cfi_offset 3, -8
 457              		.cfi_offset 14, -4
 458              	.LBB88:
 459              	.LBB89:
 460              	.LBB90:
 461              	.LBB91:
 462              		.loc 2 548 0
 463 0002 2023     		movs	r3, #32
 464              	@ 548 "../ChibiOS/os/ext/CMSIS/include/core_cmFunc.h" 1
 465 0004 83F31188 		MSR basepri, r3
 466              	@ 0 "" 2
 467              		.thumb
 468              	.LBE91:
 469              	.LBE90:
 470              	.LBE89:
 471              	.LBE88:
 472              		.loc 1 258 0
 473 0008 FFF7FEFF 		bl	chMBPostAheadS
 474              	.LVL39:
 475              	.LBB92:
 476              	.LBB93:
 477              	.LBB94:
 478              	.LBB95:
 479              	.LBB96:
 480              		.loc 2 548 0
 481 000c 0023     		movs	r3, #0
 482              	@ 548 "../ChibiOS/os/ext/CMSIS/include/core_cmFunc.h" 1
 483 000e 83F31188 		MSR basepri, r3
 484              	@ 0 "" 2
 485              		.thumb
 486              	.LBE96:
 487              	.LBE95:
 488              	.LBE94:
 489              	.LBE93:
 490              	.LBE92:
 491              		.loc 1 262 0
 492 0012 08BD     		pop	{r3, pc}
 493              		.cfi_endproc
 494              	.LFE247:
 495              		.size	chMBPostAhead, .-chMBPostAhead
 496 0014 AFF30080 		.section	.text.chMBPostAheadI,"ax",%progbits
 496      AFF30080 
 496      AFF30080 
 497              		.align	2
 498              		.p2align 4,,15
 499              		.global	chMBPostAheadI
 500              		.thumb
ARM GAS  /tmp/cc0Zgg1q.s 			page 10


 501              		.thumb_func
 502              		.type	chMBPostAheadI, %function
 503              	chMBPostAheadI:
 504              	.LFB249:
 505              		.loc 1 316 0
 506              		.cfi_startproc
 507              		@ args = 0, pretend = 0, frame = 0
 508              		@ frame_needed = 0, uses_anonymous_args = 0
 509              	.LVL40:
 510              		.loc 1 321 0
 511 0000 426A     		ldr	r2, [r0, #36]
 512              	.LVL41:
 513 0002 002A     		cmp	r2, #0
 514              		.loc 1 316 0
 515 0004 10B5     		push	{r4, lr}
 516              		.cfi_def_cfa_offset 8
 517              		.cfi_offset 4, -8
 518              		.cfi_offset 14, -4
 519              		.loc 1 321 0
 520 0006 10DD     		ble	.L21
 521              	.LVL42:
 522              		.loc 1 325 0
 523 0008 C368     		ldr	r3, [r0, #12]
 524 000a 0468     		ldr	r4, [r0]
 525 000c 043B     		subs	r3, r3, #4
 526              	.LBB97:
 527              	.LBB98:
 528              		.loc 3 122 0
 529 000e 013A     		subs	r2, r2, #1
 530              	.LBE98:
 531              	.LBE97:
 532              		.loc 1 325 0
 533 0010 A342     		cmp	r3, r4
 534              	.LBB100:
 535              	.LBB99:
 536              		.loc 3 122 0
 537 0012 4262     		str	r2, [r0, #36]
 538              	.LBE99:
 539              	.LBE100:
 540              		.loc 1 325 0
 541 0014 C360     		str	r3, [r0, #12]
 542 0016 02D2     		bcs	.L20
 543              		.loc 1 326 0
 544 0018 4368     		ldr	r3, [r0, #4]
 545 001a 043B     		subs	r3, r3, #4
 546 001c C360     		str	r3, [r0, #12]
 547              	.L20:
 548              		.loc 1 328 0
 549 001e 1960     		str	r1, [r3]
 550              		.loc 1 329 0
 551 0020 1030     		adds	r0, r0, #16
 552              	.LVL43:
 553 0022 FFF7FEFF 		bl	chSemSignalI
 554              	.LVL44:
 555              		.loc 1 331 0
 556 0026 0020     		movs	r0, #0
 557 0028 10BD     		pop	{r4, pc}
ARM GAS  /tmp/cc0Zgg1q.s 			page 11


 558              	.LVL45:
 559              	.L21:
 560              		.loc 1 322 0
 561 002a 4FF0FF30 		mov	r0, #-1
 562              	.LVL46:
 563              		.loc 1 332 0
 564 002e 10BD     		pop	{r4, pc}
 565              		.cfi_endproc
 566              	.LFE249:
 567              		.size	chMBPostAheadI, .-chMBPostAheadI
 568              		.section	.text.chMBFetchS,"ax",%progbits
 569              		.align	2
 570              		.p2align 4,,15
 571              		.global	chMBFetchS
 572              		.thumb
 573              		.thumb_func
 574              		.type	chMBFetchS, %function
 575              	chMBFetchS:
 576              	.LFB251:
 577              		.loc 1 382 0
 578              		.cfi_startproc
 579              		@ args = 0, pretend = 0, frame = 0
 580              		@ frame_needed = 0, uses_anonymous_args = 0
 581              	.LVL47:
 582 0000 70B5     		push	{r4, r5, r6, lr}
 583              		.cfi_def_cfa_offset 16
 584              		.cfi_offset 4, -16
 585              		.cfi_offset 5, -12
 586              		.cfi_offset 6, -8
 587              		.cfi_offset 14, -4
 588              		.loc 1 382 0
 589 0002 0446     		mov	r4, r0
 590 0004 0E46     		mov	r6, r1
 591              		.loc 1 388 0
 592 0006 1030     		adds	r0, r0, #16
 593              	.LVL48:
 594 0008 1146     		mov	r1, r2
 595              	.LVL49:
 596 000a FFF7FEFF 		bl	chSemWaitTimeoutS
 597              	.LVL50:
 598              		.loc 1 389 0
 599 000e 0546     		mov	r5, r0
 600 0010 80B9     		cbnz	r0, .L23
 601              		.loc 1 390 0
 602 0012 E368     		ldr	r3, [r4, #12]
 603              		.loc 1 391 0
 604 0014 6268     		ldr	r2, [r4, #4]
 605              		.loc 1 390 0
 606 0016 1968     		ldr	r1, [r3]
 607 0018 0433     		adds	r3, r3, #4
 608              		.loc 1 391 0
 609 001a 9342     		cmp	r3, r2
 610              		.loc 1 390 0
 611 001c E360     		str	r3, [r4, #12]
 612              		.loc 1 392 0
 613 001e 28BF     		it	cs
 614 0020 2368     		ldrcs	r3, [r4]
ARM GAS  /tmp/cc0Zgg1q.s 			page 12


 615              		.loc 1 390 0
 616 0022 3160     		str	r1, [r6]
 617              		.loc 1 394 0
 618 0024 04F11C00 		add	r0, r4, #28
 619              	.LVL51:
 620              		.loc 1 392 0
 621 0028 28BF     		it	cs
 622 002a E360     		strcs	r3, [r4, #12]
 623              		.loc 1 394 0
 624 002c FFF7FEFF 		bl	chSemSignalI
 625              	.LVL52:
 626              		.loc 1 395 0
 627 0030 FFF7FEFF 		bl	chSchRescheduleS
 628              	.LVL53:
 629              	.L23:
 630              		.loc 1 399 0
 631 0034 2846     		mov	r0, r5
 632 0036 70BD     		pop	{r4, r5, r6, pc}
 633              		.cfi_endproc
 634              	.LFE251:
 635              		.size	chMBFetchS, .-chMBFetchS
 636 0038 AFF30080 		.section	.text.chMBFetch,"ax",%progbits
 636      AFF30080 
 637              		.align	2
 638              		.p2align 4,,15
 639              		.global	chMBFetch
 640              		.thumb
 641              		.thumb_func
 642              		.type	chMBFetch, %function
 643              	chMBFetch:
 644              	.LFB250:
 645              		.loc 1 353 0
 646              		.cfi_startproc
 647              		@ args = 0, pretend = 0, frame = 0
 648              		@ frame_needed = 0, uses_anonymous_args = 0
 649              	.LVL54:
 650 0000 08B5     		push	{r3, lr}
 651              		.cfi_def_cfa_offset 8
 652              		.cfi_offset 3, -8
 653              		.cfi_offset 14, -4
 654              	.LBB101:
 655              	.LBB102:
 656              	.LBB103:
 657              	.LBB104:
 658              		.loc 2 548 0
 659 0002 2023     		movs	r3, #32
 660              	@ 548 "../ChibiOS/os/ext/CMSIS/include/core_cmFunc.h" 1
 661 0004 83F31188 		MSR basepri, r3
 662              	@ 0 "" 2
 663              		.thumb
 664              	.LBE104:
 665              	.LBE103:
 666              	.LBE102:
 667              	.LBE101:
 668              		.loc 1 357 0
 669 0008 FFF7FEFF 		bl	chMBFetchS
 670              	.LVL55:
ARM GAS  /tmp/cc0Zgg1q.s 			page 13


 671              	.LBB105:
 672              	.LBB106:
 673              	.LBB107:
 674              	.LBB108:
 675              	.LBB109:
 676              		.loc 2 548 0
 677 000c 0023     		movs	r3, #0
 678              	@ 548 "../ChibiOS/os/ext/CMSIS/include/core_cmFunc.h" 1
 679 000e 83F31188 		MSR basepri, r3
 680              	@ 0 "" 2
 681              		.thumb
 682              	.LBE109:
 683              	.LBE108:
 684              	.LBE107:
 685              	.LBE106:
 686              	.LBE105:
 687              		.loc 1 361 0
 688 0012 08BD     		pop	{r3, pc}
 689              		.cfi_endproc
 690              	.LFE250:
 691              		.size	chMBFetch, .-chMBFetch
 692 0014 AFF30080 		.section	.text.chMBFetchI,"ax",%progbits
 692      AFF30080 
 692      AFF30080 
 693              		.align	2
 694              		.p2align 4,,15
 695              		.global	chMBFetchI
 696              		.thumb
 697              		.thumb_func
 698              		.type	chMBFetchI, %function
 699              	chMBFetchI:
 700              	.LFB252:
 701              		.loc 1 415 0
 702              		.cfi_startproc
 703              		@ args = 0, pretend = 0, frame = 0
 704              		@ frame_needed = 0, uses_anonymous_args = 0
 705              	.LVL56:
 706              		.loc 1 420 0
 707 0000 8369     		ldr	r3, [r0, #24]
 708              	.LVL57:
 709 0002 002B     		cmp	r3, #0
 710              		.loc 1 415 0
 711 0004 10B5     		push	{r4, lr}
 712              		.cfi_def_cfa_offset 8
 713              		.cfi_offset 4, -8
 714              		.cfi_offset 14, -4
 715              		.loc 1 420 0
 716 0006 13DD     		ble	.L29
 717              	.LVL58:
 718              	.LBB110:
 719              	.LBB111:
 720              		.loc 3 122 0
 721 0008 5A1E     		subs	r2, r3, #1
 722              	.LBE111:
 723              	.LBE110:
 724              		.loc 1 424 0
 725 000a C368     		ldr	r3, [r0, #12]
ARM GAS  /tmp/cc0Zgg1q.s 			page 14


 726              	.LBB113:
 727              	.LBB112:
 728              		.loc 3 122 0
 729 000c 8261     		str	r2, [r0, #24]
 730              	.LBE112:
 731              	.LBE113:
 732              		.loc 1 425 0
 733 000e 4268     		ldr	r2, [r0, #4]
 734              		.loc 1 424 0
 735 0010 1C68     		ldr	r4, [r3]
 736 0012 0433     		adds	r3, r3, #4
 737              		.loc 1 425 0
 738 0014 9342     		cmp	r3, r2
 739              		.loc 1 424 0
 740 0016 C360     		str	r3, [r0, #12]
 741              		.loc 1 426 0
 742 0018 28BF     		it	cs
 743 001a 0368     		ldrcs	r3, [r0]
 744              		.loc 1 424 0
 745 001c 0C60     		str	r4, [r1]
 746              		.loc 1 428 0
 747 001e 00F11C00 		add	r0, r0, #28
 748              	.LVL59:
 749              		.loc 1 426 0
 750 0022 28BF     		it	cs
 751 0024 40F8103C 		strcs	r3, [r0, #-16]
 752              		.loc 1 428 0
 753 0028 FFF7FEFF 		bl	chSemSignalI
 754              	.LVL60:
 755              		.loc 1 430 0
 756 002c 0020     		movs	r0, #0
 757 002e 10BD     		pop	{r4, pc}
 758              	.LVL61:
 759              	.L29:
 760              		.loc 1 421 0
 761 0030 4FF0FF30 		mov	r0, #-1
 762              	.LVL62:
 763              		.loc 1 431 0
 764 0034 10BD     		pop	{r4, pc}
 765              		.cfi_endproc
 766              	.LFE252:
 767              		.size	chMBFetchI, .-chMBFetchI
 768 0036 00BFAFF3 		.text
 768      0080AFF3 
 768      0080
 769              	.Letext0:
 770              		.file 4 "/nfs/nfs5/home/research/hardware/arm2/gcc-arm-embedded/gcc-arm-none-eabi-4_8-2014q2/arm-n
 771              		.file 5 "/nfs/nfs5/home/research/hardware/arm2/gcc-arm-embedded/gcc-arm-none-eabi-4_8-2014q2/arm-n
 772              		.file 6 "../ChibiOS/os/rt/ports/ARMCMx/compilers/GCC/chtypes.h"
 773              		.file 7 "../ChibiOS/os/rt/include/chsystypes.h"
 774              		.file 8 "../ChibiOS/os/rt/include/chschd.h"
 775              		.file 9 "../ChibiOS/os/rt/ports/ARMCMx/chcore.h"
 776              		.file 10 "../ChibiOS/os/rt/ports/ARMCMx/chcore_v7m.h"
 777              		.file 11 "../ChibiOS/os/rt/include/chtm.h"
 778              		.file 12 "../ChibiOS/os/rt/include/chmtx.h"
 779              		.file 13 "../ChibiOS/os/rt/include/chmboxes.h"
 780              		.file 14 "../ChibiOS/os/rt/include/chsys.h"
ARM GAS  /tmp/cc0Zgg1q.s 			page 15


 781              		.file 15 "../ChibiOS/os/ext/CMSIS/include/core_cm4.h"