ARM GAS  /tmp/cc0Zgg1q.s 			page 1


   1              		.syntax unified
   2              		.cpu cortex-m4
   3              		.fpu softvfp
   4              		.eabi_attribute 20, 1
   5              		.eabi_attribute 21, 1
   6              		.eabi_attribute 23, 3
   7              		.eabi_attribute 24, 1
   8              		.eabi_attribute 25, 1
   9              		.eabi_attribute 26, 1
  10              		.eabi_attribute 30, 2
  11              		.eabi_attribute 34, 1
  12              		.eabi_attribute 18, 4
  13              		.thumb
  14              		.file	"chmboxes.c"
  15              		.text
  16              	.Ltext0:
  17              		.cfi_sections	.debug_frame
  18              		.section	.text.chMBObjectInit,"ax",%progbits
  19              		.align	2
  20              		.p2align 4,,15
  21              		.global	chMBObjectInit
  22              		.thumb
  23              		.thumb_func
  24              		.type	chMBObjectInit, %function
  25              	chMBObjectInit:
  26              	.LFB241:
  27              		.file 1 "../ChibiOS/os/rt/src/chmboxes.c"
  28              		.loc 1 86 0
  29              		.cfi_startproc
  30              		@ args = 0, pretend = 0, frame = 0
  31              		@ frame_needed = 0, uses_anonymous_args = 0
  32              	.LVL0:
  33 0000 10B5     		push	{r4, lr}
  34              		.cfi_def_cfa_offset 8
  35              		.cfi_offset 4, -8
  36              		.cfi_offset 14, -4
  37              		.loc 1 86 0
  38 0002 0B46     		mov	r3, r1
  39              		.loc 1 93 0
  40 0004 01EB8201 		add	r1, r1, r2, lsl #2
  41              	.LVL1:
  42 0008 4160     		str	r1, [r0, #4]
  43              		.loc 1 86 0
  44 000a 0446     		mov	r4, r0
  45              		.loc 1 90 0
  46 000c 0360     		str	r3, [r0]
  47              		.loc 1 91 0
  48 000e C360     		str	r3, [r0, #12]
  49              		.loc 1 92 0
  50 0010 8360     		str	r3, [r0, #8]
  51              		.loc 1 94 0
  52 0012 1146     		mov	r1, r2
  53 0014 1C30     		adds	r0, r0, #28
  54              	.LVL2:
  55 0016 FFF7FEFF 		bl	chSemObjectInit
  56              	.LVL3:
  57              		.loc 1 95 0
ARM GAS  /tmp/cc0Zgg1q.s 			page 2


  58 001a 04F11000 		add	r0, r4, #16
  59 001e 0021     		movs	r1, #0
  60              		.loc 1 96 0
  61 0020 BDE81040 		pop	{r4, lr}
  62              	.LVL4:
  63              		.loc 1 95 0
  64 0024 FFF7FEBF 		b	chSemObjectInit
  65              	.LVL5:
  66              		.cfi_endproc
  67              	.LFE241:
  68              		.size	chMBObjectInit, .-chMBObjectInit
  69 0028 AFF30080 		.section	.text.chMBResetI,"ax",%progbits
  69      AFF30080 
  70              		.align	2
  71              		.p2align 4,,15
  72              		.global	chMBResetI
  73              		.thumb
  74              		.thumb_func
  75              		.type	chMBResetI, %function
  76              	chMBResetI:
  77              	.LFB243:
  78              		.loc 1 124 0
  79              		.cfi_startproc
  80              		@ args = 0, pretend = 0, frame = 0
  81              		@ frame_needed = 0, uses_anonymous_args = 0
  82              	.LVL6:
  83 0000 10B5     		push	{r4, lr}
  84              		.cfi_def_cfa_offset 8
  85              		.cfi_offset 4, -8
  86              		.cfi_offset 14, -4
  87              		.loc 1 124 0
  88 0002 0446     		mov	r4, r0
  89              		.loc 1 131 0
  90 0004 1C30     		adds	r0, r0, #28
  91              	.LVL7:
  92              		.loc 1 129 0
  93 0006 2368     		ldr	r3, [r4]
  94              		.loc 1 131 0
  95 0008 6168     		ldr	r1, [r4, #4]
  96              		.loc 1 129 0
  97 000a A360     		str	r3, [r4, #8]
  98              		.loc 1 131 0
  99 000c C91A     		subs	r1, r1, r3
 100              		.loc 1 130 0
 101 000e E360     		str	r3, [r4, #12]
 102              		.loc 1 131 0
 103 0010 8910     		asrs	r1, r1, #2
 104 0012 FFF7FEFF 		bl	chSemResetI
 105              	.LVL8:
 106              		.loc 1 132 0
 107 0016 04F11000 		add	r0, r4, #16
 108 001a 0021     		movs	r1, #0
 109              		.loc 1 133 0
 110 001c BDE81040 		pop	{r4, lr}
 111              	.LVL9:
 112              		.loc 1 132 0
 113 0020 FFF7FEBF 		b	chSemResetI
ARM GAS  /tmp/cc0Zgg1q.s 			page 3


 114              	.LVL10:
 115              		.cfi_endproc
 116              	.LFE243:
 117              		.size	chMBResetI, .-chMBResetI
 118 0024 AFF30080 		.section	.text.chMBReset,"ax",%progbits
 118      AFF30080 
 118      AFF30080 
 119              		.align	2
 120              		.p2align 4,,15
 121              		.global	chMBReset
 122              		.thumb
 123              		.thumb_func
 124              		.type	chMBReset, %function
 125              	chMBReset:
 126              	.LFB242:
 127              		.loc 1 107 0
 128              		.cfi_startproc
 129              		@ args = 0, pretend = 0, frame = 0
 130              		@ frame_needed = 0, uses_anonymous_args = 0
 131              	.LVL11:
 132 0000 08B5     		push	{r3, lr}
 133              		.cfi_def_cfa_offset 8
 134              		.cfi_offset 3, -8
 135              		.cfi_offset 14, -4
 136              	.LBB66:
 137              	.LBB67:
 138              	.LBB68:
 139              	.LBB69:
 140              		.file 2 "../ChibiOS/os/ext/CMSIS/include/core_cmFunc.h"
 141              		.loc 2 548 0
 142 0002 2023     		movs	r3, #32
 143              	@ 548 "../ChibiOS/os/ext/CMSIS/include/core_cmFunc.h" 1
 144 0004 83F31188 		MSR basepri, r3
 145              	@ 0 "" 2
 146              		.thumb
 147              	.LBE69:
 148              	.LBE68:
 149              	.LBE67:
 150              	.LBE66:
 151              		.loc 1 110 0
 152 0008 FFF7FEFF 		bl	chMBResetI
 153              	.LVL12:
 154              		.loc 1 111 0
 155 000c FFF7FEFF 		bl	chSchRescheduleS
 156              	.LVL13:
 157              	.LBB70:
 158              	.LBB71:
 159              	.LBB72:
 160              	.LBB73:
 161              	.LBB74:
 162              		.loc 2 548 0
 163 0010 0023     		movs	r3, #0
 164              	@ 548 "../ChibiOS/os/ext/CMSIS/include/core_cmFunc.h" 1
 165 0012 83F31188 		MSR basepri, r3
 166              	@ 0 "" 2
 167              		.thumb
 168 0016 08BD     		pop	{r3, pc}
ARM GAS  /tmp/cc0Zgg1q.s 			page 4


 169              	.LBE74:
 170              	.LBE73:
 171              	.LBE72:
 172              	.LBE71:
 173              	.LBE70:
 174              		.cfi_endproc
 175              	.LFE242:
 176              		.size	chMBReset, .-chMBReset
 177 0018 AFF30080 		.section	.text.chMBPostS,"ax",%progbits
 177      AFF30080 
 178              		.align	2
 179              		.p2align 4,,15
 180              		.global	chMBPostS
 181              		.thumb
 182              		.thumb_func
 183              		.type	chMBPostS, %function
 184              	chMBPostS:
 185              	.LFB245:
 186              		.loc 1 183 0
 187              		.cfi_startproc
 188              		@ args = 0, pretend = 0, frame = 0
 189              		@ frame_needed = 0, uses_anonymous_args = 0
 190              	.LVL14:
 191 0000 70B5     		push	{r4, r5, r6, lr}
 192              		.cfi_def_cfa_offset 16
 193              		.cfi_offset 4, -16
 194              		.cfi_offset 5, -12
 195              		.cfi_offset 6, -8
 196              		.cfi_offset 14, -4
 197              		.loc 1 183 0
 198 0002 0446     		mov	r4, r0
 199 0004 0E46     		mov	r6, r1
 200              		.loc 1 189 0
 201 0006 1C30     		adds	r0, r0, #28
 202              	.LVL15:
 203 0008 1146     		mov	r1, r2
 204              	.LVL16:
 205 000a FFF7FEFF 		bl	chSemWaitTimeoutS
 206              	.LVL17:
 207              		.loc 1 190 0
 208 000e 0546     		mov	r5, r0
 209 0010 78B9     		cbnz	r0, .L5
 210              		.loc 1 191 0
 211 0012 A268     		ldr	r2, [r4, #8]
 212              		.loc 1 192 0
 213 0014 6168     		ldr	r1, [r4, #4]
 214              		.loc 1 191 0
 215 0016 131D     		adds	r3, r2, #4
 216              		.loc 1 192 0
 217 0018 8B42     		cmp	r3, r1
 218              		.loc 1 191 0
 219 001a A360     		str	r3, [r4, #8]
 220              		.loc 1 193 0
 221 001c 28BF     		it	cs
 222 001e 2368     		ldrcs	r3, [r4]
 223              		.loc 1 191 0
 224 0020 1660     		str	r6, [r2]
ARM GAS  /tmp/cc0Zgg1q.s 			page 5


 225              		.loc 1 195 0
 226 0022 04F11000 		add	r0, r4, #16
 227              	.LVL18:
 228              		.loc 1 193 0
 229 0026 28BF     		it	cs
 230 0028 A360     		strcs	r3, [r4, #8]
 231              		.loc 1 195 0
 232 002a FFF7FEFF 		bl	chSemSignalI
 233              	.LVL19:
 234              		.loc 1 196 0
 235 002e FFF7FEFF 		bl	chSchRescheduleS
 236              	.LVL20:
 237              	.L5:
 238              		.loc 1 200 0
 239 0032 2846     		mov	r0, r5
 240 0034 70BD     		pop	{r4, r5, r6, pc}
 241              		.cfi_endproc
 242              	.LFE245:
 243              		.size	chMBPostS, .-chMBPostS
 244 0036 00BFAFF3 		.section	.text.chMBPost,"ax",%progbits
 244      0080AFF3 
 244      0080
 245              		.align	2
 246              		.p2align 4,,15
 247              		.global	chMBPost
 248              		.thumb
 249              		.thumb_func
 250              		.type	chMBPost, %function
 251              	chMBPost:
 252              	.LFB244:
 253              		.loc 1 154 0
 254              		.cfi_startproc
 255              		@ args = 0, pretend = 0, frame = 0
 256              		@ frame_needed = 0, uses_anonymous_args = 0
 257              	.LVL21:
 258 0000 08B5     		push	{r3, lr}
 259              		.cfi_def_cfa_offset 8
 260              		.cfi_offset 3, -8
 261              		.cfi_offset 14, -4
 262              	.LBB75:
 263              	.LBB76:
 264              	.LBB77:
 265              	.LBB78:
 266              		.loc 2 548 0
 267 0002 2023     		movs	r3, #32
 268              	@ 548 "../ChibiOS/os/ext/CMSIS/include/core_cmFunc.h" 1
 269 0004 83F31188 		MSR basepri, r3
 270              	@ 0 "" 2
 271              		.thumb
 272              	.LBE78:
 273              	.LBE77:
 274              	.LBE76:
 275              	.LBE75:
 276              		.loc 1 158 0
 277 0008 FFF7FEFF 		bl	chMBPostS
 278              	.LVL22:
 279              	.LBB79:
ARM GAS  /tmp/cc0Zgg1q.s 			page 6


 280              	.LBB80:
 281              	.LBB81:
 282              	.LBB82:
 283              	.LBB83:
 284              		.loc 2 548 0
 285 000c 0023     		movs	r3, #0
 286              	@ 548 "../ChibiOS/os/ext/CMSIS/include/core_cmFunc.h" 1
 287 000e 83F31188 		MSR basepri, r3
 288              	@ 0 "" 2
 289              		.thumb
 290              	.LBE83:
 291              	.LBE82:
 292              	.LBE81:
 293              	.LBE80:
 294              	.LBE79:
 295              		.loc 1 162 0
 296 0012 08BD     		pop	{r3, pc}
 297              		.cfi_endproc
 298              	.LFE244:
 299              		.size	chMBPost, .-chMBPost
 300 0014 AFF30080 		.section	.text.chMBPostI,"ax",%progbits
 300      AFF30080 
 300      AFF30080 
 301              		.align	2
 302              		.p2align 4,,15
 303              		.global	chMBPostI
 304              		.thumb
 305              		.thumb_func
 306              		.type	chMBPostI, %function
 307              	chMBPostI:
 308              	.LFB246:
 309              		.loc 1 216 0
 310              		.cfi_startproc
 311              		@ args = 0, pretend = 0, frame = 0
 312              		@ frame_needed = 0, uses_anonymous_args = 0
 313              	.LVL23:
 314 0000 38B5     		push	{r3, r4, r5, lr}
 315              		.cfi_def_cfa_offset 16
 316              		.cfi_offset 3, -16
 317              		.cfi_offset 4, -12
 318              		.cfi_offset 5, -8
 319              		.cfi_offset 14, -4
 320              		.loc 1 221 0
 321 0002 436A     		ldr	r3, [r0, #36]
 322              	.LVL24:
 323 0004 002B     		cmp	r3, #0
 324 0006 12DD     		ble	.L12
 325              	.LVL25:
 326              		.loc 1 226 0
 327 0008 8468     		ldr	r4, [r0, #8]
 328              		.loc 1 227 0
 329 000a 4568     		ldr	r5, [r0, #4]
 330              		.loc 1 226 0
 331 000c 221D     		adds	r2, r4, #4
 332              	.LBB84:
 333              	.LBB85:
 334              		.file 3 "../ChibiOS/os/rt/include/chsem.h"
ARM GAS  /tmp/cc0Zgg1q.s 			page 7


 335              		.loc 3 122 0
 336 000e 013B     		subs	r3, r3, #1
 337              	.LBE85:
 338              	.LBE84:
 339              		.loc 1 227 0
 340 0010 AA42     		cmp	r2, r5
 341              	.LBB87:
 342              	.LBB86:
 343              		.loc 3 122 0
 344 0012 4362     		str	r3, [r0, #36]
 345              	.LBE86:
 346              	.LBE87:
 347              		.loc 1 228 0
 348 0014 28BF     		it	cs
 349 0016 0368     		ldrcs	r3, [r0]
 350              		.loc 1 226 0
 351 0018 8260     		str	r2, [r0, #8]
 352 001a 2160     		str	r1, [r4]
 353              		.loc 1 230 0
 354 001c 00F11000 		add	r0, r0, #16
 355              	.LVL26:
 356              		.loc 1 228 0
 357 0020 28BF     		it	cs
 358 0022 40F8083C 		strcs	r3, [r0, #-8]
 359              		.loc 1 230 0
 360 0026 FFF7FEFF 		bl	chSemSignalI
 361              	.LVL27:
 362              		.loc 1 232 0
 363 002a 0020     		movs	r0, #0
 364 002c 38BD     		pop	{r3, r4, r5, pc}
 365              	.LVL28:
 366              	.L12:
 367              		.loc 1 222 0
 368 002e 4FF0FF30 		mov	r0, #-1
 369              	.LVL29:
 370              		.loc 1 233 0
 371 0032 38BD     		pop	{r3, r4, r5, pc}
 372              		.cfi_endproc
 373              	.LFE246:
 374              		.size	chMBPostI, .-chMBPostI
 375 0034 AFF30080 		.section	.text.chMBPostAheadS,"ax",%progbits
 375      AFF30080 
 375      AFF30080 
 376              		.align	2
 377              		.p2align 4,,15
 378              		.global	chMBPostAheadS
 379              		.thumb
 380              		.thumb_func
 381              		.type	chMBPostAheadS, %function
 382              	chMBPostAheadS:
 383              	.LFB248:
 384              		.loc 1 283 0
 385              		.cfi_startproc
 386              		@ args = 0, pretend = 0, frame = 0
 387              		@ frame_needed = 0, uses_anonymous_args = 0
 388              	.LVL30:
 389 0000 70B5     		push	{r4, r5, r6, lr}
ARM GAS  /tmp/cc0Zgg1q.s 			page 8


 390              		.cfi_def_cfa_offset 16
 391              		.cfi_offset 4, -16
 392              		.cfi_offset 5, -12
 393              		.cfi_offset 6, -8
 394              		.cfi_offset 14, -4
 395              		.loc 1 283 0
 396 0002 0446     		mov	r4, r0
 397 0004 0E46     		mov	r6, r1
 398              		.loc 1 289 0
 399 0006 1C30     		adds	r0, r0, #28
 400              	.LVL31:
 401 0008 1146     		mov	r1, r2
 402              	.LVL32:
 403 000a FFF7FEFF 		bl	chSemWaitTimeoutS
 404              	.LVL33:
 405              		.loc 1 290 0
 406 000e 0546     		mov	r5, r0
 407 0010 60B9     		cbnz	r0, .L14
 408              		.loc 1 291 0
 409 0012 E368     		ldr	r3, [r4, #12]
 410 0014 2268     		ldr	r2, [r4]
 411 0016 043B     		subs	r3, r3, #4
 412 0018 9342     		cmp	r3, r2
 413 001a E360     		str	r3, [r4, #12]
 414 001c 08D3     		bcc	.L16
 415              	.L15:
 416              		.loc 1 294 0
 417 001e 1E60     		str	r6, [r3]
 418              		.loc 1 295 0
 419 0020 04F11000 		add	r0, r4, #16
 420              	.LVL34:
 421 0024 FFF7FEFF 		bl	chSemSignalI
 422              	.LVL35:
 423              		.loc 1 296 0
 424 0028 FFF7FEFF 		bl	chSchRescheduleS
 425              	.LVL36:
 426              	.L14:
 427              		.loc 1 300 0
 428 002c 2846     		mov	r0, r5
 429 002e 70BD     		pop	{r4, r5, r6, pc}
 430              	.LVL37:
 431              	.L16:
 432              		.loc 1 292 0
 433 0030 6368     		ldr	r3, [r4, #4]
 434 0032 043B     		subs	r3, r3, #4
 435 0034 E360     		str	r3, [r4, #12]
 436 0036 F2E7     		b	.L15
 437              		.cfi_endproc
 438              	.LFE248:
 439              		.size	chMBPostAheadS, .-chMBPostAheadS
 440 0038 AFF30080 		.section	.text.chMBPostAhead,"ax",%progbits
 440      AFF30080 
 441              		.align	2
 442              		.p2align 4,,15
 443              		.global	chMBPostAhead
 444              		.thumb
 445              		.thumb_func
ARM GAS  /tmp/cc0Zgg1q.s 			page 9


 446              		.type	chMBPostAhead, %function
 447              	chMBPostAhead:
 448              	.LFB247:
 449              		.loc 1 254 0
 450              		.cfi_startproc
 451              		@ args = 0, pretend = 0, frame = 0
 452              		@ frame_needed = 0, uses_anonymous_args = 0
 453              	.LVL38:
 454 0000 08B5     		push	{r3, lr}
 455              		.cfi_def_cfa_offset 8
 456              		.cfi_offset 3, -8
 457              		.cfi_offset 14, -4
 458              	.LBB88:
 459              	.LBB89:
 460              	.LBB90:
 461              	.LBB91:
 462              		.loc 2 548 0
 463 0002 2023     		movs	r3, #32
 464              	@ 548 "../ChibiOS/os/ext/CMSIS/include/core_cmFunc.h" 1
 465 0004 83F31188 		MSR basepri, r3
 466              	@ 0 "" 2
 467              		.thumb
 468              	.LBE91:
 469              	.LBE90:
 470              	.LBE89:
 471              	.LBE88:
 472              		.loc 1 258 0
 473 0008 FFF7FEFF 		bl	chMBPostAheadS
 474              	.LVL39:
 475              	.LBB92:
 476              	.LBB93:
 477              	.LBB94:
 478              	.LBB95:
 479              	.LBB96:
 480              		.loc 2 548 0
 481 000c 0023     		movs	r3, #0
 482              	@ 548 "../ChibiOS/os/ext/CMSIS/include/core_cmFunc.h" 1
 483 000e 83F31188 		MSR basepri, r3
 484              	@ 0 "" 2
 485              		.thumb
 486              	.LBE96:
 487              	.LBE95:
 488              	.LBE94:
 489              	.LBE93:
 490              	.LBE92:
 491              		.loc 1 262 0
 492 0012 08BD     		pop	{r3, pc}
 493              		.cfi_endproc
 494              	.LFE247:
 495              		.size	chMBPostAhead, .-chMBPostAhead
 496 0014 AFF30080 		.section	.text.chMBPostAheadI,"ax",%progbits
 496      AFF30080 
 496      AFF30080 
 497              		.align	2
 498              		.p2align 4,,15
 499              		.global	chMBPostAheadI
 500              		.thumb
ARM GAS  /tmp/cc0Zgg1q.s 			page 10


 501              		.thumb_func
 502              		.type	chMBPostAheadI, %function
 503              	chMBPostAheadI:
 504              	.LFB249:
 505              		.loc 1 316 0
 506              		.cfi_startproc
 507              		@ args = 0, pretend = 0, frame = 0
 508              		@ frame_needed = 0, uses_anonymous_args = 0
 509              	.LVL40:
 510              		.loc 1 321 0
 511 0000 426A     		ldr	r2, [r0, #36]
 512              	.LVL41:
 513 0002 002A     		cmp	r2, #0
 514              		.loc 1 316 0
 515 0004 10B5     		push	{r4, lr}
 516              		.cfi_def_cfa_offset 8
 517              		.cfi_offset 4, -8
 518              		.cfi_offset 14, -4
 519              		.loc 1 321 0
 520 0006 10DD     		ble	.L21
 521              	.LVL42:
 522              		.loc 1 325 0
 523 0008 C368     		ldr	r3, [r0, #12]
 524 000a 0468     		ldr	r4, [r0]
 525 000c 043B     		subs	r3, r3, #4
 526              	.LBB97:
 527              	.LBB98:
 528              		.loc 3 122 0
 529 000e 013A     		subs	r2, r2, #1
 530              	.LBE98:
 531              	.LBE97:
 532              		.loc 1 325 0
 533 0010 A342     		cmp	r3, r4
 534              	.LBB100:
 535              	.LBB99:
 536              		.loc 3 122 0
 537 0012 4262     		str	r2, [r0, #36]
 538              	.LBE99:
 539              	.LBE100:
 540              		.loc 1 325 0
 541 0014 C360     		str	r3, [r0, #12]
 542 0016 02D2     		bcs	.L20
 543              		.loc 1 326 0
 544 0018 4368     		ldr	r3, [r0, #4]
 545 001a 043B     		subs	r3, r3, #4
 546 001c C360     		str	r3, [r0, #12]
 547              	.L20:
 548              		.loc 1 328 0
 549 001e 1960     		str	r1, [r3]
 550              		.loc 1 329 0
 551 0020 1030     		adds	r0, r0, #16
 552              	.LVL43:
 553 0022 FFF7FEFF 		bl	chSemSignalI
 554              	.LVL44:
 555              		.loc 1 331 0
 556 0026 0020     		movs	r0, #0
 557 0028 10BD     		pop	{r4, pc}
ARM GAS  /tmp/cc0Zgg1q.s 			page 11


 558              	.LVL45:
 559              	.L21:
 560              		.loc 1 322 0
 561 002a 4FF0FF30 		mov	r0, #-1
 562              	.LVL46:
 563              		.loc 1 332 0
 564 002e 10BD     		pop	{r4, pc}
 565              		.cfi_endproc
 566              	.LFE249:
 567              		.size	chMBPostAheadI, .-chMBPostAheadI
 568              		.section	.text.chMBFetchS,"ax",%progbits
 569              		.align	2
 570              		.p2align 4,,15
 571              		.global	chMBFetchS
 572              		.thumb
 573              		.thumb_func
 574              		.type	chMBFetchS, %function
 575              	chMBFetchS:
 576              	.LFB251:
 577              		.loc 1 382 0
 578              		.cfi_startproc
 579              		@ args = 0, pretend = 0, frame = 0
 580              		@ frame_needed = 0, uses_anonymous_args = 0
 581              	.LVL47:
 582 0000 70B5     		push	{r4, r5, r6, lr}
 583              		.cfi_def_cfa_offset 16
 584              		.cfi_offset 4, -16
 585              		.cfi_offset 5, -12
 586              		.cfi_offset 6, -8
 587              		.cfi_offset 14, -4
 588              		.loc 1 382 0
 589 0002 0446     		mov	r4, r0
 590 0004 0E46     		mov	r6, r1
 591              		.loc 1 388 0
 592 0006 1030     		adds	r0, r0, #16
 593              	.LVL48:
 594 0008 1146     		mov	r1, r2
 595              	.LVL49:
 596 000a FFF7FEFF 		bl	chSemWaitTimeoutS
 597              	.LVL50:
 598              		.loc 1 389 0
 599 000e 0546     		mov	r5, r0
 600 0010 80B9     		cbnz	r0, .L23
 601              		.loc 1 390 0
 602 0012 E368     		ldr	r3, [r4, #12]
 603              		.loc 1 391 0
 604 0014 6268     		ldr	r2, [r4, #4]
 605              		.loc 1 390 0
 606 0016 1968     		ldr	r1, [r3]
 607 0018 0433     		adds	r3, r3, #4
 608              		.loc 1 391 0
 609 001a 9342     		cmp	r3, r2
 610              		.loc 1 390 0
 611 001c E360     		str	r3, [r4, #12]
 612              		.loc 1 392 0
 613 001e 28BF     		it	cs
 614 0020 2368     		ldrcs	r3, [r4]
ARM GAS  /tmp/cc0Zgg1q.s 			page 12


 615              		.loc 1 390 0
 616 0022 3160     		str	r1, [r6]
 617              		.loc 1 394 0
 618 0024 04F11C00 		add	r0, r4, #28
 619              	.LVL51:
 620              		.loc 1 392 0
 621 0028 28BF     		it	cs
 622 002a E360     		strcs	r3, [r4, #12]
 623              		.loc 1 394 0
 624 002c FFF7FEFF 		bl	chSemSignalI
 625              	.LVL52:
 626              		.loc 1 395 0
 627 0030 FFF7FEFF 		bl	chSchRescheduleS
 628              	.LVL53:
 629              	.L23:
 630              		.loc 1 399 0
 631 0034 2846     		mov	r0, r5
 632 0036 70BD     		pop	{r4, r5, r6, pc}
 633              		.cfi_endproc
 634              	.LFE251:
 635              		.size	chMBFetchS, .-chMBFetchS
 636 0038 AFF30080 		.section	.text.chMBFetch,"ax",%progbits
 636      AFF30080 
 637              		.align	2
 638              		.p2align 4,,15
 639              		.global	chMBFetch
 640              		.thumb
 641              		.thumb_func
 642              		.type	chMBFetch, %function
 643              	chMBFetch:
 644              	.LFB250:
 645              		.loc 1 353 0
 646              		.cfi_startproc
 647              		@ args = 0, pretend = 0, frame = 0
 648              		@ frame_needed = 0, uses_anonymous_args = 0
 649              	.LVL54:
 650 0000 08B5     		push	{r3, lr}
 651              		.cfi_def_cfa_offset 8
 652              		.cfi_offset 3, -8
 653              		.cfi_offset 14, -4
 654              	.LBB101:
 655              	.LBB102:
 656              	.LBB103:
 657              	.LBB104:
 658              		.loc 2 548 0
 659 0002 2023     		movs	r3, #32
 660              	@ 548 "../ChibiOS/os/ext/CMSIS/include/core_cmFunc.h" 1
 661 0004 83F31188 		MSR basepri, r3
 662              	@ 0 "" 2
 663              		.thumb
 664              	.LBE104:
 665              	.LBE103:
 666              	.LBE102:
 667              	.LBE101:
 668              		.loc 1 357 0
 669 0008 FFF7FEFF 		bl	chMBFetchS
 670              	.LVL55:
ARM GAS  /tmp/cc0Zgg1q.s 			page 13


 671              	.LBB105:
 672              	.LBB106:
 673              	.LBB107:
 674              	.LBB108:
 675              	.LBB109:
 676              		.loc 2 548 0
 677 000c 0023     		movs	r3, #0
 678              	@ 548 "../ChibiOS/os/ext/CMSIS/include/core_cmFunc.h" 1
 679 000e 83F31188 		MSR basepri, r3
 680              	@ 0 "" 2
 681              		.thumb
 682              	.LBE109:
 683              	.LBE108:
 684              	.LBE107:
 685              	.LBE106:
 686              	.LBE105:
 687              		.loc 1 361 0
 688 0012 08BD     		pop	{r3, pc}
 689              		.cfi_endproc
 690              	.LFE250:
 691              		.size	chMBFetch, .-chMBFetch
 692 0014 AFF30080 		.section	.text.chMBFetchI,"ax",%progbits
 692      AFF30080 
 692      AFF30080 
 693              		.align	2
 694              		.p2align 4,,15
 695              		.global	chMBFetchI
 696              		.thumb
 697              		.thumb_func
 698              		.type	chMBFetchI, %function
 699              	chMBFetchI:
 700              	.LFB252:
 701              		.loc 1 415 0
 702              		.cfi_startproc
 703              		@ args = 0, pretend = 0, frame = 0
 704              		@ frame_needed = 0, uses_anonymous_args = 0
 705              	.LVL56:
 706              		.loc 1 420 0
 707 0000 8369     		ldr	r3, [r0, #24]
 708              	.LVL57:
 709 0002 002B     		cmp	r3, #0
 710              		.loc 1 415 0
 711 0004 10B5     		push	{r4, lr}
 712              		.cfi_def_cfa_offset 8
 713              		.cfi_offset 4, -8
 714              		.cfi_offset 14, -4
 715              		.loc 1 420 0
 716 0006 13DD     		ble	.L29
 717              	.LVL58:
 718              	.LBB110:
 719              	.LBB111:
 720              		.loc 3 122 0
 721 0008 5A1E     		subs	r2, r3, #1
 722              	.LBE111:
 723              	.LBE110:
 724              		.loc 1 424 0
 725 000a C368     		ldr	r3, [r0, #12]
ARM GAS  /tmp/cc0Zgg1q.s 			page 14


 726              	.LBB113:
 727              	.LBB112:
 728              		.loc 3 122 0
 729 000c 8261     		str	r2, [r0, #24]
 730              	.LBE112:
 731              	.LBE113:
 732              		.loc 1 425 0
 733 000e 4268     		ldr	r2, [r0, #4]
 734              		.loc 1 424 0
 735 0010 1C68     		ldr	r4, [r3]
 736 0012 0433     		adds	r3, r3, #4
 737              		.loc 1 425 0
 738 0014 9342     		cmp	r3, r2
 739              		.loc 1 424 0
 740 0016 C360     		str	r3, [r0, #12]
 741              		.loc 1 426 0
 742 0018 28BF     		it	cs
 743 001a 0368     		ldrcs	r3, [r0]
 744              		.loc 1 424 0
 745 001c 0C60     		str	r4, [r1]
 746              		.loc 1 428 0
 747 001e 00F11C00 		add	r0, r0, #28
 748              	.LVL59:
 749              		.loc 1 426 0
 750 0022 28BF     		it	cs
 751 0024 40F8103C 		strcs	r3, [r0, #-16]
 752              		.loc 1 428 0
 753 0028 FFF7FEFF 		bl	chSemSignalI
 754              	.LVL60:
 755              		.loc 1 430 0
 756 002c 0020     		movs	r0, #0
 757 002e 10BD     		pop	{r4, pc}
 758              	.LVL61:
 759              	.L29:
 760              		.loc 1 421 0
 761 0030 4FF0FF30 		mov	r0, #-1
 762              	.LVL62:
 763              		.loc 1 431 0
 764 0034 10BD     		pop	{r4, pc}
 765              		.cfi_endproc
 766              	.LFE252:
 767              		.size	chMBFetchI, .-chMBFetchI
 768 0036 00BFAFF3 		.text
 768      0080AFF3 
 768      0080
 769              	.Letext0:
 770              		.file 4 "/nfs/nfs5/home/research/hardware/arm2/gcc-arm-embedded/gcc-arm-none-eabi-4_8-2014q2/arm-n
 771              		.file 5 "/nfs/nfs5/home/research/hardware/arm2/gcc-arm-embedded/gcc-arm-none-eabi-4_8-2014q2/arm-n
 772              		.file 6 "../ChibiOS/os/rt/ports/ARMCMx/compilers/GCC/chtypes.h"
 773              		.file 7 "../ChibiOS/os/rt/include/chsystypes.h"
 774              		.file 8 "../ChibiOS/os/rt/include/chschd.h"
 775              		.file 9 "../ChibiOS/os/rt/ports/ARMCMx/chcore.h"
 776              		.file 10 "../ChibiOS/os/rt/ports/ARMCMx/chcore_v7m.h"
 777              		.file 11 "../ChibiOS/os/rt/include/chtm.h"
 778              		.file 12 "../ChibiOS/os/rt/include/chmtx.h"
 779              		.file 13 "../ChibiOS/os/rt/include/chmboxes.h"
 780              		.file 14 "../ChibiOS/os/rt/include/chsys.h"
ARM GAS  /tmp/cc0Zgg1q.s 			page 15


 781              		.file 15 "../ChibiOS/os/ext/CMSIS/include/core_cm4.h"
 782              		.section	.debug_info,"",%progbits
 783              	.Ldebug_info0:
 784 0000 B30F0000 		.4byte	0xfb3
 785 0004 0400     		.2byte	0x4
 786 0006 00000000 		.4byte	.Ldebug_abbrev0
 787 000a 04       		.byte	0x4
 788 000b 01       		.uleb128 0x1
 789 000c D2040000 		.4byte	.LASF134
 790 0010 01       		.byte	0x1
 791 0011 6C060000 		.4byte	.LASF135
 792 0015 FE020000 		.4byte	.LASF136
 793 0019 48000000 		.4byte	.Ldebug_ranges0+0x48
 794 001d 00000000 		.4byte	0
 795 0021 00000000 		.4byte	.Ldebug_line0
 796 0025 02       		.uleb128 0x2
 797 0026 04       		.byte	0x4
 798 0027 05       		.byte	0x5
 799 0028 696E7400 		.ascii	"int\000"
 800 002c 03       		.uleb128 0x3
 801 002d 04       		.byte	0x4
 802 002e 07       		.byte	0x7
 803 002f E0010000 		.4byte	.LASF0
 804 0033 03       		.uleb128 0x3
 805 0034 01       		.byte	0x1
 806 0035 06       		.byte	0x6
 807 0036 25010000 		.4byte	.LASF1
 808 003a 04       		.uleb128 0x4
 809 003b 3F000000 		.4byte	.LASF5
 810 003f 04       		.byte	0x4
 811 0040 1C       		.byte	0x1c
 812 0041 45000000 		.4byte	0x45
 813 0045 03       		.uleb128 0x3
 814 0046 01       		.byte	0x1
 815 0047 08       		.byte	0x8
 816 0048 C3030000 		.4byte	.LASF2
 817 004c 03       		.uleb128 0x3
 818 004d 02       		.byte	0x2
 819 004e 05       		.byte	0x5
 820 004f EF030000 		.4byte	.LASF3
 821 0053 03       		.uleb128 0x3
 822 0054 02       		.byte	0x2
 823 0055 07       		.byte	0x7
 824 0056 04010000 		.4byte	.LASF4
 825 005a 04       		.uleb128 0x4
 826 005b 93020000 		.4byte	.LASF6
 827 005f 04       		.byte	0x4
 828 0060 37       		.byte	0x37
 829 0061 65000000 		.4byte	0x65
 830 0065 03       		.uleb128 0x3
 831 0066 04       		.byte	0x4
 832 0067 05       		.byte	0x5
 833 0068 5E010000 		.4byte	.LASF7
 834 006c 04       		.uleb128 0x4
 835 006d BF010000 		.4byte	.LASF8
 836 0071 04       		.byte	0x4
 837 0072 38       		.byte	0x38
ARM GAS  /tmp/cc0Zgg1q.s 			page 16


 838 0073 77000000 		.4byte	0x77
 839 0077 03       		.uleb128 0x3
 840 0078 04       		.byte	0x4
 841 0079 07       		.byte	0x7
 842 007a A0040000 		.4byte	.LASF9
 843 007e 03       		.uleb128 0x3
 844 007f 08       		.byte	0x8
 845 0080 05       		.byte	0x5
 846 0081 17010000 		.4byte	.LASF10
 847 0085 04       		.uleb128 0x4
 848 0086 79030000 		.4byte	.LASF11
 849 008a 04       		.byte	0x4
 850 008b 4E       		.byte	0x4e
 851 008c 90000000 		.4byte	0x90
 852 0090 03       		.uleb128 0x3
 853 0091 08       		.byte	0x8
 854 0092 07       		.byte	0x7
 855 0093 96000000 		.4byte	.LASF12
 856 0097 04       		.uleb128 0x4
 857 0098 8C060000 		.4byte	.LASF13
 858 009c 05       		.byte	0x5
 859 009d 2A       		.byte	0x2a
 860 009e 3A000000 		.4byte	0x3a
 861 00a2 04       		.uleb128 0x4
 862 00a3 BB030000 		.4byte	.LASF14
 863 00a7 05       		.byte	0x5
 864 00a8 41       		.byte	0x41
 865 00a9 5A000000 		.4byte	0x5a
 866 00ad 04       		.uleb128 0x4
 867 00ae 6F040000 		.4byte	.LASF15
 868 00b2 05       		.byte	0x5
 869 00b3 42       		.byte	0x42
 870 00b4 6C000000 		.4byte	0x6c
 871 00b8 04       		.uleb128 0x4
 872 00b9 36000000 		.4byte	.LASF16
 873 00bd 05       		.byte	0x5
 874 00be 4E       		.byte	0x4e
 875 00bf 85000000 		.4byte	0x85
 876 00c3 04       		.uleb128 0x4
 877 00c4 17060000 		.4byte	.LASF17
 878 00c8 06       		.byte	0x6
 879 00c9 39       		.byte	0x39
 880 00ca AD000000 		.4byte	0xad
 881 00ce 04       		.uleb128 0x4
 882 00cf 71020000 		.4byte	.LASF18
 883 00d3 06       		.byte	0x6
 884 00d4 3C       		.byte	0x3c
 885 00d5 97000000 		.4byte	0x97
 886 00d9 04       		.uleb128 0x4
 887 00da 67010000 		.4byte	.LASF19
 888 00de 06       		.byte	0x6
 889 00df 3D       		.byte	0x3d
 890 00e0 97000000 		.4byte	0x97
 891 00e4 04       		.uleb128 0x4
 892 00e5 84030000 		.4byte	.LASF20
 893 00e9 06       		.byte	0x6
 894 00ea 3E       		.byte	0x3e
ARM GAS  /tmp/cc0Zgg1q.s 			page 17


 895 00eb 97000000 		.4byte	0x97
 896 00ef 04       		.uleb128 0x4
 897 00f0 A3030000 		.4byte	.LASF21
 898 00f4 06       		.byte	0x6
 899 00f5 40       		.byte	0x40
 900 00f6 AD000000 		.4byte	0xad
 901 00fa 04       		.uleb128 0x4
 902 00fb 4C020000 		.4byte	.LASF22
 903 00ff 06       		.byte	0x6
 904 0100 41       		.byte	0x41
 905 0101 A2000000 		.4byte	0xa2
 906 0105 04       		.uleb128 0x4
 907 0106 87020000 		.4byte	.LASF23
 908 010a 06       		.byte	0x6
 909 010b 43       		.byte	0x43
 910 010c AD000000 		.4byte	0xad
 911 0110 04       		.uleb128 0x4
 912 0111 DA010000 		.4byte	.LASF24
 913 0115 06       		.byte	0x6
 914 0116 45       		.byte	0x45
 915 0117 A2000000 		.4byte	0xa2
 916 011b 04       		.uleb128 0x4
 917 011c B3050000 		.4byte	.LASF25
 918 0120 07       		.byte	0x7
 919 0121 33       		.byte	0x33
 920 0122 AD000000 		.4byte	0xad
 921 0126 04       		.uleb128 0x4
 922 0127 C9040000 		.4byte	.LASF26
 923 012b 07       		.byte	0x7
 924 012c 3F       		.byte	0x3f
 925 012d 31010000 		.4byte	0x131
 926 0131 05       		.uleb128 0x5
 927 0132 2C020000 		.4byte	.LASF45
 928 0136 40       		.byte	0x40
 929 0137 08       		.byte	0x8
 930 0138 C2       		.byte	0xc2
 931 0139 11020000 		.4byte	0x211
 932 013d 06       		.uleb128 0x6
 933 013e 0F040000 		.4byte	.LASF27
 934 0142 08       		.byte	0x8
 935 0143 C3       		.byte	0xc3
 936 0144 1C020000 		.4byte	0x21c
 937 0148 00       		.byte	0
 938 0149 06       		.uleb128 0x6
 939 014a 9C030000 		.4byte	.LASF28
 940 014e 08       		.byte	0x8
 941 014f C5       		.byte	0xc5
 942 0150 1C020000 		.4byte	0x21c
 943 0154 04       		.byte	0x4
 944 0155 06       		.uleb128 0x6
 945 0156 FD000000 		.4byte	.LASF29
 946 015a 08       		.byte	0x8
 947 015b C7       		.byte	0xc7
 948 015c EF000000 		.4byte	0xef
 949 0160 08       		.byte	0x8
 950 0161 06       		.uleb128 0x6
 951 0162 CF060000 		.4byte	.LASF30
ARM GAS  /tmp/cc0Zgg1q.s 			page 18


 952 0166 08       		.byte	0x8
 953 0167 C8       		.byte	0xc8
 954 0168 4C040000 		.4byte	0x44c
 955 016c 0C       		.byte	0xc
 956 016d 06       		.uleb128 0x6
 957 016e 70010000 		.4byte	.LASF31
 958 0172 08       		.byte	0x8
 959 0173 CA       		.byte	0xca
 960 0174 1C020000 		.4byte	0x21c
 961 0178 10       		.byte	0x10
 962 0179 06       		.uleb128 0x6
 963 017a 34030000 		.4byte	.LASF32
 964 017e 08       		.byte	0x8
 965 017f CB       		.byte	0xcb
 966 0180 1C020000 		.4byte	0x21c
 967 0184 14       		.byte	0x14
 968 0185 06       		.uleb128 0x6
 969 0186 9B060000 		.4byte	.LASF33
 970 018a 08       		.byte	0x8
 971 018b D2       		.byte	0xd2
 972 018c D7050000 		.4byte	0x5d7
 973 0190 18       		.byte	0x18
 974 0191 06       		.uleb128 0x6
 975 0192 F9030000 		.4byte	.LASF34
 976 0196 08       		.byte	0x8
 977 0197 DD       		.byte	0xdd
 978 0198 D9000000 		.4byte	0xd9
 979 019c 1C       		.byte	0x1c
 980 019d 06       		.uleb128 0x6
 981 019e 16040000 		.4byte	.LASF35
 982 01a2 08       		.byte	0x8
 983 01a3 E1       		.byte	0xe1
 984 01a4 CE000000 		.4byte	0xce
 985 01a8 1D       		.byte	0x1d
 986 01a9 06       		.uleb128 0x6
 987 01aa 59060000 		.4byte	.LASF36
 988 01ae 08       		.byte	0x8
 989 01af E6       		.byte	0xe6
 990 01b0 E4000000 		.4byte	0xe4
 991 01b4 1E       		.byte	0x1e
 992 01b5 07       		.uleb128 0x7
 993 01b6 705F7500 		.ascii	"p_u\000"
 994 01ba 08       		.byte	0x8
 995 01bb 3701     		.2byte	0x137
 996 01bd 06050000 		.4byte	0x506
 997 01c1 20       		.byte	0x20
 998 01c2 08       		.uleb128 0x8
 999 01c3 AD020000 		.4byte	.LASF37
 1000 01c7 08       		.byte	0x8
 1001 01c8 3C01     		.2byte	0x13c
 1002 01ca 22020000 		.4byte	0x222
 1003 01ce 24       		.byte	0x24
 1004 01cf 08       		.uleb128 0x8
 1005 01d0 FC010000 		.4byte	.LASF38
 1006 01d4 08       		.byte	0x8
 1007 01d5 4201     		.2byte	0x142
 1008 01d7 46020000 		.4byte	0x246
ARM GAS  /tmp/cc0Zgg1q.s 			page 19


 1009 01db 28       		.byte	0x28
 1010 01dc 08       		.uleb128 0x8
 1011 01dd 64040000 		.4byte	.LASF39
 1012 01e1 08       		.byte	0x8
 1013 01e2 4801     		.2byte	0x148
 1014 01e4 05010000 		.4byte	0x105
 1015 01e8 30       		.byte	0x30
 1016 01e9 08       		.uleb128 0x8
 1017 01ea E5030000 		.4byte	.LASF40
 1018 01ee 08       		.byte	0x8
 1019 01ef 4F01     		.2byte	0x14f
 1020 01f1 D1050000 		.4byte	0x5d1
 1021 01f5 34       		.byte	0x34
 1022 01f6 08       		.uleb128 0x8
 1023 01f7 BD050000 		.4byte	.LASF41
 1024 01fb 08       		.byte	0x8
 1025 01fc 5301     		.2byte	0x153
 1026 01fe EF000000 		.4byte	0xef
 1027 0202 38       		.byte	0x38
 1028 0203 08       		.uleb128 0x8
 1029 0204 31010000 		.4byte	.LASF42
 1030 0208 08       		.byte	0x8
 1031 0209 5A01     		.2byte	0x15a
 1032 020b F9020000 		.4byte	0x2f9
 1033 020f 3C       		.byte	0x3c
 1034 0210 00       		.byte	0
 1035 0211 04       		.uleb128 0x4
 1036 0212 C0020000 		.4byte	.LASF43
 1037 0216 07       		.byte	0x7
 1038 0217 44       		.byte	0x44
 1039 0218 1C020000 		.4byte	0x21c
 1040 021c 09       		.uleb128 0x9
 1041 021d 04       		.byte	0x4
 1042 021e 26010000 		.4byte	0x126
 1043 0222 04       		.uleb128 0x4
 1044 0223 A2060000 		.4byte	.LASF44
 1045 0227 07       		.byte	0x7
 1046 0228 49       		.byte	0x49
 1047 0229 2D020000 		.4byte	0x22d
 1048 022d 05       		.uleb128 0x5
 1049 022e 90040000 		.4byte	.LASF46
 1050 0232 04       		.byte	0x4
 1051 0233 08       		.byte	0x8
 1052 0234 B0       		.byte	0xb0
 1053 0235 46020000 		.4byte	0x246
 1054 0239 06       		.uleb128 0x6
 1055 023a 0F040000 		.4byte	.LASF27
 1056 023e 08       		.byte	0x8
 1057 023f B1       		.byte	0xb1
 1058 0240 1C020000 		.4byte	0x21c
 1059 0244 00       		.byte	0
 1060 0245 00       		.byte	0
 1061 0246 04       		.uleb128 0x4
 1062 0247 40060000 		.4byte	.LASF47
 1063 024b 07       		.byte	0x7
 1064 024c 50       		.byte	0x50
 1065 024d 51020000 		.4byte	0x251
ARM GAS  /tmp/cc0Zgg1q.s 			page 20


 1066 0251 05       		.uleb128 0x5
 1067 0252 EC000000 		.4byte	.LASF48
 1068 0256 08       		.byte	0x8
 1069 0257 08       		.byte	0x8
 1070 0258 B7       		.byte	0xb7
 1071 0259 76020000 		.4byte	0x276
 1072 025d 06       		.uleb128 0x6
 1073 025e 0F040000 		.4byte	.LASF27
 1074 0262 08       		.byte	0x8
 1075 0263 B8       		.byte	0xb8
 1076 0264 1C020000 		.4byte	0x21c
 1077 0268 00       		.byte	0
 1078 0269 06       		.uleb128 0x6
 1079 026a 9C030000 		.4byte	.LASF28
 1080 026e 08       		.byte	0x8
 1081 026f B9       		.byte	0xb9
 1082 0270 1C020000 		.4byte	0x21c
 1083 0274 04       		.byte	0x4
 1084 0275 00       		.byte	0
 1085 0276 04       		.uleb128 0x4
 1086 0277 00000000 		.4byte	.LASF49
 1087 027b 07       		.byte	0x7
 1088 027c 57       		.byte	0x57
 1089 027d 81020000 		.4byte	0x281
 1090 0281 0A       		.uleb128 0xa
 1091 0282 79020000 		.4byte	.LASF50
 1092 0286 1C       		.byte	0x1c
 1093 0287 08       		.byte	0x8
 1094 0288 9201     		.2byte	0x192
 1095 028a DD020000 		.4byte	0x2dd
 1096 028e 08       		.uleb128 0x8
 1097 028f 7F040000 		.4byte	.LASF51
 1098 0293 08       		.byte	0x8
 1099 0294 9301     		.2byte	0x193
 1100 0296 46020000 		.4byte	0x246
 1101 029a 00       		.byte	0
 1102 029b 08       		.uleb128 0x8
 1103 029c 01040000 		.4byte	.LASF52
 1104 02a0 08       		.byte	0x8
 1105 02a1 9401     		.2byte	0x194
 1106 02a3 EF000000 		.4byte	0xef
 1107 02a7 08       		.byte	0x8
 1108 02a8 08       		.uleb128 0x8
 1109 02a9 3C030000 		.4byte	.LASF53
 1110 02ad 08       		.byte	0x8
 1111 02ae 9601     		.2byte	0x196
 1112 02b0 4C040000 		.4byte	0x44c
 1113 02b4 0C       		.byte	0xc
 1114 02b5 08       		.uleb128 0x8
 1115 02b6 52020000 		.4byte	.LASF54
 1116 02ba 08       		.byte	0x8
 1117 02bb 9901     		.2byte	0x199
 1118 02bd 1C020000 		.4byte	0x21c
 1119 02c1 10       		.byte	0x10
 1120 02c2 08       		.uleb128 0x8
 1121 02c3 71030000 		.4byte	.LASF55
 1122 02c7 08       		.byte	0x8
ARM GAS  /tmp/cc0Zgg1q.s 			page 21


 1123 02c8 9A01     		.2byte	0x19a
 1124 02ca 1C020000 		.4byte	0x21c
 1125 02ce 14       		.byte	0x14
 1126 02cf 08       		.uleb128 0x8
 1127 02d0 67030000 		.4byte	.LASF56
 1128 02d4 08       		.byte	0x8
 1129 02d5 9D01     		.2byte	0x19d
 1130 02d7 1C020000 		.4byte	0x21c
 1131 02db 18       		.byte	0x18
 1132 02dc 00       		.byte	0
 1133 02dd 04       		.uleb128 0x4
 1134 02de C8050000 		.4byte	.LASF57
 1135 02e2 07       		.byte	0x7
 1136 02e3 5C       		.byte	0x5c
 1137 02e4 E8020000 		.4byte	0x2e8
 1138 02e8 09       		.uleb128 0x9
 1139 02e9 04       		.byte	0x4
 1140 02ea EE020000 		.4byte	0x2ee
 1141 02ee 0B       		.uleb128 0xb
 1142 02ef F9020000 		.4byte	0x2f9
 1143 02f3 0C       		.uleb128 0xc
 1144 02f4 F9020000 		.4byte	0x2f9
 1145 02f8 00       		.byte	0
 1146 02f9 0D       		.uleb128 0xd
 1147 02fa 04       		.byte	0x4
 1148 02fb 04       		.uleb128 0x4
 1149 02fc 8C030000 		.4byte	.LASF58
 1150 0300 07       		.byte	0x7
 1151 0301 61       		.byte	0x61
 1152 0302 06030000 		.4byte	0x306
 1153 0306 0A       		.uleb128 0xa
 1154 0307 46040000 		.4byte	.LASF59
 1155 030b 14       		.byte	0x14
 1156 030c 08       		.byte	0x8
 1157 030d 6D01     		.2byte	0x16d
 1158 030f 55030000 		.4byte	0x355
 1159 0313 08       		.uleb128 0x8
 1160 0314 ED010000 		.4byte	.LASF60
 1161 0318 08       		.byte	0x8
 1162 0319 6E01     		.2byte	0x16e
 1163 031b E9050000 		.4byte	0x5e9
 1164 031f 00       		.byte	0
 1165 0320 08       		.uleb128 0x8
 1166 0321 A3010000 		.4byte	.LASF61
 1167 0325 08       		.byte	0x8
 1168 0326 6F01     		.2byte	0x16f
 1169 0328 E9050000 		.4byte	0x5e9
 1170 032c 04       		.byte	0x4
 1171 032d 08       		.uleb128 0x8
 1172 032e 87040000 		.4byte	.LASF62
 1173 0332 08       		.byte	0x8
 1174 0333 7001     		.2byte	0x170
 1175 0335 1B010000 		.4byte	0x11b
 1176 0339 08       		.byte	0x8
 1177 033a 08       		.uleb128 0x8
 1178 033b D5060000 		.4byte	.LASF63
 1179 033f 08       		.byte	0x8
ARM GAS  /tmp/cc0Zgg1q.s 			page 22


 1180 0340 7101     		.2byte	0x171
 1181 0342 DD020000 		.4byte	0x2dd
 1182 0346 0C       		.byte	0xc
 1183 0347 08       		.uleb128 0x8
 1184 0348 1F060000 		.4byte	.LASF64
 1185 034c 08       		.byte	0x8
 1186 034d 7301     		.2byte	0x173
 1187 034f F9020000 		.4byte	0x2f9
 1188 0353 10       		.byte	0x10
 1189 0354 00       		.byte	0
 1190 0355 04       		.uleb128 0x4
 1191 0356 CD000000 		.4byte	.LASF65
 1192 035a 07       		.byte	0x7
 1193 035b 66       		.byte	0x66
 1194 035c 60030000 		.4byte	0x360
 1195 0360 0A       		.uleb128 0xa
 1196 0361 D3020000 		.4byte	.LASF66
 1197 0365 10       		.byte	0x10
 1198 0366 08       		.byte	0x8
 1199 0367 7D01     		.2byte	0x17d
 1200 0369 A2030000 		.4byte	0x3a2
 1201 036d 08       		.uleb128 0x8
 1202 036e ED010000 		.4byte	.LASF60
 1203 0372 08       		.byte	0x8
 1204 0373 7E01     		.2byte	0x17e
 1205 0375 E9050000 		.4byte	0x5e9
 1206 0379 00       		.byte	0
 1207 037a 08       		.uleb128 0x8
 1208 037b A3010000 		.4byte	.LASF61
 1209 037f 08       		.byte	0x8
 1210 0380 8001     		.2byte	0x180
 1211 0382 E9050000 		.4byte	0x5e9
 1212 0386 04       		.byte	0x4
 1213 0387 08       		.uleb128 0x8
 1214 0388 87040000 		.4byte	.LASF62
 1215 038c 08       		.byte	0x8
 1216 038d 8201     		.2byte	0x182
 1217 038f 1B010000 		.4byte	0x11b
 1218 0393 08       		.byte	0x8
 1219 0394 08       		.uleb128 0x8
 1220 0395 28030000 		.4byte	.LASF67
 1221 0399 08       		.byte	0x8
 1222 039a 8A01     		.2byte	0x18a
 1223 039c 1B010000 		.4byte	0x11b
 1224 03a0 0C       		.byte	0xc
 1225 03a1 00       		.byte	0
 1226 03a2 04       		.uleb128 0x4
 1227 03a3 5F000000 		.4byte	.LASF68
 1228 03a7 07       		.byte	0x7
 1229 03a8 6B       		.byte	0x6b
 1230 03a9 AD030000 		.4byte	0x3ad
 1231 03ad 0A       		.uleb128 0xa
 1232 03ae AB030000 		.4byte	.LASF69
 1233 03b2 04       		.byte	0x4
 1234 03b3 08       		.byte	0x8
 1235 03b4 A401     		.2byte	0x1a4
 1236 03b6 C8030000 		.4byte	0x3c8
ARM GAS  /tmp/cc0Zgg1q.s 			page 23


 1237 03ba 08       		.uleb128 0x8
 1238 03bb F0050000 		.4byte	.LASF70
 1239 03bf 08       		.byte	0x8
 1240 03c0 AC01     		.2byte	0x1ac
 1241 03c2 EF050000 		.4byte	0x5ef
 1242 03c6 00       		.byte	0
 1243 03c7 00       		.byte	0
 1244 03c8 04       		.uleb128 0x4
 1245 03c9 5A020000 		.4byte	.LASF71
 1246 03cd 07       		.byte	0x7
 1247 03ce 70       		.byte	0x70
 1248 03cf D3030000 		.4byte	0x3d3
 1249 03d3 0E       		.uleb128 0xe
 1250 03d4 54010000 		.4byte	.LASF72
 1251 03d8 5001     		.2byte	0x150
 1252 03da 08       		.byte	0x8
 1253 03db C401     		.2byte	0x1c4
 1254 03dd 2F040000 		.4byte	0x42f
 1255 03e1 08       		.uleb128 0x8
 1256 03e2 AB010000 		.4byte	.LASF73
 1257 03e6 08       		.byte	0x8
 1258 03e7 C801     		.2byte	0x1c8
 1259 03e9 76020000 		.4byte	0x276
 1260 03ed 00       		.byte	0
 1261 03ee 08       		.uleb128 0x8
 1262 03ef 41010000 		.4byte	.LASF74
 1263 03f3 08       		.byte	0x8
 1264 03f4 CC01     		.2byte	0x1cc
 1265 03f6 55030000 		.4byte	0x355
 1266 03fa 1C       		.byte	0x1c
 1267 03fb 07       		.uleb128 0x7
 1268 03fc 64626700 		.ascii	"dbg\000"
 1269 0400 08       		.byte	0x8
 1270 0401 D001     		.2byte	0x1d0
 1271 0403 A2030000 		.4byte	0x3a2
 1272 0407 2C       		.byte	0x2c
 1273 0408 08       		.uleb128 0x8
 1274 0409 36020000 		.4byte	.LASF75
 1275 040d 08       		.byte	0x8
 1276 040e D401     		.2byte	0x1d4
 1277 0410 26010000 		.4byte	0x126
 1278 0414 30       		.byte	0x30
 1279 0415 07       		.uleb128 0x7
 1280 0416 746D00   		.ascii	"tm\000"
 1281 0419 08       		.byte	0x8
 1282 041a D901     		.2byte	0x1d9
 1283 041c FB040000 		.4byte	0x4fb
 1284 0420 70       		.byte	0x70
 1285 0421 08       		.uleb128 0x8
 1286 0422 6E000000 		.4byte	.LASF76
 1287 0426 08       		.byte	0x8
 1288 0427 E501     		.2byte	0x1e5
 1289 0429 F4050000 		.4byte	0x5f4
 1290 042d 78       		.byte	0x78
 1291 042e 00       		.byte	0
 1292 042f 03       		.uleb128 0x3
 1293 0430 04       		.byte	0x4
ARM GAS  /tmp/cc0Zgg1q.s 			page 24


 1294 0431 07       		.byte	0x7
 1295 0432 B7020000 		.4byte	.LASF77
 1296 0436 04       		.uleb128 0x4
 1297 0437 9A010000 		.4byte	.LASF78
 1298 043b 09       		.byte	0x9
 1299 043c 65       		.byte	0x65
 1300 043d F9020000 		.4byte	0x2f9
 1301 0441 04       		.uleb128 0x4
 1302 0442 A2020000 		.4byte	.LASF79
 1303 0446 09       		.byte	0x9
 1304 0447 6D       		.byte	0x6d
 1305 0448 B8000000 		.4byte	0xb8
 1306 044c 05       		.uleb128 0x5
 1307 044d 01060000 		.4byte	.LASF80
 1308 0451 04       		.byte	0x4
 1309 0452 09       		.byte	0x9
 1310 0453 89       		.byte	0x89
 1311 0454 65040000 		.4byte	0x465
 1312 0458 0F       		.uleb128 0xf
 1313 0459 72313300 		.ascii	"r13\000"
 1314 045d 09       		.byte	0x9
 1315 045e 8A       		.byte	0x8a
 1316 045f E0040000 		.4byte	0x4e0
 1317 0463 00       		.byte	0
 1318 0464 00       		.byte	0
 1319 0465 05       		.uleb128 0x5
 1320 0466 53000000 		.4byte	.LASF81
 1321 046a 24       		.byte	0x24
 1322 046b 0A       		.byte	0xa
 1323 046c FD       		.byte	0xfd
 1324 046d E0040000 		.4byte	0x4e0
 1325 0471 07       		.uleb128 0x7
 1326 0472 723400   		.ascii	"r4\000"
 1327 0475 0A       		.byte	0xa
 1328 0476 1001     		.2byte	0x110
 1329 0478 36040000 		.4byte	0x436
 1330 047c 00       		.byte	0
 1331 047d 07       		.uleb128 0x7
 1332 047e 723500   		.ascii	"r5\000"
 1333 0481 0A       		.byte	0xa
 1334 0482 1101     		.2byte	0x111
 1335 0484 36040000 		.4byte	0x436
 1336 0488 04       		.byte	0x4
 1337 0489 07       		.uleb128 0x7
 1338 048a 723600   		.ascii	"r6\000"
 1339 048d 0A       		.byte	0xa
 1340 048e 1201     		.2byte	0x112
 1341 0490 36040000 		.4byte	0x436
 1342 0494 08       		.byte	0x8
 1343 0495 07       		.uleb128 0x7
 1344 0496 723700   		.ascii	"r7\000"
 1345 0499 0A       		.byte	0xa
 1346 049a 1301     		.2byte	0x113
 1347 049c 36040000 		.4byte	0x436
 1348 04a0 0C       		.byte	0xc
 1349 04a1 07       		.uleb128 0x7
 1350 04a2 723800   		.ascii	"r8\000"
ARM GAS  /tmp/cc0Zgg1q.s 			page 25


 1351 04a5 0A       		.byte	0xa
 1352 04a6 1401     		.2byte	0x114
 1353 04a8 36040000 		.4byte	0x436
 1354 04ac 10       		.byte	0x10
 1355 04ad 07       		.uleb128 0x7
 1356 04ae 723900   		.ascii	"r9\000"
 1357 04b1 0A       		.byte	0xa
 1358 04b2 1501     		.2byte	0x115
 1359 04b4 36040000 		.4byte	0x436
 1360 04b8 14       		.byte	0x14
 1361 04b9 07       		.uleb128 0x7
 1362 04ba 72313000 		.ascii	"r10\000"
 1363 04be 0A       		.byte	0xa
 1364 04bf 1601     		.2byte	0x116
 1365 04c1 36040000 		.4byte	0x436
 1366 04c5 18       		.byte	0x18
 1367 04c6 07       		.uleb128 0x7
 1368 04c7 72313100 		.ascii	"r11\000"
 1369 04cb 0A       		.byte	0xa
 1370 04cc 1701     		.2byte	0x117
 1371 04ce 36040000 		.4byte	0x436
 1372 04d2 1C       		.byte	0x1c
 1373 04d3 07       		.uleb128 0x7
 1374 04d4 6C7200   		.ascii	"lr\000"
 1375 04d7 0A       		.byte	0xa
 1376 04d8 1801     		.2byte	0x118
 1377 04da 36040000 		.4byte	0x436
 1378 04de 20       		.byte	0x20
 1379 04df 00       		.byte	0
 1380 04e0 09       		.uleb128 0x9
 1381 04e1 04       		.byte	0x4
 1382 04e2 65040000 		.4byte	0x465
 1383 04e6 10       		.uleb128 0x10
 1384 04e7 04       		.byte	0x4
 1385 04e8 0B       		.byte	0xb
 1386 04e9 38       		.byte	0x38
 1387 04ea FB040000 		.4byte	0x4fb
 1388 04ee 06       		.uleb128 0x6
 1389 04ef FA050000 		.4byte	.LASF82
 1390 04f3 0B       		.byte	0xb
 1391 04f4 3C       		.byte	0x3c
 1392 04f5 C3000000 		.4byte	0xc3
 1393 04f9 00       		.byte	0
 1394 04fa 00       		.byte	0
 1395 04fb 04       		.uleb128 0x4
 1396 04fc 4C030000 		.4byte	.LASF83
 1397 0500 0B       		.byte	0xb
 1398 0501 3D       		.byte	0x3d
 1399 0502 E6040000 		.4byte	0x4e6
 1400 0506 11       		.uleb128 0x11
 1401 0507 04       		.byte	0x4
 1402 0508 08       		.byte	0x8
 1403 0509 FA       		.byte	0xfa
 1404 050a 6F050000 		.4byte	0x56f
 1405 050e 12       		.uleb128 0x12
 1406 050f 2F000000 		.4byte	.LASF84
 1407 0513 08       		.byte	0x8
ARM GAS  /tmp/cc0Zgg1q.s 			page 26


 1408 0514 0101     		.2byte	0x101
 1409 0516 FA000000 		.4byte	0xfa
 1410 051a 12       		.uleb128 0x12
 1411 051b AD000000 		.4byte	.LASF85
 1412 051f 08       		.byte	0x8
 1413 0520 0801     		.2byte	0x108
 1414 0522 FA000000 		.4byte	0xfa
 1415 0526 12       		.uleb128 0x12
 1416 0527 94060000 		.4byte	.LASF86
 1417 052b 08       		.byte	0x8
 1418 052c 0F01     		.2byte	0x10f
 1419 052e F9020000 		.4byte	0x2f9
 1420 0532 12       		.uleb128 0x12
 1421 0533 29000000 		.4byte	.LASF87
 1422 0537 08       		.byte	0x8
 1423 0538 1601     		.2byte	0x116
 1424 053a 6F050000 		.4byte	0x56f
 1425 053e 12       		.uleb128 0x12
 1426 053f C5000000 		.4byte	.LASF88
 1427 0543 08       		.byte	0x8
 1428 0544 1B01     		.2byte	0x11b
 1429 0546 FA000000 		.4byte	0xfa
 1430 054a 12       		.uleb128 0x12
 1431 054b F5010000 		.4byte	.LASF89
 1432 054f 08       		.byte	0x8
 1433 0550 2401     		.2byte	0x124
 1434 0552 9A050000 		.4byte	0x59a
 1435 0556 12       		.uleb128 0x12
 1436 0557 78040000 		.4byte	.LASF90
 1437 055b 08       		.byte	0x8
 1438 055c 2D01     		.2byte	0x12d
 1439 055e D1050000 		.4byte	0x5d1
 1440 0562 12       		.uleb128 0x12
 1441 0563 08040000 		.4byte	.LASF91
 1442 0567 08       		.byte	0x8
 1443 0568 3501     		.2byte	0x135
 1444 056a 05010000 		.4byte	0x105
 1445 056e 00       		.byte	0
 1446 056f 09       		.uleb128 0x9
 1447 0570 04       		.byte	0x4
 1448 0571 11020000 		.4byte	0x211
 1449 0575 05       		.uleb128 0x5
 1450 0576 57040000 		.4byte	.LASF92
 1451 057a 0C       		.byte	0xc
 1452 057b 03       		.byte	0x3
 1453 057c 34       		.byte	0x34
 1454 057d 9A050000 		.4byte	0x59a
 1455 0581 06       		.uleb128 0x6
 1456 0582 78010000 		.4byte	.LASF93
 1457 0586 03       		.byte	0x3
 1458 0587 35       		.byte	0x35
 1459 0588 46020000 		.4byte	0x246
 1460 058c 00       		.byte	0
 1461 058d 06       		.uleb128 0x6
 1462 058e 1B020000 		.4byte	.LASF94
 1463 0592 03       		.byte	0x3
 1464 0593 37       		.byte	0x37
ARM GAS  /tmp/cc0Zgg1q.s 			page 27


 1465 0594 10010000 		.4byte	0x110
 1466 0598 08       		.byte	0x8
 1467 0599 00       		.byte	0
 1468 059a 09       		.uleb128 0x9
 1469 059b 04       		.byte	0x4
 1470 059c 75050000 		.4byte	0x575
 1471 05a0 05       		.uleb128 0x5
 1472 05a1 50060000 		.4byte	.LASF95
 1473 05a5 10       		.byte	0x10
 1474 05a6 0C       		.byte	0xc
 1475 05a7 39       		.byte	0x39
 1476 05a8 D1050000 		.4byte	0x5d1
 1477 05ac 06       		.uleb128 0x6
 1478 05ad 39010000 		.4byte	.LASF96
 1479 05b1 0C       		.byte	0xc
 1480 05b2 3A       		.byte	0x3a
 1481 05b3 46020000 		.4byte	0x246
 1482 05b7 00       		.byte	0
 1483 05b8 06       		.uleb128 0x6
 1484 05b9 C7060000 		.4byte	.LASF97
 1485 05bd 0C       		.byte	0xc
 1486 05be 3C       		.byte	0x3c
 1487 05bf 1C020000 		.4byte	0x21c
 1488 05c3 08       		.byte	0x8
 1489 05c4 06       		.uleb128 0x6
 1490 05c5 AC050000 		.4byte	.LASF98
 1491 05c9 0C       		.byte	0xc
 1492 05ca 3E       		.byte	0x3e
 1493 05cb 1A060000 		.4byte	0x61a
 1494 05cf 0C       		.byte	0xc
 1495 05d0 00       		.byte	0
 1496 05d1 09       		.uleb128 0x9
 1497 05d2 04       		.byte	0x4
 1498 05d3 A0050000 		.4byte	0x5a0
 1499 05d7 09       		.uleb128 0x9
 1500 05d8 04       		.byte	0x4
 1501 05d9 DD050000 		.4byte	0x5dd
 1502 05dd 13       		.uleb128 0x13
 1503 05de E2050000 		.4byte	0x5e2
 1504 05e2 03       		.uleb128 0x3
 1505 05e3 01       		.byte	0x1
 1506 05e4 08       		.byte	0x8
 1507 05e5 B2040000 		.4byte	.LASF99
 1508 05e9 09       		.uleb128 0x9
 1509 05ea 04       		.byte	0x4
 1510 05eb FB020000 		.4byte	0x2fb
 1511 05ef 14       		.uleb128 0x14
 1512 05f0 D7050000 		.4byte	0x5d7
 1513 05f4 15       		.uleb128 0x15
 1514 05f5 41040000 		.4byte	0x441
 1515 05f9 04060000 		.4byte	0x604
 1516 05fd 16       		.uleb128 0x16
 1517 05fe 2F040000 		.4byte	0x42f
 1518 0602 1A       		.byte	0x1a
 1519 0603 00       		.byte	0
 1520 0604 04       		.uleb128 0x4
 1521 0605 3A040000 		.4byte	.LASF100
ARM GAS  /tmp/cc0Zgg1q.s 			page 28


 1522 0609 03       		.byte	0x3
 1523 060a 38       		.byte	0x38
 1524 060b 75050000 		.4byte	0x575
 1525 060f 04       		.uleb128 0x4
 1526 0610 B1010000 		.4byte	.LASF101
 1527 0614 0C       		.byte	0xc
 1528 0615 34       		.byte	0x34
 1529 0616 A0050000 		.4byte	0x5a0
 1530 061a 09       		.uleb128 0x9
 1531 061b 04       		.byte	0x4
 1532 061c 0F060000 		.4byte	0x60f
 1533 0620 10       		.uleb128 0x10
 1534 0621 28       		.byte	0x28
 1535 0622 0D       		.byte	0xd
 1536 0623 38       		.byte	0x38
 1537 0624 71060000 		.4byte	0x671
 1538 0628 06       		.uleb128 0x6
 1539 0629 5D030000 		.4byte	.LASF102
 1540 062d 0D       		.byte	0xd
 1541 062e 39       		.byte	0x39
 1542 062f 71060000 		.4byte	0x671
 1543 0633 00       		.byte	0
 1544 0634 06       		.uleb128 0x6
 1545 0635 D1030000 		.4byte	.LASF103
 1546 0639 0D       		.byte	0xd
 1547 063a 3B       		.byte	0x3b
 1548 063b 71060000 		.4byte	0x671
 1549 063f 04       		.byte	0x4
 1550 0640 06       		.uleb128 0x6
 1551 0641 E3000000 		.4byte	.LASF104
 1552 0645 0D       		.byte	0xd
 1553 0646 3D       		.byte	0x3d
 1554 0647 71060000 		.4byte	0x671
 1555 064b 08       		.byte	0x8
 1556 064c 06       		.uleb128 0x6
 1557 064d 91010000 		.4byte	.LASF105
 1558 0651 0D       		.byte	0xd
 1559 0652 3E       		.byte	0x3e
 1560 0653 71060000 		.4byte	0x671
 1561 0657 0C       		.byte	0xc
 1562 0658 06       		.uleb128 0x6
 1563 0659 35060000 		.4byte	.LASF106
 1564 065d 0D       		.byte	0xd
 1565 065e 3F       		.byte	0x3f
 1566 065f 04060000 		.4byte	0x604
 1567 0663 10       		.byte	0x10
 1568 0664 06       		.uleb128 0x6
 1569 0665 0F020000 		.4byte	.LASF107
 1570 0669 0D       		.byte	0xd
 1571 066a 41       		.byte	0x41
 1572 066b 04060000 		.4byte	0x604
 1573 066f 1C       		.byte	0x1c
 1574 0670 00       		.byte	0
 1575 0671 09       		.uleb128 0x9
 1576 0672 04       		.byte	0x4
 1577 0673 FA000000 		.4byte	0xfa
 1578 0677 04       		.uleb128 0x4
ARM GAS  /tmp/cc0Zgg1q.s 			page 29


 1579 0678 42030000 		.4byte	.LASF108
 1580 067c 0D       		.byte	0xd
 1581 067d 43       		.byte	0x43
 1582 067e 20060000 		.4byte	0x620
 1583 0682 17       		.uleb128 0x17
 1584 0683 E2050000 		.4byte	.LASF111
 1585 0687 02       		.byte	0x2
 1586 0688 2202     		.2byte	0x222
 1587 068a 03       		.byte	0x3
 1588 068b 9C060000 		.4byte	0x69c
 1589 068f 18       		.uleb128 0x18
 1590 0690 B9010000 		.4byte	.LASF113
 1591 0694 02       		.byte	0x2
 1592 0695 2202     		.2byte	0x222
 1593 0697 AD000000 		.4byte	0xad
 1594 069b 00       		.byte	0
 1595 069c 19       		.uleb128 0x19
 1596 069d 7D000000 		.4byte	.LASF109
 1597 06a1 0A       		.byte	0xa
 1598 06a2 C801     		.2byte	0x1c8
 1599 06a4 03       		.byte	0x3
 1600 06a5 19       		.uleb128 0x19
 1601 06a6 48010000 		.4byte	.LASF110
 1602 06aa 0A       		.byte	0xa
 1603 06ab E001     		.2byte	0x1e0
 1604 06ad 03       		.byte	0x3
 1605 06ae 1A       		.uleb128 0x1a
 1606 06af 26060000 		.4byte	.LASF112
 1607 06b3 03       		.byte	0x3
 1608 06b4 76       		.byte	0x76
 1609 06b5 03       		.byte	0x3
 1610 06b6 C5060000 		.4byte	0x6c5
 1611 06ba 1B       		.uleb128 0x1b
 1612 06bb 737000   		.ascii	"sp\000"
 1613 06be 03       		.byte	0x3
 1614 06bf 76       		.byte	0x76
 1615 06c0 C5060000 		.4byte	0x6c5
 1616 06c4 00       		.byte	0
 1617 06c5 09       		.uleb128 0x9
 1618 06c6 04       		.byte	0x4
 1619 06c7 04060000 		.4byte	0x604
 1620 06cb 1C       		.uleb128 0x1c
 1621 06cc D1050000 		.4byte	.LASF137
 1622 06d0 03       		.byte	0x3
 1623 06d1 95       		.byte	0x95
 1624 06d2 10010000 		.4byte	0x110
 1625 06d6 03       		.byte	0x3
 1626 06d7 E6060000 		.4byte	0x6e6
 1627 06db 1B       		.uleb128 0x1b
 1628 06dc 737000   		.ascii	"sp\000"
 1629 06df 03       		.byte	0x3
 1630 06e0 95       		.byte	0x95
 1631 06e1 C5060000 		.4byte	0x6c5
 1632 06e5 00       		.byte	0
 1633 06e6 19       		.uleb128 0x19
 1634 06e7 30040000 		.4byte	.LASF114
 1635 06eb 0E       		.byte	0xe
ARM GAS  /tmp/cc0Zgg1q.s 			page 30


 1636 06ec 5A01     		.2byte	0x15a
 1637 06ee 03       		.byte	0x3
 1638 06ef 17       		.uleb128 0x17
 1639 06f0 B1060000 		.4byte	.LASF115
 1640 06f4 0E       		.byte	0xe
 1641 06f5 6601     		.2byte	0x166
 1642 06f7 03       		.byte	0x3
 1643 06f8 0A070000 		.4byte	0x70a
 1644 06fc 1D       		.uleb128 0x1d
 1645 06fd 1E040000 		.4byte	.LASF118
 1646 0701 1A070000 		.4byte	0x71a
 1647 0705 B1060000 		.4byte	.LASF115
 1648 0709 00       		.byte	0
 1649 070a 15       		.uleb128 0x15
 1650 070b E2050000 		.4byte	0x5e2
 1651 070f 1A070000 		.4byte	0x71a
 1652 0713 16       		.uleb128 0x16
 1653 0714 2F040000 		.4byte	0x42f
 1654 0718 0B       		.byte	0xb
 1655 0719 00       		.byte	0
 1656 071a 13       		.uleb128 0x13
 1657 071b 0A070000 		.4byte	0x70a
 1658 071f 1E       		.uleb128 0x1e
 1659 0720 0D000000 		.4byte	.LASF116
 1660 0724 01       		.byte	0x1
 1661 0725 56       		.byte	0x56
 1662 0726 00000000 		.4byte	.LFB241
 1663 072a 28000000 		.4byte	.LFE241-.LFB241
 1664 072e 01       		.uleb128 0x1
 1665 072f 9C       		.byte	0x9c
 1666 0730 9C070000 		.4byte	0x79c
 1667 0734 1F       		.uleb128 0x1f
 1668 0735 6D627000 		.ascii	"mbp\000"
 1669 0739 01       		.byte	0x1
 1670 073a 56       		.byte	0x56
 1671 073b 9C070000 		.4byte	0x79c
 1672 073f 00000000 		.4byte	.LLST0
 1673 0743 1F       		.uleb128 0x1f
 1674 0744 62756600 		.ascii	"buf\000"
 1675 0748 01       		.byte	0x1
 1676 0749 56       		.byte	0x56
 1677 074a 71060000 		.4byte	0x671
 1678 074e 39000000 		.4byte	.LLST1
 1679 0752 1F       		.uleb128 0x1f
 1680 0753 6E00     		.ascii	"n\000"
 1681 0755 01       		.byte	0x1
 1682 0756 56       		.byte	0x56
 1683 0757 10010000 		.4byte	0x110
 1684 075b 65000000 		.4byte	.LLST2
 1685 075f 20       		.uleb128 0x20
 1686 0760 1E040000 		.4byte	.LASF118
 1687 0764 B2070000 		.4byte	0x7b2
 1688 0768 21       		.uleb128 0x21
 1689 0769 1A000000 		.4byte	.LVL3
 1690 076d 5B0F0000 		.4byte	0xf5b
 1691 0771 83070000 		.4byte	0x783
 1692 0775 22       		.uleb128 0x22
ARM GAS  /tmp/cc0Zgg1q.s 			page 31


 1693 0776 01       		.uleb128 0x1
 1694 0777 51       		.byte	0x51
 1695 0778 03       		.uleb128 0x3
 1696 0779 F3       		.byte	0xf3
 1697 077a 01       		.uleb128 0x1
 1698 077b 52       		.byte	0x52
 1699 077c 22       		.uleb128 0x22
 1700 077d 01       		.uleb128 0x1
 1701 077e 50       		.byte	0x50
 1702 077f 02       		.uleb128 0x2
 1703 0780 74       		.byte	0x74
 1704 0781 1C       		.sleb128 28
 1705 0782 00       		.byte	0
 1706 0783 23       		.uleb128 0x23
 1707 0784 28000000 		.4byte	.LVL5
 1708 0788 5B0F0000 		.4byte	0xf5b
 1709 078c 22       		.uleb128 0x22
 1710 078d 01       		.uleb128 0x1
 1711 078e 51       		.byte	0x51
 1712 078f 01       		.uleb128 0x1
 1713 0790 30       		.byte	0x30
 1714 0791 22       		.uleb128 0x22
 1715 0792 01       		.uleb128 0x1
 1716 0793 50       		.byte	0x50
 1717 0794 05       		.uleb128 0x5
 1718 0795 F3       		.byte	0xf3
 1719 0796 01       		.uleb128 0x1
 1720 0797 50       		.byte	0x50
 1721 0798 23       		.byte	0x23
 1722 0799 10       		.uleb128 0x10
 1723 079a 00       		.byte	0
 1724 079b 00       		.byte	0
 1725 079c 09       		.uleb128 0x9
 1726 079d 04       		.byte	0x4
 1727 079e 77060000 		.4byte	0x677
 1728 07a2 15       		.uleb128 0x15
 1729 07a3 E2050000 		.4byte	0x5e2
 1730 07a7 B2070000 		.4byte	0x7b2
 1731 07ab 16       		.uleb128 0x16
 1732 07ac 2F040000 		.4byte	0x42f
 1733 07b0 0E       		.byte	0xe
 1734 07b1 00       		.byte	0
 1735 07b2 13       		.uleb128 0x13
 1736 07b3 A2070000 		.4byte	0x7a2
 1737 07b7 1E       		.uleb128 0x1e
 1738 07b8 21020000 		.4byte	.LASF117
 1739 07bc 01       		.byte	0x1
 1740 07bd 7C       		.byte	0x7c
 1741 07be 00000000 		.4byte	.LFB243
 1742 07c2 24000000 		.4byte	.LFE243-.LFB243
 1743 07c6 01       		.uleb128 0x1
 1744 07c7 9C       		.byte	0x9c
 1745 07c8 11080000 		.4byte	0x811
 1746 07cc 1F       		.uleb128 0x1f
 1747 07cd 6D627000 		.ascii	"mbp\000"
 1748 07d1 01       		.byte	0x1
 1749 07d2 7C       		.byte	0x7c
ARM GAS  /tmp/cc0Zgg1q.s 			page 32


 1750 07d3 9C070000 		.4byte	0x79c
 1751 07d7 86000000 		.4byte	.LLST3
 1752 07db 20       		.uleb128 0x20
 1753 07dc 1E040000 		.4byte	.LASF118
 1754 07e0 21080000 		.4byte	0x821
 1755 07e4 21       		.uleb128 0x21
 1756 07e5 16000000 		.4byte	.LVL8
 1757 07e9 710F0000 		.4byte	0xf71
 1758 07ed F8070000 		.4byte	0x7f8
 1759 07f1 22       		.uleb128 0x22
 1760 07f2 01       		.uleb128 0x1
 1761 07f3 50       		.byte	0x50
 1762 07f4 02       		.uleb128 0x2
 1763 07f5 74       		.byte	0x74
 1764 07f6 1C       		.sleb128 28
 1765 07f7 00       		.byte	0
 1766 07f8 23       		.uleb128 0x23
 1767 07f9 24000000 		.4byte	.LVL10
 1768 07fd 710F0000 		.4byte	0xf71
 1769 0801 22       		.uleb128 0x22
 1770 0802 01       		.uleb128 0x1
 1771 0803 51       		.byte	0x51
 1772 0804 01       		.uleb128 0x1
 1773 0805 30       		.byte	0x30
 1774 0806 22       		.uleb128 0x22
 1775 0807 01       		.uleb128 0x1
 1776 0808 50       		.byte	0x50
 1777 0809 05       		.uleb128 0x5
 1778 080a F3       		.byte	0xf3
 1779 080b 01       		.uleb128 0x1
 1780 080c 50       		.byte	0x50
 1781 080d 23       		.byte	0x23
 1782 080e 10       		.uleb128 0x10
 1783 080f 00       		.byte	0
 1784 0810 00       		.byte	0
 1785 0811 15       		.uleb128 0x15
 1786 0812 E2050000 		.4byte	0x5e2
 1787 0816 21080000 		.4byte	0x821
 1788 081a 16       		.uleb128 0x16
 1789 081b 2F040000 		.4byte	0x42f
 1790 081f 0A       		.byte	0xa
 1791 0820 00       		.byte	0
 1792 0821 13       		.uleb128 0x13
 1793 0822 11080000 		.4byte	0x811
 1794 0826 1E       		.uleb128 0x1e
 1795 0827 F4020000 		.4byte	.LASF119
 1796 082b 01       		.byte	0x1
 1797 082c 6B       		.byte	0x6b
 1798 082d 00000000 		.4byte	.LFB242
 1799 0831 18000000 		.4byte	.LFE242-.LFB242
 1800 0835 01       		.uleb128 0x1
 1801 0836 9C       		.byte	0x9c
 1802 0837 F0080000 		.4byte	0x8f0
 1803 083b 1F       		.uleb128 0x1f
 1804 083c 6D627000 		.ascii	"mbp\000"
 1805 0840 01       		.byte	0x1
 1806 0841 6B       		.byte	0x6b
ARM GAS  /tmp/cc0Zgg1q.s 			page 33


 1807 0842 9C070000 		.4byte	0x79c
 1808 0846 BF000000 		.4byte	.LLST4
 1809 084a 24       		.uleb128 0x24
 1810 084b E6060000 		.4byte	0x6e6
 1811 084f 02000000 		.4byte	.LBB66
 1812 0853 06000000 		.4byte	.LBE66-.LBB66
 1813 0857 01       		.byte	0x1
 1814 0858 6D       		.byte	0x6d
 1815 0859 86080000 		.4byte	0x886
 1816 085d 25       		.uleb128 0x25
 1817 085e 9C060000 		.4byte	0x69c
 1818 0862 02000000 		.4byte	.LBB67
 1819 0866 06000000 		.4byte	.LBE67-.LBB67
 1820 086a 0E       		.byte	0xe
 1821 086b 5C01     		.2byte	0x15c
 1822 086d 25       		.uleb128 0x25
 1823 086e 82060000 		.4byte	0x682
 1824 0872 02000000 		.4byte	.LBB68
 1825 0876 06000000 		.4byte	.LBE68-.LBB68
 1826 087a 0A       		.byte	0xa
 1827 087b D001     		.2byte	0x1d0
 1828 087d 26       		.uleb128 0x26
 1829 087e 8F060000 		.4byte	0x68f
 1830 0882 20       		.byte	0x20
 1831 0883 00       		.byte	0
 1832 0884 00       		.byte	0
 1833 0885 00       		.byte	0
 1834 0886 24       		.uleb128 0x24
 1835 0887 EF060000 		.4byte	0x6ef
 1836 088b 10000000 		.4byte	.LBB70
 1837 088f 08000000 		.4byte	.LBE70-.LBB70
 1838 0893 01       		.byte	0x1
 1839 0894 70       		.byte	0x70
 1840 0895 D1080000 		.4byte	0x8d1
 1841 0899 27       		.uleb128 0x27
 1842 089a 10000000 		.4byte	.LBB71
 1843 089e 08000000 		.4byte	.LBE71-.LBB71
 1844 08a2 28       		.uleb128 0x28
 1845 08a3 FC060000 		.4byte	0x6fc
 1846 08a7 25       		.uleb128 0x25
 1847 08a8 A5060000 		.4byte	0x6a5
 1848 08ac 10000000 		.4byte	.LBB72
 1849 08b0 08000000 		.4byte	.LBE72-.LBB72
 1850 08b4 0E       		.byte	0xe
 1851 08b5 7301     		.2byte	0x173
 1852 08b7 25       		.uleb128 0x25
 1853 08b8 82060000 		.4byte	0x682
 1854 08bc 10000000 		.4byte	.LBB73
 1855 08c0 08000000 		.4byte	.LBE73-.LBB73
 1856 08c4 0A       		.byte	0xa
 1857 08c5 E301     		.2byte	0x1e3
 1858 08c7 26       		.uleb128 0x26
 1859 08c8 8F060000 		.4byte	0x68f
 1860 08cc 00       		.byte	0
 1861 08cd 00       		.byte	0
 1862 08ce 00       		.byte	0
 1863 08cf 00       		.byte	0
ARM GAS  /tmp/cc0Zgg1q.s 			page 34


 1864 08d0 00       		.byte	0
 1865 08d1 21       		.uleb128 0x21
 1866 08d2 0C000000 		.4byte	.LVL12
 1867 08d6 B7070000 		.4byte	0x7b7
 1868 08da E6080000 		.4byte	0x8e6
 1869 08de 22       		.uleb128 0x22
 1870 08df 01       		.uleb128 0x1
 1871 08e0 50       		.byte	0x50
 1872 08e1 03       		.uleb128 0x3
 1873 08e2 F3       		.byte	0xf3
 1874 08e3 01       		.uleb128 0x1
 1875 08e4 50       		.byte	0x50
 1876 08e5 00       		.byte	0
 1877 08e6 29       		.uleb128 0x29
 1878 08e7 10000000 		.4byte	.LVL13
 1879 08eb 870F0000 		.4byte	0xf87
 1880 08ef 00       		.byte	0
 1881 08f0 2A       		.uleb128 0x2a
 1882 08f1 BD060000 		.4byte	.LASF121
 1883 08f5 01       		.byte	0x1
 1884 08f6 B7       		.byte	0xb7
 1885 08f7 FA000000 		.4byte	0xfa
 1886 08fb 00000000 		.4byte	.LFB245
 1887 08ff 36000000 		.4byte	.LFE245-.LFB245
 1888 0903 01       		.uleb128 0x1
 1889 0904 9C       		.byte	0x9c
 1890 0905 87090000 		.4byte	0x987
 1891 0909 1F       		.uleb128 0x1f
 1892 090a 6D627000 		.ascii	"mbp\000"
 1893 090e 01       		.byte	0x1
 1894 090f B7       		.byte	0xb7
 1895 0910 9C070000 		.4byte	0x79c
 1896 0914 E0000000 		.4byte	.LLST5
 1897 0918 1F       		.uleb128 0x1f
 1898 0919 6D736700 		.ascii	"msg\000"
 1899 091d 01       		.byte	0x1
 1900 091e B7       		.byte	0xb7
 1901 091f FA000000 		.4byte	0xfa
 1902 0923 FE000000 		.4byte	.LLST6
 1903 0927 2B       		.uleb128 0x2b
 1904 0928 07020000 		.4byte	.LASF120
 1905 092c 01       		.byte	0x1
 1906 092d B7       		.byte	0xb7
 1907 092e 1B010000 		.4byte	0x11b
 1908 0932 1C010000 		.4byte	.LLST7
 1909 0936 2C       		.uleb128 0x2c
 1910 0937 2F000000 		.4byte	.LASF84
 1911 093b 01       		.byte	0x1
 1912 093c B8       		.byte	0xb8
 1913 093d FA000000 		.4byte	0xfa
 1914 0941 3D010000 		.4byte	.LLST8
 1915 0945 20       		.uleb128 0x20
 1916 0946 1E040000 		.4byte	.LASF118
 1917 094a 97090000 		.4byte	0x997
 1918 094e 21       		.uleb128 0x21
 1919 094f 0E000000 		.4byte	.LVL17
 1920 0953 8F0F0000 		.4byte	0xf8f
ARM GAS  /tmp/cc0Zgg1q.s 			page 35


 1921 0957 69090000 		.4byte	0x969
 1922 095b 22       		.uleb128 0x22
 1923 095c 01       		.uleb128 0x1
 1924 095d 51       		.byte	0x51
 1925 095e 03       		.uleb128 0x3
 1926 095f F3       		.byte	0xf3
 1927 0960 01       		.uleb128 0x1
 1928 0961 52       		.byte	0x52
 1929 0962 22       		.uleb128 0x22
 1930 0963 01       		.uleb128 0x1
 1931 0964 50       		.byte	0x50
 1932 0965 02       		.uleb128 0x2
 1933 0966 74       		.byte	0x74
 1934 0967 1C       		.sleb128 28
 1935 0968 00       		.byte	0
 1936 0969 21       		.uleb128 0x21
 1937 096a 2E000000 		.4byte	.LVL19
 1938 096e A90F0000 		.4byte	0xfa9
 1939 0972 7D090000 		.4byte	0x97d
 1940 0976 22       		.uleb128 0x22
 1941 0977 01       		.uleb128 0x1
 1942 0978 50       		.byte	0x50
 1943 0979 02       		.uleb128 0x2
 1944 097a 74       		.byte	0x74
 1945 097b 10       		.sleb128 16
 1946 097c 00       		.byte	0
 1947 097d 29       		.uleb128 0x29
 1948 097e 32000000 		.4byte	.LVL20
 1949 0982 870F0000 		.4byte	0xf87
 1950 0986 00       		.byte	0
 1951 0987 15       		.uleb128 0x15
 1952 0988 E2050000 		.4byte	0x5e2
 1953 098c 97090000 		.4byte	0x997
 1954 0990 16       		.uleb128 0x16
 1955 0991 2F040000 		.4byte	0x42f
 1956 0995 09       		.byte	0x9
 1957 0996 00       		.byte	0
 1958 0997 13       		.uleb128 0x13
 1959 0998 87090000 		.4byte	0x987
 1960 099c 2A       		.uleb128 0x2a
 1961 099d 27040000 		.4byte	.LASF122
 1962 09a1 01       		.byte	0x1
 1963 09a2 9A       		.byte	0x9a
 1964 09a3 FA000000 		.4byte	0xfa
 1965 09a7 00000000 		.4byte	.LFB244
 1966 09ab 14000000 		.4byte	.LFE244-.LFB244
 1967 09af 01       		.uleb128 0x1
 1968 09b0 9C       		.byte	0x9c
 1969 09b1 960A0000 		.4byte	0xa96
 1970 09b5 1F       		.uleb128 0x1f
 1971 09b6 6D627000 		.ascii	"mbp\000"
 1972 09ba 01       		.byte	0x1
 1973 09bb 9A       		.byte	0x9a
 1974 09bc 9C070000 		.4byte	0x79c
 1975 09c0 5B010000 		.4byte	.LLST9
 1976 09c4 1F       		.uleb128 0x1f
 1977 09c5 6D736700 		.ascii	"msg\000"
ARM GAS  /tmp/cc0Zgg1q.s 			page 36


 1978 09c9 01       		.byte	0x1
 1979 09ca 9A       		.byte	0x9a
 1980 09cb FA000000 		.4byte	0xfa
 1981 09cf 7C010000 		.4byte	.LLST10
 1982 09d3 2B       		.uleb128 0x2b
 1983 09d4 07020000 		.4byte	.LASF120
 1984 09d8 01       		.byte	0x1
 1985 09d9 9A       		.byte	0x9a
 1986 09da 1B010000 		.4byte	0x11b
 1987 09de 9D010000 		.4byte	.LLST11
 1988 09e2 2D       		.uleb128 0x2d
 1989 09e3 2F000000 		.4byte	.LASF84
 1990 09e7 01       		.byte	0x1
 1991 09e8 9B       		.byte	0x9b
 1992 09e9 FA000000 		.4byte	0xfa
 1993 09ed 01       		.uleb128 0x1
 1994 09ee 50       		.byte	0x50
 1995 09ef 24       		.uleb128 0x24
 1996 09f0 E6060000 		.4byte	0x6e6
 1997 09f4 02000000 		.4byte	.LBB75
 1998 09f8 06000000 		.4byte	.LBE75-.LBB75
 1999 09fc 01       		.byte	0x1
 2000 09fd 9D       		.byte	0x9d
 2001 09fe 2B0A0000 		.4byte	0xa2b
 2002 0a02 25       		.uleb128 0x25
 2003 0a03 9C060000 		.4byte	0x69c
 2004 0a07 02000000 		.4byte	.LBB76
 2005 0a0b 06000000 		.4byte	.LBE76-.LBB76
 2006 0a0f 0E       		.byte	0xe
 2007 0a10 5C01     		.2byte	0x15c
 2008 0a12 25       		.uleb128 0x25
 2009 0a13 82060000 		.4byte	0x682
 2010 0a17 02000000 		.4byte	.LBB77
 2011 0a1b 06000000 		.4byte	.LBE77-.LBB77
 2012 0a1f 0A       		.byte	0xa
 2013 0a20 D001     		.2byte	0x1d0
 2014 0a22 26       		.uleb128 0x26
 2015 0a23 8F060000 		.4byte	0x68f
 2016 0a27 20       		.byte	0x20
 2017 0a28 00       		.byte	0
 2018 0a29 00       		.byte	0
 2019 0a2a 00       		.byte	0
 2020 0a2b 24       		.uleb128 0x24
 2021 0a2c EF060000 		.4byte	0x6ef
 2022 0a30 0C000000 		.4byte	.LBB79
 2023 0a34 06000000 		.4byte	.LBE79-.LBB79
 2024 0a38 01       		.byte	0x1
 2025 0a39 9F       		.byte	0x9f
 2026 0a3a 760A0000 		.4byte	0xa76
 2027 0a3e 27       		.uleb128 0x27
 2028 0a3f 0C000000 		.4byte	.LBB80
 2029 0a43 06000000 		.4byte	.LBE80-.LBB80
 2030 0a47 28       		.uleb128 0x28
 2031 0a48 FC060000 		.4byte	0x6fc
 2032 0a4c 25       		.uleb128 0x25
 2033 0a4d A5060000 		.4byte	0x6a5
 2034 0a51 0C000000 		.4byte	.LBB81
ARM GAS  /tmp/cc0Zgg1q.s 			page 37


 2035 0a55 06000000 		.4byte	.LBE81-.LBB81
 2036 0a59 0E       		.byte	0xe
 2037 0a5a 7301     		.2byte	0x173
 2038 0a5c 25       		.uleb128 0x25
 2039 0a5d 82060000 		.4byte	0x682
 2040 0a61 0C000000 		.4byte	.LBB82
 2041 0a65 06000000 		.4byte	.LBE82-.LBB82
 2042 0a69 0A       		.byte	0xa
 2043 0a6a E301     		.2byte	0x1e3
 2044 0a6c 26       		.uleb128 0x26
 2045 0a6d 8F060000 		.4byte	0x68f
 2046 0a71 00       		.byte	0
 2047 0a72 00       		.byte	0
 2048 0a73 00       		.byte	0
 2049 0a74 00       		.byte	0
 2050 0a75 00       		.byte	0
 2051 0a76 2E       		.uleb128 0x2e
 2052 0a77 0C000000 		.4byte	.LVL22
 2053 0a7b F0080000 		.4byte	0x8f0
 2054 0a7f 22       		.uleb128 0x22
 2055 0a80 01       		.uleb128 0x1
 2056 0a81 52       		.byte	0x52
 2057 0a82 03       		.uleb128 0x3
 2058 0a83 F3       		.byte	0xf3
 2059 0a84 01       		.uleb128 0x1
 2060 0a85 52       		.byte	0x52
 2061 0a86 22       		.uleb128 0x22
 2062 0a87 01       		.uleb128 0x1
 2063 0a88 51       		.byte	0x51
 2064 0a89 03       		.uleb128 0x3
 2065 0a8a F3       		.byte	0xf3
 2066 0a8b 01       		.uleb128 0x1
 2067 0a8c 51       		.byte	0x51
 2068 0a8d 22       		.uleb128 0x22
 2069 0a8e 01       		.uleb128 0x1
 2070 0a8f 50       		.byte	0x50
 2071 0a90 03       		.uleb128 0x3
 2072 0a91 F3       		.byte	0xf3
 2073 0a92 01       		.uleb128 0x1
 2074 0a93 50       		.byte	0x50
 2075 0a94 00       		.byte	0
 2076 0a95 00       		.byte	0
 2077 0a96 2A       		.uleb128 0x2a
 2078 0a97 49000000 		.4byte	.LASF123
 2079 0a9b 01       		.byte	0x1
 2080 0a9c D8       		.byte	0xd8
 2081 0a9d FA000000 		.4byte	0xfa
 2082 0aa1 00000000 		.4byte	.LFB246
 2083 0aa5 34000000 		.4byte	.LFE246-.LFB246
 2084 0aa9 01       		.uleb128 0x1
 2085 0aaa 9C       		.byte	0x9c
 2086 0aab 070B0000 		.4byte	0xb07
 2087 0aaf 1F       		.uleb128 0x1f
 2088 0ab0 6D627000 		.ascii	"mbp\000"
 2089 0ab4 01       		.byte	0x1
 2090 0ab5 D8       		.byte	0xd8
 2091 0ab6 9C070000 		.4byte	0x79c
ARM GAS  /tmp/cc0Zgg1q.s 			page 38


 2092 0aba BE010000 		.4byte	.LLST12
 2093 0abe 1F       		.uleb128 0x1f
 2094 0abf 6D736700 		.ascii	"msg\000"
 2095 0ac3 01       		.byte	0x1
 2096 0ac4 D8       		.byte	0xd8
 2097 0ac5 FA000000 		.4byte	0xfa
 2098 0ac9 05020000 		.4byte	.LLST13
 2099 0acd 20       		.uleb128 0x20
 2100 0ace 1E040000 		.4byte	.LASF118
 2101 0ad2 070B0000 		.4byte	0xb07
 2102 0ad6 2F       		.uleb128 0x2f
 2103 0ad7 AE060000 		.4byte	0x6ae
 2104 0adb 0E000000 		.4byte	.LBB84
 2105 0adf 00000000 		.4byte	.Ldebug_ranges0+0
 2106 0ae3 01       		.byte	0x1
 2107 0ae4 E1       		.byte	0xe1
 2108 0ae5 F30A0000 		.4byte	0xaf3
 2109 0ae9 30       		.uleb128 0x30
 2110 0aea BA060000 		.4byte	0x6ba
 2111 0aee 31020000 		.4byte	.LLST14
 2112 0af2 00       		.byte	0
 2113 0af3 2E       		.uleb128 0x2e
 2114 0af4 2A000000 		.4byte	.LVL27
 2115 0af8 A90F0000 		.4byte	0xfa9
 2116 0afc 22       		.uleb128 0x22
 2117 0afd 01       		.uleb128 0x1
 2118 0afe 50       		.byte	0x50
 2119 0aff 05       		.uleb128 0x5
 2120 0b00 F3       		.byte	0xf3
 2121 0b01 01       		.uleb128 0x1
 2122 0b02 50       		.byte	0x50
 2123 0b03 23       		.byte	0x23
 2124 0b04 10       		.uleb128 0x10
 2125 0b05 00       		.byte	0
 2126 0b06 00       		.byte	0
 2127 0b07 13       		.uleb128 0x13
 2128 0b08 87090000 		.4byte	0x987
 2129 0b0c 31       		.uleb128 0x31
 2130 0b0d B6000000 		.4byte	.LASF124
 2131 0b11 01       		.byte	0x1
 2132 0b12 1B01     		.2byte	0x11b
 2133 0b14 FA000000 		.4byte	0xfa
 2134 0b18 00000000 		.4byte	.LFB248
 2135 0b1c 38000000 		.4byte	.LFE248-.LFB248
 2136 0b20 01       		.uleb128 0x1
 2137 0b21 9C       		.byte	0x9c
 2138 0b22 A80B0000 		.4byte	0xba8
 2139 0b26 32       		.uleb128 0x32
 2140 0b27 6D627000 		.ascii	"mbp\000"
 2141 0b2b 01       		.byte	0x1
 2142 0b2c 1B01     		.2byte	0x11b
 2143 0b2e 9C070000 		.4byte	0x79c
 2144 0b32 63020000 		.4byte	.LLST15
 2145 0b36 32       		.uleb128 0x32
 2146 0b37 6D736700 		.ascii	"msg\000"
 2147 0b3b 01       		.byte	0x1
 2148 0b3c 1B01     		.2byte	0x11b
ARM GAS  /tmp/cc0Zgg1q.s 			page 39


 2149 0b3e FA000000 		.4byte	0xfa
 2150 0b42 81020000 		.4byte	.LLST16
 2151 0b46 33       		.uleb128 0x33
 2152 0b47 07020000 		.4byte	.LASF120
 2153 0b4b 01       		.byte	0x1
 2154 0b4c 1B01     		.2byte	0x11b
 2155 0b4e 1B010000 		.4byte	0x11b
 2156 0b52 9F020000 		.4byte	.LLST17
 2157 0b56 34       		.uleb128 0x34
 2158 0b57 2F000000 		.4byte	.LASF84
 2159 0b5b 01       		.byte	0x1
 2160 0b5c 1C01     		.2byte	0x11c
 2161 0b5e FA000000 		.4byte	0xfa
 2162 0b62 C0020000 		.4byte	.LLST18
 2163 0b66 20       		.uleb128 0x20
 2164 0b67 1E040000 		.4byte	.LASF118
 2165 0b6b A80B0000 		.4byte	0xba8
 2166 0b6f 21       		.uleb128 0x21
 2167 0b70 0E000000 		.4byte	.LVL33
 2168 0b74 8F0F0000 		.4byte	0xf8f
 2169 0b78 8A0B0000 		.4byte	0xb8a
 2170 0b7c 22       		.uleb128 0x22
 2171 0b7d 01       		.uleb128 0x1
 2172 0b7e 51       		.byte	0x51
 2173 0b7f 03       		.uleb128 0x3
 2174 0b80 F3       		.byte	0xf3
 2175 0b81 01       		.uleb128 0x1
 2176 0b82 52       		.byte	0x52
 2177 0b83 22       		.uleb128 0x22
 2178 0b84 01       		.uleb128 0x1
 2179 0b85 50       		.byte	0x50
 2180 0b86 02       		.uleb128 0x2
 2181 0b87 74       		.byte	0x74
 2182 0b88 1C       		.sleb128 28
 2183 0b89 00       		.byte	0
 2184 0b8a 21       		.uleb128 0x21
 2185 0b8b 28000000 		.4byte	.LVL35
 2186 0b8f A90F0000 		.4byte	0xfa9
 2187 0b93 9E0B0000 		.4byte	0xb9e
 2188 0b97 22       		.uleb128 0x22
 2189 0b98 01       		.uleb128 0x1
 2190 0b99 50       		.byte	0x50
 2191 0b9a 02       		.uleb128 0x2
 2192 0b9b 74       		.byte	0x74
 2193 0b9c 10       		.sleb128 16
 2194 0b9d 00       		.byte	0
 2195 0b9e 29       		.uleb128 0x29
 2196 0b9f 2C000000 		.4byte	.LVL36
 2197 0ba3 870F0000 		.4byte	0xf87
 2198 0ba7 00       		.byte	0
 2199 0ba8 13       		.uleb128 0x13
 2200 0ba9 A2070000 		.4byte	0x7a2
 2201 0bad 2A       		.uleb128 0x2a
 2202 0bae 09060000 		.4byte	.LASF125
 2203 0bb2 01       		.byte	0x1
 2204 0bb3 FE       		.byte	0xfe
 2205 0bb4 FA000000 		.4byte	0xfa
ARM GAS  /tmp/cc0Zgg1q.s 			page 40


 2206 0bb8 00000000 		.4byte	.LFB247
 2207 0bbc 14000000 		.4byte	.LFE247-.LFB247
 2208 0bc0 01       		.uleb128 0x1
 2209 0bc1 9C       		.byte	0x9c
 2210 0bc2 A90C0000 		.4byte	0xca9
 2211 0bc6 1F       		.uleb128 0x1f
 2212 0bc7 6D627000 		.ascii	"mbp\000"
 2213 0bcb 01       		.byte	0x1
 2214 0bcc FE       		.byte	0xfe
 2215 0bcd 9C070000 		.4byte	0x79c
 2216 0bd1 E9020000 		.4byte	.LLST19
 2217 0bd5 1F       		.uleb128 0x1f
 2218 0bd6 6D736700 		.ascii	"msg\000"
 2219 0bda 01       		.byte	0x1
 2220 0bdb FE       		.byte	0xfe
 2221 0bdc FA000000 		.4byte	0xfa
 2222 0be0 0A030000 		.4byte	.LLST20
 2223 0be4 2B       		.uleb128 0x2b
 2224 0be5 07020000 		.4byte	.LASF120
 2225 0be9 01       		.byte	0x1
 2226 0bea FE       		.byte	0xfe
 2227 0beb 1B010000 		.4byte	0x11b
 2228 0bef 2B030000 		.4byte	.LLST21
 2229 0bf3 2D       		.uleb128 0x2d
 2230 0bf4 2F000000 		.4byte	.LASF84
 2231 0bf8 01       		.byte	0x1
 2232 0bf9 FF       		.byte	0xff
 2233 0bfa FA000000 		.4byte	0xfa
 2234 0bfe 01       		.uleb128 0x1
 2235 0bff 50       		.byte	0x50
 2236 0c00 35       		.uleb128 0x35
 2237 0c01 E6060000 		.4byte	0x6e6
 2238 0c05 02000000 		.4byte	.LBB88
 2239 0c09 06000000 		.4byte	.LBE88-.LBB88
 2240 0c0d 01       		.byte	0x1
 2241 0c0e 0101     		.2byte	0x101
 2242 0c10 3D0C0000 		.4byte	0xc3d
 2243 0c14 25       		.uleb128 0x25
 2244 0c15 9C060000 		.4byte	0x69c
 2245 0c19 02000000 		.4byte	.LBB89
 2246 0c1d 06000000 		.4byte	.LBE89-.LBB89
 2247 0c21 0E       		.byte	0xe
 2248 0c22 5C01     		.2byte	0x15c
 2249 0c24 25       		.uleb128 0x25
 2250 0c25 82060000 		.4byte	0x682
 2251 0c29 02000000 		.4byte	.LBB90
 2252 0c2d 06000000 		.4byte	.LBE90-.LBB90
 2253 0c31 0A       		.byte	0xa
 2254 0c32 D001     		.2byte	0x1d0
 2255 0c34 26       		.uleb128 0x26
 2256 0c35 8F060000 		.4byte	0x68f
 2257 0c39 20       		.byte	0x20
 2258 0c3a 00       		.byte	0
 2259 0c3b 00       		.byte	0
 2260 0c3c 00       		.byte	0
 2261 0c3d 35       		.uleb128 0x35
 2262 0c3e EF060000 		.4byte	0x6ef
ARM GAS  /tmp/cc0Zgg1q.s 			page 41


 2263 0c42 0C000000 		.4byte	.LBB92
 2264 0c46 06000000 		.4byte	.LBE92-.LBB92
 2265 0c4a 01       		.byte	0x1
 2266 0c4b 0301     		.2byte	0x103
 2267 0c4d 890C0000 		.4byte	0xc89
 2268 0c51 27       		.uleb128 0x27
 2269 0c52 0C000000 		.4byte	.LBB93
 2270 0c56 06000000 		.4byte	.LBE93-.LBB93
 2271 0c5a 28       		.uleb128 0x28
 2272 0c5b FC060000 		.4byte	0x6fc
 2273 0c5f 25       		.uleb128 0x25
 2274 0c60 A5060000 		.4byte	0x6a5
 2275 0c64 0C000000 		.4byte	.LBB94
 2276 0c68 06000000 		.4byte	.LBE94-.LBB94
 2277 0c6c 0E       		.byte	0xe
 2278 0c6d 7301     		.2byte	0x173
 2279 0c6f 25       		.uleb128 0x25
 2280 0c70 82060000 		.4byte	0x682
 2281 0c74 0C000000 		.4byte	.LBB95
 2282 0c78 06000000 		.4byte	.LBE95-.LBB95
 2283 0c7c 0A       		.byte	0xa
 2284 0c7d E301     		.2byte	0x1e3
 2285 0c7f 26       		.uleb128 0x26
 2286 0c80 8F060000 		.4byte	0x68f
 2287 0c84 00       		.byte	0
 2288 0c85 00       		.byte	0
 2289 0c86 00       		.byte	0
 2290 0c87 00       		.byte	0
 2291 0c88 00       		.byte	0
 2292 0c89 2E       		.uleb128 0x2e
 2293 0c8a 0C000000 		.4byte	.LVL39
 2294 0c8e 0C0B0000 		.4byte	0xb0c
 2295 0c92 22       		.uleb128 0x22
 2296 0c93 01       		.uleb128 0x1
 2297 0c94 52       		.byte	0x52
 2298 0c95 03       		.uleb128 0x3
 2299 0c96 F3       		.byte	0xf3
 2300 0c97 01       		.uleb128 0x1
 2301 0c98 52       		.byte	0x52
 2302 0c99 22       		.uleb128 0x22
 2303 0c9a 01       		.uleb128 0x1
 2304 0c9b 51       		.byte	0x51
 2305 0c9c 03       		.uleb128 0x3
 2306 0c9d F3       		.byte	0xf3
 2307 0c9e 01       		.uleb128 0x1
 2308 0c9f 51       		.byte	0x51
 2309 0ca0 22       		.uleb128 0x22
 2310 0ca1 01       		.uleb128 0x1
 2311 0ca2 50       		.byte	0x50
 2312 0ca3 03       		.uleb128 0x3
 2313 0ca4 F3       		.byte	0xf3
 2314 0ca5 01       		.uleb128 0x1
 2315 0ca6 50       		.byte	0x50
 2316 0ca7 00       		.byte	0
 2317 0ca8 00       		.byte	0
 2318 0ca9 31       		.uleb128 0x31
 2319 0caa 87000000 		.4byte	.LASF126
ARM GAS  /tmp/cc0Zgg1q.s 			page 42


 2320 0cae 01       		.byte	0x1
 2321 0caf 3C01     		.2byte	0x13c
 2322 0cb1 FA000000 		.4byte	0xfa
 2323 0cb5 00000000 		.4byte	.LFB249
 2324 0cb9 30000000 		.4byte	.LFE249-.LFB249
 2325 0cbd 01       		.uleb128 0x1
 2326 0cbe 9C       		.byte	0x9c
 2327 0cbf 1E0D0000 		.4byte	0xd1e
 2328 0cc3 32       		.uleb128 0x32
 2329 0cc4 6D627000 		.ascii	"mbp\000"
 2330 0cc8 01       		.byte	0x1
 2331 0cc9 3C01     		.2byte	0x13c
 2332 0ccb 9C070000 		.4byte	0x79c
 2333 0ccf 4C030000 		.4byte	.LLST22
 2334 0cd3 32       		.uleb128 0x32
 2335 0cd4 6D736700 		.ascii	"msg\000"
 2336 0cd8 01       		.byte	0x1
 2337 0cd9 3C01     		.2byte	0x13c
 2338 0cdb FA000000 		.4byte	0xfa
 2339 0cdf 93030000 		.4byte	.LLST23
 2340 0ce3 20       		.uleb128 0x20
 2341 0ce4 1E040000 		.4byte	.LASF118
 2342 0ce8 1E0D0000 		.4byte	0xd1e
 2343 0cec 36       		.uleb128 0x36
 2344 0ced AE060000 		.4byte	0x6ae
 2345 0cf1 0E000000 		.4byte	.LBB97
 2346 0cf5 18000000 		.4byte	.Ldebug_ranges0+0x18
 2347 0cf9 01       		.byte	0x1
 2348 0cfa 4401     		.2byte	0x144
 2349 0cfc 0A0D0000 		.4byte	0xd0a
 2350 0d00 30       		.uleb128 0x30
 2351 0d01 BA060000 		.4byte	0x6ba
 2352 0d05 BF030000 		.4byte	.LLST24
 2353 0d09 00       		.byte	0
 2354 0d0a 2E       		.uleb128 0x2e
 2355 0d0b 26000000 		.4byte	.LVL44
 2356 0d0f A90F0000 		.4byte	0xfa9
 2357 0d13 22       		.uleb128 0x22
 2358 0d14 01       		.uleb128 0x1
 2359 0d15 50       		.byte	0x50
 2360 0d16 05       		.uleb128 0x5
 2361 0d17 F3       		.byte	0xf3
 2362 0d18 01       		.uleb128 0x1
 2363 0d19 50       		.byte	0x50
 2364 0d1a 23       		.byte	0x23
 2365 0d1b 10       		.uleb128 0x10
 2366 0d1c 00       		.byte	0
 2367 0d1d 00       		.byte	0
 2368 0d1e 13       		.uleb128 0x13
 2369 0d1f A2070000 		.4byte	0x7a2
 2370 0d23 31       		.uleb128 0x31
 2371 0d24 66020000 		.4byte	.LASF127
 2372 0d28 01       		.byte	0x1
 2373 0d29 7E01     		.2byte	0x17e
 2374 0d2b FA000000 		.4byte	0xfa
 2375 0d2f 00000000 		.4byte	.LFB251
 2376 0d33 38000000 		.4byte	.LFE251-.LFB251
ARM GAS  /tmp/cc0Zgg1q.s 			page 43


 2377 0d37 01       		.uleb128 0x1
 2378 0d38 9C       		.byte	0x9c
 2379 0d39 BF0D0000 		.4byte	0xdbf
 2380 0d3d 32       		.uleb128 0x32
 2381 0d3e 6D627000 		.ascii	"mbp\000"
 2382 0d42 01       		.byte	0x1
 2383 0d43 7E01     		.2byte	0x17e
 2384 0d45 9C070000 		.4byte	0x79c
 2385 0d49 F1030000 		.4byte	.LLST25
 2386 0d4d 33       		.uleb128 0x33
 2387 0d4e 9D020000 		.4byte	.LASF128
 2388 0d52 01       		.byte	0x1
 2389 0d53 7E01     		.2byte	0x17e
 2390 0d55 71060000 		.4byte	0x671
 2391 0d59 0F040000 		.4byte	.LLST26
 2392 0d5d 33       		.uleb128 0x33
 2393 0d5e 07020000 		.4byte	.LASF120
 2394 0d62 01       		.byte	0x1
 2395 0d63 7E01     		.2byte	0x17e
 2396 0d65 1B010000 		.4byte	0x11b
 2397 0d69 2D040000 		.4byte	.LLST27
 2398 0d6d 34       		.uleb128 0x34
 2399 0d6e 2F000000 		.4byte	.LASF84
 2400 0d72 01       		.byte	0x1
 2401 0d73 7F01     		.2byte	0x17f
 2402 0d75 FA000000 		.4byte	0xfa
 2403 0d79 4E040000 		.4byte	.LLST28
 2404 0d7d 20       		.uleb128 0x20
 2405 0d7e 1E040000 		.4byte	.LASF118
 2406 0d82 BF0D0000 		.4byte	0xdbf
 2407 0d86 21       		.uleb128 0x21
 2408 0d87 0E000000 		.4byte	.LVL50
 2409 0d8b 8F0F0000 		.4byte	0xf8f
 2410 0d8f A10D0000 		.4byte	0xda1
 2411 0d93 22       		.uleb128 0x22
 2412 0d94 01       		.uleb128 0x1
 2413 0d95 51       		.byte	0x51
 2414 0d96 03       		.uleb128 0x3
 2415 0d97 F3       		.byte	0xf3
 2416 0d98 01       		.uleb128 0x1
 2417 0d99 52       		.byte	0x52
 2418 0d9a 22       		.uleb128 0x22
 2419 0d9b 01       		.uleb128 0x1
 2420 0d9c 50       		.byte	0x50
 2421 0d9d 02       		.uleb128 0x2
 2422 0d9e 74       		.byte	0x74
 2423 0d9f 10       		.sleb128 16
 2424 0da0 00       		.byte	0
 2425 0da1 21       		.uleb128 0x21
 2426 0da2 30000000 		.4byte	.LVL52
 2427 0da6 A90F0000 		.4byte	0xfa9
 2428 0daa B50D0000 		.4byte	0xdb5
 2429 0dae 22       		.uleb128 0x22
 2430 0daf 01       		.uleb128 0x1
 2431 0db0 50       		.byte	0x50
 2432 0db1 02       		.uleb128 0x2
 2433 0db2 74       		.byte	0x74
ARM GAS  /tmp/cc0Zgg1q.s 			page 44


 2434 0db3 1C       		.sleb128 28
 2435 0db4 00       		.byte	0
 2436 0db5 29       		.uleb128 0x29
 2437 0db6 34000000 		.4byte	.LVL53
 2438 0dba 870F0000 		.4byte	0xf87
 2439 0dbe 00       		.byte	0
 2440 0dbf 13       		.uleb128 0x13
 2441 0dc0 11080000 		.4byte	0x811
 2442 0dc4 31       		.uleb128 0x31
 2443 0dc5 EA020000 		.4byte	.LASF129
 2444 0dc9 01       		.byte	0x1
 2445 0dca 6101     		.2byte	0x161
 2446 0dcc FA000000 		.4byte	0xfa
 2447 0dd0 00000000 		.4byte	.LFB250
 2448 0dd4 14000000 		.4byte	.LFE250-.LFB250
 2449 0dd8 01       		.uleb128 0x1
 2450 0dd9 9C       		.byte	0x9c
 2451 0dda C50E0000 		.4byte	0xec5
 2452 0dde 32       		.uleb128 0x32
 2453 0ddf 6D627000 		.ascii	"mbp\000"
 2454 0de3 01       		.byte	0x1
 2455 0de4 6101     		.2byte	0x161
 2456 0de6 9C070000 		.4byte	0x79c
 2457 0dea 6C040000 		.4byte	.LLST29
 2458 0dee 33       		.uleb128 0x33
 2459 0def 9D020000 		.4byte	.LASF128
 2460 0df3 01       		.byte	0x1
 2461 0df4 6101     		.2byte	0x161
 2462 0df6 71060000 		.4byte	0x671
 2463 0dfa 8D040000 		.4byte	.LLST30
 2464 0dfe 33       		.uleb128 0x33
 2465 0dff 07020000 		.4byte	.LASF120
 2466 0e03 01       		.byte	0x1
 2467 0e04 6101     		.2byte	0x161
 2468 0e06 1B010000 		.4byte	0x11b
 2469 0e0a AE040000 		.4byte	.LLST31
 2470 0e0e 37       		.uleb128 0x37
 2471 0e0f 2F000000 		.4byte	.LASF84
 2472 0e13 01       		.byte	0x1
 2473 0e14 6201     		.2byte	0x162
 2474 0e16 FA000000 		.4byte	0xfa
 2475 0e1a 01       		.uleb128 0x1
 2476 0e1b 50       		.byte	0x50
 2477 0e1c 35       		.uleb128 0x35
 2478 0e1d E6060000 		.4byte	0x6e6
 2479 0e21 02000000 		.4byte	.LBB101
 2480 0e25 06000000 		.4byte	.LBE101-.LBB101
 2481 0e29 01       		.byte	0x1
 2482 0e2a 6401     		.2byte	0x164
 2483 0e2c 590E0000 		.4byte	0xe59
 2484 0e30 25       		.uleb128 0x25
 2485 0e31 9C060000 		.4byte	0x69c
 2486 0e35 02000000 		.4byte	.LBB102
 2487 0e39 06000000 		.4byte	.LBE102-.LBB102
 2488 0e3d 0E       		.byte	0xe
 2489 0e3e 5C01     		.2byte	0x15c
 2490 0e40 25       		.uleb128 0x25
ARM GAS  /tmp/cc0Zgg1q.s 			page 45


 2491 0e41 82060000 		.4byte	0x682
 2492 0e45 02000000 		.4byte	.LBB103
 2493 0e49 06000000 		.4byte	.LBE103-.LBB103
 2494 0e4d 0A       		.byte	0xa
 2495 0e4e D001     		.2byte	0x1d0
 2496 0e50 26       		.uleb128 0x26
 2497 0e51 8F060000 		.4byte	0x68f
 2498 0e55 20       		.byte	0x20
 2499 0e56 00       		.byte	0
 2500 0e57 00       		.byte	0
 2501 0e58 00       		.byte	0
 2502 0e59 35       		.uleb128 0x35
 2503 0e5a EF060000 		.4byte	0x6ef
 2504 0e5e 0C000000 		.4byte	.LBB105
 2505 0e62 06000000 		.4byte	.LBE105-.LBB105
 2506 0e66 01       		.byte	0x1
 2507 0e67 6601     		.2byte	0x166
 2508 0e69 A50E0000 		.4byte	0xea5
 2509 0e6d 27       		.uleb128 0x27
 2510 0e6e 0C000000 		.4byte	.LBB106
 2511 0e72 06000000 		.4byte	.LBE106-.LBB106
 2512 0e76 28       		.uleb128 0x28
 2513 0e77 FC060000 		.4byte	0x6fc
 2514 0e7b 25       		.uleb128 0x25
 2515 0e7c A5060000 		.4byte	0x6a5
 2516 0e80 0C000000 		.4byte	.LBB107
 2517 0e84 06000000 		.4byte	.LBE107-.LBB107
 2518 0e88 0E       		.byte	0xe
 2519 0e89 7301     		.2byte	0x173
 2520 0e8b 25       		.uleb128 0x25
 2521 0e8c 82060000 		.4byte	0x682
 2522 0e90 0C000000 		.4byte	.LBB108
 2523 0e94 06000000 		.4byte	.LBE108-.LBB108
 2524 0e98 0A       		.byte	0xa
 2525 0e99 E301     		.2byte	0x1e3
 2526 0e9b 26       		.uleb128 0x26
 2527 0e9c 8F060000 		.4byte	0x68f
 2528 0ea0 00       		.byte	0
 2529 0ea1 00       		.byte	0
 2530 0ea2 00       		.byte	0
 2531 0ea3 00       		.byte	0
 2532 0ea4 00       		.byte	0
 2533 0ea5 2E       		.uleb128 0x2e
 2534 0ea6 0C000000 		.4byte	.LVL55
 2535 0eaa 230D0000 		.4byte	0xd23
 2536 0eae 22       		.uleb128 0x22
 2537 0eaf 01       		.uleb128 0x1
 2538 0eb0 52       		.byte	0x52
 2539 0eb1 03       		.uleb128 0x3
 2540 0eb2 F3       		.byte	0xf3
 2541 0eb3 01       		.uleb128 0x1
 2542 0eb4 52       		.byte	0x52
 2543 0eb5 22       		.uleb128 0x22
 2544 0eb6 01       		.uleb128 0x1
 2545 0eb7 51       		.byte	0x51
 2546 0eb8 03       		.uleb128 0x3
 2547 0eb9 F3       		.byte	0xf3
ARM GAS  /tmp/cc0Zgg1q.s 			page 46


 2548 0eba 01       		.uleb128 0x1
 2549 0ebb 51       		.byte	0x51
 2550 0ebc 22       		.uleb128 0x22
 2551 0ebd 01       		.uleb128 0x1
 2552 0ebe 50       		.byte	0x50
 2553 0ebf 03       		.uleb128 0x3
 2554 0ec0 F3       		.byte	0xf3
 2555 0ec1 01       		.uleb128 0x1
 2556 0ec2 50       		.byte	0x50
 2557 0ec3 00       		.byte	0
 2558 0ec4 00       		.byte	0
 2559 0ec5 31       		.uleb128 0x31
 2560 0ec6 41020000 		.4byte	.LASF130
 2561 0eca 01       		.byte	0x1
 2562 0ecb 9F01     		.2byte	0x19f
 2563 0ecd FA000000 		.4byte	0xfa
 2564 0ed1 00000000 		.4byte	.LFB252
 2565 0ed5 36000000 		.4byte	.LFE252-.LFB252
 2566 0ed9 01       		.uleb128 0x1
 2567 0eda 9C       		.byte	0x9c
 2568 0edb 3A0F0000 		.4byte	0xf3a
 2569 0edf 32       		.uleb128 0x32
 2570 0ee0 6D627000 		.ascii	"mbp\000"
 2571 0ee4 01       		.byte	0x1
 2572 0ee5 9F01     		.2byte	0x19f
 2573 0ee7 9C070000 		.4byte	0x79c
 2574 0eeb CF040000 		.4byte	.LLST32
 2575 0eef 33       		.uleb128 0x33
 2576 0ef0 9D020000 		.4byte	.LASF128
 2577 0ef4 01       		.byte	0x1
 2578 0ef5 9F01     		.2byte	0x19f
 2579 0ef7 71060000 		.4byte	0x671
 2580 0efb 16050000 		.4byte	.LLST33
 2581 0eff 20       		.uleb128 0x20
 2582 0f00 1E040000 		.4byte	.LASF118
 2583 0f04 3A0F0000 		.4byte	0xf3a
 2584 0f08 36       		.uleb128 0x36
 2585 0f09 AE060000 		.4byte	0x6ae
 2586 0f0d 08000000 		.4byte	.LBB110
 2587 0f11 30000000 		.4byte	.Ldebug_ranges0+0x30
 2588 0f15 01       		.byte	0x1
 2589 0f16 A701     		.2byte	0x1a7
 2590 0f18 260F0000 		.4byte	0xf26
 2591 0f1c 30       		.uleb128 0x30
 2592 0f1d BA060000 		.4byte	0x6ba
 2593 0f21 42050000 		.4byte	.LLST34
 2594 0f25 00       		.byte	0
 2595 0f26 2E       		.uleb128 0x2e
 2596 0f27 2C000000 		.4byte	.LVL60
 2597 0f2b A90F0000 		.4byte	0xfa9
 2598 0f2f 22       		.uleb128 0x22
 2599 0f30 01       		.uleb128 0x1
 2600 0f31 50       		.byte	0x50
 2601 0f32 05       		.uleb128 0x5
 2602 0f33 F3       		.byte	0xf3
 2603 0f34 01       		.uleb128 0x1
 2604 0f35 50       		.byte	0x50
ARM GAS  /tmp/cc0Zgg1q.s 			page 47


 2605 0f36 23       		.byte	0x23
 2606 0f37 1C       		.uleb128 0x1c
 2607 0f38 00       		.byte	0
 2608 0f39 00       		.byte	0
 2609 0f3a 13       		.uleb128 0x13
 2610 0f3b 11080000 		.4byte	0x811
 2611 0f3f 38       		.uleb128 0x38
 2612 0f40 D8030000 		.4byte	.LASF131
 2613 0f44 0F       		.byte	0xf
 2614 0f45 FA06     		.2byte	0x6fa
 2615 0f47 4B0F0000 		.4byte	0xf4b
 2616 0f4b 14       		.uleb128 0x14
 2617 0f4c A2000000 		.4byte	0xa2
 2618 0f50 39       		.uleb128 0x39
 2619 0f51 636800   		.ascii	"ch\000"
 2620 0f54 08       		.byte	0x8
 2621 0f55 0B02     		.2byte	0x20b
 2622 0f57 C8030000 		.4byte	0x3c8
 2623 0f5b 3A       		.uleb128 0x3a
 2624 0f5c CA010000 		.4byte	.LASF132
 2625 0f60 03       		.byte	0x3
 2626 0f61 5B       		.byte	0x5b
 2627 0f62 710F0000 		.4byte	0xf71
 2628 0f66 0C       		.uleb128 0xc
 2629 0f67 C5060000 		.4byte	0x6c5
 2630 0f6b 0C       		.uleb128 0xc
 2631 0f6c 10010000 		.4byte	0x110
 2632 0f70 00       		.byte	0
 2633 0f71 3A       		.uleb128 0x3a
 2634 0f72 60060000 		.4byte	.LASF133
 2635 0f76 03       		.byte	0x3
 2636 0f77 5D       		.byte	0x5d
 2637 0f78 870F0000 		.4byte	0xf87
 2638 0f7c 0C       		.uleb128 0xc
 2639 0f7d C5060000 		.4byte	0x6c5
 2640 0f81 0C       		.uleb128 0xc
 2641 0f82 10010000 		.4byte	0x110
 2642 0f86 00       		.byte	0
 2643 0f87 3B       		.uleb128 0x3b
 2644 0f88 80010000 		.4byte	.LASF138
 2645 0f8c 08       		.byte	0x8
 2646 0f8d 1902     		.2byte	0x219
 2647 0f8f 3C       		.uleb128 0x3c
 2648 0f90 B7040000 		.4byte	.LASF139
 2649 0f94 03       		.byte	0x3
 2650 0f95 61       		.byte	0x61
 2651 0f96 FA000000 		.4byte	0xfa
 2652 0f9a A90F0000 		.4byte	0xfa9
 2653 0f9e 0C       		.uleb128 0xc
 2654 0f9f C5060000 		.4byte	0x6c5
 2655 0fa3 0C       		.uleb128 0xc
 2656 0fa4 1B010000 		.4byte	0x11b
 2657 0fa8 00       		.byte	0
 2658 0fa9 3D       		.uleb128 0x3d
 2659 0faa 1C000000 		.4byte	.LASF140
 2660 0fae 03       		.byte	0x3
 2661 0faf 63       		.byte	0x63
ARM GAS  /tmp/cc0Zgg1q.s 			page 48


 2662 0fb0 0C       		.uleb128 0xc
 2663 0fb1 C5060000 		.4byte	0x6c5
 2664 0fb5 00       		.byte	0
 2665 0fb6 00       		.byte	0
 2666              		.section	.debug_abbrev,"",%progbits
 2667              	.Ldebug_abbrev0:
 2668 0000 01       		.uleb128 0x1
 2669 0001 11       		.uleb128 0x11
 2670 0002 01       		.byte	0x1
 2671 0003 25       		.uleb128 0x25
 2672 0004 0E       		.uleb128 0xe
 2673 0005 13       		.uleb128 0x13
 2674 0006 0B       		.uleb128 0xb
 2675 0007 03       		.uleb128 0x3
 2676 0008 0E       		.uleb128 0xe
 2677 0009 1B       		.uleb128 0x1b
 2678 000a 0E       		.uleb128 0xe
 2679 000b 55       		.uleb128 0x55
 2680 000c 17       		.uleb128 0x17
 2681 000d 11       		.uleb128 0x11
 2682 000e 01       		.uleb128 0x1
 2683 000f 10       		.uleb128 0x10
 2684 0010 17       		.uleb128 0x17
 2685 0011 00       		.byte	0
 2686 0012 00       		.byte	0
 2687 0013 02       		.uleb128 0x2
 2688 0014 24       		.uleb128 0x24
 2689 0015 00       		.byte	0
 2690 0016 0B       		.uleb128 0xb
 2691 0017 0B       		.uleb128 0xb
 2692 0018 3E       		.uleb128 0x3e
 2693 0019 0B       		.uleb128 0xb
 2694 001a 03       		.uleb128 0x3
 2695 001b 08       		.uleb128 0x8
 2696 001c 00       		.byte	0
 2697 001d 00       		.byte	0
 2698 001e 03       		.uleb128 0x3
 2699 001f 24       		.uleb128 0x24
 2700 0020 00       		.byte	0
 2701 0021 0B       		.uleb128 0xb
 2702 0022 0B       		.uleb128 0xb
 2703 0023 3E       		.uleb128 0x3e
 2704 0024 0B       		.uleb128 0xb
 2705 0025 03       		.uleb128 0x3
 2706 0026 0E       		.uleb128 0xe
 2707 0027 00       		.byte	0
 2708 0028 00       		.byte	0
 2709 0029 04       		.uleb128 0x4
 2710 002a 16       		.uleb128 0x16
 2711 002b 00       		.byte	0
 2712 002c 03       		.uleb128 0x3
 2713 002d 0E       		.uleb128 0xe
 2714 002e 3A       		.uleb128 0x3a
 2715 002f 0B       		.uleb128 0xb
 2716 0030 3B       		.uleb128 0x3b
 2717 0031 0B       		.uleb128 0xb
 2718 0032 49       		.uleb128 0x49
ARM GAS  /tmp/cc0Zgg1q.s 			page 49


 2719 0033 13       		.uleb128 0x13
 2720 0034 00       		.byte	0
 2721 0035 00       		.byte	0
 2722 0036 05       		.uleb128 0x5
 2723 0037 13       		.uleb128 0x13
 2724 0038 01       		.byte	0x1
 2725 0039 03       		.uleb128 0x3
 2726 003a 0E       		.uleb128 0xe
 2727 003b 0B       		.uleb128 0xb
 2728 003c 0B       		.uleb128 0xb
 2729 003d 3A       		.uleb128 0x3a
 2730 003e 0B       		.uleb128 0xb
 2731 003f 3B       		.uleb128 0x3b
 2732 0040 0B       		.uleb128 0xb
 2733 0041 01       		.uleb128 0x1
 2734 0042 13       		.uleb128 0x13
 2735 0043 00       		.byte	0
 2736 0044 00       		.byte	0
 2737 0045 06       		.uleb128 0x6
 2738 0046 0D       		.uleb128 0xd
 2739 0047 00       		.byte	0
 2740 0048 03       		.uleb128 0x3
 2741 0049 0E       		.uleb128 0xe
 2742 004a 3A       		.uleb128 0x3a
 2743 004b 0B       		.uleb128 0xb
 2744 004c 3B       		.uleb128 0x3b
 2745 004d 0B       		.uleb128 0xb
 2746 004e 49       		.uleb128 0x49
 2747 004f 13       		.uleb128 0x13
 2748 0050 38       		.uleb128 0x38
 2749 0051 0B       		.uleb128 0xb
 2750 0052 00       		.byte	0
 2751 0053 00       		.byte	0
 2752 0054 07       		.uleb128 0x7
 2753 0055 0D       		.uleb128 0xd
 2754 0056 00       		.byte	0
 2755 0057 03       		.uleb128 0x3
 2756 0058 08       		.uleb128 0x8
 2757 0059 3A       		.uleb128 0x3a
 2758 005a 0B       		.uleb128 0xb
 2759 005b 3B       		.uleb128 0x3b
 2760 005c 05       		.uleb128 0x5
 2761 005d 49       		.uleb128 0x49
 2762 005e 13       		.uleb128 0x13
 2763 005f 38       		.uleb128 0x38
 2764 0060 0B       		.uleb128 0xb
 2765 0061 00       		.byte	0
 2766 0062 00       		.byte	0
 2767 0063 08       		.uleb128 0x8
 2768 0064 0D       		.uleb128 0xd
 2769 0065 00       		.byte	0
 2770 0066 03       		.uleb128 0x3
 2771 0067 0E       		.uleb128 0xe
 2772 0068 3A       		.uleb128 0x3a
 2773 0069 0B       		.uleb128 0xb
 2774 006a 3B       		.uleb128 0x3b
 2775 006b 05       		.uleb128 0x5
ARM GAS  /tmp/cc0Zgg1q.s 			page 50


 2776 006c 49       		.uleb128 0x49
 2777 006d 13       		.uleb128 0x13
 2778 006e 38       		.uleb128 0x38
 2779 006f 0B       		.uleb128 0xb
 2780 0070 00       		.byte	0
 2781 0071 00       		.byte	0
 2782 0072 09       		.uleb128 0x9
 2783 0073 0F       		.uleb128 0xf
 2784 0074 00       		.byte	0
 2785 0075 0B       		.uleb128 0xb
 2786 0076 0B       		.uleb128 0xb
 2787 0077 49       		.uleb128 0x49
 2788 0078 13       		.uleb128 0x13
 2789 0079 00       		.byte	0
 2790 007a 00       		.byte	0
 2791 007b 0A       		.uleb128 0xa
 2792 007c 13       		.uleb128 0x13
 2793 007d 01       		.byte	0x1
 2794 007e 03       		.uleb128 0x3
 2795 007f 0E       		.uleb128 0xe
 2796 0080 0B       		.uleb128 0xb
 2797 0081 0B       		.uleb128 0xb
 2798 0082 3A       		.uleb128 0x3a
 2799 0083 0B       		.uleb128 0xb
 2800 0084 3B       		.uleb128 0x3b
 2801 0085 05       		.uleb128 0x5
 2802 0086 01       		.uleb128 0x1
 2803 0087 13       		.uleb128 0x13
 2804 0088 00       		.byte	0
 2805 0089 00       		.byte	0
 2806 008a 0B       		.uleb128 0xb
 2807 008b 15       		.uleb128 0x15
 2808 008c 01       		.byte	0x1
 2809 008d 27       		.uleb128 0x27
 2810 008e 19       		.uleb128 0x19
 2811 008f 01       		.uleb128 0x1
 2812 0090 13       		.uleb128 0x13
 2813 0091 00       		.byte	0
 2814 0092 00       		.byte	0
 2815 0093 0C       		.uleb128 0xc
 2816 0094 05       		.uleb128 0x5
 2817 0095 00       		.byte	0
 2818 0096 49       		.uleb128 0x49
 2819 0097 13       		.uleb128 0x13
 2820 0098 00       		.byte	0
 2821 0099 00       		.byte	0
 2822 009a 0D       		.uleb128 0xd
 2823 009b 0F       		.uleb128 0xf
 2824 009c 00       		.byte	0
 2825 009d 0B       		.uleb128 0xb
 2826 009e 0B       		.uleb128 0xb
 2827 009f 00       		.byte	0
 2828 00a0 00       		.byte	0
 2829 00a1 0E       		.uleb128 0xe
 2830 00a2 13       		.uleb128 0x13
 2831 00a3 01       		.byte	0x1
 2832 00a4 03       		.uleb128 0x3
ARM GAS  /tmp/cc0Zgg1q.s 			page 51


 2833 00a5 0E       		.uleb128 0xe
 2834 00a6 0B       		.uleb128 0xb
 2835 00a7 05       		.uleb128 0x5
 2836 00a8 3A       		.uleb128 0x3a
 2837 00a9 0B       		.uleb128 0xb
 2838 00aa 3B       		.uleb128 0x3b
 2839 00ab 05       		.uleb128 0x5
 2840 00ac 01       		.uleb128 0x1
 2841 00ad 13       		.uleb128 0x13
 2842 00ae 00       		.byte	0
 2843 00af 00       		.byte	0
 2844 00b0 0F       		.uleb128 0xf
 2845 00b1 0D       		.uleb128 0xd
 2846 00b2 00       		.byte	0
 2847 00b3 03       		.uleb128 0x3
 2848 00b4 08       		.uleb128 0x8
 2849 00b5 3A       		.uleb128 0x3a
 2850 00b6 0B       		.uleb128 0xb
 2851 00b7 3B       		.uleb128 0x3b
 2852 00b8 0B       		.uleb128 0xb
 2853 00b9 49       		.uleb128 0x49
 2854 00ba 13       		.uleb128 0x13
 2855 00bb 38       		.uleb128 0x38
 2856 00bc 0B       		.uleb128 0xb
 2857 00bd 00       		.byte	0
 2858 00be 00       		.byte	0
 2859 00bf 10       		.uleb128 0x10
 2860 00c0 13       		.uleb128 0x13
 2861 00c1 01       		.byte	0x1
 2862 00c2 0B       		.uleb128 0xb
 2863 00c3 0B       		.uleb128 0xb
 2864 00c4 3A       		.uleb128 0x3a
 2865 00c5 0B       		.uleb128 0xb
 2866 00c6 3B       		.uleb128 0x3b
 2867 00c7 0B       		.uleb128 0xb
 2868 00c8 01       		.uleb128 0x1
 2869 00c9 13       		.uleb128 0x13
 2870 00ca 00       		.byte	0
 2871 00cb 00       		.byte	0
 2872 00cc 11       		.uleb128 0x11
 2873 00cd 17       		.uleb128 0x17
 2874 00ce 01       		.byte	0x1
 2875 00cf 0B       		.uleb128 0xb
 2876 00d0 0B       		.uleb128 0xb
 2877 00d1 3A       		.uleb128 0x3a
 2878 00d2 0B       		.uleb128 0xb
 2879 00d3 3B       		.uleb128 0x3b
 2880 00d4 0B       		.uleb128 0xb
 2881 00d5 01       		.uleb128 0x1
 2882 00d6 13       		.uleb128 0x13
 2883 00d7 00       		.byte	0
 2884 00d8 00       		.byte	0
 2885 00d9 12       		.uleb128 0x12
 2886 00da 0D       		.uleb128 0xd
 2887 00db 00       		.byte	0
 2888 00dc 03       		.uleb128 0x3
 2889 00dd 0E       		.uleb128 0xe
ARM GAS  /tmp/cc0Zgg1q.s 			page 52


 2890 00de 3A       		.uleb128 0x3a
 2891 00df 0B       		.uleb128 0xb
 2892 00e0 3B       		.uleb128 0x3b
 2893 00e1 05       		.uleb128 0x5
 2894 00e2 49       		.uleb128 0x49
 2895 00e3 13       		.uleb128 0x13
 2896 00e4 00       		.byte	0
 2897 00e5 00       		.byte	0
 2898 00e6 13       		.uleb128 0x13
 2899 00e7 26       		.uleb128 0x26
 2900 00e8 00       		.byte	0
 2901 00e9 49       		.uleb128 0x49
 2902 00ea 13       		.uleb128 0x13
 2903 00eb 00       		.byte	0
 2904 00ec 00       		.byte	0
 2905 00ed 14       		.uleb128 0x14
 2906 00ee 35       		.uleb128 0x35
 2907 00ef 00       		.byte	0
 2908 00f0 49       		.uleb128 0x49
 2909 00f1 13       		.uleb128 0x13
 2910 00f2 00       		.byte	0
 2911 00f3 00       		.byte	0
 2912 00f4 15       		.uleb128 0x15
 2913 00f5 01       		.uleb128 0x1
 2914 00f6 01       		.byte	0x1
 2915 00f7 49       		.uleb128 0x49
 2916 00f8 13       		.uleb128 0x13
 2917 00f9 01       		.uleb128 0x1
 2918 00fa 13       		.uleb128 0x13
 2919 00fb 00       		.byte	0
 2920 00fc 00       		.byte	0
 2921 00fd 16       		.uleb128 0x16
 2922 00fe 21       		.uleb128 0x21
 2923 00ff 00       		.byte	0
 2924 0100 49       		.uleb128 0x49
 2925 0101 13       		.uleb128 0x13
 2926 0102 2F       		.uleb128 0x2f
 2927 0103 0B       		.uleb128 0xb
 2928 0104 00       		.byte	0
 2929 0105 00       		.byte	0
 2930 0106 17       		.uleb128 0x17
 2931 0107 2E       		.uleb128 0x2e
 2932 0108 01       		.byte	0x1
 2933 0109 03       		.uleb128 0x3
 2934 010a 0E       		.uleb128 0xe
 2935 010b 3A       		.uleb128 0x3a
 2936 010c 0B       		.uleb128 0xb
 2937 010d 3B       		.uleb128 0x3b
 2938 010e 05       		.uleb128 0x5
 2939 010f 27       		.uleb128 0x27
 2940 0110 19       		.uleb128 0x19
 2941 0111 20       		.uleb128 0x20
 2942 0112 0B       		.uleb128 0xb
 2943 0113 01       		.uleb128 0x1
 2944 0114 13       		.uleb128 0x13
 2945 0115 00       		.byte	0
 2946 0116 00       		.byte	0
ARM GAS  /tmp/cc0Zgg1q.s 			page 53


 2947 0117 18       		.uleb128 0x18
 2948 0118 05       		.uleb128 0x5
 2949 0119 00       		.byte	0
 2950 011a 03       		.uleb128 0x3
 2951 011b 0E       		.uleb128 0xe
 2952 011c 3A       		.uleb128 0x3a
 2953 011d 0B       		.uleb128 0xb
 2954 011e 3B       		.uleb128 0x3b
 2955 011f 05       		.uleb128 0x5
 2956 0120 49       		.uleb128 0x49
 2957 0121 13       		.uleb128 0x13
 2958 0122 00       		.byte	0
 2959 0123 00       		.byte	0
 2960 0124 19       		.uleb128 0x19
 2961 0125 2E       		.uleb128 0x2e
 2962 0126 00       		.byte	0
 2963 0127 03       		.uleb128 0x3
 2964 0128 0E       		.uleb128 0xe
 2965 0129 3A       		.uleb128 0x3a
 2966 012a 0B       		.uleb128 0xb
 2967 012b 3B       		.uleb128 0x3b
 2968 012c 05       		.uleb128 0x5
 2969 012d 27       		.uleb128 0x27
 2970 012e 19       		.uleb128 0x19
 2971 012f 20       		.uleb128 0x20
 2972 0130 0B       		.uleb128 0xb
 2973 0131 00       		.byte	0
 2974 0132 00       		.byte	0
 2975 0133 1A       		.uleb128 0x1a
 2976 0134 2E       		.uleb128 0x2e
 2977 0135 01       		.byte	0x1
 2978 0136 03       		.uleb128 0x3
 2979 0137 0E       		.uleb128 0xe
 2980 0138 3A       		.uleb128 0x3a
 2981 0139 0B       		.uleb128 0xb
 2982 013a 3B       		.uleb128 0x3b
 2983 013b 0B       		.uleb128 0xb
 2984 013c 27       		.uleb128 0x27
 2985 013d 19       		.uleb128 0x19
 2986 013e 20       		.uleb128 0x20
 2987 013f 0B       		.uleb128 0xb
 2988 0140 01       		.uleb128 0x1
 2989 0141 13       		.uleb128 0x13
 2990 0142 00       		.byte	0
 2991 0143 00       		.byte	0
 2992 0144 1B       		.uleb128 0x1b
 2993 0145 05       		.uleb128 0x5
 2994 0146 00       		.byte	0
 2995 0147 03       		.uleb128 0x3
 2996 0148 08       		.uleb128 0x8
 2997 0149 3A       		.uleb128 0x3a
 2998 014a 0B       		.uleb128 0xb
 2999 014b 3B       		.uleb128 0x3b
 3000 014c 0B       		.uleb128 0xb
 3001 014d 49       		.uleb128 0x49
 3002 014e 13       		.uleb128 0x13
 3003 014f 00       		.byte	0
ARM GAS  /tmp/cc0Zgg1q.s 			page 54


 3004 0150 00       		.byte	0
 3005 0151 1C       		.uleb128 0x1c
 3006 0152 2E       		.uleb128 0x2e
 3007 0153 01       		.byte	0x1
 3008 0154 03       		.uleb128 0x3
 3009 0155 0E       		.uleb128 0xe
 3010 0156 3A       		.uleb128 0x3a
 3011 0157 0B       		.uleb128 0xb
 3012 0158 3B       		.uleb128 0x3b
 3013 0159 0B       		.uleb128 0xb
 3014 015a 27       		.uleb128 0x27
 3015 015b 19       		.uleb128 0x19
 3016 015c 49       		.uleb128 0x49
 3017 015d 13       		.uleb128 0x13
 3018 015e 20       		.uleb128 0x20
 3019 015f 0B       		.uleb128 0xb
 3020 0160 01       		.uleb128 0x1
 3021 0161 13       		.uleb128 0x13
 3022 0162 00       		.byte	0
 3023 0163 00       		.byte	0
 3024 0164 1D       		.uleb128 0x1d
 3025 0165 34       		.uleb128 0x34
 3026 0166 00       		.byte	0
 3027 0167 03       		.uleb128 0x3
 3028 0168 0E       		.uleb128 0xe
 3029 0169 49       		.uleb128 0x49
 3030 016a 13       		.uleb128 0x13
 3031 016b 34       		.uleb128 0x34
 3032 016c 19       		.uleb128 0x19
 3033 016d 1C       		.uleb128 0x1c
 3034 016e 0E       		.uleb128 0xe
 3035 016f 00       		.byte	0
 3036 0170 00       		.byte	0
 3037 0171 1E       		.uleb128 0x1e
 3038 0172 2E       		.uleb128 0x2e
 3039 0173 01       		.byte	0x1
 3040 0174 3F       		.uleb128 0x3f
 3041 0175 19       		.uleb128 0x19
 3042 0176 03       		.uleb128 0x3
 3043 0177 0E       		.uleb128 0xe
 3044 0178 3A       		.uleb128 0x3a
 3045 0179 0B       		.uleb128 0xb
 3046 017a 3B       		.uleb128 0x3b
 3047 017b 0B       		.uleb128 0xb
 3048 017c 27       		.uleb128 0x27
 3049 017d 19       		.uleb128 0x19
 3050 017e 11       		.uleb128 0x11
 3051 017f 01       		.uleb128 0x1
 3052 0180 12       		.uleb128 0x12
 3053 0181 06       		.uleb128 0x6
 3054 0182 40       		.uleb128 0x40
 3055 0183 18       		.uleb128 0x18
 3056 0184 9742     		.uleb128 0x2117
 3057 0186 19       		.uleb128 0x19
 3058 0187 01       		.uleb128 0x1
 3059 0188 13       		.uleb128 0x13
 3060 0189 00       		.byte	0
ARM GAS  /tmp/cc0Zgg1q.s 			page 55


 3061 018a 00       		.byte	0
 3062 018b 1F       		.uleb128 0x1f
 3063 018c 05       		.uleb128 0x5
 3064 018d 00       		.byte	0
 3065 018e 03       		.uleb128 0x3
 3066 018f 08       		.uleb128 0x8
 3067 0190 3A       		.uleb128 0x3a
 3068 0191 0B       		.uleb128 0xb
 3069 0192 3B       		.uleb128 0x3b
 3070 0193 0B       		.uleb128 0xb
 3071 0194 49       		.uleb128 0x49
 3072 0195 13       		.uleb128 0x13
 3073 0196 02       		.uleb128 0x2
 3074 0197 17       		.uleb128 0x17
 3075 0198 00       		.byte	0
 3076 0199 00       		.byte	0
 3077 019a 20       		.uleb128 0x20
 3078 019b 34       		.uleb128 0x34
 3079 019c 00       		.byte	0
 3080 019d 03       		.uleb128 0x3
 3081 019e 0E       		.uleb128 0xe
 3082 019f 49       		.uleb128 0x49
 3083 01a0 13       		.uleb128 0x13
 3084 01a1 34       		.uleb128 0x34
 3085 01a2 19       		.uleb128 0x19
 3086 01a3 00       		.byte	0
 3087 01a4 00       		.byte	0
 3088 01a5 21       		.uleb128 0x21
 3089 01a6 898201   		.uleb128 0x4109
 3090 01a9 01       		.byte	0x1
 3091 01aa 11       		.uleb128 0x11
 3092 01ab 01       		.uleb128 0x1
 3093 01ac 31       		.uleb128 0x31
 3094 01ad 13       		.uleb128 0x13
 3095 01ae 01       		.uleb128 0x1
 3096 01af 13       		.uleb128 0x13
 3097 01b0 00       		.byte	0
 3098 01b1 00       		.byte	0
 3099 01b2 22       		.uleb128 0x22
 3100 01b3 8A8201   		.uleb128 0x410a
 3101 01b6 00       		.byte	0
 3102 01b7 02       		.uleb128 0x2
 3103 01b8 18       		.uleb128 0x18
 3104 01b9 9142     		.uleb128 0x2111
 3105 01bb 18       		.uleb128 0x18
 3106 01bc 00       		.byte	0
 3107 01bd 00       		.byte	0
 3108 01be 23       		.uleb128 0x23
 3109 01bf 898201   		.uleb128 0x4109
 3110 01c2 01       		.byte	0x1
 3111 01c3 11       		.uleb128 0x11
 3112 01c4 01       		.uleb128 0x1
 3113 01c5 9542     		.uleb128 0x2115
 3114 01c7 19       		.uleb128 0x19
 3115 01c8 31       		.uleb128 0x31
 3116 01c9 13       		.uleb128 0x13
 3117 01ca 00       		.byte	0
ARM GAS  /tmp/cc0Zgg1q.s 			page 56


 3118 01cb 00       		.byte	0
 3119 01cc 24       		.uleb128 0x24
 3120 01cd 1D       		.uleb128 0x1d
 3121 01ce 01       		.byte	0x1
 3122 01cf 31       		.uleb128 0x31
 3123 01d0 13       		.uleb128 0x13
 3124 01d1 11       		.uleb128 0x11
 3125 01d2 01       		.uleb128 0x1
 3126 01d3 12       		.uleb128 0x12
 3127 01d4 06       		.uleb128 0x6
 3128 01d5 58       		.uleb128 0x58
 3129 01d6 0B       		.uleb128 0xb
 3130 01d7 59       		.uleb128 0x59
 3131 01d8 0B       		.uleb128 0xb
 3132 01d9 01       		.uleb128 0x1
 3133 01da 13       		.uleb128 0x13
 3134 01db 00       		.byte	0
 3135 01dc 00       		.byte	0
 3136 01dd 25       		.uleb128 0x25
 3137 01de 1D       		.uleb128 0x1d
 3138 01df 01       		.byte	0x1
 3139 01e0 31       		.uleb128 0x31
 3140 01e1 13       		.uleb128 0x13
 3141 01e2 11       		.uleb128 0x11
 3142 01e3 01       		.uleb128 0x1
 3143 01e4 12       		.uleb128 0x12
 3144 01e5 06       		.uleb128 0x6
 3145 01e6 58       		.uleb128 0x58
 3146 01e7 0B       		.uleb128 0xb
 3147 01e8 59       		.uleb128 0x59
 3148 01e9 05       		.uleb128 0x5
 3149 01ea 00       		.byte	0
 3150 01eb 00       		.byte	0
 3151 01ec 26       		.uleb128 0x26
 3152 01ed 05       		.uleb128 0x5
 3153 01ee 00       		.byte	0
 3154 01ef 31       		.uleb128 0x31
 3155 01f0 13       		.uleb128 0x13
 3156 01f1 1C       		.uleb128 0x1c
 3157 01f2 0B       		.uleb128 0xb
 3158 01f3 00       		.byte	0
 3159 01f4 00       		.byte	0
 3160 01f5 27       		.uleb128 0x27
 3161 01f6 0B       		.uleb128 0xb
 3162 01f7 01       		.byte	0x1
 3163 01f8 11       		.uleb128 0x11
 3164 01f9 01       		.uleb128 0x1
 3165 01fa 12       		.uleb128 0x12
 3166 01fb 06       		.uleb128 0x6
 3167 01fc 00       		.byte	0
 3168 01fd 00       		.byte	0
 3169 01fe 28       		.uleb128 0x28
 3170 01ff 34       		.uleb128 0x34
 3171 0200 00       		.byte	0
 3172 0201 31       		.uleb128 0x31
 3173 0202 13       		.uleb128 0x13
 3174 0203 00       		.byte	0
ARM GAS  /tmp/cc0Zgg1q.s 			page 57


 3175 0204 00       		.byte	0
 3176 0205 29       		.uleb128 0x29
 3177 0206 898201   		.uleb128 0x4109
 3178 0209 00       		.byte	0
 3179 020a 11       		.uleb128 0x11
 3180 020b 01       		.uleb128 0x1
 3181 020c 31       		.uleb128 0x31
 3182 020d 13       		.uleb128 0x13
 3183 020e 00       		.byte	0
 3184 020f 00       		.byte	0
 3185 0210 2A       		.uleb128 0x2a
 3186 0211 2E       		.uleb128 0x2e
 3187 0212 01       		.byte	0x1
 3188 0213 3F       		.uleb128 0x3f
 3189 0214 19       		.uleb128 0x19
 3190 0215 03       		.uleb128 0x3
 3191 0216 0E       		.uleb128 0xe
 3192 0217 3A       		.uleb128 0x3a
 3193 0218 0B       		.uleb128 0xb
 3194 0219 3B       		.uleb128 0x3b
 3195 021a 0B       		.uleb128 0xb
 3196 021b 27       		.uleb128 0x27
 3197 021c 19       		.uleb128 0x19
 3198 021d 49       		.uleb128 0x49
 3199 021e 13       		.uleb128 0x13
 3200 021f 11       		.uleb128 0x11
 3201 0220 01       		.uleb128 0x1
 3202 0221 12       		.uleb128 0x12
 3203 0222 06       		.uleb128 0x6
 3204 0223 40       		.uleb128 0x40
 3205 0224 18       		.uleb128 0x18
 3206 0225 9742     		.uleb128 0x2117
 3207 0227 19       		.uleb128 0x19
 3208 0228 01       		.uleb128 0x1
 3209 0229 13       		.uleb128 0x13
 3210 022a 00       		.byte	0
 3211 022b 00       		.byte	0
 3212 022c 2B       		.uleb128 0x2b
 3213 022d 05       		.uleb128 0x5
 3214 022e 00       		.byte	0
 3215 022f 03       		.uleb128 0x3
 3216 0230 0E       		.uleb128 0xe
 3217 0231 3A       		.uleb128 0x3a
 3218 0232 0B       		.uleb128 0xb
 3219 0233 3B       		.uleb128 0x3b
 3220 0234 0B       		.uleb128 0xb
 3221 0235 49       		.uleb128 0x49
 3222 0236 13       		.uleb128 0x13
 3223 0237 02       		.uleb128 0x2
 3224 0238 17       		.uleb128 0x17
 3225 0239 00       		.byte	0
 3226 023a 00       		.byte	0
 3227 023b 2C       		.uleb128 0x2c
 3228 023c 34       		.uleb128 0x34
 3229 023d 00       		.byte	0
 3230 023e 03       		.uleb128 0x3
 3231 023f 0E       		.uleb128 0xe
ARM GAS  /tmp/cc0Zgg1q.s 			page 58


 3232 0240 3A       		.uleb128 0x3a
 3233 0241 0B       		.uleb128 0xb
 3234 0242 3B       		.uleb128 0x3b
 3235 0243 0B       		.uleb128 0xb
 3236 0244 49       		.uleb128 0x49
 3237 0245 13       		.uleb128 0x13
 3238 0246 02       		.uleb128 0x2
 3239 0247 17       		.uleb128 0x17
 3240 0248 00       		.byte	0
 3241 0249 00       		.byte	0
 3242 024a 2D       		.uleb128 0x2d
 3243 024b 34       		.uleb128 0x34
 3244 024c 00       		.byte	0
 3245 024d 03       		.uleb128 0x3
 3246 024e 0E       		.uleb128 0xe
 3247 024f 3A       		.uleb128 0x3a
 3248 0250 0B       		.uleb128 0xb
 3249 0251 3B       		.uleb128 0x3b
 3250 0252 0B       		.uleb128 0xb
 3251 0253 49       		.uleb128 0x49
 3252 0254 13       		.uleb128 0x13
 3253 0255 02       		.uleb128 0x2
 3254 0256 18       		.uleb128 0x18
 3255 0257 00       		.byte	0
 3256 0258 00       		.byte	0
 3257 0259 2E       		.uleb128 0x2e
 3258 025a 898201   		.uleb128 0x4109
 3259 025d 01       		.byte	0x1
 3260 025e 11       		.uleb128 0x11
 3261 025f 01       		.uleb128 0x1
 3262 0260 31       		.uleb128 0x31
 3263 0261 13       		.uleb128 0x13
 3264 0262 00       		.byte	0
 3265 0263 00       		.byte	0
 3266 0264 2F       		.uleb128 0x2f
 3267 0265 1D       		.uleb128 0x1d
 3268 0266 01       		.byte	0x1
 3269 0267 31       		.uleb128 0x31
 3270 0268 13       		.uleb128 0x13
 3271 0269 52       		.uleb128 0x52
 3272 026a 01       		.uleb128 0x1
 3273 026b 55       		.uleb128 0x55
 3274 026c 17       		.uleb128 0x17
 3275 026d 58       		.uleb128 0x58
 3276 026e 0B       		.uleb128 0xb
 3277 026f 59       		.uleb128 0x59
 3278 0270 0B       		.uleb128 0xb
 3279 0271 01       		.uleb128 0x1
 3280 0272 13       		.uleb128 0x13
 3281 0273 00       		.byte	0
 3282 0274 00       		.byte	0
 3283 0275 30       		.uleb128 0x30
 3284 0276 05       		.uleb128 0x5
 3285 0277 00       		.byte	0
 3286 0278 31       		.uleb128 0x31
 3287 0279 13       		.uleb128 0x13
 3288 027a 02       		.uleb128 0x2
ARM GAS  /tmp/cc0Zgg1q.s 			page 59


 3289 027b 17       		.uleb128 0x17
 3290 027c 00       		.byte	0
 3291 027d 00       		.byte	0
 3292 027e 31       		.uleb128 0x31
 3293 027f 2E       		.uleb128 0x2e
 3294 0280 01       		.byte	0x1
 3295 0281 3F       		.uleb128 0x3f
 3296 0282 19       		.uleb128 0x19
 3297 0283 03       		.uleb128 0x3
 3298 0284 0E       		.uleb128 0xe
 3299 0285 3A       		.uleb128 0x3a
 3300 0286 0B       		.uleb128 0xb
 3301 0287 3B       		.uleb128 0x3b
 3302 0288 05       		.uleb128 0x5
 3303 0289 27       		.uleb128 0x27
 3304 028a 19       		.uleb128 0x19
 3305 028b 49       		.uleb128 0x49
 3306 028c 13       		.uleb128 0x13
 3307 028d 11       		.uleb128 0x11
 3308 028e 01       		.uleb128 0x1
 3309 028f 12       		.uleb128 0x12
 3310 0290 06       		.uleb128 0x6
 3311 0291 40       		.uleb128 0x40
 3312 0292 18       		.uleb128 0x18
 3313 0293 9742     		.uleb128 0x2117
 3314 0295 19       		.uleb128 0x19
 3315 0296 01       		.uleb128 0x1
 3316 0297 13       		.uleb128 0x13
 3317 0298 00       		.byte	0
 3318 0299 00       		.byte	0
 3319 029a 32       		.uleb128 0x32
 3320 029b 05       		.uleb128 0x5
 3321 029c 00       		.byte	0
 3322 029d 03       		.uleb128 0x3
 3323 029e 08       		.uleb128 0x8
 3324 029f 3A       		.uleb128 0x3a
 3325 02a0 0B       		.uleb128 0xb
 3326 02a1 3B       		.uleb128 0x3b
 3327 02a2 05       		.uleb128 0x5
 3328 02a3 49       		.uleb128 0x49
 3329 02a4 13       		.uleb128 0x13
 3330 02a5 02       		.uleb128 0x2
 3331 02a6 17       		.uleb128 0x17
 3332 02a7 00       		.byte	0
 3333 02a8 00       		.byte	0
 3334 02a9 33       		.uleb128 0x33
 3335 02aa 05       		.uleb128 0x5
 3336 02ab 00       		.byte	0
 3337 02ac 03       		.uleb128 0x3
 3338 02ad 0E       		.uleb128 0xe
 3339 02ae 3A       		.uleb128 0x3a
 3340 02af 0B       		.uleb128 0xb
 3341 02b0 3B       		.uleb128 0x3b
 3342 02b1 05       		.uleb128 0x5
 3343 02b2 49       		.uleb128 0x49
 3344 02b3 13       		.uleb128 0x13
 3345 02b4 02       		.uleb128 0x2
ARM GAS  /tmp/cc0Zgg1q.s 			page 60


 3346 02b5 17       		.uleb128 0x17
 3347 02b6 00       		.byte	0
 3348 02b7 00       		.byte	0
 3349 02b8 34       		.uleb128 0x34
 3350 02b9 34       		.uleb128 0x34
 3351 02ba 00       		.byte	0
 3352 02bb 03       		.uleb128 0x3
 3353 02bc 0E       		.uleb128 0xe
 3354 02bd 3A       		.uleb128 0x3a
 3355 02be 0B       		.uleb128 0xb
 3356 02bf 3B       		.uleb128 0x3b
 3357 02c0 05       		.uleb128 0x5
 3358 02c1 49       		.uleb128 0x49
 3359 02c2 13       		.uleb128 0x13
 3360 02c3 02       		.uleb128 0x2
 3361 02c4 17       		.uleb128 0x17
 3362 02c5 00       		.byte	0
 3363 02c6 00       		.byte	0
 3364 02c7 35       		.uleb128 0x35
 3365 02c8 1D       		.uleb128 0x1d
 3366 02c9 01       		.byte	0x1
 3367 02ca 31       		.uleb128 0x31
 3368 02cb 13       		.uleb128 0x13
 3369 02cc 11       		.uleb128 0x11
 3370 02cd 01       		.uleb128 0x1
 3371 02ce 12       		.uleb128 0x12
 3372 02cf 06       		.uleb128 0x6
 3373 02d0 58       		.uleb128 0x58
 3374 02d1 0B       		.uleb128 0xb
 3375 02d2 59       		.uleb128 0x59
 3376 02d3 05       		.uleb128 0x5
 3377 02d4 01       		.uleb128 0x1
 3378 02d5 13       		.uleb128 0x13
 3379 02d6 00       		.byte	0
 3380 02d7 00       		.byte	0
 3381 02d8 36       		.uleb128 0x36
 3382 02d9 1D       		.uleb128 0x1d
 3383 02da 01       		.byte	0x1
 3384 02db 31       		.uleb128 0x31
 3385 02dc 13       		.uleb128 0x13
 3386 02dd 52       		.uleb128 0x52
 3387 02de 01       		.uleb128 0x1
 3388 02df 55       		.uleb128 0x55
 3389 02e0 17       		.uleb128 0x17
 3390 02e1 58       		.uleb128 0x58
 3391 02e2 0B       		.uleb128 0xb
 3392 02e3 59       		.uleb128 0x59
 3393 02e4 05       		.uleb128 0x5
 3394 02e5 01       		.uleb128 0x1
 3395 02e6 13       		.uleb128 0x13
 3396 02e7 00       		.byte	0
 3397 02e8 00       		.byte	0
 3398 02e9 37       		.uleb128 0x37
 3399 02ea 34       		.uleb128 0x34
 3400 02eb 00       		.byte	0
 3401 02ec 03       		.uleb128 0x3
 3402 02ed 0E       		.uleb128 0xe
ARM GAS  /tmp/cc0Zgg1q.s 			page 61


 3403 02ee 3A       		.uleb128 0x3a
 3404 02ef 0B       		.uleb128 0xb
 3405 02f0 3B       		.uleb128 0x3b
 3406 02f1 05       		.uleb128 0x5
 3407 02f2 49       		.uleb128 0x49
 3408 02f3 13       		.uleb128 0x13
 3409 02f4 02       		.uleb128 0x2
 3410 02f5 18       		.uleb128 0x18
 3411 02f6 00       		.byte	0
 3412 02f7 00       		.byte	0
 3413 02f8 38       		.uleb128 0x38
 3414 02f9 34       		.uleb128 0x34
 3415 02fa 00       		.byte	0
 3416 02fb 03       		.uleb128 0x3
 3417 02fc 0E       		.uleb128 0xe
 3418 02fd 3A       		.uleb128 0x3a
 3419 02fe 0B       		.uleb128 0xb
 3420 02ff 3B       		.uleb128 0x3b
 3421 0300 05       		.uleb128 0x5
 3422 0301 49       		.uleb128 0x49
 3423 0302 13       		.uleb128 0x13
 3424 0303 3F       		.uleb128 0x3f
 3425 0304 19       		.uleb128 0x19
 3426 0305 3C       		.uleb128 0x3c
 3427 0306 19       		.uleb128 0x19
 3428 0307 00       		.byte	0
 3429 0308 00       		.byte	0
 3430 0309 39       		.uleb128 0x39
 3431 030a 34       		.uleb128 0x34
 3432 030b 00       		.byte	0
 3433 030c 03       		.uleb128 0x3
 3434 030d 08       		.uleb128 0x8
 3435 030e 3A       		.uleb128 0x3a
 3436 030f 0B       		.uleb128 0xb
 3437 0310 3B       		.uleb128 0x3b
 3438 0311 05       		.uleb128 0x5
 3439 0312 49       		.uleb128 0x49
 3440 0313 13       		.uleb128 0x13
 3441 0314 3F       		.uleb128 0x3f
 3442 0315 19       		.uleb128 0x19
 3443 0316 3C       		.uleb128 0x3c
 3444 0317 19       		.uleb128 0x19
 3445 0318 00       		.byte	0
 3446 0319 00       		.byte	0
 3447 031a 3A       		.uleb128 0x3a
 3448 031b 2E       		.uleb128 0x2e
 3449 031c 01       		.byte	0x1
 3450 031d 3F       		.uleb128 0x3f
 3451 031e 19       		.uleb128 0x19
 3452 031f 03       		.uleb128 0x3
 3453 0320 0E       		.uleb128 0xe
 3454 0321 3A       		.uleb128 0x3a
 3455 0322 0B       		.uleb128 0xb
 3456 0323 3B       		.uleb128 0x3b
 3457 0324 0B       		.uleb128 0xb
 3458 0325 27       		.uleb128 0x27
 3459 0326 19       		.uleb128 0x19
ARM GAS  /tmp/cc0Zgg1q.s 			page 62


 3460 0327 3C       		.uleb128 0x3c
 3461 0328 19       		.uleb128 0x19
 3462 0329 01       		.uleb128 0x1
 3463 032a 13       		.uleb128 0x13
 3464 032b 00       		.byte	0
 3465 032c 00       		.byte	0
 3466 032d 3B       		.uleb128 0x3b
 3467 032e 2E       		.uleb128 0x2e
 3468 032f 00       		.byte	0
 3469 0330 3F       		.uleb128 0x3f
 3470 0331 19       		.uleb128 0x19
 3471 0332 03       		.uleb128 0x3
 3472 0333 0E       		.uleb128 0xe
 3473 0334 3A       		.uleb128 0x3a
 3474 0335 0B       		.uleb128 0xb
 3475 0336 3B       		.uleb128 0x3b
 3476 0337 05       		.uleb128 0x5
 3477 0338 27       		.uleb128 0x27
 3478 0339 19       		.uleb128 0x19
 3479 033a 3C       		.uleb128 0x3c
 3480 033b 19       		.uleb128 0x19
 3481 033c 00       		.byte	0
 3482 033d 00       		.byte	0
 3483 033e 3C       		.uleb128 0x3c
 3484 033f 2E       		.uleb128 0x2e
 3485 0340 01       		.byte	0x1
 3486 0341 3F       		.uleb128 0x3f
 3487 0342 19       		.uleb128 0x19
 3488 0343 03       		.uleb128 0x3
 3489 0344 0E       		.uleb128 0xe
 3490 0345 3A       		.uleb128 0x3a
 3491 0346 0B       		.uleb128 0xb
 3492 0347 3B       		.uleb128 0x3b
 3493 0348 0B       		.uleb128 0xb
 3494 0349 27       		.uleb128 0x27
 3495 034a 19       		.uleb128 0x19
 3496 034b 49       		.uleb128 0x49
 3497 034c 13       		.uleb128 0x13
 3498 034d 3C       		.uleb128 0x3c
 3499 034e 19       		.uleb128 0x19
 3500 034f 01       		.uleb128 0x1
 3501 0350 13       		.uleb128 0x13
 3502 0351 00       		.byte	0
 3503 0352 00       		.byte	0
 3504 0353 3D       		.uleb128 0x3d
 3505 0354 2E       		.uleb128 0x2e
 3506 0355 01       		.byte	0x1
 3507 0356 3F       		.uleb128 0x3f
 3508 0357 19       		.uleb128 0x19
 3509 0358 03       		.uleb128 0x3
 3510 0359 0E       		.uleb128 0xe
 3511 035a 3A       		.uleb128 0x3a
 3512 035b 0B       		.uleb128 0xb
 3513 035c 3B       		.uleb128 0x3b
 3514 035d 0B       		.uleb128 0xb
 3515 035e 27       		.uleb128 0x27
 3516 035f 19       		.uleb128 0x19
ARM GAS  /tmp/cc0Zgg1q.s 			page 63


 3517 0360 3C       		.uleb128 0x3c
 3518 0361 19       		.uleb128 0x19
 3519 0362 00       		.byte	0
 3520 0363 00       		.byte	0
 3521 0364 00       		.byte	0
 3522              		.section	.debug_loc,"",%progbits
 3523              	.Ldebug_loc0:
 3524              	.LLST0:
 3525 0000 00000000 		.4byte	.LVL0
 3526 0004 16000000 		.4byte	.LVL2
 3527 0008 0100     		.2byte	0x1
 3528 000a 50       		.byte	0x50
 3529 000b 16000000 		.4byte	.LVL2
 3530 000f 24000000 		.4byte	.LVL4
 3531 0013 0100     		.2byte	0x1
 3532 0015 54       		.byte	0x54
 3533 0016 24000000 		.4byte	.LVL4
 3534 001a 27000000 		.4byte	.LVL5-1
 3535 001e 0300     		.2byte	0x3
 3536 0020 70       		.byte	0x70
 3537 0021 70       		.sleb128 -16
 3538 0022 9F       		.byte	0x9f
 3539 0023 27000000 		.4byte	.LVL5-1
 3540 0027 28000000 		.4byte	.LFE241
 3541 002b 0400     		.2byte	0x4
 3542 002d F3       		.byte	0xf3
 3543 002e 01       		.uleb128 0x1
 3544 002f 50       		.byte	0x50
 3545 0030 9F       		.byte	0x9f
 3546 0031 00000000 		.4byte	0
 3547 0035 00000000 		.4byte	0
 3548              	.LLST1:
 3549 0039 00000000 		.4byte	.LVL0
 3550 003d 08000000 		.4byte	.LVL1
 3551 0041 0100     		.2byte	0x1
 3552 0043 51       		.byte	0x51
 3553 0044 08000000 		.4byte	.LVL1
 3554 0048 19000000 		.4byte	.LVL3-1
 3555 004c 0100     		.2byte	0x1
 3556 004e 53       		.byte	0x53
 3557 004f 19000000 		.4byte	.LVL3-1
 3558 0053 28000000 		.4byte	.LFE241
 3559 0057 0400     		.2byte	0x4
 3560 0059 F3       		.byte	0xf3
 3561 005a 01       		.uleb128 0x1
 3562 005b 51       		.byte	0x51
 3563 005c 9F       		.byte	0x9f
 3564 005d 00000000 		.4byte	0
 3565 0061 00000000 		.4byte	0
 3566              	.LLST2:
 3567 0065 00000000 		.4byte	.LVL0
 3568 0069 19000000 		.4byte	.LVL3-1
 3569 006d 0100     		.2byte	0x1
 3570 006f 52       		.byte	0x52
 3571 0070 19000000 		.4byte	.LVL3-1
 3572 0074 28000000 		.4byte	.LFE241
 3573 0078 0400     		.2byte	0x4
ARM GAS  /tmp/cc0Zgg1q.s 			page 64


 3574 007a F3       		.byte	0xf3
 3575 007b 01       		.uleb128 0x1
 3576 007c 52       		.byte	0x52
 3577 007d 9F       		.byte	0x9f
 3578 007e 00000000 		.4byte	0
 3579 0082 00000000 		.4byte	0
 3580              	.LLST3:
 3581 0086 00000000 		.4byte	.LVL6
 3582 008a 06000000 		.4byte	.LVL7
 3583 008e 0100     		.2byte	0x1
 3584 0090 50       		.byte	0x50
 3585 0091 06000000 		.4byte	.LVL7
 3586 0095 20000000 		.4byte	.LVL9
 3587 0099 0100     		.2byte	0x1
 3588 009b 54       		.byte	0x54
 3589 009c 20000000 		.4byte	.LVL9
 3590 00a0 23000000 		.4byte	.LVL10-1
 3591 00a4 0300     		.2byte	0x3
 3592 00a6 70       		.byte	0x70
 3593 00a7 70       		.sleb128 -16
 3594 00a8 9F       		.byte	0x9f
 3595 00a9 23000000 		.4byte	.LVL10-1
 3596 00ad 24000000 		.4byte	.LFE243
 3597 00b1 0400     		.2byte	0x4
 3598 00b3 F3       		.byte	0xf3
 3599 00b4 01       		.uleb128 0x1
 3600 00b5 50       		.byte	0x50
 3601 00b6 9F       		.byte	0x9f
 3602 00b7 00000000 		.4byte	0
 3603 00bb 00000000 		.4byte	0
 3604              	.LLST4:
 3605 00bf 00000000 		.4byte	.LVL11
 3606 00c3 0B000000 		.4byte	.LVL12-1
 3607 00c7 0100     		.2byte	0x1
 3608 00c9 50       		.byte	0x50
 3609 00ca 0B000000 		.4byte	.LVL12-1
 3610 00ce 18000000 		.4byte	.LFE242
 3611 00d2 0400     		.2byte	0x4
 3612 00d4 F3       		.byte	0xf3
 3613 00d5 01       		.uleb128 0x1
 3614 00d6 50       		.byte	0x50
 3615 00d7 9F       		.byte	0x9f
 3616 00d8 00000000 		.4byte	0
 3617 00dc 00000000 		.4byte	0
 3618              	.LLST5:
 3619 00e0 00000000 		.4byte	.LVL14
 3620 00e4 08000000 		.4byte	.LVL15
 3621 00e8 0100     		.2byte	0x1
 3622 00ea 50       		.byte	0x50
 3623 00eb 08000000 		.4byte	.LVL15
 3624 00ef 36000000 		.4byte	.LFE245
 3625 00f3 0100     		.2byte	0x1
 3626 00f5 54       		.byte	0x54
 3627 00f6 00000000 		.4byte	0
 3628 00fa 00000000 		.4byte	0
 3629              	.LLST6:
 3630 00fe 00000000 		.4byte	.LVL14
ARM GAS  /tmp/cc0Zgg1q.s 			page 65


 3631 0102 0A000000 		.4byte	.LVL16
 3632 0106 0100     		.2byte	0x1
 3633 0108 51       		.byte	0x51
 3634 0109 0A000000 		.4byte	.LVL16
 3635 010d 36000000 		.4byte	.LFE245
 3636 0111 0100     		.2byte	0x1
 3637 0113 56       		.byte	0x56
 3638 0114 00000000 		.4byte	0
 3639 0118 00000000 		.4byte	0
 3640              	.LLST7:
 3641 011c 00000000 		.4byte	.LVL14
 3642 0120 0D000000 		.4byte	.LVL17-1
 3643 0124 0100     		.2byte	0x1
 3644 0126 52       		.byte	0x52
 3645 0127 0D000000 		.4byte	.LVL17-1
 3646 012b 36000000 		.4byte	.LFE245
 3647 012f 0400     		.2byte	0x4
 3648 0131 F3       		.byte	0xf3
 3649 0132 01       		.uleb128 0x1
 3650 0133 52       		.byte	0x52
 3651 0134 9F       		.byte	0x9f
 3652 0135 00000000 		.4byte	0
 3653 0139 00000000 		.4byte	0
 3654              	.LLST8:
 3655 013d 0E000000 		.4byte	.LVL17
 3656 0141 26000000 		.4byte	.LVL18
 3657 0145 0100     		.2byte	0x1
 3658 0147 50       		.byte	0x50
 3659 0148 26000000 		.4byte	.LVL18
 3660 014c 36000000 		.4byte	.LFE245
 3661 0150 0100     		.2byte	0x1
 3662 0152 55       		.byte	0x55
 3663 0153 00000000 		.4byte	0
 3664 0157 00000000 		.4byte	0
 3665              	.LLST9:
 3666 015b 00000000 		.4byte	.LVL21
 3667 015f 0B000000 		.4byte	.LVL22-1
 3668 0163 0100     		.2byte	0x1
 3669 0165 50       		.byte	0x50
 3670 0166 0B000000 		.4byte	.LVL22-1
 3671 016a 14000000 		.4byte	.LFE244
 3672 016e 0400     		.2byte	0x4
 3673 0170 F3       		.byte	0xf3
 3674 0171 01       		.uleb128 0x1
 3675 0172 50       		.byte	0x50
 3676 0173 9F       		.byte	0x9f
 3677 0174 00000000 		.4byte	0
 3678 0178 00000000 		.4byte	0
 3679              	.LLST10:
 3680 017c 00000000 		.4byte	.LVL21
 3681 0180 0B000000 		.4byte	.LVL22-1
 3682 0184 0100     		.2byte	0x1
 3683 0186 51       		.byte	0x51
 3684 0187 0B000000 		.4byte	.LVL22-1
 3685 018b 14000000 		.4byte	.LFE244
 3686 018f 0400     		.2byte	0x4
 3687 0191 F3       		.byte	0xf3
ARM GAS  /tmp/cc0Zgg1q.s 			page 66


 3688 0192 01       		.uleb128 0x1
 3689 0193 51       		.byte	0x51
 3690 0194 9F       		.byte	0x9f
 3691 0195 00000000 		.4byte	0
 3692 0199 00000000 		.4byte	0
 3693              	.LLST11:
 3694 019d 00000000 		.4byte	.LVL21
 3695 01a1 0B000000 		.4byte	.LVL22-1
 3696 01a5 0100     		.2byte	0x1
 3697 01a7 52       		.byte	0x52
 3698 01a8 0B000000 		.4byte	.LVL22-1
 3699 01ac 14000000 		.4byte	.LFE244
 3700 01b0 0400     		.2byte	0x4
 3701 01b2 F3       		.byte	0xf3
 3702 01b3 01       		.uleb128 0x1
 3703 01b4 52       		.byte	0x52
 3704 01b5 9F       		.byte	0x9f
 3705 01b6 00000000 		.4byte	0
 3706 01ba 00000000 		.4byte	0
 3707              	.LLST12:
 3708 01be 00000000 		.4byte	.LVL23
 3709 01c2 20000000 		.4byte	.LVL26
 3710 01c6 0100     		.2byte	0x1
 3711 01c8 50       		.byte	0x50
 3712 01c9 20000000 		.4byte	.LVL26
 3713 01cd 29000000 		.4byte	.LVL27-1
 3714 01d1 0300     		.2byte	0x3
 3715 01d3 70       		.byte	0x70
 3716 01d4 70       		.sleb128 -16
 3717 01d5 9F       		.byte	0x9f
 3718 01d6 29000000 		.4byte	.LVL27-1
 3719 01da 2E000000 		.4byte	.LVL28
 3720 01de 0400     		.2byte	0x4
 3721 01e0 F3       		.byte	0xf3
 3722 01e1 01       		.uleb128 0x1
 3723 01e2 50       		.byte	0x50
 3724 01e3 9F       		.byte	0x9f
 3725 01e4 2E000000 		.4byte	.LVL28
 3726 01e8 32000000 		.4byte	.LVL29
 3727 01ec 0100     		.2byte	0x1
 3728 01ee 50       		.byte	0x50
 3729 01ef 32000000 		.4byte	.LVL29
 3730 01f3 34000000 		.4byte	.LFE246
 3731 01f7 0400     		.2byte	0x4
 3732 01f9 F3       		.byte	0xf3
 3733 01fa 01       		.uleb128 0x1
 3734 01fb 50       		.byte	0x50
 3735 01fc 9F       		.byte	0x9f
 3736 01fd 00000000 		.4byte	0
 3737 0201 00000000 		.4byte	0
 3738              	.LLST13:
 3739 0205 00000000 		.4byte	.LVL23
 3740 0209 29000000 		.4byte	.LVL27-1
 3741 020d 0100     		.2byte	0x1
 3742 020f 51       		.byte	0x51
 3743 0210 29000000 		.4byte	.LVL27-1
 3744 0214 2E000000 		.4byte	.LVL28
ARM GAS  /tmp/cc0Zgg1q.s 			page 67


 3745 0218 0400     		.2byte	0x4
 3746 021a F3       		.byte	0xf3
 3747 021b 01       		.uleb128 0x1
 3748 021c 51       		.byte	0x51
 3749 021d 9F       		.byte	0x9f
 3750 021e 2E000000 		.4byte	.LVL28
 3751 0222 34000000 		.4byte	.LFE246
 3752 0226 0100     		.2byte	0x1
 3753 0228 51       		.byte	0x51
 3754 0229 00000000 		.4byte	0
 3755 022d 00000000 		.4byte	0
 3756              	.LLST14:
 3757 0231 08000000 		.4byte	.LVL25
 3758 0235 20000000 		.4byte	.LVL26
 3759 0239 0300     		.2byte	0x3
 3760 023b 70       		.byte	0x70
 3761 023c 1C       		.sleb128 28
 3762 023d 9F       		.byte	0x9f
 3763 023e 20000000 		.4byte	.LVL26
 3764 0242 29000000 		.4byte	.LVL27-1
 3765 0246 0300     		.2byte	0x3
 3766 0248 70       		.byte	0x70
 3767 0249 0C       		.sleb128 12
 3768 024a 9F       		.byte	0x9f
 3769 024b 29000000 		.4byte	.LVL27-1
 3770 024f 2E000000 		.4byte	.LVL28
 3771 0253 0600     		.2byte	0x6
 3772 0255 F3       		.byte	0xf3
 3773 0256 01       		.uleb128 0x1
 3774 0257 50       		.byte	0x50
 3775 0258 23       		.byte	0x23
 3776 0259 1C       		.uleb128 0x1c
 3777 025a 9F       		.byte	0x9f
 3778 025b 00000000 		.4byte	0
 3779 025f 00000000 		.4byte	0
 3780              	.LLST15:
 3781 0263 00000000 		.4byte	.LVL30
 3782 0267 08000000 		.4byte	.LVL31
 3783 026b 0100     		.2byte	0x1
 3784 026d 50       		.byte	0x50
 3785 026e 08000000 		.4byte	.LVL31
 3786 0272 38000000 		.4byte	.LFE248
 3787 0276 0100     		.2byte	0x1
 3788 0278 54       		.byte	0x54
 3789 0279 00000000 		.4byte	0
 3790 027d 00000000 		.4byte	0
 3791              	.LLST16:
 3792 0281 00000000 		.4byte	.LVL30
 3793 0285 0A000000 		.4byte	.LVL32
 3794 0289 0100     		.2byte	0x1
 3795 028b 51       		.byte	0x51
 3796 028c 0A000000 		.4byte	.LVL32
 3797 0290 38000000 		.4byte	.LFE248
 3798 0294 0100     		.2byte	0x1
 3799 0296 56       		.byte	0x56
 3800 0297 00000000 		.4byte	0
 3801 029b 00000000 		.4byte	0
ARM GAS  /tmp/cc0Zgg1q.s 			page 68


 3802              	.LLST17:
 3803 029f 00000000 		.4byte	.LVL30
 3804 02a3 0D000000 		.4byte	.LVL33-1
 3805 02a7 0100     		.2byte	0x1
 3806 02a9 52       		.byte	0x52
 3807 02aa 0D000000 		.4byte	.LVL33-1
 3808 02ae 38000000 		.4byte	.LFE248
 3809 02b2 0400     		.2byte	0x4
 3810 02b4 F3       		.byte	0xf3
 3811 02b5 01       		.uleb128 0x1
 3812 02b6 52       		.byte	0x52
 3813 02b7 9F       		.byte	0x9f
 3814 02b8 00000000 		.4byte	0
 3815 02bc 00000000 		.4byte	0
 3816              	.LLST18:
 3817 02c0 0E000000 		.4byte	.LVL33
 3818 02c4 24000000 		.4byte	.LVL34
 3819 02c8 0100     		.2byte	0x1
 3820 02ca 50       		.byte	0x50
 3821 02cb 24000000 		.4byte	.LVL34
 3822 02cf 30000000 		.4byte	.LVL37
 3823 02d3 0100     		.2byte	0x1
 3824 02d5 55       		.byte	0x55
 3825 02d6 30000000 		.4byte	.LVL37
 3826 02da 38000000 		.4byte	.LFE248
 3827 02de 0100     		.2byte	0x1
 3828 02e0 50       		.byte	0x50
 3829 02e1 00000000 		.4byte	0
 3830 02e5 00000000 		.4byte	0
 3831              	.LLST19:
 3832 02e9 00000000 		.4byte	.LVL38
 3833 02ed 0B000000 		.4byte	.LVL39-1
 3834 02f1 0100     		.2byte	0x1
 3835 02f3 50       		.byte	0x50
 3836 02f4 0B000000 		.4byte	.LVL39-1
 3837 02f8 14000000 		.4byte	.LFE247
 3838 02fc 0400     		.2byte	0x4
 3839 02fe F3       		.byte	0xf3
 3840 02ff 01       		.uleb128 0x1
 3841 0300 50       		.byte	0x50
 3842 0301 9F       		.byte	0x9f
 3843 0302 00000000 		.4byte	0
 3844 0306 00000000 		.4byte	0
 3845              	.LLST20:
 3846 030a 00000000 		.4byte	.LVL38
 3847 030e 0B000000 		.4byte	.LVL39-1
 3848 0312 0100     		.2byte	0x1
 3849 0314 51       		.byte	0x51
 3850 0315 0B000000 		.4byte	.LVL39-1
 3851 0319 14000000 		.4byte	.LFE247
 3852 031d 0400     		.2byte	0x4
 3853 031f F3       		.byte	0xf3
 3854 0320 01       		.uleb128 0x1
 3855 0321 51       		.byte	0x51
 3856 0322 9F       		.byte	0x9f
 3857 0323 00000000 		.4byte	0
 3858 0327 00000000 		.4byte	0
ARM GAS  /tmp/cc0Zgg1q.s 			page 69


 3859              	.LLST21:
 3860 032b 00000000 		.4byte	.LVL38
 3861 032f 0B000000 		.4byte	.LVL39-1
 3862 0333 0100     		.2byte	0x1
 3863 0335 52       		.byte	0x52
 3864 0336 0B000000 		.4byte	.LVL39-1
 3865 033a 14000000 		.4byte	.LFE247
 3866 033e 0400     		.2byte	0x4
 3867 0340 F3       		.byte	0xf3
 3868 0341 01       		.uleb128 0x1
 3869 0342 52       		.byte	0x52
 3870 0343 9F       		.byte	0x9f
 3871 0344 00000000 		.4byte	0
 3872 0348 00000000 		.4byte	0
 3873              	.LLST22:
 3874 034c 00000000 		.4byte	.LVL40
 3875 0350 22000000 		.4byte	.LVL43
 3876 0354 0100     		.2byte	0x1
 3877 0356 50       		.byte	0x50
 3878 0357 22000000 		.4byte	.LVL43
 3879 035b 25000000 		.4byte	.LVL44-1
 3880 035f 0300     		.2byte	0x3
 3881 0361 70       		.byte	0x70
 3882 0362 70       		.sleb128 -16
 3883 0363 9F       		.byte	0x9f
 3884 0364 25000000 		.4byte	.LVL44-1
 3885 0368 2A000000 		.4byte	.LVL45
 3886 036c 0400     		.2byte	0x4
 3887 036e F3       		.byte	0xf3
 3888 036f 01       		.uleb128 0x1
 3889 0370 50       		.byte	0x50
 3890 0371 9F       		.byte	0x9f
 3891 0372 2A000000 		.4byte	.LVL45
 3892 0376 2E000000 		.4byte	.LVL46
 3893 037a 0100     		.2byte	0x1
 3894 037c 50       		.byte	0x50
 3895 037d 2E000000 		.4byte	.LVL46
 3896 0381 30000000 		.4byte	.LFE249
 3897 0385 0400     		.2byte	0x4
 3898 0387 F3       		.byte	0xf3
 3899 0388 01       		.uleb128 0x1
 3900 0389 50       		.byte	0x50
 3901 038a 9F       		.byte	0x9f
 3902 038b 00000000 		.4byte	0
 3903 038f 00000000 		.4byte	0
 3904              	.LLST23:
 3905 0393 00000000 		.4byte	.LVL40
 3906 0397 25000000 		.4byte	.LVL44-1
 3907 039b 0100     		.2byte	0x1
 3908 039d 51       		.byte	0x51
 3909 039e 25000000 		.4byte	.LVL44-1
 3910 03a2 2A000000 		.4byte	.LVL45
 3911 03a6 0400     		.2byte	0x4
 3912 03a8 F3       		.byte	0xf3
 3913 03a9 01       		.uleb128 0x1
 3914 03aa 51       		.byte	0x51
 3915 03ab 9F       		.byte	0x9f
ARM GAS  /tmp/cc0Zgg1q.s 			page 70


 3916 03ac 2A000000 		.4byte	.LVL45
 3917 03b0 30000000 		.4byte	.LFE249
 3918 03b4 0100     		.2byte	0x1
 3919 03b6 51       		.byte	0x51
 3920 03b7 00000000 		.4byte	0
 3921 03bb 00000000 		.4byte	0
 3922              	.LLST24:
 3923 03bf 08000000 		.4byte	.LVL42
 3924 03c3 22000000 		.4byte	.LVL43
 3925 03c7 0300     		.2byte	0x3
 3926 03c9 70       		.byte	0x70
 3927 03ca 1C       		.sleb128 28
 3928 03cb 9F       		.byte	0x9f
 3929 03cc 22000000 		.4byte	.LVL43
 3930 03d0 25000000 		.4byte	.LVL44-1
 3931 03d4 0300     		.2byte	0x3
 3932 03d6 70       		.byte	0x70
 3933 03d7 0C       		.sleb128 12
 3934 03d8 9F       		.byte	0x9f
 3935 03d9 25000000 		.4byte	.LVL44-1
 3936 03dd 2A000000 		.4byte	.LVL45
 3937 03e1 0600     		.2byte	0x6
 3938 03e3 F3       		.byte	0xf3
 3939 03e4 01       		.uleb128 0x1
 3940 03e5 50       		.byte	0x50
 3941 03e6 23       		.byte	0x23
 3942 03e7 1C       		.uleb128 0x1c
 3943 03e8 9F       		.byte	0x9f
 3944 03e9 00000000 		.4byte	0
 3945 03ed 00000000 		.4byte	0
 3946              	.LLST25:
 3947 03f1 00000000 		.4byte	.LVL47
 3948 03f5 08000000 		.4byte	.LVL48
 3949 03f9 0100     		.2byte	0x1
 3950 03fb 50       		.byte	0x50
 3951 03fc 08000000 		.4byte	.LVL48
 3952 0400 38000000 		.4byte	.LFE251
 3953 0404 0100     		.2byte	0x1
 3954 0406 54       		.byte	0x54
 3955 0407 00000000 		.4byte	0
 3956 040b 00000000 		.4byte	0
 3957              	.LLST26:
 3958 040f 00000000 		.4byte	.LVL47
 3959 0413 0A000000 		.4byte	.LVL49
 3960 0417 0100     		.2byte	0x1
 3961 0419 51       		.byte	0x51
 3962 041a 0A000000 		.4byte	.LVL49
 3963 041e 38000000 		.4byte	.LFE251
 3964 0422 0100     		.2byte	0x1
 3965 0424 56       		.byte	0x56
 3966 0425 00000000 		.4byte	0
 3967 0429 00000000 		.4byte	0
 3968              	.LLST27:
 3969 042d 00000000 		.4byte	.LVL47
 3970 0431 0D000000 		.4byte	.LVL50-1
 3971 0435 0100     		.2byte	0x1
 3972 0437 52       		.byte	0x52
ARM GAS  /tmp/cc0Zgg1q.s 			page 71


 3973 0438 0D000000 		.4byte	.LVL50-1
 3974 043c 38000000 		.4byte	.LFE251
 3975 0440 0400     		.2byte	0x4
 3976 0442 F3       		.byte	0xf3
 3977 0443 01       		.uleb128 0x1
 3978 0444 52       		.byte	0x52
 3979 0445 9F       		.byte	0x9f
 3980 0446 00000000 		.4byte	0
 3981 044a 00000000 		.4byte	0
 3982              	.LLST28:
 3983 044e 0E000000 		.4byte	.LVL50
 3984 0452 28000000 		.4byte	.LVL51
 3985 0456 0100     		.2byte	0x1
 3986 0458 50       		.byte	0x50
 3987 0459 28000000 		.4byte	.LVL51
 3988 045d 38000000 		.4byte	.LFE251
 3989 0461 0100     		.2byte	0x1
 3990 0463 55       		.byte	0x55
 3991 0464 00000000 		.4byte	0
 3992 0468 00000000 		.4byte	0
 3993              	.LLST29:
 3994 046c 00000000 		.4byte	.LVL54
 3995 0470 0B000000 		.4byte	.LVL55-1
 3996 0474 0100     		.2byte	0x1
 3997 0476 50       		.byte	0x50
 3998 0477 0B000000 		.4byte	.LVL55-1
 3999 047b 14000000 		.4byte	.LFE250
 4000 047f 0400     		.2byte	0x4
 4001 0481 F3       		.byte	0xf3
 4002 0482 01       		.uleb128 0x1
 4003 0483 50       		.byte	0x50
 4004 0484 9F       		.byte	0x9f
 4005 0485 00000000 		.4byte	0
 4006 0489 00000000 		.4byte	0
 4007              	.LLST30:
 4008 048d 00000000 		.4byte	.LVL54
 4009 0491 0B000000 		.4byte	.LVL55-1
 4010 0495 0100     		.2byte	0x1
 4011 0497 51       		.byte	0x51
 4012 0498 0B000000 		.4byte	.LVL55-1
 4013 049c 14000000 		.4byte	.LFE250
 4014 04a0 0400     		.2byte	0x4
 4015 04a2 F3       		.byte	0xf3
 4016 04a3 01       		.uleb128 0x1
 4017 04a4 51       		.byte	0x51
 4018 04a5 9F       		.byte	0x9f
 4019 04a6 00000000 		.4byte	0
 4020 04aa 00000000 		.4byte	0
 4021              	.LLST31:
 4022 04ae 00000000 		.4byte	.LVL54
 4023 04b2 0B000000 		.4byte	.LVL55-1
 4024 04b6 0100     		.2byte	0x1
 4025 04b8 52       		.byte	0x52
 4026 04b9 0B000000 		.4byte	.LVL55-1
 4027 04bd 14000000 		.4byte	.LFE250
 4028 04c1 0400     		.2byte	0x4
 4029 04c3 F3       		.byte	0xf3
ARM GAS  /tmp/cc0Zgg1q.s 			page 72


 4030 04c4 01       		.uleb128 0x1
 4031 04c5 52       		.byte	0x52
 4032 04c6 9F       		.byte	0x9f
 4033 04c7 00000000 		.4byte	0
 4034 04cb 00000000 		.4byte	0
 4035              	.LLST32:
 4036 04cf 00000000 		.4byte	.LVL56
 4037 04d3 22000000 		.4byte	.LVL59
 4038 04d7 0100     		.2byte	0x1
 4039 04d9 50       		.byte	0x50
 4040 04da 22000000 		.4byte	.LVL59
 4041 04de 2B000000 		.4byte	.LVL60-1
 4042 04e2 0300     		.2byte	0x3
 4043 04e4 70       		.byte	0x70
 4044 04e5 64       		.sleb128 -28
 4045 04e6 9F       		.byte	0x9f
 4046 04e7 2B000000 		.4byte	.LVL60-1
 4047 04eb 30000000 		.4byte	.LVL61
 4048 04ef 0400     		.2byte	0x4
 4049 04f1 F3       		.byte	0xf3
 4050 04f2 01       		.uleb128 0x1
 4051 04f3 50       		.byte	0x50
 4052 04f4 9F       		.byte	0x9f
 4053 04f5 30000000 		.4byte	.LVL61
 4054 04f9 34000000 		.4byte	.LVL62
 4055 04fd 0100     		.2byte	0x1
 4056 04ff 50       		.byte	0x50
 4057 0500 34000000 		.4byte	.LVL62
 4058 0504 36000000 		.4byte	.LFE252
 4059 0508 0400     		.2byte	0x4
 4060 050a F3       		.byte	0xf3
 4061 050b 01       		.uleb128 0x1
 4062 050c 50       		.byte	0x50
 4063 050d 9F       		.byte	0x9f
 4064 050e 00000000 		.4byte	0
 4065 0512 00000000 		.4byte	0
 4066              	.LLST33:
 4067 0516 00000000 		.4byte	.LVL56
 4068 051a 2B000000 		.4byte	.LVL60-1
 4069 051e 0100     		.2byte	0x1
 4070 0520 51       		.byte	0x51
 4071 0521 2B000000 		.4byte	.LVL60-1
 4072 0525 30000000 		.4byte	.LVL61
 4073 0529 0400     		.2byte	0x4
 4074 052b F3       		.byte	0xf3
 4075 052c 01       		.uleb128 0x1
 4076 052d 51       		.byte	0x51
 4077 052e 9F       		.byte	0x9f
 4078 052f 30000000 		.4byte	.LVL61
 4079 0533 36000000 		.4byte	.LFE252
 4080 0537 0100     		.2byte	0x1
 4081 0539 51       		.byte	0x51
 4082 053a 00000000 		.4byte	0
 4083 053e 00000000 		.4byte	0
 4084              	.LLST34:
 4085 0542 08000000 		.4byte	.LVL58
 4086 0546 22000000 		.4byte	.LVL59
ARM GAS  /tmp/cc0Zgg1q.s 			page 73


 4087 054a 0300     		.2byte	0x3
 4088 054c 70       		.byte	0x70
 4089 054d 10       		.sleb128 16
 4090 054e 9F       		.byte	0x9f
 4091 054f 22000000 		.4byte	.LVL59
 4092 0553 2B000000 		.4byte	.LVL60-1
 4093 0557 0300     		.2byte	0x3
 4094 0559 70       		.byte	0x70
 4095 055a 74       		.sleb128 -12
 4096 055b 9F       		.byte	0x9f
 4097 055c 2B000000 		.4byte	.LVL60-1
 4098 0560 30000000 		.4byte	.LVL61
 4099 0564 0600     		.2byte	0x6
 4100 0566 F3       		.byte	0xf3
 4101 0567 01       		.uleb128 0x1
 4102 0568 50       		.byte	0x50
 4103 0569 23       		.byte	0x23
 4104 056a 10       		.uleb128 0x10
 4105 056b 9F       		.byte	0x9f
 4106 056c 00000000 		.4byte	0
 4107 0570 00000000 		.4byte	0
 4108              		.section	.debug_aranges,"",%progbits
 4109 0000 74000000 		.4byte	0x74
 4110 0004 0200     		.2byte	0x2
 4111 0006 00000000 		.4byte	.Ldebug_info0
 4112 000a 04       		.byte	0x4
 4113 000b 00       		.byte	0
 4114 000c 0000     		.2byte	0
 4115 000e 0000     		.2byte	0
 4116 0010 00000000 		.4byte	.LFB241
 4117 0014 28000000 		.4byte	.LFE241-.LFB241
 4118 0018 00000000 		.4byte	.LFB243
 4119 001c 24000000 		.4byte	.LFE243-.LFB243
 4120 0020 00000000 		.4byte	.LFB242
 4121 0024 18000000 		.4byte	.LFE242-.LFB242
 4122 0028 00000000 		.4byte	.LFB245
 4123 002c 36000000 		.4byte	.LFE245-.LFB245
 4124 0030 00000000 		.4byte	.LFB244
 4125 0034 14000000 		.4byte	.LFE244-.LFB244
 4126 0038 00000000 		.4byte	.LFB246
 4127 003c 34000000 		.4byte	.LFE246-.LFB246
 4128 0040 00000000 		.4byte	.LFB248
 4129 0044 38000000 		.4byte	.LFE248-.LFB248
 4130 0048 00000000 		.4byte	.LFB247
 4131 004c 14000000 		.4byte	.LFE247-.LFB247
 4132 0050 00000000 		.4byte	.LFB249
 4133 0054 30000000 		.4byte	.LFE249-.LFB249
 4134 0058 00000000 		.4byte	.LFB251
 4135 005c 38000000 		.4byte	.LFE251-.LFB251
 4136 0060 00000000 		.4byte	.LFB250
 4137 0064 14000000 		.4byte	.LFE250-.LFB250
 4138 0068 00000000 		.4byte	.LFB252
 4139 006c 36000000 		.4byte	.LFE252-.LFB252
 4140 0070 00000000 		.4byte	0
 4141 0074 00000000 		.4byte	0
 4142              		.section	.debug_ranges,"",%progbits
 4143              	.Ldebug_ranges0:
ARM GAS  /tmp/cc0Zgg1q.s 			page 74


 4144 0000 0E000000 		.4byte	.LBB84
 4145 0004 10000000 		.4byte	.LBE84
 4146 0008 12000000 		.4byte	.LBB87
 4147 000c 14000000 		.4byte	.LBE87
 4148 0010 00000000 		.4byte	0
 4149 0014 00000000 		.4byte	0
 4150 0018 0E000000 		.4byte	.LBB97
 4151 001c 10000000 		.4byte	.LBE97
 4152 0020 12000000 		.4byte	.LBB100
 4153 0024 14000000 		.4byte	.LBE100
 4154 0028 00000000 		.4byte	0
 4155 002c 00000000 		.4byte	0
 4156 0030 08000000 		.4byte	.LBB110
 4157 0034 0A000000 		.4byte	.LBE110
 4158 0038 0C000000 		.4byte	.LBB113
 4159 003c 0E000000 		.4byte	.LBE113
 4160 0040 00000000 		.4byte	0
 4161 0044 00000000 		.4byte	0
 4162 0048 00000000 		.4byte	.LFB241
 4163 004c 28000000 		.4byte	.LFE241
 4164 0050 00000000 		.4byte	.LFB243
 4165 0054 24000000 		.4byte	.LFE243
 4166 0058 00000000 		.4byte	.LFB242
 4167 005c 18000000 		.4byte	.LFE242
 4168 0060 00000000 		.4byte	.LFB245
 4169 0064 36000000 		.4byte	.LFE245
 4170 0068 00000000 		.4byte	.LFB244
 4171 006c 14000000 		.4byte	.LFE244
 4172 0070 00000000 		.4byte	.LFB246
 4173 0074 34000000 		.4byte	.LFE246
 4174 0078 00000000 		.4byte	.LFB248
 4175 007c 38000000 		.4byte	.LFE248
 4176 0080 00000000 		.4byte	.LFB247
 4177 0084 14000000 		.4byte	.LFE247
 4178 0088 00000000 		.4byte	.LFB249
 4179 008c 30000000 		.4byte	.LFE249
 4180 0090 00000000 		.4byte	.LFB251
 4181 0094 38000000 		.4byte	.LFE251
 4182 0098 00000000 		.4byte	.LFB250
 4183 009c 14000000 		.4byte	.LFE250
 4184 00a0 00000000 		.4byte	.LFB252
 4185 00a4 36000000 		.4byte	.LFE252
 4186 00a8 00000000 		.4byte	0
 4187 00ac 00000000 		.4byte	0
 4188              		.section	.debug_line,"",%progbits
 4189              	.Ldebug_line0:
 4190 0000 2A040000 		.section	.debug_str,"MS",%progbits,1
 4190      02005202 
 4190      00000201 
 4190      FB0E0D00 
 4190      01010101 
 4191              	.LASF49:
 4192 0000 72656164 		.ascii	"ready_list_t\000"
 4192      795F6C69 
 4192      73745F74 
 4192      00
 4193              	.LASF116:
ARM GAS  /tmp/cc0Zgg1q.s 			page 75


 4194 000d 63684D42 		.ascii	"chMBObjectInit\000"
 4194      4F626A65 
 4194      6374496E 
 4194      697400
 4195              	.LASF140:
 4196 001c 63685365 		.ascii	"chSemSignalI\000"
 4196      6D536967 
 4196      6E616C49 
 4196      00
 4197              	.LASF87:
 4198 0029 77747472 		.ascii	"wttrp\000"
 4198      7000
 4199              	.LASF84:
 4200 002f 7264796D 		.ascii	"rdymsg\000"
 4200      736700
 4201              	.LASF16:
 4202 0036 75696E74 		.ascii	"uint64_t\000"
 4202      36345F74 
 4202      00
 4203              	.LASF5:
 4204 003f 5F5F7569 		.ascii	"__uint8_t\000"
 4204      6E74385F 
 4204      7400
 4205              	.LASF123:
 4206 0049 63684D42 		.ascii	"chMBPostI\000"
 4206      506F7374 
 4206      4900
 4207              	.LASF81:
 4208 0053 706F7274 		.ascii	"port_intctx\000"
 4208      5F696E74 
 4208      63747800 
 4209              	.LASF68:
 4210 005f 73797374 		.ascii	"system_debug_t\000"
 4210      656D5F64 
 4210      65627567 
 4210      5F7400
 4211              	.LASF76:
 4212 006e 69646C65 		.ascii	"idle_thread_wa\000"
 4212      5F746872 
 4212      6561645F 
 4212      776100
 4213              	.LASF109:
 4214 007d 706F7274 		.ascii	"port_lock\000"
 4214      5F6C6F63 
 4214      6B00
 4215              	.LASF126:
 4216 0087 63684D42 		.ascii	"chMBPostAheadI\000"
 4216      506F7374 
 4216      41686561 
 4216      644900
 4217              	.LASF12:
 4218 0096 6C6F6E67 		.ascii	"long long unsigned int\000"
 4218      206C6F6E 
 4218      6720756E 
 4218      7369676E 
 4218      65642069 
 4219              	.LASF85:
ARM GAS  /tmp/cc0Zgg1q.s 			page 76


 4220 00ad 65786974 		.ascii	"exitcode\000"
 4220      636F6465 
 4220      00
 4221              	.LASF124:
 4222 00b6 63684D42 		.ascii	"chMBPostAheadS\000"
 4222      506F7374 
 4222      41686561 
 4222      645300
 4223              	.LASF88:
 4224 00c5 73656E74 		.ascii	"sentmsg\000"
 4224      6D736700 
 4225              	.LASF65:
 4226 00cd 76697274 		.ascii	"virtual_timers_list_t\000"
 4226      75616C5F 
 4226      74696D65 
 4226      72735F6C 
 4226      6973745F 
 4227              	.LASF104:
 4228 00e3 6D625F77 		.ascii	"mb_wrptr\000"
 4228      72707472 
 4228      00
 4229              	.LASF48:
 4230 00ec 63685F74 		.ascii	"ch_threads_queue\000"
 4230      68726561 
 4230      64735F71 
 4230      75657565 
 4230      00
 4231              	.LASF29:
 4232 00fd 705F7072 		.ascii	"p_prio\000"
 4232      696F00
 4233              	.LASF4:
 4234 0104 73686F72 		.ascii	"short unsigned int\000"
 4234      7420756E 
 4234      7369676E 
 4234      65642069 
 4234      6E7400
 4235              	.LASF10:
 4236 0117 6C6F6E67 		.ascii	"long long int\000"
 4236      206C6F6E 
 4236      6720696E 
 4236      7400
 4237              	.LASF1:
 4238 0125 7369676E 		.ascii	"signed char\000"
 4238      65642063 
 4238      68617200 
 4239              	.LASF42:
 4240 0131 705F6D70 		.ascii	"p_mpool\000"
 4240      6F6F6C00 
 4241              	.LASF96:
 4242 0139 6D5F7175 		.ascii	"m_queue\000"
 4242      65756500 
 4243              	.LASF74:
 4244 0141 76746C69 		.ascii	"vtlist\000"
 4244      737400
 4245              	.LASF110:
 4246 0148 706F7274 		.ascii	"port_unlock\000"
 4246      5F756E6C 
ARM GAS  /tmp/cc0Zgg1q.s 			page 77


 4246      6F636B00 
 4247              	.LASF72:
 4248 0154 63685F73 		.ascii	"ch_system\000"
 4248      79737465 
 4248      6D00
 4249              	.LASF7:
 4250 015e 6C6F6E67 		.ascii	"long int\000"
 4250      20696E74 
 4250      00
 4251              	.LASF19:
 4252 0167 74737461 		.ascii	"tstate_t\000"
 4252      74655F74 
 4252      00
 4253              	.LASF31:
 4254 0170 705F6E65 		.ascii	"p_newer\000"
 4254      77657200 
 4255              	.LASF93:
 4256 0178 735F7175 		.ascii	"s_queue\000"
 4256      65756500 
 4257              	.LASF138:
 4258 0180 63685363 		.ascii	"chSchRescheduleS\000"
 4258      68526573 
 4258      63686564 
 4258      756C6553 
 4258      00
 4259              	.LASF105:
 4260 0191 6D625F72 		.ascii	"mb_rdptr\000"
 4260      64707472 
 4260      00
 4261              	.LASF78:
 4262 019a 72656761 		.ascii	"regarm_t\000"
 4262      726D5F74 
 4262      00
 4263              	.LASF61:
 4264 01a3 76745F70 		.ascii	"vt_prev\000"
 4264      72657600 
 4265              	.LASF73:
 4266 01ab 726C6973 		.ascii	"rlist\000"
 4266      7400
 4267              	.LASF101:
 4268 01b1 6D757465 		.ascii	"mutex_t\000"
 4268      785F7400 
 4269              	.LASF113:
 4270 01b9 76616C75 		.ascii	"value\000"
 4270      6500
 4271              	.LASF8:
 4272 01bf 5F5F7569 		.ascii	"__uint32_t\000"
 4272      6E743332 
 4272      5F7400
 4273              	.LASF132:
 4274 01ca 63685365 		.ascii	"chSemObjectInit\000"
 4274      6D4F626A 
 4274      65637449 
 4274      6E697400 
 4275              	.LASF24:
 4276 01da 636E745F 		.ascii	"cnt_t\000"
 4276      7400
ARM GAS  /tmp/cc0Zgg1q.s 			page 78


 4277              	.LASF0:
 4278 01e0 756E7369 		.ascii	"unsigned int\000"
 4278      676E6564 
 4278      20696E74 
 4278      00
 4279              	.LASF60:
 4280 01ed 76745F6E 		.ascii	"vt_next\000"
 4280      65787400 
 4281              	.LASF89:
 4282 01f5 77747365 		.ascii	"wtsemp\000"
 4282      6D7000
 4283              	.LASF38:
 4284 01fc 705F6D73 		.ascii	"p_msgqueue\000"
 4284      67717565 
 4284      756500
 4285              	.LASF120:
 4286 0207 74696D65 		.ascii	"timeout\000"
 4286      6F757400 
 4287              	.LASF107:
 4288 020f 6D625F65 		.ascii	"mb_emptysem\000"
 4288      6D707479 
 4288      73656D00 
 4289              	.LASF94:
 4290 021b 735F636E 		.ascii	"s_cnt\000"
 4290      7400
 4291              	.LASF117:
 4292 0221 63684D42 		.ascii	"chMBResetI\000"
 4292      52657365 
 4292      744900
 4293              	.LASF45:
 4294 022c 63685F74 		.ascii	"ch_thread\000"
 4294      68726561 
 4294      6400
 4295              	.LASF75:
 4296 0236 6D61696E 		.ascii	"mainthread\000"
 4296      74687265 
 4296      616400
 4297              	.LASF130:
 4298 0241 63684D42 		.ascii	"chMBFetchI\000"
 4298      46657463 
 4298      684900
 4299              	.LASF22:
 4300 024c 6D73675F 		.ascii	"msg_t\000"
 4300      7400
 4301              	.LASF54:
 4302 0252 725F6E65 		.ascii	"r_newer\000"
 4302      77657200 
 4303              	.LASF71:
 4304 025a 63685F73 		.ascii	"ch_system_t\000"
 4304      79737465 
 4304      6D5F7400 
 4305              	.LASF127:
 4306 0266 63684D42 		.ascii	"chMBFetchS\000"
 4306      46657463 
 4306      685300
 4307              	.LASF18:
 4308 0271 746D6F64 		.ascii	"tmode_t\000"
ARM GAS  /tmp/cc0Zgg1q.s 			page 79


 4308      655F7400 
 4309              	.LASF50:
 4310 0279 63685F72 		.ascii	"ch_ready_list\000"
 4310      65616479 
 4310      5F6C6973 
 4310      7400
 4311              	.LASF23:
 4312 0287 6576656E 		.ascii	"eventmask_t\000"
 4312      746D6173 
 4312      6B5F7400 
 4313              	.LASF6:
 4314 0293 5F5F696E 		.ascii	"__int32_t\000"
 4314      7433325F 
 4314      7400
 4315              	.LASF128:
 4316 029d 6D736770 		.ascii	"msgp\000"
 4316      00
 4317              	.LASF79:
 4318 02a2 73746B61 		.ascii	"stkalign_t\000"
 4318      6C69676E 
 4318      5F7400
 4319              	.LASF37:
 4320 02ad 705F7761 		.ascii	"p_waiting\000"
 4320      6974696E 
 4320      6700
 4321              	.LASF77:
 4322 02b7 73697A65 		.ascii	"sizetype\000"
 4322      74797065 
 4322      00
 4323              	.LASF43:
 4324 02c0 74687265 		.ascii	"thread_reference_t\000"
 4324      61645F72 
 4324      65666572 
 4324      656E6365 
 4324      5F7400
 4325              	.LASF66:
 4326 02d3 63685F76 		.ascii	"ch_virtual_timers_list\000"
 4326      69727475 
 4326      616C5F74 
 4326      696D6572 
 4326      735F6C69 
 4327              	.LASF129:
 4328 02ea 63684D42 		.ascii	"chMBFetch\000"
 4328      46657463 
 4328      6800
 4329              	.LASF119:
 4330 02f4 63684D42 		.ascii	"chMBReset\000"
 4330      52657365 
 4330      7400
 4331              	.LASF136:
 4332 02fe 2F752F63 		.ascii	"/u/cojthack/summerResearch2016/milestone2\000"
 4332      6F6A7468 
 4332      61636B2F 
 4332      73756D6D 
 4332      65725265 
 4333              	.LASF67:
 4334 0328 76745F6C 		.ascii	"vt_lasttime\000"
ARM GAS  /tmp/cc0Zgg1q.s 			page 80


 4334      61737474 
 4334      696D6500 
 4335              	.LASF32:
 4336 0334 705F6F6C 		.ascii	"p_older\000"
 4336      64657200 
 4337              	.LASF53:
 4338 033c 725F6374 		.ascii	"r_ctx\000"
 4338      7800
 4339              	.LASF108:
 4340 0342 6D61696C 		.ascii	"mailbox_t\000"
 4340      626F785F 
 4340      7400
 4341              	.LASF83:
 4342 034c 746D5F63 		.ascii	"tm_calibration_t\000"
 4342      616C6962 
 4342      72617469 
 4342      6F6E5F74 
 4342      00
 4343              	.LASF102:
 4344 035d 6D625F62 		.ascii	"mb_buffer\000"
 4344      75666665 
 4344      7200
 4345              	.LASF56:
 4346 0367 725F6375 		.ascii	"r_current\000"
 4346      7272656E 
 4346      7400
 4347              	.LASF55:
 4348 0371 725F6F6C 		.ascii	"r_older\000"
 4348      64657200 
 4349              	.LASF11:
 4350 0379 5F5F7569 		.ascii	"__uint64_t\000"
 4350      6E743634 
 4350      5F7400
 4351              	.LASF20:
 4352 0384 74726566 		.ascii	"trefs_t\000"
 4352      735F7400 
 4353              	.LASF58:
 4354 038c 76697274 		.ascii	"virtual_timer_t\000"
 4354      75616C5F 
 4354      74696D65 
 4354      725F7400 
 4355              	.LASF28:
 4356 039c 705F7072 		.ascii	"p_prev\000"
 4356      657600
 4357              	.LASF21:
 4358 03a3 74707269 		.ascii	"tprio_t\000"
 4358      6F5F7400 
 4359              	.LASF69:
 4360 03ab 63685F73 		.ascii	"ch_system_debug\000"
 4360      79737465 
 4360      6D5F6465 
 4360      62756700 
 4361              	.LASF14:
 4362 03bb 696E7433 		.ascii	"int32_t\000"
 4362      325F7400 
 4363              	.LASF2:
 4364 03c3 756E7369 		.ascii	"unsigned char\000"
ARM GAS  /tmp/cc0Zgg1q.s 			page 81


 4364      676E6564 
 4364      20636861 
 4364      7200
 4365              	.LASF103:
 4366 03d1 6D625F74 		.ascii	"mb_top\000"
 4366      6F7000
 4367              	.LASF131:
 4368 03d8 49544D5F 		.ascii	"ITM_RxBuffer\000"
 4368      52784275 
 4368      66666572 
 4368      00
 4369              	.LASF40:
 4370 03e5 705F6D74 		.ascii	"p_mtxlist\000"
 4370      786C6973 
 4370      7400
 4371              	.LASF3:
 4372 03ef 73686F72 		.ascii	"short int\000"
 4372      7420696E 
 4372      7400
 4373              	.LASF34:
 4374 03f9 705F7374 		.ascii	"p_state\000"
 4374      61746500 
 4375              	.LASF52:
 4376 0401 725F7072 		.ascii	"r_prio\000"
 4376      696F00
 4377              	.LASF91:
 4378 0408 65776D61 		.ascii	"ewmask\000"
 4378      736B00
 4379              	.LASF27:
 4380 040f 705F6E65 		.ascii	"p_next\000"
 4380      787400
 4381              	.LASF35:
 4382 0416 705F666C 		.ascii	"p_flags\000"
 4382      61677300 
 4383              	.LASF118:
 4384 041e 5F5F6675 		.ascii	"__func__\000"
 4384      6E635F5F 
 4384      00
 4385              	.LASF122:
 4386 0427 63684D42 		.ascii	"chMBPost\000"
 4386      506F7374 
 4386      00
 4387              	.LASF114:
 4388 0430 63685379 		.ascii	"chSysLock\000"
 4388      734C6F63 
 4388      6B00
 4389              	.LASF100:
 4390 043a 73656D61 		.ascii	"semaphore_t\000"
 4390      70686F72 
 4390      655F7400 
 4391              	.LASF59:
 4392 0446 63685F76 		.ascii	"ch_virtual_timer\000"
 4392      69727475 
 4392      616C5F74 
 4392      696D6572 
 4392      00
 4393              	.LASF92:
ARM GAS  /tmp/cc0Zgg1q.s 			page 82


 4394 0457 63685F73 		.ascii	"ch_semaphore\000"
 4394      656D6170 
 4394      686F7265 
 4394      00
 4395              	.LASF39:
 4396 0464 705F6570 		.ascii	"p_epending\000"
 4396      656E6469 
 4396      6E6700
 4397              	.LASF15:
 4398 046f 75696E74 		.ascii	"uint32_t\000"
 4398      33325F74 
 4398      00
 4399              	.LASF90:
 4400 0478 77746D74 		.ascii	"wtmtxp\000"
 4400      787000
 4401              	.LASF51:
 4402 047f 725F7175 		.ascii	"r_queue\000"
 4402      65756500 
 4403              	.LASF62:
 4404 0487 76745F64 		.ascii	"vt_delta\000"
 4404      656C7461 
 4404      00
 4405              	.LASF46:
 4406 0490 63685F74 		.ascii	"ch_threads_list\000"
 4406      68726561 
 4406      64735F6C 
 4406      69737400 
 4407              	.LASF9:
 4408 04a0 6C6F6E67 		.ascii	"long unsigned int\000"
 4408      20756E73 
 4408      69676E65 
 4408      6420696E 
 4408      7400
 4409              	.LASF99:
 4410 04b2 63686172 		.ascii	"char\000"
 4410      00
 4411              	.LASF139:
 4412 04b7 63685365 		.ascii	"chSemWaitTimeoutS\000"
 4412      6D576169 
 4412      7454696D 
 4412      656F7574 
 4412      5300
 4413              	.LASF26:
 4414 04c9 74687265 		.ascii	"thread_t\000"
 4414      61645F74 
 4414      00
 4415              	.LASF134:
 4416 04d2 474E5520 		.ascii	"GNU C 4.8.4 20140526 (release) [ARM/embedded-4_8-br"
 4416      4320342E 
 4416      382E3420 
 4416      32303134 
 4416      30353236 
 4417 0505 616E6368 		.ascii	"anch revision 211358] -mcpu=cortex-m4 -mno-thumb-in"
 4417      20726576 
 4417      6973696F 
 4417      6E203231 
 4417      31333538 
ARM GAS  /tmp/cc0Zgg1q.s 			page 83


 4418 0538 74657277 		.ascii	"terwork -mthumb -ggdb -O2 -fomit-frame-pointer -fal"
 4418      6F726B20 
 4418      2D6D7468 
 4418      756D6220 
 4418      2D676764 
 4419 056b 69676E2D 		.ascii	"ign-functions=16 -ffunction-sections -fdata-section"
 4419      66756E63 
 4419      74696F6E 
 4419      733D3136 
 4419      202D6666 
 4420 059e 73202D66 		.ascii	"s -fno-common\000"
 4420      6E6F2D63 
 4420      6F6D6D6F 
 4420      6E00
 4421              	.LASF98:
 4422 05ac 6D5F6E65 		.ascii	"m_next\000"
 4422      787400
 4423              	.LASF25:
 4424 05b3 73797374 		.ascii	"systime_t\000"
 4424      696D655F 
 4424      7400
 4425              	.LASF41:
 4426 05bd 705F7265 		.ascii	"p_realprio\000"
 4426      616C7072 
 4426      696F00
 4427              	.LASF57:
 4428 05c8 76746675 		.ascii	"vtfunc_t\000"
 4428      6E635F74 
 4428      00
 4429              	.LASF137:
 4430 05d1 63685365 		.ascii	"chSemGetCounterI\000"
 4430      6D476574 
 4430      436F756E 
 4430      74657249 
 4430      00
 4431              	.LASF111:
 4432 05e2 5F5F7365 		.ascii	"__set_BASEPRI\000"
 4432      745F4241 
 4432      53455052 
 4432      4900
 4433              	.LASF70:
 4434 05f0 70616E69 		.ascii	"panic_msg\000"
 4434      635F6D73 
 4434      6700
 4435              	.LASF82:
 4436 05fa 6F666673 		.ascii	"offset\000"
 4436      657400
 4437              	.LASF80:
 4438 0601 636F6E74 		.ascii	"context\000"
 4438      65787400 
 4439              	.LASF125:
 4440 0609 63684D42 		.ascii	"chMBPostAhead\000"
 4440      506F7374 
 4440      41686561 
 4440      6400
 4441              	.LASF17:
 4442 0617 7274636E 		.ascii	"rtcnt_t\000"
ARM GAS  /tmp/cc0Zgg1q.s 			page 84


 4442      745F7400 
 4443              	.LASF64:
 4444 061f 76745F70 		.ascii	"vt_par\000"
 4444      617200
 4445              	.LASF112:
 4446 0626 63685365 		.ascii	"chSemFastWaitI\000"
 4446      6D466173 
 4446      74576169 
 4446      744900
 4447              	.LASF106:
 4448 0635 6D625F66 		.ascii	"mb_fullsem\000"
 4448      756C6C73 
 4448      656D00
 4449              	.LASF47:
 4450 0640 74687265 		.ascii	"threads_queue_t\000"
 4450      6164735F 
 4450      71756575 
 4450      655F7400 
 4451              	.LASF95:
 4452 0650 63685F6D 		.ascii	"ch_mutex\000"
 4452      75746578 
 4452      00
 4453              	.LASF36:
 4454 0659 705F7265 		.ascii	"p_refs\000"
 4454      667300
 4455              	.LASF133:
 4456 0660 63685365 		.ascii	"chSemResetI\000"
 4456      6D526573 
 4456      65744900 
 4457              	.LASF135:
 4458 066c 2E2E2F43 		.ascii	"../ChibiOS/os/rt/src/chmboxes.c\000"
 4458      68696269 
 4458      4F532F6F 
 4458      732F7274 
 4458      2F737263 
 4459              	.LASF13:
 4460 068c 75696E74 		.ascii	"uint8_t\000"
 4460      385F7400 
 4461              	.LASF86:
 4462 0694 77746F62 		.ascii	"wtobjp\000"
 4462      6A7000
 4463              	.LASF33:
 4464 069b 705F6E61 		.ascii	"p_name\000"
 4464      6D6500
 4465              	.LASF44:
 4466 06a2 74687265 		.ascii	"threads_list_t\000"
 4466      6164735F 
 4466      6C697374 
 4466      5F7400
 4467              	.LASF115:
 4468 06b1 63685379 		.ascii	"chSysUnlock\000"
 4468      73556E6C 
 4468      6F636B00 
 4469              	.LASF121:
 4470 06bd 63684D42 		.ascii	"chMBPostS\000"
 4470      506F7374 
 4470      5300
ARM GAS  /tmp/cc0Zgg1q.s 			page 85


 4471              	.LASF97:
 4472 06c7 6D5F6F77 		.ascii	"m_owner\000"
 4472      6E657200 
 4473              	.LASF30:
 4474 06cf 705F6374 		.ascii	"p_ctx\000"
 4474      7800
 4475              	.LASF63:
 4476 06d5 76745F66 		.ascii	"vt_func\000"
 4476      756E6300 
 4477              		.ident	"GCC: (GNU Tools for ARM Embedded Processors) 4.8.4 20140526 (release) [ARM/embedded-4_8-br
ARM GAS  /tmp/cc0Zgg1q.s 			page 86


DEFINED SYMBOLS
                            *ABS*:00000000 chmboxes.c
     /tmp/cc0Zgg1q.s:19     .text.chMBObjectInit:00000000 $t
     /tmp/cc0Zgg1q.s:25     .text.chMBObjectInit:00000000 chMBObjectInit
     /tmp/cc0Zgg1q.s:70     .text.chMBResetI:00000000 $t
     /tmp/cc0Zgg1q.s:76     .text.chMBResetI:00000000 chMBResetI
     /tmp/cc0Zgg1q.s:119    .text.chMBReset:00000000 $t
     /tmp/cc0Zgg1q.s:125    .text.chMBReset:00000000 chMBReset
     /tmp/cc0Zgg1q.s:178    .text.chMBPostS:00000000 $t
     /tmp/cc0Zgg1q.s:184    .text.chMBPostS:00000000 chMBPostS
     /tmp/cc0Zgg1q.s:245    .text.chMBPost:00000000 $t
     /tmp/cc0Zgg1q.s:251    .text.chMBPost:00000000 chMBPost
     /tmp/cc0Zgg1q.s:301    .text.chMBPostI:00000000 $t
     /tmp/cc0Zgg1q.s:307    .text.chMBPostI:00000000 chMBPostI
     /tmp/cc0Zgg1q.s:376    .text.chMBPostAheadS:00000000 $t
     /tmp/cc0Zgg1q.s:382    .text.chMBPostAheadS:00000000 chMBPostAheadS
     /tmp/cc0Zgg1q.s:441    .text.chMBPostAhead:00000000 $t
     /tmp/cc0Zgg1q.s:447    .text.chMBPostAhead:00000000 chMBPostAhead
     /tmp/cc0Zgg1q.s:497    .text.chMBPostAheadI:00000000 $t
     /tmp/cc0Zgg1q.s:503    .text.chMBPostAheadI:00000000 chMBPostAheadI
     /tmp/cc0Zgg1q.s:569    .text.chMBFetchS:00000000 $t
     /tmp/cc0Zgg1q.s:575    .text.chMBFetchS:00000000 chMBFetchS
     /tmp/cc0Zgg1q.s:637    .text.chMBFetch:00000000 $t
     /tmp/cc0Zgg1q.s:643    .text.chMBFetch:00000000 chMBFetch
     /tmp/cc0Zgg1q.s:693    .text.chMBFetchI:00000000 $t
     /tmp/cc0Zgg1q.s:699    .text.chMBFetchI:00000000 chMBFetchI
                     .debug_frame:00000010 $d

UNDEFINED SYMBOLS
chSemObjectInit
chSemResetI
chSchRescheduleS
chSemWaitTimeoutS
chSemSignalI
