ARM GAS  /tmp/ccLbt1NC.s 			page 1


   1              		.syntax unified
   2              		.cpu cortex-m4
   3              		.fpu softvfp
   4              		.eabi_attribute 20, 1
   5              		.eabi_attribute 21, 1
   6              		.eabi_attribute 23, 3
   7              		.eabi_attribute 24, 1
   8              		.eabi_attribute 25, 1
   9              		.eabi_attribute 26, 1
  10              		.eabi_attribute 30, 2
  11              		.eabi_attribute 34, 1
  12              		.eabi_attribute 18, 4
  13              		.thumb
  14              		.file	"chmtx.c"
  15              		.text
  16              	.Ltext0:
  17              		.cfi_sections	.debug_frame
  18              		.section	.text.chMtxObjectInit,"ax",%progbits
  19              		.align	2
  20              		.p2align 4,,15
  21              		.global	chMtxObjectInit
  22              		.thumb
  23              		.thumb_func
  24              		.type	chMtxObjectInit, %function
  25              	chMtxObjectInit:
  26              	.LFB241:
  27              		.file 1 "../ChibiOS/os/rt/src/chmtx.c"
  28              		.loc 1 103 0
  29              		.cfi_startproc
  30              		@ args = 0, pretend = 0, frame = 0
  31              		@ frame_needed = 0, uses_anonymous_args = 0
  32              		@ link register save eliminated.
  33              	.LVL0:
  34              		.loc 1 108 0
  35 0000 0023     		movs	r3, #0
  36              	.LBB103:
  37              	.LBB104:
  38              		.file 2 "../ChibiOS/os/rt/include/chschd.h"
  39              		.loc 2 606 0
  40 0002 0060     		str	r0, [r0]
  41              		.loc 2 607 0
  42 0004 4060     		str	r0, [r0, #4]
  43              	.LBE104:
  44              	.LBE103:
  45              		.loc 1 108 0
  46 0006 8360     		str	r3, [r0, #8]
  47 0008 7047     		bx	lr
  48              		.cfi_endproc
  49              	.LFE241:
  50              		.size	chMtxObjectInit, .-chMtxObjectInit
  51 000a 00BFAFF3 		.section	.text.chMtxLockS,"ax",%progbits
  51      0080
  52              		.align	2
  53              		.p2align 4,,15
  54              		.global	chMtxLockS
  55              		.thumb
  56              		.thumb_func
ARM GAS  /tmp/ccLbt1NC.s 			page 2


  57              		.type	chMtxLockS, %function
  58              	chMtxLockS:
  59              	.LFB243:
  60              		.loc 1 139 0
  61              		.cfi_startproc
  62              		@ args = 0, pretend = 0, frame = 0
  63              		@ frame_needed = 0, uses_anonymous_args = 0
  64              	.LVL1:
  65 0000 70B5     		push	{r4, r5, r6, lr}
  66              		.cfi_def_cfa_offset 16
  67              		.cfi_offset 4, -16
  68              		.cfi_offset 5, -12
  69              		.cfi_offset 6, -8
  70              		.cfi_offset 14, -4
  71              		.loc 1 140 0
  72 0002 2F4B     		ldr	r3, .L23
  73              		.loc 1 139 0
  74 0004 0546     		mov	r5, r0
  75              		.loc 1 146 0
  76 0006 8068     		ldr	r0, [r0, #8]
  77              	.LVL2:
  78              		.loc 1 140 0
  79 0008 9C69     		ldr	r4, [r3, #24]
  80              	.LVL3:
  81              		.loc 1 146 0
  82 000a 0028     		cmp	r0, #0
  83 000c 53D0     		beq	.L3
  84              	.LVL4:
  85              	.LBB105:
  86              		.loc 1 165 0 discriminator 1
  87 000e A268     		ldr	r2, [r4, #8]
  88 0010 8368     		ldr	r3, [r0, #8]
  89 0012 9A42     		cmp	r2, r3
  90 0014 06D9     		bls	.L5
  91              	.L14:
  92              		.loc 1 170 0
  93 0016 037F     		ldrb	r3, [r0, #28]	@ zero_extendqisi2
  94              		.loc 1 167 0
  95 0018 8260     		str	r2, [r0, #8]
  96              		.loc 1 170 0
  97 001a 062B     		cmp	r3, #6
  98 001c 32D0     		beq	.L6
  99 001e 072B     		cmp	r3, #7
 100 0020 1CD0     		beq	.L7
 101 0022 9BB1     		cbz	r3, .L22
 102              	.LVL5:
 103              	.L5:
 104              	.LBB106:
 105              	.LBB107:
 106              		.loc 2 655 0
 107 0024 2B46     		mov	r3, r5
 108 0026 03E0     		b	.L20
 109              	.LVL6:
 110              	.L18:
 111              		.loc 2 658 0
 112 0028 9968     		ldr	r1, [r3, #8]
 113 002a A268     		ldr	r2, [r4, #8]
ARM GAS  /tmp/ccLbt1NC.s 			page 3


 114 002c 9142     		cmp	r1, r2
 115 002e 02D3     		bcc	.L19
 116              	.L20:
 117              		.loc 2 657 0
 118 0030 1B68     		ldr	r3, [r3]
 119              	.LVL7:
 120              		.loc 2 658 0
 121 0032 9D42     		cmp	r5, r3
 122 0034 F8D1     		bne	.L18
 123              	.L19:
 124              		.loc 2 660 0
 125 0036 5A68     		ldr	r2, [r3, #4]
 126 0038 6260     		str	r2, [r4, #4]
 127              		.loc 2 659 0
 128 003a 2360     		str	r3, [r4]
 129              		.loc 2 661 0
 130 003c 1460     		str	r4, [r2]
 131              		.loc 2 662 0
 132 003e 5C60     		str	r4, [r3, #4]
 133              	.LBE107:
 134              	.LBE106:
 135              		.loc 1 213 0
 136 0040 2562     		str	r5, [r4, #32]
 137              		.loc 1 214 0
 138 0042 0620     		movs	r0, #6
 139              	.LBE105:
 140              		.loc 1 236 0
 141 0044 BDE87040 		pop	{r4, r5, r6, lr}
 142              	.LVL8:
 143              	.LBB122:
 144              		.loc 1 214 0
 145 0048 FFF7FEBF 		b	chSchGoSleepS
 146              	.LVL9:
 147              	.L22:
 148              	.LBB108:
 149              	.LBB109:
 150              		.loc 2 693 0
 151 004c 90E80C00 		ldmia	r0, {r2, r3}
 152 0050 1A60     		str	r2, [r3]
 153              		.loc 2 694 0
 154 0052 0268     		ldr	r2, [r0]
 155 0054 5360     		str	r3, [r2, #4]
 156              	.LBE109:
 157              	.LBE108:
 158              		.loc 1 202 0
 159 0056 FFF7FEFF 		bl	chSchReadyI
 160              	.LVL10:
 161              		.loc 1 203 0
 162 005a E3E7     		b	.L5
 163              	.LVL11:
 164              	.L7:
 165              	.LBB110:
 166              	.LBB111:
 167              		.loc 2 693 0
 168 005c 90E80A00 		ldmia	r0, {r1, r3}
 169 0060 1960     		str	r1, [r3]
 170              	.LBE111:
ARM GAS  /tmp/ccLbt1NC.s 			page 4


 171              	.LBE110:
 172              		.loc 1 193 0
 173 0062 066A     		ldr	r6, [r0, #32]
 174              	.LVL12:
 175              	.LBB113:
 176              	.LBB112:
 177              		.loc 2 694 0
 178 0064 0168     		ldr	r1, [r0]
 179 0066 4B60     		str	r3, [r1, #4]
 180              	.LBE112:
 181              	.LBE113:
 182              	.LBB114:
 183              	.LBB115:
 184              		.loc 2 655 0
 185 0068 3346     		mov	r3, r6
 186 006a 02E0     		b	.L17
 187              	.LVL13:
 188              	.L15:
 189              		.loc 2 658 0
 190 006c 9968     		ldr	r1, [r3, #8]
 191 006e 8A42     		cmp	r2, r1
 192 0070 02D8     		bhi	.L16
 193              	.L17:
 194              		.loc 2 657 0
 195 0072 1B68     		ldr	r3, [r3]
 196              	.LVL14:
 197              		.loc 2 658 0
 198 0074 9E42     		cmp	r6, r3
 199 0076 F9D1     		bne	.L15
 200              	.L16:
 201              		.loc 2 660 0
 202 0078 5A68     		ldr	r2, [r3, #4]
 203 007a 4260     		str	r2, [r0, #4]
 204              		.loc 2 659 0
 205 007c 0360     		str	r3, [r0]
 206              		.loc 2 661 0
 207 007e 1060     		str	r0, [r2]
 208              		.loc 2 662 0
 209 0080 5860     		str	r0, [r3, #4]
 210 0082 CFE7     		b	.L5
 211              	.LVL15:
 212              	.L6:
 213              	.LBE115:
 214              	.LBE114:
 215              	.LBB116:
 216              	.LBB117:
 217              		.loc 2 693 0
 218 0084 90E80A00 		ldmia	r0, {r1, r3}
 219 0088 1960     		str	r1, [r3]
 220              	.LBE117:
 221              	.LBE116:
 222              		.loc 1 173 0
 223 008a 066A     		ldr	r6, [r0, #32]
 224              	.LVL16:
 225              	.LBB119:
 226              	.LBB118:
 227              		.loc 2 694 0
ARM GAS  /tmp/ccLbt1NC.s 			page 5


 228 008c 0168     		ldr	r1, [r0]
 229 008e 4B60     		str	r3, [r1, #4]
 230              	.LBE118:
 231              	.LBE119:
 232              	.LBB120:
 233              	.LBB121:
 234              		.loc 2 655 0
 235 0090 3346     		mov	r3, r6
 236 0092 02E0     		b	.L13
 237              	.LVL17:
 238              	.L9:
 239              		.loc 2 658 0
 240 0094 9968     		ldr	r1, [r3, #8]
 241 0096 9142     		cmp	r1, r2
 242 0098 02D3     		bcc	.L12
 243              	.L13:
 244              		.loc 2 657 0
 245 009a 1B68     		ldr	r3, [r3]
 246              	.LVL18:
 247              		.loc 2 658 0
 248 009c 9E42     		cmp	r6, r3
 249 009e F9D1     		bne	.L9
 250              	.L12:
 251              		.loc 2 660 0
 252 00a0 5A68     		ldr	r2, [r3, #4]
 253 00a2 4260     		str	r2, [r0, #4]
 254              		.loc 2 659 0
 255 00a4 0360     		str	r3, [r0]
 256              		.loc 2 661 0
 257 00a6 1060     		str	r0, [r2]
 258              		.loc 2 662 0
 259 00a8 5860     		str	r0, [r3, #4]
 260              	.LBE121:
 261              	.LBE120:
 262              		.loc 1 174 0
 263 00aa B068     		ldr	r0, [r6, #8]
 264              	.LVL19:
 265              		.loc 1 165 0
 266 00ac A268     		ldr	r2, [r4, #8]
 267 00ae 8368     		ldr	r3, [r0, #8]
 268              	.LVL20:
 269 00b0 9342     		cmp	r3, r2
 270 00b2 B0D3     		bcc	.L14
 271 00b4 B6E7     		b	.L5
 272              	.LVL21:
 273              	.L3:
 274              	.LBE122:
 275              		.loc 1 233 0
 276 00b6 636B     		ldr	r3, [r4, #52]
 277 00b8 EB60     		str	r3, [r5, #12]
 278              		.loc 1 232 0
 279 00ba AC60     		str	r4, [r5, #8]
 280              		.loc 1 234 0
 281 00bc 6563     		str	r5, [r4, #52]
 282 00be 70BD     		pop	{r4, r5, r6, pc}
 283              	.LVL22:
 284              	.L24:
ARM GAS  /tmp/ccLbt1NC.s 			page 6


 285              		.align	2
 286              	.L23:
 287 00c0 00000000 		.word	ch
 288              		.cfi_endproc
 289              	.LFE243:
 290              		.size	chMtxLockS, .-chMtxLockS
 291 00c4 AFF30080 		.section	.text.chMtxLock,"ax",%progbits
 291      AFF30080 
 291      AFF30080 
 292              		.align	2
 293              		.p2align 4,,15
 294              		.global	chMtxLock
 295              		.thumb
 296              		.thumb_func
 297              		.type	chMtxLock, %function
 298              	chMtxLock:
 299              	.LFB242:
 300              		.loc 1 123 0
 301              		.cfi_startproc
 302              		@ args = 0, pretend = 0, frame = 0
 303              		@ frame_needed = 0, uses_anonymous_args = 0
 304              	.LVL23:
 305 0000 08B5     		push	{r3, lr}
 306              		.cfi_def_cfa_offset 8
 307              		.cfi_offset 3, -8
 308              		.cfi_offset 14, -4
 309              	.LBB123:
 310              	.LBB124:
 311              	.LBB125:
 312              	.LBB126:
 313              		.file 3 "../ChibiOS/os/ext/CMSIS/include/core_cmFunc.h"
 314              		.loc 3 548 0
 315 0002 2023     		movs	r3, #32
 316              	@ 548 "../ChibiOS/os/ext/CMSIS/include/core_cmFunc.h" 1
 317 0004 83F31188 		MSR basepri, r3
 318              	@ 0 "" 2
 319              		.thumb
 320              	.LBE126:
 321              	.LBE125:
 322              	.LBE124:
 323              	.LBE123:
 324              		.loc 1 126 0
 325 0008 FFF7FEFF 		bl	chMtxLockS
 326              	.LVL24:
 327              	.LBB127:
 328              	.LBB128:
 329              	.LBB129:
 330              	.LBB130:
 331              	.LBB131:
 332              		.loc 3 548 0
 333 000c 0023     		movs	r3, #0
 334              	@ 548 "../ChibiOS/os/ext/CMSIS/include/core_cmFunc.h" 1
 335 000e 83F31188 		MSR basepri, r3
 336              	@ 0 "" 2
 337              		.thumb
 338 0012 08BD     		pop	{r3, pc}
 339              	.LBE131:
ARM GAS  /tmp/ccLbt1NC.s 			page 7


 340              	.LBE130:
 341              	.LBE129:
 342              	.LBE128:
 343              	.LBE127:
 344              		.cfi_endproc
 345              	.LFE242:
 346              		.size	chMtxLock, .-chMtxLock
 347 0014 AFF30080 		.section	.text.chMtxTryLock,"ax",%progbits
 347      AFF30080 
 347      AFF30080 
 348              		.align	2
 349              		.p2align 4,,15
 350              		.global	chMtxTryLock
 351              		.thumb
 352              		.thumb_func
 353              		.type	chMtxTryLock, %function
 354              	chMtxTryLock:
 355              	.LFB244:
 356              		.loc 1 255 0
 357              		.cfi_startproc
 358              		@ args = 0, pretend = 0, frame = 0
 359              		@ frame_needed = 0, uses_anonymous_args = 0
 360              		@ link register save eliminated.
 361              	.LVL25:
 362              		.loc 1 255 0
 363 0000 0346     		mov	r3, r0
 364              	.LBB132:
 365              	.LBB133:
 366              	.LBB134:
 367              	.LBB135:
 368              		.loc 3 548 0
 369 0002 2022     		movs	r2, #32
 370              	@ 548 "../ChibiOS/os/ext/CMSIS/include/core_cmFunc.h" 1
 371 0004 82F31188 		MSR basepri, r2
 372              	@ 0 "" 2
 373              	.LVL26:
 374              		.thumb
 375              	.LBE135:
 376              	.LBE134:
 377              	.LBE133:
 378              	.LBE132:
 379              	.LBB136:
 380              	.LBB137:
 381              		.loc 1 287 0
 382 0008 8268     		ldr	r2, [r0, #8]
 383 000a 22B1     		cbz	r2, .L29
 384              		.loc 1 297 0
 385 000c 0020     		movs	r0, #0
 386              	.LVL27:
 387              	.LBE137:
 388              	.LBE136:
 389              	.LBB139:
 390              	.LBB140:
 391              	.LBB141:
 392              	.LBB142:
 393              	.LBB143:
 394              		.loc 3 548 0
ARM GAS  /tmp/ccLbt1NC.s 			page 8


 395 000e 0023     		movs	r3, #0
 396              	.LVL28:
 397              	@ 548 "../ChibiOS/os/ext/CMSIS/include/core_cmFunc.h" 1
 398 0010 83F31188 		MSR basepri, r3
 399              	@ 0 "" 2
 400              		.thumb
 401              	.LBE143:
 402              	.LBE142:
 403              	.LBE141:
 404              	.LBE140:
 405              	.LBE139:
 406              		.loc 1 263 0
 407 0014 7047     		bx	lr
 408              	.LVL29:
 409              	.L29:
 410              	.LBB148:
 411              	.LBB138:
 412              		.loc 1 305 0
 413 0016 054A     		ldr	r2, .L30
 414 0018 9269     		ldr	r2, [r2, #24]
 415 001a 8260     		str	r2, [r0, #8]
 416              		.loc 1 306 0
 417 001c 516B     		ldr	r1, [r2, #52]
 418 001e C160     		str	r1, [r0, #12]
 419              		.loc 1 307 0
 420 0020 5363     		str	r3, [r2, #52]
 421              	.LVL30:
 422              		.loc 1 308 0
 423 0022 0120     		movs	r0, #1
 424              	.LVL31:
 425              	.LBE138:
 426              	.LBE148:
 427              	.LBB149:
 428              	.LBB147:
 429              	.LBB146:
 430              	.LBB145:
 431              	.LBB144:
 432              		.loc 3 548 0
 433 0024 0023     		movs	r3, #0
 434              	.LVL32:
 435              	@ 548 "../ChibiOS/os/ext/CMSIS/include/core_cmFunc.h" 1
 436 0026 83F31188 		MSR basepri, r3
 437              	@ 0 "" 2
 438              		.thumb
 439              	.LBE144:
 440              	.LBE145:
 441              	.LBE146:
 442              	.LBE147:
 443              	.LBE149:
 444              		.loc 1 263 0
 445 002a 7047     		bx	lr
 446              	.L31:
 447              		.align	2
 448              	.L30:
 449 002c 00000000 		.word	ch
 450              		.cfi_endproc
 451              	.LFE244:
ARM GAS  /tmp/ccLbt1NC.s 			page 9


 452              		.size	chMtxTryLock, .-chMtxTryLock
 453              		.section	.text.chMtxTryLockS,"ax",%progbits
 454              		.align	2
 455              		.p2align 4,,15
 456              		.global	chMtxTryLockS
 457              		.thumb
 458              		.thumb_func
 459              		.type	chMtxTryLockS, %function
 460              	chMtxTryLockS:
 461              	.LFB245:
 462              		.loc 1 282 0
 463              		.cfi_startproc
 464              		@ args = 0, pretend = 0, frame = 0
 465              		@ frame_needed = 0, uses_anonymous_args = 0
 466              		@ link register save eliminated.
 467              	.LVL33:
 468              		.loc 1 287 0
 469 0000 8268     		ldr	r2, [r0, #8]
 470              		.loc 1 282 0
 471 0002 0346     		mov	r3, r0
 472              		.loc 1 287 0
 473 0004 0AB1     		cbz	r2, .L35
 474              		.loc 1 297 0
 475 0006 0020     		movs	r0, #0
 476              	.LVL34:
 477              		.loc 1 309 0
 478 0008 7047     		bx	lr
 479              	.LVL35:
 480              	.L35:
 481              		.loc 1 305 0
 482 000a 044A     		ldr	r2, .L36
 483 000c 9269     		ldr	r2, [r2, #24]
 484 000e 8260     		str	r2, [r0, #8]
 485              		.loc 1 306 0
 486 0010 516B     		ldr	r1, [r2, #52]
 487 0012 C160     		str	r1, [r0, #12]
 488              		.loc 1 308 0
 489 0014 0120     		movs	r0, #1
 490              	.LVL36:
 491              		.loc 1 307 0
 492 0016 5363     		str	r3, [r2, #52]
 493              		.loc 1 308 0
 494 0018 7047     		bx	lr
 495              	.L37:
 496 001a 00BF     		.align	2
 497              	.L36:
 498 001c 00000000 		.word	ch
 499              		.cfi_endproc
 500              	.LFE245:
 501              		.size	chMtxTryLockS, .-chMtxTryLockS
 502              		.section	.text.chMtxUnlock,"ax",%progbits
 503              		.align	2
 504              		.p2align 4,,15
 505              		.global	chMtxUnlock
 506              		.thumb
 507              		.thumb_func
 508              		.type	chMtxUnlock, %function
ARM GAS  /tmp/ccLbt1NC.s 			page 10


 509              	chMtxUnlock:
 510              	.LFB246:
 511              		.loc 1 323 0
 512              		.cfi_startproc
 513              		@ args = 0, pretend = 0, frame = 0
 514              		@ frame_needed = 0, uses_anonymous_args = 0
 515              	.LVL37:
 516 0000 38B5     		push	{r3, r4, r5, lr}
 517              		.cfi_def_cfa_offset 16
 518              		.cfi_offset 3, -16
 519              		.cfi_offset 4, -12
 520              		.cfi_offset 5, -8
 521              		.cfi_offset 14, -4
 522              		.loc 1 324 0
 523 0002 174B     		ldr	r3, .L50
 524              		.loc 1 323 0
 525 0004 0446     		mov	r4, r0
 526              		.loc 1 324 0
 527 0006 9869     		ldr	r0, [r3, #24]
 528              	.LVL38:
 529              	.LBB150:
 530              	.LBB151:
 531              	.LBB152:
 532              	.LBB153:
 533              		.loc 3 548 0
 534 0008 2023     		movs	r3, #32
 535              	@ 548 "../ChibiOS/os/ext/CMSIS/include/core_cmFunc.h" 1
 536 000a 83F31188 		MSR basepri, r3
 537              	@ 0 "" 2
 538              		.thumb
 539              	.LBE153:
 540              	.LBE152:
 541              	.LBE151:
 542              	.LBE150:
 543              	.LBB154:
 544              	.LBB155:
 545              	.LBB156:
 546              	.LBB157:
 547              		.loc 2 633 0
 548 000e 2568     		ldr	r5, [r4]
 549              	.LBE157:
 550              	.LBE156:
 551              	.LBE155:
 552              	.LBE154:
 553              		.loc 1 344 0
 554 0010 E368     		ldr	r3, [r4, #12]
 555 0012 4363     		str	r3, [r0, #52]
 556              	.LVL39:
 557              		.loc 1 347 0
 558 0014 AC42     		cmp	r4, r5
 559 0016 1CD0     		beq	.L39
 560              	.LBB158:
 561              		.loc 1 352 0
 562 0018 816B     		ldr	r1, [r0, #56]
 563              	.LVL40:
 564              		.loc 1 354 0
 565 001a 4BB1     		cbz	r3, .L40
ARM GAS  /tmp/ccLbt1NC.s 			page 11


 566              	.L42:
 567              	.LVL41:
 568              	.LBB159:
 569              	.LBB160:
 570              	.LBB161:
 571              	.LBB162:
 572              		.loc 2 633 0
 573 001c 1A68     		ldr	r2, [r3]
 574              	.LBE162:
 575              	.LBE161:
 576              	.LBE160:
 577              	.LBE159:
 578              		.loc 1 358 0
 579 001e 9342     		cmp	r3, r2
 580 0020 03D0     		beq	.L41
 581              		.loc 1 359 0 discriminator 1
 582 0022 9268     		ldr	r2, [r2, #8]
 583 0024 9142     		cmp	r1, r2
 584 0026 38BF     		it	cc
 585 0028 1146     		movcc	r1, r2
 586              	.LVL42:
 587              	.L41:
 588              		.loc 1 362 0
 589 002a DB68     		ldr	r3, [r3, #12]
 590              	.LVL43:
 591              		.loc 1 354 0
 592 002c 002B     		cmp	r3, #0
 593 002e F5D1     		bne	.L42
 594              	.L40:
 595              	.LBB163:
 596              	.LBB164:
 597              		.loc 2 676 0
 598 0030 2B68     		ldr	r3, [r5]
 599              	.LVL44:
 600              	.LBE164:
 601              	.LBE163:
 602              		.loc 1 376 0
 603 0032 6A6B     		ldr	r2, [r5, #52]
 604              		.loc 1 367 0
 605 0034 8160     		str	r1, [r0, #8]
 606              	.LVL45:
 607              	.LBB167:
 608              	.LBB165:
 609              		.loc 2 676 0
 610 0036 2360     		str	r3, [r4]
 611              	.LBE165:
 612              	.LBE167:
 613              		.loc 1 383 0
 614 0038 2846     		mov	r0, r5
 615              	.LVL46:
 616              	.LBB168:
 617              	.LBB166:
 618              		.loc 2 677 0
 619 003a 5C60     		str	r4, [r3, #4]
 620              	.LBE166:
 621              	.LBE168:
 622              		.loc 1 376 0
ARM GAS  /tmp/ccLbt1NC.s 			page 12


 623 003c E260     		str	r2, [r4, #12]
 624              		.loc 1 375 0
 625 003e A560     		str	r5, [r4, #8]
 626              		.loc 1 377 0
 627 0040 6C63     		str	r4, [r5, #52]
 628              		.loc 1 383 0
 629 0042 FFF7FEFF 		bl	chSchReadyI
 630              	.LVL47:
 631              		.loc 1 384 0
 632 0046 FFF7FEFF 		bl	chSchRescheduleS
 633              	.LVL48:
 634              	.LBE158:
 635              	.LBB169:
 636              	.LBB170:
 637              	.LBB171:
 638              	.LBB172:
 639              	.LBB173:
 640              		.loc 3 548 0
 641 004a 0023     		movs	r3, #0
 642              	@ 548 "../ChibiOS/os/ext/CMSIS/include/core_cmFunc.h" 1
 643 004c 83F31188 		MSR basepri, r3
 644              	@ 0 "" 2
 645              		.thumb
 646 0050 38BD     		pop	{r3, r4, r5, pc}
 647              	.LVL49:
 648              	.L39:
 649              	.LBE173:
 650              	.LBE172:
 651              	.LBE171:
 652              	.LBE170:
 653              	.LBE169:
 654              		.loc 1 387 0
 655 0052 0023     		movs	r3, #0
 656 0054 A360     		str	r3, [r4, #8]
 657              	.LVL50:
 658              	.LBB178:
 659              	.LBB177:
 660              	.LBB176:
 661              	.LBB175:
 662              	.LBB174:
 663              		.loc 3 548 0
 664 0056 0023     		movs	r3, #0
 665              	@ 548 "../ChibiOS/os/ext/CMSIS/include/core_cmFunc.h" 1
 666 0058 83F31188 		MSR basepri, r3
 667              	@ 0 "" 2
 668              		.thumb
 669 005c 38BD     		pop	{r3, r4, r5, pc}
 670              	.LVL51:
 671              	.L51:
 672 005e 00BF     		.align	2
 673              	.L50:
 674 0060 00000000 		.word	ch
 675              	.LBE174:
 676              	.LBE175:
 677              	.LBE176:
 678              	.LBE177:
 679              	.LBE178:
ARM GAS  /tmp/ccLbt1NC.s 			page 13


 680              		.cfi_endproc
 681              	.LFE246:
 682              		.size	chMtxUnlock, .-chMtxUnlock
 683 0064 AFF30080 		.section	.text.chMtxUnlockS,"ax",%progbits
 683      AFF30080 
 683      AFF30080 
 684              		.align	2
 685              		.p2align 4,,15
 686              		.global	chMtxUnlockS
 687              		.thumb
 688              		.thumb_func
 689              		.type	chMtxUnlockS, %function
 690              	chMtxUnlockS:
 691              	.LFB247:
 692              		.loc 1 410 0
 693              		.cfi_startproc
 694              		@ args = 0, pretend = 0, frame = 0
 695              		@ frame_needed = 0, uses_anonymous_args = 0
 696              		@ link register save eliminated.
 697              	.LVL52:
 698              		.loc 1 411 0
 699 0000 124B     		ldr	r3, .L63
 700              		.loc 1 410 0
 701 0002 30B4     		push	{r4, r5}
 702              		.cfi_def_cfa_offset 8
 703              		.cfi_offset 4, -8
 704              		.cfi_offset 5, -4
 705              		.loc 1 410 0
 706 0004 0446     		mov	r4, r0
 707              	.LBB179:
 708              	.LBB180:
 709              	.LBB181:
 710              	.LBB182:
 711              		.loc 2 633 0
 712 0006 0568     		ldr	r5, [r0]
 713              	.LBE182:
 714              	.LBE181:
 715              	.LBE180:
 716              	.LBE179:
 717              		.loc 1 411 0
 718 0008 9869     		ldr	r0, [r3, #24]
 719              	.LVL53:
 720              		.loc 1 430 0
 721 000a E368     		ldr	r3, [r4, #12]
 722 000c 4363     		str	r3, [r0, #52]
 723              	.LVL54:
 724              		.loc 1 433 0
 725 000e AC42     		cmp	r4, r5
 726 0010 17D0     		beq	.L53
 727              	.LBB183:
 728              		.loc 1 438 0
 729 0012 816B     		ldr	r1, [r0, #56]
 730              	.LVL55:
 731              		.loc 1 440 0
 732 0014 4BB1     		cbz	r3, .L54
 733              	.L56:
 734              	.LVL56:
ARM GAS  /tmp/ccLbt1NC.s 			page 14


 735              	.LBB184:
 736              	.LBB185:
 737              	.LBB186:
 738              	.LBB187:
 739              		.loc 2 633 0
 740 0016 1A68     		ldr	r2, [r3]
 741              	.LBE187:
 742              	.LBE186:
 743              	.LBE185:
 744              	.LBE184:
 745              		.loc 1 444 0
 746 0018 9342     		cmp	r3, r2
 747 001a 03D0     		beq	.L55
 748              		.loc 1 445 0 discriminator 1
 749 001c 9268     		ldr	r2, [r2, #8]
 750 001e 9142     		cmp	r1, r2
 751 0020 38BF     		it	cc
 752 0022 1146     		movcc	r1, r2
 753              	.LVL57:
 754              	.L55:
 755              		.loc 1 448 0
 756 0024 DB68     		ldr	r3, [r3, #12]
 757              	.LVL58:
 758              		.loc 1 440 0
 759 0026 002B     		cmp	r3, #0
 760 0028 F5D1     		bne	.L56
 761              	.L54:
 762              	.LBB188:
 763              	.LBB189:
 764              		.loc 2 676 0
 765 002a 2B68     		ldr	r3, [r5]
 766              	.LVL59:
 767              	.LBE189:
 768              	.LBE188:
 769              		.loc 1 462 0
 770 002c 6A6B     		ldr	r2, [r5, #52]
 771              		.loc 1 453 0
 772 002e 8160     		str	r1, [r0, #8]
 773              	.LVL60:
 774              	.LBB192:
 775              	.LBB190:
 776              		.loc 2 676 0
 777 0030 2360     		str	r3, [r4]
 778              	.LBE190:
 779              	.LBE192:
 780              		.loc 1 464 0
 781 0032 2846     		mov	r0, r5
 782              	.LVL61:
 783              	.LBB193:
 784              	.LBB191:
 785              		.loc 2 677 0
 786 0034 5C60     		str	r4, [r3, #4]
 787              	.LBE191:
 788              	.LBE193:
 789              		.loc 1 461 0
 790 0036 A560     		str	r5, [r4, #8]
 791              		.loc 1 462 0
ARM GAS  /tmp/ccLbt1NC.s 			page 15


 792 0038 E260     		str	r2, [r4, #12]
 793              		.loc 1 463 0
 794 003a 6C63     		str	r4, [r5, #52]
 795              	.LBE183:
 796              		.loc 1 472 0
 797 003c 30BC     		pop	{r4, r5}
 798              	.LVL62:
 799              	.LBB194:
 800              		.loc 1 464 0
 801 003e FFF7FEBF 		b	chSchReadyI
 802              	.LVL63:
 803              	.L53:
 804              	.LBE194:
 805              		.loc 1 467 0
 806 0042 0023     		movs	r3, #0
 807 0044 A360     		str	r3, [r4, #8]
 808              		.loc 1 472 0
 809 0046 30BC     		pop	{r4, r5}
 810              	.LVL64:
 811 0048 7047     		bx	lr
 812              	.L64:
 813 004a 00BF     		.align	2
 814              	.L63:
 815 004c 00000000 		.word	ch
 816              		.cfi_endproc
 817              	.LFE247:
 818              		.size	chMtxUnlockS, .-chMtxUnlockS
 819              		.section	.text.chMtxUnlockAll,"ax",%progbits
 820              		.align	2
 821              		.p2align 4,,15
 822              		.global	chMtxUnlockAll
 823              		.thumb
 824              		.thumb_func
 825              		.type	chMtxUnlockAll, %function
 826              	chMtxUnlockAll:
 827              	.LFB248:
 828              		.loc 1 485 0
 829              		.cfi_startproc
 830              		@ args = 0, pretend = 0, frame = 0
 831              		@ frame_needed = 0, uses_anonymous_args = 0
 832              		.loc 1 486 0
 833 0000 134A     		ldr	r2, .L76
 834              		.loc 1 485 0
 835 0002 70B5     		push	{r4, r5, r6, lr}
 836              		.cfi_def_cfa_offset 16
 837              		.cfi_offset 4, -16
 838              		.cfi_offset 5, -12
 839              		.cfi_offset 6, -8
 840              		.cfi_offset 14, -4
 841              	.LBB195:
 842              	.LBB196:
 843              	.LBB197:
 844              	.LBB198:
 845              		.loc 3 548 0
 846 0004 2023     		movs	r3, #32
 847              	.LBE198:
 848              	.LBE197:
ARM GAS  /tmp/ccLbt1NC.s 			page 16


 849              	.LBE196:
 850              	.LBE195:
 851              		.loc 1 486 0
 852 0006 9469     		ldr	r4, [r2, #24]
 853              	.LVL65:
 854              	.LBB202:
 855              	.LBB201:
 856              	.LBB200:
 857              	.LBB199:
 858              		.loc 3 548 0
 859              	@ 548 "../ChibiOS/os/ext/CMSIS/include/core_cmFunc.h" 1
 860 0008 83F31188 		MSR basepri, r3
 861              	@ 0 "" 2
 862              		.thumb
 863              	.LBE199:
 864              	.LBE200:
 865              	.LBE201:
 866              	.LBE202:
 867              		.loc 1 489 0
 868 000c 636B     		ldr	r3, [r4, #52]
 869 000e D3B1     		cbz	r3, .L66
 870              	.LBB203:
 871              		.loc 1 507 0
 872 0010 0026     		movs	r6, #0
 873 0012 0BE0     		b	.L70
 874              	.LVL66:
 875              	.L75:
 876              	.LBB204:
 877              	.LBB205:
 878              	.LBB206:
 879              		.loc 2 676 0
 880 0014 1168     		ldr	r1, [r2]
 881              	.LBE206:
 882              	.LBE205:
 883              		.loc 1 499 0
 884 0016 556B     		ldr	r5, [r2, #52]
 885              	.LBB209:
 886              	.LBB207:
 887              		.loc 2 676 0
 888 0018 1960     		str	r1, [r3]
 889              	.LBE207:
 890              	.LBE209:
 891              		.loc 1 501 0
 892 001a 1046     		mov	r0, r2
 893              	.LBB210:
 894              	.LBB208:
 895              		.loc 2 677 0
 896 001c 4B60     		str	r3, [r1, #4]
 897              	.LBE208:
 898              	.LBE210:
 899              		.loc 1 498 0
 900 001e 9A60     		str	r2, [r3, #8]
 901              		.loc 1 499 0
 902 0020 DD60     		str	r5, [r3, #12]
 903              		.loc 1 500 0
 904 0022 5363     		str	r3, [r2, #52]
 905              		.loc 1 501 0
ARM GAS  /tmp/ccLbt1NC.s 			page 17


 906 0024 FFF7FEFF 		bl	chSchReadyI
 907              	.LVL67:
 908              	.LBE204:
 909              	.LBE203:
 910              		.loc 1 509 0
 911 0028 636B     		ldr	r3, [r4, #52]
 912 002a 43B1     		cbz	r3, .L74
 913              	.L70:
 914              	.LVL68:
 915              	.LBB215:
 916              	.LBB211:
 917              	.LBB212:
 918              	.LBB213:
 919              	.LBB214:
 920              		.loc 2 633 0
 921 002c 1A68     		ldr	r2, [r3]
 922              	.LVL69:
 923              	.LBE214:
 924              	.LBE213:
 925              	.LBE212:
 926              	.LBE211:
 927              		.loc 1 492 0
 928 002e D968     		ldr	r1, [r3, #12]
 929 0030 6163     		str	r1, [r4, #52]
 930              	.LVL70:
 931              		.loc 1 493 0
 932 0032 9342     		cmp	r3, r2
 933 0034 EED1     		bne	.L75
 934              		.loc 1 507 0
 935 0036 9E60     		str	r6, [r3, #8]
 936              	.LBE215:
 937              		.loc 1 509 0
 938 0038 636B     		ldr	r3, [r4, #52]
 939              	.LVL71:
 940 003a 002B     		cmp	r3, #0
 941 003c F6D1     		bne	.L70
 942              	.LVL72:
 943              	.L74:
 944              		.loc 1 510 0
 945 003e A36B     		ldr	r3, [r4, #56]
 946 0040 A360     		str	r3, [r4, #8]
 947              		.loc 1 511 0
 948 0042 FFF7FEFF 		bl	chSchRescheduleS
 949              	.LVL73:
 950              	.L66:
 951              	.LBB216:
 952              	.LBB217:
 953              	.LBB218:
 954              	.LBB219:
 955              	.LBB220:
 956              		.loc 3 548 0
 957 0046 0023     		movs	r3, #0
 958              	@ 548 "../ChibiOS/os/ext/CMSIS/include/core_cmFunc.h" 1
 959 0048 83F31188 		MSR basepri, r3
 960              	@ 0 "" 2
 961              		.thumb
 962 004c 70BD     		pop	{r4, r5, r6, pc}
ARM GAS  /tmp/ccLbt1NC.s 			page 18


 963              	.LVL74:
 964              	.L77:
 965 004e 00BF     		.align	2
 966              	.L76:
 967 0050 00000000 		.word	ch
 968              	.LBE220:
 969              	.LBE219:
 970              	.LBE218:
 971              	.LBE217:
 972              	.LBE216:
 973              		.cfi_endproc
 974              	.LFE248:
 975              		.size	chMtxUnlockAll, .-chMtxUnlockAll
 976 0054 AFF30080 		.text
 976      AFF30080 
 976      AFF30080 
 977              	.Letext0:
 978              		.file 4 "/nfs/nfs5/home/research/hardware/arm2/gcc-arm-embedded/gcc-arm-none-eabi-4_8-2014q2/arm-n
 979              		.file 5 "/nfs/nfs5/home/research/hardware/arm2/gcc-arm-embedded/gcc-arm-none-eabi-4_8-2014q2/arm-n
 980              		.file 6 "../ChibiOS/os/rt/ports/ARMCMx/compilers/GCC/chtypes.h"
 981              		.file 7 "../ChibiOS/os/rt/include/chsystypes.h"
 982              		.file 8 "../ChibiOS/os/rt/ports/ARMCMx/chcore.h"
 983              		.file 9 "../ChibiOS/os/rt/ports/ARMCMx/chcore_v7m.h"
 984              		.file 10 "../ChibiOS/os/rt/include/chtm.h"
 985              		.file 11 "../ChibiOS/os/rt/include/chsem.h"
 986              		.file 12 "../ChibiOS/os/rt/include/chmtx.h"
 987              		.file 13 "../ChibiOS/os/rt/include/chsys.h"
 988              		.file 14 "../ChibiOS/os/ext/CMSIS/include/core_cm4.h"