ARM GAS  /tmp/ccLbt1NC.s 			page 1


   1              		.syntax unified
   2              		.cpu cortex-m4
   3              		.fpu softvfp
   4              		.eabi_attribute 20, 1
   5              		.eabi_attribute 21, 1
   6              		.eabi_attribute 23, 3
   7              		.eabi_attribute 24, 1
   8              		.eabi_attribute 25, 1
   9              		.eabi_attribute 26, 1
  10              		.eabi_attribute 30, 2
  11              		.eabi_attribute 34, 1
  12              		.eabi_attribute 18, 4
  13              		.thumb
  14              		.file	"chmtx.c"
  15              		.text
  16              	.Ltext0:
  17              		.cfi_sections	.debug_frame
  18              		.section	.text.chMtxObjectInit,"ax",%progbits
  19              		.align	2
  20              		.p2align 4,,15
  21              		.global	chMtxObjectInit
  22              		.thumb
  23              		.thumb_func
  24              		.type	chMtxObjectInit, %function
  25              	chMtxObjectInit:
  26              	.LFB241:
  27              		.file 1 "../ChibiOS/os/rt/src/chmtx.c"
  28              		.loc 1 103 0
  29              		.cfi_startproc
  30              		@ args = 0, pretend = 0, frame = 0
  31              		@ frame_needed = 0, uses_anonymous_args = 0
  32              		@ link register save eliminated.
  33              	.LVL0:
  34              		.loc 1 108 0
  35 0000 0023     		movs	r3, #0
  36              	.LBB103:
  37              	.LBB104:
  38              		.file 2 "../ChibiOS/os/rt/include/chschd.h"
  39              		.loc 2 606 0
  40 0002 0060     		str	r0, [r0]
  41              		.loc 2 607 0
  42 0004 4060     		str	r0, [r0, #4]
  43              	.LBE104:
  44              	.LBE103:
  45              		.loc 1 108 0
  46 0006 8360     		str	r3, [r0, #8]
  47 0008 7047     		bx	lr
  48              		.cfi_endproc
  49              	.LFE241:
  50              		.size	chMtxObjectInit, .-chMtxObjectInit
  51 000a 00BFAFF3 		.section	.text.chMtxLockS,"ax",%progbits
  51      0080
  52              		.align	2
  53              		.p2align 4,,15
  54              		.global	chMtxLockS
  55              		.thumb
  56              		.thumb_func
ARM GAS  /tmp/ccLbt1NC.s 			page 2


  57              		.type	chMtxLockS, %function
  58              	chMtxLockS:
  59              	.LFB243:
  60              		.loc 1 139 0
  61              		.cfi_startproc
  62              		@ args = 0, pretend = 0, frame = 0
  63              		@ frame_needed = 0, uses_anonymous_args = 0
  64              	.LVL1:
  65 0000 70B5     		push	{r4, r5, r6, lr}
  66              		.cfi_def_cfa_offset 16
  67              		.cfi_offset 4, -16
  68              		.cfi_offset 5, -12
  69              		.cfi_offset 6, -8
  70              		.cfi_offset 14, -4
  71              		.loc 1 140 0
  72 0002 2F4B     		ldr	r3, .L23
  73              		.loc 1 139 0
  74 0004 0546     		mov	r5, r0
  75              		.loc 1 146 0
  76 0006 8068     		ldr	r0, [r0, #8]
  77              	.LVL2:
  78              		.loc 1 140 0
  79 0008 9C69     		ldr	r4, [r3, #24]
  80              	.LVL3:
  81              		.loc 1 146 0
  82 000a 0028     		cmp	r0, #0
  83 000c 53D0     		beq	.L3
  84              	.LVL4:
  85              	.LBB105:
  86              		.loc 1 165 0 discriminator 1
  87 000e A268     		ldr	r2, [r4, #8]
  88 0010 8368     		ldr	r3, [r0, #8]
  89 0012 9A42     		cmp	r2, r3
  90 0014 06D9     		bls	.L5
  91              	.L14:
  92              		.loc 1 170 0
  93 0016 037F     		ldrb	r3, [r0, #28]	@ zero_extendqisi2
  94              		.loc 1 167 0
  95 0018 8260     		str	r2, [r0, #8]
  96              		.loc 1 170 0
  97 001a 062B     		cmp	r3, #6
  98 001c 32D0     		beq	.L6
  99 001e 072B     		cmp	r3, #7
 100 0020 1CD0     		beq	.L7
 101 0022 9BB1     		cbz	r3, .L22
 102              	.LVL5:
 103              	.L5:
 104              	.LBB106:
 105              	.LBB107:
 106              		.loc 2 655 0
 107 0024 2B46     		mov	r3, r5
 108 0026 03E0     		b	.L20
 109              	.LVL6:
 110              	.L18:
 111              		.loc 2 658 0
 112 0028 9968     		ldr	r1, [r3, #8]
 113 002a A268     		ldr	r2, [r4, #8]
ARM GAS  /tmp/ccLbt1NC.s 			page 3


 114 002c 9142     		cmp	r1, r2
 115 002e 02D3     		bcc	.L19
 116              	.L20:
 117              		.loc 2 657 0
 118 0030 1B68     		ldr	r3, [r3]
 119              	.LVL7:
 120              		.loc 2 658 0
 121 0032 9D42     		cmp	r5, r3
 122 0034 F8D1     		bne	.L18
 123              	.L19:
 124              		.loc 2 660 0
 125 0036 5A68     		ldr	r2, [r3, #4]
 126 0038 6260     		str	r2, [r4, #4]
 127              		.loc 2 659 0
 128 003a 2360     		str	r3, [r4]
 129              		.loc 2 661 0
 130 003c 1460     		str	r4, [r2]
 131              		.loc 2 662 0
 132 003e 5C60     		str	r4, [r3, #4]
 133              	.LBE107:
 134              	.LBE106:
 135              		.loc 1 213 0
 136 0040 2562     		str	r5, [r4, #32]
 137              		.loc 1 214 0
 138 0042 0620     		movs	r0, #6
 139              	.LBE105:
 140              		.loc 1 236 0
 141 0044 BDE87040 		pop	{r4, r5, r6, lr}
 142              	.LVL8:
 143              	.LBB122:
 144              		.loc 1 214 0
 145 0048 FFF7FEBF 		b	chSchGoSleepS
 146              	.LVL9:
 147              	.L22:
 148              	.LBB108:
 149              	.LBB109:
 150              		.loc 2 693 0
 151 004c 90E80C00 		ldmia	r0, {r2, r3}
 152 0050 1A60     		str	r2, [r3]
 153              		.loc 2 694 0
 154 0052 0268     		ldr	r2, [r0]
 155 0054 5360     		str	r3, [r2, #4]
 156              	.LBE109:
 157              	.LBE108:
 158              		.loc 1 202 0
 159 0056 FFF7FEFF 		bl	chSchReadyI
 160              	.LVL10:
 161              		.loc 1 203 0
 162 005a E3E7     		b	.L5
 163              	.LVL11:
 164              	.L7:
 165              	.LBB110:
 166              	.LBB111:
 167              		.loc 2 693 0
 168 005c 90E80A00 		ldmia	r0, {r1, r3}
 169 0060 1960     		str	r1, [r3]
 170              	.LBE111:
ARM GAS  /tmp/ccLbt1NC.s 			page 4


 171              	.LBE110:
 172              		.loc 1 193 0
 173 0062 066A     		ldr	r6, [r0, #32]
 174              	.LVL12:
 175              	.LBB113:
 176              	.LBB112:
 177              		.loc 2 694 0
 178 0064 0168     		ldr	r1, [r0]
 179 0066 4B60     		str	r3, [r1, #4]
 180              	.LBE112:
 181              	.LBE113:
 182              	.LBB114:
 183              	.LBB115:
 184              		.loc 2 655 0
 185 0068 3346     		mov	r3, r6
 186 006a 02E0     		b	.L17
 187              	.LVL13:
 188              	.L15:
 189              		.loc 2 658 0
 190 006c 9968     		ldr	r1, [r3, #8]
 191 006e 8A42     		cmp	r2, r1
 192 0070 02D8     		bhi	.L16
 193              	.L17:
 194              		.loc 2 657 0
 195 0072 1B68     		ldr	r3, [r3]
 196              	.LVL14:
 197              		.loc 2 658 0
 198 0074 9E42     		cmp	r6, r3
 199 0076 F9D1     		bne	.L15
 200              	.L16:
 201              		.loc 2 660 0
 202 0078 5A68     		ldr	r2, [r3, #4]
 203 007a 4260     		str	r2, [r0, #4]
 204              		.loc 2 659 0
 205 007c 0360     		str	r3, [r0]
 206              		.loc 2 661 0
 207 007e 1060     		str	r0, [r2]
 208              		.loc 2 662 0
 209 0080 5860     		str	r0, [r3, #4]
 210 0082 CFE7     		b	.L5
 211              	.LVL15:
 212              	.L6:
 213              	.LBE115:
 214              	.LBE114:
 215              	.LBB116:
 216              	.LBB117:
 217              		.loc 2 693 0
 218 0084 90E80A00 		ldmia	r0, {r1, r3}
 219 0088 1960     		str	r1, [r3]
 220              	.LBE117:
 221              	.LBE116:
 222              		.loc 1 173 0
 223 008a 066A     		ldr	r6, [r0, #32]
 224              	.LVL16:
 225              	.LBB119:
 226              	.LBB118:
 227              		.loc 2 694 0
ARM GAS  /tmp/ccLbt1NC.s 			page 5


 228 008c 0168     		ldr	r1, [r0]
 229 008e 4B60     		str	r3, [r1, #4]
 230              	.LBE118:
 231              	.LBE119:
 232              	.LBB120:
 233              	.LBB121:
 234              		.loc 2 655 0
 235 0090 3346     		mov	r3, r6
 236 0092 02E0     		b	.L13
 237              	.LVL17:
 238              	.L9:
 239              		.loc 2 658 0
 240 0094 9968     		ldr	r1, [r3, #8]
 241 0096 9142     		cmp	r1, r2
 242 0098 02D3     		bcc	.L12
 243              	.L13:
 244              		.loc 2 657 0
 245 009a 1B68     		ldr	r3, [r3]
 246              	.LVL18:
 247              		.loc 2 658 0
 248 009c 9E42     		cmp	r6, r3
 249 009e F9D1     		bne	.L9
 250              	.L12:
 251              		.loc 2 660 0
 252 00a0 5A68     		ldr	r2, [r3, #4]
 253 00a2 4260     		str	r2, [r0, #4]
 254              		.loc 2 659 0
 255 00a4 0360     		str	r3, [r0]
 256              		.loc 2 661 0
 257 00a6 1060     		str	r0, [r2]
 258              		.loc 2 662 0
 259 00a8 5860     		str	r0, [r3, #4]
 260              	.LBE121:
 261              	.LBE120:
 262              		.loc 1 174 0
 263 00aa B068     		ldr	r0, [r6, #8]
 264              	.LVL19:
 265              		.loc 1 165 0
 266 00ac A268     		ldr	r2, [r4, #8]
 267 00ae 8368     		ldr	r3, [r0, #8]
 268              	.LVL20:
 269 00b0 9342     		cmp	r3, r2
 270 00b2 B0D3     		bcc	.L14
 271 00b4 B6E7     		b	.L5
 272              	.LVL21:
 273              	.L3:
 274              	.LBE122:
 275              		.loc 1 233 0
 276 00b6 636B     		ldr	r3, [r4, #52]
 277 00b8 EB60     		str	r3, [r5, #12]
 278              		.loc 1 232 0
 279 00ba AC60     		str	r4, [r5, #8]
 280              		.loc 1 234 0
 281 00bc 6563     		str	r5, [r4, #52]
 282 00be 70BD     		pop	{r4, r5, r6, pc}
 283              	.LVL22:
 284              	.L24:
ARM GAS  /tmp/ccLbt1NC.s 			page 6


 285              		.align	2
 286              	.L23:
 287 00c0 00000000 		.word	ch
 288              		.cfi_endproc
 289              	.LFE243:
 290              		.size	chMtxLockS, .-chMtxLockS
 291 00c4 AFF30080 		.section	.text.chMtxLock,"ax",%progbits
 291      AFF30080 
 291      AFF30080 
 292              		.align	2
 293              		.p2align 4,,15
 294              		.global	chMtxLock
 295              		.thumb
 296              		.thumb_func
 297              		.type	chMtxLock, %function
 298              	chMtxLock:
 299              	.LFB242:
 300              		.loc 1 123 0
 301              		.cfi_startproc
 302              		@ args = 0, pretend = 0, frame = 0
 303              		@ frame_needed = 0, uses_anonymous_args = 0
 304              	.LVL23:
 305 0000 08B5     		push	{r3, lr}
 306              		.cfi_def_cfa_offset 8
 307              		.cfi_offset 3, -8
 308              		.cfi_offset 14, -4
 309              	.LBB123:
 310              	.LBB124:
 311              	.LBB125:
 312              	.LBB126:
 313              		.file 3 "../ChibiOS/os/ext/CMSIS/include/core_cmFunc.h"
 314              		.loc 3 548 0
 315 0002 2023     		movs	r3, #32
 316              	@ 548 "../ChibiOS/os/ext/CMSIS/include/core_cmFunc.h" 1
 317 0004 83F31188 		MSR basepri, r3
 318              	@ 0 "" 2
 319              		.thumb
 320              	.LBE126:
 321              	.LBE125:
 322              	.LBE124:
 323              	.LBE123:
 324              		.loc 1 126 0
 325 0008 FFF7FEFF 		bl	chMtxLockS
 326              	.LVL24:
 327              	.LBB127:
 328              	.LBB128:
 329              	.LBB129:
 330              	.LBB130:
 331              	.LBB131:
 332              		.loc 3 548 0
 333 000c 0023     		movs	r3, #0
 334              	@ 548 "../ChibiOS/os/ext/CMSIS/include/core_cmFunc.h" 1
 335 000e 83F31188 		MSR basepri, r3
 336              	@ 0 "" 2
 337              		.thumb
 338 0012 08BD     		pop	{r3, pc}
 339              	.LBE131:
ARM GAS  /tmp/ccLbt1NC.s 			page 7


 340              	.LBE130:
 341              	.LBE129:
 342              	.LBE128:
 343              	.LBE127:
 344              		.cfi_endproc
 345              	.LFE242:
 346              		.size	chMtxLock, .-chMtxLock
 347 0014 AFF30080 		.section	.text.chMtxTryLock,"ax",%progbits
 347      AFF30080 
 347      AFF30080 
 348              		.align	2
 349              		.p2align 4,,15
 350              		.global	chMtxTryLock
 351              		.thumb
 352              		.thumb_func
 353              		.type	chMtxTryLock, %function
 354              	chMtxTryLock:
 355              	.LFB244:
 356              		.loc 1 255 0
 357              		.cfi_startproc
 358              		@ args = 0, pretend = 0, frame = 0
 359              		@ frame_needed = 0, uses_anonymous_args = 0
 360              		@ link register save eliminated.
 361              	.LVL25:
 362              		.loc 1 255 0
 363 0000 0346     		mov	r3, r0
 364              	.LBB132:
 365              	.LBB133:
 366              	.LBB134:
 367              	.LBB135:
 368              		.loc 3 548 0
 369 0002 2022     		movs	r2, #32
 370              	@ 548 "../ChibiOS/os/ext/CMSIS/include/core_cmFunc.h" 1
 371 0004 82F31188 		MSR basepri, r2
 372              	@ 0 "" 2
 373              	.LVL26:
 374              		.thumb
 375              	.LBE135:
 376              	.LBE134:
 377              	.LBE133:
 378              	.LBE132:
 379              	.LBB136:
 380              	.LBB137:
 381              		.loc 1 287 0
 382 0008 8268     		ldr	r2, [r0, #8]
 383 000a 22B1     		cbz	r2, .L29
 384              		.loc 1 297 0
 385 000c 0020     		movs	r0, #0
 386              	.LVL27:
 387              	.LBE137:
 388              	.LBE136:
 389              	.LBB139:
 390              	.LBB140:
 391              	.LBB141:
 392              	.LBB142:
 393              	.LBB143:
 394              		.loc 3 548 0
ARM GAS  /tmp/ccLbt1NC.s 			page 8


 395 000e 0023     		movs	r3, #0
 396              	.LVL28:
 397              	@ 548 "../ChibiOS/os/ext/CMSIS/include/core_cmFunc.h" 1
 398 0010 83F31188 		MSR basepri, r3
 399              	@ 0 "" 2
 400              		.thumb
 401              	.LBE143:
 402              	.LBE142:
 403              	.LBE141:
 404              	.LBE140:
 405              	.LBE139:
 406              		.loc 1 263 0
 407 0014 7047     		bx	lr
 408              	.LVL29:
 409              	.L29:
 410              	.LBB148:
 411              	.LBB138:
 412              		.loc 1 305 0
 413 0016 054A     		ldr	r2, .L30
 414 0018 9269     		ldr	r2, [r2, #24]
 415 001a 8260     		str	r2, [r0, #8]
 416              		.loc 1 306 0
 417 001c 516B     		ldr	r1, [r2, #52]
 418 001e C160     		str	r1, [r0, #12]
 419              		.loc 1 307 0
 420 0020 5363     		str	r3, [r2, #52]
 421              	.LVL30:
 422              		.loc 1 308 0
 423 0022 0120     		movs	r0, #1
 424              	.LVL31:
 425              	.LBE138:
 426              	.LBE148:
 427              	.LBB149:
 428              	.LBB147:
 429              	.LBB146:
 430              	.LBB145:
 431              	.LBB144:
 432              		.loc 3 548 0
 433 0024 0023     		movs	r3, #0
 434              	.LVL32:
 435              	@ 548 "../ChibiOS/os/ext/CMSIS/include/core_cmFunc.h" 1
 436 0026 83F31188 		MSR basepri, r3
 437              	@ 0 "" 2
 438              		.thumb
 439              	.LBE144:
 440              	.LBE145:
 441              	.LBE146:
 442              	.LBE147:
 443              	.LBE149:
 444              		.loc 1 263 0
 445 002a 7047     		bx	lr
 446              	.L31:
 447              		.align	2
 448              	.L30:
 449 002c 00000000 		.word	ch
 450              		.cfi_endproc
 451              	.LFE244:
ARM GAS  /tmp/ccLbt1NC.s 			page 9


 452              		.size	chMtxTryLock, .-chMtxTryLock
 453              		.section	.text.chMtxTryLockS,"ax",%progbits
 454              		.align	2
 455              		.p2align 4,,15
 456              		.global	chMtxTryLockS
 457              		.thumb
 458              		.thumb_func
 459              		.type	chMtxTryLockS, %function
 460              	chMtxTryLockS:
 461              	.LFB245:
 462              		.loc 1 282 0
 463              		.cfi_startproc
 464              		@ args = 0, pretend = 0, frame = 0
 465              		@ frame_needed = 0, uses_anonymous_args = 0
 466              		@ link register save eliminated.
 467              	.LVL33:
 468              		.loc 1 287 0
 469 0000 8268     		ldr	r2, [r0, #8]
 470              		.loc 1 282 0
 471 0002 0346     		mov	r3, r0
 472              		.loc 1 287 0
 473 0004 0AB1     		cbz	r2, .L35
 474              		.loc 1 297 0
 475 0006 0020     		movs	r0, #0
 476              	.LVL34:
 477              		.loc 1 309 0
 478 0008 7047     		bx	lr
 479              	.LVL35:
 480              	.L35:
 481              		.loc 1 305 0
 482 000a 044A     		ldr	r2, .L36
 483 000c 9269     		ldr	r2, [r2, #24]
 484 000e 8260     		str	r2, [r0, #8]
 485              		.loc 1 306 0
 486 0010 516B     		ldr	r1, [r2, #52]
 487 0012 C160     		str	r1, [r0, #12]
 488              		.loc 1 308 0
 489 0014 0120     		movs	r0, #1
 490              	.LVL36:
 491              		.loc 1 307 0
 492 0016 5363     		str	r3, [r2, #52]
 493              		.loc 1 308 0
 494 0018 7047     		bx	lr
 495              	.L37:
 496 001a 00BF     		.align	2
 497              	.L36:
 498 001c 00000000 		.word	ch
 499              		.cfi_endproc
 500              	.LFE245:
 501              		.size	chMtxTryLockS, .-chMtxTryLockS
 502              		.section	.text.chMtxUnlock,"ax",%progbits
 503              		.align	2
 504              		.p2align 4,,15
 505              		.global	chMtxUnlock
 506              		.thumb
 507              		.thumb_func
 508              		.type	chMtxUnlock, %function
ARM GAS  /tmp/ccLbt1NC.s 			page 10


 509              	chMtxUnlock:
 510              	.LFB246:
 511              		.loc 1 323 0
 512              		.cfi_startproc
 513              		@ args = 0, pretend = 0, frame = 0
 514              		@ frame_needed = 0, uses_anonymous_args = 0
 515              	.LVL37:
 516 0000 38B5     		push	{r3, r4, r5, lr}
 517              		.cfi_def_cfa_offset 16
 518              		.cfi_offset 3, -16
 519              		.cfi_offset 4, -12
 520              		.cfi_offset 5, -8
 521              		.cfi_offset 14, -4
 522              		.loc 1 324 0
 523 0002 174B     		ldr	r3, .L50
 524              		.loc 1 323 0
 525 0004 0446     		mov	r4, r0
 526              		.loc 1 324 0
 527 0006 9869     		ldr	r0, [r3, #24]
 528              	.LVL38:
 529              	.LBB150:
 530              	.LBB151:
 531              	.LBB152:
 532              	.LBB153:
 533              		.loc 3 548 0
 534 0008 2023     		movs	r3, #32
 535              	@ 548 "../ChibiOS/os/ext/CMSIS/include/core_cmFunc.h" 1
 536 000a 83F31188 		MSR basepri, r3
 537              	@ 0 "" 2
 538              		.thumb
 539              	.LBE153:
 540              	.LBE152:
 541              	.LBE151:
 542              	.LBE150:
 543              	.LBB154:
 544              	.LBB155:
 545              	.LBB156:
 546              	.LBB157:
 547              		.loc 2 633 0
 548 000e 2568     		ldr	r5, [r4]
 549              	.LBE157:
 550              	.LBE156:
 551              	.LBE155:
 552              	.LBE154:
 553              		.loc 1 344 0
 554 0010 E368     		ldr	r3, [r4, #12]
 555 0012 4363     		str	r3, [r0, #52]
 556              	.LVL39:
 557              		.loc 1 347 0
 558 0014 AC42     		cmp	r4, r5
 559 0016 1CD0     		beq	.L39
 560              	.LBB158:
 561              		.loc 1 352 0
 562 0018 816B     		ldr	r1, [r0, #56]
 563              	.LVL40:
 564              		.loc 1 354 0
 565 001a 4BB1     		cbz	r3, .L40
ARM GAS  /tmp/ccLbt1NC.s 			page 11


 566              	.L42:
 567              	.LVL41:
 568              	.LBB159:
 569              	.LBB160:
 570              	.LBB161:
 571              	.LBB162:
 572              		.loc 2 633 0
 573 001c 1A68     		ldr	r2, [r3]
 574              	.LBE162:
 575              	.LBE161:
 576              	.LBE160:
 577              	.LBE159:
 578              		.loc 1 358 0
 579 001e 9342     		cmp	r3, r2
 580 0020 03D0     		beq	.L41
 581              		.loc 1 359 0 discriminator 1
 582 0022 9268     		ldr	r2, [r2, #8]
 583 0024 9142     		cmp	r1, r2
 584 0026 38BF     		it	cc
 585 0028 1146     		movcc	r1, r2
 586              	.LVL42:
 587              	.L41:
 588              		.loc 1 362 0
 589 002a DB68     		ldr	r3, [r3, #12]
 590              	.LVL43:
 591              		.loc 1 354 0
 592 002c 002B     		cmp	r3, #0
 593 002e F5D1     		bne	.L42
 594              	.L40:
 595              	.LBB163:
 596              	.LBB164:
 597              		.loc 2 676 0
 598 0030 2B68     		ldr	r3, [r5]
 599              	.LVL44:
 600              	.LBE164:
 601              	.LBE163:
 602              		.loc 1 376 0
 603 0032 6A6B     		ldr	r2, [r5, #52]
 604              		.loc 1 367 0
 605 0034 8160     		str	r1, [r0, #8]
 606              	.LVL45:
 607              	.LBB167:
 608              	.LBB165:
 609              		.loc 2 676 0
 610 0036 2360     		str	r3, [r4]
 611              	.LBE165:
 612              	.LBE167:
 613              		.loc 1 383 0
 614 0038 2846     		mov	r0, r5
 615              	.LVL46:
 616              	.LBB168:
 617              	.LBB166:
 618              		.loc 2 677 0
 619 003a 5C60     		str	r4, [r3, #4]
 620              	.LBE166:
 621              	.LBE168:
 622              		.loc 1 376 0
ARM GAS  /tmp/ccLbt1NC.s 			page 12


 623 003c E260     		str	r2, [r4, #12]
 624              		.loc 1 375 0
 625 003e A560     		str	r5, [r4, #8]
 626              		.loc 1 377 0
 627 0040 6C63     		str	r4, [r5, #52]
 628              		.loc 1 383 0
 629 0042 FFF7FEFF 		bl	chSchReadyI
 630              	.LVL47:
 631              		.loc 1 384 0
 632 0046 FFF7FEFF 		bl	chSchRescheduleS
 633              	.LVL48:
 634              	.LBE158:
 635              	.LBB169:
 636              	.LBB170:
 637              	.LBB171:
 638              	.LBB172:
 639              	.LBB173:
 640              		.loc 3 548 0
 641 004a 0023     		movs	r3, #0
 642              	@ 548 "../ChibiOS/os/ext/CMSIS/include/core_cmFunc.h" 1
 643 004c 83F31188 		MSR basepri, r3
 644              	@ 0 "" 2
 645              		.thumb
 646 0050 38BD     		pop	{r3, r4, r5, pc}
 647              	.LVL49:
 648              	.L39:
 649              	.LBE173:
 650              	.LBE172:
 651              	.LBE171:
 652              	.LBE170:
 653              	.LBE169:
 654              		.loc 1 387 0
 655 0052 0023     		movs	r3, #0
 656 0054 A360     		str	r3, [r4, #8]
 657              	.LVL50:
 658              	.LBB178:
 659              	.LBB177:
 660              	.LBB176:
 661              	.LBB175:
 662              	.LBB174:
 663              		.loc 3 548 0
 664 0056 0023     		movs	r3, #0
 665              	@ 548 "../ChibiOS/os/ext/CMSIS/include/core_cmFunc.h" 1
 666 0058 83F31188 		MSR basepri, r3
 667              	@ 0 "" 2
 668              		.thumb
 669 005c 38BD     		pop	{r3, r4, r5, pc}
 670              	.LVL51:
 671              	.L51:
 672 005e 00BF     		.align	2
 673              	.L50:
 674 0060 00000000 		.word	ch
 675              	.LBE174:
 676              	.LBE175:
 677              	.LBE176:
 678              	.LBE177:
 679              	.LBE178:
ARM GAS  /tmp/ccLbt1NC.s 			page 13


 680              		.cfi_endproc
 681              	.LFE246:
 682              		.size	chMtxUnlock, .-chMtxUnlock
 683 0064 AFF30080 		.section	.text.chMtxUnlockS,"ax",%progbits
 683      AFF30080 
 683      AFF30080 
 684              		.align	2
 685              		.p2align 4,,15
 686              		.global	chMtxUnlockS
 687              		.thumb
 688              		.thumb_func
 689              		.type	chMtxUnlockS, %function
 690              	chMtxUnlockS:
 691              	.LFB247:
 692              		.loc 1 410 0
 693              		.cfi_startproc
 694              		@ args = 0, pretend = 0, frame = 0
 695              		@ frame_needed = 0, uses_anonymous_args = 0
 696              		@ link register save eliminated.
 697              	.LVL52:
 698              		.loc 1 411 0
 699 0000 124B     		ldr	r3, .L63
 700              		.loc 1 410 0
 701 0002 30B4     		push	{r4, r5}
 702              		.cfi_def_cfa_offset 8
 703              		.cfi_offset 4, -8
 704              		.cfi_offset 5, -4
 705              		.loc 1 410 0
 706 0004 0446     		mov	r4, r0
 707              	.LBB179:
 708              	.LBB180:
 709              	.LBB181:
 710              	.LBB182:
 711              		.loc 2 633 0
 712 0006 0568     		ldr	r5, [r0]
 713              	.LBE182:
 714              	.LBE181:
 715              	.LBE180:
 716              	.LBE179:
 717              		.loc 1 411 0
 718 0008 9869     		ldr	r0, [r3, #24]
 719              	.LVL53:
 720              		.loc 1 430 0
 721 000a E368     		ldr	r3, [r4, #12]
 722 000c 4363     		str	r3, [r0, #52]
 723              	.LVL54:
 724              		.loc 1 433 0
 725 000e AC42     		cmp	r4, r5
 726 0010 17D0     		beq	.L53
 727              	.LBB183:
 728              		.loc 1 438 0
 729 0012 816B     		ldr	r1, [r0, #56]
 730              	.LVL55:
 731              		.loc 1 440 0
 732 0014 4BB1     		cbz	r3, .L54
 733              	.L56:
 734              	.LVL56:
ARM GAS  /tmp/ccLbt1NC.s 			page 14


 735              	.LBB184:
 736              	.LBB185:
 737              	.LBB186:
 738              	.LBB187:
 739              		.loc 2 633 0
 740 0016 1A68     		ldr	r2, [r3]
 741              	.LBE187:
 742              	.LBE186:
 743              	.LBE185:
 744              	.LBE184:
 745              		.loc 1 444 0
 746 0018 9342     		cmp	r3, r2
 747 001a 03D0     		beq	.L55
 748              		.loc 1 445 0 discriminator 1
 749 001c 9268     		ldr	r2, [r2, #8]
 750 001e 9142     		cmp	r1, r2
 751 0020 38BF     		it	cc
 752 0022 1146     		movcc	r1, r2
 753              	.LVL57:
 754              	.L55:
 755              		.loc 1 448 0
 756 0024 DB68     		ldr	r3, [r3, #12]
 757              	.LVL58:
 758              		.loc 1 440 0
 759 0026 002B     		cmp	r3, #0
 760 0028 F5D1     		bne	.L56
 761              	.L54:
 762              	.LBB188:
 763              	.LBB189:
 764              		.loc 2 676 0
 765 002a 2B68     		ldr	r3, [r5]
 766              	.LVL59:
 767              	.LBE189:
 768              	.LBE188:
 769              		.loc 1 462 0
 770 002c 6A6B     		ldr	r2, [r5, #52]
 771              		.loc 1 453 0
 772 002e 8160     		str	r1, [r0, #8]
 773              	.LVL60:
 774              	.LBB192:
 775              	.LBB190:
 776              		.loc 2 676 0
 777 0030 2360     		str	r3, [r4]
 778              	.LBE190:
 779              	.LBE192:
 780              		.loc 1 464 0
 781 0032 2846     		mov	r0, r5
 782              	.LVL61:
 783              	.LBB193:
 784              	.LBB191:
 785              		.loc 2 677 0
 786 0034 5C60     		str	r4, [r3, #4]
 787              	.LBE191:
 788              	.LBE193:
 789              		.loc 1 461 0
 790 0036 A560     		str	r5, [r4, #8]
 791              		.loc 1 462 0
ARM GAS  /tmp/ccLbt1NC.s 			page 15


 792 0038 E260     		str	r2, [r4, #12]
 793              		.loc 1 463 0
 794 003a 6C63     		str	r4, [r5, #52]
 795              	.LBE183:
 796              		.loc 1 472 0
 797 003c 30BC     		pop	{r4, r5}
 798              	.LVL62:
 799              	.LBB194:
 800              		.loc 1 464 0
 801 003e FFF7FEBF 		b	chSchReadyI
 802              	.LVL63:
 803              	.L53:
 804              	.LBE194:
 805              		.loc 1 467 0
 806 0042 0023     		movs	r3, #0
 807 0044 A360     		str	r3, [r4, #8]
 808              		.loc 1 472 0
 809 0046 30BC     		pop	{r4, r5}
 810              	.LVL64:
 811 0048 7047     		bx	lr
 812              	.L64:
 813 004a 00BF     		.align	2
 814              	.L63:
 815 004c 00000000 		.word	ch
 816              		.cfi_endproc
 817              	.LFE247:
 818              		.size	chMtxUnlockS, .-chMtxUnlockS
 819              		.section	.text.chMtxUnlockAll,"ax",%progbits
 820              		.align	2
 821              		.p2align 4,,15
 822              		.global	chMtxUnlockAll
 823              		.thumb
 824              		.thumb_func
 825              		.type	chMtxUnlockAll, %function
 826              	chMtxUnlockAll:
 827              	.LFB248:
 828              		.loc 1 485 0
 829              		.cfi_startproc
 830              		@ args = 0, pretend = 0, frame = 0
 831              		@ frame_needed = 0, uses_anonymous_args = 0
 832              		.loc 1 486 0
 833 0000 134A     		ldr	r2, .L76
 834              		.loc 1 485 0
 835 0002 70B5     		push	{r4, r5, r6, lr}
 836              		.cfi_def_cfa_offset 16
 837              		.cfi_offset 4, -16
 838              		.cfi_offset 5, -12
 839              		.cfi_offset 6, -8
 840              		.cfi_offset 14, -4
 841              	.LBB195:
 842              	.LBB196:
 843              	.LBB197:
 844              	.LBB198:
 845              		.loc 3 548 0
 846 0004 2023     		movs	r3, #32
 847              	.LBE198:
 848              	.LBE197:
ARM GAS  /tmp/ccLbt1NC.s 			page 16


 849              	.LBE196:
 850              	.LBE195:
 851              		.loc 1 486 0
 852 0006 9469     		ldr	r4, [r2, #24]
 853              	.LVL65:
 854              	.LBB202:
 855              	.LBB201:
 856              	.LBB200:
 857              	.LBB199:
 858              		.loc 3 548 0
 859              	@ 548 "../ChibiOS/os/ext/CMSIS/include/core_cmFunc.h" 1
 860 0008 83F31188 		MSR basepri, r3
 861              	@ 0 "" 2
 862              		.thumb
 863              	.LBE199:
 864              	.LBE200:
 865              	.LBE201:
 866              	.LBE202:
 867              		.loc 1 489 0
 868 000c 636B     		ldr	r3, [r4, #52]
 869 000e D3B1     		cbz	r3, .L66
 870              	.LBB203:
 871              		.loc 1 507 0
 872 0010 0026     		movs	r6, #0
 873 0012 0BE0     		b	.L70
 874              	.LVL66:
 875              	.L75:
 876              	.LBB204:
 877              	.LBB205:
 878              	.LBB206:
 879              		.loc 2 676 0
 880 0014 1168     		ldr	r1, [r2]
 881              	.LBE206:
 882              	.LBE205:
 883              		.loc 1 499 0
 884 0016 556B     		ldr	r5, [r2, #52]
 885              	.LBB209:
 886              	.LBB207:
 887              		.loc 2 676 0
 888 0018 1960     		str	r1, [r3]
 889              	.LBE207:
 890              	.LBE209:
 891              		.loc 1 501 0
 892 001a 1046     		mov	r0, r2
 893              	.LBB210:
 894              	.LBB208:
 895              		.loc 2 677 0
 896 001c 4B60     		str	r3, [r1, #4]
 897              	.LBE208:
 898              	.LBE210:
 899              		.loc 1 498 0
 900 001e 9A60     		str	r2, [r3, #8]
 901              		.loc 1 499 0
 902 0020 DD60     		str	r5, [r3, #12]
 903              		.loc 1 500 0
 904 0022 5363     		str	r3, [r2, #52]
 905              		.loc 1 501 0
ARM GAS  /tmp/ccLbt1NC.s 			page 17


 906 0024 FFF7FEFF 		bl	chSchReadyI
 907              	.LVL67:
 908              	.LBE204:
 909              	.LBE203:
 910              		.loc 1 509 0
 911 0028 636B     		ldr	r3, [r4, #52]
 912 002a 43B1     		cbz	r3, .L74
 913              	.L70:
 914              	.LVL68:
 915              	.LBB215:
 916              	.LBB211:
 917              	.LBB212:
 918              	.LBB213:
 919              	.LBB214:
 920              		.loc 2 633 0
 921 002c 1A68     		ldr	r2, [r3]
 922              	.LVL69:
 923              	.LBE214:
 924              	.LBE213:
 925              	.LBE212:
 926              	.LBE211:
 927              		.loc 1 492 0
 928 002e D968     		ldr	r1, [r3, #12]
 929 0030 6163     		str	r1, [r4, #52]
 930              	.LVL70:
 931              		.loc 1 493 0
 932 0032 9342     		cmp	r3, r2
 933 0034 EED1     		bne	.L75
 934              		.loc 1 507 0
 935 0036 9E60     		str	r6, [r3, #8]
 936              	.LBE215:
 937              		.loc 1 509 0
 938 0038 636B     		ldr	r3, [r4, #52]
 939              	.LVL71:
 940 003a 002B     		cmp	r3, #0
 941 003c F6D1     		bne	.L70
 942              	.LVL72:
 943              	.L74:
 944              		.loc 1 510 0
 945 003e A36B     		ldr	r3, [r4, #56]
 946 0040 A360     		str	r3, [r4, #8]
 947              		.loc 1 511 0
 948 0042 FFF7FEFF 		bl	chSchRescheduleS
 949              	.LVL73:
 950              	.L66:
 951              	.LBB216:
 952              	.LBB217:
 953              	.LBB218:
 954              	.LBB219:
 955              	.LBB220:
 956              		.loc 3 548 0
 957 0046 0023     		movs	r3, #0
 958              	@ 548 "../ChibiOS/os/ext/CMSIS/include/core_cmFunc.h" 1
 959 0048 83F31188 		MSR basepri, r3
 960              	@ 0 "" 2
 961              		.thumb
 962 004c 70BD     		pop	{r4, r5, r6, pc}
ARM GAS  /tmp/ccLbt1NC.s 			page 18


 963              	.LVL74:
 964              	.L77:
 965 004e 00BF     		.align	2
 966              	.L76:
 967 0050 00000000 		.word	ch
 968              	.LBE220:
 969              	.LBE219:
 970              	.LBE218:
 971              	.LBE217:
 972              	.LBE216:
 973              		.cfi_endproc
 974              	.LFE248:
 975              		.size	chMtxUnlockAll, .-chMtxUnlockAll
 976 0054 AFF30080 		.text
 976      AFF30080 
 976      AFF30080 
 977              	.Letext0:
 978              		.file 4 "/nfs/nfs5/home/research/hardware/arm2/gcc-arm-embedded/gcc-arm-none-eabi-4_8-2014q2/arm-n
 979              		.file 5 "/nfs/nfs5/home/research/hardware/arm2/gcc-arm-embedded/gcc-arm-none-eabi-4_8-2014q2/arm-n
 980              		.file 6 "../ChibiOS/os/rt/ports/ARMCMx/compilers/GCC/chtypes.h"
 981              		.file 7 "../ChibiOS/os/rt/include/chsystypes.h"
 982              		.file 8 "../ChibiOS/os/rt/ports/ARMCMx/chcore.h"
 983              		.file 9 "../ChibiOS/os/rt/ports/ARMCMx/chcore_v7m.h"
 984              		.file 10 "../ChibiOS/os/rt/include/chtm.h"
 985              		.file 11 "../ChibiOS/os/rt/include/chsem.h"
 986              		.file 12 "../ChibiOS/os/rt/include/chmtx.h"
 987              		.file 13 "../ChibiOS/os/rt/include/chsys.h"
 988              		.file 14 "../ChibiOS/os/ext/CMSIS/include/core_cm4.h"
 989              		.section	.debug_info,"",%progbits
 990              	.Ldebug_info0:
 991 0000 B00F0000 		.4byte	0xfb0
 992 0004 0400     		.2byte	0x4
 993 0006 00000000 		.4byte	.Ldebug_abbrev0
 994 000a 04       		.byte	0x4
 995 000b 01       		.uleb128 0x1
 996 000c B5040000 		.4byte	.LASF125
 997 0010 01       		.byte	0x1
 998 0011 85020000 		.4byte	.LASF126
 999 0015 F8020000 		.4byte	.LASF127
 1000 0019 38010000 		.4byte	.Ldebug_ranges0+0x138
 1001 001d 00000000 		.4byte	0
 1002 0021 00000000 		.4byte	.Ldebug_line0
 1003 0025 02       		.uleb128 0x2
 1004 0026 04       		.byte	0x4
 1005 0027 05       		.byte	0x5
 1006 0028 696E7400 		.ascii	"int\000"
 1007 002c 03       		.uleb128 0x3
 1008 002d 04       		.byte	0x4
 1009 002e 07       		.byte	0x7
 1010 002f D0010000 		.4byte	.LASF0
 1011 0033 03       		.uleb128 0x3
 1012 0034 01       		.byte	0x1
 1013 0035 06       		.byte	0x6
 1014 0036 D7000000 		.4byte	.LASF1
 1015 003a 04       		.uleb128 0x4
 1016 003b 23000000 		.4byte	.LASF5
 1017 003f 04       		.byte	0x4
ARM GAS  /tmp/ccLbt1NC.s 			page 19


 1018 0040 1C       		.byte	0x1c
 1019 0041 45000000 		.4byte	0x45
 1020 0045 03       		.uleb128 0x3
 1021 0046 01       		.byte	0x1
 1022 0047 08       		.byte	0x8
 1023 0048 D0030000 		.4byte	.LASF2
 1024 004c 03       		.uleb128 0x3
 1025 004d 02       		.byte	0x2
 1026 004e 05       		.byte	0x5
 1027 004f F0030000 		.4byte	.LASF3
 1028 0053 03       		.uleb128 0x3
 1029 0054 02       		.byte	0x2
 1030 0055 07       		.byte	0x7
 1031 0056 06020000 		.4byte	.LASF4
 1032 005a 04       		.uleb128 0x4
 1033 005b 7B020000 		.4byte	.LASF6
 1034 005f 04       		.byte	0x4
 1035 0060 37       		.byte	0x37
 1036 0061 65000000 		.4byte	0x65
 1037 0065 03       		.uleb128 0x3
 1038 0066 04       		.byte	0x4
 1039 0067 05       		.byte	0x5
 1040 0068 10010000 		.4byte	.LASF7
 1041 006c 04       		.uleb128 0x4
 1042 006d BF050000 		.4byte	.LASF8
 1043 0071 04       		.byte	0x4
 1044 0072 38       		.byte	0x38
 1045 0073 77000000 		.4byte	0x77
 1046 0077 03       		.uleb128 0x3
 1047 0078 04       		.byte	0x4
 1048 0079 07       		.byte	0x7
 1049 007a 95040000 		.4byte	.LASF9
 1050 007e 03       		.uleb128 0x3
 1051 007f 08       		.byte	0x8
 1052 0080 05       		.byte	0x5
 1053 0081 3F010000 		.4byte	.LASF10
 1054 0085 04       		.uleb128 0x4
 1055 0086 70030000 		.4byte	.LASF11
 1056 008a 04       		.byte	0x4
 1057 008b 4E       		.byte	0x4e
 1058 008c 90000000 		.4byte	0x90
 1059 0090 03       		.uleb128 0x3
 1060 0091 08       		.byte	0x8
 1061 0092 07       		.byte	0x7
 1062 0093 5D000000 		.4byte	.LASF12
 1063 0097 04       		.uleb128 0x4
 1064 0098 2C060000 		.4byte	.LASF13
 1065 009c 05       		.byte	0x5
 1066 009d 2A       		.byte	0x2a
 1067 009e 3A000000 		.4byte	0x3a
 1068 00a2 04       		.uleb128 0x4
 1069 00a3 C8030000 		.4byte	.LASF14
 1070 00a7 05       		.byte	0x5
 1071 00a8 41       		.byte	0x41
 1072 00a9 5A000000 		.4byte	0x5a
 1073 00ad 04       		.uleb128 0x4
 1074 00ae 61040000 		.4byte	.LASF15
ARM GAS  /tmp/ccLbt1NC.s 			page 20


 1075 00b2 05       		.byte	0x5
 1076 00b3 42       		.byte	0x42
 1077 00b4 6C000000 		.4byte	0x6c
 1078 00b8 04       		.uleb128 0x4
 1079 00b9 1A000000 		.4byte	.LASF16
 1080 00bd 05       		.byte	0x5
 1081 00be 4E       		.byte	0x4e
 1082 00bf 85000000 		.4byte	0x85
 1083 00c3 04       		.uleb128 0x4
 1084 00c4 F7050000 		.4byte	.LASF17
 1085 00c8 06       		.byte	0x6
 1086 00c9 39       		.byte	0x39
 1087 00ca AD000000 		.4byte	0xad
 1088 00ce 04       		.uleb128 0x4
 1089 00cf 4C020000 		.4byte	.LASF18
 1090 00d3 06       		.byte	0x6
 1091 00d4 3C       		.byte	0x3c
 1092 00d5 97000000 		.4byte	0x97
 1093 00d9 04       		.uleb128 0x4
 1094 00da 27010000 		.4byte	.LASF19
 1095 00de 06       		.byte	0x6
 1096 00df 3D       		.byte	0x3d
 1097 00e0 97000000 		.4byte	0x97
 1098 00e4 04       		.uleb128 0x4
 1099 00e5 7B030000 		.4byte	.LASF20
 1100 00e9 06       		.byte	0x6
 1101 00ea 3E       		.byte	0x3e
 1102 00eb 97000000 		.4byte	0x97
 1103 00ef 04       		.uleb128 0x4
 1104 00f0 9A030000 		.4byte	.LASF21
 1105 00f4 06       		.byte	0x6
 1106 00f5 40       		.byte	0x40
 1107 00f6 AD000000 		.4byte	0xad
 1108 00fa 04       		.uleb128 0x4
 1109 00fb 23020000 		.4byte	.LASF22
 1110 00ff 06       		.byte	0x6
 1111 0100 41       		.byte	0x41
 1112 0101 A2000000 		.4byte	0xa2
 1113 0105 04       		.uleb128 0x4
 1114 0106 62020000 		.4byte	.LASF23
 1115 010a 06       		.byte	0x6
 1116 010b 43       		.byte	0x43
 1117 010c AD000000 		.4byte	0xad
 1118 0110 04       		.uleb128 0x4
 1119 0111 BD010000 		.4byte	.LASF24
 1120 0115 06       		.byte	0x6
 1121 0116 45       		.byte	0x45
 1122 0117 A2000000 		.4byte	0xa2
 1123 011b 04       		.uleb128 0x4
 1124 011c A1050000 		.4byte	.LASF25
 1125 0120 07       		.byte	0x7
 1126 0121 33       		.byte	0x33
 1127 0122 AD000000 		.4byte	0xad
 1128 0126 04       		.uleb128 0x4
 1129 0127 AC040000 		.4byte	.LASF26
 1130 012b 07       		.byte	0x7
 1131 012c 3F       		.byte	0x3f
ARM GAS  /tmp/ccLbt1NC.s 			page 21


 1132 012d 31010000 		.4byte	0x131
 1133 0131 05       		.uleb128 0x5
 1134 0132 19020000 		.4byte	.LASF45
 1135 0136 40       		.byte	0x40
 1136 0137 02       		.byte	0x2
 1137 0138 C2       		.byte	0xc2
 1138 0139 11020000 		.4byte	0x211
 1139 013d 06       		.uleb128 0x6
 1140 013e 08040000 		.4byte	.LASF27
 1141 0142 02       		.byte	0x2
 1142 0143 C3       		.byte	0xc3
 1143 0144 1C020000 		.4byte	0x21c
 1144 0148 00       		.byte	0
 1145 0149 06       		.uleb128 0x6
 1146 014a 93030000 		.4byte	.LASF28
 1147 014e 02       		.byte	0x2
 1148 014f C5       		.byte	0xc5
 1149 0150 1C020000 		.4byte	0x21c
 1150 0154 04       		.byte	0x4
 1151 0155 06       		.uleb128 0x6
 1152 0156 C4000000 		.4byte	.LASF29
 1153 015a 02       		.byte	0x2
 1154 015b C7       		.byte	0xc7
 1155 015c EF000000 		.4byte	0xef
 1156 0160 08       		.byte	0x8
 1157 0161 06       		.uleb128 0x6
 1158 0162 77060000 		.4byte	.LASF30
 1159 0166 02       		.byte	0x2
 1160 0167 C8       		.byte	0xc8
 1161 0168 4C040000 		.4byte	0x44c
 1162 016c 0C       		.byte	0xc
 1163 016d 06       		.uleb128 0x6
 1164 016e 66010000 		.4byte	.LASF31
 1165 0172 02       		.byte	0x2
 1166 0173 CA       		.byte	0xca
 1167 0174 1C020000 		.4byte	0x21c
 1168 0178 10       		.byte	0x10
 1169 0179 06       		.uleb128 0x6
 1170 017a 38030000 		.4byte	.LASF32
 1171 017e 02       		.byte	0x2
 1172 017f CB       		.byte	0xcb
 1173 0180 1C020000 		.4byte	0x21c
 1174 0184 14       		.byte	0x14
 1175 0185 06       		.uleb128 0x6
 1176 0186 3B060000 		.4byte	.LASF33
 1177 018a 02       		.byte	0x2
 1178 018b D2       		.byte	0xd2
 1179 018c D7050000 		.4byte	0x5d7
 1180 0190 18       		.byte	0x18
 1181 0191 06       		.uleb128 0x6
 1182 0192 DE030000 		.4byte	.LASF34
 1183 0196 02       		.byte	0x2
 1184 0197 DD       		.byte	0xdd
 1185 0198 D9000000 		.4byte	0xd9
 1186 019c 1C       		.byte	0x1c
 1187 019d 06       		.uleb128 0x6
 1188 019e 0F040000 		.4byte	.LASF35
ARM GAS  /tmp/ccLbt1NC.s 			page 22


 1189 01a2 02       		.byte	0x2
 1190 01a3 E1       		.byte	0xe1
 1191 01a4 CE000000 		.4byte	0xce
 1192 01a8 1D       		.byte	0x1d
 1193 01a9 06       		.uleb128 0x6
 1194 01aa 1F060000 		.4byte	.LASF36
 1195 01ae 02       		.byte	0x2
 1196 01af E6       		.byte	0xe6
 1197 01b0 E4000000 		.4byte	0xe4
 1198 01b4 1E       		.byte	0x1e
 1199 01b5 07       		.uleb128 0x7
 1200 01b6 705F7500 		.ascii	"p_u\000"
 1201 01ba 02       		.byte	0x2
 1202 01bb 3701     		.2byte	0x137
 1203 01bd 06050000 		.4byte	0x506
 1204 01c1 20       		.byte	0x20
 1205 01c2 08       		.uleb128 0x8
 1206 01c3 AD020000 		.4byte	.LASF37
 1207 01c7 02       		.byte	0x2
 1208 01c8 3C01     		.2byte	0x13c
 1209 01ca 22020000 		.4byte	0x222
 1210 01ce 24       		.byte	0x24
 1211 01cf 08       		.uleb128 0x8
 1212 01d0 F5010000 		.4byte	.LASF38
 1213 01d4 02       		.byte	0x2
 1214 01d5 4201     		.2byte	0x142
 1215 01d7 46020000 		.4byte	0x246
 1216 01db 28       		.byte	0x28
 1217 01dc 08       		.uleb128 0x8
 1218 01dd 56040000 		.4byte	.LASF39
 1219 01e1 02       		.byte	0x2
 1220 01e2 4801     		.2byte	0x148
 1221 01e4 05010000 		.4byte	0x105
 1222 01e8 30       		.byte	0x30
 1223 01e9 08       		.uleb128 0x8
 1224 01ea E6030000 		.4byte	.LASF40
 1225 01ee 02       		.byte	0x2
 1226 01ef 4F01     		.2byte	0x14f
 1227 01f1 D1050000 		.4byte	0x5d1
 1228 01f5 34       		.byte	0x34
 1229 01f6 08       		.uleb128 0x8
 1230 01f7 AB050000 		.4byte	.LASF41
 1231 01fb 02       		.byte	0x2
 1232 01fc 5301     		.2byte	0x153
 1233 01fe EF000000 		.4byte	0xef
 1234 0202 38       		.byte	0x38
 1235 0203 08       		.uleb128 0x8
 1236 0204 E3000000 		.4byte	.LASF42
 1237 0208 02       		.byte	0x2
 1238 0209 5A01     		.2byte	0x15a
 1239 020b F9020000 		.4byte	0x2f9
 1240 020f 3C       		.byte	0x3c
 1241 0210 00       		.byte	0
 1242 0211 04       		.uleb128 0x4
 1243 0212 C0020000 		.4byte	.LASF43
 1244 0216 07       		.byte	0x7
 1245 0217 44       		.byte	0x44
ARM GAS  /tmp/ccLbt1NC.s 			page 23


 1246 0218 1C020000 		.4byte	0x21c
 1247 021c 09       		.uleb128 0x9
 1248 021d 04       		.byte	0x4
 1249 021e 26010000 		.4byte	0x126
 1250 0222 04       		.uleb128 0x4
 1251 0223 42060000 		.4byte	.LASF44
 1252 0227 07       		.byte	0x7
 1253 0228 49       		.byte	0x49
 1254 0229 2D020000 		.4byte	0x22d
 1255 022d 05       		.uleb128 0x5
 1256 022e 85040000 		.4byte	.LASF46
 1257 0232 04       		.byte	0x4
 1258 0233 02       		.byte	0x2
 1259 0234 B0       		.byte	0xb0
 1260 0235 46020000 		.4byte	0x246
 1261 0239 06       		.uleb128 0x6
 1262 023a 08040000 		.4byte	.LASF27
 1263 023e 02       		.byte	0x2
 1264 023f B1       		.byte	0xb1
 1265 0240 1C020000 		.4byte	0x21c
 1266 0244 00       		.byte	0
 1267 0245 00       		.byte	0
 1268 0246 04       		.uleb128 0x4
 1269 0247 06060000 		.4byte	.LASF47
 1270 024b 07       		.byte	0x7
 1271 024c 50       		.byte	0x50
 1272 024d 51020000 		.4byte	0x251
 1273 0251 05       		.uleb128 0x5
 1274 0252 B3000000 		.4byte	.LASF48
 1275 0256 08       		.byte	0x8
 1276 0257 02       		.byte	0x2
 1277 0258 B7       		.byte	0xb7
 1278 0259 76020000 		.4byte	0x276
 1279 025d 06       		.uleb128 0x6
 1280 025e 08040000 		.4byte	.LASF27
 1281 0262 02       		.byte	0x2
 1282 0263 B8       		.byte	0xb8
 1283 0264 1C020000 		.4byte	0x21c
 1284 0268 00       		.byte	0
 1285 0269 06       		.uleb128 0x6
 1286 026a 93030000 		.4byte	.LASF28
 1287 026e 02       		.byte	0x2
 1288 026f B9       		.byte	0xb9
 1289 0270 1C020000 		.4byte	0x21c
 1290 0274 04       		.byte	0x4
 1291 0275 00       		.byte	0
 1292 0276 04       		.uleb128 0x4
 1293 0277 00000000 		.4byte	.LASF49
 1294 027b 07       		.byte	0x7
 1295 027c 57       		.byte	0x57
 1296 027d 81020000 		.4byte	0x281
 1297 0281 0A       		.uleb128 0xa
 1298 0282 54020000 		.4byte	.LASF50
 1299 0286 1C       		.byte	0x1c
 1300 0287 02       		.byte	0x2
 1301 0288 9201     		.2byte	0x192
 1302 028a DD020000 		.4byte	0x2dd
ARM GAS  /tmp/ccLbt1NC.s 			page 24


 1303 028e 08       		.uleb128 0x8
 1304 028f 71040000 		.4byte	.LASF51
 1305 0293 02       		.byte	0x2
 1306 0294 9301     		.2byte	0x193
 1307 0296 46020000 		.4byte	0x246
 1308 029a 00       		.byte	0
 1309 029b 08       		.uleb128 0x8
 1310 029c FA030000 		.4byte	.LASF52
 1311 02a0 02       		.byte	0x2
 1312 02a1 9401     		.2byte	0x194
 1313 02a3 EF000000 		.4byte	0xef
 1314 02a7 08       		.byte	0x8
 1315 02a8 08       		.uleb128 0x8
 1316 02a9 40030000 		.4byte	.LASF53
 1317 02ad 02       		.byte	0x2
 1318 02ae 9601     		.2byte	0x196
 1319 02b0 4C040000 		.4byte	0x44c
 1320 02b4 0C       		.byte	0xc
 1321 02b5 08       		.uleb128 0x8
 1322 02b6 87010000 		.4byte	.LASF54
 1323 02ba 02       		.byte	0x2
 1324 02bb 9901     		.2byte	0x199
 1325 02bd 1C020000 		.4byte	0x21c
 1326 02c1 10       		.byte	0x10
 1327 02c2 08       		.uleb128 0x8
 1328 02c3 68030000 		.4byte	.LASF55
 1329 02c7 02       		.byte	0x2
 1330 02c8 9A01     		.2byte	0x19a
 1331 02ca 1C020000 		.4byte	0x21c
 1332 02ce 14       		.byte	0x14
 1333 02cf 08       		.uleb128 0x8
 1334 02d0 5E030000 		.4byte	.LASF56
 1335 02d4 02       		.byte	0x2
 1336 02d5 9D01     		.2byte	0x19d
 1337 02d7 1C020000 		.4byte	0x21c
 1338 02db 18       		.byte	0x18
 1339 02dc 00       		.byte	0
 1340 02dd 04       		.uleb128 0x4
 1341 02de B6050000 		.4byte	.LASF57
 1342 02e2 07       		.byte	0x7
 1343 02e3 5C       		.byte	0x5c
 1344 02e4 E8020000 		.4byte	0x2e8
 1345 02e8 09       		.uleb128 0x9
 1346 02e9 04       		.byte	0x4
 1347 02ea EE020000 		.4byte	0x2ee
 1348 02ee 0B       		.uleb128 0xb
 1349 02ef F9020000 		.4byte	0x2f9
 1350 02f3 0C       		.uleb128 0xc
 1351 02f4 F9020000 		.4byte	0x2f9
 1352 02f8 00       		.byte	0
 1353 02f9 0D       		.uleb128 0xd
 1354 02fa 04       		.byte	0x4
 1355 02fb 04       		.uleb128 0x4
 1356 02fc 83030000 		.4byte	.LASF58
 1357 0300 07       		.byte	0x7
 1358 0301 61       		.byte	0x61
 1359 0302 06030000 		.4byte	0x306
ARM GAS  /tmp/ccLbt1NC.s 			page 25


 1360 0306 0A       		.uleb128 0xa
 1361 0307 2A040000 		.4byte	.LASF59
 1362 030b 14       		.byte	0x14
 1363 030c 02       		.byte	0x2
 1364 030d 6D01     		.2byte	0x16d
 1365 030f 55030000 		.4byte	0x355
 1366 0313 08       		.uleb128 0x8
 1367 0314 DD010000 		.4byte	.LASF60
 1368 0318 02       		.byte	0x2
 1369 0319 6E01     		.2byte	0x16e
 1370 031b E9050000 		.4byte	0x5e9
 1371 031f 00       		.byte	0
 1372 0320 08       		.uleb128 0x8
 1373 0321 98010000 		.4byte	.LASF61
 1374 0325 02       		.byte	0x2
 1375 0326 6F01     		.2byte	0x16f
 1376 0328 E9050000 		.4byte	0x5e9
 1377 032c 04       		.byte	0x4
 1378 032d 08       		.uleb128 0x8
 1379 032e EC010000 		.4byte	.LASF62
 1380 0332 02       		.byte	0x2
 1381 0333 7001     		.2byte	0x170
 1382 0335 1B010000 		.4byte	0x11b
 1383 0339 08       		.byte	0x8
 1384 033a 08       		.uleb128 0x8
 1385 033b 7D060000 		.4byte	.LASF63
 1386 033f 02       		.byte	0x2
 1387 0340 7101     		.2byte	0x171
 1388 0342 DD020000 		.4byte	0x2dd
 1389 0346 0C       		.byte	0xc
 1390 0347 08       		.uleb128 0x8
 1391 0348 FF050000 		.4byte	.LASF64
 1392 034c 02       		.byte	0x2
 1393 034d 7301     		.2byte	0x173
 1394 034f F9020000 		.4byte	0x2f9
 1395 0353 10       		.byte	0x10
 1396 0354 00       		.byte	0
 1397 0355 04       		.uleb128 0x4
 1398 0356 90000000 		.4byte	.LASF65
 1399 035a 07       		.byte	0x7
 1400 035b 66       		.byte	0x66
 1401 035c 60030000 		.4byte	0x360
 1402 0360 0A       		.uleb128 0xa
 1403 0361 D3020000 		.4byte	.LASF66
 1404 0365 10       		.byte	0x10
 1405 0366 02       		.byte	0x2
 1406 0367 7D01     		.2byte	0x17d
 1407 0369 A2030000 		.4byte	0x3a2
 1408 036d 08       		.uleb128 0x8
 1409 036e DD010000 		.4byte	.LASF60
 1410 0372 02       		.byte	0x2
 1411 0373 7E01     		.2byte	0x17e
 1412 0375 E9050000 		.4byte	0x5e9
 1413 0379 00       		.byte	0
 1414 037a 08       		.uleb128 0x8
 1415 037b 98010000 		.4byte	.LASF61
 1416 037f 02       		.byte	0x2
ARM GAS  /tmp/ccLbt1NC.s 			page 26


 1417 0380 8001     		.2byte	0x180
 1418 0382 E9050000 		.4byte	0x5e9
 1419 0386 04       		.byte	0x4
 1420 0387 08       		.uleb128 0x8
 1421 0388 EC010000 		.4byte	.LASF62
 1422 038c 02       		.byte	0x2
 1423 038d 8201     		.2byte	0x182
 1424 038f 1B010000 		.4byte	0x11b
 1425 0393 08       		.byte	0x8
 1426 0394 08       		.uleb128 0x8
 1427 0395 22030000 		.4byte	.LASF67
 1428 0399 02       		.byte	0x2
 1429 039a 8A01     		.2byte	0x18a
 1430 039c 1B010000 		.4byte	0x11b
 1431 03a0 0C       		.byte	0xc
 1432 03a1 00       		.byte	0
 1433 03a2 04       		.uleb128 0x4
 1434 03a3 39000000 		.4byte	.LASF68
 1435 03a7 07       		.byte	0x7
 1436 03a8 6B       		.byte	0x6b
 1437 03a9 AD030000 		.4byte	0x3ad
 1438 03ad 0A       		.uleb128 0xa
 1439 03ae B2030000 		.4byte	.LASF69
 1440 03b2 04       		.byte	0x4
 1441 03b3 02       		.byte	0x2
 1442 03b4 A401     		.2byte	0x1a4
 1443 03b6 C8030000 		.4byte	0x3c8
 1444 03ba 08       		.uleb128 0x8
 1445 03bb DE050000 		.4byte	.LASF70
 1446 03bf 02       		.byte	0x2
 1447 03c0 AC01     		.2byte	0x1ac
 1448 03c2 EF050000 		.4byte	0x5ef
 1449 03c6 00       		.byte	0
 1450 03c7 00       		.byte	0
 1451 03c8 04       		.uleb128 0x4
 1452 03c9 29020000 		.4byte	.LASF71
 1453 03cd 07       		.byte	0x7
 1454 03ce 70       		.byte	0x70
 1455 03cf D3030000 		.4byte	0x3d3
 1456 03d3 0E       		.uleb128 0xe
 1457 03d4 06010000 		.4byte	.LASF72
 1458 03d8 5001     		.2byte	0x150
 1459 03da 02       		.byte	0x2
 1460 03db C401     		.2byte	0x1c4
 1461 03dd 2F040000 		.4byte	0x42f
 1462 03e1 08       		.uleb128 0x8
 1463 03e2 26060000 		.4byte	.LASF73
 1464 03e6 02       		.byte	0x2
 1465 03e7 C801     		.2byte	0x1c8
 1466 03e9 76020000 		.4byte	0x276
 1467 03ed 00       		.byte	0
 1468 03ee 08       		.uleb128 0x8
 1469 03ef F3000000 		.4byte	.LASF74
 1470 03f3 02       		.byte	0x2
 1471 03f4 CC01     		.2byte	0x1cc
 1472 03f6 55030000 		.4byte	0x355
 1473 03fa 1C       		.byte	0x1c
ARM GAS  /tmp/ccLbt1NC.s 			page 27


 1474 03fb 07       		.uleb128 0x7
 1475 03fc 64626700 		.ascii	"dbg\000"
 1476 0400 02       		.byte	0x2
 1477 0401 D001     		.2byte	0x1d0
 1478 0403 A2030000 		.4byte	0x3a2
 1479 0407 2C       		.byte	0x2c
 1480 0408 08       		.uleb128 0x8
 1481 0409 7D000000 		.4byte	.LASF75
 1482 040d 02       		.byte	0x2
 1483 040e D401     		.2byte	0x1d4
 1484 0410 26010000 		.4byte	0x126
 1485 0414 30       		.byte	0x30
 1486 0415 07       		.uleb128 0x7
 1487 0416 746D00   		.ascii	"tm\000"
 1488 0419 02       		.byte	0x2
 1489 041a D901     		.2byte	0x1d9
 1490 041c FB040000 		.4byte	0x4fb
 1491 0420 70       		.byte	0x70
 1492 0421 08       		.uleb128 0x8
 1493 0422 AE010000 		.4byte	.LASF76
 1494 0426 02       		.byte	0x2
 1495 0427 E501     		.2byte	0x1e5
 1496 0429 F4050000 		.4byte	0x5f4
 1497 042d 78       		.byte	0x78
 1498 042e 00       		.byte	0
 1499 042f 03       		.uleb128 0x3
 1500 0430 04       		.byte	0x4
 1501 0431 07       		.byte	0x7
 1502 0432 B7020000 		.4byte	.LASF77
 1503 0436 04       		.uleb128 0x4
 1504 0437 8F010000 		.4byte	.LASF78
 1505 043b 08       		.byte	0x8
 1506 043c 65       		.byte	0x65
 1507 043d F9020000 		.4byte	0x2f9
 1508 0441 04       		.uleb128 0x4
 1509 0442 A2020000 		.4byte	.LASF79
 1510 0446 08       		.byte	0x8
 1511 0447 6D       		.byte	0x6d
 1512 0448 B8000000 		.4byte	0xb8
 1513 044c 05       		.uleb128 0x5
 1514 044d EF050000 		.4byte	.LASF80
 1515 0451 04       		.byte	0x4
 1516 0452 08       		.byte	0x8
 1517 0453 89       		.byte	0x89
 1518 0454 65040000 		.4byte	0x465
 1519 0458 0F       		.uleb128 0xf
 1520 0459 72313300 		.ascii	"r13\000"
 1521 045d 08       		.byte	0x8
 1522 045e 8A       		.byte	0x8a
 1523 045f E0040000 		.4byte	0x4e0
 1524 0463 00       		.byte	0
 1525 0464 00       		.byte	0
 1526 0465 05       		.uleb128 0x5
 1527 0466 2D000000 		.4byte	.LASF81
 1528 046a 24       		.byte	0x24
 1529 046b 09       		.byte	0x9
 1530 046c FD       		.byte	0xfd
ARM GAS  /tmp/ccLbt1NC.s 			page 28


 1531 046d E0040000 		.4byte	0x4e0
 1532 0471 07       		.uleb128 0x7
 1533 0472 723400   		.ascii	"r4\000"
 1534 0475 09       		.byte	0x9
 1535 0476 1001     		.2byte	0x110
 1536 0478 36040000 		.4byte	0x436
 1537 047c 00       		.byte	0
 1538 047d 07       		.uleb128 0x7
 1539 047e 723500   		.ascii	"r5\000"
 1540 0481 09       		.byte	0x9
 1541 0482 1101     		.2byte	0x111
 1542 0484 36040000 		.4byte	0x436
 1543 0488 04       		.byte	0x4
 1544 0489 07       		.uleb128 0x7
 1545 048a 723600   		.ascii	"r6\000"
 1546 048d 09       		.byte	0x9
 1547 048e 1201     		.2byte	0x112
 1548 0490 36040000 		.4byte	0x436
 1549 0494 08       		.byte	0x8
 1550 0495 07       		.uleb128 0x7
 1551 0496 723700   		.ascii	"r7\000"
 1552 0499 09       		.byte	0x9
 1553 049a 1301     		.2byte	0x113
 1554 049c 36040000 		.4byte	0x436
 1555 04a0 0C       		.byte	0xc
 1556 04a1 07       		.uleb128 0x7
 1557 04a2 723800   		.ascii	"r8\000"
 1558 04a5 09       		.byte	0x9
 1559 04a6 1401     		.2byte	0x114
 1560 04a8 36040000 		.4byte	0x436
 1561 04ac 10       		.byte	0x10
 1562 04ad 07       		.uleb128 0x7
 1563 04ae 723900   		.ascii	"r9\000"
 1564 04b1 09       		.byte	0x9
 1565 04b2 1501     		.2byte	0x115
 1566 04b4 36040000 		.4byte	0x436
 1567 04b8 14       		.byte	0x14
 1568 04b9 07       		.uleb128 0x7
 1569 04ba 72313000 		.ascii	"r10\000"
 1570 04be 09       		.byte	0x9
 1571 04bf 1601     		.2byte	0x116
 1572 04c1 36040000 		.4byte	0x436
 1573 04c5 18       		.byte	0x18
 1574 04c6 07       		.uleb128 0x7
 1575 04c7 72313100 		.ascii	"r11\000"
 1576 04cb 09       		.byte	0x9
 1577 04cc 1701     		.2byte	0x117
 1578 04ce 36040000 		.4byte	0x436
 1579 04d2 1C       		.byte	0x1c
 1580 04d3 07       		.uleb128 0x7
 1581 04d4 6C7200   		.ascii	"lr\000"
 1582 04d7 09       		.byte	0x9
 1583 04d8 1801     		.2byte	0x118
 1584 04da 36040000 		.4byte	0x436
 1585 04de 20       		.byte	0x20
 1586 04df 00       		.byte	0
 1587 04e0 09       		.uleb128 0x9
ARM GAS  /tmp/ccLbt1NC.s 			page 29


 1588 04e1 04       		.byte	0x4
 1589 04e2 65040000 		.4byte	0x465
 1590 04e6 10       		.uleb128 0x10
 1591 04e7 04       		.byte	0x4
 1592 04e8 0A       		.byte	0xa
 1593 04e9 38       		.byte	0x38
 1594 04ea FB040000 		.4byte	0x4fb
 1595 04ee 06       		.uleb128 0x6
 1596 04ef E8050000 		.4byte	.LASF82
 1597 04f3 0A       		.byte	0xa
 1598 04f4 3C       		.byte	0x3c
 1599 04f5 C3000000 		.4byte	0xc3
 1600 04f9 00       		.byte	0
 1601 04fa 00       		.byte	0
 1602 04fb 04       		.uleb128 0x4
 1603 04fc 46030000 		.4byte	.LASF83
 1604 0500 0A       		.byte	0xa
 1605 0501 3D       		.byte	0x3d
 1606 0502 E6040000 		.4byte	0x4e6
 1607 0506 11       		.uleb128 0x11
 1608 0507 04       		.byte	0x4
 1609 0508 02       		.byte	0x2
 1610 0509 FA       		.byte	0xfa
 1611 050a 6F050000 		.4byte	0x56f
 1612 050e 12       		.uleb128 0x12
 1613 050f 13000000 		.4byte	.LASF84
 1614 0513 02       		.byte	0x2
 1615 0514 0101     		.2byte	0x101
 1616 0516 FA000000 		.4byte	0xfa
 1617 051a 12       		.uleb128 0x12
 1618 051b 74000000 		.4byte	.LASF85
 1619 051f 02       		.byte	0x2
 1620 0520 0801     		.2byte	0x108
 1621 0522 FA000000 		.4byte	0xfa
 1622 0526 12       		.uleb128 0x12
 1623 0527 34060000 		.4byte	.LASF86
 1624 052b 02       		.byte	0x2
 1625 052c 0F01     		.2byte	0x10f
 1626 052e F9020000 		.4byte	0x2f9
 1627 0532 12       		.uleb128 0x12
 1628 0533 0D000000 		.4byte	.LASF87
 1629 0537 02       		.byte	0x2
 1630 0538 1601     		.2byte	0x116
 1631 053a 6F050000 		.4byte	0x56f
 1632 053e 12       		.uleb128 0x12
 1633 053f 88000000 		.4byte	.LASF88
 1634 0543 02       		.byte	0x2
 1635 0544 1B01     		.2byte	0x11b
 1636 0546 FA000000 		.4byte	0xfa
 1637 054a 12       		.uleb128 0x12
 1638 054b E5010000 		.4byte	.LASF89
 1639 054f 02       		.byte	0x2
 1640 0550 2401     		.2byte	0x124
 1641 0552 9A050000 		.4byte	0x59a
 1642 0556 12       		.uleb128 0x12
 1643 0557 6A040000 		.4byte	.LASF90
 1644 055b 02       		.byte	0x2
ARM GAS  /tmp/ccLbt1NC.s 			page 30


 1645 055c 2D01     		.2byte	0x12d
 1646 055e D1050000 		.4byte	0x5d1
 1647 0562 12       		.uleb128 0x12
 1648 0563 01040000 		.4byte	.LASF91
 1649 0567 02       		.byte	0x2
 1650 0568 3501     		.2byte	0x135
 1651 056a 05010000 		.4byte	0x105
 1652 056e 00       		.byte	0
 1653 056f 09       		.uleb128 0x9
 1654 0570 04       		.byte	0x4
 1655 0571 11020000 		.4byte	0x211
 1656 0575 05       		.uleb128 0x5
 1657 0576 3B040000 		.4byte	.LASF92
 1658 057a 0C       		.byte	0xc
 1659 057b 0B       		.byte	0xb
 1660 057c 34       		.byte	0x34
 1661 057d 9A050000 		.4byte	0x59a
 1662 0581 06       		.uleb128 0x6
 1663 0582 6E010000 		.4byte	.LASF93
 1664 0586 0B       		.byte	0xb
 1665 0587 35       		.byte	0x35
 1666 0588 46020000 		.4byte	0x246
 1667 058c 00       		.byte	0
 1668 058d 06       		.uleb128 0x6
 1669 058e 00020000 		.4byte	.LASF94
 1670 0592 0B       		.byte	0xb
 1671 0593 37       		.byte	0x37
 1672 0594 10010000 		.4byte	0x110
 1673 0598 08       		.byte	0x8
 1674 0599 00       		.byte	0
 1675 059a 09       		.uleb128 0x9
 1676 059b 04       		.byte	0x4
 1677 059c 75050000 		.4byte	0x575
 1678 05a0 05       		.uleb128 0x5
 1679 05a1 16060000 		.4byte	.LASF95
 1680 05a5 10       		.byte	0x10
 1681 05a6 0C       		.byte	0xc
 1682 05a7 39       		.byte	0x39
 1683 05a8 D1050000 		.4byte	0x5d1
 1684 05ac 06       		.uleb128 0x6
 1685 05ad EB000000 		.4byte	.LASF96
 1686 05b1 0C       		.byte	0xc
 1687 05b2 3A       		.byte	0x3a
 1688 05b3 46020000 		.4byte	0x246
 1689 05b7 00       		.byte	0
 1690 05b8 06       		.uleb128 0x6
 1691 05b9 6F060000 		.4byte	.LASF97
 1692 05bd 0C       		.byte	0xc
 1693 05be 3C       		.byte	0x3c
 1694 05bf 1C020000 		.4byte	0x21c
 1695 05c3 08       		.byte	0x8
 1696 05c4 06       		.uleb128 0x6
 1697 05c5 57030000 		.4byte	.LASF98
 1698 05c9 0C       		.byte	0xc
 1699 05ca 3E       		.byte	0x3e
 1700 05cb 0F060000 		.4byte	0x60f
 1701 05cf 0C       		.byte	0xc
ARM GAS  /tmp/ccLbt1NC.s 			page 31


 1702 05d0 00       		.byte	0
 1703 05d1 09       		.uleb128 0x9
 1704 05d2 04       		.byte	0x4
 1705 05d3 A0050000 		.4byte	0x5a0
 1706 05d7 09       		.uleb128 0x9
 1707 05d8 04       		.byte	0x4
 1708 05d9 DD050000 		.4byte	0x5dd
 1709 05dd 13       		.uleb128 0x13
 1710 05de E2050000 		.4byte	0x5e2
 1711 05e2 03       		.uleb128 0x3
 1712 05e3 01       		.byte	0x1
 1713 05e4 08       		.byte	0x8
 1714 05e5 A7040000 		.4byte	.LASF99
 1715 05e9 09       		.uleb128 0x9
 1716 05ea 04       		.byte	0x4
 1717 05eb FB020000 		.4byte	0x2fb
 1718 05ef 14       		.uleb128 0x14
 1719 05f0 D7050000 		.4byte	0x5d7
 1720 05f4 15       		.uleb128 0x15
 1721 05f5 41040000 		.4byte	0x441
 1722 05f9 04060000 		.4byte	0x604
 1723 05fd 16       		.uleb128 0x16
 1724 05fe 2F040000 		.4byte	0x42f
 1725 0602 1A       		.byte	0x1a
 1726 0603 00       		.byte	0
 1727 0604 04       		.uleb128 0x4
 1728 0605 A0010000 		.4byte	.LASF100
 1729 0609 0C       		.byte	0xc
 1730 060a 34       		.byte	0x34
 1731 060b A0050000 		.4byte	0x5a0
 1732 060f 09       		.uleb128 0x9
 1733 0610 04       		.byte	0x4
 1734 0611 04060000 		.4byte	0x604
 1735 0615 17       		.uleb128 0x17
 1736 0616 EA020000 		.4byte	.LASF105
 1737 061a 03       		.byte	0x3
 1738 061b 2202     		.2byte	0x222
 1739 061d 03       		.byte	0x3
 1740 061e 2F060000 		.4byte	0x62f
 1741 0622 18       		.uleb128 0x18
 1742 0623 A8010000 		.4byte	.LASF103
 1743 0627 03       		.byte	0x3
 1744 0628 2202     		.2byte	0x222
 1745 062a AD000000 		.4byte	0xad
 1746 062e 00       		.byte	0
 1747 062f 19       		.uleb128 0x19
 1748 0630 53000000 		.4byte	.LASF101
 1749 0634 09       		.byte	0x9
 1750 0635 C801     		.2byte	0x1c8
 1751 0637 03       		.byte	0x3
 1752 0638 19       		.uleb128 0x19
 1753 0639 FA000000 		.4byte	.LASF102
 1754 063d 09       		.byte	0x9
 1755 063e E001     		.2byte	0x1e0
 1756 0640 03       		.byte	0x3
 1757 0641 1A       		.uleb128 0x1a
 1758 0642 30010000 		.4byte	.LASF107
ARM GAS  /tmp/ccLbt1NC.s 			page 32


 1759 0646 02       		.byte	0x2
 1760 0647 7702     		.2byte	0x277
 1761 0649 5F060000 		.4byte	0x65f
 1762 064d 03       		.byte	0x3
 1763 064e 5F060000 		.4byte	0x65f
 1764 0652 1B       		.uleb128 0x1b
 1765 0653 74717000 		.ascii	"tqp\000"
 1766 0657 02       		.byte	0x2
 1767 0658 7702     		.2byte	0x277
 1768 065a 66060000 		.4byte	0x666
 1769 065e 00       		.byte	0
 1770 065f 03       		.uleb128 0x3
 1771 0660 01       		.byte	0x1
 1772 0661 02       		.byte	0x2
 1773 0662 C2030000 		.4byte	.LASF104
 1774 0666 09       		.uleb128 0x9
 1775 0667 04       		.byte	0x4
 1776 0668 6C060000 		.4byte	0x66c
 1777 066c 13       		.uleb128 0x13
 1778 066d 46020000 		.4byte	0x246
 1779 0671 17       		.uleb128 0x17
 1780 0672 48000000 		.4byte	.LASF106
 1781 0676 02       		.byte	0x2
 1782 0677 5C02     		.2byte	0x25c
 1783 0679 03       		.byte	0x3
 1784 067a 8B060000 		.4byte	0x68b
 1785 067e 1B       		.uleb128 0x1b
 1786 067f 74717000 		.ascii	"tqp\000"
 1787 0683 02       		.byte	0x2
 1788 0684 5C02     		.2byte	0x25c
 1789 0686 8B060000 		.4byte	0x68b
 1790 068a 00       		.byte	0
 1791 068b 09       		.uleb128 0x9
 1792 068c 04       		.byte	0x4
 1793 068d 46020000 		.4byte	0x246
 1794 0691 1A       		.uleb128 0x1a
 1795 0692 19010000 		.4byte	.LASF108
 1796 0696 02       		.byte	0x2
 1797 0697 B302     		.2byte	0x2b3
 1798 0699 1C020000 		.4byte	0x21c
 1799 069d 03       		.byte	0x3
 1800 069e AE060000 		.4byte	0x6ae
 1801 06a2 1B       		.uleb128 0x1b
 1802 06a3 747000   		.ascii	"tp\000"
 1803 06a6 02       		.byte	0x2
 1804 06a7 B302     		.2byte	0x2b3
 1805 06a9 1C020000 		.4byte	0x21c
 1806 06ad 00       		.byte	0
 1807 06ae 17       		.uleb128 0x17
 1808 06af 5D060000 		.4byte	.LASF109
 1809 06b3 02       		.byte	0x2
 1810 06b4 8D02     		.2byte	0x28d
 1811 06b6 03       		.byte	0x3
 1812 06b7 DE060000 		.4byte	0x6de
 1813 06bb 1B       		.uleb128 0x1b
 1814 06bc 747000   		.ascii	"tp\000"
 1815 06bf 02       		.byte	0x2
ARM GAS  /tmp/ccLbt1NC.s 			page 33


 1816 06c0 8D02     		.2byte	0x28d
 1817 06c2 1C020000 		.4byte	0x21c
 1818 06c6 1B       		.uleb128 0x1b
 1819 06c7 74717000 		.ascii	"tqp\000"
 1820 06cb 02       		.byte	0x2
 1821 06cc 8D02     		.2byte	0x28d
 1822 06ce 8B060000 		.4byte	0x68b
 1823 06d2 1C       		.uleb128 0x1c
 1824 06d3 637000   		.ascii	"cp\000"
 1825 06d6 02       		.byte	0x2
 1826 06d7 8F02     		.2byte	0x28f
 1827 06d9 1C020000 		.4byte	0x21c
 1828 06dd 00       		.byte	0
 1829 06de 19       		.uleb128 0x19
 1830 06df 20040000 		.4byte	.LASF110
 1831 06e3 0D       		.byte	0xd
 1832 06e4 5A01     		.2byte	0x15a
 1833 06e6 03       		.byte	0x3
 1834 06e7 17       		.uleb128 0x17
 1835 06e8 51060000 		.4byte	.LASF111
 1836 06ec 0D       		.byte	0xd
 1837 06ed 6601     		.2byte	0x166
 1838 06ef 03       		.byte	0x3
 1839 06f0 02070000 		.4byte	0x702
 1840 06f4 1D       		.uleb128 0x1d
 1841 06f5 17040000 		.4byte	.LASF112
 1842 06f9 12070000 		.4byte	0x712
 1843 06fd 51060000 		.4byte	.LASF111
 1844 0701 00       		.byte	0
 1845 0702 15       		.uleb128 0x15
 1846 0703 E2050000 		.4byte	0x5e2
 1847 0707 12070000 		.4byte	0x712
 1848 070b 16       		.uleb128 0x16
 1849 070c 2F040000 		.4byte	0x42f
 1850 0710 0B       		.byte	0xb
 1851 0711 00       		.byte	0
 1852 0712 13       		.uleb128 0x13
 1853 0713 02070000 		.4byte	0x702
 1854 0717 1E       		.uleb128 0x1e
 1855 0718 58010000 		.4byte	.LASF113
 1856 071c 01       		.byte	0x1
 1857 071d 1A01     		.2byte	0x11a
 1858 071f 5F060000 		.4byte	0x65f
 1859 0723 01       		.byte	0x1
 1860 0724 41070000 		.4byte	0x741
 1861 0728 1B       		.uleb128 0x1b
 1862 0729 6D7000   		.ascii	"mp\000"
 1863 072c 01       		.byte	0x1
 1864 072d 1A01     		.2byte	0x11a
 1865 072f 0F060000 		.4byte	0x60f
 1866 0733 1D       		.uleb128 0x1d
 1867 0734 17040000 		.4byte	.LASF112
 1868 0738 51070000 		.4byte	0x751
 1869 073c 58010000 		.4byte	.LASF113
 1870 0740 00       		.byte	0
 1871 0741 15       		.uleb128 0x15
 1872 0742 E2050000 		.4byte	0x5e2
ARM GAS  /tmp/ccLbt1NC.s 			page 34


 1873 0746 51070000 		.4byte	0x751
 1874 074a 16       		.uleb128 0x16
 1875 074b 2F040000 		.4byte	0x42f
 1876 074f 0D       		.byte	0xd
 1877 0750 00       		.byte	0
 1878 0751 13       		.uleb128 0x13
 1879 0752 41070000 		.4byte	0x741
 1880 0756 1F       		.uleb128 0x1f
 1881 0757 CA050000 		.4byte	.LASF114
 1882 075b 0C       		.byte	0xc
 1883 075c 81       		.byte	0x81
 1884 075d 5F060000 		.4byte	0x65f
 1885 0761 03       		.byte	0x3
 1886 0762 71070000 		.4byte	0x771
 1887 0766 20       		.uleb128 0x20
 1888 0767 6D7000   		.ascii	"mp\000"
 1889 076a 0C       		.byte	0xc
 1890 076b 81       		.byte	0x81
 1891 076c 0F060000 		.4byte	0x60f
 1892 0770 00       		.byte	0
 1893 0771 1A       		.uleb128 0x1a
 1894 0772 8F050000 		.4byte	.LASF115
 1895 0776 02       		.byte	0x2
 1896 0777 A102     		.2byte	0x2a1
 1897 0779 1C020000 		.4byte	0x21c
 1898 077d 03       		.byte	0x3
 1899 077e 9A070000 		.4byte	0x79a
 1900 0782 1B       		.uleb128 0x1b
 1901 0783 74717000 		.ascii	"tqp\000"
 1902 0787 02       		.byte	0x2
 1903 0788 A102     		.2byte	0x2a1
 1904 078a 8B060000 		.4byte	0x68b
 1905 078e 1C       		.uleb128 0x1c
 1906 078f 747000   		.ascii	"tp\000"
 1907 0792 02       		.byte	0x2
 1908 0793 A202     		.2byte	0x2a2
 1909 0795 1C020000 		.4byte	0x21c
 1910 0799 00       		.byte	0
 1911 079a 21       		.uleb128 0x21
 1912 079b A2030000 		.4byte	.LASF116
 1913 079f 01       		.byte	0x1
 1914 07a0 67       		.byte	0x67
 1915 07a1 00000000 		.4byte	.LFB241
 1916 07a5 0A000000 		.4byte	.LFE241-.LFB241
 1917 07a9 01       		.uleb128 0x1
 1918 07aa 9C       		.byte	0x9c
 1919 07ab DC070000 		.4byte	0x7dc
 1920 07af 22       		.uleb128 0x22
 1921 07b0 6D7000   		.ascii	"mp\000"
 1922 07b3 01       		.byte	0x1
 1923 07b4 67       		.byte	0x67
 1924 07b5 0F060000 		.4byte	0x60f
 1925 07b9 01       		.uleb128 0x1
 1926 07ba 50       		.byte	0x50
 1927 07bb 23       		.uleb128 0x23
 1928 07bc 17040000 		.4byte	.LASF112
 1929 07c0 EC070000 		.4byte	0x7ec
ARM GAS  /tmp/ccLbt1NC.s 			page 35


 1930 07c4 24       		.uleb128 0x24
 1931 07c5 71060000 		.4byte	0x671
 1932 07c9 02000000 		.4byte	.LBB103
 1933 07cd 04000000 		.4byte	.LBE103-.LBB103
 1934 07d1 01       		.byte	0x1
 1935 07d2 6B       		.byte	0x6b
 1936 07d3 25       		.uleb128 0x25
 1937 07d4 7E060000 		.4byte	0x67e
 1938 07d8 01       		.uleb128 0x1
 1939 07d9 50       		.byte	0x50
 1940 07da 00       		.byte	0
 1941 07db 00       		.byte	0
 1942 07dc 15       		.uleb128 0x15
 1943 07dd E2050000 		.4byte	0x5e2
 1944 07e1 EC070000 		.4byte	0x7ec
 1945 07e5 16       		.uleb128 0x16
 1946 07e6 2F040000 		.4byte	0x42f
 1947 07ea 0F       		.byte	0xf
 1948 07eb 00       		.byte	0
 1949 07ec 13       		.uleb128 0x13
 1950 07ed DC070000 		.4byte	0x7dc
 1951 07f1 21       		.uleb128 0x21
 1952 07f2 4D010000 		.4byte	.LASF117
 1953 07f6 01       		.byte	0x1
 1954 07f7 8B       		.byte	0x8b
 1955 07f8 00000000 		.4byte	.LFB243
 1956 07fc C4000000 		.4byte	.LFE243-.LFB243
 1957 0800 01       		.uleb128 0x1
 1958 0801 9C       		.byte	0x9c
 1959 0802 5F090000 		.4byte	0x95f
 1960 0806 26       		.uleb128 0x26
 1961 0807 6D7000   		.ascii	"mp\000"
 1962 080a 01       		.byte	0x1
 1963 080b 8B       		.byte	0x8b
 1964 080c 0F060000 		.4byte	0x60f
 1965 0810 00000000 		.4byte	.LLST0
 1966 0814 27       		.uleb128 0x27
 1967 0815 63747000 		.ascii	"ctp\000"
 1968 0819 01       		.byte	0x1
 1969 081a 8C       		.byte	0x8c
 1970 081b 1C020000 		.4byte	0x21c
 1971 081f 46000000 		.4byte	.LLST1
 1972 0823 23       		.uleb128 0x23
 1973 0824 17040000 		.4byte	.LASF112
 1974 0828 6F090000 		.4byte	0x96f
 1975 082c 28       		.uleb128 0x28
 1976 082d 00000000 		.4byte	.Ldebug_ranges0+0
 1977 0831 27       		.uleb128 0x27
 1978 0832 747000   		.ascii	"tp\000"
 1979 0835 01       		.byte	0x1
 1980 0836 A1       		.byte	0xa1
 1981 0837 1C020000 		.4byte	0x21c
 1982 083b 70000000 		.4byte	.LLST2
 1983 083f 29       		.uleb128 0x29
 1984 0840 AE060000 		.4byte	0x6ae
 1985 0844 24000000 		.4byte	.LBB106
 1986 0848 1C000000 		.4byte	.LBE106-.LBB106
ARM GAS  /tmp/ccLbt1NC.s 			page 36


 1987 084c 01       		.byte	0x1
 1988 084d D4       		.byte	0xd4
 1989 084e 78080000 		.4byte	0x878
 1990 0852 2A       		.uleb128 0x2a
 1991 0853 C6060000 		.4byte	0x6c6
 1992 0857 99000000 		.4byte	.LLST3
 1993 085b 2A       		.uleb128 0x2a
 1994 085c BB060000 		.4byte	0x6bb
 1995 0860 C9000000 		.4byte	.LLST4
 1996 0864 2B       		.uleb128 0x2b
 1997 0865 24000000 		.4byte	.LBB107
 1998 0869 1C000000 		.4byte	.LBE107-.LBB107
 1999 086d 2C       		.uleb128 0x2c
 2000 086e D2060000 		.4byte	0x6d2
 2001 0872 E8000000 		.4byte	.LLST5
 2002 0876 00       		.byte	0
 2003 0877 00       		.byte	0
 2004 0878 29       		.uleb128 0x29
 2005 0879 91060000 		.4byte	0x691
 2006 087d 4C000000 		.4byte	.LBB108
 2007 0881 0A000000 		.4byte	.LBE108-.LBB108
 2008 0885 01       		.byte	0x1
 2009 0886 CA       		.byte	0xca
 2010 0887 95080000 		.4byte	0x895
 2011 088b 2A       		.uleb128 0x2a
 2012 088c A2060000 		.4byte	0x6a2
 2013 0890 06010000 		.4byte	.LLST6
 2014 0894 00       		.byte	0
 2015 0895 2D       		.uleb128 0x2d
 2016 0896 91060000 		.4byte	0x691
 2017 089a 5C000000 		.4byte	.LBB110
 2018 089e 18000000 		.4byte	.Ldebug_ranges0+0x18
 2019 08a2 01       		.byte	0x1
 2020 08a3 C1       		.byte	0xc1
 2021 08a4 B2080000 		.4byte	0x8b2
 2022 08a8 2A       		.uleb128 0x2a
 2023 08a9 A2060000 		.4byte	0x6a2
 2024 08ad 19010000 		.4byte	.LLST7
 2025 08b1 00       		.byte	0
 2026 08b2 29       		.uleb128 0x29
 2027 08b3 AE060000 		.4byte	0x6ae
 2028 08b7 68000000 		.4byte	.LBB114
 2029 08bb 1C000000 		.4byte	.LBE114-.LBB114
 2030 08bf 01       		.byte	0x1
 2031 08c0 C1       		.byte	0xc1
 2032 08c1 EB080000 		.4byte	0x8eb
 2033 08c5 2A       		.uleb128 0x2a
 2034 08c6 C6060000 		.4byte	0x6c6
 2035 08ca 2C010000 		.4byte	.LLST8
 2036 08ce 2A       		.uleb128 0x2a
 2037 08cf BB060000 		.4byte	0x6bb
 2038 08d3 3F010000 		.4byte	.LLST9
 2039 08d7 2B       		.uleb128 0x2b
 2040 08d8 68000000 		.4byte	.LBB115
 2041 08dc 1C000000 		.4byte	.LBE115-.LBB115
 2042 08e0 2C       		.uleb128 0x2c
 2043 08e1 D2060000 		.4byte	0x6d2
ARM GAS  /tmp/ccLbt1NC.s 			page 37


 2044 08e5 52010000 		.4byte	.LLST10
 2045 08e9 00       		.byte	0
 2046 08ea 00       		.byte	0
 2047 08eb 2D       		.uleb128 0x2d
 2048 08ec 91060000 		.4byte	0x691
 2049 08f0 84000000 		.4byte	.LBB116
 2050 08f4 30000000 		.4byte	.Ldebug_ranges0+0x30
 2051 08f8 01       		.byte	0x1
 2052 08f9 AD       		.byte	0xad
 2053 08fa 08090000 		.4byte	0x908
 2054 08fe 2A       		.uleb128 0x2a
 2055 08ff A2060000 		.4byte	0x6a2
 2056 0903 70010000 		.4byte	.LLST11
 2057 0907 00       		.byte	0
 2058 0908 29       		.uleb128 0x29
 2059 0909 AE060000 		.4byte	0x6ae
 2060 090d 90000000 		.4byte	.LBB120
 2061 0911 1A000000 		.4byte	.LBE120-.LBB120
 2062 0915 01       		.byte	0x1
 2063 0916 AD       		.byte	0xad
 2064 0917 41090000 		.4byte	0x941
 2065 091b 2A       		.uleb128 0x2a
 2066 091c C6060000 		.4byte	0x6c6
 2067 0920 8F010000 		.4byte	.LLST12
 2068 0924 2A       		.uleb128 0x2a
 2069 0925 BB060000 		.4byte	0x6bb
 2070 0929 A2010000 		.4byte	.LLST13
 2071 092d 2B       		.uleb128 0x2b
 2072 092e 90000000 		.4byte	.LBB121
 2073 0932 1A000000 		.4byte	.LBE121-.LBB121
 2074 0936 2C       		.uleb128 0x2c
 2075 0937 D2060000 		.4byte	0x6d2
 2076 093b C1010000 		.4byte	.LLST14
 2077 093f 00       		.byte	0
 2078 0940 00       		.byte	0
 2079 0941 2E       		.uleb128 0x2e
 2080 0942 4C000000 		.4byte	.LVL9
 2081 0946 830F0000 		.4byte	0xf83
 2082 094a 54090000 		.4byte	0x954
 2083 094e 2F       		.uleb128 0x2f
 2084 094f 01       		.uleb128 0x1
 2085 0950 50       		.byte	0x50
 2086 0951 01       		.uleb128 0x1
 2087 0952 36       		.byte	0x36
 2088 0953 00       		.byte	0
 2089 0954 30       		.uleb128 0x30
 2090 0955 5A000000 		.4byte	.LVL10
 2091 0959 950F0000 		.4byte	0xf95
 2092 095d 00       		.byte	0
 2093 095e 00       		.byte	0
 2094 095f 15       		.uleb128 0x15
 2095 0960 E2050000 		.4byte	0x5e2
 2096 0964 6F090000 		.4byte	0x96f
 2097 0968 16       		.uleb128 0x16
 2098 0969 2F040000 		.4byte	0x42f
 2099 096d 0A       		.byte	0xa
 2100 096e 00       		.byte	0
ARM GAS  /tmp/ccLbt1NC.s 			page 38


 2101 096f 13       		.uleb128 0x13
 2102 0970 5F090000 		.4byte	0x95f
 2103 0974 21       		.uleb128 0x21
 2104 0975 2E030000 		.4byte	.LASF118
 2105 0979 01       		.byte	0x1
 2106 097a 7B       		.byte	0x7b
 2107 097b 00000000 		.4byte	.LFB242
 2108 097f 14000000 		.4byte	.LFE242-.LFB242
 2109 0983 01       		.uleb128 0x1
 2110 0984 9C       		.byte	0x9c
 2111 0985 300A0000 		.4byte	0xa30
 2112 0989 26       		.uleb128 0x26
 2113 098a 6D7000   		.ascii	"mp\000"
 2114 098d 01       		.byte	0x1
 2115 098e 7B       		.byte	0x7b
 2116 098f 0F060000 		.4byte	0x60f
 2117 0993 DF010000 		.4byte	.LLST15
 2118 0997 29       		.uleb128 0x29
 2119 0998 DE060000 		.4byte	0x6de
 2120 099c 02000000 		.4byte	.LBB123
 2121 09a0 06000000 		.4byte	.LBE123-.LBB123
 2122 09a4 01       		.byte	0x1
 2123 09a5 7D       		.byte	0x7d
 2124 09a6 D3090000 		.4byte	0x9d3
 2125 09aa 31       		.uleb128 0x31
 2126 09ab 2F060000 		.4byte	0x62f
 2127 09af 02000000 		.4byte	.LBB124
 2128 09b3 06000000 		.4byte	.LBE124-.LBB124
 2129 09b7 0D       		.byte	0xd
 2130 09b8 5C01     		.2byte	0x15c
 2131 09ba 31       		.uleb128 0x31
 2132 09bb 15060000 		.4byte	0x615
 2133 09bf 02000000 		.4byte	.LBB125
 2134 09c3 06000000 		.4byte	.LBE125-.LBB125
 2135 09c7 09       		.byte	0x9
 2136 09c8 D001     		.2byte	0x1d0
 2137 09ca 32       		.uleb128 0x32
 2138 09cb 22060000 		.4byte	0x622
 2139 09cf 20       		.byte	0x20
 2140 09d0 00       		.byte	0
 2141 09d1 00       		.byte	0
 2142 09d2 00       		.byte	0
 2143 09d3 29       		.uleb128 0x29
 2144 09d4 E7060000 		.4byte	0x6e7
 2145 09d8 0C000000 		.4byte	.LBB127
 2146 09dc 08000000 		.4byte	.LBE127-.LBB127
 2147 09e0 01       		.byte	0x1
 2148 09e1 7F       		.byte	0x7f
 2149 09e2 1E0A0000 		.4byte	0xa1e
 2150 09e6 2B       		.uleb128 0x2b
 2151 09e7 0C000000 		.4byte	.LBB128
 2152 09eb 08000000 		.4byte	.LBE128-.LBB128
 2153 09ef 33       		.uleb128 0x33
 2154 09f0 F4060000 		.4byte	0x6f4
 2155 09f4 31       		.uleb128 0x31
 2156 09f5 38060000 		.4byte	0x638
 2157 09f9 0C000000 		.4byte	.LBB129
ARM GAS  /tmp/ccLbt1NC.s 			page 39


 2158 09fd 08000000 		.4byte	.LBE129-.LBB129
 2159 0a01 0D       		.byte	0xd
 2160 0a02 7301     		.2byte	0x173
 2161 0a04 31       		.uleb128 0x31
 2162 0a05 15060000 		.4byte	0x615
 2163 0a09 0C000000 		.4byte	.LBB130
 2164 0a0d 08000000 		.4byte	.LBE130-.LBB130
 2165 0a11 09       		.byte	0x9
 2166 0a12 E301     		.2byte	0x1e3
 2167 0a14 32       		.uleb128 0x32
 2168 0a15 22060000 		.4byte	0x622
 2169 0a19 00       		.byte	0
 2170 0a1a 00       		.byte	0
 2171 0a1b 00       		.byte	0
 2172 0a1c 00       		.byte	0
 2173 0a1d 00       		.byte	0
 2174 0a1e 34       		.uleb128 0x34
 2175 0a1f 0C000000 		.4byte	.LVL24
 2176 0a23 F1070000 		.4byte	0x7f1
 2177 0a27 2F       		.uleb128 0x2f
 2178 0a28 01       		.uleb128 0x1
 2179 0a29 50       		.byte	0x50
 2180 0a2a 03       		.uleb128 0x3
 2181 0a2b F3       		.byte	0xf3
 2182 0a2c 01       		.uleb128 0x1
 2183 0a2d 50       		.byte	0x50
 2184 0a2e 00       		.byte	0
 2185 0a2f 00       		.byte	0
 2186 0a30 35       		.uleb128 0x35
 2187 0a31 6E020000 		.4byte	.LASF128
 2188 0a35 01       		.byte	0x1
 2189 0a36 FF       		.byte	0xff
 2190 0a37 5F060000 		.4byte	0x65f
 2191 0a3b 00000000 		.4byte	.LFB244
 2192 0a3f 30000000 		.4byte	.LFE244-.LFB244
 2193 0a43 01       		.uleb128 0x1
 2194 0a44 9C       		.byte	0x9c
 2195 0a45 0F0B0000 		.4byte	0xb0f
 2196 0a49 26       		.uleb128 0x26
 2197 0a4a 6D7000   		.ascii	"mp\000"
 2198 0a4d 01       		.byte	0x1
 2199 0a4e FF       		.byte	0xff
 2200 0a4f 0F060000 		.4byte	0x60f
 2201 0a53 00020000 		.4byte	.LLST16
 2202 0a57 1C       		.uleb128 0x1c
 2203 0a58 6200     		.ascii	"b\000"
 2204 0a5a 01       		.byte	0x1
 2205 0a5b 0001     		.2byte	0x100
 2206 0a5d 5F060000 		.4byte	0x65f
 2207 0a61 36       		.uleb128 0x36
 2208 0a62 DE060000 		.4byte	0x6de
 2209 0a66 02000000 		.4byte	.LBB132
 2210 0a6a 06000000 		.4byte	.LBE132-.LBB132
 2211 0a6e 01       		.byte	0x1
 2212 0a6f 0201     		.2byte	0x102
 2213 0a71 9E0A0000 		.4byte	0xa9e
 2214 0a75 31       		.uleb128 0x31
ARM GAS  /tmp/ccLbt1NC.s 			page 40


 2215 0a76 2F060000 		.4byte	0x62f
 2216 0a7a 02000000 		.4byte	.LBB133
 2217 0a7e 06000000 		.4byte	.LBE133-.LBB133
 2218 0a82 0D       		.byte	0xd
 2219 0a83 5C01     		.2byte	0x15c
 2220 0a85 31       		.uleb128 0x31
 2221 0a86 15060000 		.4byte	0x615
 2222 0a8a 02000000 		.4byte	.LBB134
 2223 0a8e 06000000 		.4byte	.LBE134-.LBB134
 2224 0a92 09       		.byte	0x9
 2225 0a93 D001     		.2byte	0x1d0
 2226 0a95 32       		.uleb128 0x32
 2227 0a96 22060000 		.4byte	0x622
 2228 0a9a 20       		.byte	0x20
 2229 0a9b 00       		.byte	0
 2230 0a9c 00       		.byte	0
 2231 0a9d 00       		.byte	0
 2232 0a9e 37       		.uleb128 0x37
 2233 0a9f 17070000 		.4byte	0x717
 2234 0aa3 08000000 		.4byte	.LBB136
 2235 0aa7 48000000 		.4byte	.Ldebug_ranges0+0x48
 2236 0aab 01       		.byte	0x1
 2237 0aac 0301     		.2byte	0x103
 2238 0aae C70A0000 		.4byte	0xac7
 2239 0ab2 2A       		.uleb128 0x2a
 2240 0ab3 28070000 		.4byte	0x728
 2241 0ab7 4E020000 		.4byte	.LLST17
 2242 0abb 28       		.uleb128 0x28
 2243 0abc 48000000 		.4byte	.Ldebug_ranges0+0x48
 2244 0ac0 33       		.uleb128 0x33
 2245 0ac1 33070000 		.4byte	0x733
 2246 0ac5 00       		.byte	0
 2247 0ac6 00       		.byte	0
 2248 0ac7 38       		.uleb128 0x38
 2249 0ac8 E7060000 		.4byte	0x6e7
 2250 0acc 0E000000 		.4byte	.LBB139
 2251 0ad0 60000000 		.4byte	.Ldebug_ranges0+0x60
 2252 0ad4 01       		.byte	0x1
 2253 0ad5 0401     		.2byte	0x104
 2254 0ad7 28       		.uleb128 0x28
 2255 0ad8 60000000 		.4byte	.Ldebug_ranges0+0x60
 2256 0adc 33       		.uleb128 0x33
 2257 0add F4060000 		.4byte	0x6f4
 2258 0ae1 38       		.uleb128 0x38
 2259 0ae2 38060000 		.4byte	0x638
 2260 0ae6 0E000000 		.4byte	.LBB141
 2261 0aea 60000000 		.4byte	.Ldebug_ranges0+0x60
 2262 0aee 0D       		.byte	0xd
 2263 0aef 7301     		.2byte	0x173
 2264 0af1 38       		.uleb128 0x38
 2265 0af2 15060000 		.4byte	0x615
 2266 0af6 0E000000 		.4byte	.LBB142
 2267 0afa 60000000 		.4byte	.Ldebug_ranges0+0x60
 2268 0afe 09       		.byte	0x9
 2269 0aff E301     		.2byte	0x1e3
 2270 0b01 2A       		.uleb128 0x2a
 2271 0b02 22060000 		.4byte	0x622
ARM GAS  /tmp/ccLbt1NC.s 			page 41


 2272 0b06 9C020000 		.4byte	.LLST18
 2273 0b0a 00       		.byte	0
 2274 0b0b 00       		.byte	0
 2275 0b0c 00       		.byte	0
 2276 0b0d 00       		.byte	0
 2277 0b0e 00       		.byte	0
 2278 0b0f 39       		.uleb128 0x39
 2279 0b10 17070000 		.4byte	0x717
 2280 0b14 00000000 		.4byte	.LFB245
 2281 0b18 20000000 		.4byte	.LFE245-.LFB245
 2282 0b1c 01       		.uleb128 0x1
 2283 0b1d 9C       		.byte	0x9c
 2284 0b1e 310B0000 		.4byte	0xb31
 2285 0b22 2A       		.uleb128 0x2a
 2286 0b23 28070000 		.4byte	0x728
 2287 0b27 BC020000 		.4byte	.LLST19
 2288 0b2b 33       		.uleb128 0x33
 2289 0b2c 33070000 		.4byte	0x733
 2290 0b30 00       		.byte	0
 2291 0b31 3A       		.uleb128 0x3a
 2292 0b32 CB000000 		.4byte	.LASF119
 2293 0b36 01       		.byte	0x1
 2294 0b37 4301     		.2byte	0x143
 2295 0b39 00000000 		.4byte	.LFB246
 2296 0b3d 64000000 		.4byte	.LFE246-.LFB246
 2297 0b41 01       		.uleb128 0x1
 2298 0b42 9C       		.byte	0x9c
 2299 0b43 E50C0000 		.4byte	0xce5
 2300 0b47 3B       		.uleb128 0x3b
 2301 0b48 6D7000   		.ascii	"mp\000"
 2302 0b4b 01       		.byte	0x1
 2303 0b4c 4301     		.2byte	0x143
 2304 0b4e 0F060000 		.4byte	0x60f
 2305 0b52 F0020000 		.4byte	.LLST20
 2306 0b56 3C       		.uleb128 0x3c
 2307 0b57 63747000 		.ascii	"ctp\000"
 2308 0b5b 01       		.byte	0x1
 2309 0b5c 4401     		.2byte	0x144
 2310 0b5e 1C020000 		.4byte	0x21c
 2311 0b62 1C030000 		.4byte	.LLST21
 2312 0b66 3C       		.uleb128 0x3c
 2313 0b67 6C6D7000 		.ascii	"lmp\000"
 2314 0b6b 01       		.byte	0x1
 2315 0b6c 4501     		.2byte	0x145
 2316 0b6e 0F060000 		.4byte	0x60f
 2317 0b72 3A030000 		.4byte	.LLST22
 2318 0b76 23       		.uleb128 0x23
 2319 0b77 17040000 		.4byte	.LASF112
 2320 0b7b E50C0000 		.4byte	0xce5
 2321 0b7f 36       		.uleb128 0x36
 2322 0b80 DE060000 		.4byte	0x6de
 2323 0b84 08000000 		.4byte	.LBB150
 2324 0b88 06000000 		.4byte	.LBE150-.LBB150
 2325 0b8c 01       		.byte	0x1
 2326 0b8d 4901     		.2byte	0x149
 2327 0b8f BC0B0000 		.4byte	0xbbc
 2328 0b93 31       		.uleb128 0x31
ARM GAS  /tmp/ccLbt1NC.s 			page 42


 2329 0b94 2F060000 		.4byte	0x62f
 2330 0b98 08000000 		.4byte	.LBB151
 2331 0b9c 06000000 		.4byte	.LBE151-.LBB151
 2332 0ba0 0D       		.byte	0xd
 2333 0ba1 5C01     		.2byte	0x15c
 2334 0ba3 31       		.uleb128 0x31
 2335 0ba4 15060000 		.4byte	0x615
 2336 0ba8 08000000 		.4byte	.LBB152
 2337 0bac 06000000 		.4byte	.LBE152-.LBB152
 2338 0bb0 09       		.byte	0x9
 2339 0bb1 D001     		.2byte	0x1d0
 2340 0bb3 32       		.uleb128 0x32
 2341 0bb4 22060000 		.4byte	0x622
 2342 0bb8 20       		.byte	0x20
 2343 0bb9 00       		.byte	0
 2344 0bba 00       		.byte	0
 2345 0bbb 00       		.byte	0
 2346 0bbc 36       		.uleb128 0x36
 2347 0bbd 56070000 		.4byte	0x756
 2348 0bc1 0E000000 		.4byte	.LBB154
 2349 0bc5 02000000 		.4byte	.LBE154-.LBB154
 2350 0bc9 01       		.byte	0x1
 2351 0bca 5B01     		.2byte	0x15b
 2352 0bcc F30B0000 		.4byte	0xbf3
 2353 0bd0 2A       		.uleb128 0x2a
 2354 0bd1 66070000 		.4byte	0x766
 2355 0bd5 4D030000 		.4byte	.LLST23
 2356 0bd9 24       		.uleb128 0x24
 2357 0bda 41060000 		.4byte	0x641
 2358 0bde 0E000000 		.4byte	.LBB156
 2359 0be2 02000000 		.4byte	.LBE156-.LBB156
 2360 0be6 0C       		.byte	0xc
 2361 0be7 85       		.byte	0x85
 2362 0be8 2A       		.uleb128 0x2a
 2363 0be9 52060000 		.4byte	0x652
 2364 0bed 4D030000 		.4byte	.LLST23
 2365 0bf1 00       		.byte	0
 2366 0bf2 00       		.byte	0
 2367 0bf3 3D       		.uleb128 0x3d
 2368 0bf4 18000000 		.4byte	.LBB158
 2369 0bf8 32000000 		.4byte	.LBE158-.LBB158
 2370 0bfc 9D0C0000 		.4byte	0xc9d
 2371 0c00 1C       		.uleb128 0x1c
 2372 0c01 747000   		.ascii	"tp\000"
 2373 0c04 01       		.byte	0x1
 2374 0c05 5C01     		.2byte	0x15c
 2375 0c07 1C020000 		.4byte	0x21c
 2376 0c0b 3E       		.uleb128 0x3e
 2377 0c0c 44020000 		.4byte	.LASF120
 2378 0c10 01       		.byte	0x1
 2379 0c11 6001     		.2byte	0x160
 2380 0c13 EF000000 		.4byte	0xef
 2381 0c17 6E030000 		.4byte	.LLST25
 2382 0c1b 36       		.uleb128 0x36
 2383 0c1c 56070000 		.4byte	0x756
 2384 0c20 1C000000 		.4byte	.LBB159
 2385 0c24 02000000 		.4byte	.LBE159-.LBB159
ARM GAS  /tmp/ccLbt1NC.s 			page 43


 2386 0c28 01       		.byte	0x1
 2387 0c29 6601     		.2byte	0x166
 2388 0c2b 520C0000 		.4byte	0xc52
 2389 0c2f 2A       		.uleb128 0x2a
 2390 0c30 66070000 		.4byte	0x766
 2391 0c34 81030000 		.4byte	.LLST26
 2392 0c38 24       		.uleb128 0x24
 2393 0c39 41060000 		.4byte	0x641
 2394 0c3d 1C000000 		.4byte	.LBB161
 2395 0c41 02000000 		.4byte	.LBE161-.LBB161
 2396 0c45 0C       		.byte	0xc
 2397 0c46 85       		.byte	0x85
 2398 0c47 2A       		.uleb128 0x2a
 2399 0c48 52060000 		.4byte	0x652
 2400 0c4c 81030000 		.4byte	.LLST26
 2401 0c50 00       		.byte	0
 2402 0c51 00       		.byte	0
 2403 0c52 37       		.uleb128 0x37
 2404 0c53 71070000 		.4byte	0x771
 2405 0c57 30000000 		.4byte	.LBB163
 2406 0c5b 78000000 		.4byte	.Ldebug_ranges0+0x78
 2407 0c5f 01       		.byte	0x1
 2408 0c60 7601     		.2byte	0x176
 2409 0c62 7F0C0000 		.4byte	0xc7f
 2410 0c66 2A       		.uleb128 0x2a
 2411 0c67 82070000 		.4byte	0x782
 2412 0c6b 94030000 		.4byte	.LLST28
 2413 0c6f 28       		.uleb128 0x28
 2414 0c70 78000000 		.4byte	.Ldebug_ranges0+0x78
 2415 0c74 2C       		.uleb128 0x2c
 2416 0c75 8E070000 		.4byte	0x78e
 2417 0c79 A7030000 		.4byte	.LLST29
 2418 0c7d 00       		.byte	0
 2419 0c7e 00       		.byte	0
 2420 0c7f 3F       		.uleb128 0x3f
 2421 0c80 46000000 		.4byte	.LVL47
 2422 0c84 950F0000 		.4byte	0xf95
 2423 0c88 930C0000 		.4byte	0xc93
 2424 0c8c 2F       		.uleb128 0x2f
 2425 0c8d 01       		.uleb128 0x1
 2426 0c8e 50       		.byte	0x50
 2427 0c8f 02       		.uleb128 0x2
 2428 0c90 75       		.byte	0x75
 2429 0c91 00       		.sleb128 0
 2430 0c92 00       		.byte	0
 2431 0c93 30       		.uleb128 0x30
 2432 0c94 4A000000 		.4byte	.LVL48
 2433 0c98 AB0F0000 		.4byte	0xfab
 2434 0c9c 00       		.byte	0
 2435 0c9d 38       		.uleb128 0x38
 2436 0c9e E7060000 		.4byte	0x6e7
 2437 0ca2 4A000000 		.4byte	.LBB169
 2438 0ca6 98000000 		.4byte	.Ldebug_ranges0+0x98
 2439 0caa 01       		.byte	0x1
 2440 0cab 8901     		.2byte	0x189
 2441 0cad 28       		.uleb128 0x28
 2442 0cae 98000000 		.4byte	.Ldebug_ranges0+0x98
ARM GAS  /tmp/ccLbt1NC.s 			page 44


 2443 0cb2 33       		.uleb128 0x33
 2444 0cb3 F4060000 		.4byte	0x6f4
 2445 0cb7 38       		.uleb128 0x38
 2446 0cb8 38060000 		.4byte	0x638
 2447 0cbc 4A000000 		.4byte	.LBB171
 2448 0cc0 98000000 		.4byte	.Ldebug_ranges0+0x98
 2449 0cc4 0D       		.byte	0xd
 2450 0cc5 7301     		.2byte	0x173
 2451 0cc7 38       		.uleb128 0x38
 2452 0cc8 15060000 		.4byte	0x615
 2453 0ccc 4A000000 		.4byte	.LBB172
 2454 0cd0 98000000 		.4byte	.Ldebug_ranges0+0x98
 2455 0cd4 09       		.byte	0x9
 2456 0cd5 E301     		.2byte	0x1e3
 2457 0cd7 2A       		.uleb128 0x2a
 2458 0cd8 22060000 		.4byte	0x622
 2459 0cdc BA030000 		.4byte	.LLST30
 2460 0ce0 00       		.byte	0
 2461 0ce1 00       		.byte	0
 2462 0ce2 00       		.byte	0
 2463 0ce3 00       		.byte	0
 2464 0ce4 00       		.byte	0
 2465 0ce5 13       		.uleb128 0x13
 2466 0ce6 02070000 		.4byte	0x702
 2467 0cea 3A       		.uleb128 0x3a
 2468 0ceb C3010000 		.4byte	.LASF121
 2469 0cef 01       		.byte	0x1
 2470 0cf0 9A01     		.2byte	0x19a
 2471 0cf2 00000000 		.4byte	.LFB247
 2472 0cf6 50000000 		.4byte	.LFE247-.LFB247
 2473 0cfa 01       		.uleb128 0x1
 2474 0cfb 9C       		.byte	0x9c
 2475 0cfc FE0D0000 		.4byte	0xdfe
 2476 0d00 3B       		.uleb128 0x3b
 2477 0d01 6D7000   		.ascii	"mp\000"
 2478 0d04 01       		.byte	0x1
 2479 0d05 9A01     		.2byte	0x19a
 2480 0d07 0F060000 		.4byte	0x60f
 2481 0d0b DA030000 		.4byte	.LLST31
 2482 0d0f 3C       		.uleb128 0x3c
 2483 0d10 63747000 		.ascii	"ctp\000"
 2484 0d14 01       		.byte	0x1
 2485 0d15 9B01     		.2byte	0x19b
 2486 0d17 1C020000 		.4byte	0x21c
 2487 0d1b 2B040000 		.4byte	.LLST32
 2488 0d1f 3C       		.uleb128 0x3c
 2489 0d20 6C6D7000 		.ascii	"lmp\000"
 2490 0d24 01       		.byte	0x1
 2491 0d25 9C01     		.2byte	0x19c
 2492 0d27 0F060000 		.4byte	0x60f
 2493 0d2b 49040000 		.4byte	.LLST33
 2494 0d2f 23       		.uleb128 0x23
 2495 0d30 17040000 		.4byte	.LASF112
 2496 0d34 0E0E0000 		.4byte	0xe0e
 2497 0d38 36       		.uleb128 0x36
 2498 0d39 56070000 		.4byte	0x756
 2499 0d3d 06000000 		.4byte	.LBB179
ARM GAS  /tmp/ccLbt1NC.s 			page 45


 2500 0d41 02000000 		.4byte	.LBE179-.LBB179
 2501 0d45 01       		.byte	0x1
 2502 0d46 B101     		.2byte	0x1b1
 2503 0d48 6F0D0000 		.4byte	0xd6f
 2504 0d4c 2A       		.uleb128 0x2a
 2505 0d4d 66070000 		.4byte	0x766
 2506 0d51 5C040000 		.4byte	.LLST34
 2507 0d55 24       		.uleb128 0x24
 2508 0d56 41060000 		.4byte	0x641
 2509 0d5a 06000000 		.4byte	.LBB181
 2510 0d5e 02000000 		.4byte	.LBE181-.LBB181
 2511 0d62 0C       		.byte	0xc
 2512 0d63 85       		.byte	0x85
 2513 0d64 2A       		.uleb128 0x2a
 2514 0d65 52060000 		.4byte	0x652
 2515 0d69 5C040000 		.4byte	.LLST34
 2516 0d6d 00       		.byte	0
 2517 0d6e 00       		.byte	0
 2518 0d6f 28       		.uleb128 0x28
 2519 0d70 B0000000 		.4byte	.Ldebug_ranges0+0xb0
 2520 0d74 1C       		.uleb128 0x1c
 2521 0d75 747000   		.ascii	"tp\000"
 2522 0d78 01       		.byte	0x1
 2523 0d79 B201     		.2byte	0x1b2
 2524 0d7b 1C020000 		.4byte	0x21c
 2525 0d7f 3E       		.uleb128 0x3e
 2526 0d80 44020000 		.4byte	.LASF120
 2527 0d84 01       		.byte	0x1
 2528 0d85 B601     		.2byte	0x1b6
 2529 0d87 EF000000 		.4byte	0xef
 2530 0d8b A2040000 		.4byte	.LLST36
 2531 0d8f 36       		.uleb128 0x36
 2532 0d90 56070000 		.4byte	0x756
 2533 0d94 16000000 		.4byte	.LBB184
 2534 0d98 02000000 		.4byte	.LBE184-.LBB184
 2535 0d9c 01       		.byte	0x1
 2536 0d9d BC01     		.2byte	0x1bc
 2537 0d9f C60D0000 		.4byte	0xdc6
 2538 0da3 2A       		.uleb128 0x2a
 2539 0da4 66070000 		.4byte	0x766
 2540 0da8 B5040000 		.4byte	.LLST37
 2541 0dac 24       		.uleb128 0x24
 2542 0dad 41060000 		.4byte	0x641
 2543 0db1 16000000 		.4byte	.LBB186
 2544 0db5 02000000 		.4byte	.LBE186-.LBB186
 2545 0db9 0C       		.byte	0xc
 2546 0dba 85       		.byte	0x85
 2547 0dbb 2A       		.uleb128 0x2a
 2548 0dbc 52060000 		.4byte	0x652
 2549 0dc0 B5040000 		.4byte	.LLST37
 2550 0dc4 00       		.byte	0
 2551 0dc5 00       		.byte	0
 2552 0dc6 37       		.uleb128 0x37
 2553 0dc7 71070000 		.4byte	0x771
 2554 0dcb 2A000000 		.4byte	.LBB188
 2555 0dcf C8000000 		.4byte	.Ldebug_ranges0+0xc8
 2556 0dd3 01       		.byte	0x1
ARM GAS  /tmp/ccLbt1NC.s 			page 46


 2557 0dd4 CC01     		.2byte	0x1cc
 2558 0dd6 F30D0000 		.4byte	0xdf3
 2559 0dda 2A       		.uleb128 0x2a
 2560 0ddb 82070000 		.4byte	0x782
 2561 0ddf C8040000 		.4byte	.LLST39
 2562 0de3 28       		.uleb128 0x28
 2563 0de4 C8000000 		.4byte	.Ldebug_ranges0+0xc8
 2564 0de8 2C       		.uleb128 0x2c
 2565 0de9 8E070000 		.4byte	0x78e
 2566 0ded F5040000 		.4byte	.LLST40
 2567 0df1 00       		.byte	0
 2568 0df2 00       		.byte	0
 2569 0df3 40       		.uleb128 0x40
 2570 0df4 42000000 		.4byte	.LVL63
 2571 0df8 950F0000 		.4byte	0xf95
 2572 0dfc 00       		.byte	0
 2573 0dfd 00       		.byte	0
 2574 0dfe 15       		.uleb128 0x15
 2575 0dff E2050000 		.4byte	0x5e2
 2576 0e03 0E0E0000 		.4byte	0xe0e
 2577 0e07 16       		.uleb128 0x16
 2578 0e08 2F040000 		.4byte	0x42f
 2579 0e0c 0C       		.byte	0xc
 2580 0e0d 00       		.byte	0
 2581 0e0e 13       		.uleb128 0x13
 2582 0e0f FE0D0000 		.4byte	0xdfe
 2583 0e13 3A       		.uleb128 0x3a
 2584 0e14 35020000 		.4byte	.LASF122
 2585 0e18 01       		.byte	0x1
 2586 0e19 E501     		.2byte	0x1e5
 2587 0e1b 00000000 		.4byte	.LFB248
 2588 0e1f 54000000 		.4byte	.LFE248-.LFB248
 2589 0e23 01       		.uleb128 0x1
 2590 0e24 9C       		.byte	0x9c
 2591 0e25 670F0000 		.4byte	0xf67
 2592 0e29 3C       		.uleb128 0x3c
 2593 0e2a 63747000 		.ascii	"ctp\000"
 2594 0e2e 01       		.byte	0x1
 2595 0e2f E601     		.2byte	0x1e6
 2596 0e31 1C020000 		.4byte	0x21c
 2597 0e35 13050000 		.4byte	.LLST41
 2598 0e39 37       		.uleb128 0x37
 2599 0e3a DE060000 		.4byte	0x6de
 2600 0e3e 04000000 		.4byte	.LBB195
 2601 0e42 E8000000 		.4byte	.Ldebug_ranges0+0xe8
 2602 0e46 01       		.byte	0x1
 2603 0e47 E801     		.2byte	0x1e8
 2604 0e49 760E0000 		.4byte	0xe76
 2605 0e4d 38       		.uleb128 0x38
 2606 0e4e 2F060000 		.4byte	0x62f
 2607 0e52 04000000 		.4byte	.LBB196
 2608 0e56 E8000000 		.4byte	.Ldebug_ranges0+0xe8
 2609 0e5a 0D       		.byte	0xd
 2610 0e5b 5C01     		.2byte	0x15c
 2611 0e5d 38       		.uleb128 0x38
 2612 0e5e 15060000 		.4byte	0x615
 2613 0e62 04000000 		.4byte	.LBB197
ARM GAS  /tmp/ccLbt1NC.s 			page 47


 2614 0e66 E8000000 		.4byte	.Ldebug_ranges0+0xe8
 2615 0e6a 09       		.byte	0x9
 2616 0e6b D001     		.2byte	0x1d0
 2617 0e6d 32       		.uleb128 0x32
 2618 0e6e 22060000 		.4byte	0x622
 2619 0e72 20       		.byte	0x20
 2620 0e73 00       		.byte	0
 2621 0e74 00       		.byte	0
 2622 0e75 00       		.byte	0
 2623 0e76 41       		.uleb128 0x41
 2624 0e77 00010000 		.4byte	.Ldebug_ranges0+0x100
 2625 0e7b 110F0000 		.4byte	0xf11
 2626 0e7f 3C       		.uleb128 0x3c
 2627 0e80 6D7000   		.ascii	"mp\000"
 2628 0e83 01       		.byte	0x1
 2629 0e84 EB01     		.2byte	0x1eb
 2630 0e86 0F060000 		.4byte	0x60f
 2631 0e8a 26050000 		.4byte	.LLST42
 2632 0e8e 3D       		.uleb128 0x3d
 2633 0e8f 14000000 		.4byte	.LBB204
 2634 0e93 14000000 		.4byte	.LBE204-.LBB204
 2635 0e97 DD0E0000 		.4byte	0xedd
 2636 0e9b 1C       		.uleb128 0x1c
 2637 0e9c 747000   		.ascii	"tp\000"
 2638 0e9f 01       		.byte	0x1
 2639 0ea0 F101     		.2byte	0x1f1
 2640 0ea2 1C020000 		.4byte	0x21c
 2641 0ea6 37       		.uleb128 0x37
 2642 0ea7 71070000 		.4byte	0x771
 2643 0eab 14000000 		.4byte	.LBB205
 2644 0eaf 18010000 		.4byte	.Ldebug_ranges0+0x118
 2645 0eb3 01       		.byte	0x1
 2646 0eb4 F101     		.2byte	0x1f1
 2647 0eb6 D30E0000 		.4byte	0xed3
 2648 0eba 2A       		.uleb128 0x2a
 2649 0ebb 82070000 		.4byte	0x782
 2650 0ebf 26050000 		.4byte	.LLST42
 2651 0ec3 28       		.uleb128 0x28
 2652 0ec4 18010000 		.4byte	.Ldebug_ranges0+0x118
 2653 0ec8 2C       		.uleb128 0x2c
 2654 0ec9 8E070000 		.4byte	0x78e
 2655 0ecd 44050000 		.4byte	.LLST44
 2656 0ed1 00       		.byte	0
 2657 0ed2 00       		.byte	0
 2658 0ed3 30       		.uleb128 0x30
 2659 0ed4 28000000 		.4byte	.LVL67
 2660 0ed8 950F0000 		.4byte	0xf95
 2661 0edc 00       		.byte	0
 2662 0edd 31       		.uleb128 0x31
 2663 0ede 56070000 		.4byte	0x756
 2664 0ee2 2C000000 		.4byte	.LBB211
 2665 0ee6 02000000 		.4byte	.LBE211-.LBB211
 2666 0eea 01       		.byte	0x1
 2667 0eeb ED01     		.2byte	0x1ed
 2668 0eed 2A       		.uleb128 0x2a
 2669 0eee 66070000 		.4byte	0x766
 2670 0ef2 62050000 		.4byte	.LLST45
ARM GAS  /tmp/ccLbt1NC.s 			page 48


 2671 0ef6 24       		.uleb128 0x24
 2672 0ef7 41060000 		.4byte	0x641
 2673 0efb 2C000000 		.4byte	.LBB213
 2674 0eff 02000000 		.4byte	.LBE213-.LBB213
 2675 0f03 0C       		.byte	0xc
 2676 0f04 85       		.byte	0x85
 2677 0f05 2A       		.uleb128 0x2a
 2678 0f06 52060000 		.4byte	0x652
 2679 0f0a 62050000 		.4byte	.LLST45
 2680 0f0e 00       		.byte	0
 2681 0f0f 00       		.byte	0
 2682 0f10 00       		.byte	0
 2683 0f11 36       		.uleb128 0x36
 2684 0f12 E7060000 		.4byte	0x6e7
 2685 0f16 46000000 		.4byte	.LBB216
 2686 0f1a 0E000000 		.4byte	.LBE216-.LBB216
 2687 0f1e 01       		.byte	0x1
 2688 0f1f 0102     		.2byte	0x201
 2689 0f21 5D0F0000 		.4byte	0xf5d
 2690 0f25 2B       		.uleb128 0x2b
 2691 0f26 46000000 		.4byte	.LBB217
 2692 0f2a 0E000000 		.4byte	.LBE217-.LBB217
 2693 0f2e 33       		.uleb128 0x33
 2694 0f2f F4060000 		.4byte	0x6f4
 2695 0f33 31       		.uleb128 0x31
 2696 0f34 38060000 		.4byte	0x638
 2697 0f38 46000000 		.4byte	.LBB218
 2698 0f3c 0E000000 		.4byte	.LBE218-.LBB218
 2699 0f40 0D       		.byte	0xd
 2700 0f41 7301     		.2byte	0x173
 2701 0f43 31       		.uleb128 0x31
 2702 0f44 15060000 		.4byte	0x615
 2703 0f48 46000000 		.4byte	.LBB219
 2704 0f4c 0E000000 		.4byte	.LBE219-.LBB219
 2705 0f50 09       		.byte	0x9
 2706 0f51 E301     		.2byte	0x1e3
 2707 0f53 32       		.uleb128 0x32
 2708 0f54 22060000 		.4byte	0x622
 2709 0f58 00       		.byte	0
 2710 0f59 00       		.byte	0
 2711 0f5a 00       		.byte	0
 2712 0f5b 00       		.byte	0
 2713 0f5c 00       		.byte	0
 2714 0f5d 30       		.uleb128 0x30
 2715 0f5e 46000000 		.4byte	.LVL73
 2716 0f62 AB0F0000 		.4byte	0xfab
 2717 0f66 00       		.byte	0
 2718 0f67 42       		.uleb128 0x42
 2719 0f68 A6000000 		.4byte	.LASF123
 2720 0f6c 0E       		.byte	0xe
 2721 0f6d FA06     		.2byte	0x6fa
 2722 0f6f 730F0000 		.4byte	0xf73
 2723 0f73 14       		.uleb128 0x14
 2724 0f74 A2000000 		.4byte	0xa2
 2725 0f78 43       		.uleb128 0x43
 2726 0f79 636800   		.ascii	"ch\000"
 2727 0f7c 02       		.byte	0x2
ARM GAS  /tmp/ccLbt1NC.s 			page 49


 2728 0f7d 0B02     		.2byte	0x20b
 2729 0f7f C8030000 		.4byte	0x3c8
 2730 0f83 44       		.uleb128 0x44
 2731 0f84 48040000 		.4byte	.LASF129
 2732 0f88 02       		.byte	0x2
 2733 0f89 1602     		.2byte	0x216
 2734 0f8b 950F0000 		.4byte	0xf95
 2735 0f8f 0C       		.uleb128 0xc
 2736 0f90 D9000000 		.4byte	0xd9
 2737 0f94 00       		.byte	0
 2738 0f95 45       		.uleb128 0x45
 2739 0f96 79040000 		.4byte	.LASF124
 2740 0f9a 02       		.byte	0x2
 2741 0f9b 1502     		.2byte	0x215
 2742 0f9d 1C020000 		.4byte	0x21c
 2743 0fa1 AB0F0000 		.4byte	0xfab
 2744 0fa5 0C       		.uleb128 0xc
 2745 0fa6 1C020000 		.4byte	0x21c
 2746 0faa 00       		.byte	0
 2747 0fab 46       		.uleb128 0x46
 2748 0fac 76010000 		.4byte	.LASF130
 2749 0fb0 02       		.byte	0x2
 2750 0fb1 1902     		.2byte	0x219
 2751 0fb3 00       		.byte	0
 2752              		.section	.debug_abbrev,"",%progbits
 2753              	.Ldebug_abbrev0:
 2754 0000 01       		.uleb128 0x1
 2755 0001 11       		.uleb128 0x11
 2756 0002 01       		.byte	0x1
 2757 0003 25       		.uleb128 0x25
 2758 0004 0E       		.uleb128 0xe
 2759 0005 13       		.uleb128 0x13
 2760 0006 0B       		.uleb128 0xb
 2761 0007 03       		.uleb128 0x3
 2762 0008 0E       		.uleb128 0xe
 2763 0009 1B       		.uleb128 0x1b
 2764 000a 0E       		.uleb128 0xe
 2765 000b 55       		.uleb128 0x55
 2766 000c 17       		.uleb128 0x17
 2767 000d 11       		.uleb128 0x11
 2768 000e 01       		.uleb128 0x1
 2769 000f 10       		.uleb128 0x10
 2770 0010 17       		.uleb128 0x17
 2771 0011 00       		.byte	0
 2772 0012 00       		.byte	0
 2773 0013 02       		.uleb128 0x2
 2774 0014 24       		.uleb128 0x24
 2775 0015 00       		.byte	0
 2776 0016 0B       		.uleb128 0xb
 2777 0017 0B       		.uleb128 0xb
 2778 0018 3E       		.uleb128 0x3e
 2779 0019 0B       		.uleb128 0xb
 2780 001a 03       		.uleb128 0x3
 2781 001b 08       		.uleb128 0x8
 2782 001c 00       		.byte	0
 2783 001d 00       		.byte	0
 2784 001e 03       		.uleb128 0x3
ARM GAS  /tmp/ccLbt1NC.s 			page 50


 2785 001f 24       		.uleb128 0x24
 2786 0020 00       		.byte	0
 2787 0021 0B       		.uleb128 0xb
 2788 0022 0B       		.uleb128 0xb
 2789 0023 3E       		.uleb128 0x3e
 2790 0024 0B       		.uleb128 0xb
 2791 0025 03       		.uleb128 0x3
 2792 0026 0E       		.uleb128 0xe
 2793 0027 00       		.byte	0
 2794 0028 00       		.byte	0
 2795 0029 04       		.uleb128 0x4
 2796 002a 16       		.uleb128 0x16
 2797 002b 00       		.byte	0
 2798 002c 03       		.uleb128 0x3
 2799 002d 0E       		.uleb128 0xe
 2800 002e 3A       		.uleb128 0x3a
 2801 002f 0B       		.uleb128 0xb
 2802 0030 3B       		.uleb128 0x3b
 2803 0031 0B       		.uleb128 0xb
 2804 0032 49       		.uleb128 0x49
 2805 0033 13       		.uleb128 0x13
 2806 0034 00       		.byte	0
 2807 0035 00       		.byte	0
 2808 0036 05       		.uleb128 0x5
 2809 0037 13       		.uleb128 0x13
 2810 0038 01       		.byte	0x1
 2811 0039 03       		.uleb128 0x3
 2812 003a 0E       		.uleb128 0xe
 2813 003b 0B       		.uleb128 0xb
 2814 003c 0B       		.uleb128 0xb
 2815 003d 3A       		.uleb128 0x3a
 2816 003e 0B       		.uleb128 0xb
 2817 003f 3B       		.uleb128 0x3b
 2818 0040 0B       		.uleb128 0xb
 2819 0041 01       		.uleb128 0x1
 2820 0042 13       		.uleb128 0x13
 2821 0043 00       		.byte	0
 2822 0044 00       		.byte	0
 2823 0045 06       		.uleb128 0x6
 2824 0046 0D       		.uleb128 0xd
 2825 0047 00       		.byte	0
 2826 0048 03       		.uleb128 0x3
 2827 0049 0E       		.uleb128 0xe
 2828 004a 3A       		.uleb128 0x3a
 2829 004b 0B       		.uleb128 0xb
 2830 004c 3B       		.uleb128 0x3b
 2831 004d 0B       		.uleb128 0xb
 2832 004e 49       		.uleb128 0x49
 2833 004f 13       		.uleb128 0x13
 2834 0050 38       		.uleb128 0x38
 2835 0051 0B       		.uleb128 0xb
 2836 0052 00       		.byte	0
 2837 0053 00       		.byte	0
 2838 0054 07       		.uleb128 0x7
 2839 0055 0D       		.uleb128 0xd
 2840 0056 00       		.byte	0
 2841 0057 03       		.uleb128 0x3
ARM GAS  /tmp/ccLbt1NC.s 			page 51


 2842 0058 08       		.uleb128 0x8
 2843 0059 3A       		.uleb128 0x3a
 2844 005a 0B       		.uleb128 0xb
 2845 005b 3B       		.uleb128 0x3b
 2846 005c 05       		.uleb128 0x5
 2847 005d 49       		.uleb128 0x49
 2848 005e 13       		.uleb128 0x13
 2849 005f 38       		.uleb128 0x38
 2850 0060 0B       		.uleb128 0xb
 2851 0061 00       		.byte	0
 2852 0062 00       		.byte	0
 2853 0063 08       		.uleb128 0x8
 2854 0064 0D       		.uleb128 0xd
 2855 0065 00       		.byte	0
 2856 0066 03       		.uleb128 0x3
 2857 0067 0E       		.uleb128 0xe
 2858 0068 3A       		.uleb128 0x3a
 2859 0069 0B       		.uleb128 0xb
 2860 006a 3B       		.uleb128 0x3b
 2861 006b 05       		.uleb128 0x5
 2862 006c 49       		.uleb128 0x49
 2863 006d 13       		.uleb128 0x13
 2864 006e 38       		.uleb128 0x38
 2865 006f 0B       		.uleb128 0xb
 2866 0070 00       		.byte	0
 2867 0071 00       		.byte	0
 2868 0072 09       		.uleb128 0x9
 2869 0073 0F       		.uleb128 0xf
 2870 0074 00       		.byte	0
 2871 0075 0B       		.uleb128 0xb
 2872 0076 0B       		.uleb128 0xb
 2873 0077 49       		.uleb128 0x49
 2874 0078 13       		.uleb128 0x13
 2875 0079 00       		.byte	0
 2876 007a 00       		.byte	0
 2877 007b 0A       		.uleb128 0xa
 2878 007c 13       		.uleb128 0x13
 2879 007d 01       		.byte	0x1
 2880 007e 03       		.uleb128 0x3
 2881 007f 0E       		.uleb128 0xe
 2882 0080 0B       		.uleb128 0xb
 2883 0081 0B       		.uleb128 0xb
 2884 0082 3A       		.uleb128 0x3a
 2885 0083 0B       		.uleb128 0xb
 2886 0084 3B       		.uleb128 0x3b
 2887 0085 05       		.uleb128 0x5
 2888 0086 01       		.uleb128 0x1
 2889 0087 13       		.uleb128 0x13
 2890 0088 00       		.byte	0
 2891 0089 00       		.byte	0
 2892 008a 0B       		.uleb128 0xb
 2893 008b 15       		.uleb128 0x15
 2894 008c 01       		.byte	0x1
 2895 008d 27       		.uleb128 0x27
 2896 008e 19       		.uleb128 0x19
 2897 008f 01       		.uleb128 0x1
 2898 0090 13       		.uleb128 0x13
ARM GAS  /tmp/ccLbt1NC.s 			page 52


 2899 0091 00       		.byte	0
 2900 0092 00       		.byte	0
 2901 0093 0C       		.uleb128 0xc
 2902 0094 05       		.uleb128 0x5
 2903 0095 00       		.byte	0
 2904 0096 49       		.uleb128 0x49
 2905 0097 13       		.uleb128 0x13
 2906 0098 00       		.byte	0
 2907 0099 00       		.byte	0
 2908 009a 0D       		.uleb128 0xd
 2909 009b 0F       		.uleb128 0xf
 2910 009c 00       		.byte	0
 2911 009d 0B       		.uleb128 0xb
 2912 009e 0B       		.uleb128 0xb
 2913 009f 00       		.byte	0
 2914 00a0 00       		.byte	0
 2915 00a1 0E       		.uleb128 0xe
 2916 00a2 13       		.uleb128 0x13
 2917 00a3 01       		.byte	0x1
 2918 00a4 03       		.uleb128 0x3
 2919 00a5 0E       		.uleb128 0xe
 2920 00a6 0B       		.uleb128 0xb
 2921 00a7 05       		.uleb128 0x5
 2922 00a8 3A       		.uleb128 0x3a
 2923 00a9 0B       		.uleb128 0xb
 2924 00aa 3B       		.uleb128 0x3b
 2925 00ab 05       		.uleb128 0x5
 2926 00ac 01       		.uleb128 0x1
 2927 00ad 13       		.uleb128 0x13
 2928 00ae 00       		.byte	0
 2929 00af 00       		.byte	0
 2930 00b0 0F       		.uleb128 0xf
 2931 00b1 0D       		.uleb128 0xd
 2932 00b2 00       		.byte	0
 2933 00b3 03       		.uleb128 0x3
 2934 00b4 08       		.uleb128 0x8
 2935 00b5 3A       		.uleb128 0x3a
 2936 00b6 0B       		.uleb128 0xb
 2937 00b7 3B       		.uleb128 0x3b
 2938 00b8 0B       		.uleb128 0xb
 2939 00b9 49       		.uleb128 0x49
 2940 00ba 13       		.uleb128 0x13
 2941 00bb 38       		.uleb128 0x38
 2942 00bc 0B       		.uleb128 0xb
 2943 00bd 00       		.byte	0
 2944 00be 00       		.byte	0
 2945 00bf 10       		.uleb128 0x10
 2946 00c0 13       		.uleb128 0x13
 2947 00c1 01       		.byte	0x1
 2948 00c2 0B       		.uleb128 0xb
 2949 00c3 0B       		.uleb128 0xb
 2950 00c4 3A       		.uleb128 0x3a
 2951 00c5 0B       		.uleb128 0xb
 2952 00c6 3B       		.uleb128 0x3b
 2953 00c7 0B       		.uleb128 0xb
 2954 00c8 01       		.uleb128 0x1
 2955 00c9 13       		.uleb128 0x13
ARM GAS  /tmp/ccLbt1NC.s 			page 53


 2956 00ca 00       		.byte	0
 2957 00cb 00       		.byte	0
 2958 00cc 11       		.uleb128 0x11
 2959 00cd 17       		.uleb128 0x17
 2960 00ce 01       		.byte	0x1
 2961 00cf 0B       		.uleb128 0xb
 2962 00d0 0B       		.uleb128 0xb
 2963 00d1 3A       		.uleb128 0x3a
 2964 00d2 0B       		.uleb128 0xb
 2965 00d3 3B       		.uleb128 0x3b
 2966 00d4 0B       		.uleb128 0xb
 2967 00d5 01       		.uleb128 0x1
 2968 00d6 13       		.uleb128 0x13
 2969 00d7 00       		.byte	0
 2970 00d8 00       		.byte	0
 2971 00d9 12       		.uleb128 0x12
 2972 00da 0D       		.uleb128 0xd
 2973 00db 00       		.byte	0
 2974 00dc 03       		.uleb128 0x3
 2975 00dd 0E       		.uleb128 0xe
 2976 00de 3A       		.uleb128 0x3a
 2977 00df 0B       		.uleb128 0xb
 2978 00e0 3B       		.uleb128 0x3b
 2979 00e1 05       		.uleb128 0x5
 2980 00e2 49       		.uleb128 0x49
 2981 00e3 13       		.uleb128 0x13
 2982 00e4 00       		.byte	0
 2983 00e5 00       		.byte	0
 2984 00e6 13       		.uleb128 0x13
 2985 00e7 26       		.uleb128 0x26
 2986 00e8 00       		.byte	0
 2987 00e9 49       		.uleb128 0x49
 2988 00ea 13       		.uleb128 0x13
 2989 00eb 00       		.byte	0
 2990 00ec 00       		.byte	0
 2991 00ed 14       		.uleb128 0x14
 2992 00ee 35       		.uleb128 0x35
 2993 00ef 00       		.byte	0
 2994 00f0 49       		.uleb128 0x49
 2995 00f1 13       		.uleb128 0x13
 2996 00f2 00       		.byte	0
 2997 00f3 00       		.byte	0
 2998 00f4 15       		.uleb128 0x15
 2999 00f5 01       		.uleb128 0x1
 3000 00f6 01       		.byte	0x1
 3001 00f7 49       		.uleb128 0x49
 3002 00f8 13       		.uleb128 0x13
 3003 00f9 01       		.uleb128 0x1
 3004 00fa 13       		.uleb128 0x13
 3005 00fb 00       		.byte	0
 3006 00fc 00       		.byte	0
 3007 00fd 16       		.uleb128 0x16
 3008 00fe 21       		.uleb128 0x21
 3009 00ff 00       		.byte	0
 3010 0100 49       		.uleb128 0x49
 3011 0101 13       		.uleb128 0x13
 3012 0102 2F       		.uleb128 0x2f
ARM GAS  /tmp/ccLbt1NC.s 			page 54


 3013 0103 0B       		.uleb128 0xb
 3014 0104 00       		.byte	0
 3015 0105 00       		.byte	0
 3016 0106 17       		.uleb128 0x17
 3017 0107 2E       		.uleb128 0x2e
 3018 0108 01       		.byte	0x1
 3019 0109 03       		.uleb128 0x3
 3020 010a 0E       		.uleb128 0xe
 3021 010b 3A       		.uleb128 0x3a
 3022 010c 0B       		.uleb128 0xb
 3023 010d 3B       		.uleb128 0x3b
 3024 010e 05       		.uleb128 0x5
 3025 010f 27       		.uleb128 0x27
 3026 0110 19       		.uleb128 0x19
 3027 0111 20       		.uleb128 0x20
 3028 0112 0B       		.uleb128 0xb
 3029 0113 01       		.uleb128 0x1
 3030 0114 13       		.uleb128 0x13
 3031 0115 00       		.byte	0
 3032 0116 00       		.byte	0
 3033 0117 18       		.uleb128 0x18
 3034 0118 05       		.uleb128 0x5
 3035 0119 00       		.byte	0
 3036 011a 03       		.uleb128 0x3
 3037 011b 0E       		.uleb128 0xe
 3038 011c 3A       		.uleb128 0x3a
 3039 011d 0B       		.uleb128 0xb
 3040 011e 3B       		.uleb128 0x3b
 3041 011f 05       		.uleb128 0x5
 3042 0120 49       		.uleb128 0x49
 3043 0121 13       		.uleb128 0x13
 3044 0122 00       		.byte	0
 3045 0123 00       		.byte	0
 3046 0124 19       		.uleb128 0x19
 3047 0125 2E       		.uleb128 0x2e
 3048 0126 00       		.byte	0
 3049 0127 03       		.uleb128 0x3
 3050 0128 0E       		.uleb128 0xe
 3051 0129 3A       		.uleb128 0x3a
 3052 012a 0B       		.uleb128 0xb
 3053 012b 3B       		.uleb128 0x3b
 3054 012c 05       		.uleb128 0x5
 3055 012d 27       		.uleb128 0x27
 3056 012e 19       		.uleb128 0x19
 3057 012f 20       		.uleb128 0x20
 3058 0130 0B       		.uleb128 0xb
 3059 0131 00       		.byte	0
 3060 0132 00       		.byte	0
 3061 0133 1A       		.uleb128 0x1a
 3062 0134 2E       		.uleb128 0x2e
 3063 0135 01       		.byte	0x1
 3064 0136 03       		.uleb128 0x3
 3065 0137 0E       		.uleb128 0xe
 3066 0138 3A       		.uleb128 0x3a
 3067 0139 0B       		.uleb128 0xb
 3068 013a 3B       		.uleb128 0x3b
 3069 013b 05       		.uleb128 0x5
ARM GAS  /tmp/ccLbt1NC.s 			page 55


 3070 013c 27       		.uleb128 0x27
 3071 013d 19       		.uleb128 0x19
 3072 013e 49       		.uleb128 0x49
 3073 013f 13       		.uleb128 0x13
 3074 0140 20       		.uleb128 0x20
 3075 0141 0B       		.uleb128 0xb
 3076 0142 01       		.uleb128 0x1
 3077 0143 13       		.uleb128 0x13
 3078 0144 00       		.byte	0
 3079 0145 00       		.byte	0
 3080 0146 1B       		.uleb128 0x1b
 3081 0147 05       		.uleb128 0x5
 3082 0148 00       		.byte	0
 3083 0149 03       		.uleb128 0x3
 3084 014a 08       		.uleb128 0x8
 3085 014b 3A       		.uleb128 0x3a
 3086 014c 0B       		.uleb128 0xb
 3087 014d 3B       		.uleb128 0x3b
 3088 014e 05       		.uleb128 0x5
 3089 014f 49       		.uleb128 0x49
 3090 0150 13       		.uleb128 0x13
 3091 0151 00       		.byte	0
 3092 0152 00       		.byte	0
 3093 0153 1C       		.uleb128 0x1c
 3094 0154 34       		.uleb128 0x34
 3095 0155 00       		.byte	0
 3096 0156 03       		.uleb128 0x3
 3097 0157 08       		.uleb128 0x8
 3098 0158 3A       		.uleb128 0x3a
 3099 0159 0B       		.uleb128 0xb
 3100 015a 3B       		.uleb128 0x3b
 3101 015b 05       		.uleb128 0x5
 3102 015c 49       		.uleb128 0x49
 3103 015d 13       		.uleb128 0x13
 3104 015e 00       		.byte	0
 3105 015f 00       		.byte	0
 3106 0160 1D       		.uleb128 0x1d
 3107 0161 34       		.uleb128 0x34
 3108 0162 00       		.byte	0
 3109 0163 03       		.uleb128 0x3
 3110 0164 0E       		.uleb128 0xe
 3111 0165 49       		.uleb128 0x49
 3112 0166 13       		.uleb128 0x13
 3113 0167 34       		.uleb128 0x34
 3114 0168 19       		.uleb128 0x19
 3115 0169 1C       		.uleb128 0x1c
 3116 016a 0E       		.uleb128 0xe
 3117 016b 00       		.byte	0
 3118 016c 00       		.byte	0
 3119 016d 1E       		.uleb128 0x1e
 3120 016e 2E       		.uleb128 0x2e
 3121 016f 01       		.byte	0x1
 3122 0170 3F       		.uleb128 0x3f
 3123 0171 19       		.uleb128 0x19
 3124 0172 03       		.uleb128 0x3
 3125 0173 0E       		.uleb128 0xe
 3126 0174 3A       		.uleb128 0x3a
ARM GAS  /tmp/ccLbt1NC.s 			page 56


 3127 0175 0B       		.uleb128 0xb
 3128 0176 3B       		.uleb128 0x3b
 3129 0177 05       		.uleb128 0x5
 3130 0178 27       		.uleb128 0x27
 3131 0179 19       		.uleb128 0x19
 3132 017a 49       		.uleb128 0x49
 3133 017b 13       		.uleb128 0x13
 3134 017c 20       		.uleb128 0x20
 3135 017d 0B       		.uleb128 0xb
 3136 017e 01       		.uleb128 0x1
 3137 017f 13       		.uleb128 0x13
 3138 0180 00       		.byte	0
 3139 0181 00       		.byte	0
 3140 0182 1F       		.uleb128 0x1f
 3141 0183 2E       		.uleb128 0x2e
 3142 0184 01       		.byte	0x1
 3143 0185 03       		.uleb128 0x3
 3144 0186 0E       		.uleb128 0xe
 3145 0187 3A       		.uleb128 0x3a
 3146 0188 0B       		.uleb128 0xb
 3147 0189 3B       		.uleb128 0x3b
 3148 018a 0B       		.uleb128 0xb
 3149 018b 27       		.uleb128 0x27
 3150 018c 19       		.uleb128 0x19
 3151 018d 49       		.uleb128 0x49
 3152 018e 13       		.uleb128 0x13
 3153 018f 20       		.uleb128 0x20
 3154 0190 0B       		.uleb128 0xb
 3155 0191 01       		.uleb128 0x1
 3156 0192 13       		.uleb128 0x13
 3157 0193 00       		.byte	0
 3158 0194 00       		.byte	0
 3159 0195 20       		.uleb128 0x20
 3160 0196 05       		.uleb128 0x5
 3161 0197 00       		.byte	0
 3162 0198 03       		.uleb128 0x3
 3163 0199 08       		.uleb128 0x8
 3164 019a 3A       		.uleb128 0x3a
 3165 019b 0B       		.uleb128 0xb
 3166 019c 3B       		.uleb128 0x3b
 3167 019d 0B       		.uleb128 0xb
 3168 019e 49       		.uleb128 0x49
 3169 019f 13       		.uleb128 0x13
 3170 01a0 00       		.byte	0
 3171 01a1 00       		.byte	0
 3172 01a2 21       		.uleb128 0x21
 3173 01a3 2E       		.uleb128 0x2e
 3174 01a4 01       		.byte	0x1
 3175 01a5 3F       		.uleb128 0x3f
 3176 01a6 19       		.uleb128 0x19
 3177 01a7 03       		.uleb128 0x3
 3178 01a8 0E       		.uleb128 0xe
 3179 01a9 3A       		.uleb128 0x3a
 3180 01aa 0B       		.uleb128 0xb
 3181 01ab 3B       		.uleb128 0x3b
 3182 01ac 0B       		.uleb128 0xb
 3183 01ad 27       		.uleb128 0x27
ARM GAS  /tmp/ccLbt1NC.s 			page 57


 3184 01ae 19       		.uleb128 0x19
 3185 01af 11       		.uleb128 0x11
 3186 01b0 01       		.uleb128 0x1
 3187 01b1 12       		.uleb128 0x12
 3188 01b2 06       		.uleb128 0x6
 3189 01b3 40       		.uleb128 0x40
 3190 01b4 18       		.uleb128 0x18
 3191 01b5 9742     		.uleb128 0x2117
 3192 01b7 19       		.uleb128 0x19
 3193 01b8 01       		.uleb128 0x1
 3194 01b9 13       		.uleb128 0x13
 3195 01ba 00       		.byte	0
 3196 01bb 00       		.byte	0
 3197 01bc 22       		.uleb128 0x22
 3198 01bd 05       		.uleb128 0x5
 3199 01be 00       		.byte	0
 3200 01bf 03       		.uleb128 0x3
 3201 01c0 08       		.uleb128 0x8
 3202 01c1 3A       		.uleb128 0x3a
 3203 01c2 0B       		.uleb128 0xb
 3204 01c3 3B       		.uleb128 0x3b
 3205 01c4 0B       		.uleb128 0xb
 3206 01c5 49       		.uleb128 0x49
 3207 01c6 13       		.uleb128 0x13
 3208 01c7 02       		.uleb128 0x2
 3209 01c8 18       		.uleb128 0x18
 3210 01c9 00       		.byte	0
 3211 01ca 00       		.byte	0
 3212 01cb 23       		.uleb128 0x23
 3213 01cc 34       		.uleb128 0x34
 3214 01cd 00       		.byte	0
 3215 01ce 03       		.uleb128 0x3
 3216 01cf 0E       		.uleb128 0xe
 3217 01d0 49       		.uleb128 0x49
 3218 01d1 13       		.uleb128 0x13
 3219 01d2 34       		.uleb128 0x34
 3220 01d3 19       		.uleb128 0x19
 3221 01d4 00       		.byte	0
 3222 01d5 00       		.byte	0
 3223 01d6 24       		.uleb128 0x24
 3224 01d7 1D       		.uleb128 0x1d
 3225 01d8 01       		.byte	0x1
 3226 01d9 31       		.uleb128 0x31
 3227 01da 13       		.uleb128 0x13
 3228 01db 11       		.uleb128 0x11
 3229 01dc 01       		.uleb128 0x1
 3230 01dd 12       		.uleb128 0x12
 3231 01de 06       		.uleb128 0x6
 3232 01df 58       		.uleb128 0x58
 3233 01e0 0B       		.uleb128 0xb
 3234 01e1 59       		.uleb128 0x59
 3235 01e2 0B       		.uleb128 0xb
 3236 01e3 00       		.byte	0
 3237 01e4 00       		.byte	0
 3238 01e5 25       		.uleb128 0x25
 3239 01e6 05       		.uleb128 0x5
 3240 01e7 00       		.byte	0
ARM GAS  /tmp/ccLbt1NC.s 			page 58


 3241 01e8 31       		.uleb128 0x31
 3242 01e9 13       		.uleb128 0x13
 3243 01ea 02       		.uleb128 0x2
 3244 01eb 18       		.uleb128 0x18
 3245 01ec 00       		.byte	0
 3246 01ed 00       		.byte	0
 3247 01ee 26       		.uleb128 0x26
 3248 01ef 05       		.uleb128 0x5
 3249 01f0 00       		.byte	0
 3250 01f1 03       		.uleb128 0x3
 3251 01f2 08       		.uleb128 0x8
 3252 01f3 3A       		.uleb128 0x3a
 3253 01f4 0B       		.uleb128 0xb
 3254 01f5 3B       		.uleb128 0x3b
 3255 01f6 0B       		.uleb128 0xb
 3256 01f7 49       		.uleb128 0x49
 3257 01f8 13       		.uleb128 0x13
 3258 01f9 02       		.uleb128 0x2
 3259 01fa 17       		.uleb128 0x17
 3260 01fb 00       		.byte	0
 3261 01fc 00       		.byte	0
 3262 01fd 27       		.uleb128 0x27
 3263 01fe 34       		.uleb128 0x34
 3264 01ff 00       		.byte	0
 3265 0200 03       		.uleb128 0x3
 3266 0201 08       		.uleb128 0x8
 3267 0202 3A       		.uleb128 0x3a
 3268 0203 0B       		.uleb128 0xb
 3269 0204 3B       		.uleb128 0x3b
 3270 0205 0B       		.uleb128 0xb
 3271 0206 49       		.uleb128 0x49
 3272 0207 13       		.uleb128 0x13
 3273 0208 02       		.uleb128 0x2
 3274 0209 17       		.uleb128 0x17
 3275 020a 00       		.byte	0
 3276 020b 00       		.byte	0
 3277 020c 28       		.uleb128 0x28
 3278 020d 0B       		.uleb128 0xb
 3279 020e 01       		.byte	0x1
 3280 020f 55       		.uleb128 0x55
 3281 0210 17       		.uleb128 0x17
 3282 0211 00       		.byte	0
 3283 0212 00       		.byte	0
 3284 0213 29       		.uleb128 0x29
 3285 0214 1D       		.uleb128 0x1d
 3286 0215 01       		.byte	0x1
 3287 0216 31       		.uleb128 0x31
 3288 0217 13       		.uleb128 0x13
 3289 0218 11       		.uleb128 0x11
 3290 0219 01       		.uleb128 0x1
 3291 021a 12       		.uleb128 0x12
 3292 021b 06       		.uleb128 0x6
 3293 021c 58       		.uleb128 0x58
 3294 021d 0B       		.uleb128 0xb
 3295 021e 59       		.uleb128 0x59
 3296 021f 0B       		.uleb128 0xb
 3297 0220 01       		.uleb128 0x1
ARM GAS  /tmp/ccLbt1NC.s 			page 59


 3298 0221 13       		.uleb128 0x13
 3299 0222 00       		.byte	0
 3300 0223 00       		.byte	0
 3301 0224 2A       		.uleb128 0x2a
 3302 0225 05       		.uleb128 0x5
 3303 0226 00       		.byte	0
 3304 0227 31       		.uleb128 0x31
 3305 0228 13       		.uleb128 0x13
 3306 0229 02       		.uleb128 0x2
 3307 022a 17       		.uleb128 0x17
 3308 022b 00       		.byte	0
 3309 022c 00       		.byte	0
 3310 022d 2B       		.uleb128 0x2b
 3311 022e 0B       		.uleb128 0xb
 3312 022f 01       		.byte	0x1
 3313 0230 11       		.uleb128 0x11
 3314 0231 01       		.uleb128 0x1
 3315 0232 12       		.uleb128 0x12
 3316 0233 06       		.uleb128 0x6
 3317 0234 00       		.byte	0
 3318 0235 00       		.byte	0
 3319 0236 2C       		.uleb128 0x2c
 3320 0237 34       		.uleb128 0x34
 3321 0238 00       		.byte	0
 3322 0239 31       		.uleb128 0x31
 3323 023a 13       		.uleb128 0x13
 3324 023b 02       		.uleb128 0x2
 3325 023c 17       		.uleb128 0x17
 3326 023d 00       		.byte	0
 3327 023e 00       		.byte	0
 3328 023f 2D       		.uleb128 0x2d
 3329 0240 1D       		.uleb128 0x1d
 3330 0241 01       		.byte	0x1
 3331 0242 31       		.uleb128 0x31
 3332 0243 13       		.uleb128 0x13
 3333 0244 52       		.uleb128 0x52
 3334 0245 01       		.uleb128 0x1
 3335 0246 55       		.uleb128 0x55
 3336 0247 17       		.uleb128 0x17
 3337 0248 58       		.uleb128 0x58
 3338 0249 0B       		.uleb128 0xb
 3339 024a 59       		.uleb128 0x59
 3340 024b 0B       		.uleb128 0xb
 3341 024c 01       		.uleb128 0x1
 3342 024d 13       		.uleb128 0x13
 3343 024e 00       		.byte	0
 3344 024f 00       		.byte	0
 3345 0250 2E       		.uleb128 0x2e
 3346 0251 898201   		.uleb128 0x4109
 3347 0254 01       		.byte	0x1
 3348 0255 11       		.uleb128 0x11
 3349 0256 01       		.uleb128 0x1
 3350 0257 9542     		.uleb128 0x2115
 3351 0259 19       		.uleb128 0x19
 3352 025a 31       		.uleb128 0x31
 3353 025b 13       		.uleb128 0x13
 3354 025c 01       		.uleb128 0x1
ARM GAS  /tmp/ccLbt1NC.s 			page 60


 3355 025d 13       		.uleb128 0x13
 3356 025e 00       		.byte	0
 3357 025f 00       		.byte	0
 3358 0260 2F       		.uleb128 0x2f
 3359 0261 8A8201   		.uleb128 0x410a
 3360 0264 00       		.byte	0
 3361 0265 02       		.uleb128 0x2
 3362 0266 18       		.uleb128 0x18
 3363 0267 9142     		.uleb128 0x2111
 3364 0269 18       		.uleb128 0x18
 3365 026a 00       		.byte	0
 3366 026b 00       		.byte	0
 3367 026c 30       		.uleb128 0x30
 3368 026d 898201   		.uleb128 0x4109
 3369 0270 00       		.byte	0
 3370 0271 11       		.uleb128 0x11
 3371 0272 01       		.uleb128 0x1
 3372 0273 31       		.uleb128 0x31
 3373 0274 13       		.uleb128 0x13
 3374 0275 00       		.byte	0
 3375 0276 00       		.byte	0
 3376 0277 31       		.uleb128 0x31
 3377 0278 1D       		.uleb128 0x1d
 3378 0279 01       		.byte	0x1
 3379 027a 31       		.uleb128 0x31
 3380 027b 13       		.uleb128 0x13
 3381 027c 11       		.uleb128 0x11
 3382 027d 01       		.uleb128 0x1
 3383 027e 12       		.uleb128 0x12
 3384 027f 06       		.uleb128 0x6
 3385 0280 58       		.uleb128 0x58
 3386 0281 0B       		.uleb128 0xb
 3387 0282 59       		.uleb128 0x59
 3388 0283 05       		.uleb128 0x5
 3389 0284 00       		.byte	0
 3390 0285 00       		.byte	0
 3391 0286 32       		.uleb128 0x32
 3392 0287 05       		.uleb128 0x5
 3393 0288 00       		.byte	0
 3394 0289 31       		.uleb128 0x31
 3395 028a 13       		.uleb128 0x13
 3396 028b 1C       		.uleb128 0x1c
 3397 028c 0B       		.uleb128 0xb
 3398 028d 00       		.byte	0
 3399 028e 00       		.byte	0
 3400 028f 33       		.uleb128 0x33
 3401 0290 34       		.uleb128 0x34
 3402 0291 00       		.byte	0
 3403 0292 31       		.uleb128 0x31
 3404 0293 13       		.uleb128 0x13
 3405 0294 00       		.byte	0
 3406 0295 00       		.byte	0
 3407 0296 34       		.uleb128 0x34
 3408 0297 898201   		.uleb128 0x4109
 3409 029a 01       		.byte	0x1
 3410 029b 11       		.uleb128 0x11
 3411 029c 01       		.uleb128 0x1
ARM GAS  /tmp/ccLbt1NC.s 			page 61


 3412 029d 31       		.uleb128 0x31
 3413 029e 13       		.uleb128 0x13
 3414 029f 00       		.byte	0
 3415 02a0 00       		.byte	0
 3416 02a1 35       		.uleb128 0x35
 3417 02a2 2E       		.uleb128 0x2e
 3418 02a3 01       		.byte	0x1
 3419 02a4 3F       		.uleb128 0x3f
 3420 02a5 19       		.uleb128 0x19
 3421 02a6 03       		.uleb128 0x3
 3422 02a7 0E       		.uleb128 0xe
 3423 02a8 3A       		.uleb128 0x3a
 3424 02a9 0B       		.uleb128 0xb
 3425 02aa 3B       		.uleb128 0x3b
 3426 02ab 0B       		.uleb128 0xb
 3427 02ac 27       		.uleb128 0x27
 3428 02ad 19       		.uleb128 0x19
 3429 02ae 49       		.uleb128 0x49
 3430 02af 13       		.uleb128 0x13
 3431 02b0 11       		.uleb128 0x11
 3432 02b1 01       		.uleb128 0x1
 3433 02b2 12       		.uleb128 0x12
 3434 02b3 06       		.uleb128 0x6
 3435 02b4 40       		.uleb128 0x40
 3436 02b5 18       		.uleb128 0x18
 3437 02b6 9742     		.uleb128 0x2117
 3438 02b8 19       		.uleb128 0x19
 3439 02b9 01       		.uleb128 0x1
 3440 02ba 13       		.uleb128 0x13
 3441 02bb 00       		.byte	0
 3442 02bc 00       		.byte	0
 3443 02bd 36       		.uleb128 0x36
 3444 02be 1D       		.uleb128 0x1d
 3445 02bf 01       		.byte	0x1
 3446 02c0 31       		.uleb128 0x31
 3447 02c1 13       		.uleb128 0x13
 3448 02c2 11       		.uleb128 0x11
 3449 02c3 01       		.uleb128 0x1
 3450 02c4 12       		.uleb128 0x12
 3451 02c5 06       		.uleb128 0x6
 3452 02c6 58       		.uleb128 0x58
 3453 02c7 0B       		.uleb128 0xb
 3454 02c8 59       		.uleb128 0x59
 3455 02c9 05       		.uleb128 0x5
 3456 02ca 01       		.uleb128 0x1
 3457 02cb 13       		.uleb128 0x13
 3458 02cc 00       		.byte	0
 3459 02cd 00       		.byte	0
 3460 02ce 37       		.uleb128 0x37
 3461 02cf 1D       		.uleb128 0x1d
 3462 02d0 01       		.byte	0x1
 3463 02d1 31       		.uleb128 0x31
 3464 02d2 13       		.uleb128 0x13
 3465 02d3 52       		.uleb128 0x52
 3466 02d4 01       		.uleb128 0x1
 3467 02d5 55       		.uleb128 0x55
 3468 02d6 17       		.uleb128 0x17
ARM GAS  /tmp/ccLbt1NC.s 			page 62


 3469 02d7 58       		.uleb128 0x58
 3470 02d8 0B       		.uleb128 0xb
 3471 02d9 59       		.uleb128 0x59
 3472 02da 05       		.uleb128 0x5
 3473 02db 01       		.uleb128 0x1
 3474 02dc 13       		.uleb128 0x13
 3475 02dd 00       		.byte	0
 3476 02de 00       		.byte	0
 3477 02df 38       		.uleb128 0x38
 3478 02e0 1D       		.uleb128 0x1d
 3479 02e1 01       		.byte	0x1
 3480 02e2 31       		.uleb128 0x31
 3481 02e3 13       		.uleb128 0x13
 3482 02e4 52       		.uleb128 0x52
 3483 02e5 01       		.uleb128 0x1
 3484 02e6 55       		.uleb128 0x55
 3485 02e7 17       		.uleb128 0x17
 3486 02e8 58       		.uleb128 0x58
 3487 02e9 0B       		.uleb128 0xb
 3488 02ea 59       		.uleb128 0x59
 3489 02eb 05       		.uleb128 0x5
 3490 02ec 00       		.byte	0
 3491 02ed 00       		.byte	0
 3492 02ee 39       		.uleb128 0x39
 3493 02ef 2E       		.uleb128 0x2e
 3494 02f0 01       		.byte	0x1
 3495 02f1 31       		.uleb128 0x31
 3496 02f2 13       		.uleb128 0x13
 3497 02f3 11       		.uleb128 0x11
 3498 02f4 01       		.uleb128 0x1
 3499 02f5 12       		.uleb128 0x12
 3500 02f6 06       		.uleb128 0x6
 3501 02f7 40       		.uleb128 0x40
 3502 02f8 18       		.uleb128 0x18
 3503 02f9 9742     		.uleb128 0x2117
 3504 02fb 19       		.uleb128 0x19
 3505 02fc 01       		.uleb128 0x1
 3506 02fd 13       		.uleb128 0x13
 3507 02fe 00       		.byte	0
 3508 02ff 00       		.byte	0
 3509 0300 3A       		.uleb128 0x3a
 3510 0301 2E       		.uleb128 0x2e
 3511 0302 01       		.byte	0x1
 3512 0303 3F       		.uleb128 0x3f
 3513 0304 19       		.uleb128 0x19
 3514 0305 03       		.uleb128 0x3
 3515 0306 0E       		.uleb128 0xe
 3516 0307 3A       		.uleb128 0x3a
 3517 0308 0B       		.uleb128 0xb
 3518 0309 3B       		.uleb128 0x3b
 3519 030a 05       		.uleb128 0x5
 3520 030b 27       		.uleb128 0x27
 3521 030c 19       		.uleb128 0x19
 3522 030d 11       		.uleb128 0x11
 3523 030e 01       		.uleb128 0x1
 3524 030f 12       		.uleb128 0x12
 3525 0310 06       		.uleb128 0x6
ARM GAS  /tmp/ccLbt1NC.s 			page 63


 3526 0311 40       		.uleb128 0x40
 3527 0312 18       		.uleb128 0x18
 3528 0313 9742     		.uleb128 0x2117
 3529 0315 19       		.uleb128 0x19
 3530 0316 01       		.uleb128 0x1
 3531 0317 13       		.uleb128 0x13
 3532 0318 00       		.byte	0
 3533 0319 00       		.byte	0
 3534 031a 3B       		.uleb128 0x3b
 3535 031b 05       		.uleb128 0x5
 3536 031c 00       		.byte	0
 3537 031d 03       		.uleb128 0x3
 3538 031e 08       		.uleb128 0x8
 3539 031f 3A       		.uleb128 0x3a
 3540 0320 0B       		.uleb128 0xb
 3541 0321 3B       		.uleb128 0x3b
 3542 0322 05       		.uleb128 0x5
 3543 0323 49       		.uleb128 0x49
 3544 0324 13       		.uleb128 0x13
 3545 0325 02       		.uleb128 0x2
 3546 0326 17       		.uleb128 0x17
 3547 0327 00       		.byte	0
 3548 0328 00       		.byte	0
 3549 0329 3C       		.uleb128 0x3c
 3550 032a 34       		.uleb128 0x34
 3551 032b 00       		.byte	0
 3552 032c 03       		.uleb128 0x3
 3553 032d 08       		.uleb128 0x8
 3554 032e 3A       		.uleb128 0x3a
 3555 032f 0B       		.uleb128 0xb
 3556 0330 3B       		.uleb128 0x3b
 3557 0331 05       		.uleb128 0x5
 3558 0332 49       		.uleb128 0x49
 3559 0333 13       		.uleb128 0x13
 3560 0334 02       		.uleb128 0x2
 3561 0335 17       		.uleb128 0x17
 3562 0336 00       		.byte	0
 3563 0337 00       		.byte	0
 3564 0338 3D       		.uleb128 0x3d
 3565 0339 0B       		.uleb128 0xb
 3566 033a 01       		.byte	0x1
 3567 033b 11       		.uleb128 0x11
 3568 033c 01       		.uleb128 0x1
 3569 033d 12       		.uleb128 0x12
 3570 033e 06       		.uleb128 0x6
 3571 033f 01       		.uleb128 0x1
 3572 0340 13       		.uleb128 0x13
 3573 0341 00       		.byte	0
 3574 0342 00       		.byte	0
 3575 0343 3E       		.uleb128 0x3e
 3576 0344 34       		.uleb128 0x34
 3577 0345 00       		.byte	0
 3578 0346 03       		.uleb128 0x3
 3579 0347 0E       		.uleb128 0xe
 3580 0348 3A       		.uleb128 0x3a
 3581 0349 0B       		.uleb128 0xb
 3582 034a 3B       		.uleb128 0x3b
ARM GAS  /tmp/ccLbt1NC.s 			page 64


 3583 034b 05       		.uleb128 0x5
 3584 034c 49       		.uleb128 0x49
 3585 034d 13       		.uleb128 0x13
 3586 034e 02       		.uleb128 0x2
 3587 034f 17       		.uleb128 0x17
 3588 0350 00       		.byte	0
 3589 0351 00       		.byte	0
 3590 0352 3F       		.uleb128 0x3f
 3591 0353 898201   		.uleb128 0x4109
 3592 0356 01       		.byte	0x1
 3593 0357 11       		.uleb128 0x11
 3594 0358 01       		.uleb128 0x1
 3595 0359 31       		.uleb128 0x31
 3596 035a 13       		.uleb128 0x13
 3597 035b 01       		.uleb128 0x1
 3598 035c 13       		.uleb128 0x13
 3599 035d 00       		.byte	0
 3600 035e 00       		.byte	0
 3601 035f 40       		.uleb128 0x40
 3602 0360 898201   		.uleb128 0x4109
 3603 0363 00       		.byte	0
 3604 0364 11       		.uleb128 0x11
 3605 0365 01       		.uleb128 0x1
 3606 0366 9542     		.uleb128 0x2115
 3607 0368 19       		.uleb128 0x19
 3608 0369 31       		.uleb128 0x31
 3609 036a 13       		.uleb128 0x13
 3610 036b 00       		.byte	0
 3611 036c 00       		.byte	0
 3612 036d 41       		.uleb128 0x41
 3613 036e 0B       		.uleb128 0xb
 3614 036f 01       		.byte	0x1
 3615 0370 55       		.uleb128 0x55
 3616 0371 17       		.uleb128 0x17
 3617 0372 01       		.uleb128 0x1
 3618 0373 13       		.uleb128 0x13
 3619 0374 00       		.byte	0
 3620 0375 00       		.byte	0
 3621 0376 42       		.uleb128 0x42
 3622 0377 34       		.uleb128 0x34
 3623 0378 00       		.byte	0
 3624 0379 03       		.uleb128 0x3
 3625 037a 0E       		.uleb128 0xe
 3626 037b 3A       		.uleb128 0x3a
 3627 037c 0B       		.uleb128 0xb
 3628 037d 3B       		.uleb128 0x3b
 3629 037e 05       		.uleb128 0x5
 3630 037f 49       		.uleb128 0x49
 3631 0380 13       		.uleb128 0x13
 3632 0381 3F       		.uleb128 0x3f
 3633 0382 19       		.uleb128 0x19
 3634 0383 3C       		.uleb128 0x3c
 3635 0384 19       		.uleb128 0x19
 3636 0385 00       		.byte	0
 3637 0386 00       		.byte	0
 3638 0387 43       		.uleb128 0x43
 3639 0388 34       		.uleb128 0x34
ARM GAS  /tmp/ccLbt1NC.s 			page 65


 3640 0389 00       		.byte	0
 3641 038a 03       		.uleb128 0x3
 3642 038b 08       		.uleb128 0x8
 3643 038c 3A       		.uleb128 0x3a
 3644 038d 0B       		.uleb128 0xb
 3645 038e 3B       		.uleb128 0x3b
 3646 038f 05       		.uleb128 0x5
 3647 0390 49       		.uleb128 0x49
 3648 0391 13       		.uleb128 0x13
 3649 0392 3F       		.uleb128 0x3f
 3650 0393 19       		.uleb128 0x19
 3651 0394 3C       		.uleb128 0x3c
 3652 0395 19       		.uleb128 0x19
 3653 0396 00       		.byte	0
 3654 0397 00       		.byte	0
 3655 0398 44       		.uleb128 0x44
 3656 0399 2E       		.uleb128 0x2e
 3657 039a 01       		.byte	0x1
 3658 039b 3F       		.uleb128 0x3f
 3659 039c 19       		.uleb128 0x19
 3660 039d 03       		.uleb128 0x3
 3661 039e 0E       		.uleb128 0xe
 3662 039f 3A       		.uleb128 0x3a
 3663 03a0 0B       		.uleb128 0xb
 3664 03a1 3B       		.uleb128 0x3b
 3665 03a2 05       		.uleb128 0x5
 3666 03a3 27       		.uleb128 0x27
 3667 03a4 19       		.uleb128 0x19
 3668 03a5 3C       		.uleb128 0x3c
 3669 03a6 19       		.uleb128 0x19
 3670 03a7 01       		.uleb128 0x1
 3671 03a8 13       		.uleb128 0x13
 3672 03a9 00       		.byte	0
 3673 03aa 00       		.byte	0
 3674 03ab 45       		.uleb128 0x45
 3675 03ac 2E       		.uleb128 0x2e
 3676 03ad 01       		.byte	0x1
 3677 03ae 3F       		.uleb128 0x3f
 3678 03af 19       		.uleb128 0x19
 3679 03b0 03       		.uleb128 0x3
 3680 03b1 0E       		.uleb128 0xe
 3681 03b2 3A       		.uleb128 0x3a
 3682 03b3 0B       		.uleb128 0xb
 3683 03b4 3B       		.uleb128 0x3b
 3684 03b5 05       		.uleb128 0x5
 3685 03b6 27       		.uleb128 0x27
 3686 03b7 19       		.uleb128 0x19
 3687 03b8 49       		.uleb128 0x49
 3688 03b9 13       		.uleb128 0x13
 3689 03ba 3C       		.uleb128 0x3c
 3690 03bb 19       		.uleb128 0x19
 3691 03bc 01       		.uleb128 0x1
 3692 03bd 13       		.uleb128 0x13
 3693 03be 00       		.byte	0
 3694 03bf 00       		.byte	0
 3695 03c0 46       		.uleb128 0x46
 3696 03c1 2E       		.uleb128 0x2e
ARM GAS  /tmp/ccLbt1NC.s 			page 66


 3697 03c2 00       		.byte	0
 3698 03c3 3F       		.uleb128 0x3f
 3699 03c4 19       		.uleb128 0x19
 3700 03c5 03       		.uleb128 0x3
 3701 03c6 0E       		.uleb128 0xe
 3702 03c7 3A       		.uleb128 0x3a
 3703 03c8 0B       		.uleb128 0xb
 3704 03c9 3B       		.uleb128 0x3b
 3705 03ca 05       		.uleb128 0x5
 3706 03cb 27       		.uleb128 0x27
 3707 03cc 19       		.uleb128 0x19
 3708 03cd 3C       		.uleb128 0x3c
 3709 03ce 19       		.uleb128 0x19
 3710 03cf 00       		.byte	0
 3711 03d0 00       		.byte	0
 3712 03d1 00       		.byte	0
 3713              		.section	.debug_loc,"",%progbits
 3714              	.Ldebug_loc0:
 3715              	.LLST0:
 3716 0000 00000000 		.4byte	.LVL1
 3717 0004 08000000 		.4byte	.LVL2
 3718 0008 0100     		.2byte	0x1
 3719 000a 50       		.byte	0x50
 3720 000b 08000000 		.4byte	.LVL2
 3721 000f 48000000 		.4byte	.LVL8
 3722 0013 0100     		.2byte	0x1
 3723 0015 55       		.byte	0x55
 3724 0016 48000000 		.4byte	.LVL8
 3725 001a 4B000000 		.4byte	.LVL9-1
 3726 001e 0500     		.2byte	0x5
 3727 0020 73       		.byte	0x73
 3728 0021 04       		.sleb128 4
 3729 0022 06       		.byte	0x6
 3730 0023 23       		.byte	0x23
 3731 0024 20       		.uleb128 0x20
 3732 0025 4B000000 		.4byte	.LVL9-1
 3733 0029 4C000000 		.4byte	.LVL9
 3734 002d 0400     		.2byte	0x4
 3735 002f F3       		.byte	0xf3
 3736 0030 01       		.uleb128 0x1
 3737 0031 50       		.byte	0x50
 3738 0032 9F       		.byte	0x9f
 3739 0033 4C000000 		.4byte	.LVL9
 3740 0037 C0000000 		.4byte	.LVL22
 3741 003b 0100     		.2byte	0x1
 3742 003d 55       		.byte	0x55
 3743 003e 00000000 		.4byte	0
 3744 0042 00000000 		.4byte	0
 3745              	.LLST1:
 3746 0046 0A000000 		.4byte	.LVL3
 3747 004a 48000000 		.4byte	.LVL8
 3748 004e 0100     		.2byte	0x1
 3749 0050 54       		.byte	0x54
 3750 0051 48000000 		.4byte	.LVL8
 3751 0055 4B000000 		.4byte	.LVL9-1
 3752 0059 0200     		.2byte	0x2
 3753 005b 73       		.byte	0x73
ARM GAS  /tmp/ccLbt1NC.s 			page 67


 3754 005c 04       		.sleb128 4
 3755 005d 4C000000 		.4byte	.LVL9
 3756 0061 C0000000 		.4byte	.LVL22
 3757 0065 0100     		.2byte	0x1
 3758 0067 54       		.byte	0x54
 3759 0068 00000000 		.4byte	0
 3760 006c 00000000 		.4byte	0
 3761              	.LLST2:
 3762 0070 0E000000 		.4byte	.LVL4
 3763 0074 24000000 		.4byte	.LVL5
 3764 0078 0100     		.2byte	0x1
 3765 007a 50       		.byte	0x50
 3766 007b 4C000000 		.4byte	.LVL9
 3767 007f 59000000 		.4byte	.LVL10-1
 3768 0083 0100     		.2byte	0x1
 3769 0085 50       		.byte	0x50
 3770 0086 5C000000 		.4byte	.LVL11
 3771 008a B6000000 		.4byte	.LVL21
 3772 008e 0100     		.2byte	0x1
 3773 0090 50       		.byte	0x50
 3774 0091 00000000 		.4byte	0
 3775 0095 00000000 		.4byte	0
 3776              	.LLST3:
 3777 0099 24000000 		.4byte	.LVL5
 3778 009d 48000000 		.4byte	.LVL8
 3779 00a1 0100     		.2byte	0x1
 3780 00a3 55       		.byte	0x55
 3781 00a4 48000000 		.4byte	.LVL8
 3782 00a8 4B000000 		.4byte	.LVL9-1
 3783 00ac 0500     		.2byte	0x5
 3784 00ae 73       		.byte	0x73
 3785 00af 04       		.sleb128 4
 3786 00b0 06       		.byte	0x6
 3787 00b1 23       		.byte	0x23
 3788 00b2 20       		.uleb128 0x20
 3789 00b3 4B000000 		.4byte	.LVL9-1
 3790 00b7 4C000000 		.4byte	.LVL9
 3791 00bb 0400     		.2byte	0x4
 3792 00bd F3       		.byte	0xf3
 3793 00be 01       		.uleb128 0x1
 3794 00bf 50       		.byte	0x50
 3795 00c0 9F       		.byte	0x9f
 3796 00c1 00000000 		.4byte	0
 3797 00c5 00000000 		.4byte	0
 3798              	.LLST4:
 3799 00c9 24000000 		.4byte	.LVL5
 3800 00cd 48000000 		.4byte	.LVL8
 3801 00d1 0100     		.2byte	0x1
 3802 00d3 54       		.byte	0x54
 3803 00d4 48000000 		.4byte	.LVL8
 3804 00d8 4B000000 		.4byte	.LVL9-1
 3805 00dc 0200     		.2byte	0x2
 3806 00de 73       		.byte	0x73
 3807 00df 04       		.sleb128 4
 3808 00e0 00000000 		.4byte	0
 3809 00e4 00000000 		.4byte	0
 3810              	.LLST5:
ARM GAS  /tmp/ccLbt1NC.s 			page 68


 3811 00e8 24000000 		.4byte	.LVL5
 3812 00ec 28000000 		.4byte	.LVL6
 3813 00f0 0100     		.2byte	0x1
 3814 00f2 55       		.byte	0x55
 3815 00f3 28000000 		.4byte	.LVL6
 3816 00f7 4B000000 		.4byte	.LVL9-1
 3817 00fb 0100     		.2byte	0x1
 3818 00fd 53       		.byte	0x53
 3819 00fe 00000000 		.4byte	0
 3820 0102 00000000 		.4byte	0
 3821              	.LLST6:
 3822 0106 4C000000 		.4byte	.LVL9
 3823 010a 59000000 		.4byte	.LVL10-1
 3824 010e 0100     		.2byte	0x1
 3825 0110 50       		.byte	0x50
 3826 0111 00000000 		.4byte	0
 3827 0115 00000000 		.4byte	0
 3828              	.LLST7:
 3829 0119 5C000000 		.4byte	.LVL11
 3830 011d 84000000 		.4byte	.LVL15
 3831 0121 0100     		.2byte	0x1
 3832 0123 50       		.byte	0x50
 3833 0124 00000000 		.4byte	0
 3834 0128 00000000 		.4byte	0
 3835              	.LLST8:
 3836 012c 64000000 		.4byte	.LVL12
 3837 0130 84000000 		.4byte	.LVL15
 3838 0134 0100     		.2byte	0x1
 3839 0136 56       		.byte	0x56
 3840 0137 00000000 		.4byte	0
 3841 013b 00000000 		.4byte	0
 3842              	.LLST9:
 3843 013f 64000000 		.4byte	.LVL12
 3844 0143 84000000 		.4byte	.LVL15
 3845 0147 0100     		.2byte	0x1
 3846 0149 50       		.byte	0x50
 3847 014a 00000000 		.4byte	0
 3848 014e 00000000 		.4byte	0
 3849              	.LLST10:
 3850 0152 64000000 		.4byte	.LVL12
 3851 0156 6C000000 		.4byte	.LVL13
 3852 015a 0100     		.2byte	0x1
 3853 015c 56       		.byte	0x56
 3854 015d 6C000000 		.4byte	.LVL13
 3855 0161 84000000 		.4byte	.LVL15
 3856 0165 0100     		.2byte	0x1
 3857 0167 53       		.byte	0x53
 3858 0168 00000000 		.4byte	0
 3859 016c 00000000 		.4byte	0
 3860              	.LLST11:
 3861 0170 84000000 		.4byte	.LVL15
 3862 0174 AC000000 		.4byte	.LVL19
 3863 0178 0100     		.2byte	0x1
 3864 017a 50       		.byte	0x50
 3865 017b AC000000 		.4byte	.LVL19
 3866 017f B0000000 		.4byte	.LVL20
 3867 0183 0200     		.2byte	0x2
ARM GAS  /tmp/ccLbt1NC.s 			page 69


 3868 0185 73       		.byte	0x73
 3869 0186 04       		.sleb128 4
 3870 0187 00000000 		.4byte	0
 3871 018b 00000000 		.4byte	0
 3872              	.LLST12:
 3873 018f 8C000000 		.4byte	.LVL16
 3874 0193 B6000000 		.4byte	.LVL21
 3875 0197 0100     		.2byte	0x1
 3876 0199 56       		.byte	0x56
 3877 019a 00000000 		.4byte	0
 3878 019e 00000000 		.4byte	0
 3879              	.LLST13:
 3880 01a2 8C000000 		.4byte	.LVL16
 3881 01a6 AC000000 		.4byte	.LVL19
 3882 01aa 0100     		.2byte	0x1
 3883 01ac 50       		.byte	0x50
 3884 01ad AC000000 		.4byte	.LVL19
 3885 01b1 B0000000 		.4byte	.LVL20
 3886 01b5 0200     		.2byte	0x2
 3887 01b7 73       		.byte	0x73
 3888 01b8 04       		.sleb128 4
 3889 01b9 00000000 		.4byte	0
 3890 01bd 00000000 		.4byte	0
 3891              	.LLST14:
 3892 01c1 8C000000 		.4byte	.LVL16
 3893 01c5 94000000 		.4byte	.LVL17
 3894 01c9 0100     		.2byte	0x1
 3895 01cb 56       		.byte	0x56
 3896 01cc 94000000 		.4byte	.LVL17
 3897 01d0 B0000000 		.4byte	.LVL20
 3898 01d4 0100     		.2byte	0x1
 3899 01d6 53       		.byte	0x53
 3900 01d7 00000000 		.4byte	0
 3901 01db 00000000 		.4byte	0
 3902              	.LLST15:
 3903 01df 00000000 		.4byte	.LVL23
 3904 01e3 0B000000 		.4byte	.LVL24-1
 3905 01e7 0100     		.2byte	0x1
 3906 01e9 50       		.byte	0x50
 3907 01ea 0B000000 		.4byte	.LVL24-1
 3908 01ee 14000000 		.4byte	.LFE242
 3909 01f2 0400     		.2byte	0x4
 3910 01f4 F3       		.byte	0xf3
 3911 01f5 01       		.uleb128 0x1
 3912 01f6 50       		.byte	0x50
 3913 01f7 9F       		.byte	0x9f
 3914 01f8 00000000 		.4byte	0
 3915 01fc 00000000 		.4byte	0
 3916              	.LLST16:
 3917 0200 00000000 		.4byte	.LVL25
 3918 0204 0E000000 		.4byte	.LVL27
 3919 0208 0100     		.2byte	0x1
 3920 020a 50       		.byte	0x50
 3921 020b 0E000000 		.4byte	.LVL27
 3922 020f 10000000 		.4byte	.LVL28
 3923 0213 0100     		.2byte	0x1
 3924 0215 53       		.byte	0x53
ARM GAS  /tmp/ccLbt1NC.s 			page 70


 3925 0216 10000000 		.4byte	.LVL28
 3926 021a 16000000 		.4byte	.LVL29
 3927 021e 0400     		.2byte	0x4
 3928 0220 F3       		.byte	0xf3
 3929 0221 01       		.uleb128 0x1
 3930 0222 50       		.byte	0x50
 3931 0223 9F       		.byte	0x9f
 3932 0224 16000000 		.4byte	.LVL29
 3933 0228 24000000 		.4byte	.LVL31
 3934 022c 0100     		.2byte	0x1
 3935 022e 50       		.byte	0x50
 3936 022f 24000000 		.4byte	.LVL31
 3937 0233 26000000 		.4byte	.LVL32
 3938 0237 0100     		.2byte	0x1
 3939 0239 53       		.byte	0x53
 3940 023a 26000000 		.4byte	.LVL32
 3941 023e 30000000 		.4byte	.LFE244
 3942 0242 0200     		.2byte	0x2
 3943 0244 72       		.byte	0x72
 3944 0245 34       		.sleb128 52
 3945 0246 00000000 		.4byte	0
 3946 024a 00000000 		.4byte	0
 3947              	.LLST17:
 3948 024e 08000000 		.4byte	.LVL26
 3949 0252 0E000000 		.4byte	.LVL27
 3950 0256 0100     		.2byte	0x1
 3951 0258 50       		.byte	0x50
 3952 0259 0E000000 		.4byte	.LVL27
 3953 025d 10000000 		.4byte	.LVL28
 3954 0261 0100     		.2byte	0x1
 3955 0263 53       		.byte	0x53
 3956 0264 10000000 		.4byte	.LVL28
 3957 0268 16000000 		.4byte	.LVL29
 3958 026c 0400     		.2byte	0x4
 3959 026e F3       		.byte	0xf3
 3960 026f 01       		.uleb128 0x1
 3961 0270 50       		.byte	0x50
 3962 0271 9F       		.byte	0x9f
 3963 0272 16000000 		.4byte	.LVL29
 3964 0276 24000000 		.4byte	.LVL31
 3965 027a 0100     		.2byte	0x1
 3966 027c 50       		.byte	0x50
 3967 027d 24000000 		.4byte	.LVL31
 3968 0281 26000000 		.4byte	.LVL32
 3969 0285 0100     		.2byte	0x1
 3970 0287 53       		.byte	0x53
 3971 0288 26000000 		.4byte	.LVL32
 3972 028c 30000000 		.4byte	.LFE244
 3973 0290 0200     		.2byte	0x2
 3974 0292 72       		.byte	0x72
 3975 0293 34       		.sleb128 52
 3976 0294 00000000 		.4byte	0
 3977 0298 00000000 		.4byte	0
 3978              	.LLST18:
 3979 029c 0E000000 		.4byte	.LVL27
 3980 02a0 16000000 		.4byte	.LVL29
 3981 02a4 0200     		.2byte	0x2
ARM GAS  /tmp/ccLbt1NC.s 			page 71


 3982 02a6 30       		.byte	0x30
 3983 02a7 9F       		.byte	0x9f
 3984 02a8 22000000 		.4byte	.LVL30
 3985 02ac 30000000 		.4byte	.LFE244
 3986 02b0 0200     		.2byte	0x2
 3987 02b2 30       		.byte	0x30
 3988 02b3 9F       		.byte	0x9f
 3989 02b4 00000000 		.4byte	0
 3990 02b8 00000000 		.4byte	0
 3991              	.LLST19:
 3992 02bc 00000000 		.4byte	.LVL33
 3993 02c0 08000000 		.4byte	.LVL34
 3994 02c4 0100     		.2byte	0x1
 3995 02c6 50       		.byte	0x50
 3996 02c7 08000000 		.4byte	.LVL34
 3997 02cb 0A000000 		.4byte	.LVL35
 3998 02cf 0100     		.2byte	0x1
 3999 02d1 53       		.byte	0x53
 4000 02d2 0A000000 		.4byte	.LVL35
 4001 02d6 16000000 		.4byte	.LVL36
 4002 02da 0100     		.2byte	0x1
 4003 02dc 50       		.byte	0x50
 4004 02dd 16000000 		.4byte	.LVL36
 4005 02e1 20000000 		.4byte	.LFE245
 4006 02e5 0100     		.2byte	0x1
 4007 02e7 53       		.byte	0x53
 4008 02e8 00000000 		.4byte	0
 4009 02ec 00000000 		.4byte	0
 4010              	.LLST20:
 4011 02f0 00000000 		.4byte	.LVL37
 4012 02f4 08000000 		.4byte	.LVL38
 4013 02f8 0100     		.2byte	0x1
 4014 02fa 50       		.byte	0x50
 4015 02fb 08000000 		.4byte	.LVL38
 4016 02ff 5E000000 		.4byte	.LVL51
 4017 0303 0100     		.2byte	0x1
 4018 0305 54       		.byte	0x54
 4019 0306 5E000000 		.4byte	.LVL51
 4020 030a 64000000 		.4byte	.LFE246
 4021 030e 0400     		.2byte	0x4
 4022 0310 F3       		.byte	0xf3
 4023 0311 01       		.uleb128 0x1
 4024 0312 50       		.byte	0x50
 4025 0313 9F       		.byte	0x9f
 4026 0314 00000000 		.4byte	0
 4027 0318 00000000 		.4byte	0
 4028              	.LLST21:
 4029 031c 08000000 		.4byte	.LVL38
 4030 0320 3A000000 		.4byte	.LVL46
 4031 0324 0100     		.2byte	0x1
 4032 0326 50       		.byte	0x50
 4033 0327 52000000 		.4byte	.LVL49
 4034 032b 64000000 		.4byte	.LFE246
 4035 032f 0100     		.2byte	0x1
 4036 0331 50       		.byte	0x50
 4037 0332 00000000 		.4byte	0
 4038 0336 00000000 		.4byte	0
ARM GAS  /tmp/ccLbt1NC.s 			page 72


 4039              	.LLST22:
 4040 033a 1A000000 		.4byte	.LVL40
 4041 033e 32000000 		.4byte	.LVL44
 4042 0342 0100     		.2byte	0x1
 4043 0344 53       		.byte	0x53
 4044 0345 00000000 		.4byte	0
 4045 0349 00000000 		.4byte	0
 4046              	.LLST23:
 4047 034d 14000000 		.4byte	.LVL39
 4048 0351 5E000000 		.4byte	.LVL51
 4049 0355 0100     		.2byte	0x1
 4050 0357 54       		.byte	0x54
 4051 0358 5E000000 		.4byte	.LVL51
 4052 035c 64000000 		.4byte	.LFE246
 4053 0360 0400     		.2byte	0x4
 4054 0362 F3       		.byte	0xf3
 4055 0363 01       		.uleb128 0x1
 4056 0364 50       		.byte	0x50
 4057 0365 9F       		.byte	0x9f
 4058 0366 00000000 		.4byte	0
 4059 036a 00000000 		.4byte	0
 4060              	.LLST25:
 4061 036e 1A000000 		.4byte	.LVL40
 4062 0372 45000000 		.4byte	.LVL47-1
 4063 0376 0100     		.2byte	0x1
 4064 0378 51       		.byte	0x51
 4065 0379 00000000 		.4byte	0
 4066 037d 00000000 		.4byte	0
 4067              	.LLST26:
 4068 0381 1C000000 		.4byte	.LVL41
 4069 0385 2C000000 		.4byte	.LVL43
 4070 0389 0100     		.2byte	0x1
 4071 038b 53       		.byte	0x53
 4072 038c 00000000 		.4byte	0
 4073 0390 00000000 		.4byte	0
 4074              	.LLST28:
 4075 0394 36000000 		.4byte	.LVL45
 4076 0398 52000000 		.4byte	.LVL49
 4077 039c 0100     		.2byte	0x1
 4078 039e 54       		.byte	0x54
 4079 039f 00000000 		.4byte	0
 4080 03a3 00000000 		.4byte	0
 4081              	.LLST29:
 4082 03a7 36000000 		.4byte	.LVL45
 4083 03ab 52000000 		.4byte	.LVL49
 4084 03af 0100     		.2byte	0x1
 4085 03b1 55       		.byte	0x55
 4086 03b2 00000000 		.4byte	0
 4087 03b6 00000000 		.4byte	0
 4088              	.LLST30:
 4089 03ba 4A000000 		.4byte	.LVL48
 4090 03be 52000000 		.4byte	.LVL49
 4091 03c2 0200     		.2byte	0x2
 4092 03c4 30       		.byte	0x30
 4093 03c5 9F       		.byte	0x9f
 4094 03c6 56000000 		.4byte	.LVL50
 4095 03ca 64000000 		.4byte	.LFE246
ARM GAS  /tmp/ccLbt1NC.s 			page 73


 4096 03ce 0200     		.2byte	0x2
 4097 03d0 30       		.byte	0x30
 4098 03d1 9F       		.byte	0x9f
 4099 03d2 00000000 		.4byte	0
 4100 03d6 00000000 		.4byte	0
 4101              	.LLST31:
 4102 03da 00000000 		.4byte	.LVL52
 4103 03de 0A000000 		.4byte	.LVL53
 4104 03e2 0100     		.2byte	0x1
 4105 03e4 50       		.byte	0x50
 4106 03e5 0A000000 		.4byte	.LVL53
 4107 03e9 3E000000 		.4byte	.LVL62
 4108 03ed 0100     		.2byte	0x1
 4109 03ef 54       		.byte	0x54
 4110 03f0 3E000000 		.4byte	.LVL62
 4111 03f4 41000000 		.4byte	.LVL63-1
 4112 03f8 0200     		.2byte	0x2
 4113 03fa 70       		.byte	0x70
 4114 03fb 34       		.sleb128 52
 4115 03fc 41000000 		.4byte	.LVL63-1
 4116 0400 42000000 		.4byte	.LVL63
 4117 0404 0400     		.2byte	0x4
 4118 0406 F3       		.byte	0xf3
 4119 0407 01       		.uleb128 0x1
 4120 0408 50       		.byte	0x50
 4121 0409 9F       		.byte	0x9f
 4122 040a 42000000 		.4byte	.LVL63
 4123 040e 48000000 		.4byte	.LVL64
 4124 0412 0100     		.2byte	0x1
 4125 0414 54       		.byte	0x54
 4126 0415 48000000 		.4byte	.LVL64
 4127 0419 50000000 		.4byte	.LFE247
 4128 041d 0400     		.2byte	0x4
 4129 041f F3       		.byte	0xf3
 4130 0420 01       		.uleb128 0x1
 4131 0421 50       		.byte	0x50
 4132 0422 9F       		.byte	0x9f
 4133 0423 00000000 		.4byte	0
 4134 0427 00000000 		.4byte	0
 4135              	.LLST32:
 4136 042b 0A000000 		.4byte	.LVL53
 4137 042f 34000000 		.4byte	.LVL61
 4138 0433 0100     		.2byte	0x1
 4139 0435 50       		.byte	0x50
 4140 0436 42000000 		.4byte	.LVL63
 4141 043a 50000000 		.4byte	.LFE247
 4142 043e 0100     		.2byte	0x1
 4143 0440 50       		.byte	0x50
 4144 0441 00000000 		.4byte	0
 4145 0445 00000000 		.4byte	0
 4146              	.LLST33:
 4147 0449 14000000 		.4byte	.LVL55
 4148 044d 2C000000 		.4byte	.LVL59
 4149 0451 0100     		.2byte	0x1
 4150 0453 53       		.byte	0x53
 4151 0454 00000000 		.4byte	0
 4152 0458 00000000 		.4byte	0
ARM GAS  /tmp/ccLbt1NC.s 			page 74


 4153              	.LLST34:
 4154 045c 0E000000 		.4byte	.LVL54
 4155 0460 3E000000 		.4byte	.LVL62
 4156 0464 0100     		.2byte	0x1
 4157 0466 54       		.byte	0x54
 4158 0467 3E000000 		.4byte	.LVL62
 4159 046b 41000000 		.4byte	.LVL63-1
 4160 046f 0200     		.2byte	0x2
 4161 0471 70       		.byte	0x70
 4162 0472 34       		.sleb128 52
 4163 0473 41000000 		.4byte	.LVL63-1
 4164 0477 42000000 		.4byte	.LVL63
 4165 047b 0400     		.2byte	0x4
 4166 047d F3       		.byte	0xf3
 4167 047e 01       		.uleb128 0x1
 4168 047f 50       		.byte	0x50
 4169 0480 9F       		.byte	0x9f
 4170 0481 42000000 		.4byte	.LVL63
 4171 0485 48000000 		.4byte	.LVL64
 4172 0489 0100     		.2byte	0x1
 4173 048b 54       		.byte	0x54
 4174 048c 48000000 		.4byte	.LVL64
 4175 0490 50000000 		.4byte	.LFE247
 4176 0494 0400     		.2byte	0x4
 4177 0496 F3       		.byte	0xf3
 4178 0497 01       		.uleb128 0x1
 4179 0498 50       		.byte	0x50
 4180 0499 9F       		.byte	0x9f
 4181 049a 00000000 		.4byte	0
 4182 049e 00000000 		.4byte	0
 4183              	.LLST36:
 4184 04a2 14000000 		.4byte	.LVL55
 4185 04a6 41000000 		.4byte	.LVL63-1
 4186 04aa 0100     		.2byte	0x1
 4187 04ac 51       		.byte	0x51
 4188 04ad 00000000 		.4byte	0
 4189 04b1 00000000 		.4byte	0
 4190              	.LLST37:
 4191 04b5 16000000 		.4byte	.LVL56
 4192 04b9 26000000 		.4byte	.LVL58
 4193 04bd 0100     		.2byte	0x1
 4194 04bf 53       		.byte	0x53
 4195 04c0 00000000 		.4byte	0
 4196 04c4 00000000 		.4byte	0
 4197              	.LLST39:
 4198 04c8 30000000 		.4byte	.LVL60
 4199 04cc 3E000000 		.4byte	.LVL62
 4200 04d0 0100     		.2byte	0x1
 4201 04d2 54       		.byte	0x54
 4202 04d3 3E000000 		.4byte	.LVL62
 4203 04d7 41000000 		.4byte	.LVL63-1
 4204 04db 0200     		.2byte	0x2
 4205 04dd 70       		.byte	0x70
 4206 04de 34       		.sleb128 52
 4207 04df 41000000 		.4byte	.LVL63-1
 4208 04e3 42000000 		.4byte	.LVL63
 4209 04e7 0400     		.2byte	0x4
ARM GAS  /tmp/ccLbt1NC.s 			page 75


 4210 04e9 F3       		.byte	0xf3
 4211 04ea 01       		.uleb128 0x1
 4212 04eb 50       		.byte	0x50
 4213 04ec 9F       		.byte	0x9f
 4214 04ed 00000000 		.4byte	0
 4215 04f1 00000000 		.4byte	0
 4216              	.LLST40:
 4217 04f5 30000000 		.4byte	.LVL60
 4218 04f9 3E000000 		.4byte	.LVL62
 4219 04fd 0100     		.2byte	0x1
 4220 04ff 55       		.byte	0x55
 4221 0500 3E000000 		.4byte	.LVL62
 4222 0504 41000000 		.4byte	.LVL63-1
 4223 0508 0100     		.2byte	0x1
 4224 050a 50       		.byte	0x50
 4225 050b 00000000 		.4byte	0
 4226 050f 00000000 		.4byte	0
 4227              	.LLST41:
 4228 0513 08000000 		.4byte	.LVL65
 4229 0517 4E000000 		.4byte	.LVL74
 4230 051b 0100     		.2byte	0x1
 4231 051d 54       		.byte	0x54
 4232 051e 00000000 		.4byte	0
 4233 0522 00000000 		.4byte	0
 4234              	.LLST42:
 4235 0526 14000000 		.4byte	.LVL66
 4236 052a 27000000 		.4byte	.LVL67-1
 4237 052e 0100     		.2byte	0x1
 4238 0530 53       		.byte	0x53
 4239 0531 2C000000 		.4byte	.LVL68
 4240 0535 3A000000 		.4byte	.LVL71
 4241 0539 0100     		.2byte	0x1
 4242 053b 53       		.byte	0x53
 4243 053c 00000000 		.4byte	0
 4244 0540 00000000 		.4byte	0
 4245              	.LLST44:
 4246 0544 14000000 		.4byte	.LVL66
 4247 0548 27000000 		.4byte	.LVL67-1
 4248 054c 0100     		.2byte	0x1
 4249 054e 52       		.byte	0x52
 4250 054f 2E000000 		.4byte	.LVL69
 4251 0553 3E000000 		.4byte	.LVL72
 4252 0557 0100     		.2byte	0x1
 4253 0559 52       		.byte	0x52
 4254 055a 00000000 		.4byte	0
 4255 055e 00000000 		.4byte	0
 4256              	.LLST45:
 4257 0562 14000000 		.4byte	.LVL66
 4258 0566 27000000 		.4byte	.LVL67-1
 4259 056a 0100     		.2byte	0x1
 4260 056c 53       		.byte	0x53
 4261 056d 32000000 		.4byte	.LVL70
 4262 0571 3A000000 		.4byte	.LVL71
 4263 0575 0100     		.2byte	0x1
 4264 0577 53       		.byte	0x53
 4265 0578 00000000 		.4byte	0
 4266 057c 00000000 		.4byte	0
ARM GAS  /tmp/ccLbt1NC.s 			page 76


 4267              		.section	.debug_aranges,"",%progbits
 4268 0000 54000000 		.4byte	0x54
 4269 0004 0200     		.2byte	0x2
 4270 0006 00000000 		.4byte	.Ldebug_info0
 4271 000a 04       		.byte	0x4
 4272 000b 00       		.byte	0
 4273 000c 0000     		.2byte	0
 4274 000e 0000     		.2byte	0
 4275 0010 00000000 		.4byte	.LFB241
 4276 0014 0A000000 		.4byte	.LFE241-.LFB241
 4277 0018 00000000 		.4byte	.LFB243
 4278 001c C4000000 		.4byte	.LFE243-.LFB243
 4279 0020 00000000 		.4byte	.LFB242
 4280 0024 14000000 		.4byte	.LFE242-.LFB242
 4281 0028 00000000 		.4byte	.LFB244
 4282 002c 30000000 		.4byte	.LFE244-.LFB244
 4283 0030 00000000 		.4byte	.LFB245
 4284 0034 20000000 		.4byte	.LFE245-.LFB245
 4285 0038 00000000 		.4byte	.LFB246
 4286 003c 64000000 		.4byte	.LFE246-.LFB246
 4287 0040 00000000 		.4byte	.LFB247
 4288 0044 50000000 		.4byte	.LFE247-.LFB247
 4289 0048 00000000 		.4byte	.LFB248
 4290 004c 54000000 		.4byte	.LFE248-.LFB248
 4291 0050 00000000 		.4byte	0
 4292 0054 00000000 		.4byte	0
 4293              		.section	.debug_ranges,"",%progbits
 4294              	.Ldebug_ranges0:
 4295 0000 0E000000 		.4byte	.LBB105
 4296 0004 44000000 		.4byte	.LBE105
 4297 0008 48000000 		.4byte	.LBB122
 4298 000c B6000000 		.4byte	.LBE122
 4299 0010 00000000 		.4byte	0
 4300 0014 00000000 		.4byte	0
 4301 0018 5C000000 		.4byte	.LBB110
 4302 001c 62000000 		.4byte	.LBE110
 4303 0020 64000000 		.4byte	.LBB113
 4304 0024 68000000 		.4byte	.LBE113
 4305 0028 00000000 		.4byte	0
 4306 002c 00000000 		.4byte	0
 4307 0030 84000000 		.4byte	.LBB116
 4308 0034 8A000000 		.4byte	.LBE116
 4309 0038 8C000000 		.4byte	.LBB119
 4310 003c 90000000 		.4byte	.LBE119
 4311 0040 00000000 		.4byte	0
 4312 0044 00000000 		.4byte	0
 4313 0048 08000000 		.4byte	.LBB136
 4314 004c 0E000000 		.4byte	.LBE136
 4315 0050 16000000 		.4byte	.LBB148
 4316 0054 24000000 		.4byte	.LBE148
 4317 0058 00000000 		.4byte	0
 4318 005c 00000000 		.4byte	0
 4319 0060 0E000000 		.4byte	.LBB139
 4320 0064 14000000 		.4byte	.LBE139
 4321 0068 24000000 		.4byte	.LBB149
 4322 006c 2A000000 		.4byte	.LBE149
 4323 0070 00000000 		.4byte	0
ARM GAS  /tmp/ccLbt1NC.s 			page 77


 4324 0074 00000000 		.4byte	0
 4325 0078 30000000 		.4byte	.LBB163
 4326 007c 32000000 		.4byte	.LBE163
 4327 0080 36000000 		.4byte	.LBB167
 4328 0084 38000000 		.4byte	.LBE167
 4329 0088 3A000000 		.4byte	.LBB168
 4330 008c 3C000000 		.4byte	.LBE168
 4331 0090 00000000 		.4byte	0
 4332 0094 00000000 		.4byte	0
 4333 0098 4A000000 		.4byte	.LBB169
 4334 009c 52000000 		.4byte	.LBE169
 4335 00a0 56000000 		.4byte	.LBB178
 4336 00a4 64000000 		.4byte	.LBE178
 4337 00a8 00000000 		.4byte	0
 4338 00ac 00000000 		.4byte	0
 4339 00b0 12000000 		.4byte	.LBB183
 4340 00b4 3C000000 		.4byte	.LBE183
 4341 00b8 3E000000 		.4byte	.LBB194
 4342 00bc 42000000 		.4byte	.LBE194
 4343 00c0 00000000 		.4byte	0
 4344 00c4 00000000 		.4byte	0
 4345 00c8 2A000000 		.4byte	.LBB188
 4346 00cc 2C000000 		.4byte	.LBE188
 4347 00d0 30000000 		.4byte	.LBB192
 4348 00d4 32000000 		.4byte	.LBE192
 4349 00d8 34000000 		.4byte	.LBB193
 4350 00dc 36000000 		.4byte	.LBE193
 4351 00e0 00000000 		.4byte	0
 4352 00e4 00000000 		.4byte	0
 4353 00e8 04000000 		.4byte	.LBB195
 4354 00ec 06000000 		.4byte	.LBE195
 4355 00f0 08000000 		.4byte	.LBB202
 4356 00f4 0C000000 		.4byte	.LBE202
 4357 00f8 00000000 		.4byte	0
 4358 00fc 00000000 		.4byte	0
 4359 0100 10000000 		.4byte	.LBB203
 4360 0104 28000000 		.4byte	.LBE203
 4361 0108 2C000000 		.4byte	.LBB215
 4362 010c 38000000 		.4byte	.LBE215
 4363 0110 00000000 		.4byte	0
 4364 0114 00000000 		.4byte	0
 4365 0118 14000000 		.4byte	.LBB205
 4366 011c 16000000 		.4byte	.LBE205
 4367 0120 18000000 		.4byte	.LBB209
 4368 0124 1A000000 		.4byte	.LBE209
 4369 0128 1C000000 		.4byte	.LBB210
 4370 012c 1E000000 		.4byte	.LBE210
 4371 0130 00000000 		.4byte	0
 4372 0134 00000000 		.4byte	0
 4373 0138 00000000 		.4byte	.LFB241
 4374 013c 0A000000 		.4byte	.LFE241
 4375 0140 00000000 		.4byte	.LFB243
 4376 0144 C4000000 		.4byte	.LFE243
 4377 0148 00000000 		.4byte	.LFB242
 4378 014c 14000000 		.4byte	.LFE242
 4379 0150 00000000 		.4byte	.LFB244
 4380 0154 30000000 		.4byte	.LFE244
ARM GAS  /tmp/ccLbt1NC.s 			page 78


 4381 0158 00000000 		.4byte	.LFB245
 4382 015c 20000000 		.4byte	.LFE245
 4383 0160 00000000 		.4byte	.LFB246
 4384 0164 64000000 		.4byte	.LFE246
 4385 0168 00000000 		.4byte	.LFB247
 4386 016c 50000000 		.4byte	.LFE247
 4387 0170 00000000 		.4byte	.LFB248
 4388 0174 54000000 		.4byte	.LFE248
 4389 0178 00000000 		.4byte	0
 4390 017c 00000000 		.4byte	0
 4391              		.section	.debug_line,"",%progbits
 4392              	.Ldebug_line0:
 4393 0000 BE040000 		.section	.debug_str,"MS",%progbits,1
 4393      02004102 
 4393      00000201 
 4393      FB0E0D00 
 4393      01010101 
 4394              	.LASF49:
 4395 0000 72656164 		.ascii	"ready_list_t\000"
 4395      795F6C69 
 4395      73745F74 
 4395      00
 4396              	.LASF87:
 4397 000d 77747472 		.ascii	"wttrp\000"
 4397      7000
 4398              	.LASF84:
 4399 0013 7264796D 		.ascii	"rdymsg\000"
 4399      736700
 4400              	.LASF16:
 4401 001a 75696E74 		.ascii	"uint64_t\000"
 4401      36345F74 
 4401      00
 4402              	.LASF5:
 4403 0023 5F5F7569 		.ascii	"__uint8_t\000"
 4403      6E74385F 
 4403      7400
 4404              	.LASF81:
 4405 002d 706F7274 		.ascii	"port_intctx\000"
 4405      5F696E74 
 4405      63747800 
 4406              	.LASF68:
 4407 0039 73797374 		.ascii	"system_debug_t\000"
 4407      656D5F64 
 4407      65627567 
 4407      5F7400
 4408              	.LASF106:
 4409 0048 71756575 		.ascii	"queue_init\000"
 4409      655F696E 
 4409      697400
 4410              	.LASF101:
 4411 0053 706F7274 		.ascii	"port_lock\000"
 4411      5F6C6F63 
 4411      6B00
 4412              	.LASF12:
 4413 005d 6C6F6E67 		.ascii	"long long unsigned int\000"
 4413      206C6F6E 
 4413      6720756E 
ARM GAS  /tmp/ccLbt1NC.s 			page 79


 4413      7369676E 
 4413      65642069 
 4414              	.LASF85:
 4415 0074 65786974 		.ascii	"exitcode\000"
 4415      636F6465 
 4415      00
 4416              	.LASF75:
 4417 007d 6D61696E 		.ascii	"mainthread\000"
 4417      74687265 
 4417      616400
 4418              	.LASF88:
 4419 0088 73656E74 		.ascii	"sentmsg\000"
 4419      6D736700 
 4420              	.LASF65:
 4421 0090 76697274 		.ascii	"virtual_timers_list_t\000"
 4421      75616C5F 
 4421      74696D65 
 4421      72735F6C 
 4421      6973745F 
 4422              	.LASF123:
 4423 00a6 49544D5F 		.ascii	"ITM_RxBuffer\000"
 4423      52784275 
 4423      66666572 
 4423      00
 4424              	.LASF48:
 4425 00b3 63685F74 		.ascii	"ch_threads_queue\000"
 4425      68726561 
 4425      64735F71 
 4425      75657565 
 4425      00
 4426              	.LASF29:
 4427 00c4 705F7072 		.ascii	"p_prio\000"
 4427      696F00
 4428              	.LASF119:
 4429 00cb 63684D74 		.ascii	"chMtxUnlock\000"
 4429      78556E6C 
 4429      6F636B00 
 4430              	.LASF1:
 4431 00d7 7369676E 		.ascii	"signed char\000"
 4431      65642063 
 4431      68617200 
 4432              	.LASF42:
 4433 00e3 705F6D70 		.ascii	"p_mpool\000"
 4433      6F6F6C00 
 4434              	.LASF96:
 4435 00eb 6D5F7175 		.ascii	"m_queue\000"
 4435      65756500 
 4436              	.LASF74:
 4437 00f3 76746C69 		.ascii	"vtlist\000"
 4437      737400
 4438              	.LASF102:
 4439 00fa 706F7274 		.ascii	"port_unlock\000"
 4439      5F756E6C 
 4439      6F636B00 
 4440              	.LASF72:
 4441 0106 63685F73 		.ascii	"ch_system\000"
 4441      79737465 
ARM GAS  /tmp/ccLbt1NC.s 			page 80


 4441      6D00
 4442              	.LASF7:
 4443 0110 6C6F6E67 		.ascii	"long int\000"
 4443      20696E74 
 4443      00
 4444              	.LASF108:
 4445 0119 71756575 		.ascii	"queue_dequeue\000"
 4445      655F6465 
 4445      71756575 
 4445      6500
 4446              	.LASF19:
 4447 0127 74737461 		.ascii	"tstate_t\000"
 4447      74655F74 
 4447      00
 4448              	.LASF107:
 4449 0130 71756575 		.ascii	"queue_notempty\000"
 4449      655F6E6F 
 4449      74656D70 
 4449      747900
 4450              	.LASF10:
 4451 013f 6C6F6E67 		.ascii	"long long int\000"
 4451      206C6F6E 
 4451      6720696E 
 4451      7400
 4452              	.LASF117:
 4453 014d 63684D74 		.ascii	"chMtxLockS\000"
 4453      784C6F63 
 4453      6B5300
 4454              	.LASF113:
 4455 0158 63684D74 		.ascii	"chMtxTryLockS\000"
 4455      78547279 
 4455      4C6F636B 
 4455      5300
 4456              	.LASF31:
 4457 0166 705F6E65 		.ascii	"p_newer\000"
 4457      77657200 
 4458              	.LASF93:
 4459 016e 735F7175 		.ascii	"s_queue\000"
 4459      65756500 
 4460              	.LASF130:
 4461 0176 63685363 		.ascii	"chSchRescheduleS\000"
 4461      68526573 
 4461      63686564 
 4461      756C6553 
 4461      00
 4462              	.LASF54:
 4463 0187 725F6E65 		.ascii	"r_newer\000"
 4463      77657200 
 4464              	.LASF78:
 4465 018f 72656761 		.ascii	"regarm_t\000"
 4465      726D5F74 
 4465      00
 4466              	.LASF61:
 4467 0198 76745F70 		.ascii	"vt_prev\000"
 4467      72657600 
 4468              	.LASF100:
 4469 01a0 6D757465 		.ascii	"mutex_t\000"
ARM GAS  /tmp/ccLbt1NC.s 			page 81


 4469      785F7400 
 4470              	.LASF103:
 4471 01a8 76616C75 		.ascii	"value\000"
 4471      6500
 4472              	.LASF76:
 4473 01ae 69646C65 		.ascii	"idle_thread_wa\000"
 4473      5F746872 
 4473      6561645F 
 4473      776100
 4474              	.LASF24:
 4475 01bd 636E745F 		.ascii	"cnt_t\000"
 4475      7400
 4476              	.LASF121:
 4477 01c3 63684D74 		.ascii	"chMtxUnlockS\000"
 4477      78556E6C 
 4477      6F636B53 
 4477      00
 4478              	.LASF0:
 4479 01d0 756E7369 		.ascii	"unsigned int\000"
 4479      676E6564 
 4479      20696E74 
 4479      00
 4480              	.LASF60:
 4481 01dd 76745F6E 		.ascii	"vt_next\000"
 4481      65787400 
 4482              	.LASF89:
 4483 01e5 77747365 		.ascii	"wtsemp\000"
 4483      6D7000
 4484              	.LASF62:
 4485 01ec 76745F64 		.ascii	"vt_delta\000"
 4485      656C7461 
 4485      00
 4486              	.LASF38:
 4487 01f5 705F6D73 		.ascii	"p_msgqueue\000"
 4487      67717565 
 4487      756500
 4488              	.LASF94:
 4489 0200 735F636E 		.ascii	"s_cnt\000"
 4489      7400
 4490              	.LASF4:
 4491 0206 73686F72 		.ascii	"short unsigned int\000"
 4491      7420756E 
 4491      7369676E 
 4491      65642069 
 4491      6E7400
 4492              	.LASF45:
 4493 0219 63685F74 		.ascii	"ch_thread\000"
 4493      68726561 
 4493      6400
 4494              	.LASF22:
 4495 0223 6D73675F 		.ascii	"msg_t\000"
 4495      7400
 4496              	.LASF71:
 4497 0229 63685F73 		.ascii	"ch_system_t\000"
 4497      79737465 
 4497      6D5F7400 
 4498              	.LASF122:
ARM GAS  /tmp/ccLbt1NC.s 			page 82


 4499 0235 63684D74 		.ascii	"chMtxUnlockAll\000"
 4499      78556E6C 
 4499      6F636B41 
 4499      6C6C00
 4500              	.LASF120:
 4501 0244 6E657770 		.ascii	"newprio\000"
 4501      72696F00 
 4502              	.LASF18:
 4503 024c 746D6F64 		.ascii	"tmode_t\000"
 4503      655F7400 
 4504              	.LASF50:
 4505 0254 63685F72 		.ascii	"ch_ready_list\000"
 4505      65616479 
 4505      5F6C6973 
 4505      7400
 4506              	.LASF23:
 4507 0262 6576656E 		.ascii	"eventmask_t\000"
 4507      746D6173 
 4507      6B5F7400 
 4508              	.LASF128:
 4509 026e 63684D74 		.ascii	"chMtxTryLock\000"
 4509      78547279 
 4509      4C6F636B 
 4509      00
 4510              	.LASF6:
 4511 027b 5F5F696E 		.ascii	"__int32_t\000"
 4511      7433325F 
 4511      7400
 4512              	.LASF126:
 4513 0285 2E2E2F43 		.ascii	"../ChibiOS/os/rt/src/chmtx.c\000"
 4513      68696269 
 4513      4F532F6F 
 4513      732F7274 
 4513      2F737263 
 4514              	.LASF79:
 4515 02a2 73746B61 		.ascii	"stkalign_t\000"
 4515      6C69676E 
 4515      5F7400
 4516              	.LASF37:
 4517 02ad 705F7761 		.ascii	"p_waiting\000"
 4517      6974696E 
 4517      6700
 4518              	.LASF77:
 4519 02b7 73697A65 		.ascii	"sizetype\000"
 4519      74797065 
 4519      00
 4520              	.LASF43:
 4521 02c0 74687265 		.ascii	"thread_reference_t\000"
 4521      61645F72 
 4521      65666572 
 4521      656E6365 
 4521      5F7400
 4522              	.LASF66:
 4523 02d3 63685F76 		.ascii	"ch_virtual_timers_list\000"
 4523      69727475 
 4523      616C5F74 
 4523      696D6572 
ARM GAS  /tmp/ccLbt1NC.s 			page 83


 4523      735F6C69 
 4524              	.LASF105:
 4525 02ea 5F5F7365 		.ascii	"__set_BASEPRI\000"
 4525      745F4241 
 4525      53455052 
 4525      4900
 4526              	.LASF127:
 4527 02f8 2F752F63 		.ascii	"/u/cojthack/summerResearch2016/milestone2\000"
 4527      6F6A7468 
 4527      61636B2F 
 4527      73756D6D 
 4527      65725265 
 4528              	.LASF67:
 4529 0322 76745F6C 		.ascii	"vt_lasttime\000"
 4529      61737474 
 4529      696D6500 
 4530              	.LASF118:
 4531 032e 63684D74 		.ascii	"chMtxLock\000"
 4531      784C6F63 
 4531      6B00
 4532              	.LASF32:
 4533 0338 705F6F6C 		.ascii	"p_older\000"
 4533      64657200 
 4534              	.LASF53:
 4535 0340 725F6374 		.ascii	"r_ctx\000"
 4535      7800
 4536              	.LASF83:
 4537 0346 746D5F63 		.ascii	"tm_calibration_t\000"
 4537      616C6962 
 4537      72617469 
 4537      6F6E5F74 
 4537      00
 4538              	.LASF98:
 4539 0357 6D5F6E65 		.ascii	"m_next\000"
 4539      787400
 4540              	.LASF56:
 4541 035e 725F6375 		.ascii	"r_current\000"
 4541      7272656E 
 4541      7400
 4542              	.LASF55:
 4543 0368 725F6F6C 		.ascii	"r_older\000"
 4543      64657200 
 4544              	.LASF11:
 4545 0370 5F5F7569 		.ascii	"__uint64_t\000"
 4545      6E743634 
 4545      5F7400
 4546              	.LASF20:
 4547 037b 74726566 		.ascii	"trefs_t\000"
 4547      735F7400 
 4548              	.LASF58:
 4549 0383 76697274 		.ascii	"virtual_timer_t\000"
 4549      75616C5F 
 4549      74696D65 
 4549      725F7400 
 4550              	.LASF28:
 4551 0393 705F7072 		.ascii	"p_prev\000"
 4551      657600
ARM GAS  /tmp/ccLbt1NC.s 			page 84


 4552              	.LASF21:
 4553 039a 74707269 		.ascii	"tprio_t\000"
 4553      6F5F7400 
 4554              	.LASF116:
 4555 03a2 63684D74 		.ascii	"chMtxObjectInit\000"
 4555      784F626A 
 4555      65637449 
 4555      6E697400 
 4556              	.LASF69:
 4557 03b2 63685F73 		.ascii	"ch_system_debug\000"
 4557      79737465 
 4557      6D5F6465 
 4557      62756700 
 4558              	.LASF104:
 4559 03c2 5F426F6F 		.ascii	"_Bool\000"
 4559      6C00
 4560              	.LASF14:
 4561 03c8 696E7433 		.ascii	"int32_t\000"
 4561      325F7400 
 4562              	.LASF2:
 4563 03d0 756E7369 		.ascii	"unsigned char\000"
 4563      676E6564 
 4563      20636861 
 4563      7200
 4564              	.LASF34:
 4565 03de 705F7374 		.ascii	"p_state\000"
 4565      61746500 
 4566              	.LASF40:
 4567 03e6 705F6D74 		.ascii	"p_mtxlist\000"
 4567      786C6973 
 4567      7400
 4568              	.LASF3:
 4569 03f0 73686F72 		.ascii	"short int\000"
 4569      7420696E 
 4569      7400
 4570              	.LASF52:
 4571 03fa 725F7072 		.ascii	"r_prio\000"
 4571      696F00
 4572              	.LASF91:
 4573 0401 65776D61 		.ascii	"ewmask\000"
 4573      736B00
 4574              	.LASF27:
 4575 0408 705F6E65 		.ascii	"p_next\000"
 4575      787400
 4576              	.LASF35:
 4577 040f 705F666C 		.ascii	"p_flags\000"
 4577      61677300 
 4578              	.LASF112:
 4579 0417 5F5F6675 		.ascii	"__func__\000"
 4579      6E635F5F 
 4579      00
 4580              	.LASF110:
 4581 0420 63685379 		.ascii	"chSysLock\000"
 4581      734C6F63 
 4581      6B00
 4582              	.LASF59:
 4583 042a 63685F76 		.ascii	"ch_virtual_timer\000"
ARM GAS  /tmp/ccLbt1NC.s 			page 85


 4583      69727475 
 4583      616C5F74 
 4583      696D6572 
 4583      00
 4584              	.LASF92:
 4585 043b 63685F73 		.ascii	"ch_semaphore\000"
 4585      656D6170 
 4585      686F7265 
 4585      00
 4586              	.LASF129:
 4587 0448 63685363 		.ascii	"chSchGoSleepS\000"
 4587      68476F53 
 4587      6C656570 
 4587      5300
 4588              	.LASF39:
 4589 0456 705F6570 		.ascii	"p_epending\000"
 4589      656E6469 
 4589      6E6700
 4590              	.LASF15:
 4591 0461 75696E74 		.ascii	"uint32_t\000"
 4591      33325F74 
 4591      00
 4592              	.LASF90:
 4593 046a 77746D74 		.ascii	"wtmtxp\000"
 4593      787000
 4594              	.LASF51:
 4595 0471 725F7175 		.ascii	"r_queue\000"
 4595      65756500 
 4596              	.LASF124:
 4597 0479 63685363 		.ascii	"chSchReadyI\000"
 4597      68526561 
 4597      64794900 
 4598              	.LASF46:
 4599 0485 63685F74 		.ascii	"ch_threads_list\000"
 4599      68726561 
 4599      64735F6C 
 4599      69737400 
 4600              	.LASF9:
 4601 0495 6C6F6E67 		.ascii	"long unsigned int\000"
 4601      20756E73 
 4601      69676E65 
 4601      6420696E 
 4601      7400
 4602              	.LASF99:
 4603 04a7 63686172 		.ascii	"char\000"
 4603      00
 4604              	.LASF26:
 4605 04ac 74687265 		.ascii	"thread_t\000"
 4605      61645F74 
 4605      00
 4606              	.LASF125:
 4607 04b5 474E5520 		.ascii	"GNU C 4.8.4 20140526 (release) [ARM/embedded-4_8-br"
 4607      4320342E 
 4607      382E3420 
 4607      32303134 
 4607      30353236 
 4608 04e8 616E6368 		.ascii	"anch revision 211358] -mcpu=cortex-m4 -mno-thumb-in"
ARM GAS  /tmp/ccLbt1NC.s 			page 86


 4608      20726576 
 4608      6973696F 
 4608      6E203231 
 4608      31333538 
 4609 051b 74657277 		.ascii	"terwork -mthumb -ggdb -O2 -fomit-frame-pointer -fal"
 4609      6F726B20 
 4609      2D6D7468 
 4609      756D6220 
 4609      2D676764 
 4610 054e 69676E2D 		.ascii	"ign-functions=16 -ffunction-sections -fdata-section"
 4610      66756E63 
 4610      74696F6E 
 4610      733D3136 
 4610      202D6666 
 4611 0581 73202D66 		.ascii	"s -fno-common\000"
 4611      6E6F2D63 
 4611      6F6D6D6F 
 4611      6E00
 4612              	.LASF115:
 4613 058f 71756575 		.ascii	"queue_fifo_remove\000"
 4613      655F6669 
 4613      666F5F72 
 4613      656D6F76 
 4613      6500
 4614              	.LASF25:
 4615 05a1 73797374 		.ascii	"systime_t\000"
 4615      696D655F 
 4615      7400
 4616              	.LASF41:
 4617 05ab 705F7265 		.ascii	"p_realprio\000"
 4617      616C7072 
 4617      696F00
 4618              	.LASF57:
 4619 05b6 76746675 		.ascii	"vtfunc_t\000"
 4619      6E635F74 
 4619      00
 4620              	.LASF8:
 4621 05bf 5F5F7569 		.ascii	"__uint32_t\000"
 4621      6E743332 
 4621      5F7400
 4622              	.LASF114:
 4623 05ca 63684D74 		.ascii	"chMtxQueueNotEmptyS\000"
 4623      78517565 
 4623      75654E6F 
 4623      74456D70 
 4623      74795300 
 4624              	.LASF70:
 4625 05de 70616E69 		.ascii	"panic_msg\000"
 4625      635F6D73 
 4625      6700
 4626              	.LASF82:
 4627 05e8 6F666673 		.ascii	"offset\000"
 4627      657400
 4628              	.LASF80:
 4629 05ef 636F6E74 		.ascii	"context\000"
 4629      65787400 
 4630              	.LASF17:
ARM GAS  /tmp/ccLbt1NC.s 			page 87


 4631 05f7 7274636E 		.ascii	"rtcnt_t\000"
 4631      745F7400 
 4632              	.LASF64:
 4633 05ff 76745F70 		.ascii	"vt_par\000"
 4633      617200
 4634              	.LASF47:
 4635 0606 74687265 		.ascii	"threads_queue_t\000"
 4635      6164735F 
 4635      71756575 
 4635      655F7400 
 4636              	.LASF95:
 4637 0616 63685F6D 		.ascii	"ch_mutex\000"
 4637      75746578 
 4637      00
 4638              	.LASF36:
 4639 061f 705F7265 		.ascii	"p_refs\000"
 4639      667300
 4640              	.LASF73:
 4641 0626 726C6973 		.ascii	"rlist\000"
 4641      7400
 4642              	.LASF13:
 4643 062c 75696E74 		.ascii	"uint8_t\000"
 4643      385F7400 
 4644              	.LASF86:
 4645 0634 77746F62 		.ascii	"wtobjp\000"
 4645      6A7000
 4646              	.LASF33:
 4647 063b 705F6E61 		.ascii	"p_name\000"
 4647      6D6500
 4648              	.LASF44:
 4649 0642 74687265 		.ascii	"threads_list_t\000"
 4649      6164735F 
 4649      6C697374 
 4649      5F7400
 4650              	.LASF111:
 4651 0651 63685379 		.ascii	"chSysUnlock\000"
 4651      73556E6C 
 4651      6F636B00 
 4652              	.LASF109:
 4653 065d 71756575 		.ascii	"queue_prio_insert\000"
 4653      655F7072 
 4653      696F5F69 
 4653      6E736572 
 4653      7400
 4654              	.LASF97:
 4655 066f 6D5F6F77 		.ascii	"m_owner\000"
 4655      6E657200 
 4656              	.LASF30:
 4657 0677 705F6374 		.ascii	"p_ctx\000"
 4657      7800
 4658              	.LASF63:
 4659 067d 76745F66 		.ascii	"vt_func\000"
 4659      756E6300 
 4660              		.ident	"GCC: (GNU Tools for ARM Embedded Processors) 4.8.4 20140526 (release) [ARM/embedded-4_8-br
ARM GAS  /tmp/ccLbt1NC.s 			page 88


DEFINED SYMBOLS
                            *ABS*:00000000 chmtx.c
     /tmp/ccLbt1NC.s:19     .text.chMtxObjectInit:00000000 $t
     /tmp/ccLbt1NC.s:25     .text.chMtxObjectInit:00000000 chMtxObjectInit
     /tmp/ccLbt1NC.s:52     .text.chMtxLockS:00000000 $t
     /tmp/ccLbt1NC.s:58     .text.chMtxLockS:00000000 chMtxLockS
     /tmp/ccLbt1NC.s:287    .text.chMtxLockS:000000c0 $d
     /tmp/ccLbt1NC.s:292    .text.chMtxLock:00000000 $t
     /tmp/ccLbt1NC.s:298    .text.chMtxLock:00000000 chMtxLock
     /tmp/ccLbt1NC.s:348    .text.chMtxTryLock:00000000 $t
     /tmp/ccLbt1NC.s:354    .text.chMtxTryLock:00000000 chMtxTryLock
     /tmp/ccLbt1NC.s:449    .text.chMtxTryLock:0000002c $d
     /tmp/ccLbt1NC.s:454    .text.chMtxTryLockS:00000000 $t
     /tmp/ccLbt1NC.s:460    .text.chMtxTryLockS:00000000 chMtxTryLockS
     /tmp/ccLbt1NC.s:498    .text.chMtxTryLockS:0000001c $d
     /tmp/ccLbt1NC.s:503    .text.chMtxUnlock:00000000 $t
     /tmp/ccLbt1NC.s:509    .text.chMtxUnlock:00000000 chMtxUnlock
     /tmp/ccLbt1NC.s:674    .text.chMtxUnlock:00000060 $d
     /tmp/ccLbt1NC.s:684    .text.chMtxUnlockS:00000000 $t
     /tmp/ccLbt1NC.s:690    .text.chMtxUnlockS:00000000 chMtxUnlockS
     /tmp/ccLbt1NC.s:815    .text.chMtxUnlockS:0000004c $d
     /tmp/ccLbt1NC.s:820    .text.chMtxUnlockAll:00000000 $t
     /tmp/ccLbt1NC.s:826    .text.chMtxUnlockAll:00000000 chMtxUnlockAll
     /tmp/ccLbt1NC.s:967    .text.chMtxUnlockAll:00000050 $d
                     .debug_frame:00000010 $d
     /tmp/ccLbt1NC.s:291    .text.chMtxLockS:000000c4 $t
     /tmp/ccLbt1NC.s:683    .text.chMtxUnlock:00000064 $t
     /tmp/ccLbt1NC.s:976    .text.chMtxUnlockAll:00000054 $t

UNDEFINED SYMBOLS
chSchGoSleepS
chSchReadyI
ch
chSchRescheduleS
