ARM GAS  /tmp/ccxGZROp.s 			page 1


   1              		.syntax unified
   2              		.cpu cortex-m4
   3              		.fpu softvfp
   4              		.eabi_attribute 20, 1
   5              		.eabi_attribute 21, 1
   6              		.eabi_attribute 23, 3
   7              		.eabi_attribute 24, 1
   8              		.eabi_attribute 25, 1
   9              		.eabi_attribute 26, 1
  10              		.eabi_attribute 30, 2
  11              		.eabi_attribute 34, 1
  12              		.eabi_attribute 18, 4
  13              		.thumb
  14              		.file	"chsem.c"
  15              		.text
  16              	.Ltext0:
  17              		.cfi_sections	.debug_frame
  18              		.section	.text.chSemObjectInit,"ax",%progbits
  19              		.align	2
  20              		.p2align 4,,15
  21              		.global	chSemObjectInit
  22              		.thumb
  23              		.thumb_func
  24              		.type	chSemObjectInit, %function
  25              	chSemObjectInit:
  26              	.LFB241:
  27              		.file 1 "../ChibiOS/os/rt/src/chsem.c"
  28              		.loc 1 97 0
  29              		.cfi_startproc
  30              		@ args = 0, pretend = 0, frame = 0
  31              		@ frame_needed = 0, uses_anonymous_args = 0
  32              		@ link register save eliminated.
  33              	.LVL0:
  34              	.LBB84:
  35              	.LBB85:
  36              		.file 2 "../ChibiOS/os/rt/include/chschd.h"
  37              		.loc 2 606 0
  38 0000 0060     		str	r0, [r0]
  39              		.loc 2 607 0
  40 0002 4060     		str	r0, [r0, #4]
  41              	.LBE85:
  42              	.LBE84:
  43              		.loc 1 102 0
  44 0004 8160     		str	r1, [r0, #8]
  45 0006 7047     		bx	lr
  46              		.cfi_endproc
  47              	.LFE241:
  48              		.size	chSemObjectInit, .-chSemObjectInit
  49 0008 AFF30080 		.section	.text.chSemResetI,"ax",%progbits
  49      AFF30080 
  50              		.align	2
  51              		.p2align 4,,15
  52              		.global	chSemResetI
  53              		.thumb
  54              		.thumb_func
  55              		.type	chSemResetI, %function
  56              	chSemResetI:
ARM GAS  /tmp/ccxGZROp.s 			page 2


  57              	.LFB243:
  58              		.loc 1 147 0
  59              		.cfi_startproc
  60              		@ args = 0, pretend = 0, frame = 0
  61              		@ frame_needed = 0, uses_anonymous_args = 0
  62              	.LVL1:
  63 0000 70B5     		push	{r4, r5, r6, lr}
  64              		.cfi_def_cfa_offset 16
  65              		.cfi_offset 4, -16
  66              		.cfi_offset 5, -12
  67              		.cfi_offset 6, -8
  68              		.cfi_offset 14, -4
  69              		.loc 1 156 0
  70 0002 8568     		ldr	r5, [r0, #8]
  71              	.LVL2:
  72              		.loc 1 157 0
  73 0004 8160     		str	r1, [r0, #8]
  74              		.loc 1 158 0
  75 0006 0135     		adds	r5, r5, #1
  76              	.LVL3:
  77 0008 002D     		cmp	r5, #0
  78              		.loc 1 147 0
  79 000a 0446     		mov	r4, r0
  80              		.loc 1 158 0
  81 000c 0BDC     		bgt	.L2
  82              		.loc 1 159 0
  83 000e 6FF00106 		mvn	r6, #1
  84              	.LVL4:
  85              	.L5:
  86              	.LBB86:
  87              	.LBB87:
  88              		.loc 2 683 0
  89 0012 6068     		ldr	r0, [r4, #4]
  90              	.LVL5:
  91              		.loc 2 685 0
  92 0014 4368     		ldr	r3, [r0, #4]
  93 0016 6360     		str	r3, [r4, #4]
  94              		.loc 2 686 0
  95 0018 1C60     		str	r4, [r3]
  96              	.LBE87:
  97              	.LBE86:
  98              		.loc 1 159 0
  99 001a FFF7FEFF 		bl	chSchReadyI
 100              	.LVL6:
 101              		.loc 1 158 0
 102 001e 0135     		adds	r5, r5, #1
 103              	.LVL7:
 104 0020 012D     		cmp	r5, #1
 105              		.loc 1 159 0
 106 0022 0662     		str	r6, [r0, #32]
 107              	.LVL8:
 108              		.loc 1 158 0
 109 0024 F5D1     		bne	.L5
 110              	.LVL9:
 111              	.L2:
 112 0026 70BD     		pop	{r4, r5, r6, pc}
 113              		.cfi_endproc
ARM GAS  /tmp/ccxGZROp.s 			page 3


 114              	.LFE243:
 115              		.size	chSemResetI, .-chSemResetI
 116 0028 AFF30080 		.section	.text.chSemReset,"ax",%progbits
 116      AFF30080 
 117              		.align	2
 118              		.p2align 4,,15
 119              		.global	chSemReset
 120              		.thumb
 121              		.thumb_func
 122              		.type	chSemReset, %function
 123              	chSemReset:
 124              	.LFB242:
 125              		.loc 1 120 0
 126              		.cfi_startproc
 127              		@ args = 0, pretend = 0, frame = 0
 128              		@ frame_needed = 0, uses_anonymous_args = 0
 129              	.LVL10:
 130 0000 08B5     		push	{r3, lr}
 131              		.cfi_def_cfa_offset 8
 132              		.cfi_offset 3, -8
 133              		.cfi_offset 14, -4
 134              	.LBB88:
 135              	.LBB89:
 136              	.LBB90:
 137              	.LBB91:
 138              		.file 3 "../ChibiOS/os/ext/CMSIS/include/core_cmFunc.h"
 139              		.loc 3 548 0
 140 0002 2023     		movs	r3, #32
 141              	@ 548 "../ChibiOS/os/ext/CMSIS/include/core_cmFunc.h" 1
 142 0004 83F31188 		MSR basepri, r3
 143              	@ 0 "" 2
 144              		.thumb
 145              	.LBE91:
 146              	.LBE90:
 147              	.LBE89:
 148              	.LBE88:
 149              		.loc 1 123 0
 150 0008 FFF7FEFF 		bl	chSemResetI
 151              	.LVL11:
 152              		.loc 1 124 0
 153 000c FFF7FEFF 		bl	chSchRescheduleS
 154              	.LVL12:
 155              	.LBB92:
 156              	.LBB93:
 157              	.LBB94:
 158              	.LBB95:
 159              	.LBB96:
 160              		.loc 3 548 0
 161 0010 0023     		movs	r3, #0
 162              	@ 548 "../ChibiOS/os/ext/CMSIS/include/core_cmFunc.h" 1
 163 0012 83F31188 		MSR basepri, r3
 164              	@ 0 "" 2
 165              		.thumb
 166 0016 08BD     		pop	{r3, pc}
 167              	.LBE96:
 168              	.LBE95:
 169              	.LBE94:
ARM GAS  /tmp/ccxGZROp.s 			page 4


 170              	.LBE93:
 171              	.LBE92:
 172              		.cfi_endproc
 173              	.LFE242:
 174              		.size	chSemReset, .-chSemReset
 175 0018 AFF30080 		.section	.text.chSemWaitS,"ax",%progbits
 175      AFF30080 
 176              		.align	2
 177              		.p2align 4,,15
 178              		.global	chSemWaitS
 179              		.thumb
 180              		.thumb_func
 181              		.type	chSemWaitS, %function
 182              	chSemWaitS:
 183              	.LFB245:
 184              		.loc 1 197 0
 185              		.cfi_startproc
 186              		@ args = 0, pretend = 0, frame = 0
 187              		@ frame_needed = 0, uses_anonymous_args = 0
 188              	.LVL13:
 189              		.loc 1 205 0
 190 0000 8268     		ldr	r2, [r0, #8]
 191 0002 013A     		subs	r2, r2, #1
 192 0004 002A     		cmp	r2, #0
 193              		.loc 1 197 0
 194 0006 10B5     		push	{r4, lr}
 195              		.cfi_def_cfa_offset 8
 196              		.cfi_offset 4, -8
 197              		.cfi_offset 14, -4
 198              		.loc 1 197 0
 199 0008 0346     		mov	r3, r0
 200              		.loc 1 205 0
 201 000a 8260     		str	r2, [r0, #8]
 202 000c 01DB     		blt	.L14
 203              		.loc 1 213 0
 204 000e 0020     		movs	r0, #0
 205              	.LVL14:
 206              		.loc 1 214 0
 207 0010 10BD     		pop	{r4, pc}
 208              	.LVL15:
 209              	.L14:
 210              		.loc 1 206 0
 211 0012 074C     		ldr	r4, .L15
 212 0014 A269     		ldr	r2, [r4, #24]
 213 0016 1062     		str	r0, [r2, #32]
 214              	.LVL16:
 215              	.LBB97:
 216              	.LBB98:
 217              		.loc 2 668 0
 218 0018 4168     		ldr	r1, [r0, #4]
 219 001a 5160     		str	r1, [r2, #4]
 220              		.loc 2 667 0
 221 001c 1060     		str	r0, [r2]
 222              		.loc 2 669 0
 223 001e 0A60     		str	r2, [r1]
 224              	.LBE98:
 225              	.LBE97:
ARM GAS  /tmp/ccxGZROp.s 			page 5


 226              		.loc 1 208 0
 227 0020 0520     		movs	r0, #5
 228              	.LVL17:
 229              	.LBB100:
 230              	.LBB99:
 231              		.loc 2 670 0
 232 0022 5A60     		str	r2, [r3, #4]
 233              	.LVL18:
 234              	.LBE99:
 235              	.LBE100:
 236              		.loc 1 208 0
 237 0024 FFF7FEFF 		bl	chSchGoSleepS
 238              	.LVL19:
 239              		.loc 1 210 0
 240 0028 A369     		ldr	r3, [r4, #24]
 241 002a 186A     		ldr	r0, [r3, #32]
 242 002c 10BD     		pop	{r4, pc}
 243              	.L16:
 244 002e 00BF     		.align	2
 245              	.L15:
 246 0030 00000000 		.word	ch
 247              		.cfi_endproc
 248              	.LFE245:
 249              		.size	chSemWaitS, .-chSemWaitS
 250 0034 AFF30080 		.section	.text.chSemWait,"ax",%progbits
 250      AFF30080 
 250      AFF30080 
 251              		.align	2
 252              		.p2align 4,,15
 253              		.global	chSemWait
 254              		.thumb
 255              		.thumb_func
 256              		.type	chSemWait, %function
 257              	chSemWait:
 258              	.LFB244:
 259              		.loc 1 175 0
 260              		.cfi_startproc
 261              		@ args = 0, pretend = 0, frame = 0
 262              		@ frame_needed = 0, uses_anonymous_args = 0
 263              	.LVL20:
 264 0000 08B5     		push	{r3, lr}
 265              		.cfi_def_cfa_offset 8
 266              		.cfi_offset 3, -8
 267              		.cfi_offset 14, -4
 268              	.LBB101:
 269              	.LBB102:
 270              	.LBB103:
 271              	.LBB104:
 272              		.loc 3 548 0
 273 0002 2023     		movs	r3, #32
 274              	@ 548 "../ChibiOS/os/ext/CMSIS/include/core_cmFunc.h" 1
 275 0004 83F31188 		MSR basepri, r3
 276              	@ 0 "" 2
 277              		.thumb
 278              	.LBE104:
 279              	.LBE103:
 280              	.LBE102:
ARM GAS  /tmp/ccxGZROp.s 			page 6


 281              	.LBE101:
 282              		.loc 1 179 0
 283 0008 FFF7FEFF 		bl	chSemWaitS
 284              	.LVL21:
 285              	.LBB105:
 286              	.LBB106:
 287              	.LBB107:
 288              	.LBB108:
 289              	.LBB109:
 290              		.loc 3 548 0
 291 000c 0023     		movs	r3, #0
 292              	@ 548 "../ChibiOS/os/ext/CMSIS/include/core_cmFunc.h" 1
 293 000e 83F31188 		MSR basepri, r3
 294              	@ 0 "" 2
 295              		.thumb
 296              	.LBE109:
 297              	.LBE108:
 298              	.LBE107:
 299              	.LBE106:
 300              	.LBE105:
 301              		.loc 1 183 0
 302 0012 08BD     		pop	{r3, pc}
 303              		.cfi_endproc
 304              	.LFE244:
 305              		.size	chSemWait, .-chSemWait
 306 0014 AFF30080 		.section	.text.chSemWaitTimeoutS,"ax",%progbits
 306      AFF30080 
 306      AFF30080 
 307              		.align	2
 308              		.p2align 4,,15
 309              		.global	chSemWaitTimeoutS
 310              		.thumb
 311              		.thumb_func
 312              		.type	chSemWaitTimeoutS, %function
 313              	chSemWaitTimeoutS:
 314              	.LFB247:
 315              		.loc 1 264 0
 316              		.cfi_startproc
 317              		@ args = 0, pretend = 0, frame = 0
 318              		@ frame_needed = 0, uses_anonymous_args = 0
 319              		@ link register save eliminated.
 320              	.LVL22:
 321 0000 0346     		mov	r3, r0
 322              		.loc 1 272 0
 323 0002 8068     		ldr	r0, [r0, #8]
 324              	.LVL23:
 325 0004 421E     		subs	r2, r0, #1
 326 0006 002A     		cmp	r2, #0
 327              		.loc 1 264 0
 328 0008 10B4     		push	{r4}
 329              		.cfi_def_cfa_offset 4
 330              		.cfi_offset 4, -4
 331              		.loc 1 272 0
 332 000a 9A60     		str	r2, [r3, #8]
 333 000c 03DB     		blt	.L22
 334              		.loc 1 284 0
 335 000e 0020     		movs	r0, #0
ARM GAS  /tmp/ccxGZROp.s 			page 7


 336              	.L19:
 337              		.loc 1 285 0
 338 0010 5DF8044B 		ldr	r4, [sp], #4
 339 0014 7047     		bx	lr
 340              	.L22:
 341              		.loc 1 273 0
 342 0016 61B1     		cbz	r1, .L23
 343              		.loc 1 278 0
 344 0018 084A     		ldr	r2, .L24
 345 001a 9269     		ldr	r2, [r2, #24]
 346 001c 1362     		str	r3, [r2, #32]
 347              	.LVL24:
 348              	.LBB110:
 349              	.LBB111:
 350              		.loc 2 668 0
 351 001e 5C68     		ldr	r4, [r3, #4]
 352              	.LBE111:
 353              	.LBE110:
 354              		.loc 1 281 0
 355 0020 0520     		movs	r0, #5
 356              	.LBB113:
 357              	.LBB112:
 358              		.loc 2 668 0
 359 0022 82E81800 		stmia	r2, {r3, r4}
 360              		.loc 2 669 0
 361 0026 2260     		str	r2, [r4]
 362              		.loc 2 670 0
 363 0028 5A60     		str	r2, [r3, #4]
 364              	.LVL25:
 365              	.LBE112:
 366              	.LBE113:
 367              		.loc 1 285 0
 368 002a 5DF8044B 		ldr	r4, [sp], #4
 369              		.loc 1 281 0
 370 002e FFF7FEBF 		b	chSchGoSleepTimeoutS
 371              	.LVL26:
 372              	.L23:
 373              		.loc 1 274 0
 374 0032 9860     		str	r0, [r3, #8]
 375              		.loc 1 276 0
 376 0034 4FF0FF30 		mov	r0, #-1
 377 0038 EAE7     		b	.L19
 378              	.L25:
 379 003a 00BF     		.align	2
 380              	.L24:
 381 003c 00000000 		.word	ch
 382              		.cfi_endproc
 383              	.LFE247:
 384              		.size	chSemWaitTimeoutS, .-chSemWaitTimeoutS
 385              		.section	.text.chSemWaitTimeout,"ax",%progbits
 386              		.align	2
 387              		.p2align 4,,15
 388              		.global	chSemWaitTimeout
 389              		.thumb
 390              		.thumb_func
 391              		.type	chSemWaitTimeout, %function
 392              	chSemWaitTimeout:
ARM GAS  /tmp/ccxGZROp.s 			page 8


 393              	.LFB246:
 394              		.loc 1 235 0
 395              		.cfi_startproc
 396              		@ args = 0, pretend = 0, frame = 0
 397              		@ frame_needed = 0, uses_anonymous_args = 0
 398              	.LVL27:
 399 0000 08B5     		push	{r3, lr}
 400              		.cfi_def_cfa_offset 8
 401              		.cfi_offset 3, -8
 402              		.cfi_offset 14, -4
 403              	.LBB114:
 404              	.LBB115:
 405              	.LBB116:
 406              	.LBB117:
 407              		.loc 3 548 0
 408 0002 2023     		movs	r3, #32
 409              	@ 548 "../ChibiOS/os/ext/CMSIS/include/core_cmFunc.h" 1
 410 0004 83F31188 		MSR basepri, r3
 411              	@ 0 "" 2
 412              		.thumb
 413              	.LBE117:
 414              	.LBE116:
 415              	.LBE115:
 416              	.LBE114:
 417              		.loc 1 239 0
 418 0008 FFF7FEFF 		bl	chSemWaitTimeoutS
 419              	.LVL28:
 420              	.LBB118:
 421              	.LBB119:
 422              	.LBB120:
 423              	.LBB121:
 424              	.LBB122:
 425              		.loc 3 548 0
 426 000c 0023     		movs	r3, #0
 427              	@ 548 "../ChibiOS/os/ext/CMSIS/include/core_cmFunc.h" 1
 428 000e 83F31188 		MSR basepri, r3
 429              	@ 0 "" 2
 430              		.thumb
 431              	.LBE122:
 432              	.LBE121:
 433              	.LBE120:
 434              	.LBE119:
 435              	.LBE118:
 436              		.loc 1 243 0
 437 0012 08BD     		pop	{r3, pc}
 438              		.cfi_endproc
 439              	.LFE246:
 440              		.size	chSemWaitTimeout, .-chSemWaitTimeout
 441 0014 AFF30080 		.section	.text.chSemSignal,"ax",%progbits
 441      AFF30080 
 441      AFF30080 
 442              		.align	2
 443              		.p2align 4,,15
 444              		.global	chSemSignal
 445              		.thumb
 446              		.thumb_func
 447              		.type	chSemSignal, %function
ARM GAS  /tmp/ccxGZROp.s 			page 9


 448              	chSemSignal:
 449              	.LFB248:
 450              		.loc 1 294 0
 451              		.cfi_startproc
 452              		@ args = 0, pretend = 0, frame = 0
 453              		@ frame_needed = 0, uses_anonymous_args = 0
 454              	.LVL29:
 455 0000 08B5     		push	{r3, lr}
 456              		.cfi_def_cfa_offset 8
 457              		.cfi_offset 3, -8
 458              		.cfi_offset 14, -4
 459              	.LBB123:
 460              	.LBB124:
 461              	.LBB125:
 462              	.LBB126:
 463              		.loc 3 548 0
 464 0002 2022     		movs	r2, #32
 465              	.LBE126:
 466              	.LBE125:
 467              	.LBE124:
 468              	.LBE123:
 469              		.loc 1 294 0
 470 0004 0346     		mov	r3, r0
 471              	.LBB130:
 472              	.LBB129:
 473              	.LBB128:
 474              	.LBB127:
 475              		.loc 3 548 0
 476              	@ 548 "../ChibiOS/os/ext/CMSIS/include/core_cmFunc.h" 1
 477 0006 82F31188 		MSR basepri, r2
 478              	@ 0 "" 2
 479              		.thumb
 480              	.LBE127:
 481              	.LBE128:
 482              	.LBE129:
 483              	.LBE130:
 484              		.loc 1 302 0
 485 000a 8268     		ldr	r2, [r0, #8]
 486 000c 0132     		adds	r2, r2, #1
 487 000e 002A     		cmp	r2, #0
 488 0010 8260     		str	r2, [r0, #8]
 489 0012 03DD     		ble	.L29
 490              	.LVL30:
 491              	.LBB131:
 492              	.LBB132:
 493              	.LBB133:
 494              	.LBB134:
 495              	.LBB135:
 496              		.loc 3 548 0
 497 0014 0023     		movs	r3, #0
 498              	@ 548 "../ChibiOS/os/ext/CMSIS/include/core_cmFunc.h" 1
 499 0016 83F31188 		MSR basepri, r3
 500              	@ 0 "" 2
 501              		.thumb
 502 001a 08BD     		pop	{r3, pc}
 503              	.LVL31:
 504              	.L29:
ARM GAS  /tmp/ccxGZROp.s 			page 10


 505              	.LBE135:
 506              	.LBE134:
 507              	.LBE133:
 508              	.LBE132:
 509              	.LBE131:
 510              	.LBB140:
 511              	.LBB141:
 512              		.loc 2 674 0
 513 001c 0068     		ldr	r0, [r0]
 514              	.LVL32:
 515              		.loc 2 676 0
 516 001e 0268     		ldr	r2, [r0]
 517 0020 1A60     		str	r2, [r3]
 518              	.LBE141:
 519              	.LBE140:
 520              		.loc 1 303 0
 521 0022 0021     		movs	r1, #0
 522              	.LBB143:
 523              	.LBB142:
 524              		.loc 2 677 0
 525 0024 5360     		str	r3, [r2, #4]
 526              	.LBE142:
 527              	.LBE143:
 528              		.loc 1 303 0
 529 0026 FFF7FEFF 		bl	chSchWakeupS
 530              	.LVL33:
 531              	.LBB144:
 532              	.LBB139:
 533              	.LBB138:
 534              	.LBB137:
 535              	.LBB136:
 536              		.loc 3 548 0
 537 002a 0023     		movs	r3, #0
 538              	@ 548 "../ChibiOS/os/ext/CMSIS/include/core_cmFunc.h" 1
 539 002c 83F31188 		MSR basepri, r3
 540              	@ 0 "" 2
 541              		.thumb
 542 0030 08BD     		pop	{r3, pc}
 543              	.LBE136:
 544              	.LBE137:
 545              	.LBE138:
 546              	.LBE139:
 547              	.LBE144:
 548              		.cfi_endproc
 549              	.LFE248:
 550              		.size	chSemSignal, .-chSemSignal
 551 0032 00BFAFF3 		.section	.text.chSemSignalI,"ax",%progbits
 551      0080AFF3 
 551      0080AFF3 
 551      0080
 552              		.align	2
 553              		.p2align 4,,15
 554              		.global	chSemSignalI
 555              		.thumb
 556              		.thumb_func
 557              		.type	chSemSignalI, %function
 558              	chSemSignalI:
ARM GAS  /tmp/ccxGZROp.s 			page 11


 559              	.LFB249:
 560              		.loc 1 319 0
 561              		.cfi_startproc
 562              		@ args = 0, pretend = 0, frame = 0
 563              		@ frame_needed = 0, uses_anonymous_args = 0
 564              		@ link register save eliminated.
 565              	.LVL34:
 566              		.loc 1 327 0
 567 0000 8368     		ldr	r3, [r0, #8]
 568 0002 0133     		adds	r3, r3, #1
 569 0004 002B     		cmp	r3, #0
 570 0006 8360     		str	r3, [r0, #8]
 571 0008 00DD     		ble	.L32
 572 000a 7047     		bx	lr
 573              	.L32:
 574              	.LVL35:
 575              	.LBB145:
 576              	.LBB146:
 577              	.LBB147:
 578              		.loc 2 674 0
 579 000c 0368     		ldr	r3, [r0]
 580              	.LVL36:
 581              		.loc 2 676 0
 582 000e 1A68     		ldr	r2, [r3]
 583 0010 0260     		str	r2, [r0]
 584              	.LBE147:
 585              	.LBE146:
 586              		.loc 1 331 0
 587 0012 0021     		movs	r1, #0
 588              	.LBB149:
 589              	.LBB148:
 590              		.loc 2 677 0
 591 0014 5060     		str	r0, [r2, #4]
 592              	.LBE148:
 593              	.LBE149:
 594              		.loc 1 332 0
 595 0016 1846     		mov	r0, r3
 596              	.LVL37:
 597              		.loc 1 331 0
 598 0018 1962     		str	r1, [r3, #32]
 599              		.loc 1 332 0
 600 001a FFF7FEBF 		b	chSchReadyI
 601              	.LVL38:
 602              	.LBE145:
 603              		.cfi_endproc
 604              	.LFE249:
 605              		.size	chSemSignalI, .-chSemSignalI
 606 001e 00BF     		.section	.text.chSemAddCounterI,"ax",%progbits
 607              		.align	2
 608              		.p2align 4,,15
 609              		.global	chSemAddCounterI
 610              		.thumb
 611              		.thumb_func
 612              		.type	chSemAddCounterI, %function
 613              	chSemAddCounterI:
 614              	.LFB250:
 615              		.loc 1 349 0
ARM GAS  /tmp/ccxGZROp.s 			page 12


 616              		.cfi_startproc
 617              		@ args = 0, pretend = 0, frame = 0
 618              		@ frame_needed = 0, uses_anonymous_args = 0
 619              	.LVL39:
 620 0000 70B5     		push	{r4, r5, r6, lr}
 621              		.cfi_def_cfa_offset 16
 622              		.cfi_offset 4, -16
 623              		.cfi_offset 5, -12
 624              		.cfi_offset 6, -8
 625              		.cfi_offset 14, -4
 626              		.loc 1 357 0
 627 0002 0C1E     		subs	r4, r1, #0
 628              		.loc 1 349 0
 629 0004 0546     		mov	r5, r0
 630              		.loc 1 357 0
 631 0006 11DD     		ble	.L33
 632              		.loc 1 359 0
 633 0008 0026     		movs	r6, #0
 634 000a 01E0     		b	.L37
 635              	.LVL40:
 636              	.L35:
 637              		.loc 1 357 0
 638 000c 013C     		subs	r4, r4, #1
 639              	.LVL41:
 640 000e 0DD0     		beq	.L33
 641              	.LVL42:
 642              	.L37:
 643              		.loc 1 358 0
 644 0010 AB68     		ldr	r3, [r5, #8]
 645 0012 0133     		adds	r3, r3, #1
 646 0014 002B     		cmp	r3, #0
 647 0016 AB60     		str	r3, [r5, #8]
 648 0018 F8DC     		bgt	.L35
 649              	.LVL43:
 650              	.LBB150:
 651              	.LBB151:
 652              		.loc 2 674 0
 653 001a 2868     		ldr	r0, [r5]
 654              	.LVL44:
 655              		.loc 2 676 0
 656 001c 0368     		ldr	r3, [r0]
 657 001e 2B60     		str	r3, [r5]
 658              		.loc 2 677 0
 659 0020 5D60     		str	r5, [r3, #4]
 660              	.LBE151:
 661              	.LBE150:
 662              		.loc 1 359 0
 663 0022 FFF7FEFF 		bl	chSchReadyI
 664              	.LVL45:
 665              		.loc 1 357 0
 666 0026 013C     		subs	r4, r4, #1
 667              	.LVL46:
 668              		.loc 1 359 0
 669 0028 0662     		str	r6, [r0, #32]
 670              	.LVL47:
 671              		.loc 1 357 0
 672 002a F1D1     		bne	.L37
ARM GAS  /tmp/ccxGZROp.s 			page 13


 673              	.LVL48:
 674              	.L33:
 675 002c 70BD     		pop	{r4, r5, r6, pc}
 676              		.cfi_endproc
 677              	.LFE250:
 678              		.size	chSemAddCounterI, .-chSemAddCounterI
 679 002e 00BF     		.section	.text.chSemSignalWait,"ax",%progbits
 680              		.align	2
 681              		.p2align 4,,15
 682              		.global	chSemSignalWait
 683              		.thumb
 684              		.thumb_func
 685              		.type	chSemSignalWait, %function
 686              	chSemSignalWait:
 687              	.LFB251:
 688              		.loc 1 378 0
 689              		.cfi_startproc
 690              		@ args = 0, pretend = 0, frame = 8
 691              		@ frame_needed = 0, uses_anonymous_args = 0
 692              	.LVL49:
 693 0000 10B5     		push	{r4, lr}
 694              		.cfi_def_cfa_offset 8
 695              		.cfi_offset 4, -8
 696              		.cfi_offset 14, -4
 697 0002 0346     		mov	r3, r0
 698 0004 82B0     		sub	sp, sp, #8
 699              		.cfi_def_cfa_offset 16
 700              	.LBB152:
 701              	.LBB153:
 702              	.LBB154:
 703              	.LBB155:
 704              		.loc 3 548 0
 705 0006 2022     		movs	r2, #32
 706              	@ 548 "../ChibiOS/os/ext/CMSIS/include/core_cmFunc.h" 1
 707 0008 82F31188 		MSR basepri, r2
 708              	@ 0 "" 2
 709              		.thumb
 710              	.LBE155:
 711              	.LBE154:
 712              	.LBE153:
 713              	.LBE152:
 714              		.loc 1 390 0
 715 000c 8268     		ldr	r2, [r0, #8]
 716 000e 0132     		adds	r2, r2, #1
 717 0010 002A     		cmp	r2, #0
 718 0012 8260     		str	r2, [r0, #8]
 719 0014 1DDD     		ble	.L45
 720              	.LVL50:
 721              	.L42:
 722              		.loc 1 393 0
 723 0016 8B68     		ldr	r3, [r1, #8]
 724 0018 013B     		subs	r3, r3, #1
 725 001a 002B     		cmp	r3, #0
 726 001c 8B60     		str	r3, [r1, #8]
 727 001e 07DB     		blt	.L46
 728              		.loc 1 401 0
 729 0020 FFF7FEFF 		bl	chSchRescheduleS
ARM GAS  /tmp/ccxGZROp.s 			page 14


 730              	.LVL51:
 731              		.loc 1 402 0
 732 0024 0020     		movs	r0, #0
 733              	.LVL52:
 734              	.LBB156:
 735              	.LBB157:
 736              	.LBB158:
 737              	.LBB159:
 738              	.LBB160:
 739              		.loc 3 548 0
 740 0026 0023     		movs	r3, #0
 741              	@ 548 "../ChibiOS/os/ext/CMSIS/include/core_cmFunc.h" 1
 742 0028 83F31188 		MSR basepri, r3
 743              	@ 0 "" 2
 744              		.thumb
 745              	.LBE160:
 746              	.LBE159:
 747              	.LBE158:
 748              	.LBE157:
 749              	.LBE156:
 750              		.loc 1 407 0
 751 002c 02B0     		add	sp, sp, #8
 752              		@ sp needed
 753 002e 10BD     		pop	{r4, pc}
 754              	.LVL53:
 755              	.L46:
 756              	.LBB165:
 757              		.loc 1 394 0
 758 0030 0D4A     		ldr	r2, .L47
 759              	.LBB166:
 760              	.LBB167:
 761              		.loc 2 668 0
 762 0032 4B68     		ldr	r3, [r1, #4]
 763              	.LBE167:
 764              	.LBE166:
 765              		.loc 1 394 0
 766 0034 9469     		ldr	r4, [r2, #24]
 767              	.LVL54:
 768              		.loc 1 397 0
 769 0036 0520     		movs	r0, #5
 770              	.LBB169:
 771              	.LBB168:
 772              		.loc 2 668 0
 773 0038 84E80A00 		stmia	r4, {r1, r3}
 774              		.loc 2 669 0
 775 003c 1C60     		str	r4, [r3]
 776              		.loc 2 670 0
 777 003e 4C60     		str	r4, [r1, #4]
 778              	.LBE168:
 779              	.LBE169:
 780              		.loc 1 396 0
 781 0040 2162     		str	r1, [r4, #32]
 782              		.loc 1 397 0
 783 0042 FFF7FEFF 		bl	chSchGoSleepS
 784              	.LVL55:
 785              		.loc 1 398 0
 786 0046 206A     		ldr	r0, [r4, #32]
ARM GAS  /tmp/ccxGZROp.s 			page 15


 787              	.LVL56:
 788              	.LBE165:
 789              	.LBB170:
 790              	.LBB164:
 791              	.LBB163:
 792              	.LBB162:
 793              	.LBB161:
 794              		.loc 3 548 0
 795 0048 0023     		movs	r3, #0
 796              	@ 548 "../ChibiOS/os/ext/CMSIS/include/core_cmFunc.h" 1
 797 004a 83F31188 		MSR basepri, r3
 798              	@ 0 "" 2
 799              		.thumb
 800              	.LBE161:
 801              	.LBE162:
 802              	.LBE163:
 803              	.LBE164:
 804              	.LBE170:
 805              		.loc 1 407 0
 806 004e 02B0     		add	sp, sp, #8
 807              		@ sp needed
 808 0050 10BD     		pop	{r4, pc}
 809              	.LVL57:
 810              	.L45:
 811              	.LBB171:
 812              	.LBB172:
 813              		.loc 2 674 0
 814 0052 0068     		ldr	r0, [r0]
 815              	.LVL58:
 816              		.loc 2 676 0
 817 0054 0268     		ldr	r2, [r0]
 818 0056 1A60     		str	r2, [r3]
 819              		.loc 2 677 0
 820 0058 5360     		str	r3, [r2, #4]
 821              	.LBE172:
 822              	.LBE171:
 823              		.loc 1 391 0
 824 005a 0191     		str	r1, [sp, #4]
 825 005c FFF7FEFF 		bl	chSchReadyI
 826              	.LVL59:
 827 0060 0023     		movs	r3, #0
 828 0062 0362     		str	r3, [r0, #32]
 829 0064 0199     		ldr	r1, [sp, #4]
 830 0066 D6E7     		b	.L42
 831              	.L48:
 832              		.align	2
 833              	.L47:
 834 0068 00000000 		.word	ch
 835              		.cfi_endproc
 836              	.LFE251:
 837              		.size	chSemSignalWait, .-chSemSignalWait
 838 006c AFF30080 		.text
 839              	.Letext0:
 840              		.file 4 "/nfs/nfs5/home/research/hardware/arm2/gcc-arm-embedded/gcc-arm-none-eabi-4_8-2014q2/arm-n
 841              		.file 5 "/nfs/nfs5/home/research/hardware/arm2/gcc-arm-embedded/gcc-arm-none-eabi-4_8-2014q2/arm-n
 842              		.file 6 "../ChibiOS/os/rt/ports/ARMCMx/compilers/GCC/chtypes.h"
 843              		.file 7 "../ChibiOS/os/rt/include/chsystypes.h"
ARM GAS  /tmp/ccxGZROp.s 			page 16


 844              		.file 8 "../ChibiOS/os/rt/ports/ARMCMx/chcore.h"
 845              		.file 9 "../ChibiOS/os/rt/ports/ARMCMx/chcore_v7m.h"
 846              		.file 10 "../ChibiOS/os/rt/include/chtm.h"
 847              		.file 11 "../ChibiOS/os/rt/include/chsem.h"
 848              		.file 12 "../ChibiOS/os/rt/include/chmtx.h"
 849              		.file 13 "../ChibiOS/os/rt/include/chsys.h"
 850              		.file 14 "../ChibiOS/os/ext/CMSIS/include/core_cm4.h"