ARM GAS  /tmp/ccR1uB5C.s 			page 1


   1              		.syntax unified
   2              		.cpu cortex-m4
   3              		.fpu softvfp
   4              		.eabi_attribute 20, 1
   5              		.eabi_attribute 21, 1
   6              		.eabi_attribute 23, 3
   7              		.eabi_attribute 24, 1
   8              		.eabi_attribute 25, 1
   9              		.eabi_attribute 26, 1
  10              		.eabi_attribute 30, 2
  11              		.eabi_attribute 34, 1
  12              		.eabi_attribute 18, 4
  13              		.thumb
  14              		.file	"chsys.c"
  15              		.text
  16              	.Ltext0:
  17              		.cfi_sections	.debug_frame
  18              		.section	.text._idle_thread,"ax",%progbits
  19              		.align	2
  20              		.p2align 4,,15
  21              		.thumb
  22              		.thumb_func
  23              		.type	_idle_thread, %function
  24              	_idle_thread:
  25              	.LFB241:
  26              		.file 1 "../ChibiOS/os/rt/src/chsys.c"
  27              		.loc 1 65 0
  28              		.cfi_startproc
  29              		@ Volatile: function does not return.
  30              		@ args = 0, pretend = 0, frame = 0
  31              		@ frame_needed = 0, uses_anonymous_args = 0
  32              		@ link register save eliminated.
  33              	.LVL0:
  34              	.L2:
  35 0000 FEE7     		b	.L2
  36              		.cfi_endproc
  37              	.LFE241:
  38              		.size	_idle_thread, .-_idle_thread
  39 0002 00BFAFF3 		.section	.text.chSysInit,"ax",%progbits
  39      0080AFF3 
  39      0080AFF3 
  39      0080
  40              		.align	2
  41              		.p2align 4,,15
  42              		.global	chSysInit
  43              		.thumb
  44              		.thumb_func
  45              		.type	chSysInit, %function
  46              	chSysInit:
  47              	.LFB242:
  48              		.loc 1 93 0
  49              		.cfi_startproc
  50              		@ args = 0, pretend = 0, frame = 0
  51              		@ frame_needed = 0, uses_anonymous_args = 0
  52              	.LBB168:
  53              	.LBB169:
  54              		.file 2 "../ChibiOS/os/rt/ports/ARMCMx/chcore_v7m.h"
ARM GAS  /tmp/ccR1uB5C.s 			page 2


  55              		.loc 2 386 0
  56 0000 1F4B     		ldr	r3, .L4
  57              	.LBB170:
  58              	.LBB171:
  59              		.file 3 "../ChibiOS/os/ext/CMSIS/include/core_cm4.h"
  60              		.loc 3 1522 0
  61 0002 204A     		ldr	r2, .L4+4
  62              	.LBE171:
  63              	.LBE170:
  64              		.loc 2 392 0
  65 0004 2048     		ldr	r0, .L4+8
  66              		.loc 2 396 0
  67 0006 2149     		ldr	r1, .L4+12
  68              	.LBE169:
  69              	.LBE168:
  70              		.loc 1 93 0
  71 0008 F0B5     		push	{r4, r5, r6, r7, lr}
  72              		.cfi_def_cfa_offset 20
  73              		.cfi_offset 4, -20
  74              		.cfi_offset 5, -16
  75              		.cfi_offset 6, -12
  76              		.cfi_offset 7, -8
  77              		.cfi_offset 14, -4
  78              	.LBB187:
  79              	.LBB184:
  80              		.loc 2 386 0
  81 000a 0024     		movs	r4, #0
  82 000c 9C60     		str	r4, [r3, #8]
  83              	.LVL1:
  84              	.LBB174:
  85              	.LBB172:
  86              		.loc 3 1520 0
  87 000e DF68     		ldr	r7, [r3, #12]
  88              	.LVL2:
  89              	.LBE172:
  90              	.LBE174:
  91              	.LBE184:
  92              	.LBE187:
  93              		.loc 1 119 0
  94 0010 1F4D     		ldr	r5, .L4+16
  95              	.LBB188:
  96              	.LBB185:
  97              	.LBB175:
  98              	.LBB173:
  99              		.loc 3 1521 0
 100 0012 4FF6FF06 		movw	r6, #63743
 101 0016 3E40     		ands	r6, r6, r7
 102              	.LVL3:
 103              		.loc 3 1522 0
 104 0018 3243     		orrs	r2, r2, r6
 105              	.LVL4:
 106              		.loc 3 1525 0
 107 001a DA60     		str	r2, [r3, #12]
 108              	.LBE173:
 109              	.LBE175:
 110              		.loc 2 392 0
 111 001c C268     		ldr	r2, [r0, #12]
ARM GAS  /tmp/ccR1uB5C.s 			page 3


 112              	.LVL5:
 113 001e 42F08072 		orr	r2, r2, #16777216
 114 0022 C260     		str	r2, [r0, #12]
 115              	.LVL6:
 116              		.loc 2 396 0
 117 0024 0E68     		ldr	r6, [r1]
 118              	.LVL7:
 119              	.LBB176:
 120              	.LBB177:
 121              		.loc 3 1632 0
 122 0026 2022     		movs	r2, #32
 123              	.LBE177:
 124              	.LBE176:
 125              	.LBB179:
 126              	.LBB180:
 127 0028 1020     		movs	r0, #16
 128              	.LBE180:
 129              	.LBE179:
 130              		.loc 2 396 0
 131 002a 46F00106 		orr	r6, r6, #1
 132 002e 0E60     		str	r6, [r1]
 133              	.LVL8:
 134              	.LBE185:
 135              	.LBE188:
 136              		.loc 1 93 0
 137 0030 83B0     		sub	sp, sp, #12
 138              		.cfi_def_cfa_offset 32
 139              	.LBB189:
 140              	.LBB186:
 141              	.LBB182:
 142              	.LBB181:
 143              		.loc 3 1632 0
 144 0032 D877     		strb	r0, [r3, #31]
 145              	.LVL9:
 146              	.LBE181:
 147              	.LBE182:
 148              	.LBB183:
 149              	.LBB178:
 150 0034 83F82220 		strb	r2, [r3, #34]
 151              	.LBE178:
 152              	.LBE183:
 153              	.LBE186:
 154              	.LBE189:
 155              		.loc 1 99 0
 156 0038 FFF7FEFF 		bl	_scheduler_init
 157              	.LVL10:
 158              		.loc 1 100 0
 159 003c FFF7FEFF 		bl	_vt_init
 160              	.LVL11:
 161              		.loc 1 102 0
 162 0040 FFF7FEFF 		bl	_tm_init
 163              	.LVL12:
 164              		.loc 1 105 0
 165 0044 FFF7FEFF 		bl	_core_init
 166              	.LVL13:
 167              		.loc 1 108 0
 168 0048 FFF7FEFF 		bl	_heap_init
ARM GAS  /tmp/ccR1uB5C.s 			page 4


 169              	.LVL14:
 170              		.loc 1 119 0
 171 004c 2846     		mov	r0, r5
 172 004e 4021     		movs	r1, #64
 173 0050 FFF7FEFF 		bl	_thread_init
 174              	.LVL15:
 175 0054 A5F13003 		sub	r3, r5, #48
 176              		.loc 1 125 0
 177 0058 0122     		movs	r2, #1
 178              		.loc 1 119 0
 179 005a 9861     		str	r0, [r3, #24]
 180              		.loc 1 125 0
 181 005c 0277     		strb	r2, [r0, #28]
 182              	.LVL16:
 183              	.LBB190:
 184              	.LBB191:
 185              	.LBB192:
 186              	.LBB193:
 187              		.file 4 "../ChibiOS/os/ext/CMSIS/include/core_cmFunc.h"
 188              		.loc 4 548 0
 189              	@ 548 "../ChibiOS/os/ext/CMSIS/include/core_cmFunc.h" 1
 190 005e 84F31188 		MSR basepri, r4
 191              	@ 0 "" 2
 192              		.thumb
 193              	.LBE193:
 194              	.LBE192:
 195              	.LBB194:
 196              	.LBB195:
 197              		.loc 4 333 0
 198              	@ 333 "../ChibiOS/os/ext/CMSIS/include/core_cmFunc.h" 1
 199 0062 62B6     		cpsie i
 200              	@ 0 "" 2
 201              	.LVL17:
 202              		.thumb
 203              	.LBE195:
 204              	.LBE194:
 205              	.LBE191:
 206              	.LBE190:
 207              	.LBB196:
 208              	.LBB197:
 209              		.file 5 "../ChibiOS/os/rt/include/chregistry.h"
 210              		.loc 5 135 0
 211 0064 9B69     		ldr	r3, [r3, #24]
 212 0066 0B49     		ldr	r1, .L4+20
 213 0068 9961     		str	r1, [r3, #24]
 214              	.LBE197:
 215              	.LBE196:
 216              	.LBB198:
 217              		.loc 1 144 0
 218 006a 05F14800 		add	r0, r5, #72
 219 006e 0094     		str	r4, [sp]
 220 0070 D821     		movs	r1, #216
 221 0072 094B     		ldr	r3, .L4+24
 222 0074 FFF7FEFF 		bl	chThdCreateStatic
 223              	.LVL18:
 224              	.LBB199:
 225              	.LBB200:
ARM GAS  /tmp/ccR1uB5C.s 			page 5


 226              		.loc 5 175 0
 227 0078 084B     		ldr	r3, .L4+28
 228 007a 8361     		str	r3, [r0, #24]
 229              	.LBE200:
 230              	.LBE199:
 231              	.LBE198:
 232              		.loc 1 152 0
 233 007c 03B0     		add	sp, sp, #12
 234              		@ sp needed
 235 007e F0BD     		pop	{r4, r5, r6, r7, pc}
 236              	.LVL19:
 237              	.L5:
 238              		.align	2
 239              	.L4:
 240 0080 00ED00E0 		.word	-536810240
 241 0084 0003FA05 		.word	100270848
 242 0088 F0ED00E0 		.word	-536810000
 243 008c 001000E0 		.word	-536866816
 244 0090 30000000 		.word	ch+48
 245 0094 00000000 		.word	ch_debug
 246 0098 00000000 		.word	_idle_thread
 247 009c 00000000 		.word	.LC0
 248              		.cfi_endproc
 249              	.LFE242:
 250              		.size	chSysInit, .-chSysInit
 251              		.section	.text.chSysHalt,"ax",%progbits
 252              		.align	2
 253              		.p2align 4,,15
 254              		.global	chSysHalt
 255              		.thumb
 256              		.thumb_func
 257              		.type	chSysHalt, %function
 258              	chSysHalt:
 259              	.LFB243:
 260              		.loc 1 166 0
 261              		.cfi_startproc
 262              		@ Volatile: function does not return.
 263              		@ args = 0, pretend = 0, frame = 0
 264              		@ frame_needed = 0, uses_anonymous_args = 0
 265              		@ link register save eliminated.
 266              	.LVL20:
 267              	.LBB201:
 268              	.LBB202:
 269              	.LBB203:
 270              		.loc 4 344 0
 271              	@ 344 "../ChibiOS/os/ext/CMSIS/include/core_cmFunc.h" 1
 272 0000 72B6     		cpsid i
 273              	@ 0 "" 2
 274              		.thumb
 275              	.LBE203:
 276              	.LBE202:
 277              	.LBE201:
 278              		.loc 1 175 0
 279 0002 014B     		ldr	r3, .L9
 280 0004 D862     		str	r0, [r3, #44]
 281              	.L7:
 282 0006 FEE7     		b	.L7
ARM GAS  /tmp/ccR1uB5C.s 			page 6


 283              	.L10:
 284              		.align	2
 285              	.L9:
 286 0008 00000000 		.word	ch
 287              		.cfi_endproc
 288              	.LFE243:
 289              		.size	chSysHalt, .-chSysHalt
 290 000c AFF30080 		.section	.text.chSysIntegrityCheckI,"ax",%progbits
 291              		.align	2
 292              		.p2align 4,,15
 293              		.global	chSysIntegrityCheckI
 294              		.thumb
 295              		.thumb_func
 296              		.type	chSysIntegrityCheckI, %function
 297              	chSysIntegrityCheckI:
 298              	.LFB244:
 299              		.loc 1 206 0
 300              		.cfi_startproc
 301              		@ args = 0, pretend = 0, frame = 0
 302              		@ frame_needed = 0, uses_anonymous_args = 0
 303              		@ link register save eliminated.
 304              	.LVL21:
 305              		.loc 1 212 0
 306 0000 C207     		lsls	r2, r0, #31
 307              		.loc 1 206 0
 308 0002 10B4     		push	{r4}
 309              		.cfi_def_cfa_offset 4
 310              		.cfi_offset 4, -4
 311              		.loc 1 212 0
 312 0004 14D5     		bpl	.L12
 313              	.LVL22:
 314              	.LBB204:
 315              		.loc 1 217 0
 316 0006 264B     		ldr	r3, .L39
 317 0008 1968     		ldr	r1, [r3]
 318              	.LVL23:
 319              		.loc 1 218 0
 320 000a 9942     		cmp	r1, r3
 321              		.loc 1 216 0
 322 000c 4FF00002 		mov	r2, #0
 323              		.loc 1 218 0
 324 0010 04D0     		beq	.L13
 325              	.LVL24:
 326              	.L14:
 327              		.loc 1 220 0
 328 0012 0968     		ldr	r1, [r1]
 329              	.LVL25:
 330              		.loc 1 218 0
 331 0014 9942     		cmp	r1, r3
 332              		.loc 1 219 0
 333 0016 02F10102 		add	r2, r2, #1
 334              	.LVL26:
 335              		.loc 1 218 0
 336 001a FAD1     		bne	.L14
 337              	.LVL27:
 338              	.L13:
 339              		.loc 1 224 0
ARM GAS  /tmp/ccR1uB5C.s 			page 7


 340 001c 5968     		ldr	r1, [r3, #4]
 341              	.LVL28:
 342              		.loc 1 225 0
 343 001e 9942     		cmp	r1, r3
 344 0020 04D0     		beq	.L15
 345              	.L16:
 346              		.loc 1 227 0
 347 0022 4968     		ldr	r1, [r1, #4]
 348              	.LVL29:
 349              		.loc 1 225 0
 350 0024 9942     		cmp	r1, r3
 351              		.loc 1 226 0
 352 0026 02F1FF32 		add	r2, r2, #-1
 353              	.LVL30:
 354              		.loc 1 225 0
 355 002a FAD1     		bne	.L16
 356              	.L15:
 357              		.loc 1 231 0
 358 002c 002A     		cmp	r2, #0
 359 002e 32D1     		bne	.L30
 360              	.LVL31:
 361              	.L12:
 362              	.LBE204:
 363              		.loc 1 237 0
 364 0030 8307     		lsls	r3, r0, #30
 365 0032 14D5     		bpl	.L18
 366              	.LVL32:
 367              	.LBB205:
 368              		.loc 1 242 0
 369 0034 1A4B     		ldr	r3, .L39
 370 0036 1C46     		mov	r4, r3
 371              		.loc 1 241 0
 372 0038 0022     		movs	r2, #0
 373              		.loc 1 242 0
 374 003a 54F81C1F 		ldr	r1, [r4, #28]!
 375              	.LVL33:
 376              		.loc 1 243 0
 377 003e A142     		cmp	r1, r4
 378 0040 04D0     		beq	.L19
 379              	.LVL34:
 380              	.L20:
 381              		.loc 1 245 0
 382 0042 0968     		ldr	r1, [r1]
 383              	.LVL35:
 384              		.loc 1 243 0
 385 0044 A142     		cmp	r1, r4
 386              		.loc 1 244 0
 387 0046 02F10102 		add	r2, r2, #1
 388              	.LVL36:
 389              		.loc 1 243 0
 390 004a FAD1     		bne	.L20
 391              	.LVL37:
 392              	.L19:
 393              		.loc 1 249 0
 394 004c 1B6A     		ldr	r3, [r3, #32]
 395              	.LVL38:
 396              		.loc 1 250 0
ARM GAS  /tmp/ccR1uB5C.s 			page 8


 397 004e A342     		cmp	r3, r4
 398 0050 04D0     		beq	.L21
 399              	.L22:
 400              		.loc 1 252 0
 401 0052 5B68     		ldr	r3, [r3, #4]
 402              	.LVL39:
 403              		.loc 1 250 0
 404 0054 A342     		cmp	r3, r4
 405              		.loc 1 251 0
 406 0056 02F1FF32 		add	r2, r2, #-1
 407              	.LVL40:
 408              		.loc 1 250 0
 409 005a FAD1     		bne	.L22
 410              	.L21:
 411              		.loc 1 256 0
 412 005c DAB9     		cbnz	r2, .L30
 413              	.LVL41:
 414              	.L18:
 415              	.LBE205:
 416              		.loc 1 262 0
 417 005e 10F00400 		ands	r0, r0, #4
 418              	.LVL42:
 419 0062 15D0     		beq	.L17
 420              	.LVL43:
 421              	.LBB206:
 422              		.loc 1 267 0
 423 0064 0E4B     		ldr	r3, .L39
 424 0066 1A69     		ldr	r2, [r3, #16]
 425              	.LVL44:
 426              		.loc 1 268 0
 427 0068 9A42     		cmp	r2, r3
 428              		.loc 1 266 0
 429 006a 4FF00000 		mov	r0, #0
 430              		.loc 1 268 0
 431 006e 04D0     		beq	.L23
 432              	.LVL45:
 433              	.L24:
 434              		.loc 1 270 0
 435 0070 1269     		ldr	r2, [r2, #16]
 436              	.LVL46:
 437              		.loc 1 268 0
 438 0072 9A42     		cmp	r2, r3
 439              		.loc 1 269 0
 440 0074 00F10100 		add	r0, r0, #1
 441              	.LVL47:
 442              		.loc 1 268 0
 443 0078 FAD1     		bne	.L24
 444              	.LVL48:
 445              	.L23:
 446              		.loc 1 274 0
 447 007a 5A69     		ldr	r2, [r3, #20]
 448              	.LVL49:
 449              		.loc 1 275 0
 450 007c 9A42     		cmp	r2, r3
 451 007e 04D0     		beq	.L25
 452              	.L26:
 453              		.loc 1 277 0
ARM GAS  /tmp/ccR1uB5C.s 			page 9


 454 0080 5269     		ldr	r2, [r2, #20]
 455              	.LVL50:
 456              		.loc 1 275 0
 457 0082 9A42     		cmp	r2, r3
 458              		.loc 1 276 0
 459 0084 00F1FF30 		add	r0, r0, #-1
 460              	.LVL51:
 461              		.loc 1 275 0
 462 0088 FAD1     		bne	.L26
 463              	.L25:
 464              		.loc 1 281 0
 465 008a 0030     		adds	r0, r0, #0
 466 008c 18BF     		it	ne
 467 008e 0120     		movne	r0, #1
 468              	.LVL52:
 469              	.L17:
 470              	.LBE206:
 471              		.loc 1 294 0
 472 0090 5DF8044B 		ldr	r4, [sp], #4
 473 0094 7047     		bx	lr
 474              	.LVL53:
 475              	.L30:
 476              	.LBB207:
 477              		.loc 1 232 0
 478 0096 0120     		movs	r0, #1
 479              	.LVL54:
 480              	.LBE207:
 481              		.loc 1 294 0
 482 0098 5DF8044B 		ldr	r4, [sp], #4
 483 009c 7047     		bx	lr
 484              	.L40:
 485 009e 00BF     		.align	2
 486              	.L39:
 487 00a0 00000000 		.word	ch
 488              		.cfi_endproc
 489              	.LFE244:
 490              		.size	chSysIntegrityCheckI, .-chSysIntegrityCheckI
 491 00a4 AFF30080 		.section	.text.chSysTimerHandlerI,"ax",%progbits
 491      AFF30080 
 491      AFF30080 
 492              		.align	2
 493              		.p2align 4,,15
 494              		.global	chSysTimerHandlerI
 495              		.thumb
 496              		.thumb_func
 497              		.type	chSysTimerHandlerI, %function
 498              	chSysTimerHandlerI:
 499              	.LFB245:
 500              		.loc 1 307 0
 501              		.cfi_startproc
 502              		@ args = 0, pretend = 0, frame = 0
 503              		@ frame_needed = 0, uses_anonymous_args = 0
 504 0000 2DE9F047 		push	{r4, r5, r6, r7, r8, r9, r10, lr}
 505              		.cfi_def_cfa_offset 32
 506              		.cfi_offset 4, -32
 507              		.cfi_offset 5, -28
 508              		.cfi_offset 6, -24
ARM GAS  /tmp/ccR1uB5C.s 			page 10


 509              		.cfi_offset 7, -20
 510              		.cfi_offset 8, -16
 511              		.cfi_offset 9, -12
 512              		.cfi_offset 10, -8
 513              		.cfi_offset 14, -4
 514              	.LBB233:
 515              	.LBB234:
 516              		.file 6 "../ChibiOS/os/rt/include/chvt.h"
 517              		.loc 6 530 0
 518 0004 1C4D     		ldr	r5, .L51
 519              	.LBB235:
 520              	.LBB236:
 521              	.LBB237:
 522              	.LBB238:
 523              		.file 7 "../ChibiOS/os/hal/ports/STM32/LLD/TIMv1/st_lld.h"
 524              		.loc 7 141 0
 525 0006 4FF08048 		mov	r8, #1073741824
 526              	.LBE238:
 527              	.LBE237:
 528              	.LBE236:
 529              	.LBE235:
 530              		.loc 6 530 0
 531 000a EC69     		ldr	r4, [r5, #28]
 532              	.LVL55:
 533              		.loc 6 537 0
 534 000c A96A     		ldr	r1, [r5, #40]
 535              	.LBB242:
 536              	.LBB241:
 537              	.LBB240:
 538              	.LBB239:
 539              		.loc 7 141 0
 540 000e D8F82430 		ldr	r3, [r8, #36]
 541              	.LVL56:
 542              	.LBE239:
 543              	.LBE240:
 544              	.LBE241:
 545              	.LBE242:
 546              		.loc 6 537 0
 547 0012 A268     		ldr	r2, [r4, #8]
 548 0014 581A     		subs	r0, r3, r1
 549 0016 9042     		cmp	r0, r2
 550 0018 05F11C09 		add	r9, r5, #28
 551 001c 1AD3     		bcc	.L42
 552              	.LBB243:
 553              		.loc 6 546 0
 554 001e 0026     		movs	r6, #0
 555              	.LBB244:
 556              	.LBB245:
 557              	.LBB246:
 558              	.LBB247:
 559              	.LBB248:
 560              		.loc 4 548 0
 561 0020 2027     		movs	r7, #32
 562              	.L44:
 563              	.LBE248:
 564              	.LBE247:
 565              	.LBE246:
ARM GAS  /tmp/ccR1uB5C.s 			page 11


 566              	.LBE245:
 567              	.LBE244:
 568              		.loc 6 543 0
 569 0022 2368     		ldr	r3, [r4]
 570              		.loc 6 545 0
 571 0024 D4F80CA0 		ldr	r10, [r4, #12]
 572              	.LVL57:
 573              		.loc 6 541 0
 574 0028 0A44     		add	r2, r2, r1
 575              		.loc 6 549 0
 576 002a 4B45     		cmp	r3, r9
 577              		.loc 6 541 0
 578 002c AA62     		str	r2, [r5, #40]
 579              		.loc 6 543 0
 580 002e C3F80490 		str	r9, [r3, #4]
 581              		.loc 6 544 0
 582 0032 EB61     		str	r3, [r5, #28]
 583              		.loc 6 546 0
 584 0034 E660     		str	r6, [r4, #12]
 585              		.loc 6 549 0
 586 0036 19D0     		beq	.L50
 587              	.L43:
 588              	.LVL58:
 589              	.LBB253:
 590              	.LBB254:
 591              	.LBB255:
 592              	.LBB256:
 593              	.LBB257:
 594              		.loc 4 548 0
 595              	@ 548 "../ChibiOS/os/ext/CMSIS/include/core_cmFunc.h" 1
 596 0038 86F31188 		MSR basepri, r6
 597              	@ 0 "" 2
 598              		.thumb
 599              	.LBE257:
 600              	.LBE256:
 601              	.LBE255:
 602              	.LBE254:
 603              	.LBE253:
 604              		.loc 6 559 0
 605 003c 2069     		ldr	r0, [r4, #16]
 606 003e D047     		blx	r10
 607              	.LVL59:
 608              	.LBB258:
 609              	.LBB252:
 610              	.LBB251:
 611              	.LBB250:
 612              	.LBB249:
 613              		.loc 4 548 0
 614              	@ 548 "../ChibiOS/os/ext/CMSIS/include/core_cmFunc.h" 1
 615 0040 87F31188 		MSR basepri, r7
 616              	@ 0 "" 2
 617              		.thumb
 618              	.LBE249:
 619              	.LBE250:
 620              	.LBE251:
 621              	.LBE252:
 622              	.LBE258:
ARM GAS  /tmp/ccR1uB5C.s 			page 12


 623              		.loc 6 567 0
 624 0044 EC69     		ldr	r4, [r5, #28]
 625              	.LVL60:
 626              	.LBB259:
 627              	.LBB260:
 628              	.LBB261:
 629              	.LBB262:
 630              		.loc 7 141 0
 631 0046 D8F82430 		ldr	r3, [r8, #36]
 632              	.LBE262:
 633              	.LBE261:
 634              	.LBE260:
 635              	.LBE259:
 636              	.LBE243:
 637              		.loc 6 537 0
 638 004a A96A     		ldr	r1, [r5, #40]
 639 004c A268     		ldr	r2, [r4, #8]
 640 004e 581A     		subs	r0, r3, r1
 641 0050 8242     		cmp	r2, r0
 642 0052 E6D9     		bls	.L44
 643              	.LVL61:
 644              	.L42:
 645              		.loc 6 572 0
 646 0054 4C45     		cmp	r4, r9
 647 0056 0CD0     		beq	.L41
 648              		.loc 6 577 0
 649 0058 0A44     		add	r2, r2, r1
 650 005a D01A     		subs	r0, r2, r3
 651              	.LVL62:
 652              		.loc 6 579 0
 653 005c 0128     		cmp	r0, #1
 654 005e 98BF     		it	ls
 655 0060 0220     		movls	r0, #2
 656              	.LVL63:
 657              	.LBB265:
 658              	.LBB266:
 659              		.file 8 "../ChibiOS/os/rt/ports/ARMCMx/chcore_timer.h"
 660              		.loc 8 95 0
 661 0062 1844     		add	r0, r0, r3
 662              	.LVL64:
 663              	.LBE266:
 664              	.LBE265:
 665              	.LBE234:
 666              	.LBE233:
 667              		.loc 1 325 0
 668 0064 BDE8F047 		pop	{r4, r5, r6, r7, r8, r9, r10, lr}
 669              	.LVL65:
 670              	.LBB271:
 671              	.LBB270:
 672              	.LBB268:
 673              	.LBB267:
 674              		.loc 8 95 0
 675 0068 FFF7FEBF 		b	stSetAlarm
 676              	.LVL66:
 677              	.L50:
 678              	.LBE267:
 679              	.LBE268:
ARM GAS  /tmp/ccR1uB5C.s 			page 13


 680              	.LBB269:
 681              	.LBB263:
 682              	.LBB264:
 683              		.loc 8 83 0
 684 006c FFF7FEFF 		bl	stStopAlarm
 685              	.LVL67:
 686 0070 E2E7     		b	.L43
 687              	.LVL68:
 688              	.L41:
 689 0072 BDE8F087 		pop	{r4, r5, r6, r7, r8, r9, r10, pc}
 690              	.LVL69:
 691              	.L52:
 692 0076 00BF     		.align	2
 693              	.L51:
 694 0078 00000000 		.word	ch
 695              	.LBE264:
 696              	.LBE263:
 697              	.LBE269:
 698              	.LBE270:
 699              	.LBE271:
 700              		.cfi_endproc
 701              	.LFE245:
 702              		.size	chSysTimerHandlerI, .-chSysTimerHandlerI
 703 007c AFF30080 		.section	.text.chSysGetStatusAndLockX,"ax",%progbits
 704              		.align	2
 705              		.p2align 4,,15
 706              		.global	chSysGetStatusAndLockX
 707              		.thumb
 708              		.thumb_func
 709              		.type	chSysGetStatusAndLockX, %function
 710              	chSysGetStatusAndLockX:
 711              	.LFB246:
 712              		.loc 1 340 0
 713              		.cfi_startproc
 714              		@ args = 0, pretend = 0, frame = 0
 715              		@ frame_needed = 0, uses_anonymous_args = 0
 716              		@ link register save eliminated.
 717              	.LBB272:
 718              	.LBB273:
 719              	.LBB274:
 720              	.LBB275:
 721              		.loc 4 535 0
 722              	@ 535 "../ChibiOS/os/ext/CMSIS/include/core_cmFunc.h" 1
 723 0000 EFF31180 		MRS r0, basepri
 724              	@ 0 "" 2
 725              	.LVL70:
 726              		.thumb
 727              	.LBE275:
 728              	.LBE274:
 729              	.LBE273:
 730              	.LBE272:
 731              		.loc 1 343 0
 732 0004 20B9     		cbnz	r0, .L54
 733              	.LBB276:
 734              	.LBB277:
 735              	.LBB278:
 736              	.LBB279:
ARM GAS  /tmp/ccR1uB5C.s 			page 14


 737              		.loc 4 385 0
 738              	@ 385 "../ChibiOS/os/ext/CMSIS/include/core_cmFunc.h" 1
 739 0006 EFF30583 		MRS r3, ipsr
 740              	@ 0 "" 2
 741              	.LVL71:
 742              		.thumb
 743              	.LBE279:
 744              	.LBE278:
 745              	.LBE277:
 746              	.LBE276:
 747              	.LBB280:
 748              	.LBB281:
 749              	.LBB282:
 750              	.LBB283:
 751              		.loc 4 548 0
 752 000a 2023     		movs	r3, #32
 753              	.LVL72:
 754              	@ 548 "../ChibiOS/os/ext/CMSIS/include/core_cmFunc.h" 1
 755 000c 83F31188 		MSR basepri, r3
 756              	@ 0 "" 2
 757              	.LVL73:
 758              		.thumb
 759              	.L54:
 760              	.LBE283:
 761              	.LBE282:
 762              	.LBE281:
 763              	.LBE280:
 764              		.loc 1 352 0
 765 0010 7047     		bx	lr
 766              		.cfi_endproc
 767              	.LFE246:
 768              		.size	chSysGetStatusAndLockX, .-chSysGetStatusAndLockX
 769 0012 00BFAFF3 		.section	.text.chSysRestoreStatusX,"ax",%progbits
 769      0080AFF3 
 769      0080AFF3 
 769      0080
 770              		.align	2
 771              		.p2align 4,,15
 772              		.global	chSysRestoreStatusX
 773              		.thumb
 774              		.thumb_func
 775              		.type	chSysRestoreStatusX, %function
 776              	chSysRestoreStatusX:
 777              	.LFB247:
 778              		.loc 1 363 0
 779              		.cfi_startproc
 780              		@ args = 0, pretend = 0, frame = 0
 781              		@ frame_needed = 0, uses_anonymous_args = 0
 782              	.LVL74:
 783 0000 10B5     		push	{r4, lr}
 784              		.cfi_def_cfa_offset 8
 785              		.cfi_offset 4, -8
 786              		.cfi_offset 14, -4
 787              		.loc 1 365 0
 788 0002 58B9     		cbnz	r0, .L56
 789              	.LBB284:
 790              	.LBB285:
ARM GAS  /tmp/ccR1uB5C.s 			page 15


 791              	.LBB286:
 792              	.LBB287:
 793              		.loc 4 385 0
 794              	@ 385 "../ChibiOS/os/ext/CMSIS/include/core_cmFunc.h" 1
 795 0004 EFF30584 		MRS r4, ipsr
 796              	@ 0 "" 2
 797              	.LVL75:
 798              		.thumb
 799              	.LBE287:
 800              	.LBE286:
 801              		.loc 2 448 0
 802 0008 C4F30804 		ubfx	r4, r4, #0, #9
 803              	.LVL76:
 804              	.LBE285:
 805              	.LBE284:
 806              		.loc 1 366 0
 807 000c 14B1     		cbz	r4, .L58
 808              	.LVL77:
 809              	.LBB288:
 810              	.LBB289:
 811              	.LBB290:
 812              	.LBB291:
 813              	.LBB292:
 814              		.loc 4 548 0
 815              	@ 548 "../ChibiOS/os/ext/CMSIS/include/core_cmFunc.h" 1
 816 000e 80F31188 		MSR basepri, r0
 817              	@ 0 "" 2
 818              		.thumb
 819 0012 10BD     		pop	{r4, pc}
 820              	.LVL78:
 821              	.L58:
 822              	.LBE292:
 823              	.LBE291:
 824              	.LBE290:
 825              	.LBE289:
 826              	.LBE288:
 827              		.loc 1 370 0
 828 0014 FFF7FEFF 		bl	chSchRescheduleS
 829              	.LVL79:
 830              	.LBB293:
 831              	.LBB294:
 832              	.LBB295:
 833              	.LBB296:
 834              	.LBB297:
 835              		.loc 4 548 0
 836              	@ 548 "../ChibiOS/os/ext/CMSIS/include/core_cmFunc.h" 1
 837 0018 84F31188 		MSR basepri, r4
 838              	@ 0 "" 2
 839              	.LVL80:
 840              		.thumb
 841              	.L56:
 842 001c 10BD     		pop	{r4, pc}
 843              	.LBE297:
 844              	.LBE296:
 845              	.LBE295:
 846              	.LBE294:
 847              	.LBE293:
ARM GAS  /tmp/ccR1uB5C.s 			page 16


 848              		.cfi_endproc
 849              	.LFE247:
 850              		.size	chSysRestoreStatusX, .-chSysRestoreStatusX
 851 001e 00BF     		.section	.text.chSysIsCounterWithinX,"ax",%progbits
 852              		.align	2
 853              		.p2align 4,,15
 854              		.global	chSysIsCounterWithinX
 855              		.thumb
 856              		.thumb_func
 857              		.type	chSysIsCounterWithinX, %function
 858              	chSysIsCounterWithinX:
 859              	.LFB248:
 860              		.loc 1 395 0
 861              		.cfi_startproc
 862              		@ args = 0, pretend = 0, frame = 0
 863              		@ frame_needed = 0, uses_anonymous_args = 0
 864              		@ link register save eliminated.
 865              	.LVL81:
 866              		.loc 1 397 0
 867 0000 401A     		subs	r0, r0, r1
 868              	.LVL82:
 869 0002 521A     		subs	r2, r2, r1
 870              	.LVL83:
 871              		.loc 1 398 0
 872 0004 9042     		cmp	r0, r2
 873 0006 2CBF     		ite	cs
 874 0008 0020     		movcs	r0, #0
 875 000a 0120     		movcc	r0, #1
 876 000c 7047     		bx	lr
 877              		.cfi_endproc
 878              	.LFE248:
 879              		.size	chSysIsCounterWithinX, .-chSysIsCounterWithinX
 880 000e 00BF     		.section	.text.chSysPolledDelayX,"ax",%progbits
 881              		.align	2
 882              		.p2align 4,,15
 883              		.global	chSysPolledDelayX
 884              		.thumb
 885              		.thumb_func
 886              		.type	chSysPolledDelayX, %function
 887              	chSysPolledDelayX:
 888              	.LFB249:
 889              		.loc 1 411 0
 890              		.cfi_startproc
 891              		@ args = 0, pretend = 0, frame = 0
 892              		@ frame_needed = 0, uses_anonymous_args = 0
 893              		@ link register save eliminated.
 894              	.LVL84:
 895              	.LBB298:
 896              	.LBB299:
 897              		.loc 2 570 0
 898 0000 0349     		ldr	r1, .L63
 899 0002 4A68     		ldr	r2, [r1, #4]
 900              	.LVL85:
 901              	.L62:
 902              	.LBE299:
 903              	.LBE298:
 904              	.LBB300:
ARM GAS  /tmp/ccR1uB5C.s 			page 17


 905              	.LBB301:
 906              		.loc 2 570 0 is_stmt 0 discriminator 1
 907 0004 4B68     		ldr	r3, [r1, #4]
 908              	.LVL86:
 909              	.LBE301:
 910              	.LBE300:
 911              	.LBB302:
 912              	.LBB303:
 913              		.loc 1 397 0 is_stmt 1 discriminator 1
 914 0006 9B1A     		subs	r3, r3, r2
 915              	.LVL87:
 916              	.LBE303:
 917              	.LBE302:
 918              		.loc 1 415 0 discriminator 1
 919 0008 9842     		cmp	r0, r3
 920 000a FBD8     		bhi	.L62
 921              		.loc 1 417 0
 922 000c 7047     		bx	lr
 923              	.L64:
 924 000e 00BF     		.align	2
 925              	.L63:
 926 0010 001000E0 		.word	-536866816
 927              		.cfi_endproc
 928              	.LFE249:
 929              		.size	chSysPolledDelayX, .-chSysPolledDelayX
 930 0014 AFF30080 		.section	.rodata.str1.4,"aMS",%progbits,1
 930      AFF30080 
 930      AFF30080 
 931              		.align	2
 932              	.LC0:
 933 0000 69646C65 		.ascii	"idle\000"
 933      00
 934 0005 000000   		.text
 935              	.Letext0:
 936              		.file 9 "/nfs/nfs5/home/research/hardware/arm2/gcc-arm-embedded/gcc-arm-none-eabi-4_8-2014q2/lib/g
 937              		.file 10 "/nfs/nfs5/home/research/hardware/arm2/gcc-arm-embedded/gcc-arm-none-eabi-4_8-2014q2/arm-
 938              		.file 11 "/nfs/nfs5/home/research/hardware/arm2/gcc-arm-embedded/gcc-arm-none-eabi-4_8-2014q2/arm-
 939              		.file 12 "../ChibiOS/os/rt/ports/ARMCMx/compilers/GCC/chtypes.h"
 940              		.file 13 "../ChibiOS/os/rt/include/chsystypes.h"
 941              		.file 14 "../ChibiOS/os/rt/include/chschd.h"
 942              		.file 15 "../ChibiOS/os/ext/CMSIS/ST/STM32F3xx/stm32f303xc.h"
 943              		.file 16 "../ChibiOS/os/rt/ports/ARMCMx/chcore.h"
 944              		.file 17 "../ChibiOS/os/hal/ports/STM32/LLD/TIMv1/stm32_tim.h"
 945              		.file 18 "../ChibiOS/os/rt/include/chtm.h"
 946              		.file 19 "../ChibiOS/os/rt/include/chsem.h"
 947              		.file 20 "../ChibiOS/os/rt/include/chmtx.h"
 948              		.file 21 "../ChibiOS/os/rt/include/chthreads.h"
 949              		.file 22 "../ChibiOS/os/rt/include/chsys.h"
 950              		.file 23 "../ChibiOS/os/rt/include/chmemcore.h"
 951              		.file 24 "../ChibiOS/os/rt/include/chheap.h"
 952              		.file 25 "../ChibiOS/os/hal/include/st.h"