ARM GAS  /tmp/ccdHwPLh.s 			page 1


   1              		.syntax unified
   2              		.cpu cortex-m4
   3              		.fpu softvfp
   4              		.eabi_attribute 20, 1
   5              		.eabi_attribute 21, 1
   6              		.eabi_attribute 23, 3
   7              		.eabi_attribute 24, 1
   8              		.eabi_attribute 25, 1
   9              		.eabi_attribute 26, 1
  10              		.eabi_attribute 30, 2
  11              		.eabi_attribute 34, 1
  12              		.eabi_attribute 18, 4
  13              		.thumb
  14              		.file	"crt1.c"
  15              		.text
  16              	.Ltext0:
  17              		.cfi_sections	.debug_frame
  18              		.section	.text.__core_init,"ax",%progbits
  19              		.align	2
  20              		.p2align 4,,15
  21              		.weak	__core_init
  22              		.thumb
  23              		.thumb_func
  24              		.type	__core_init, %function
  25              	__core_init:
  26              	.LFB123:
  27              		.file 1 "../ChibiOS/os/common/ports/ARMCMx/compilers/GCC/crt1.c"
  28              		.loc 1 139 0
  29              		.cfi_startproc
  30              		@ args = 0, pretend = 0, frame = 0
  31              		@ frame_needed = 0, uses_anonymous_args = 0
  32              		@ link register save eliminated.
  33 0000 7047     		bx	lr
  34              		.cfi_endproc
  35              	.LFE123:
  36              		.size	__core_init, .-__core_init
  37 0002 00BFAFF3 		.section	.text.__early_init,"ax",%progbits
  37      0080AFF3 
  37      0080AFF3 
  37      0080
  38              		.align	2
  39              		.p2align 4,,15
  40              		.weak	__early_init
  41              		.thumb
  42              		.thumb_func
  43              		.type	__early_init, %function
  44              	__early_init:
  45              	.LFB124:
  46              		.loc 1 158 0
  47              		.cfi_startproc
  48              		@ args = 0, pretend = 0, frame = 0
  49              		@ frame_needed = 0, uses_anonymous_args = 0
  50              		@ link register save eliminated.
  51 0000 7047     		bx	lr
  52              		.cfi_endproc
  53              	.LFE124:
  54              		.size	__early_init, .-__early_init
ARM GAS  /tmp/ccdHwPLh.s 			page 2


  55 0002 00BFAFF3 		.section	.text.__late_init,"ax",%progbits
  55      0080AFF3 
  55      0080AFF3 
  55      0080
  56              		.align	2
  57              		.p2align 4,,15
  58              		.weak	__late_init
  59              		.thumb
  60              		.thumb_func
  61              		.type	__late_init, %function
  62              	__late_init:
  63              	.LFB125:
  64              		.loc 1 172 0
  65              		.cfi_startproc
  66              		@ args = 0, pretend = 0, frame = 0
  67              		@ frame_needed = 0, uses_anonymous_args = 0
  68              		@ link register save eliminated.
  69 0000 7047     		bx	lr
  70              		.cfi_endproc
  71              	.LFE125:
  72              		.size	__late_init, .-__late_init
  73 0002 00BFAFF3 		.section	.text.__default_exit,"ax",%progbits
  73      0080AFF3 
  73      0080AFF3 
  73      0080
  74              		.align	2
  75              		.p2align 4,,15
  76              		.weak	__default_exit
  77              		.thumb
  78              		.thumb_func
  79              		.type	__default_exit, %function
  80              	__default_exit:
  81              	.LFB126:
  82              		.loc 1 185 0
  83              		.cfi_startproc
  84              		@ Volatile: function does not return.
  85              		@ args = 0, pretend = 0, frame = 0
  86              		@ frame_needed = 0, uses_anonymous_args = 0
  87              		@ link register save eliminated.
  88              	.L5:
  89 0000 FEE7     		b	.L5
  90              		.cfi_endproc
  91              	.LFE126:
  92              		.size	__default_exit, .-__default_exit
  93 0002 00BFAFF3 		.section	.text.__init_ram_areas,"ax",%progbits
  93      0080AFF3 
  93      0080AFF3 
  93      0080
  94              		.align	2
  95              		.p2align 4,,15
  96              		.global	__init_ram_areas
  97              		.thumb
  98              		.thumb_func
  99              		.type	__init_ram_areas, %function
 100              	__init_ram_areas:
 101              	.LFB127:
 102              		.loc 1 195 0
ARM GAS  /tmp/ccdHwPLh.s 			page 3


 103              		.cfi_startproc
 104              		@ args = 0, pretend = 0, frame = 0
 105              		@ frame_needed = 0, uses_anonymous_args = 0
 106              		@ link register save eliminated.
 107              	.LVL0:
 108              		.loc 1 195 0
 109 0000 F0B4     		push	{r4, r5, r6, r7}
 110              		.cfi_def_cfa_offset 16
 111              		.cfi_offset 4, -16
 112              		.cfi_offset 5, -12
 113              		.cfi_offset 6, -8
 114              		.cfi_offset 7, -4
 115 0002 134E     		ldr	r6, .L19
 116              	.LBB2:
 117              		.loc 1 212 0
 118 0004 0025     		movs	r5, #0
 119 0006 06F17007 		add	r7, r6, #112
 120              	.LVL1:
 121              	.L15:
 122              		.loc 1 200 0
 123 000a A6F11001 		sub	r1, r6, #16
 124              	.LVL2:
 125 000e 1AC9     		ldmia	r1, {r1, r3, r4}
 126              	.LVL3:
 127              		.loc 1 204 0
 128 0010 A342     		cmp	r3, r4
 129 0012 0DD2     		bcs	.L7
 130 0014 0439     		subs	r1, r1, #4
 131              	.LVL4:
 132 0016 1A46     		mov	r2, r3
 133              	.LVL5:
 134              	.L9:
 135              		.loc 1 205 0
 136 0018 51F8040F 		ldr	r0, [r1, #4]!
 137              	.LVL6:
 138 001c 42F8040B 		str	r0, [r2], #4
 139              	.LVL7:
 140              		.loc 1 204 0
 141 0020 A242     		cmp	r2, r4
 142 0022 F9D3     		bcc	.L9
 143 0024 DA43     		mvns	r2, r3
 144              	.LVL8:
 145 0026 1444     		add	r4, r4, r2
 146 0028 24F00304 		bic	r4, r4, #3
 147 002c 0434     		adds	r4, r4, #4
 148 002e 2344     		add	r3, r3, r4
 149              	.LVL9:
 150              	.L7:
 151              		.loc 1 211 0 discriminator 1
 152 0030 56F8042C 		ldr	r2, [r6, #-4]
 153 0034 9342     		cmp	r3, r2
 154 0036 03D2     		bcs	.L13
 155              	.L14:
 156              		.loc 1 212 0
 157 0038 43F8045B 		str	r5, [r3], #4
 158              	.LVL10:
 159              		.loc 1 211 0
ARM GAS  /tmp/ccdHwPLh.s 			page 4


 160 003c 9342     		cmp	r3, r2
 161 003e FBD3     		bcc	.L14
 162              	.L13:
 163              	.LVL11:
 164              	.LBE2:
 165              		.loc 1 217 0
 166 0040 BE42     		cmp	r6, r7
 167 0042 06F11003 		add	r3, r6, #16
 168              	.LVL12:
 169 0046 01D2     		bcs	.L18
 170 0048 1E46     		mov	r6, r3
 171              	.LVL13:
 172 004a DEE7     		b	.L15
 173              	.LVL14:
 174              	.L18:
 175              		.loc 1 219 0
 176 004c F0BC     		pop	{r4, r5, r6, r7}
 177              	.LVL15:
 178 004e 7047     		bx	lr
 179              	.L20:
 180              		.align	2
 181              	.L19:
 182 0050 10000000 		.word	.LANCHOR0+16
 183              		.cfi_endproc
 184              	.LFE127:
 185              		.size	__init_ram_areas, .-__init_ram_areas
 186 0054 AFF30080 		.section	.rodata.ram_areas,"a",%progbits
 186      AFF30080 
 186      AFF30080 
 187              		.align	2
 188              		.set	.LANCHOR0,. + 0
 189              		.type	ram_areas, %object
 190              		.size	ram_areas, 128
 191              	ram_areas:
 192 0000 00000000 		.word	__ram0_init_text__
 193 0004 00000000 		.word	__ram0_init__
 194 0008 00000000 		.word	__ram0_clear__
 195 000c 00000000 		.word	__ram0_noinit__
 196 0010 00000000 		.word	__ram1_init_text__
 197 0014 00000000 		.word	__ram1_init__
 198 0018 00000000 		.word	__ram1_clear__
 199 001c 00000000 		.word	__ram1_noinit__
 200 0020 00000000 		.word	__ram2_init_text__
 201 0024 00000000 		.word	__ram2_init__
 202 0028 00000000 		.word	__ram2_clear__
 203 002c 00000000 		.word	__ram2_noinit__
 204 0030 00000000 		.word	__ram3_init_text__
 205 0034 00000000 		.word	__ram3_init__
 206 0038 00000000 		.word	__ram3_clear__
 207 003c 00000000 		.word	__ram3_noinit__
 208 0040 00000000 		.word	__ram4_init_text__
 209 0044 00000000 		.word	__ram4_init__
 210 0048 00000000 		.word	__ram4_clear__
 211 004c 00000000 		.word	__ram4_noinit__
 212 0050 00000000 		.word	__ram5_init_text__
 213 0054 00000000 		.word	__ram5_init__
 214 0058 00000000 		.word	__ram5_clear__
ARM GAS  /tmp/ccdHwPLh.s 			page 5


 215 005c 00000000 		.word	__ram5_noinit__
 216 0060 00000000 		.word	__ram6_init_text__
 217 0064 00000000 		.word	__ram6_init__
 218 0068 00000000 		.word	__ram6_clear__
 219 006c 00000000 		.word	__ram6_noinit__
 220 0070 00000000 		.word	__ram7_init_text__
 221 0074 00000000 		.word	__ram7_init__
 222 0078 00000000 		.word	__ram7_clear__
 223 007c 00000000 		.word	__ram7_noinit__
 224              		.text
 225              	.Letext0:
 226              		.file 2 "/nfs/nfs5/home/research/hardware/arm2/gcc-arm-embedded/gcc-arm-none-eabi-4_8-2014q2/arm-n
 227              		.file 3 "/nfs/nfs5/home/research/hardware/arm2/gcc-arm-embedded/gcc-arm-none-eabi-4_8-2014q2/arm-n
 228              		.file 4 "../ChibiOS/os/ext/CMSIS/include/core_cm4.h"