ARM GAS  /tmp/ccjXDV90.s 			page 1


   1              		.syntax unified
   2              		.cpu cortex-m4
   3              		.fpu softvfp
   4              		.eabi_attribute 20, 1
   5              		.eabi_attribute 21, 1
   6              		.eabi_attribute 23, 3
   7              		.eabi_attribute 24, 1
   8              		.eabi_attribute 25, 1
   9              		.eabi_attribute 26, 1
  10              		.eabi_attribute 30, 2
  11              		.eabi_attribute 34, 1
  12              		.eabi_attribute 18, 4
  13              		.thumb
  14              		.file	"ext.c"
  15              		.text
  16              	.Ltext0:
  17              		.cfi_sections	.debug_frame
  18              		.section	.text.extInit,"ax",%progbits
  19              		.align	2
  20              		.p2align 4,,15
  21              		.global	extInit
  22              		.thumb
  23              		.thumb_func
  24              		.type	extInit, %function
  25              	extInit:
  26              	.LFB272:
  27              		.file 1 "../ChibiOS/os/hal/src/ext.c"
  28              		.loc 1 56 0
  29              		.cfi_startproc
  30              		@ args = 0, pretend = 0, frame = 0
  31              		@ frame_needed = 0, uses_anonymous_args = 0
  32              		@ link register save eliminated.
  33              		.loc 1 58 0
  34 0000 FFF7FEBF 		b	ext_lld_init
  35              	.LVL0:
  36              		.cfi_endproc
  37              	.LFE272:
  38              		.size	extInit, .-extInit
  39 0004 AFF30080 		.section	.text.extObjectInit,"ax",%progbits
  39      AFF30080 
  39      AFF30080 
  40              		.align	2
  41              		.p2align 4,,15
  42              		.global	extObjectInit
  43              		.thumb
  44              		.thumb_func
  45              		.type	extObjectInit, %function
  46              	extObjectInit:
  47              	.LFB273:
  48              		.loc 1 68 0
  49              		.cfi_startproc
  50              		@ args = 0, pretend = 0, frame = 0
  51              		@ frame_needed = 0, uses_anonymous_args = 0
  52              		@ link register save eliminated.
  53              	.LVL1:
  54              		.loc 1 70 0
  55 0000 0122     		movs	r2, #1
ARM GAS  /tmp/ccjXDV90.s 			page 2


  56              		.loc 1 71 0
  57 0002 0023     		movs	r3, #0
  58              		.loc 1 70 0
  59 0004 0270     		strb	r2, [r0]
  60              		.loc 1 71 0
  61 0006 4360     		str	r3, [r0, #4]
  62 0008 7047     		bx	lr
  63              		.cfi_endproc
  64              	.LFE273:
  65              		.size	extObjectInit, .-extObjectInit
  66 000a 00BFAFF3 		.section	.text.extStart,"ax",%progbits
  66      0080
  67              		.align	2
  68              		.p2align 4,,15
  69              		.global	extStart
  70              		.thumb
  71              		.thumb_func
  72              		.type	extStart, %function
  73              	extStart:
  74              	.LFB274:
  75              		.loc 1 84 0
  76              		.cfi_startproc
  77              		@ args = 0, pretend = 0, frame = 0
  78              		@ frame_needed = 0, uses_anonymous_args = 0
  79              	.LVL2:
  80 0000 10B5     		push	{r4, lr}
  81              		.cfi_def_cfa_offset 8
  82              		.cfi_offset 4, -8
  83              		.cfi_offset 14, -4
  84              	.LBB76:
  85              	.LBB77:
  86              	.LBB78:
  87              	.LBB79:
  88              	.LBB80:
  89              		.file 2 "../ChibiOS/os/ext/CMSIS/include/core_cmFunc.h"
  90              		.loc 2 548 0
  91 0002 2023     		movs	r3, #32
  92              	.LBE80:
  93              	.LBE79:
  94              	.LBE78:
  95              	.LBE77:
  96              	.LBE76:
  97              		.loc 1 84 0
  98 0004 0446     		mov	r4, r0
  99              	.LBB85:
 100              	.LBB84:
 101              	.LBB83:
 102              	.LBB82:
 103              	.LBB81:
 104              		.loc 2 548 0
 105              	@ 548 "../ChibiOS/os/ext/CMSIS/include/core_cmFunc.h" 1
 106 0006 83F31188 		MSR basepri, r3
 107              	@ 0 "" 2
 108              		.thumb
 109              	.LBE81:
 110              	.LBE82:
 111              	.LBE83:
ARM GAS  /tmp/ccjXDV90.s 			page 3


 112              	.LBE84:
 113              	.LBE85:
 114              		.loc 1 91 0
 115 000a 4160     		str	r1, [r0, #4]
 116              		.loc 1 92 0
 117 000c FFF7FEFF 		bl	ext_lld_start
 118              	.LVL3:
 119              		.loc 1 93 0
 120 0010 0223     		movs	r3, #2
 121 0012 2370     		strb	r3, [r4]
 122              	.LVL4:
 123              	.LBB86:
 124              	.LBB87:
 125              	.LBB88:
 126              	.LBB89:
 127              	.LBB90:
 128              	.LBB91:
 129              		.loc 2 548 0
 130 0014 0023     		movs	r3, #0
 131              	@ 548 "../ChibiOS/os/ext/CMSIS/include/core_cmFunc.h" 1
 132 0016 83F31188 		MSR basepri, r3
 133              	@ 0 "" 2
 134              		.thumb
 135 001a 10BD     		pop	{r4, pc}
 136              	.LBE91:
 137              	.LBE90:
 138              	.LBE89:
 139              	.LBE88:
 140              	.LBE87:
 141              	.LBE86:
 142              		.cfi_endproc
 143              	.LFE274:
 144              		.size	extStart, .-extStart
 145 001c AFF30080 		.section	.text.extStop,"ax",%progbits
 146              		.align	2
 147              		.p2align 4,,15
 148              		.global	extStop
 149              		.thumb
 150              		.thumb_func
 151              		.type	extStop, %function
 152              	extStop:
 153              	.LFB275:
 154              		.loc 1 104 0
 155              		.cfi_startproc
 156              		@ args = 0, pretend = 0, frame = 0
 157              		@ frame_needed = 0, uses_anonymous_args = 0
 158              	.LVL5:
 159 0000 10B5     		push	{r4, lr}
 160              		.cfi_def_cfa_offset 8
 161              		.cfi_offset 4, -8
 162              		.cfi_offset 14, -4
 163              	.LBB92:
 164              	.LBB93:
 165              	.LBB94:
 166              	.LBB95:
 167              	.LBB96:
 168              		.loc 2 548 0
ARM GAS  /tmp/ccjXDV90.s 			page 4


 169 0002 2023     		movs	r3, #32
 170              	.LBE96:
 171              	.LBE95:
 172              	.LBE94:
 173              	.LBE93:
 174              	.LBE92:
 175              		.loc 1 104 0
 176 0004 0446     		mov	r4, r0
 177              	.LBB101:
 178              	.LBB100:
 179              	.LBB99:
 180              	.LBB98:
 181              	.LBB97:
 182              		.loc 2 548 0
 183              	@ 548 "../ChibiOS/os/ext/CMSIS/include/core_cmFunc.h" 1
 184 0006 83F31188 		MSR basepri, r3
 185              	@ 0 "" 2
 186              		.thumb
 187              	.LBE97:
 188              	.LBE98:
 189              	.LBE99:
 190              	.LBE100:
 191              	.LBE101:
 192              		.loc 1 111 0
 193 000a FFF7FEFF 		bl	ext_lld_stop
 194              	.LVL6:
 195              		.loc 1 112 0
 196 000e 0123     		movs	r3, #1
 197 0010 2370     		strb	r3, [r4]
 198              	.LVL7:
 199              	.LBB102:
 200              	.LBB103:
 201              	.LBB104:
 202              	.LBB105:
 203              	.LBB106:
 204              	.LBB107:
 205              		.loc 2 548 0
 206 0012 0023     		movs	r3, #0
 207              	@ 548 "../ChibiOS/os/ext/CMSIS/include/core_cmFunc.h" 1
 208 0014 83F31188 		MSR basepri, r3
 209              	@ 0 "" 2
 210              		.thumb
 211 0018 10BD     		pop	{r4, pc}
 212              	.LBE107:
 213              	.LBE106:
 214              	.LBE105:
 215              	.LBE104:
 216              	.LBE103:
 217              	.LBE102:
 218              		.cfi_endproc
 219              	.LFE275:
 220              		.size	extStop, .-extStop
 221 001a 00BFAFF3 		.section	.text.extChannelEnable,"ax",%progbits
 221      0080
 222              		.align	2
 223              		.p2align 4,,15
 224              		.global	extChannelEnable
ARM GAS  /tmp/ccjXDV90.s 			page 5


 225              		.thumb
 226              		.thumb_func
 227              		.type	extChannelEnable, %function
 228              	extChannelEnable:
 229              	.LFB276:
 230              		.loc 1 125 0
 231              		.cfi_startproc
 232              		@ args = 0, pretend = 0, frame = 0
 233              		@ frame_needed = 0, uses_anonymous_args = 0
 234              	.LVL8:
 235 0000 08B5     		push	{r3, lr}
 236              		.cfi_def_cfa_offset 8
 237              		.cfi_offset 3, -8
 238              		.cfi_offset 14, -4
 239              	.LBB108:
 240              	.LBB109:
 241              	.LBB110:
 242              	.LBB111:
 243              	.LBB112:
 244              		.loc 2 548 0
 245 0002 2023     		movs	r3, #32
 246              	@ 548 "../ChibiOS/os/ext/CMSIS/include/core_cmFunc.h" 1
 247 0004 83F31188 		MSR basepri, r3
 248              	@ 0 "" 2
 249              		.thumb
 250              	.LBE112:
 251              	.LBE111:
 252              	.LBE110:
 253              	.LBE109:
 254              	.LBE108:
 255              		.loc 1 134 0
 256 0008 FFF7FEFF 		bl	ext_lld_channel_enable
 257              	.LVL9:
 258              	.LBB113:
 259              	.LBB114:
 260              	.LBB115:
 261              	.LBB116:
 262              	.LBB117:
 263              	.LBB118:
 264              		.loc 2 548 0
 265 000c 0023     		movs	r3, #0
 266              	@ 548 "../ChibiOS/os/ext/CMSIS/include/core_cmFunc.h" 1
 267 000e 83F31188 		MSR basepri, r3
 268              	@ 0 "" 2
 269              		.thumb
 270 0012 08BD     		pop	{r3, pc}
 271              	.LBE118:
 272              	.LBE117:
 273              	.LBE116:
 274              	.LBE115:
 275              	.LBE114:
 276              	.LBE113:
 277              		.cfi_endproc
 278              	.LFE276:
 279              		.size	extChannelEnable, .-extChannelEnable
 280 0014 AFF30080 		.section	.text.extChannelDisable,"ax",%progbits
 280      AFF30080 
ARM GAS  /tmp/ccjXDV90.s 			page 6


 280      AFF30080 
 281              		.align	2
 282              		.p2align 4,,15
 283              		.global	extChannelDisable
 284              		.thumb
 285              		.thumb_func
 286              		.type	extChannelDisable, %function
 287              	extChannelDisable:
 288              	.LFB277:
 289              		.loc 1 147 0
 290              		.cfi_startproc
 291              		@ args = 0, pretend = 0, frame = 0
 292              		@ frame_needed = 0, uses_anonymous_args = 0
 293              	.LVL10:
 294 0000 08B5     		push	{r3, lr}
 295              		.cfi_def_cfa_offset 8
 296              		.cfi_offset 3, -8
 297              		.cfi_offset 14, -4
 298              	.LBB119:
 299              	.LBB120:
 300              	.LBB121:
 301              	.LBB122:
 302              	.LBB123:
 303              		.loc 2 548 0
 304 0002 2023     		movs	r3, #32
 305              	@ 548 "../ChibiOS/os/ext/CMSIS/include/core_cmFunc.h" 1
 306 0004 83F31188 		MSR basepri, r3
 307              	@ 0 "" 2
 308              		.thumb
 309              	.LBE123:
 310              	.LBE122:
 311              	.LBE121:
 312              	.LBE120:
 313              	.LBE119:
 314              		.loc 1 156 0
 315 0008 FFF7FEFF 		bl	ext_lld_channel_disable
 316              	.LVL11:
 317              	.LBB124:
 318              	.LBB125:
 319              	.LBB126:
 320              	.LBB127:
 321              	.LBB128:
 322              	.LBB129:
 323              		.loc 2 548 0
 324 000c 0023     		movs	r3, #0
 325              	@ 548 "../ChibiOS/os/ext/CMSIS/include/core_cmFunc.h" 1
 326 000e 83F31188 		MSR basepri, r3
 327              	@ 0 "" 2
 328              		.thumb
 329 0012 08BD     		pop	{r3, pc}
 330              	.LBE129:
 331              	.LBE128:
 332              	.LBE127:
 333              	.LBE126:
 334              	.LBE125:
 335              	.LBE124:
 336              		.cfi_endproc
ARM GAS  /tmp/ccjXDV90.s 			page 7


 337              	.LFE277:
 338              		.size	extChannelDisable, .-extChannelDisable
 339 0014 AFF30080 		.section	.text.extSetChannelModeI,"ax",%progbits
 339      AFF30080 
 339      AFF30080 
 340              		.align	2
 341              		.p2align 4,,15
 342              		.global	extSetChannelModeI
 343              		.thumb
 344              		.thumb_func
 345              		.type	extSetChannelModeI, %function
 346              	extSetChannelModeI:
 347              	.LFB278:
 348              		.loc 1 179 0
 349              		.cfi_startproc
 350              		@ args = 0, pretend = 0, frame = 0
 351              		@ frame_needed = 0, uses_anonymous_args = 0
 352              		@ link register save eliminated.
 353              	.LVL12:
 354 0000 30B4     		push	{r4, r5}
 355              		.cfi_def_cfa_offset 8
 356              		.cfi_offset 4, -8
 357              		.cfi_offset 5, -4
 358              		.loc 1 179 0
 359 0002 0B46     		mov	r3, r1
 360              	.LVL13:
 361              		.loc 1 196 0
 362 0004 4568     		ldr	r5, [r0, #4]
 363              		.loc 1 179 0
 364 0006 0446     		mov	r4, r0
 365              		.loc 1 196 0
 366 0008 92E80300 		ldmia	r2, {r0, r1}
 367              	.LVL14:
 368 000c 05EBC302 		add	r2, r5, r3, lsl #3
 369              	.LVL15:
 370 0010 82E80300 		stmia	r2, {r0, r1}
 371              		.loc 1 197 0
 372 0014 2046     		mov	r0, r4
 373 0016 1946     		mov	r1, r3
 374              		.loc 1 198 0
 375 0018 30BC     		pop	{r4, r5}
 376              	.LVL16:
 377              		.loc 1 197 0
 378 001a FFF7FEBF 		b	ext_lld_channel_enable
 379              	.LVL17:
 380              		.cfi_endproc
 381              	.LFE278:
 382              		.size	extSetChannelModeI, .-extSetChannelModeI
 383 001e 00BF     		.text
 384              	.Letext0:
 385              		.file 3 "/nfs/nfs5/home/research/hardware/arm2/gcc-arm-embedded/gcc-arm-none-eabi-4_8-2014q2/arm-n
 386              		.file 4 "/nfs/nfs5/home/research/hardware/arm2/gcc-arm-embedded/gcc-arm-none-eabi-4_8-2014q2/arm-n
 387              		.file 5 "../ChibiOS/os/rt/ports/ARMCMx/compilers/GCC/chtypes.h"
 388              		.file 6 "../ChibiOS/os/rt/include/chsystypes.h"
 389              		.file 7 "../ChibiOS/os/rt/include/chschd.h"
 390              		.file 8 "../ChibiOS/os/rt/ports/ARMCMx/chcore.h"
 391              		.file 9 "../ChibiOS/os/rt/ports/ARMCMx/chcore_v7m.h"
ARM GAS  /tmp/ccjXDV90.s 			page 8


 392              		.file 10 "../ChibiOS/os/rt/include/chtm.h"
 393              		.file 11 "../ChibiOS/os/rt/include/chsem.h"
 394              		.file 12 "../ChibiOS/os/rt/include/chmtx.h"
 395              		.file 13 "../ChibiOS/os/hal/include/ext.h"
 396              		.file 14 "../ChibiOS/os/hal/ports/STM32/LLD/EXTIv1/ext_lld.h"
 397              		.file 15 "../ChibiOS/os/rt/include/chsys.h"
 398              		.file 16 "../ChibiOS/os/hal/osal/rt/osal.h"
 399              		.file 17 "../ChibiOS/os/ext/CMSIS/include/core_cm4.h"