ARM GAS  /tmp/ccZqK06Y.s 			page 1


   1              		.syntax unified
   2              		.cpu cortex-m4
   3              		.fpu softvfp
   4              		.eabi_attribute 20, 1
   5              		.eabi_attribute 21, 1
   6              		.eabi_attribute 23, 3
   7              		.eabi_attribute 24, 1
   8              		.eabi_attribute 25, 1
   9              		.eabi_attribute 26, 1
  10              		.eabi_attribute 30, 2
  11              		.eabi_attribute 34, 1
  12              		.eabi_attribute 18, 4
  13              		.thumb
  14              		.file	"ext_lld_isr.c"
  15              		.text
  16              	.Ltext0:
  17              		.cfi_sections	.debug_frame
  18              		.section	.text.Vector58,"ax",%progbits
  19              		.align	2
  20              		.p2align 4,,15
  21              		.global	Vector58
  22              		.thumb
  23              		.thumb_func
  24              		.type	Vector58, %function
  25              	Vector58:
  26              	.LFB272:
  27              		.file 1 "../ChibiOS/os/hal/ports/STM32/STM32F3xx/ext_lld_isr.c"
  28              		.loc 1 57 0
  29              		.cfi_startproc
  30              		@ args = 0, pretend = 0, frame = 0
  31              		@ frame_needed = 0, uses_anonymous_args = 0
  32 0000 08B5     		push	{r3, lr}
  33              		.cfi_def_cfa_offset 8
  34              		.cfi_offset 3, -8
  35              		.cfi_offset 14, -4
  36              		.loc 1 62 0
  37 0002 084B     		ldr	r3, .L7
  38 0004 5969     		ldr	r1, [r3, #20]
  39 0006 1A68     		ldr	r2, [r3]
  40 0008 0A40     		ands	r2, r2, r1
  41 000a 02F00102 		and	r2, r2, #1
  42              	.LVL0:
  43              		.loc 1 63 0
  44 000e 5A61     		str	r2, [r3, #20]
  45              		.loc 1 64 0
  46 0010 22B1     		cbz	r2, .L2
  47              		.loc 1 65 0
  48 0012 0548     		ldr	r0, .L7+4
  49 0014 4368     		ldr	r3, [r0, #4]
  50 0016 0021     		movs	r1, #0
  51 0018 5B68     		ldr	r3, [r3, #4]
  52 001a 9847     		blx	r3
  53              	.LVL1:
  54              	.L2:
  55              		.loc 1 68 0
  56 001c BDE80840 		pop	{r3, lr}
  57              		.loc 1 67 0
ARM GAS  /tmp/ccZqK06Y.s 			page 2


  58 0020 FFF7FEBF 		b	_port_irq_epilogue
  59              	.LVL2:
  60              	.L8:
  61              		.align	2
  62              	.L7:
  63 0024 00040140 		.word	1073808384
  64 0028 00000000 		.word	EXTD1
  65              		.cfi_endproc
  66              	.LFE272:
  67              		.size	Vector58, .-Vector58
  68 002c AFF30080 		.section	.text.Vector5C,"ax",%progbits
  69              		.align	2
  70              		.p2align 4,,15
  71              		.global	Vector5C
  72              		.thumb
  73              		.thumb_func
  74              		.type	Vector5C, %function
  75              	Vector5C:
  76              	.LFB273:
  77              		.loc 1 77 0
  78              		.cfi_startproc
  79              		@ args = 0, pretend = 0, frame = 0
  80              		@ frame_needed = 0, uses_anonymous_args = 0
  81 0000 08B5     		push	{r3, lr}
  82              		.cfi_def_cfa_offset 8
  83              		.cfi_offset 3, -8
  84              		.cfi_offset 14, -4
  85              		.loc 1 82 0
  86 0002 084B     		ldr	r3, .L14
  87 0004 5969     		ldr	r1, [r3, #20]
  88 0006 1A68     		ldr	r2, [r3]
  89 0008 0A40     		ands	r2, r2, r1
  90 000a 02F00202 		and	r2, r2, #2
  91              	.LVL3:
  92              		.loc 1 83 0
  93 000e 5A61     		str	r2, [r3, #20]
  94              		.loc 1 84 0
  95 0010 22B1     		cbz	r2, .L10
  96              		.loc 1 85 0
  97 0012 0548     		ldr	r0, .L14+4
  98 0014 4368     		ldr	r3, [r0, #4]
  99 0016 0121     		movs	r1, #1
 100 0018 DB68     		ldr	r3, [r3, #12]
 101 001a 9847     		blx	r3
 102              	.LVL4:
 103              	.L10:
 104              		.loc 1 88 0
 105 001c BDE80840 		pop	{r3, lr}
 106              		.loc 1 87 0
 107 0020 FFF7FEBF 		b	_port_irq_epilogue
 108              	.LVL5:
 109              	.L15:
 110              		.align	2
 111              	.L14:
 112 0024 00040140 		.word	1073808384
 113 0028 00000000 		.word	EXTD1
 114              		.cfi_endproc
ARM GAS  /tmp/ccZqK06Y.s 			page 3


 115              	.LFE273:
 116              		.size	Vector5C, .-Vector5C
 117 002c AFF30080 		.section	.text.Vector60,"ax",%progbits
 118              		.align	2
 119              		.p2align 4,,15
 120              		.global	Vector60
 121              		.thumb
 122              		.thumb_func
 123              		.type	Vector60, %function
 124              	Vector60:
 125              	.LFB274:
 126              		.loc 1 97 0
 127              		.cfi_startproc
 128              		@ args = 0, pretend = 0, frame = 0
 129              		@ frame_needed = 0, uses_anonymous_args = 0
 130 0000 08B5     		push	{r3, lr}
 131              		.cfi_def_cfa_offset 8
 132              		.cfi_offset 3, -8
 133              		.cfi_offset 14, -4
 134              		.loc 1 102 0
 135 0002 084B     		ldr	r3, .L21
 136 0004 5969     		ldr	r1, [r3, #20]
 137 0006 1A68     		ldr	r2, [r3]
 138 0008 0A40     		ands	r2, r2, r1
 139 000a 02F00402 		and	r2, r2, #4
 140              	.LVL6:
 141              		.loc 1 103 0
 142 000e 5A61     		str	r2, [r3, #20]
 143              		.loc 1 104 0
 144 0010 22B1     		cbz	r2, .L17
 145              		.loc 1 105 0
 146 0012 0548     		ldr	r0, .L21+4
 147 0014 4368     		ldr	r3, [r0, #4]
 148 0016 0221     		movs	r1, #2
 149 0018 5B69     		ldr	r3, [r3, #20]
 150 001a 9847     		blx	r3
 151              	.LVL7:
 152              	.L17:
 153              		.loc 1 108 0
 154 001c BDE80840 		pop	{r3, lr}
 155              		.loc 1 107 0
 156 0020 FFF7FEBF 		b	_port_irq_epilogue
 157              	.LVL8:
 158              	.L22:
 159              		.align	2
 160              	.L21:
 161 0024 00040140 		.word	1073808384
 162 0028 00000000 		.word	EXTD1
 163              		.cfi_endproc
 164              	.LFE274:
 165              		.size	Vector60, .-Vector60
 166 002c AFF30080 		.section	.text.Vector64,"ax",%progbits
 167              		.align	2
 168              		.p2align 4,,15
 169              		.global	Vector64
 170              		.thumb
 171              		.thumb_func
ARM GAS  /tmp/ccZqK06Y.s 			page 4


 172              		.type	Vector64, %function
 173              	Vector64:
 174              	.LFB275:
 175              		.loc 1 117 0
 176              		.cfi_startproc
 177              		@ args = 0, pretend = 0, frame = 0
 178              		@ frame_needed = 0, uses_anonymous_args = 0
 179 0000 08B5     		push	{r3, lr}
 180              		.cfi_def_cfa_offset 8
 181              		.cfi_offset 3, -8
 182              		.cfi_offset 14, -4
 183              		.loc 1 122 0
 184 0002 084B     		ldr	r3, .L28
 185 0004 5969     		ldr	r1, [r3, #20]
 186 0006 1A68     		ldr	r2, [r3]
 187 0008 0A40     		ands	r2, r2, r1
 188 000a 02F00802 		and	r2, r2, #8
 189              	.LVL9:
 190              		.loc 1 123 0
 191 000e 5A61     		str	r2, [r3, #20]
 192              		.loc 1 124 0
 193 0010 22B1     		cbz	r2, .L24
 194              		.loc 1 125 0
 195 0012 0548     		ldr	r0, .L28+4
 196 0014 4368     		ldr	r3, [r0, #4]
 197 0016 0321     		movs	r1, #3
 198 0018 DB69     		ldr	r3, [r3, #28]
 199 001a 9847     		blx	r3
 200              	.LVL10:
 201              	.L24:
 202              		.loc 1 128 0
 203 001c BDE80840 		pop	{r3, lr}
 204              		.loc 1 127 0
 205 0020 FFF7FEBF 		b	_port_irq_epilogue
 206              	.LVL11:
 207              	.L29:
 208              		.align	2
 209              	.L28:
 210 0024 00040140 		.word	1073808384
 211 0028 00000000 		.word	EXTD1
 212              		.cfi_endproc
 213              	.LFE275:
 214              		.size	Vector64, .-Vector64
 215 002c AFF30080 		.section	.text.Vector68,"ax",%progbits
 216              		.align	2
 217              		.p2align 4,,15
 218              		.global	Vector68
 219              		.thumb
 220              		.thumb_func
 221              		.type	Vector68, %function
 222              	Vector68:
 223              	.LFB276:
 224              		.loc 1 137 0
 225              		.cfi_startproc
 226              		@ args = 0, pretend = 0, frame = 0
 227              		@ frame_needed = 0, uses_anonymous_args = 0
 228 0000 08B5     		push	{r3, lr}
ARM GAS  /tmp/ccZqK06Y.s 			page 5


 229              		.cfi_def_cfa_offset 8
 230              		.cfi_offset 3, -8
 231              		.cfi_offset 14, -4
 232              		.loc 1 142 0
 233 0002 084B     		ldr	r3, .L35
 234 0004 5969     		ldr	r1, [r3, #20]
 235 0006 1A68     		ldr	r2, [r3]
 236 0008 0A40     		ands	r2, r2, r1
 237 000a 02F01002 		and	r2, r2, #16
 238              	.LVL12:
 239              		.loc 1 143 0
 240 000e 5A61     		str	r2, [r3, #20]
 241              		.loc 1 144 0
 242 0010 22B1     		cbz	r2, .L31
 243              		.loc 1 145 0
 244 0012 0548     		ldr	r0, .L35+4
 245 0014 4368     		ldr	r3, [r0, #4]
 246 0016 0421     		movs	r1, #4
 247 0018 5B6A     		ldr	r3, [r3, #36]
 248 001a 9847     		blx	r3
 249              	.LVL13:
 250              	.L31:
 251              		.loc 1 148 0
 252 001c BDE80840 		pop	{r3, lr}
 253              		.loc 1 147 0
 254 0020 FFF7FEBF 		b	_port_irq_epilogue
 255              	.LVL14:
 256              	.L36:
 257              		.align	2
 258              	.L35:
 259 0024 00040140 		.word	1073808384
 260 0028 00000000 		.word	EXTD1
 261              		.cfi_endproc
 262              	.LFE276:
 263              		.size	Vector68, .-Vector68
 264 002c AFF30080 		.section	.text.Vector9C,"ax",%progbits
 265              		.align	2
 266              		.p2align 4,,15
 267              		.global	Vector9C
 268              		.thumb
 269              		.thumb_func
 270              		.type	Vector9C, %function
 271              	Vector9C:
 272              	.LFB277:
 273              		.loc 1 157 0
 274              		.cfi_startproc
 275              		@ args = 0, pretend = 0, frame = 0
 276              		@ frame_needed = 0, uses_anonymous_args = 0
 277              		.loc 1 162 0
 278 0000 194B     		ldr	r3, .L62
 279              		.loc 1 157 0
 280 0002 10B5     		push	{r4, lr}
 281              		.cfi_def_cfa_offset 8
 282              		.cfi_offset 4, -8
 283              		.cfi_offset 14, -4
 284              		.loc 1 162 0
 285 0004 5A69     		ldr	r2, [r3, #20]
ARM GAS  /tmp/ccZqK06Y.s 			page 6


 286 0006 1C68     		ldr	r4, [r3]
 287 0008 1440     		ands	r4, r4, r2
 288 000a 04F47872 		and	r2, r4, #992
 289              	.LVL15:
 290              		.loc 1 164 0
 291 000e 5A61     		str	r2, [r3, #20]
 292              		.loc 1 165 0
 293 0010 A306     		lsls	r3, r4, #26
 294 0012 22D4     		bmi	.L58
 295              	.LVL16:
 296              	.L38:
 297              		.loc 1 167 0
 298 0014 6006     		lsls	r0, r4, #25
 299 0016 1AD4     		bmi	.L59
 300              	.L39:
 301              		.loc 1 169 0
 302 0018 2106     		lsls	r1, r4, #24
 303 001a 12D4     		bmi	.L60
 304              	.L40:
 305              		.loc 1 171 0
 306 001c E205     		lsls	r2, r4, #23
 307 001e 0AD4     		bmi	.L61
 308              	.L41:
 309              		.loc 1 173 0
 310 0020 A305     		lsls	r3, r4, #22
 311 0022 04D5     		bpl	.L42
 312              		.loc 1 174 0
 313 0024 1148     		ldr	r0, .L62+4
 314 0026 4368     		ldr	r3, [r0, #4]
 315 0028 0921     		movs	r1, #9
 316 002a DB6C     		ldr	r3, [r3, #76]
 317 002c 9847     		blx	r3
 318              	.LVL17:
 319              	.L42:
 320              		.loc 1 177 0
 321 002e BDE81040 		pop	{r4, lr}
 322              	.LVL18:
 323              		.loc 1 176 0
 324 0032 FFF7FEBF 		b	_port_irq_epilogue
 325              	.LVL19:
 326              	.L61:
 327              		.loc 1 172 0
 328 0036 0D48     		ldr	r0, .L62+4
 329 0038 4368     		ldr	r3, [r0, #4]
 330 003a 0821     		movs	r1, #8
 331 003c 5B6C     		ldr	r3, [r3, #68]
 332 003e 9847     		blx	r3
 333              	.LVL20:
 334 0040 EEE7     		b	.L41
 335              	.L60:
 336              		.loc 1 170 0
 337 0042 0A48     		ldr	r0, .L62+4
 338 0044 4368     		ldr	r3, [r0, #4]
 339 0046 0721     		movs	r1, #7
 340 0048 DB6B     		ldr	r3, [r3, #60]
 341 004a 9847     		blx	r3
 342              	.LVL21:
ARM GAS  /tmp/ccZqK06Y.s 			page 7


 343 004c E6E7     		b	.L40
 344              	.L59:
 345              		.loc 1 168 0
 346 004e 0748     		ldr	r0, .L62+4
 347 0050 4368     		ldr	r3, [r0, #4]
 348 0052 0621     		movs	r1, #6
 349 0054 5B6B     		ldr	r3, [r3, #52]
 350 0056 9847     		blx	r3
 351              	.LVL22:
 352 0058 DEE7     		b	.L39
 353              	.LVL23:
 354              	.L58:
 355              		.loc 1 166 0
 356 005a 0448     		ldr	r0, .L62+4
 357 005c 4368     		ldr	r3, [r0, #4]
 358 005e 0521     		movs	r1, #5
 359 0060 DB6A     		ldr	r3, [r3, #44]
 360 0062 9847     		blx	r3
 361              	.LVL24:
 362 0064 D6E7     		b	.L38
 363              	.L63:
 364 0066 00BF     		.align	2
 365              	.L62:
 366 0068 00040140 		.word	1073808384
 367 006c 00000000 		.word	EXTD1
 368              		.cfi_endproc
 369              	.LFE277:
 370              		.size	Vector9C, .-Vector9C
 371              		.section	.text.VectorE0,"ax",%progbits
 372              		.align	2
 373              		.p2align 4,,15
 374              		.global	VectorE0
 375              		.thumb
 376              		.thumb_func
 377              		.type	VectorE0, %function
 378              	VectorE0:
 379              	.LFB278:
 380              		.loc 1 186 0
 381              		.cfi_startproc
 382              		@ args = 0, pretend = 0, frame = 0
 383              		@ frame_needed = 0, uses_anonymous_args = 0
 384              		.loc 1 191 0
 385 0000 1D4B     		ldr	r3, .L94
 386              		.loc 1 186 0
 387 0002 10B5     		push	{r4, lr}
 388              		.cfi_def_cfa_offset 8
 389              		.cfi_offset 4, -8
 390              		.cfi_offset 14, -4
 391              		.loc 1 191 0
 392 0004 5A69     		ldr	r2, [r3, #20]
 393 0006 1C68     		ldr	r4, [r3]
 394 0008 1440     		ands	r4, r4, r2
 395 000a 04F47C42 		and	r2, r4, #64512
 396              	.LVL25:
 397              		.loc 1 193 0
 398 000e 5A61     		str	r2, [r3, #20]
 399              		.loc 1 194 0
ARM GAS  /tmp/ccZqK06Y.s 			page 8


 400 0010 6205     		lsls	r2, r4, #21
 401              	.LVL26:
 402 0012 2AD4     		bmi	.L89
 403              	.LVL27:
 404              	.L65:
 405              		.loc 1 196 0
 406 0014 2305     		lsls	r3, r4, #20
 407 0016 22D4     		bmi	.L90
 408              	.L66:
 409              		.loc 1 198 0
 410 0018 E004     		lsls	r0, r4, #19
 411 001a 1AD4     		bmi	.L91
 412              	.L67:
 413              		.loc 1 200 0
 414 001c A104     		lsls	r1, r4, #18
 415 001e 12D4     		bmi	.L92
 416              	.L68:
 417              		.loc 1 202 0
 418 0020 6204     		lsls	r2, r4, #17
 419 0022 0AD4     		bmi	.L93
 420              	.L69:
 421              		.loc 1 204 0
 422 0024 2304     		lsls	r3, r4, #16
 423 0026 04D5     		bpl	.L70
 424              		.loc 1 205 0
 425 0028 1448     		ldr	r0, .L94+4
 426 002a 4368     		ldr	r3, [r0, #4]
 427 002c 0F21     		movs	r1, #15
 428 002e DB6F     		ldr	r3, [r3, #124]
 429 0030 9847     		blx	r3
 430              	.LVL28:
 431              	.L70:
 432              		.loc 1 208 0
 433 0032 BDE81040 		pop	{r4, lr}
 434              	.LVL29:
 435              		.loc 1 207 0
 436 0036 FFF7FEBF 		b	_port_irq_epilogue
 437              	.LVL30:
 438              	.L93:
 439              		.loc 1 203 0
 440 003a 1048     		ldr	r0, .L94+4
 441 003c 4368     		ldr	r3, [r0, #4]
 442 003e 0E21     		movs	r1, #14
 443 0040 5B6F     		ldr	r3, [r3, #116]
 444 0042 9847     		blx	r3
 445              	.LVL31:
 446 0044 EEE7     		b	.L69
 447              	.L92:
 448              		.loc 1 201 0
 449 0046 0D48     		ldr	r0, .L94+4
 450 0048 4368     		ldr	r3, [r0, #4]
 451 004a 0D21     		movs	r1, #13
 452 004c DB6E     		ldr	r3, [r3, #108]
 453 004e 9847     		blx	r3
 454              	.LVL32:
 455 0050 E6E7     		b	.L68
 456              	.L91:
ARM GAS  /tmp/ccZqK06Y.s 			page 9


 457              		.loc 1 199 0
 458 0052 0A48     		ldr	r0, .L94+4
 459 0054 4368     		ldr	r3, [r0, #4]
 460 0056 0C21     		movs	r1, #12
 461 0058 5B6E     		ldr	r3, [r3, #100]
 462 005a 9847     		blx	r3
 463              	.LVL33:
 464 005c DEE7     		b	.L67
 465              	.L90:
 466              		.loc 1 197 0
 467 005e 0748     		ldr	r0, .L94+4
 468 0060 4368     		ldr	r3, [r0, #4]
 469 0062 0B21     		movs	r1, #11
 470 0064 DB6D     		ldr	r3, [r3, #92]
 471 0066 9847     		blx	r3
 472              	.LVL34:
 473 0068 D6E7     		b	.L66
 474              	.LVL35:
 475              	.L89:
 476              		.loc 1 195 0
 477 006a 0448     		ldr	r0, .L94+4
 478 006c 4368     		ldr	r3, [r0, #4]
 479              	.LVL36:
 480 006e 0A21     		movs	r1, #10
 481 0070 5B6D     		ldr	r3, [r3, #84]
 482 0072 9847     		blx	r3
 483              	.LVL37:
 484 0074 CEE7     		b	.L65
 485              	.L95:
 486 0076 00BF     		.align	2
 487              	.L94:
 488 0078 00040140 		.word	1073808384
 489 007c 00000000 		.word	EXTD1
 490              		.cfi_endproc
 491              	.LFE278:
 492              		.size	VectorE0, .-VectorE0
 493              		.section	.text.Vector44,"ax",%progbits
 494              		.align	2
 495              		.p2align 4,,15
 496              		.global	Vector44
 497              		.thumb
 498              		.thumb_func
 499              		.type	Vector44, %function
 500              	Vector44:
 501              	.LFB279:
 502              		.loc 1 217 0
 503              		.cfi_startproc
 504              		@ args = 0, pretend = 0, frame = 0
 505              		@ frame_needed = 0, uses_anonymous_args = 0
 506 0000 08B5     		push	{r3, lr}
 507              		.cfi_def_cfa_offset 8
 508              		.cfi_offset 3, -8
 509              		.cfi_offset 14, -4
 510              		.loc 1 222 0
 511 0002 094B     		ldr	r3, .L101
 512 0004 5969     		ldr	r1, [r3, #20]
 513 0006 1A68     		ldr	r2, [r3]
ARM GAS  /tmp/ccZqK06Y.s 			page 10


 514 0008 0A40     		ands	r2, r2, r1
 515 000a 02F48032 		and	r2, r2, #65536
 516              	.LVL38:
 517              		.loc 1 223 0
 518 000e 5A61     		str	r2, [r3, #20]
 519              		.loc 1 224 0
 520 0010 2AB1     		cbz	r2, .L97
 521              		.loc 1 225 0
 522 0012 0648     		ldr	r0, .L101+4
 523 0014 4368     		ldr	r3, [r0, #4]
 524 0016 1021     		movs	r1, #16
 525 0018 D3F88430 		ldr	r3, [r3, #132]
 526 001c 9847     		blx	r3
 527              	.LVL39:
 528              	.L97:
 529              		.loc 1 228 0
 530 001e BDE80840 		pop	{r3, lr}
 531              		.loc 1 227 0
 532 0022 FFF7FEBF 		b	_port_irq_epilogue
 533              	.LVL40:
 534              	.L102:
 535 0026 00BF     		.align	2
 536              	.L101:
 537 0028 00040140 		.word	1073808384
 538 002c 00000000 		.word	EXTD1
 539              		.cfi_endproc
 540              	.LFE279:
 541              		.size	Vector44, .-Vector44
 542              		.section	.text.VectorE4,"ax",%progbits
 543              		.align	2
 544              		.p2align 4,,15
 545              		.global	VectorE4
 546              		.thumb
 547              		.thumb_func
 548              		.type	VectorE4, %function
 549              	VectorE4:
 550              	.LFB280:
 551              		.loc 1 237 0
 552              		.cfi_startproc
 553              		@ args = 0, pretend = 0, frame = 0
 554              		@ frame_needed = 0, uses_anonymous_args = 0
 555 0000 08B5     		push	{r3, lr}
 556              		.cfi_def_cfa_offset 8
 557              		.cfi_offset 3, -8
 558              		.cfi_offset 14, -4
 559              		.loc 1 242 0
 560 0002 094B     		ldr	r3, .L108
 561 0004 5969     		ldr	r1, [r3, #20]
 562 0006 1A68     		ldr	r2, [r3]
 563 0008 0A40     		ands	r2, r2, r1
 564 000a 02F40032 		and	r2, r2, #131072
 565              	.LVL41:
 566              		.loc 1 243 0
 567 000e 5A61     		str	r2, [r3, #20]
 568              		.loc 1 244 0
 569 0010 2AB1     		cbz	r2, .L104
 570              		.loc 1 245 0
ARM GAS  /tmp/ccZqK06Y.s 			page 11


 571 0012 0648     		ldr	r0, .L108+4
 572 0014 4368     		ldr	r3, [r0, #4]
 573 0016 1121     		movs	r1, #17
 574 0018 D3F88C30 		ldr	r3, [r3, #140]
 575 001c 9847     		blx	r3
 576              	.LVL42:
 577              	.L104:
 578              		.loc 1 248 0
 579 001e BDE80840 		pop	{r3, lr}
 580              		.loc 1 247 0
 581 0022 FFF7FEBF 		b	_port_irq_epilogue
 582              	.LVL43:
 583              	.L109:
 584 0026 00BF     		.align	2
 585              	.L108:
 586 0028 00040140 		.word	1073808384
 587 002c 00000000 		.word	EXTD1
 588              		.cfi_endproc
 589              	.LFE280:
 590              		.size	VectorE4, .-VectorE4
 591              		.section	.text.VectorE8,"ax",%progbits
 592              		.align	2
 593              		.p2align 4,,15
 594              		.global	VectorE8
 595              		.thumb
 596              		.thumb_func
 597              		.type	VectorE8, %function
 598              	VectorE8:
 599              	.LFB281:
 600              		.loc 1 257 0
 601              		.cfi_startproc
 602              		@ args = 0, pretend = 0, frame = 0
 603              		@ frame_needed = 0, uses_anonymous_args = 0
 604 0000 08B5     		push	{r3, lr}
 605              		.cfi_def_cfa_offset 8
 606              		.cfi_offset 3, -8
 607              		.cfi_offset 14, -4
 608              		.loc 1 262 0
 609 0002 094B     		ldr	r3, .L115
 610 0004 5969     		ldr	r1, [r3, #20]
 611 0006 1A68     		ldr	r2, [r3]
 612 0008 0A40     		ands	r2, r2, r1
 613 000a 02F48022 		and	r2, r2, #262144
 614              	.LVL44:
 615              		.loc 1 263 0
 616 000e 5A61     		str	r2, [r3, #20]
 617              		.loc 1 264 0
 618 0010 2AB1     		cbz	r2, .L111
 619              		.loc 1 265 0
 620 0012 0648     		ldr	r0, .L115+4
 621 0014 4368     		ldr	r3, [r0, #4]
 622 0016 1221     		movs	r1, #18
 623 0018 D3F89430 		ldr	r3, [r3, #148]
 624 001c 9847     		blx	r3
 625              	.LVL45:
 626              	.L111:
 627              		.loc 1 268 0
ARM GAS  /tmp/ccZqK06Y.s 			page 12


 628 001e BDE80840 		pop	{r3, lr}
 629              		.loc 1 267 0
 630 0022 FFF7FEBF 		b	_port_irq_epilogue
 631              	.LVL46:
 632              	.L116:
 633 0026 00BF     		.align	2
 634              	.L115:
 635 0028 00040140 		.word	1073808384
 636 002c 00000000 		.word	EXTD1
 637              		.cfi_endproc
 638              	.LFE281:
 639              		.size	VectorE8, .-VectorE8
 640              		.section	.text.Vector48,"ax",%progbits
 641              		.align	2
 642              		.p2align 4,,15
 643              		.global	Vector48
 644              		.thumb
 645              		.thumb_func
 646              		.type	Vector48, %function
 647              	Vector48:
 648              	.LFB282:
 649              		.loc 1 277 0
 650              		.cfi_startproc
 651              		@ args = 0, pretend = 0, frame = 0
 652              		@ frame_needed = 0, uses_anonymous_args = 0
 653 0000 08B5     		push	{r3, lr}
 654              		.cfi_def_cfa_offset 8
 655              		.cfi_offset 3, -8
 656              		.cfi_offset 14, -4
 657              		.loc 1 282 0
 658 0002 094B     		ldr	r3, .L122
 659 0004 5969     		ldr	r1, [r3, #20]
 660 0006 1A68     		ldr	r2, [r3]
 661 0008 0A40     		ands	r2, r2, r1
 662 000a 02F40022 		and	r2, r2, #524288
 663              	.LVL47:
 664              		.loc 1 283 0
 665 000e 5A61     		str	r2, [r3, #20]
 666              		.loc 1 284 0
 667 0010 2AB1     		cbz	r2, .L118
 668              		.loc 1 285 0
 669 0012 0648     		ldr	r0, .L122+4
 670 0014 4368     		ldr	r3, [r0, #4]
 671 0016 1321     		movs	r1, #19
 672 0018 D3F89C30 		ldr	r3, [r3, #156]
 673 001c 9847     		blx	r3
 674              	.LVL48:
 675              	.L118:
 676              		.loc 1 288 0
 677 001e BDE80840 		pop	{r3, lr}
 678              		.loc 1 287 0
 679 0022 FFF7FEBF 		b	_port_irq_epilogue
 680              	.LVL49:
 681              	.L123:
 682 0026 00BF     		.align	2
 683              	.L122:
 684 0028 00040140 		.word	1073808384
ARM GAS  /tmp/ccZqK06Y.s 			page 13


 685 002c 00000000 		.word	EXTD1
 686              		.cfi_endproc
 687              	.LFE282:
 688              		.size	Vector48, .-Vector48
 689              		.section	.text.Vector4C,"ax",%progbits
 690              		.align	2
 691              		.p2align 4,,15
 692              		.global	Vector4C
 693              		.thumb
 694              		.thumb_func
 695              		.type	Vector4C, %function
 696              	Vector4C:
 697              	.LFB283:
 698              		.loc 1 297 0
 699              		.cfi_startproc
 700              		@ args = 0, pretend = 0, frame = 0
 701              		@ frame_needed = 0, uses_anonymous_args = 0
 702 0000 08B5     		push	{r3, lr}
 703              		.cfi_def_cfa_offset 8
 704              		.cfi_offset 3, -8
 705              		.cfi_offset 14, -4
 706              		.loc 1 302 0
 707 0002 094B     		ldr	r3, .L129
 708 0004 5969     		ldr	r1, [r3, #20]
 709 0006 1A68     		ldr	r2, [r3]
 710 0008 0A40     		ands	r2, r2, r1
 711 000a 02F48012 		and	r2, r2, #1048576
 712              	.LVL50:
 713              		.loc 1 303 0
 714 000e 5A61     		str	r2, [r3, #20]
 715              		.loc 1 304 0
 716 0010 2AB1     		cbz	r2, .L125
 717              		.loc 1 305 0
 718 0012 0648     		ldr	r0, .L129+4
 719 0014 4368     		ldr	r3, [r0, #4]
 720 0016 1421     		movs	r1, #20
 721 0018 D3F8A430 		ldr	r3, [r3, #164]
 722 001c 9847     		blx	r3
 723              	.LVL51:
 724              	.L125:
 725              		.loc 1 308 0
 726 001e BDE80840 		pop	{r3, lr}
 727              		.loc 1 307 0
 728 0022 FFF7FEBF 		b	_port_irq_epilogue
 729              	.LVL52:
 730              	.L130:
 731 0026 00BF     		.align	2
 732              	.L129:
 733 0028 00040140 		.word	1073808384
 734 002c 00000000 		.word	EXTD1
 735              		.cfi_endproc
 736              	.LFE283:
 737              		.size	Vector4C, .-Vector4C
 738              		.section	.text.Vector140,"ax",%progbits
 739              		.align	2
 740              		.p2align 4,,15
 741              		.global	Vector140
ARM GAS  /tmp/ccZqK06Y.s 			page 14


 742              		.thumb
 743              		.thumb_func
 744              		.type	Vector140, %function
 745              	Vector140:
 746              	.LFB284:
 747              		.loc 1 317 0
 748              		.cfi_startproc
 749              		@ args = 0, pretend = 0, frame = 0
 750              		@ frame_needed = 0, uses_anonymous_args = 0
 751              		.loc 1 322 0
 752 0000 124B     		ldr	r3, .L146
 753 0002 134A     		ldr	r2, .L146+4
 754 0004 5969     		ldr	r1, [r3, #20]
 755              		.loc 1 317 0
 756 0006 10B5     		push	{r4, lr}
 757              		.cfi_def_cfa_offset 8
 758              		.cfi_offset 4, -8
 759              		.cfi_offset 14, -4
 760              		.loc 1 322 0
 761 0008 1C68     		ldr	r4, [r3]
 762 000a 0C40     		ands	r4, r4, r1
 763 000c 2240     		ands	r2, r2, r4
 764              	.LVL53:
 765              		.loc 1 324 0
 766 000e A102     		lsls	r1, r4, #10
 767              		.loc 1 323 0
 768 0010 5A61     		str	r2, [r3, #20]
 769              		.loc 1 324 0
 770 0012 14D4     		bmi	.L144
 771              	.LVL54:
 772              	.L132:
 773              		.loc 1 326 0
 774 0014 6202     		lsls	r2, r4, #9
 775 0016 0BD4     		bmi	.L145
 776              	.L133:
 777              		.loc 1 328 0
 778 0018 A300     		lsls	r3, r4, #2
 779 001a 05D5     		bpl	.L134
 780              		.loc 1 329 0
 781 001c 0D48     		ldr	r0, .L146+8
 782 001e 4368     		ldr	r3, [r0, #4]
 783 0020 1D21     		movs	r1, #29
 784 0022 D3F8EC30 		ldr	r3, [r3, #236]
 785 0026 9847     		blx	r3
 786              	.LVL55:
 787              	.L134:
 788              		.loc 1 332 0
 789 0028 BDE81040 		pop	{r4, lr}
 790              	.LVL56:
 791              		.loc 1 331 0
 792 002c FFF7FEBF 		b	_port_irq_epilogue
 793              	.LVL57:
 794              	.L145:
 795              		.loc 1 327 0
 796 0030 0848     		ldr	r0, .L146+8
 797 0032 4368     		ldr	r3, [r0, #4]
 798 0034 1621     		movs	r1, #22
ARM GAS  /tmp/ccZqK06Y.s 			page 15


 799 0036 D3F8B430 		ldr	r3, [r3, #180]
 800 003a 9847     		blx	r3
 801              	.LVL58:
 802 003c ECE7     		b	.L133
 803              	.LVL59:
 804              	.L144:
 805              		.loc 1 325 0
 806 003e 0548     		ldr	r0, .L146+8
 807 0040 4368     		ldr	r3, [r0, #4]
 808 0042 1521     		movs	r1, #21
 809 0044 D3F8AC30 		ldr	r3, [r3, #172]
 810 0048 9847     		blx	r3
 811              	.LVL60:
 812 004a E3E7     		b	.L132
 813              	.L147:
 814              		.align	2
 815              	.L146:
 816 004c 00040140 		.word	1073808384
 817 0050 00006020 		.word	543162368
 818 0054 00000000 		.word	EXTD1
 819              		.cfi_endproc
 820              	.LFE284:
 821              		.size	Vector140, .-Vector140
 822 0058 AFF30080 		.section	.text.Vector144,"ax",%progbits
 822      AFF30080 
 823              		.align	2
 824              		.p2align 4,,15
 825              		.global	Vector144
 826              		.thumb
 827              		.thumb_func
 828              		.type	Vector144, %function
 829              	Vector144:
 830              	.LFB285:
 831              		.loc 1 341 0
 832              		.cfi_startproc
 833              		@ args = 0, pretend = 0, frame = 0
 834              		@ frame_needed = 0, uses_anonymous_args = 0
 835              		.loc 1 346 0
 836 0000 164B     		ldr	r3, .L160
 837 0002 5A69     		ldr	r2, [r3, #20]
 838 0004 1968     		ldr	r1, [r3]
 839 0006 0A40     		ands	r2, r2, r1
 840              		.loc 1 341 0
 841 0008 10B5     		push	{r4, lr}
 842              		.cfi_def_cfa_offset 8
 843              		.cfi_offset 4, -8
 844              		.cfi_offset 14, -4
 845              		.loc 1 346 0
 846 000a 02F04044 		and	r4, r2, #-1073741824
 847              	.LVL61:
 848              		.loc 1 347 0
 849 000e 5C61     		str	r4, [r3, #20]
 850              		.loc 1 348 0
 851 0010 5300     		lsls	r3, r2, #1
 852 0012 13D4     		bmi	.L158
 853              		.loc 1 350 0
 854 0014 002C     		cmp	r4, #0
ARM GAS  /tmp/ccZqK06Y.s 			page 16


 855 0016 19DB     		blt	.L159
 856              	.L150:
 857              		.loc 1 353 0
 858 0018 104B     		ldr	r3, .L160
 859 001a 596B     		ldr	r1, [r3, #52]
 860 001c 1A6A     		ldr	r2, [r3, #32]
 861 001e 0A40     		ands	r2, r2, r1
 862 0020 02F00102 		and	r2, r2, #1
 863              	.LVL62:
 864              		.loc 1 354 0
 865 0024 5A63     		str	r2, [r3, #52]
 866              		.loc 1 355 0
 867 0026 2AB1     		cbz	r2, .L151
 868              		.loc 1 356 0
 869 0028 0D48     		ldr	r0, .L160+4
 870 002a 4368     		ldr	r3, [r0, #4]
 871 002c 2021     		movs	r1, #32
 872 002e D3F80431 		ldr	r3, [r3, #260]
 873 0032 9847     		blx	r3
 874              	.LVL63:
 875              	.L151:
 876              		.loc 1 359 0
 877 0034 BDE81040 		pop	{r4, lr}
 878              		.loc 1 358 0
 879 0038 FFF7FEBF 		b	_port_irq_epilogue
 880              	.LVL64:
 881              	.L158:
 882              		.loc 1 349 0
 883 003c 0848     		ldr	r0, .L160+4
 884 003e 4368     		ldr	r3, [r0, #4]
 885 0040 1E21     		movs	r1, #30
 886 0042 D3F8F430 		ldr	r3, [r3, #244]
 887 0046 9847     		blx	r3
 888              	.LVL65:
 889              		.loc 1 350 0
 890 0048 002C     		cmp	r4, #0
 891 004a E5DA     		bge	.L150
 892              	.L159:
 893              		.loc 1 351 0
 894 004c 0448     		ldr	r0, .L160+4
 895 004e 4368     		ldr	r3, [r0, #4]
 896 0050 1F21     		movs	r1, #31
 897 0052 D3F8FC30 		ldr	r3, [r3, #252]
 898 0056 9847     		blx	r3
 899              	.LVL66:
 900 0058 DEE7     		b	.L150
 901              	.L161:
 902 005a 00BF     		.align	2
 903              	.L160:
 904 005c 00040140 		.word	1073808384
 905 0060 00000000 		.word	EXTD1
 906              		.cfi_endproc
 907              	.LFE285:
 908              		.size	Vector144, .-Vector144
 909 0064 AFF30080 		.section	.text.Vector148,"ax",%progbits
 909      AFF30080 
 909      AFF30080 
ARM GAS  /tmp/ccZqK06Y.s 			page 17


 910              		.align	2
 911              		.p2align 4,,15
 912              		.global	Vector148
 913              		.thumb
 914              		.thumb_func
 915              		.type	Vector148, %function
 916              	Vector148:
 917              	.LFB286:
 918              		.loc 1 368 0
 919              		.cfi_startproc
 920              		@ args = 0, pretend = 0, frame = 0
 921              		@ frame_needed = 0, uses_anonymous_args = 0
 922 0000 08B5     		push	{r3, lr}
 923              		.cfi_def_cfa_offset 8
 924              		.cfi_offset 3, -8
 925              		.cfi_offset 14, -4
 926              		.loc 1 373 0
 927 0002 094B     		ldr	r3, .L167
 928 0004 596B     		ldr	r1, [r3, #52]
 929 0006 1A68     		ldr	r2, [r3]
 930 0008 0A40     		ands	r2, r2, r1
 931 000a 02F00202 		and	r2, r2, #2
 932              	.LVL67:
 933              		.loc 1 374 0
 934 000e 5A63     		str	r2, [r3, #52]
 935              		.loc 1 375 0
 936 0010 2AB1     		cbz	r2, .L163
 937              		.loc 1 376 0
 938 0012 0648     		ldr	r0, .L167+4
 939 0014 4368     		ldr	r3, [r0, #4]
 940 0016 2121     		movs	r1, #33
 941 0018 D3F80C31 		ldr	r3, [r3, #268]
 942 001c 9847     		blx	r3
 943              	.LVL68:
 944              	.L163:
 945              		.loc 1 379 0
 946 001e BDE80840 		pop	{r3, lr}
 947              		.loc 1 378 0
 948 0022 FFF7FEBF 		b	_port_irq_epilogue
 949              	.LVL69:
 950              	.L168:
 951 0026 00BF     		.align	2
 952              	.L167:
 953 0028 00040140 		.word	1073808384
 954 002c 00000000 		.word	EXTD1
 955              		.cfi_endproc
 956              	.LFE286:
 957              		.size	Vector148, .-Vector148
 958              		.section	.text.ext_lld_exti_irq_enable,"ax",%progbits
 959              		.align	2
 960              		.p2align 4,,15
 961              		.global	ext_lld_exti_irq_enable
 962              		.thumb
 963              		.thumb_func
 964              		.type	ext_lld_exti_irq_enable, %function
 965              	ext_lld_exti_irq_enable:
 966              	.LFB287:
ARM GAS  /tmp/ccZqK06Y.s 			page 18


 967              		.loc 1 391 0
 968              		.cfi_startproc
 969              		@ args = 0, pretend = 0, frame = 0
 970              		@ frame_needed = 0, uses_anonymous_args = 0
 971              		.loc 1 393 0
 972 0000 0620     		movs	r0, #6
 973              		.loc 1 391 0
 974 0002 08B5     		push	{r3, lr}
 975              		.cfi_def_cfa_offset 8
 976              		.cfi_offset 3, -8
 977              		.cfi_offset 14, -4
 978              		.loc 1 393 0
 979 0004 0146     		mov	r1, r0
 980 0006 FFF7FEFF 		bl	nvicEnableVector
 981              	.LVL70:
 982              		.loc 1 394 0
 983 000a 0720     		movs	r0, #7
 984 000c 0621     		movs	r1, #6
 985 000e FFF7FEFF 		bl	nvicEnableVector
 986              	.LVL71:
 987              		.loc 1 395 0
 988 0012 0820     		movs	r0, #8
 989 0014 0621     		movs	r1, #6
 990 0016 FFF7FEFF 		bl	nvicEnableVector
 991              	.LVL72:
 992              		.loc 1 396 0
 993 001a 0920     		movs	r0, #9
 994 001c 0621     		movs	r1, #6
 995 001e FFF7FEFF 		bl	nvicEnableVector
 996              	.LVL73:
 997              		.loc 1 397 0
 998 0022 0A20     		movs	r0, #10
 999 0024 0621     		movs	r1, #6
 1000 0026 FFF7FEFF 		bl	nvicEnableVector
 1001              	.LVL74:
 1002              		.loc 1 398 0
 1003 002a 1720     		movs	r0, #23
 1004 002c 0621     		movs	r1, #6
 1005 002e FFF7FEFF 		bl	nvicEnableVector
 1006              	.LVL75:
 1007              		.loc 1 399 0
 1008 0032 2820     		movs	r0, #40
 1009 0034 0621     		movs	r1, #6
 1010 0036 FFF7FEFF 		bl	nvicEnableVector
 1011              	.LVL76:
 1012              		.loc 1 400 0
 1013 003a 0120     		movs	r0, #1
 1014 003c 0621     		movs	r1, #6
 1015 003e FFF7FEFF 		bl	nvicEnableVector
 1016              	.LVL77:
 1017              		.loc 1 401 0
 1018 0042 2920     		movs	r0, #41
 1019 0044 0621     		movs	r1, #6
 1020 0046 FFF7FEFF 		bl	nvicEnableVector
 1021              	.LVL78:
 1022              		.loc 1 403 0
 1023 004a 4C20     		movs	r0, #76
ARM GAS  /tmp/ccZqK06Y.s 			page 19


 1024 004c 0621     		movs	r1, #6
 1025 004e FFF7FEFF 		bl	nvicEnableVector
 1026              	.LVL79:
 1027              		.loc 1 405 0
 1028 0052 0220     		movs	r0, #2
 1029 0054 0621     		movs	r1, #6
 1030 0056 FFF7FEFF 		bl	nvicEnableVector
 1031              	.LVL80:
 1032              		.loc 1 406 0
 1033 005a 0320     		movs	r0, #3
 1034 005c 0621     		movs	r1, #6
 1035 005e FFF7FEFF 		bl	nvicEnableVector
 1036              	.LVL81:
 1037              		.loc 1 407 0
 1038 0062 4020     		movs	r0, #64
 1039 0064 0621     		movs	r1, #6
 1040 0066 FFF7FEFF 		bl	nvicEnableVector
 1041              	.LVL82:
 1042              		.loc 1 408 0
 1043 006a 4120     		movs	r0, #65
 1044 006c 0621     		movs	r1, #6
 1045 006e FFF7FEFF 		bl	nvicEnableVector
 1046              	.LVL83:
 1047              		.loc 1 410 0
 1048 0072 4220     		movs	r0, #66
 1049 0074 0621     		movs	r1, #6
 1050              		.loc 1 412 0
 1051 0076 BDE80840 		pop	{r3, lr}
 1052              		.loc 1 410 0
 1053 007a FFF7FEBF 		b	nvicEnableVector
 1054              	.LVL84:
 1055              		.cfi_endproc
 1056              	.LFE287:
 1057              		.size	ext_lld_exti_irq_enable, .-ext_lld_exti_irq_enable
 1058 007e 00BF     		.section	.text.ext_lld_exti_irq_disable,"ax",%progbits
 1059              		.align	2
 1060              		.p2align 4,,15
 1061              		.global	ext_lld_exti_irq_disable
 1062              		.thumb
 1063              		.thumb_func
 1064              		.type	ext_lld_exti_irq_disable, %function
 1065              	ext_lld_exti_irq_disable:
 1066              	.LFB288:
 1067              		.loc 1 419 0
 1068              		.cfi_startproc
 1069              		@ args = 0, pretend = 0, frame = 0
 1070              		@ frame_needed = 0, uses_anonymous_args = 0
 1071 0000 08B5     		push	{r3, lr}
 1072              		.cfi_def_cfa_offset 8
 1073              		.cfi_offset 3, -8
 1074              		.cfi_offset 14, -4
 1075              		.loc 1 421 0
 1076 0002 0620     		movs	r0, #6
 1077 0004 FFF7FEFF 		bl	nvicDisableVector
 1078              	.LVL85:
 1079              		.loc 1 422 0
 1080 0008 0720     		movs	r0, #7
ARM GAS  /tmp/ccZqK06Y.s 			page 20


 1081 000a FFF7FEFF 		bl	nvicDisableVector
 1082              	.LVL86:
 1083              		.loc 1 423 0
 1084 000e 0820     		movs	r0, #8
 1085 0010 FFF7FEFF 		bl	nvicDisableVector
 1086              	.LVL87:
 1087              		.loc 1 424 0
 1088 0014 0920     		movs	r0, #9
 1089 0016 FFF7FEFF 		bl	nvicDisableVector
 1090              	.LVL88:
 1091              		.loc 1 425 0
 1092 001a 0A20     		movs	r0, #10
 1093 001c FFF7FEFF 		bl	nvicDisableVector
 1094              	.LVL89:
 1095              		.loc 1 426 0
 1096 0020 1720     		movs	r0, #23
 1097 0022 FFF7FEFF 		bl	nvicDisableVector
 1098              	.LVL90:
 1099              		.loc 1 427 0
 1100 0026 2820     		movs	r0, #40
 1101 0028 FFF7FEFF 		bl	nvicDisableVector
 1102              	.LVL91:
 1103              		.loc 1 428 0
 1104 002c 0120     		movs	r0, #1
 1105 002e FFF7FEFF 		bl	nvicDisableVector
 1106              	.LVL92:
 1107              		.loc 1 429 0
 1108 0032 2920     		movs	r0, #41
 1109 0034 FFF7FEFF 		bl	nvicDisableVector
 1110              	.LVL93:
 1111              		.loc 1 431 0
 1112 0038 4C20     		movs	r0, #76
 1113 003a FFF7FEFF 		bl	nvicDisableVector
 1114              	.LVL94:
 1115              		.loc 1 433 0
 1116 003e 0220     		movs	r0, #2
 1117 0040 FFF7FEFF 		bl	nvicDisableVector
 1118              	.LVL95:
 1119              		.loc 1 434 0
 1120 0044 0320     		movs	r0, #3
 1121 0046 FFF7FEFF 		bl	nvicDisableVector
 1122              	.LVL96:
 1123              		.loc 1 435 0
 1124 004a 4020     		movs	r0, #64
 1125 004c FFF7FEFF 		bl	nvicDisableVector
 1126              	.LVL97:
 1127              		.loc 1 436 0
 1128 0050 4120     		movs	r0, #65
 1129 0052 FFF7FEFF 		bl	nvicDisableVector
 1130              	.LVL98:
 1131              		.loc 1 438 0
 1132 0056 4220     		movs	r0, #66
 1133              		.loc 1 440 0
 1134 0058 BDE80840 		pop	{r3, lr}
 1135              		.loc 1 438 0
 1136 005c FFF7FEBF 		b	nvicDisableVector
 1137              	.LVL99:
ARM GAS  /tmp/ccZqK06Y.s 			page 21


 1138              		.cfi_endproc
 1139              	.LFE288:
 1140              		.size	ext_lld_exti_irq_disable, .-ext_lld_exti_irq_disable
 1141              		.text
 1142              	.Letext0:
 1143              		.file 2 "/nfs/nfs5/home/research/hardware/arm2/gcc-arm-embedded/gcc-arm-none-eabi-4_8-2014q2/arm-n
 1144              		.file 3 "/nfs/nfs5/home/research/hardware/arm2/gcc-arm-embedded/gcc-arm-none-eabi-4_8-2014q2/arm-n
 1145              		.file 4 "../ChibiOS/os/rt/ports/ARMCMx/compilers/GCC/chtypes.h"
 1146              		.file 5 "../ChibiOS/os/rt/include/chsystypes.h"
 1147              		.file 6 "../ChibiOS/os/rt/include/chschd.h"
 1148              		.file 7 "../ChibiOS/os/ext/CMSIS/ST/STM32F3xx/stm32f303xc.h"
 1149              		.file 8 "../ChibiOS/os/rt/ports/ARMCMx/chcore.h"
 1150              		.file 9 "../ChibiOS/os/rt/ports/ARMCMx/chcore_v7m.h"
 1151              		.file 10 "../ChibiOS/os/rt/include/chtm.h"
 1152              		.file 11 "../ChibiOS/os/rt/include/chsem.h"
 1153              		.file 12 "../ChibiOS/os/rt/include/chmtx.h"
 1154              		.file 13 "../ChibiOS/os/hal/include/ext.h"
 1155              		.file 14 "../ChibiOS/os/hal/ports/STM32/LLD/EXTIv1/ext_lld.h"
 1156              		.file 15 "../ChibiOS/os/ext/CMSIS/include/core_cm4.h"
 1157              		.file 16 "../ChibiOS/os/hal/ports/common/ARMCMx/nvic.h"