ARM GAS  /tmp/ccZqK06Y.s 			page 1


   1              		.syntax unified
   2              		.cpu cortex-m4
   3              		.fpu softvfp
   4              		.eabi_attribute 20, 1
   5              		.eabi_attribute 21, 1
   6              		.eabi_attribute 23, 3
   7              		.eabi_attribute 24, 1
   8              		.eabi_attribute 25, 1
   9              		.eabi_attribute 26, 1
  10              		.eabi_attribute 30, 2
  11              		.eabi_attribute 34, 1
  12              		.eabi_attribute 18, 4
  13              		.thumb
  14              		.file	"ext_lld_isr.c"
  15              		.text
  16              	.Ltext0:
  17              		.cfi_sections	.debug_frame
  18              		.section	.text.Vector58,"ax",%progbits
  19              		.align	2
  20              		.p2align 4,,15
  21              		.global	Vector58
  22              		.thumb
  23              		.thumb_func
  24              		.type	Vector58, %function
  25              	Vector58:
  26              	.LFB272:
  27              		.file 1 "../ChibiOS/os/hal/ports/STM32/STM32F3xx/ext_lld_isr.c"
  28              		.loc 1 57 0
  29              		.cfi_startproc
  30              		@ args = 0, pretend = 0, frame = 0
  31              		@ frame_needed = 0, uses_anonymous_args = 0
  32 0000 08B5     		push	{r3, lr}
  33              		.cfi_def_cfa_offset 8
  34              		.cfi_offset 3, -8
  35              		.cfi_offset 14, -4
  36              		.loc 1 62 0
  37 0002 084B     		ldr	r3, .L7
  38 0004 5969     		ldr	r1, [r3, #20]
  39 0006 1A68     		ldr	r2, [r3]
  40 0008 0A40     		ands	r2, r2, r1
  41 000a 02F00102 		and	r2, r2, #1
  42              	.LVL0:
  43              		.loc 1 63 0
  44 000e 5A61     		str	r2, [r3, #20]
  45              		.loc 1 64 0
  46 0010 22B1     		cbz	r2, .L2
  47              		.loc 1 65 0
  48 0012 0548     		ldr	r0, .L7+4
  49 0014 4368     		ldr	r3, [r0, #4]
  50 0016 0021     		movs	r1, #0
  51 0018 5B68     		ldr	r3, [r3, #4]
  52 001a 9847     		blx	r3
  53              	.LVL1:
  54              	.L2:
  55              		.loc 1 68 0
  56 001c BDE80840 		pop	{r3, lr}
  57              		.loc 1 67 0
ARM GAS  /tmp/ccZqK06Y.s 			page 2


  58 0020 FFF7FEBF 		b	_port_irq_epilogue
  59              	.LVL2:
  60              	.L8:
  61              		.align	2
  62              	.L7:
  63 0024 00040140 		.word	1073808384
  64 0028 00000000 		.word	EXTD1
  65              		.cfi_endproc
  66              	.LFE272:
  67              		.size	Vector58, .-Vector58
  68 002c AFF30080 		.section	.text.Vector5C,"ax",%progbits
  69              		.align	2
  70              		.p2align 4,,15
  71              		.global	Vector5C
  72              		.thumb
  73              		.thumb_func
  74              		.type	Vector5C, %function
  75              	Vector5C:
  76              	.LFB273:
  77              		.loc 1 77 0
  78              		.cfi_startproc
  79              		@ args = 0, pretend = 0, frame = 0
  80              		@ frame_needed = 0, uses_anonymous_args = 0
  81 0000 08B5     		push	{r3, lr}
  82              		.cfi_def_cfa_offset 8
  83              		.cfi_offset 3, -8
  84              		.cfi_offset 14, -4
  85              		.loc 1 82 0
  86 0002 084B     		ldr	r3, .L14
  87 0004 5969     		ldr	r1, [r3, #20]
  88 0006 1A68     		ldr	r2, [r3]
  89 0008 0A40     		ands	r2, r2, r1
  90 000a 02F00202 		and	r2, r2, #2
  91              	.LVL3:
  92              		.loc 1 83 0
  93 000e 5A61     		str	r2, [r3, #20]
  94              		.loc 1 84 0
  95 0010 22B1     		cbz	r2, .L10
  96              		.loc 1 85 0
  97 0012 0548     		ldr	r0, .L14+4
  98 0014 4368     		ldr	r3, [r0, #4]
  99 0016 0121     		movs	r1, #1
 100 0018 DB68     		ldr	r3, [r3, #12]
 101 001a 9847     		blx	r3
 102              	.LVL4:
 103              	.L10:
 104              		.loc 1 88 0
 105 001c BDE80840 		pop	{r3, lr}
 106              		.loc 1 87 0
 107 0020 FFF7FEBF 		b	_port_irq_epilogue
 108              	.LVL5:
 109              	.L15:
 110              		.align	2
 111              	.L14:
 112 0024 00040140 		.word	1073808384
 113 0028 00000000 		.word	EXTD1
 114              		.cfi_endproc
ARM GAS  /tmp/ccZqK06Y.s 			page 3


 115              	.LFE273:
 116              		.size	Vector5C, .-Vector5C
 117 002c AFF30080 		.section	.text.Vector60,"ax",%progbits
 118              		.align	2
 119              		.p2align 4,,15
 120              		.global	Vector60
 121              		.thumb
 122              		.thumb_func
 123              		.type	Vector60, %function
 124              	Vector60:
 125              	.LFB274:
 126              		.loc 1 97 0
 127              		.cfi_startproc
 128              		@ args = 0, pretend = 0, frame = 0
 129              		@ frame_needed = 0, uses_anonymous_args = 0
 130 0000 08B5     		push	{r3, lr}
 131              		.cfi_def_cfa_offset 8
 132              		.cfi_offset 3, -8
 133              		.cfi_offset 14, -4
 134              		.loc 1 102 0
 135 0002 084B     		ldr	r3, .L21
 136 0004 5969     		ldr	r1, [r3, #20]
 137 0006 1A68     		ldr	r2, [r3]
 138 0008 0A40     		ands	r2, r2, r1
 139 000a 02F00402 		and	r2, r2, #4
 140              	.LVL6:
 141              		.loc 1 103 0
 142 000e 5A61     		str	r2, [r3, #20]
 143              		.loc 1 104 0
 144 0010 22B1     		cbz	r2, .L17
 145              		.loc 1 105 0
 146 0012 0548     		ldr	r0, .L21+4
 147 0014 4368     		ldr	r3, [r0, #4]
 148 0016 0221     		movs	r1, #2
 149 0018 5B69     		ldr	r3, [r3, #20]
 150 001a 9847     		blx	r3
 151              	.LVL7:
 152              	.L17:
 153              		.loc 1 108 0
 154 001c BDE80840 		pop	{r3, lr}
 155              		.loc 1 107 0
 156 0020 FFF7FEBF 		b	_port_irq_epilogue
 157              	.LVL8:
 158              	.L22:
 159              		.align	2
 160              	.L21:
 161 0024 00040140 		.word	1073808384
 162 0028 00000000 		.word	EXTD1
 163              		.cfi_endproc
 164              	.LFE274:
 165              		.size	Vector60, .-Vector60
 166 002c AFF30080 		.section	.text.Vector64,"ax",%progbits
 167              		.align	2
 168              		.p2align 4,,15
 169              		.global	Vector64
 170              		.thumb
 171              		.thumb_func
ARM GAS  /tmp/ccZqK06Y.s 			page 4


 172              		.type	Vector64, %function
 173              	Vector64:
 174              	.LFB275:
 175              		.loc 1 117 0
 176              		.cfi_startproc
 177              		@ args = 0, pretend = 0, frame = 0
 178              		@ frame_needed = 0, uses_anonymous_args = 0
 179 0000 08B5     		push	{r3, lr}
 180              		.cfi_def_cfa_offset 8
 181              		.cfi_offset 3, -8
 182              		.cfi_offset 14, -4
 183              		.loc 1 122 0
 184 0002 084B     		ldr	r3, .L28
 185 0004 5969     		ldr	r1, [r3, #20]
 186 0006 1A68     		ldr	r2, [r3]
 187 0008 0A40     		ands	r2, r2, r1
 188 000a 02F00802 		and	r2, r2, #8
 189              	.LVL9:
 190              		.loc 1 123 0
 191 000e 5A61     		str	r2, [r3, #20]
 192              		.loc 1 124 0
 193 0010 22B1     		cbz	r2, .L24
 194              		.loc 1 125 0
 195 0012 0548     		ldr	r0, .L28+4
 196 0014 4368     		ldr	r3, [r0, #4]
 197 0016 0321     		movs	r1, #3
 198 0018 DB69     		ldr	r3, [r3, #28]
 199 001a 9847     		blx	r3
 200              	.LVL10:
 201              	.L24:
 202              		.loc 1 128 0
 203 001c BDE80840 		pop	{r3, lr}
 204              		.loc 1 127 0
 205 0020 FFF7FEBF 		b	_port_irq_epilogue
 206              	.LVL11:
 207              	.L29:
 208              		.align	2
 209              	.L28:
 210 0024 00040140 		.word	1073808384
 211 0028 00000000 		.word	EXTD1
 212              		.cfi_endproc
 213              	.LFE275:
 214              		.size	Vector64, .-Vector64
 215 002c AFF30080 		.section	.text.Vector68,"ax",%progbits
 216              		.align	2
 217              		.p2align 4,,15
 218              		.global	Vector68
 219              		.thumb
 220              		.thumb_func
 221              		.type	Vector68, %function
 222              	Vector68:
 223              	.LFB276:
 224              		.loc 1 137 0
 225              		.cfi_startproc
 226              		@ args = 0, pretend = 0, frame = 0
 227              		@ frame_needed = 0, uses_anonymous_args = 0
 228 0000 08B5     		push	{r3, lr}
ARM GAS  /tmp/ccZqK06Y.s 			page 5


 229              		.cfi_def_cfa_offset 8
 230              		.cfi_offset 3, -8
 231              		.cfi_offset 14, -4
 232              		.loc 1 142 0
 233 0002 084B     		ldr	r3, .L35
 234 0004 5969     		ldr	r1, [r3, #20]
 235 0006 1A68     		ldr	r2, [r3]
 236 0008 0A40     		ands	r2, r2, r1
 237 000a 02F01002 		and	r2, r2, #16
 238              	.LVL12:
 239              		.loc 1 143 0
 240 000e 5A61     		str	r2, [r3, #20]
 241              		.loc 1 144 0
 242 0010 22B1     		cbz	r2, .L31
 243              		.loc 1 145 0
 244 0012 0548     		ldr	r0, .L35+4
 245 0014 4368     		ldr	r3, [r0, #4]
 246 0016 0421     		movs	r1, #4
 247 0018 5B6A     		ldr	r3, [r3, #36]
 248 001a 9847     		blx	r3
 249              	.LVL13:
 250              	.L31:
 251              		.loc 1 148 0
 252 001c BDE80840 		pop	{r3, lr}
 253              		.loc 1 147 0
 254 0020 FFF7FEBF 		b	_port_irq_epilogue
 255              	.LVL14:
 256              	.L36:
 257              		.align	2
 258              	.L35:
 259 0024 00040140 		.word	1073808384
 260 0028 00000000 		.word	EXTD1
 261              		.cfi_endproc
 262              	.LFE276:
 263              		.size	Vector68, .-Vector68
 264 002c AFF30080 		.section	.text.Vector9C,"ax",%progbits
 265              		.align	2
 266              		.p2align 4,,15
 267              		.global	Vector9C
 268              		.thumb
 269              		.thumb_func
 270              		.type	Vector9C, %function
 271              	Vector9C:
 272              	.LFB277:
 273              		.loc 1 157 0
 274              		.cfi_startproc
 275              		@ args = 0, pretend = 0, frame = 0
 276              		@ frame_needed = 0, uses_anonymous_args = 0
 277              		.loc 1 162 0
 278 0000 194B     		ldr	r3, .L62
 279              		.loc 1 157 0
 280 0002 10B5     		push	{r4, lr}
 281              		.cfi_def_cfa_offset 8
 282              		.cfi_offset 4, -8
 283              		.cfi_offset 14, -4
 284              		.loc 1 162 0
 285 0004 5A69     		ldr	r2, [r3, #20]
ARM GAS  /tmp/ccZqK06Y.s 			page 6


 286 0006 1C68     		ldr	r4, [r3]
 287 0008 1440     		ands	r4, r4, r2
 288 000a 04F47872 		and	r2, r4, #992
 289              	.LVL15:
 290              		.loc 1 164 0
 291 000e 5A61     		str	r2, [r3, #20]
 292              		.loc 1 165 0
 293 0010 A306     		lsls	r3, r4, #26
 294 0012 22D4     		bmi	.L58
 295              	.LVL16:
 296              	.L38:
 297              		.loc 1 167 0
 298 0014 6006     		lsls	r0, r4, #25
 299 0016 1AD4     		bmi	.L59
 300              	.L39:
 301              		.loc 1 169 0
 302 0018 2106     		lsls	r1, r4, #24
 303 001a 12D4     		bmi	.L60
 304              	.L40:
 305              		.loc 1 171 0
 306 001c E205     		lsls	r2, r4, #23
 307 001e 0AD4     		bmi	.L61
 308              	.L41:
 309              		.loc 1 173 0
 310 0020 A305     		lsls	r3, r4, #22
 311 0022 04D5     		bpl	.L42
 312              		.loc 1 174 0
 313 0024 1148     		ldr	r0, .L62+4
 314 0026 4368     		ldr	r3, [r0, #4]
 315 0028 0921     		movs	r1, #9
 316 002a DB6C     		ldr	r3, [r3, #76]
 317 002c 9847     		blx	r3
 318              	.LVL17:
 319              	.L42:
 320              		.loc 1 177 0
 321 002e BDE81040 		pop	{r4, lr}
 322              	.LVL18:
 323              		.loc 1 176 0
 324 0032 FFF7FEBF 		b	_port_irq_epilogue
 325              	.LVL19:
 326              	.L61:
 327              		.loc 1 172 0
 328 0036 0D48     		ldr	r0, .L62+4
 329 0038 4368     		ldr	r3, [r0, #4]
 330 003a 0821     		movs	r1, #8
 331 003c 5B6C     		ldr	r3, [r3, #68]
 332 003e 9847     		blx	r3
 333              	.LVL20:
 334 0040 EEE7     		b	.L41
 335              	.L60:
 336              		.loc 1 170 0
 337 0042 0A48     		ldr	r0, .L62+4
 338 0044 4368     		ldr	r3, [r0, #4]
 339 0046 0721     		movs	r1, #7
 340 0048 DB6B     		ldr	r3, [r3, #60]
 341 004a 9847     		blx	r3
 342              	.LVL21:
ARM GAS  /tmp/ccZqK06Y.s 			page 7


 343 004c E6E7     		b	.L40
 344              	.L59:
 345              		.loc 1 168 0
 346 004e 0748     		ldr	r0, .L62+4
 347 0050 4368     		ldr	r3, [r0, #4]
 348 0052 0621     		movs	r1, #6
 349 0054 5B6B     		ldr	r3, [r3, #52]
 350 0056 9847     		blx	r3
 351              	.LVL22:
 352 0058 DEE7     		b	.L39
 353              	.LVL23:
 354              	.L58:
 355              		.loc 1 166 0
 356 005a 0448     		ldr	r0, .L62+4
 357 005c 4368     		ldr	r3, [r0, #4]
 358 005e 0521     		movs	r1, #5
 359 0060 DB6A     		ldr	r3, [r3, #44]
 360 0062 9847     		blx	r3
 361              	.LVL24:
 362 0064 D6E7     		b	.L38
 363              	.L63:
 364 0066 00BF     		.align	2
 365              	.L62:
 366 0068 00040140 		.word	1073808384
 367 006c 00000000 		.word	EXTD1
 368              		.cfi_endproc
 369              	.LFE277:
 370              		.size	Vector9C, .-Vector9C
 371              		.section	.text.VectorE0,"ax",%progbits
 372              		.align	2
 373              		.p2align 4,,15
 374              		.global	VectorE0
 375              		.thumb
 376              		.thumb_func
 377              		.type	VectorE0, %function
 378              	VectorE0:
 379              	.LFB278:
 380              		.loc 1 186 0
 381              		.cfi_startproc
 382              		@ args = 0, pretend = 0, frame = 0
 383              		@ frame_needed = 0, uses_anonymous_args = 0
 384              		.loc 1 191 0
 385 0000 1D4B     		ldr	r3, .L94
 386              		.loc 1 186 0
 387 0002 10B5     		push	{r4, lr}
 388              		.cfi_def_cfa_offset 8
 389              		.cfi_offset 4, -8
 390              		.cfi_offset 14, -4
 391              		.loc 1 191 0
 392 0004 5A69     		ldr	r2, [r3, #20]
 393 0006 1C68     		ldr	r4, [r3]
 394 0008 1440     		ands	r4, r4, r2
 395 000a 04F47C42 		and	r2, r4, #64512
 396              	.LVL25:
 397              		.loc 1 193 0
 398 000e 5A61     		str	r2, [r3, #20]
 399              		.loc 1 194 0
ARM GAS  /tmp/ccZqK06Y.s 			page 8


 400 0010 6205     		lsls	r2, r4, #21
 401              	.LVL26:
 402 0012 2AD4     		bmi	.L89
 403              	.LVL27:
 404              	.L65:
 405              		.loc 1 196 0
 406 0014 2305     		lsls	r3, r4, #20
 407 0016 22D4     		bmi	.L90
 408              	.L66:
 409              		.loc 1 198 0
 410 0018 E004     		lsls	r0, r4, #19
 411 001a 1AD4     		bmi	.L91
 412              	.L67:
 413              		.loc 1 200 0
 414 001c A104     		lsls	r1, r4, #18
 415 001e 12D4     		bmi	.L92
 416              	.L68:
 417              		.loc 1 202 0
 418 0020 6204     		lsls	r2, r4, #17
 419 0022 0AD4     		bmi	.L93
 420              	.L69:
 421              		.loc 1 204 0
 422 0024 2304     		lsls	r3, r4, #16
 423 0026 04D5     		bpl	.L70
 424              		.loc 1 205 0
 425 0028 1448     		ldr	r0, .L94+4
 426 002a 4368     		ldr	r3, [r0, #4]
 427 002c 0F21     		movs	r1, #15
 428 002e DB6F     		ldr	r3, [r3, #124]
 429 0030 9847     		blx	r3
 430              	.LVL28:
 431              	.L70:
 432              		.loc 1 208 0
 433 0032 BDE81040 		pop	{r4, lr}
 434              	.LVL29:
 435              		.loc 1 207 0
 436 0036 FFF7FEBF 		b	_port_irq_epilogue
 437              	.LVL30:
 438              	.L93:
 439              		.loc 1 203 0
 440 003a 1048     		ldr	r0, .L94+4
 441 003c 4368     		ldr	r3, [r0, #4]
 442 003e 0E21     		movs	r1, #14
 443 0040 5B6F     		ldr	r3, [r3, #116]
 444 0042 9847     		blx	r3
 445              	.LVL31:
 446 0044 EEE7     		b	.L69
 447              	.L92:
 448              		.loc 1 201 0
 449 0046 0D48     		ldr	r0, .L94+4
 450 0048 4368     		ldr	r3, [r0, #4]
 451 004a 0D21     		movs	r1, #13
 452 004c DB6E     		ldr	r3, [r3, #108]
 453 004e 9847     		blx	r3
 454              	.LVL32:
 455 0050 E6E7     		b	.L68
 456              	.L91:
ARM GAS  /tmp/ccZqK06Y.s 			page 9


 457              		.loc 1 199 0
 458 0052 0A48     		ldr	r0, .L94+4
 459 0054 4368     		ldr	r3, [r0, #4]
 460 0056 0C21     		movs	r1, #12
 461 0058 5B6E     		ldr	r3, [r3, #100]
 462 005a 9847     		blx	r3
 463              	.LVL33:
 464 005c DEE7     		b	.L67
 465              	.L90:
 466              		.loc 1 197 0
 467 005e 0748     		ldr	r0, .L94+4
 468 0060 4368     		ldr	r3, [r0, #4]
 469 0062 0B21     		movs	r1, #11
 470 0064 DB6D     		ldr	r3, [r3, #92]
 471 0066 9847     		blx	r3
 472              	.LVL34:
 473 0068 D6E7     		b	.L66
 474              	.LVL35:
 475              	.L89:
 476              		.loc 1 195 0
 477 006a 0448     		ldr	r0, .L94+4
 478 006c 4368     		ldr	r3, [r0, #4]
 479              	.LVL36:
 480 006e 0A21     		movs	r1, #10
 481 0070 5B6D     		ldr	r3, [r3, #84]
 482 0072 9847     		blx	r3
 483              	.LVL37:
 484 0074 CEE7     		b	.L65
 485              	.L95:
 486 0076 00BF     		.align	2
 487              	.L94:
 488 0078 00040140 		.word	1073808384
 489 007c 00000000 		.word	EXTD1
 490              		.cfi_endproc
 491              	.LFE278:
 492              		.size	VectorE0, .-VectorE0
 493              		.section	.text.Vector44,"ax",%progbits
 494              		.align	2
 495              		.p2align 4,,15
 496              		.global	Vector44
 497              		.thumb
 498              		.thumb_func
 499              		.type	Vector44, %function
 500              	Vector44:
 501              	.LFB279:
 502              		.loc 1 217 0
 503              		.cfi_startproc
 504              		@ args = 0, pretend = 0, frame = 0
 505              		@ frame_needed = 0, uses_anonymous_args = 0
 506 0000 08B5     		push	{r3, lr}
 507              		.cfi_def_cfa_offset 8
 508              		.cfi_offset 3, -8
 509              		.cfi_offset 14, -4
 510              		.loc 1 222 0
 511 0002 094B     		ldr	r3, .L101
 512 0004 5969     		ldr	r1, [r3, #20]
 513 0006 1A68     		ldr	r2, [r3]
ARM GAS  /tmp/ccZqK06Y.s 			page 10


 514 0008 0A40     		ands	r2, r2, r1
 515 000a 02F48032 		and	r2, r2, #65536
 516              	.LVL38:
 517              		.loc 1 223 0
 518 000e 5A61     		str	r2, [r3, #20]
 519              		.loc 1 224 0
 520 0010 2AB1     		cbz	r2, .L97
 521              		.loc 1 225 0
 522 0012 0648     		ldr	r0, .L101+4
 523 0014 4368     		ldr	r3, [r0, #4]
 524 0016 1021     		movs	r1, #16
 525 0018 D3F88430 		ldr	r3, [r3, #132]
 526 001c 9847     		blx	r3
 527              	.LVL39:
 528              	.L97:
 529              		.loc 1 228 0
 530 001e BDE80840 		pop	{r3, lr}
 531              		.loc 1 227 0
 532 0022 FFF7FEBF 		b	_port_irq_epilogue
 533              	.LVL40:
 534              	.L102:
 535 0026 00BF     		.align	2
 536              	.L101:
 537 0028 00040140 		.word	1073808384
 538 002c 00000000 		.word	EXTD1
 539              		.cfi_endproc
 540              	.LFE279:
 541              		.size	Vector44, .-Vector44
 542              		.section	.text.VectorE4,"ax",%progbits
 543              		.align	2
 544              		.p2align 4,,15
 545              		.global	VectorE4
 546              		.thumb
 547              		.thumb_func
 548              		.type	VectorE4, %function
 549              	VectorE4:
 550              	.LFB280:
 551              		.loc 1 237 0
 552              		.cfi_startproc
 553              		@ args = 0, pretend = 0, frame = 0
 554              		@ frame_needed = 0, uses_anonymous_args = 0
 555 0000 08B5     		push	{r3, lr}
 556              		.cfi_def_cfa_offset 8
 557              		.cfi_offset 3, -8
 558              		.cfi_offset 14, -4
 559              		.loc 1 242 0
 560 0002 094B     		ldr	r3, .L108
 561 0004 5969     		ldr	r1, [r3, #20]
 562 0006 1A68     		ldr	r2, [r3]
 563 0008 0A40     		ands	r2, r2, r1
 564 000a 02F40032 		and	r2, r2, #131072
 565              	.LVL41:
 566              		.loc 1 243 0
 567 000e 5A61     		str	r2, [r3, #20]
 568              		.loc 1 244 0
 569 0010 2AB1     		cbz	r2, .L104
 570              		.loc 1 245 0
ARM GAS  /tmp/ccZqK06Y.s 			page 11


 571 0012 0648     		ldr	r0, .L108+4
 572 0014 4368     		ldr	r3, [r0, #4]
 573 0016 1121     		movs	r1, #17
 574 0018 D3F88C30 		ldr	r3, [r3, #140]
 575 001c 9847     		blx	r3
 576              	.LVL42:
 577              	.L104:
 578              		.loc 1 248 0
 579 001e BDE80840 		pop	{r3, lr}
 580              		.loc 1 247 0
 581 0022 FFF7FEBF 		b	_port_irq_epilogue
 582              	.LVL43:
 583              	.L109:
 584 0026 00BF     		.align	2
 585              	.L108:
 586 0028 00040140 		.word	1073808384
 587 002c 00000000 		.word	EXTD1
 588              		.cfi_endproc
 589              	.LFE280:
 590              		.size	VectorE4, .-VectorE4
 591              		.section	.text.VectorE8,"ax",%progbits
 592              		.align	2
 593              		.p2align 4,,15
 594              		.global	VectorE8
 595              		.thumb
 596              		.thumb_func
 597              		.type	VectorE8, %function
 598              	VectorE8:
 599              	.LFB281:
 600              		.loc 1 257 0
 601              		.cfi_startproc
 602              		@ args = 0, pretend = 0, frame = 0
 603              		@ frame_needed = 0, uses_anonymous_args = 0
 604 0000 08B5     		push	{r3, lr}
 605              		.cfi_def_cfa_offset 8
 606              		.cfi_offset 3, -8
 607              		.cfi_offset 14, -4
 608              		.loc 1 262 0
 609 0002 094B     		ldr	r3, .L115
 610 0004 5969     		ldr	r1, [r3, #20]
 611 0006 1A68     		ldr	r2, [r3]
 612 0008 0A40     		ands	r2, r2, r1
 613 000a 02F48022 		and	r2, r2, #262144
 614              	.LVL44:
 615              		.loc 1 263 0
 616 000e 5A61     		str	r2, [r3, #20]
 617              		.loc 1 264 0
 618 0010 2AB1     		cbz	r2, .L111
 619              		.loc 1 265 0
 620 0012 0648     		ldr	r0, .L115+4
 621 0014 4368     		ldr	r3, [r0, #4]
 622 0016 1221     		movs	r1, #18
 623 0018 D3F89430 		ldr	r3, [r3, #148]
 624 001c 9847     		blx	r3
 625              	.LVL45:
 626              	.L111:
 627              		.loc 1 268 0
ARM GAS  /tmp/ccZqK06Y.s 			page 12


 628 001e BDE80840 		pop	{r3, lr}
 629              		.loc 1 267 0
 630 0022 FFF7FEBF 		b	_port_irq_epilogue
 631              	.LVL46:
 632              	.L116:
 633 0026 00BF     		.align	2
 634              	.L115:
 635 0028 00040140 		.word	1073808384
 636 002c 00000000 		.word	EXTD1
 637              		.cfi_endproc
 638              	.LFE281:
 639              		.size	VectorE8, .-VectorE8
 640              		.section	.text.Vector48,"ax",%progbits
 641              		.align	2
 642              		.p2align 4,,15
 643              		.global	Vector48
 644              		.thumb
 645              		.thumb_func
 646              		.type	Vector48, %function
 647              	Vector48:
 648              	.LFB282:
 649              		.loc 1 277 0
 650              		.cfi_startproc
 651              		@ args = 0, pretend = 0, frame = 0
 652              		@ frame_needed = 0, uses_anonymous_args = 0
 653 0000 08B5     		push	{r3, lr}
 654              		.cfi_def_cfa_offset 8
 655              		.cfi_offset 3, -8
 656              		.cfi_offset 14, -4
 657              		.loc 1 282 0
 658 0002 094B     		ldr	r3, .L122
 659 0004 5969     		ldr	r1, [r3, #20]
 660 0006 1A68     		ldr	r2, [r3]
 661 0008 0A40     		ands	r2, r2, r1
 662 000a 02F40022 		and	r2, r2, #524288
 663              	.LVL47:
 664              		.loc 1 283 0
 665 000e 5A61     		str	r2, [r3, #20]
 666              		.loc 1 284 0
 667 0010 2AB1     		cbz	r2, .L118
 668              		.loc 1 285 0
 669 0012 0648     		ldr	r0, .L122+4
 670 0014 4368     		ldr	r3, [r0, #4]
 671 0016 1321     		movs	r1, #19
 672 0018 D3F89C30 		ldr	r3, [r3, #156]
 673 001c 9847     		blx	r3
 674              	.LVL48:
 675              	.L118:
 676              		.loc 1 288 0
 677 001e BDE80840 		pop	{r3, lr}
 678              		.loc 1 287 0
 679 0022 FFF7FEBF 		b	_port_irq_epilogue
 680              	.LVL49:
 681              	.L123:
 682 0026 00BF     		.align	2
 683              	.L122:
 684 0028 00040140 		.word	1073808384
ARM GAS  /tmp/ccZqK06Y.s 			page 13


 685 002c 00000000 		.word	EXTD1
 686              		.cfi_endproc
 687              	.LFE282:
 688              		.size	Vector48, .-Vector48
 689              		.section	.text.Vector4C,"ax",%progbits
 690              		.align	2
 691              		.p2align 4,,15
 692              		.global	Vector4C
 693              		.thumb
 694              		.thumb_func
 695              		.type	Vector4C, %function
 696              	Vector4C:
 697              	.LFB283:
 698              		.loc 1 297 0
 699              		.cfi_startproc
 700              		@ args = 0, pretend = 0, frame = 0
 701              		@ frame_needed = 0, uses_anonymous_args = 0
 702 0000 08B5     		push	{r3, lr}
 703              		.cfi_def_cfa_offset 8
 704              		.cfi_offset 3, -8
 705              		.cfi_offset 14, -4
 706              		.loc 1 302 0
 707 0002 094B     		ldr	r3, .L129
 708 0004 5969     		ldr	r1, [r3, #20]
 709 0006 1A68     		ldr	r2, [r3]
 710 0008 0A40     		ands	r2, r2, r1
 711 000a 02F48012 		and	r2, r2, #1048576
 712              	.LVL50:
 713              		.loc 1 303 0
 714 000e 5A61     		str	r2, [r3, #20]
 715              		.loc 1 304 0
 716 0010 2AB1     		cbz	r2, .L125
 717              		.loc 1 305 0
 718 0012 0648     		ldr	r0, .L129+4
 719 0014 4368     		ldr	r3, [r0, #4]
 720 0016 1421     		movs	r1, #20
 721 0018 D3F8A430 		ldr	r3, [r3, #164]
 722 001c 9847     		blx	r3
 723              	.LVL51:
 724              	.L125:
 725              		.loc 1 308 0
 726 001e BDE80840 		pop	{r3, lr}
 727              		.loc 1 307 0
 728 0022 FFF7FEBF 		b	_port_irq_epilogue
 729              	.LVL52:
 730              	.L130:
 731 0026 00BF     		.align	2
 732              	.L129:
 733 0028 00040140 		.word	1073808384
 734 002c 00000000 		.word	EXTD1
 735              		.cfi_endproc
 736              	.LFE283:
 737              		.size	Vector4C, .-Vector4C
 738              		.section	.text.Vector140,"ax",%progbits
 739              		.align	2
 740              		.p2align 4,,15
 741              		.global	Vector140
ARM GAS  /tmp/ccZqK06Y.s 			page 14


 742              		.thumb
 743              		.thumb_func
 744              		.type	Vector140, %function
 745              	Vector140:
 746              	.LFB284:
 747              		.loc 1 317 0
 748              		.cfi_startproc
 749              		@ args = 0, pretend = 0, frame = 0
 750              		@ frame_needed = 0, uses_anonymous_args = 0
 751              		.loc 1 322 0
 752 0000 124B     		ldr	r3, .L146
 753 0002 134A     		ldr	r2, .L146+4
 754 0004 5969     		ldr	r1, [r3, #20]
 755              		.loc 1 317 0
 756 0006 10B5     		push	{r4, lr}
 757              		.cfi_def_cfa_offset 8
 758              		.cfi_offset 4, -8
 759              		.cfi_offset 14, -4
 760              		.loc 1 322 0
 761 0008 1C68     		ldr	r4, [r3]
 762 000a 0C40     		ands	r4, r4, r1
 763 000c 2240     		ands	r2, r2, r4
 764              	.LVL53:
 765              		.loc 1 324 0
 766 000e A102     		lsls	r1, r4, #10
 767              		.loc 1 323 0
 768 0010 5A61     		str	r2, [r3, #20]
 769              		.loc 1 324 0
 770 0012 14D4     		bmi	.L144
 771              	.LVL54:
 772              	.L132:
 773              		.loc 1 326 0
 774 0014 6202     		lsls	r2, r4, #9
 775 0016 0BD4     		bmi	.L145
 776              	.L133:
 777              		.loc 1 328 0
 778 0018 A300     		lsls	r3, r4, #2
 779 001a 05D5     		bpl	.L134
 780              		.loc 1 329 0
 781 001c 0D48     		ldr	r0, .L146+8
 782 001e 4368     		ldr	r3, [r0, #4]
 783 0020 1D21     		movs	r1, #29
 784 0022 D3F8EC30 		ldr	r3, [r3, #236]
 785 0026 9847     		blx	r3
 786              	.LVL55:
 787              	.L134:
 788              		.loc 1 332 0
 789 0028 BDE81040 		pop	{r4, lr}
 790              	.LVL56:
 791              		.loc 1 331 0
 792 002c FFF7FEBF 		b	_port_irq_epilogue
 793              	.LVL57:
 794              	.L145:
 795              		.loc 1 327 0
 796 0030 0848     		ldr	r0, .L146+8
 797 0032 4368     		ldr	r3, [r0, #4]
 798 0034 1621     		movs	r1, #22
ARM GAS  /tmp/ccZqK06Y.s 			page 15


 799 0036 D3F8B430 		ldr	r3, [r3, #180]
 800 003a 9847     		blx	r3
 801              	.LVL58:
 802 003c ECE7     		b	.L133
 803              	.LVL59:
 804              	.L144:
 805              		.loc 1 325 0
 806 003e 0548     		ldr	r0, .L146+8
 807 0040 4368     		ldr	r3, [r0, #4]
 808 0042 1521     		movs	r1, #21
 809 0044 D3F8AC30 		ldr	r3, [r3, #172]
 810 0048 9847     		blx	r3
 811              	.LVL60:
 812 004a E3E7     		b	.L132
 813              	.L147:
 814              		.align	2
 815              	.L146:
 816 004c 00040140 		.word	1073808384
 817 0050 00006020 		.word	543162368
 818 0054 00000000 		.word	EXTD1
 819              		.cfi_endproc
 820              	.LFE284:
 821              		.size	Vector140, .-Vector140
 822 0058 AFF30080 		.section	.text.Vector144,"ax",%progbits
 822      AFF30080 
 823              		.align	2
 824              		.p2align 4,,15
 825              		.global	Vector144
 826              		.thumb
 827              		.thumb_func
 828              		.type	Vector144, %function
 829              	Vector144:
 830              	.LFB285:
 831              		.loc 1 341 0
 832              		.cfi_startproc
 833              		@ args = 0, pretend = 0, frame = 0
 834              		@ frame_needed = 0, uses_anonymous_args = 0
 835              		.loc 1 346 0
 836 0000 164B     		ldr	r3, .L160
 837 0002 5A69     		ldr	r2, [r3, #20]
 838 0004 1968     		ldr	r1, [r3]
 839 0006 0A40     		ands	r2, r2, r1
 840              		.loc 1 341 0
 841 0008 10B5     		push	{r4, lr}
 842              		.cfi_def_cfa_offset 8
 843              		.cfi_offset 4, -8
 844              		.cfi_offset 14, -4
 845              		.loc 1 346 0
 846 000a 02F04044 		and	r4, r2, #-1073741824
 847              	.LVL61:
 848              		.loc 1 347 0
 849 000e 5C61     		str	r4, [r3, #20]
 850              		.loc 1 348 0
 851 0010 5300     		lsls	r3, r2, #1
 852 0012 13D4     		bmi	.L158
 853              		.loc 1 350 0
 854 0014 002C     		cmp	r4, #0
ARM GAS  /tmp/ccZqK06Y.s 			page 16


 855 0016 19DB     		blt	.L159
 856              	.L150:
 857              		.loc 1 353 0
 858 0018 104B     		ldr	r3, .L160
 859 001a 596B     		ldr	r1, [r3, #52]
 860 001c 1A6A     		ldr	r2, [r3, #32]
 861 001e 0A40     		ands	r2, r2, r1
 862 0020 02F00102 		and	r2, r2, #1
 863              	.LVL62:
 864              		.loc 1 354 0
 865 0024 5A63     		str	r2, [r3, #52]
 866              		.loc 1 355 0
 867 0026 2AB1     		cbz	r2, .L151
 868              		.loc 1 356 0
 869 0028 0D48     		ldr	r0, .L160+4
 870 002a 4368     		ldr	r3, [r0, #4]
 871 002c 2021     		movs	r1, #32
 872 002e D3F80431 		ldr	r3, [r3, #260]
 873 0032 9847     		blx	r3
 874              	.LVL63:
 875              	.L151:
 876              		.loc 1 359 0
 877 0034 BDE81040 		pop	{r4, lr}
 878              		.loc 1 358 0
 879 0038 FFF7FEBF 		b	_port_irq_epilogue
 880              	.LVL64:
 881              	.L158:
 882              		.loc 1 349 0
 883 003c 0848     		ldr	r0, .L160+4
 884 003e 4368     		ldr	r3, [r0, #4]
 885 0040 1E21     		movs	r1, #30
 886 0042 D3F8F430 		ldr	r3, [r3, #244]
 887 0046 9847     		blx	r3
 888              	.LVL65:
 889              		.loc 1 350 0
 890 0048 002C     		cmp	r4, #0
 891 004a E5DA     		bge	.L150
 892              	.L159:
 893              		.loc 1 351 0
 894 004c 0448     		ldr	r0, .L160+4
 895 004e 4368     		ldr	r3, [r0, #4]
 896 0050 1F21     		movs	r1, #31
 897 0052 D3F8FC30 		ldr	r3, [r3, #252]
 898 0056 9847     		blx	r3
 899              	.LVL66:
 900 0058 DEE7     		b	.L150
 901              	.L161:
 902 005a 00BF     		.align	2
 903              	.L160:
 904 005c 00040140 		.word	1073808384
 905 0060 00000000 		.word	EXTD1
 906              		.cfi_endproc
 907              	.LFE285:
 908              		.size	Vector144, .-Vector144
 909 0064 AFF30080 		.section	.text.Vector148,"ax",%progbits
 909      AFF30080 
 909      AFF30080 
ARM GAS  /tmp/ccZqK06Y.s 			page 17


 910              		.align	2
 911              		.p2align 4,,15
 912              		.global	Vector148
 913              		.thumb
 914              		.thumb_func
 915              		.type	Vector148, %function
 916              	Vector148:
 917              	.LFB286:
 918              		.loc 1 368 0
 919              		.cfi_startproc
 920              		@ args = 0, pretend = 0, frame = 0
 921              		@ frame_needed = 0, uses_anonymous_args = 0
 922 0000 08B5     		push	{r3, lr}
 923              		.cfi_def_cfa_offset 8
 924              		.cfi_offset 3, -8
 925              		.cfi_offset 14, -4
 926              		.loc 1 373 0
 927 0002 094B     		ldr	r3, .L167
 928 0004 596B     		ldr	r1, [r3, #52]
 929 0006 1A68     		ldr	r2, [r3]
 930 0008 0A40     		ands	r2, r2, r1
 931 000a 02F00202 		and	r2, r2, #2
 932              	.LVL67:
 933              		.loc 1 374 0
 934 000e 5A63     		str	r2, [r3, #52]
 935              		.loc 1 375 0
 936 0010 2AB1     		cbz	r2, .L163
 937              		.loc 1 376 0
 938 0012 0648     		ldr	r0, .L167+4
 939 0014 4368     		ldr	r3, [r0, #4]
 940 0016 2121     		movs	r1, #33
 941 0018 D3F80C31 		ldr	r3, [r3, #268]
 942 001c 9847     		blx	r3
 943              	.LVL68:
 944              	.L163:
 945              		.loc 1 379 0
 946 001e BDE80840 		pop	{r3, lr}
 947              		.loc 1 378 0
 948 0022 FFF7FEBF 		b	_port_irq_epilogue
 949              	.LVL69:
 950              	.L168:
 951 0026 00BF     		.align	2
 952              	.L167:
 953 0028 00040140 		.word	1073808384
 954 002c 00000000 		.word	EXTD1
 955              		.cfi_endproc
 956              	.LFE286:
 957              		.size	Vector148, .-Vector148
 958              		.section	.text.ext_lld_exti_irq_enable,"ax",%progbits
 959              		.align	2
 960              		.p2align 4,,15
 961              		.global	ext_lld_exti_irq_enable
 962              		.thumb
 963              		.thumb_func
 964              		.type	ext_lld_exti_irq_enable, %function
 965              	ext_lld_exti_irq_enable:
 966              	.LFB287:
ARM GAS  /tmp/ccZqK06Y.s 			page 18


 967              		.loc 1 391 0
 968              		.cfi_startproc
 969              		@ args = 0, pretend = 0, frame = 0
 970              		@ frame_needed = 0, uses_anonymous_args = 0
 971              		.loc 1 393 0
 972 0000 0620     		movs	r0, #6
 973              		.loc 1 391 0
 974 0002 08B5     		push	{r3, lr}
 975              		.cfi_def_cfa_offset 8
 976              		.cfi_offset 3, -8
 977              		.cfi_offset 14, -4
 978              		.loc 1 393 0
 979 0004 0146     		mov	r1, r0
 980 0006 FFF7FEFF 		bl	nvicEnableVector
 981              	.LVL70:
 982              		.loc 1 394 0
 983 000a 0720     		movs	r0, #7
 984 000c 0621     		movs	r1, #6
 985 000e FFF7FEFF 		bl	nvicEnableVector
 986              	.LVL71:
 987              		.loc 1 395 0
 988 0012 0820     		movs	r0, #8
 989 0014 0621     		movs	r1, #6
 990 0016 FFF7FEFF 		bl	nvicEnableVector
 991              	.LVL72:
 992              		.loc 1 396 0
 993 001a 0920     		movs	r0, #9
 994 001c 0621     		movs	r1, #6
 995 001e FFF7FEFF 		bl	nvicEnableVector
 996              	.LVL73:
 997              		.loc 1 397 0
 998 0022 0A20     		movs	r0, #10
 999 0024 0621     		movs	r1, #6
 1000 0026 FFF7FEFF 		bl	nvicEnableVector
 1001              	.LVL74:
 1002              		.loc 1 398 0
 1003 002a 1720     		movs	r0, #23
 1004 002c 0621     		movs	r1, #6
 1005 002e FFF7FEFF 		bl	nvicEnableVector
 1006              	.LVL75:
 1007              		.loc 1 399 0
 1008 0032 2820     		movs	r0, #40
 1009 0034 0621     		movs	r1, #6
 1010 0036 FFF7FEFF 		bl	nvicEnableVector
 1011              	.LVL76:
 1012              		.loc 1 400 0
 1013 003a 0120     		movs	r0, #1
 1014 003c 0621     		movs	r1, #6
 1015 003e FFF7FEFF 		bl	nvicEnableVector
 1016              	.LVL77:
 1017              		.loc 1 401 0
 1018 0042 2920     		movs	r0, #41
 1019 0044 0621     		movs	r1, #6
 1020 0046 FFF7FEFF 		bl	nvicEnableVector
 1021              	.LVL78:
 1022              		.loc 1 403 0
 1023 004a 4C20     		movs	r0, #76
ARM GAS  /tmp/ccZqK06Y.s 			page 19


 1024 004c 0621     		movs	r1, #6
 1025 004e FFF7FEFF 		bl	nvicEnableVector
 1026              	.LVL79:
 1027              		.loc 1 405 0
 1028 0052 0220     		movs	r0, #2
 1029 0054 0621     		movs	r1, #6
 1030 0056 FFF7FEFF 		bl	nvicEnableVector
 1031              	.LVL80:
 1032              		.loc 1 406 0
 1033 005a 0320     		movs	r0, #3
 1034 005c 0621     		movs	r1, #6
 1035 005e FFF7FEFF 		bl	nvicEnableVector
 1036              	.LVL81:
 1037              		.loc 1 407 0
 1038 0062 4020     		movs	r0, #64
 1039 0064 0621     		movs	r1, #6
 1040 0066 FFF7FEFF 		bl	nvicEnableVector
 1041              	.LVL82:
 1042              		.loc 1 408 0
 1043 006a 4120     		movs	r0, #65
 1044 006c 0621     		movs	r1, #6
 1045 006e FFF7FEFF 		bl	nvicEnableVector
 1046              	.LVL83:
 1047              		.loc 1 410 0
 1048 0072 4220     		movs	r0, #66
 1049 0074 0621     		movs	r1, #6
 1050              		.loc 1 412 0
 1051 0076 BDE80840 		pop	{r3, lr}
 1052              		.loc 1 410 0
 1053 007a FFF7FEBF 		b	nvicEnableVector
 1054              	.LVL84:
 1055              		.cfi_endproc
 1056              	.LFE287:
 1057              		.size	ext_lld_exti_irq_enable, .-ext_lld_exti_irq_enable
 1058 007e 00BF     		.section	.text.ext_lld_exti_irq_disable,"ax",%progbits
 1059              		.align	2
 1060              		.p2align 4,,15
 1061              		.global	ext_lld_exti_irq_disable
 1062              		.thumb
 1063              		.thumb_func
 1064              		.type	ext_lld_exti_irq_disable, %function
 1065              	ext_lld_exti_irq_disable:
 1066              	.LFB288:
 1067              		.loc 1 419 0
 1068              		.cfi_startproc
 1069              		@ args = 0, pretend = 0, frame = 0
 1070              		@ frame_needed = 0, uses_anonymous_args = 0
 1071 0000 08B5     		push	{r3, lr}
 1072              		.cfi_def_cfa_offset 8
 1073              		.cfi_offset 3, -8
 1074              		.cfi_offset 14, -4
 1075              		.loc 1 421 0
 1076 0002 0620     		movs	r0, #6
 1077 0004 FFF7FEFF 		bl	nvicDisableVector
 1078              	.LVL85:
 1079              		.loc 1 422 0
 1080 0008 0720     		movs	r0, #7
ARM GAS  /tmp/ccZqK06Y.s 			page 20


 1081 000a FFF7FEFF 		bl	nvicDisableVector
 1082              	.LVL86:
 1083              		.loc 1 423 0
 1084 000e 0820     		movs	r0, #8
 1085 0010 FFF7FEFF 		bl	nvicDisableVector
 1086              	.LVL87:
 1087              		.loc 1 424 0
 1088 0014 0920     		movs	r0, #9
 1089 0016 FFF7FEFF 		bl	nvicDisableVector
 1090              	.LVL88:
 1091              		.loc 1 425 0
 1092 001a 0A20     		movs	r0, #10
 1093 001c FFF7FEFF 		bl	nvicDisableVector
 1094              	.LVL89:
 1095              		.loc 1 426 0
 1096 0020 1720     		movs	r0, #23
 1097 0022 FFF7FEFF 		bl	nvicDisableVector
 1098              	.LVL90:
 1099              		.loc 1 427 0
 1100 0026 2820     		movs	r0, #40
 1101 0028 FFF7FEFF 		bl	nvicDisableVector
 1102              	.LVL91:
 1103              		.loc 1 428 0
 1104 002c 0120     		movs	r0, #1
 1105 002e FFF7FEFF 		bl	nvicDisableVector
 1106              	.LVL92:
 1107              		.loc 1 429 0
 1108 0032 2920     		movs	r0, #41
 1109 0034 FFF7FEFF 		bl	nvicDisableVector
 1110              	.LVL93:
 1111              		.loc 1 431 0
 1112 0038 4C20     		movs	r0, #76
 1113 003a FFF7FEFF 		bl	nvicDisableVector
 1114              	.LVL94:
 1115              		.loc 1 433 0
 1116 003e 0220     		movs	r0, #2
 1117 0040 FFF7FEFF 		bl	nvicDisableVector
 1118              	.LVL95:
 1119              		.loc 1 434 0
 1120 0044 0320     		movs	r0, #3
 1121 0046 FFF7FEFF 		bl	nvicDisableVector
 1122              	.LVL96:
 1123              		.loc 1 435 0
 1124 004a 4020     		movs	r0, #64
 1125 004c FFF7FEFF 		bl	nvicDisableVector
 1126              	.LVL97:
 1127              		.loc 1 436 0
 1128 0050 4120     		movs	r0, #65
 1129 0052 FFF7FEFF 		bl	nvicDisableVector
 1130              	.LVL98:
 1131              		.loc 1 438 0
 1132 0056 4220     		movs	r0, #66
 1133              		.loc 1 440 0
 1134 0058 BDE80840 		pop	{r3, lr}
 1135              		.loc 1 438 0
 1136 005c FFF7FEBF 		b	nvicDisableVector
 1137              	.LVL99:
ARM GAS  /tmp/ccZqK06Y.s 			page 21


 1138              		.cfi_endproc
 1139              	.LFE288:
 1140              		.size	ext_lld_exti_irq_disable, .-ext_lld_exti_irq_disable
 1141              		.text
 1142              	.Letext0:
 1143              		.file 2 "/nfs/nfs5/home/research/hardware/arm2/gcc-arm-embedded/gcc-arm-none-eabi-4_8-2014q2/arm-n
 1144              		.file 3 "/nfs/nfs5/home/research/hardware/arm2/gcc-arm-embedded/gcc-arm-none-eabi-4_8-2014q2/arm-n
 1145              		.file 4 "../ChibiOS/os/rt/ports/ARMCMx/compilers/GCC/chtypes.h"
 1146              		.file 5 "../ChibiOS/os/rt/include/chsystypes.h"
 1147              		.file 6 "../ChibiOS/os/rt/include/chschd.h"
 1148              		.file 7 "../ChibiOS/os/ext/CMSIS/ST/STM32F3xx/stm32f303xc.h"
 1149              		.file 8 "../ChibiOS/os/rt/ports/ARMCMx/chcore.h"
 1150              		.file 9 "../ChibiOS/os/rt/ports/ARMCMx/chcore_v7m.h"
 1151              		.file 10 "../ChibiOS/os/rt/include/chtm.h"
 1152              		.file 11 "../ChibiOS/os/rt/include/chsem.h"
 1153              		.file 12 "../ChibiOS/os/rt/include/chmtx.h"
 1154              		.file 13 "../ChibiOS/os/hal/include/ext.h"
 1155              		.file 14 "../ChibiOS/os/hal/ports/STM32/LLD/EXTIv1/ext_lld.h"
 1156              		.file 15 "../ChibiOS/os/ext/CMSIS/include/core_cm4.h"
 1157              		.file 16 "../ChibiOS/os/hal/ports/common/ARMCMx/nvic.h"
 1158              		.section	.debug_info,"",%progbits
 1159              	.Ldebug_info0:
 1160 0000 F3100000 		.4byte	0x10f3
 1161 0004 0400     		.2byte	0x4
 1162 0006 00000000 		.4byte	.Ldebug_abbrev0
 1163 000a 04       		.byte	0x4
 1164 000b 01       		.uleb128 0x1
 1165 000c 69080000 		.4byte	.LASF219
 1166 0010 01       		.byte	0x1
 1167 0011 2A080000 		.4byte	.LASF220
 1168 0015 3E030000 		.4byte	.LASF221
 1169 0019 00000000 		.4byte	.Ldebug_ranges0+0
 1170 001d 00000000 		.4byte	0
 1171 0021 00000000 		.4byte	.Ldebug_line0
 1172 0025 02       		.uleb128 0x2
 1173 0026 04       		.byte	0x4
 1174 0027 05       		.byte	0x5
 1175 0028 696E7400 		.ascii	"int\000"
 1176 002c 03       		.uleb128 0x3
 1177 002d 04       		.byte	0x4
 1178 002e 07       		.byte	0x7
 1179 002f D3020000 		.4byte	.LASF0
 1180 0033 03       		.uleb128 0x3
 1181 0034 01       		.byte	0x1
 1182 0035 06       		.byte	0x6
 1183 0036 73010000 		.4byte	.LASF1
 1184 003a 04       		.uleb128 0x4
 1185 003b 48000000 		.4byte	.LASF5
 1186 003f 02       		.byte	0x2
 1187 0040 1C       		.byte	0x1c
 1188 0041 45000000 		.4byte	0x45
 1189 0045 03       		.uleb128 0x3
 1190 0046 01       		.byte	0x1
 1191 0047 08       		.byte	0x8
 1192 0048 7C060000 		.4byte	.LASF2
 1193 004c 03       		.uleb128 0x3
 1194 004d 02       		.byte	0x2
ARM GAS  /tmp/ccZqK06Y.s 			page 22


 1195 004e 05       		.byte	0x5
 1196 004f CE060000 		.4byte	.LASF3
 1197 0053 03       		.uleb128 0x3
 1198 0054 02       		.byte	0x2
 1199 0055 07       		.byte	0x7
 1200 0056 92030000 		.4byte	.LASF4
 1201 005a 04       		.uleb128 0x4
 1202 005b 4A040000 		.4byte	.LASF6
 1203 005f 02       		.byte	0x2
 1204 0060 37       		.byte	0x37
 1205 0061 65000000 		.4byte	0x65
 1206 0065 03       		.uleb128 0x3
 1207 0066 04       		.byte	0x4
 1208 0067 05       		.byte	0x5
 1209 0068 C1010000 		.4byte	.LASF7
 1210 006c 04       		.uleb128 0x4
 1211 006d 71090000 		.4byte	.LASF8
 1212 0071 02       		.byte	0x2
 1213 0072 38       		.byte	0x38
 1214 0073 77000000 		.4byte	0x77
 1215 0077 03       		.uleb128 0x3
 1216 0078 04       		.byte	0x4
 1217 0079 07       		.byte	0x7
 1218 007a E1070000 		.4byte	.LASF9
 1219 007e 03       		.uleb128 0x3
 1220 007f 08       		.byte	0x8
 1221 0080 05       		.byte	0x5
 1222 0081 65010000 		.4byte	.LASF10
 1223 0085 04       		.uleb128 0x4
 1224 0086 DB050000 		.4byte	.LASF11
 1225 008a 02       		.byte	0x2
 1226 008b 4E       		.byte	0x4e
 1227 008c 90000000 		.4byte	0x90
 1228 0090 03       		.uleb128 0x3
 1229 0091 08       		.byte	0x8
 1230 0092 07       		.byte	0x7
 1231 0093 B3000000 		.4byte	.LASF12
 1232 0097 04       		.uleb128 0x4
 1233 0098 7E0A0000 		.4byte	.LASF13
 1234 009c 03       		.byte	0x3
 1235 009d 2A       		.byte	0x2a
 1236 009e 3A000000 		.4byte	0x3a
 1237 00a2 04       		.uleb128 0x4
 1238 00a3 74060000 		.4byte	.LASF14
 1239 00a7 03       		.byte	0x3
 1240 00a8 41       		.byte	0x41
 1241 00a9 5A000000 		.4byte	0x5a
 1242 00ad 04       		.uleb128 0x4
 1243 00ae 92070000 		.4byte	.LASF15
 1244 00b2 03       		.byte	0x3
 1245 00b3 42       		.byte	0x42
 1246 00b4 6C000000 		.4byte	0x6c
 1247 00b8 04       		.uleb128 0x4
 1248 00b9 32000000 		.4byte	.LASF16
 1249 00bd 03       		.byte	0x3
 1250 00be 4E       		.byte	0x4e
 1251 00bf 85000000 		.4byte	0x85
ARM GAS  /tmp/ccZqK06Y.s 			page 23


 1252 00c3 04       		.uleb128 0x4
 1253 00c4 FA090000 		.4byte	.LASF17
 1254 00c8 04       		.byte	0x4
 1255 00c9 39       		.byte	0x39
 1256 00ca AD000000 		.4byte	0xad
 1257 00ce 04       		.uleb128 0x4
 1258 00cf 0A040000 		.4byte	.LASF18
 1259 00d3 04       		.byte	0x4
 1260 00d4 3C       		.byte	0x3c
 1261 00d5 97000000 		.4byte	0x97
 1262 00d9 04       		.uleb128 0x4
 1263 00da EB010000 		.4byte	.LASF19
 1264 00de 04       		.byte	0x4
 1265 00df 3D       		.byte	0x3d
 1266 00e0 97000000 		.4byte	0x97
 1267 00e4 04       		.uleb128 0x4
 1268 00e5 23060000 		.4byte	.LASF20
 1269 00e9 04       		.byte	0x4
 1270 00ea 3E       		.byte	0x3e
 1271 00eb 97000000 		.4byte	0x97
 1272 00ef 04       		.uleb128 0x4
 1273 00f0 56060000 		.4byte	.LASF21
 1274 00f4 04       		.byte	0x4
 1275 00f5 40       		.byte	0x40
 1276 00f6 AD000000 		.4byte	0xad
 1277 00fa 04       		.uleb128 0x4
 1278 00fb D1030000 		.4byte	.LASF22
 1279 00ff 04       		.byte	0x4
 1280 0100 41       		.byte	0x41
 1281 0101 A2000000 		.4byte	0xa2
 1282 0105 04       		.uleb128 0x4
 1283 0106 3E040000 		.4byte	.LASF23
 1284 010a 04       		.byte	0x4
 1285 010b 43       		.byte	0x43
 1286 010c AD000000 		.4byte	0xad
 1287 0110 04       		.uleb128 0x4
 1288 0111 49050000 		.4byte	.LASF24
 1289 0115 04       		.byte	0x4
 1290 0116 45       		.byte	0x45
 1291 0117 A2000000 		.4byte	0xa2
 1292 011b 04       		.uleb128 0x4
 1293 011c 4A090000 		.4byte	.LASF25
 1294 0120 05       		.byte	0x5
 1295 0121 33       		.byte	0x33
 1296 0122 AD000000 		.4byte	0xad
 1297 0126 04       		.uleb128 0x4
 1298 0127 60080000 		.4byte	.LASF26
 1299 012b 05       		.byte	0x5
 1300 012c 3F       		.byte	0x3f
 1301 012d 31010000 		.4byte	0x131
 1302 0131 05       		.uleb128 0x5
 1303 0132 BD030000 		.4byte	.LASF45
 1304 0136 40       		.byte	0x40
 1305 0137 06       		.byte	0x6
 1306 0138 C2       		.byte	0xc2
 1307 0139 11020000 		.4byte	0x211
 1308 013d 06       		.uleb128 0x6
ARM GAS  /tmp/ccZqK06Y.s 			page 24


 1309 013e 14070000 		.4byte	.LASF27
 1310 0142 06       		.byte	0x6
 1311 0143 C3       		.byte	0xc3
 1312 0144 1C020000 		.4byte	0x21c
 1313 0148 00       		.byte	0
 1314 0149 06       		.uleb128 0x6
 1315 014a 4F060000 		.4byte	.LASF28
 1316 014e 06       		.byte	0x6
 1317 014f C5       		.byte	0xc5
 1318 0150 1C020000 		.4byte	0x21c
 1319 0154 04       		.byte	0x4
 1320 0155 06       		.uleb128 0x6
 1321 0156 40010000 		.4byte	.LASF29
 1322 015a 06       		.byte	0x6
 1323 015b C7       		.byte	0xc7
 1324 015c EF000000 		.4byte	0xef
 1325 0160 08       		.byte	0x8
 1326 0161 06       		.uleb128 0x6
 1327 0162 250B0000 		.4byte	.LASF30
 1328 0166 06       		.byte	0x6
 1329 0167 C8       		.byte	0xc8
 1330 0168 E8060000 		.4byte	0x6e8
 1331 016c 0C       		.byte	0xc
 1332 016d 06       		.uleb128 0x6
 1333 016e 21020000 		.4byte	.LASF31
 1334 0172 06       		.byte	0x6
 1335 0173 CA       		.byte	0xca
 1336 0174 1C020000 		.4byte	0x21c
 1337 0178 10       		.byte	0x10
 1338 0179 06       		.uleb128 0x6
 1339 017a E0060000 		.4byte	.LASF32
 1340 017e 06       		.byte	0x6
 1341 017f CB       		.byte	0xcb
 1342 0180 1C020000 		.4byte	0x21c
 1343 0184 14       		.byte	0x14
 1344 0185 06       		.uleb128 0x6
 1345 0186 AA0A0000 		.4byte	.LASF33
 1346 018a 06       		.byte	0x6
 1347 018b D2       		.byte	0xd2
 1348 018c 73080000 		.4byte	0x873
 1349 0190 18       		.byte	0x18
 1350 0191 06       		.uleb128 0x6
 1351 0192 D8060000 		.4byte	.LASF34
 1352 0196 06       		.byte	0x6
 1353 0197 DD       		.byte	0xdd
 1354 0198 D9000000 		.4byte	0xd9
 1355 019c 1C       		.byte	0x1c
 1356 019d 06       		.uleb128 0x6
 1357 019e 1B070000 		.4byte	.LASF35
 1358 01a2 06       		.byte	0x6
 1359 01a3 E1       		.byte	0xe1
 1360 01a4 CE000000 		.4byte	0xce
 1361 01a8 1D       		.byte	0x1d
 1362 01a9 06       		.uleb128 0x6
 1363 01aa 490A0000 		.4byte	.LASF36
 1364 01ae 06       		.byte	0x6
 1365 01af E6       		.byte	0xe6
ARM GAS  /tmp/ccZqK06Y.s 			page 25


 1366 01b0 E4000000 		.4byte	0xe4
 1367 01b4 1E       		.byte	0x1e
 1368 01b5 07       		.uleb128 0x7
 1369 01b6 705F7500 		.ascii	"p_u\000"
 1370 01ba 06       		.byte	0x6
 1371 01bb 3701     		.2byte	0x137
 1372 01bd A2070000 		.4byte	0x7a2
 1373 01c1 20       		.byte	0x20
 1374 01c2 08       		.uleb128 0x8
 1375 01c3 C3040000 		.4byte	.LASF37
 1376 01c7 06       		.byte	0x6
 1377 01c8 3C01     		.2byte	0x13c
 1378 01ca 22020000 		.4byte	0x222
 1379 01ce 24       		.byte	0x24
 1380 01cf 08       		.uleb128 0x8
 1381 01d0 33030000 		.4byte	.LASF38
 1382 01d4 06       		.byte	0x6
 1383 01d5 4201     		.2byte	0x142
 1384 01d7 46020000 		.4byte	0x246
 1385 01db 28       		.byte	0x28
 1386 01dc 08       		.uleb128 0x8
 1387 01dd 87070000 		.4byte	.LASF39
 1388 01e1 06       		.byte	0x6
 1389 01e2 4801     		.2byte	0x148
 1390 01e4 05010000 		.4byte	0x105
 1391 01e8 30       		.byte	0x30
 1392 01e9 08       		.uleb128 0x8
 1393 01ea C4060000 		.4byte	.LASF40
 1394 01ee 06       		.byte	0x6
 1395 01ef 4F01     		.2byte	0x14f
 1396 01f1 6D080000 		.4byte	0x86d
 1397 01f5 34       		.byte	0x34
 1398 01f6 08       		.uleb128 0x8
 1399 01f7 67020000 		.4byte	.LASF41
 1400 01fb 06       		.byte	0x6
 1401 01fc 5301     		.2byte	0x153
 1402 01fe EF000000 		.4byte	0xef
 1403 0202 38       		.byte	0x38
 1404 0203 08       		.uleb128 0x8
 1405 0204 88010000 		.4byte	.LASF42
 1406 0208 06       		.byte	0x6
 1407 0209 5A01     		.2byte	0x15a
 1408 020b F9020000 		.4byte	0x2f9
 1409 020f 3C       		.byte	0x3c
 1410 0210 00       		.byte	0
 1411 0211 04       		.uleb128 0x4
 1412 0212 ED040000 		.4byte	.LASF43
 1413 0216 05       		.byte	0x5
 1414 0217 44       		.byte	0x44
 1415 0218 1C020000 		.4byte	0x21c
 1416 021c 09       		.uleb128 0x9
 1417 021d 04       		.byte	0x4
 1418 021e 26010000 		.4byte	0x126
 1419 0222 04       		.uleb128 0x4
 1420 0223 00000000 		.4byte	.LASF44
 1421 0227 05       		.byte	0x5
 1422 0228 49       		.byte	0x49
ARM GAS  /tmp/ccZqK06Y.s 			page 26


 1423 0229 2D020000 		.4byte	0x22d
 1424 022d 05       		.uleb128 0x5
 1425 022e BE070000 		.4byte	.LASF46
 1426 0232 04       		.byte	0x4
 1427 0233 06       		.byte	0x6
 1428 0234 B0       		.byte	0xb0
 1429 0235 46020000 		.4byte	0x246
 1430 0239 06       		.uleb128 0x6
 1431 023a 14070000 		.4byte	.LASF27
 1432 023e 06       		.byte	0x6
 1433 023f B1       		.byte	0xb1
 1434 0240 1C020000 		.4byte	0x21c
 1435 0244 00       		.byte	0
 1436 0245 00       		.byte	0
 1437 0246 04       		.uleb128 0x4
 1438 0247 2E0A0000 		.4byte	.LASF47
 1439 024b 05       		.byte	0x5
 1440 024c 50       		.byte	0x50
 1441 024d 51020000 		.4byte	0x251
 1442 0251 05       		.uleb128 0x5
 1443 0252 2F010000 		.4byte	.LASF48
 1444 0256 08       		.byte	0x8
 1445 0257 06       		.byte	0x6
 1446 0258 B7       		.byte	0xb7
 1447 0259 76020000 		.4byte	0x276
 1448 025d 06       		.uleb128 0x6
 1449 025e 14070000 		.4byte	.LASF27
 1450 0262 06       		.byte	0x6
 1451 0263 B8       		.byte	0xb8
 1452 0264 1C020000 		.4byte	0x21c
 1453 0268 00       		.byte	0
 1454 0269 06       		.uleb128 0x6
 1455 026a 4F060000 		.4byte	.LASF28
 1456 026e 06       		.byte	0x6
 1457 026f B9       		.byte	0xb9
 1458 0270 1C020000 		.4byte	0x21c
 1459 0274 04       		.byte	0x4
 1460 0275 00       		.byte	0
 1461 0276 04       		.uleb128 0x4
 1462 0277 0F000000 		.4byte	.LASF49
 1463 027b 05       		.byte	0x5
 1464 027c 57       		.byte	0x57
 1465 027d 81020000 		.4byte	0x281
 1466 0281 0A       		.uleb128 0xa
 1467 0282 30040000 		.4byte	.LASF50
 1468 0286 1C       		.byte	0x1c
 1469 0287 06       		.byte	0x6
 1470 0288 9201     		.2byte	0x192
 1471 028a DD020000 		.4byte	0x2dd
 1472 028e 08       		.uleb128 0x8
 1473 028f 41050000 		.4byte	.LASF51
 1474 0293 06       		.byte	0x6
 1475 0294 9301     		.2byte	0x193
 1476 0296 46020000 		.4byte	0x246
 1477 029a 00       		.byte	0
 1478 029b 08       		.uleb128 0x8
 1479 029c E8060000 		.4byte	.LASF52
ARM GAS  /tmp/ccZqK06Y.s 			page 27


 1480 02a0 06       		.byte	0x6
 1481 02a1 9401     		.2byte	0x194
 1482 02a3 EF000000 		.4byte	0xef
 1483 02a7 08       		.byte	0x8
 1484 02a8 08       		.uleb128 0x8
 1485 02a9 70050000 		.4byte	.LASF53
 1486 02ad 06       		.byte	0x6
 1487 02ae 9601     		.2byte	0x196
 1488 02b0 E8060000 		.4byte	0x6e8
 1489 02b4 0C       		.byte	0xc
 1490 02b5 08       		.uleb128 0x8
 1491 02b6 85020000 		.4byte	.LASF54
 1492 02ba 06       		.byte	0x6
 1493 02bb 9901     		.2byte	0x199
 1494 02bd 1C020000 		.4byte	0x21c
 1495 02c1 10       		.byte	0x10
 1496 02c2 08       		.uleb128 0x8
 1497 02c3 AD050000 		.4byte	.LASF55
 1498 02c7 06       		.byte	0x6
 1499 02c8 9A01     		.2byte	0x19a
 1500 02ca 1C020000 		.4byte	0x21c
 1501 02ce 14       		.byte	0x14
 1502 02cf 08       		.uleb128 0x8
 1503 02d0 A3050000 		.4byte	.LASF56
 1504 02d4 06       		.byte	0x6
 1505 02d5 9D01     		.2byte	0x19d
 1506 02d7 1C020000 		.4byte	0x21c
 1507 02db 18       		.byte	0x18
 1508 02dc 00       		.byte	0
 1509 02dd 04       		.uleb128 0x4
 1510 02de 68090000 		.4byte	.LASF57
 1511 02e2 05       		.byte	0x5
 1512 02e3 5C       		.byte	0x5c
 1513 02e4 E8020000 		.4byte	0x2e8
 1514 02e8 09       		.uleb128 0x9
 1515 02e9 04       		.byte	0x4
 1516 02ea EE020000 		.4byte	0x2ee
 1517 02ee 0B       		.uleb128 0xb
 1518 02ef F9020000 		.4byte	0x2f9
 1519 02f3 0C       		.uleb128 0xc
 1520 02f4 F9020000 		.4byte	0x2f9
 1521 02f8 00       		.byte	0
 1522 02f9 0D       		.uleb128 0xd
 1523 02fa 04       		.byte	0x4
 1524 02fb 04       		.uleb128 0x4
 1525 02fc 3F060000 		.4byte	.LASF58
 1526 0300 05       		.byte	0x5
 1527 0301 61       		.byte	0x61
 1528 0302 06030000 		.4byte	0x306
 1529 0306 0A       		.uleb128 0xa
 1530 0307 50070000 		.4byte	.LASF59
 1531 030b 14       		.byte	0x14
 1532 030c 06       		.byte	0x6
 1533 030d 6D01     		.2byte	0x16d
 1534 030f 55030000 		.4byte	0x355
 1535 0313 08       		.uleb128 0x8
 1536 0314 E0020000 		.4byte	.LASF60
ARM GAS  /tmp/ccZqK06Y.s 			page 28


 1537 0318 06       		.byte	0x6
 1538 0319 6E01     		.2byte	0x16e
 1539 031b 85080000 		.4byte	0x885
 1540 031f 00       		.byte	0
 1541 0320 08       		.uleb128 0x8
 1542 0321 9B020000 		.4byte	.LASF61
 1543 0325 06       		.byte	0x6
 1544 0326 6F01     		.2byte	0x16f
 1545 0328 85080000 		.4byte	0x885
 1546 032c 04       		.byte	0x4
 1547 032d 08       		.uleb128 0x8
 1548 032e 21030000 		.4byte	.LASF62
 1549 0332 06       		.byte	0x6
 1550 0333 7001     		.2byte	0x170
 1551 0335 1B010000 		.4byte	0x11b
 1552 0339 08       		.byte	0x8
 1553 033a 08       		.uleb128 0x8
 1554 033b 2B0B0000 		.4byte	.LASF63
 1555 033f 06       		.byte	0x6
 1556 0340 7101     		.2byte	0x171
 1557 0342 DD020000 		.4byte	0x2dd
 1558 0346 0C       		.byte	0xc
 1559 0347 08       		.uleb128 0x8
 1560 0348 070A0000 		.4byte	.LASF64
 1561 034c 06       		.byte	0x6
 1562 034d 7301     		.2byte	0x173
 1563 034f F9020000 		.4byte	0x2f9
 1564 0353 10       		.byte	0x10
 1565 0354 00       		.byte	0
 1566 0355 04       		.uleb128 0x4
 1567 0356 60040000 		.4byte	.LASF65
 1568 035a 05       		.byte	0x5
 1569 035b 66       		.byte	0x66
 1570 035c 60030000 		.4byte	0x360
 1571 0360 0A       		.uleb128 0xa
 1572 0361 0B050000 		.4byte	.LASF66
 1573 0365 10       		.byte	0x10
 1574 0366 06       		.byte	0x6
 1575 0367 7D01     		.2byte	0x17d
 1576 0369 A2030000 		.4byte	0x3a2
 1577 036d 08       		.uleb128 0x8
 1578 036e E0020000 		.4byte	.LASF60
 1579 0372 06       		.byte	0x6
 1580 0373 7E01     		.2byte	0x17e
 1581 0375 85080000 		.4byte	0x885
 1582 0379 00       		.byte	0
 1583 037a 08       		.uleb128 0x8
 1584 037b 9B020000 		.4byte	.LASF61
 1585 037f 06       		.byte	0x6
 1586 0380 8001     		.2byte	0x180
 1587 0382 85080000 		.4byte	0x885
 1588 0386 04       		.byte	0x4
 1589 0387 08       		.uleb128 0x8
 1590 0388 21030000 		.4byte	.LASF62
 1591 038c 06       		.byte	0x6
 1592 038d 8201     		.2byte	0x182
 1593 038f 1B010000 		.4byte	0x11b
ARM GAS  /tmp/ccZqK06Y.s 			page 29


 1594 0393 08       		.byte	0x8
 1595 0394 08       		.uleb128 0x8
 1596 0395 4F050000 		.4byte	.LASF67
 1597 0399 06       		.byte	0x6
 1598 039a 8A01     		.2byte	0x18a
 1599 039c 1B010000 		.4byte	0x11b
 1600 03a0 0C       		.byte	0xc
 1601 03a1 00       		.byte	0
 1602 03a2 04       		.uleb128 0x4
 1603 03a3 7A000000 		.4byte	.LASF68
 1604 03a7 05       		.byte	0x5
 1605 03a8 6B       		.byte	0x6b
 1606 03a9 AD030000 		.4byte	0x3ad
 1607 03ad 0A       		.uleb128 0xa
 1608 03ae 5E060000 		.4byte	.LASF69
 1609 03b2 04       		.byte	0x4
 1610 03b3 06       		.byte	0x6
 1611 03b4 A401     		.2byte	0x1a4
 1612 03b6 C8030000 		.4byte	0x3c8
 1613 03ba 08       		.uleb128 0x8
 1614 03bb 7C090000 		.4byte	.LASF70
 1615 03bf 06       		.byte	0x6
 1616 03c0 AC01     		.2byte	0x1ac
 1617 03c2 8B080000 		.4byte	0x88b
 1618 03c6 00       		.byte	0
 1619 03c7 00       		.byte	0
 1620 03c8 04       		.uleb128 0x4
 1621 03c9 DF090000 		.4byte	.LASF71
 1622 03cd 05       		.byte	0x5
 1623 03ce 70       		.byte	0x70
 1624 03cf D3030000 		.4byte	0x3d3
 1625 03d3 0E       		.uleb128 0xe
 1626 03d4 46070000 		.4byte	.LASF72
 1627 03d8 5001     		.2byte	0x150
 1628 03da 06       		.byte	0x6
 1629 03db C401     		.2byte	0x1c4
 1630 03dd 2F040000 		.4byte	0x42f
 1631 03e1 08       		.uleb128 0x8
 1632 03e2 6F0A0000 		.4byte	.LASF73
 1633 03e6 06       		.byte	0x6
 1634 03e7 C801     		.2byte	0x1c8
 1635 03e9 76020000 		.4byte	0x276
 1636 03ed 00       		.byte	0
 1637 03ee 08       		.uleb128 0x8
 1638 03ef 98010000 		.4byte	.LASF74
 1639 03f3 06       		.byte	0x6
 1640 03f4 CC01     		.2byte	0x1cc
 1641 03f6 55030000 		.4byte	0x355
 1642 03fa 1C       		.byte	0x1c
 1643 03fb 07       		.uleb128 0x7
 1644 03fc 64626700 		.ascii	"dbg\000"
 1645 0400 06       		.byte	0x6
 1646 0401 D001     		.2byte	0x1d0
 1647 0403 A2030000 		.4byte	0x3a2
 1648 0407 2C       		.byte	0x2c
 1649 0408 08       		.uleb128 0x8
 1650 0409 EF000000 		.4byte	.LASF75
ARM GAS  /tmp/ccZqK06Y.s 			page 30


 1651 040d 06       		.byte	0x6
 1652 040e D401     		.2byte	0x1d4
 1653 0410 26010000 		.4byte	0x126
 1654 0414 30       		.byte	0x30
 1655 0415 07       		.uleb128 0x7
 1656 0416 746D00   		.ascii	"tm\000"
 1657 0419 06       		.byte	0x6
 1658 041a D901     		.2byte	0x1d9
 1659 041c 97070000 		.4byte	0x797
 1660 0420 70       		.byte	0x70
 1661 0421 08       		.uleb128 0x8
 1662 0422 AB020000 		.4byte	.LASF76
 1663 0426 06       		.byte	0x6
 1664 0427 E501     		.2byte	0x1e5
 1665 0429 90080000 		.4byte	0x890
 1666 042d 78       		.byte	0x78
 1667 042e 00       		.byte	0
 1668 042f 0F       		.uleb128 0xf
 1669 0430 01       		.byte	0x1
 1670 0431 07       		.byte	0x7
 1671 0432 55       		.byte	0x55
 1672 0433 FB050000 		.4byte	0x5fb
 1673 0437 10       		.uleb128 0x10
 1674 0438 54090000 		.4byte	.LASF77
 1675 043c 72       		.sleb128 -14
 1676 043d 10       		.uleb128 0x10
 1677 043e 0B030000 		.4byte	.LASF78
 1678 0442 74       		.sleb128 -12
 1679 0443 10       		.uleb128 0x10
 1680 0444 8D020000 		.4byte	.LASF79
 1681 0448 75       		.sleb128 -11
 1682 0449 10       		.uleb128 0x10
 1683 044a AE070000 		.4byte	.LASF80
 1684 044e 76       		.sleb128 -10
 1685 044f 10       		.uleb128 0x10
 1686 0450 22050000 		.4byte	.LASF81
 1687 0454 7B       		.sleb128 -5
 1688 0455 10       		.uleb128 0x10
 1689 0456 CD0A0000 		.4byte	.LASF82
 1690 045a 7C       		.sleb128 -4
 1691 045b 10       		.uleb128 0x10
 1692 045c 5B020000 		.4byte	.LASF83
 1693 0460 7E       		.sleb128 -2
 1694 0461 10       		.uleb128 0x10
 1695 0462 76040000 		.4byte	.LASF84
 1696 0466 7F       		.sleb128 -1
 1697 0467 10       		.uleb128 0x10
 1698 0468 86090000 		.4byte	.LASF85
 1699 046c 00       		.sleb128 0
 1700 046d 10       		.uleb128 0x10
 1701 046e 7F010000 		.4byte	.LASF86
 1702 0472 01       		.sleb128 1
 1703 0473 10       		.uleb128 0x10
 1704 0474 C2050000 		.4byte	.LASF87
 1705 0478 02       		.sleb128 2
 1706 0479 10       		.uleb128 0x10
 1707 047a 1A010000 		.4byte	.LASF88
ARM GAS  /tmp/ccZqK06Y.s 			page 31


 1708 047e 03       		.sleb128 3
 1709 047f 10       		.uleb128 0x10
 1710 0480 6E070000 		.4byte	.LASF89
 1711 0484 04       		.sleb128 4
 1712 0485 10       		.uleb128 0x10
 1713 0486 860A0000 		.4byte	.LASF90
 1714 048a 05       		.sleb128 5
 1715 048b 10       		.uleb128 0x10
 1716 048c 3E0A0000 		.4byte	.LASF91
 1717 0490 06       		.sleb128 6
 1718 0491 10       		.uleb128 0x10
 1719 0492 330B0000 		.4byte	.LASF92
 1720 0496 07       		.sleb128 7
 1721 0497 10       		.uleb128 0x10
 1722 0498 DF0A0000 		.4byte	.LASF93
 1723 049c 08       		.sleb128 8
 1724 049d 10       		.uleb128 0x10
 1725 049e 5B050000 		.4byte	.LASF94
 1726 04a2 09       		.sleb128 9
 1727 04a3 10       		.uleb128 0x10
 1728 04a4 B9060000 		.4byte	.LASF95
 1729 04a8 0A       		.sleb128 10
 1730 04a9 10       		.uleb128 0x10
 1731 04aa F4050000 		.4byte	.LASF96
 1732 04ae 0B       		.sleb128 11
 1733 04af 10       		.uleb128 0x10
 1734 04b0 AA090000 		.4byte	.LASF97
 1735 04b4 0C       		.sleb128 12
 1736 04b5 10       		.uleb128 0x10
 1737 04b6 FA060000 		.4byte	.LASF98
 1738 04ba 0D       		.sleb128 13
 1739 04bb 10       		.uleb128 0x10
 1740 04bc 72020000 		.4byte	.LASF99
 1741 04c0 0E       		.sleb128 14
 1742 04c1 10       		.uleb128 0x10
 1743 04c2 7F030000 		.4byte	.LASF100
 1744 04c6 0F       		.sleb128 15
 1745 04c7 10       		.uleb128 0x10
 1746 04c8 90090000 		.4byte	.LASF101
 1747 04cc 10       		.sleb128 16
 1748 04cd 10       		.uleb128 0x10
 1749 04ce B10A0000 		.4byte	.LASF102
 1750 04d2 11       		.sleb128 17
 1751 04d3 10       		.uleb128 0x10
 1752 04d4 15020000 		.4byte	.LASF103
 1753 04d8 12       		.sleb128 18
 1754 04d9 10       		.uleb128 0x10
 1755 04da 10060000 		.4byte	.LASF104
 1756 04de 13       		.sleb128 19
 1757 04df 10       		.uleb128 0x10
 1758 04e0 32070000 		.4byte	.LASF105
 1759 04e4 14       		.sleb128 20
 1760 04e5 10       		.uleb128 0x10
 1761 04e6 B5050000 		.4byte	.LASF106
 1762 04ea 15       		.sleb128 21
 1763 04eb 10       		.uleb128 0x10
 1764 04ec F3030000 		.4byte	.LASF107
ARM GAS  /tmp/ccZqK06Y.s 			page 32


 1765 04f0 16       		.sleb128 22
 1766 04f1 10       		.uleb128 0x10
 1767 04f2 FE010000 		.4byte	.LASF108
 1768 04f6 17       		.sleb128 23
 1769 04f7 10       		.uleb128 0x10
 1770 04f8 8F0A0000 		.4byte	.LASF109
 1771 04fc 18       		.sleb128 24
 1772 04fd 10       		.uleb128 0x10
 1773 04fe A0000000 		.4byte	.LASF110
 1774 0502 19       		.sleb128 25
 1775 0503 10       		.uleb128 0x10
 1776 0504 18040000 		.4byte	.LASF111
 1777 0508 1A       		.sleb128 26
 1778 0509 10       		.uleb128 0x10
 1779 050a 83040000 		.4byte	.LASF112
 1780 050e 1B       		.sleb128 27
 1781 050f 10       		.uleb128 0x10
 1782 0510 240A0000 		.4byte	.LASF113
 1783 0514 1C       		.sleb128 28
 1784 0515 10       		.uleb128 0x10
 1785 0516 050B0000 		.4byte	.LASF114
 1786 051a 1D       		.sleb128 29
 1787 051b 10       		.uleb128 0x10
 1788 051c 10010000 		.4byte	.LASF115
 1789 0520 1E       		.sleb128 30
 1790 0521 10       		.uleb128 0x10
 1791 0522 3B000000 		.4byte	.LASF116
 1792 0526 1F       		.sleb128 31
 1793 0527 10       		.uleb128 0x10
 1794 0528 D2090000 		.4byte	.LASF117
 1795 052c 20       		.sleb128 32
 1796 052d 10       		.uleb128 0x10
 1797 052e D4010000 		.4byte	.LASF118
 1798 0532 21       		.sleb128 33
 1799 0533 10       		.uleb128 0x10
 1800 0534 FA000000 		.4byte	.LASF119
 1801 0538 22       		.sleb128 34
 1802 0539 10       		.uleb128 0x10
 1803 053a 00040000 		.4byte	.LASF120
 1804 053e 23       		.sleb128 35
 1805 053f 10       		.uleb128 0x10
 1806 0540 66050000 		.4byte	.LASF121
 1807 0544 24       		.sleb128 36
 1808 0545 10       		.uleb128 0x10
 1809 0546 500A0000 		.4byte	.LASF122
 1810 054a 25       		.sleb128 37
 1811 054b 10       		.uleb128 0x10
 1812 054c A2070000 		.4byte	.LASF123
 1813 0550 26       		.sleb128 38
 1814 0551 10       		.uleb128 0x10
 1815 0552 0E0A0000 		.4byte	.LASF124
 1816 0556 27       		.sleb128 39
 1817 0557 10       		.uleb128 0x10
 1818 0558 E4030000 		.4byte	.LASF125
 1819 055c 28       		.sleb128 40
 1820 055d 10       		.uleb128 0x10
 1821 055e 5F000000 		.4byte	.LASF126
ARM GAS  /tmp/ccZqK06Y.s 			page 33


 1822 0562 29       		.sleb128 41
 1823 0563 10       		.uleb128 0x10
 1824 0564 EB090000 		.4byte	.LASF127
 1825 0568 2A       		.sleb128 42
 1826 0569 10       		.uleb128 0x10
 1827 056a CD040000 		.4byte	.LASF128
 1828 056e 2B       		.sleb128 43
 1829 056f 10       		.uleb128 0x10
 1830 0570 D7030000 		.4byte	.LASF129
 1831 0574 2C       		.sleb128 44
 1832 0575 10       		.uleb128 0x10
 1833 0576 95060000 		.4byte	.LASF130
 1834 057a 2D       		.sleb128 45
 1835 057b 10       		.uleb128 0x10
 1836 057c 58010000 		.4byte	.LASF131
 1837 0580 2E       		.sleb128 46
 1838 0581 10       		.uleb128 0x10
 1839 0582 0B020000 		.4byte	.LASF132
 1840 0586 2F       		.sleb128 47
 1841 0587 10       		.uleb128 0x10
 1842 0588 FB0A0000 		.4byte	.LASF133
 1843 058c 33       		.sleb128 51
 1844 058d 10       		.uleb128 0x10
 1845 058e 3F020000 		.4byte	.LASF134
 1846 0592 34       		.sleb128 52
 1847 0593 10       		.uleb128 0x10
 1848 0594 EF060000 		.4byte	.LASF135
 1849 0598 35       		.sleb128 53
 1850 0599 10       		.uleb128 0x10
 1851 059a 29020000 		.4byte	.LASF136
 1852 059e 36       		.sleb128 54
 1853 059f 10       		.uleb128 0x10
 1854 05a0 20080000 		.4byte	.LASF137
 1855 05a4 37       		.sleb128 55
 1856 05a5 10       		.uleb128 0x10
 1857 05a6 CA000000 		.4byte	.LASF138
 1858 05aa 38       		.sleb128 56
 1859 05ab 10       		.uleb128 0x10
 1860 05ac 2E050000 		.4byte	.LASF139
 1861 05b0 39       		.sleb128 57
 1862 05b1 10       		.uleb128 0x10
 1863 05b2 87050000 		.4byte	.LASF140
 1864 05b6 3A       		.sleb128 58
 1865 05b7 10       		.uleb128 0x10
 1866 05b8 01080000 		.4byte	.LASF141
 1867 05bc 3B       		.sleb128 59
 1868 05bd 10       		.uleb128 0x10
 1869 05be 9F010000 		.4byte	.LASF142
 1870 05c2 3C       		.sleb128 60
 1871 05c3 10       		.uleb128 0x10
 1872 05c4 FA020000 		.4byte	.LASF143
 1873 05c8 3D       		.sleb128 61
 1874 05c9 10       		.uleb128 0x10
 1875 05ca 23070000 		.4byte	.LASF144
 1876 05ce C000     		.sleb128 64
 1877 05d0 10       		.uleb128 0x10
 1878 05d1 9B040000 		.4byte	.LASF145
ARM GAS  /tmp/ccZqK06Y.s 			page 34


 1879 05d5 C100     		.sleb128 65
 1880 05d7 10       		.uleb128 0x10
 1881 05d8 89000000 		.4byte	.LASF146
 1882 05dc C200     		.sleb128 66
 1883 05de 10       		.uleb128 0x10
 1884 05df 54040000 		.4byte	.LASF147
 1885 05e3 CA00     		.sleb128 74
 1886 05e5 10       		.uleb128 0x10
 1887 05e6 C6090000 		.4byte	.LASF148
 1888 05ea CB00     		.sleb128 75
 1889 05ec 10       		.uleb128 0x10
 1890 05ed CE070000 		.4byte	.LASF149
 1891 05f1 CC00     		.sleb128 76
 1892 05f3 10       		.uleb128 0x10
 1893 05f4 C40A0000 		.4byte	.LASF150
 1894 05f8 D100     		.sleb128 81
 1895 05fa 00       		.byte	0
 1896 05fb 03       		.uleb128 0x3
 1897 05fc 04       		.byte	0x4
 1898 05fd 07       		.byte	0x7
 1899 05fe E4040000 		.4byte	.LASF151
 1900 0602 11       		.uleb128 0x11
 1901 0603 AD000000 		.4byte	0xad
 1902 0607 12       		.uleb128 0x12
 1903 0608 38       		.byte	0x38
 1904 0609 07       		.byte	0x7
 1905 060a 7401     		.2byte	0x174
 1906 060c C6060000 		.4byte	0x6c6
 1907 0610 07       		.uleb128 0x7
 1908 0611 494D5200 		.ascii	"IMR\000"
 1909 0615 07       		.byte	0x7
 1910 0616 7601     		.2byte	0x176
 1911 0618 02060000 		.4byte	0x602
 1912 061c 00       		.byte	0
 1913 061d 07       		.uleb128 0x7
 1914 061e 454D5200 		.ascii	"EMR\000"
 1915 0622 07       		.byte	0x7
 1916 0623 7701     		.2byte	0x177
 1917 0625 02060000 		.4byte	0x602
 1918 0629 04       		.byte	0x4
 1919 062a 08       		.uleb128 0x8
 1920 062b E6050000 		.4byte	.LASF152
 1921 062f 07       		.byte	0x7
 1922 0630 7801     		.2byte	0x178
 1923 0632 02060000 		.4byte	0x602
 1924 0636 08       		.byte	0x8
 1925 0637 08       		.uleb128 0x8
 1926 0638 B4060000 		.4byte	.LASF153
 1927 063c 07       		.byte	0x7
 1928 063d 7901     		.2byte	0x179
 1929 063f 02060000 		.4byte	0x602
 1930 0643 0C       		.byte	0xc
 1931 0644 08       		.uleb128 0x8
 1932 0645 9A000000 		.4byte	.LASF154
 1933 0649 07       		.byte	0x7
 1934 064a 7A01     		.2byte	0x17a
 1935 064c 02060000 		.4byte	0x602
ARM GAS  /tmp/ccZqK06Y.s 			page 35


 1936 0650 10       		.byte	0x10
 1937 0651 07       		.uleb128 0x7
 1938 0652 505200   		.ascii	"PR\000"
 1939 0655 07       		.byte	0x7
 1940 0656 7B01     		.2byte	0x17b
 1941 0658 02060000 		.4byte	0x602
 1942 065c 14       		.byte	0x14
 1943 065d 08       		.uleb128 0x8
 1944 065e 2B060000 		.4byte	.LASF155
 1945 0662 07       		.byte	0x7
 1946 0663 7C01     		.2byte	0x17c
 1947 0665 AD000000 		.4byte	0xad
 1948 0669 18       		.byte	0x18
 1949 066a 08       		.uleb128 0x8
 1950 066b 35060000 		.4byte	.LASF156
 1951 066f 07       		.byte	0x7
 1952 0670 7D01     		.2byte	0x17d
 1953 0672 AD000000 		.4byte	0xad
 1954 0676 1C       		.byte	0x1c
 1955 0677 08       		.uleb128 0x8
 1956 0678 BE040000 		.4byte	.LASF157
 1957 067c 07       		.byte	0x7
 1958 067d 7E01     		.2byte	0x17e
 1959 067f 02060000 		.4byte	0x602
 1960 0683 20       		.byte	0x20
 1961 0684 08       		.uleb128 0x8
 1962 0685 020A0000 		.4byte	.LASF158
 1963 0689 07       		.byte	0x7
 1964 068a 7F01     		.2byte	0x17f
 1965 068c 02060000 		.4byte	0x602
 1966 0690 24       		.byte	0x24
 1967 0691 08       		.uleb128 0x8
 1968 0692 12040000 		.4byte	.LASF159
 1969 0696 07       		.byte	0x7
 1970 0697 8001     		.2byte	0x180
 1971 0699 02060000 		.4byte	0x602
 1972 069d 28       		.byte	0x28
 1973 069e 08       		.uleb128 0x8
 1974 069f 94000000 		.4byte	.LASF160
 1975 06a3 07       		.byte	0x7
 1976 06a4 8101     		.2byte	0x181
 1977 06a6 02060000 		.4byte	0x602
 1978 06aa 2C       		.byte	0x2c
 1979 06ab 08       		.uleb128 0x8
 1980 06ac 28010000 		.4byte	.LASF161
 1981 06b0 07       		.byte	0x7
 1982 06b1 8201     		.2byte	0x182
 1983 06b3 02060000 		.4byte	0x602
 1984 06b7 30       		.byte	0x30
 1985 06b8 07       		.uleb128 0x7
 1986 06b9 50523200 		.ascii	"PR2\000"
 1987 06bd 07       		.byte	0x7
 1988 06be 8301     		.2byte	0x183
 1989 06c0 02060000 		.4byte	0x602
 1990 06c4 34       		.byte	0x34
 1991 06c5 00       		.byte	0
 1992 06c6 13       		.uleb128 0x13
ARM GAS  /tmp/ccZqK06Y.s 			page 36


 1993 06c7 EE0A0000 		.4byte	.LASF162
 1994 06cb 07       		.byte	0x7
 1995 06cc 8401     		.2byte	0x184
 1996 06ce 07060000 		.4byte	0x607
 1997 06d2 04       		.uleb128 0x4
 1998 06d3 DD000000 		.4byte	.LASF163
 1999 06d7 08       		.byte	0x8
 2000 06d8 65       		.byte	0x65
 2001 06d9 F9020000 		.4byte	0x2f9
 2002 06dd 04       		.uleb128 0x4
 2003 06de 90040000 		.4byte	.LASF164
 2004 06e2 08       		.byte	0x8
 2005 06e3 6D       		.byte	0x6d
 2006 06e4 B8000000 		.4byte	0xb8
 2007 06e8 05       		.uleb128 0x5
 2008 06e9 77030000 		.4byte	.LASF165
 2009 06ed 04       		.byte	0x4
 2010 06ee 08       		.byte	0x8
 2011 06ef 89       		.byte	0x89
 2012 06f0 01070000 		.4byte	0x701
 2013 06f4 14       		.uleb128 0x14
 2014 06f5 72313300 		.ascii	"r13\000"
 2015 06f9 08       		.byte	0x8
 2016 06fa 8A       		.byte	0x8a
 2017 06fb 7C070000 		.4byte	0x77c
 2018 06ff 00       		.byte	0
 2019 0700 00       		.byte	0
 2020 0701 05       		.uleb128 0x5
 2021 0702 6E000000 		.4byte	.LASF166
 2022 0706 24       		.byte	0x24
 2023 0707 09       		.byte	0x9
 2024 0708 FD       		.byte	0xfd
 2025 0709 7C070000 		.4byte	0x77c
 2026 070d 07       		.uleb128 0x7
 2027 070e 723400   		.ascii	"r4\000"
 2028 0711 09       		.byte	0x9
 2029 0712 1001     		.2byte	0x110
 2030 0714 D2060000 		.4byte	0x6d2
 2031 0718 00       		.byte	0
 2032 0719 07       		.uleb128 0x7
 2033 071a 723500   		.ascii	"r5\000"
 2034 071d 09       		.byte	0x9
 2035 071e 1101     		.2byte	0x111
 2036 0720 D2060000 		.4byte	0x6d2
 2037 0724 04       		.byte	0x4
 2038 0725 07       		.uleb128 0x7
 2039 0726 723600   		.ascii	"r6\000"
 2040 0729 09       		.byte	0x9
 2041 072a 1201     		.2byte	0x112
 2042 072c D2060000 		.4byte	0x6d2
 2043 0730 08       		.byte	0x8
 2044 0731 07       		.uleb128 0x7
 2045 0732 723700   		.ascii	"r7\000"
 2046 0735 09       		.byte	0x9
 2047 0736 1301     		.2byte	0x113
 2048 0738 D2060000 		.4byte	0x6d2
 2049 073c 0C       		.byte	0xc
ARM GAS  /tmp/ccZqK06Y.s 			page 37


 2050 073d 07       		.uleb128 0x7
 2051 073e 723800   		.ascii	"r8\000"
 2052 0741 09       		.byte	0x9
 2053 0742 1401     		.2byte	0x114
 2054 0744 D2060000 		.4byte	0x6d2
 2055 0748 10       		.byte	0x10
 2056 0749 07       		.uleb128 0x7
 2057 074a 723900   		.ascii	"r9\000"
 2058 074d 09       		.byte	0x9
 2059 074e 1501     		.2byte	0x115
 2060 0750 D2060000 		.4byte	0x6d2
 2061 0754 14       		.byte	0x14
 2062 0755 07       		.uleb128 0x7
 2063 0756 72313000 		.ascii	"r10\000"
 2064 075a 09       		.byte	0x9
 2065 075b 1601     		.2byte	0x116
 2066 075d D2060000 		.4byte	0x6d2
 2067 0761 18       		.byte	0x18
 2068 0762 07       		.uleb128 0x7
 2069 0763 72313100 		.ascii	"r11\000"
 2070 0767 09       		.byte	0x9
 2071 0768 1701     		.2byte	0x117
 2072 076a D2060000 		.4byte	0x6d2
 2073 076e 1C       		.byte	0x1c
 2074 076f 07       		.uleb128 0x7
 2075 0770 6C7200   		.ascii	"lr\000"
 2076 0773 09       		.byte	0x9
 2077 0774 1801     		.2byte	0x118
 2078 0776 D2060000 		.4byte	0x6d2
 2079 077a 20       		.byte	0x20
 2080 077b 00       		.byte	0
 2081 077c 09       		.uleb128 0x9
 2082 077d 04       		.byte	0x4
 2083 077e 01070000 		.4byte	0x701
 2084 0782 15       		.uleb128 0x15
 2085 0783 04       		.byte	0x4
 2086 0784 0A       		.byte	0xa
 2087 0785 38       		.byte	0x38
 2088 0786 97070000 		.4byte	0x797
 2089 078a 06       		.uleb128 0x6
 2090 078b A3090000 		.4byte	.LASF167
 2091 078f 0A       		.byte	0xa
 2092 0790 3C       		.byte	0x3c
 2093 0791 C3000000 		.4byte	0xc3
 2094 0795 00       		.byte	0
 2095 0796 00       		.byte	0
 2096 0797 04       		.uleb128 0x4
 2097 0798 76050000 		.4byte	.LASF168
 2098 079c 0A       		.byte	0xa
 2099 079d 3D       		.byte	0x3d
 2100 079e 82070000 		.4byte	0x782
 2101 07a2 16       		.uleb128 0x16
 2102 07a3 04       		.byte	0x4
 2103 07a4 06       		.byte	0x6
 2104 07a5 FA       		.byte	0xfa
 2105 07a6 0B080000 		.4byte	0x80b
 2106 07aa 17       		.uleb128 0x17
ARM GAS  /tmp/ccZqK06Y.s 			page 38


 2107 07ab 2B000000 		.4byte	.LASF169
 2108 07af 06       		.byte	0x6
 2109 07b0 0101     		.2byte	0x101
 2110 07b2 FA000000 		.4byte	0xfa
 2111 07b6 17       		.uleb128 0x17
 2112 07b7 E6000000 		.4byte	.LASF170
 2113 07bb 06       		.byte	0x6
 2114 07bc 0801     		.2byte	0x108
 2115 07be FA000000 		.4byte	0xfa
 2116 07c2 17       		.uleb128 0x17
 2117 07c3 A30A0000 		.4byte	.LASF171
 2118 07c7 06       		.byte	0x6
 2119 07c8 0F01     		.2byte	0x10f
 2120 07ca F9020000 		.4byte	0x2f9
 2121 07ce 17       		.uleb128 0x17
 2122 07cf 25000000 		.4byte	.LASF172
 2123 07d3 06       		.byte	0x6
 2124 07d4 1601     		.2byte	0x116
 2125 07d6 0B080000 		.4byte	0x80b
 2126 07da 17       		.uleb128 0x17
 2127 07db 0F0B0000 		.4byte	.LASF173
 2128 07df 06       		.byte	0x6
 2129 07e0 1B01     		.2byte	0x11b
 2130 07e2 FA000000 		.4byte	0xfa
 2131 07e6 17       		.uleb128 0x17
 2132 07e7 04030000 		.4byte	.LASF174
 2133 07eb 06       		.byte	0x6
 2134 07ec 2401     		.2byte	0x124
 2135 07ee 36080000 		.4byte	0x836
 2136 07f2 17       		.uleb128 0x17
 2137 07f3 9B070000 		.4byte	.LASF175
 2138 07f7 06       		.byte	0x6
 2139 07f8 2D01     		.2byte	0x12d
 2140 07fa 6D080000 		.4byte	0x86d
 2141 07fe 17       		.uleb128 0x17
 2142 07ff 0D070000 		.4byte	.LASF176
 2143 0803 06       		.byte	0x6
 2144 0804 3501     		.2byte	0x135
 2145 0806 05010000 		.4byte	0x105
 2146 080a 00       		.byte	0
 2147 080b 09       		.uleb128 0x9
 2148 080c 04       		.byte	0x4
 2149 080d 11020000 		.4byte	0x211
 2150 0811 05       		.uleb128 0x5
 2151 0812 61070000 		.4byte	.LASF177
 2152 0816 0C       		.byte	0xc
 2153 0817 0B       		.byte	0xb
 2154 0818 34       		.byte	0x34
 2155 0819 36080000 		.4byte	0x836
 2156 081d 06       		.uleb128 0x6
 2157 081e 37020000 		.4byte	.LASF178
 2158 0822 0B       		.byte	0xb
 2159 0823 35       		.byte	0x35
 2160 0824 46020000 		.4byte	0x246
 2161 0828 00       		.byte	0
 2162 0829 06       		.uleb128 0x6
 2163 082a 71030000 		.4byte	.LASF179
ARM GAS  /tmp/ccZqK06Y.s 			page 39


 2164 082e 0B       		.byte	0xb
 2165 082f 37       		.byte	0x37
 2166 0830 10010000 		.4byte	0x110
 2167 0834 08       		.byte	0x8
 2168 0835 00       		.byte	0
 2169 0836 09       		.uleb128 0x9
 2170 0837 04       		.byte	0x4
 2171 0838 11080000 		.4byte	0x811
 2172 083c 05       		.uleb128 0x5
 2173 083d BD090000 		.4byte	.LASF180
 2174 0841 10       		.byte	0x10
 2175 0842 0C       		.byte	0xc
 2176 0843 39       		.byte	0x39
 2177 0844 6D080000 		.4byte	0x86d
 2178 0848 06       		.uleb128 0x6
 2179 0849 90010000 		.4byte	.LASF181
 2180 084d 0C       		.byte	0xc
 2181 084e 3A       		.byte	0x3a
 2182 084f 46020000 		.4byte	0x246
 2183 0853 00       		.byte	0
 2184 0854 06       		.uleb128 0x6
 2185 0855 1D0B0000 		.4byte	.LASF182
 2186 0859 0C       		.byte	0xc
 2187 085a 3C       		.byte	0x3c
 2188 085b 1C020000 		.4byte	0x21c
 2189 085f 08       		.byte	0x8
 2190 0860 06       		.uleb128 0x6
 2191 0861 43090000 		.4byte	.LASF183
 2192 0865 0C       		.byte	0xc
 2193 0866 3E       		.byte	0x3e
 2194 0867 AB080000 		.4byte	0x8ab
 2195 086b 0C       		.byte	0xc
 2196 086c 00       		.byte	0
 2197 086d 09       		.uleb128 0x9
 2198 086e 04       		.byte	0x4
 2199 086f 3C080000 		.4byte	0x83c
 2200 0873 09       		.uleb128 0x9
 2201 0874 04       		.byte	0x4
 2202 0875 79080000 		.4byte	0x879
 2203 0879 18       		.uleb128 0x18
 2204 087a 7E080000 		.4byte	0x87e
 2205 087e 03       		.uleb128 0x3
 2206 087f 01       		.byte	0x1
 2207 0880 08       		.byte	0x8
 2208 0881 FC070000 		.4byte	.LASF184
 2209 0885 09       		.uleb128 0x9
 2210 0886 04       		.byte	0x4
 2211 0887 FB020000 		.4byte	0x2fb
 2212 088b 11       		.uleb128 0x11
 2213 088c 73080000 		.4byte	0x873
 2214 0890 19       		.uleb128 0x19
 2215 0891 DD060000 		.4byte	0x6dd
 2216 0895 A0080000 		.4byte	0x8a0
 2217 0899 1A       		.uleb128 0x1a
 2218 089a FB050000 		.4byte	0x5fb
 2219 089e 1A       		.byte	0x1a
 2220 089f 00       		.byte	0
ARM GAS  /tmp/ccZqK06Y.s 			page 40


 2221 08a0 04       		.uleb128 0x4
 2222 08a1 A3020000 		.4byte	.LASF185
 2223 08a5 0C       		.byte	0xc
 2224 08a6 34       		.byte	0x34
 2225 08a7 3C080000 		.4byte	0x83c
 2226 08ab 09       		.uleb128 0x9
 2227 08ac 04       		.byte	0x4
 2228 08ad A0080000 		.4byte	0x8a0
 2229 08b1 03       		.uleb128 0x3
 2230 08b2 01       		.byte	0x1
 2231 08b3 02       		.byte	0x2
 2232 08b4 6E060000 		.4byte	.LASF186
 2233 08b8 0F       		.uleb128 0xf
 2234 08b9 01       		.byte	0x1
 2235 08ba 0D       		.byte	0xd
 2236 08bb 3F       		.byte	0x3f
 2237 08bc D3080000 		.4byte	0x8d3
 2238 08c0 10       		.uleb128 0x10
 2239 08c1 8A060000 		.4byte	.LASF187
 2240 08c5 00       		.sleb128 0
 2241 08c6 10       		.uleb128 0x10
 2242 08c7 F3070000 		.4byte	.LASF188
 2243 08cb 01       		.sleb128 1
 2244 08cc 10       		.uleb128 0x10
 2245 08cd AA040000 		.4byte	.LASF189
 2246 08d1 02       		.sleb128 2
 2247 08d2 00       		.byte	0
 2248 08d3 04       		.uleb128 0x4
 2249 08d4 00050000 		.4byte	.LASF190
 2250 08d8 0D       		.byte	0xd
 2251 08d9 43       		.byte	0x43
 2252 08da B8080000 		.4byte	0x8b8
 2253 08de 04       		.uleb128 0x4
 2254 08df 1A0A0000 		.4byte	.LASF191
 2255 08e3 0D       		.byte	0xd
 2256 08e4 48       		.byte	0x48
 2257 08e5 E9080000 		.4byte	0x8e9
 2258 08e9 05       		.uleb128 0x5
 2259 08ea 1A0A0000 		.4byte	.LASF191
 2260 08ee 08       		.byte	0x8
 2261 08ef 0E       		.byte	0xe
 2262 08f0 73       		.byte	0x73
 2263 08f1 0E090000 		.4byte	0x90e
 2264 08f5 06       		.uleb128 0x6
 2265 08f6 B2010000 		.4byte	.LASF192
 2266 08fa 0E       		.byte	0xe
 2267 08fb 77       		.byte	0x77
 2268 08fc D3080000 		.4byte	0x8d3
 2269 0900 00       		.byte	0
 2270 0901 06       		.uleb128 0x6
 2271 0902 19080000 		.4byte	.LASF193
 2272 0906 0E       		.byte	0xe
 2273 0907 7B       		.byte	0x7b
 2274 0908 9C090000 		.4byte	0x99c
 2275 090c 04       		.byte	0x4
 2276 090d 00       		.byte	0
 2277 090e 04       		.uleb128 0x4
ARM GAS  /tmp/ccZqK06Y.s 			page 41


 2278 090f 52000000 		.4byte	.LASF194
 2279 0913 0E       		.byte	0xe
 2280 0914 49       		.byte	0x49
 2281 0915 AD000000 		.4byte	0xad
 2282 0919 04       		.uleb128 0x4
 2283 091a 79070000 		.4byte	.LASF195
 2284 091e 0E       		.byte	0xe
 2285 091f 51       		.byte	0x51
 2286 0920 24090000 		.4byte	0x924
 2287 0924 09       		.uleb128 0x9
 2288 0925 04       		.byte	0x4
 2289 0926 2A090000 		.4byte	0x92a
 2290 092a 0B       		.uleb128 0xb
 2291 092b 3A090000 		.4byte	0x93a
 2292 092f 0C       		.uleb128 0xc
 2293 0930 3A090000 		.4byte	0x93a
 2294 0934 0C       		.uleb128 0xc
 2295 0935 0E090000 		.4byte	0x90e
 2296 0939 00       		.byte	0
 2297 093a 09       		.uleb128 0x9
 2298 093b 04       		.byte	0x4
 2299 093c DE080000 		.4byte	0x8de
 2300 0940 15       		.uleb128 0x15
 2301 0941 08       		.byte	0x8
 2302 0942 0E       		.byte	0xe
 2303 0943 56       		.byte	0x56
 2304 0944 60090000 		.4byte	0x960
 2305 0948 06       		.uleb128 0x6
 2306 0949 14080000 		.4byte	.LASF196
 2307 094d 0E       		.byte	0xe
 2308 094e 5A       		.byte	0x5a
 2309 094f AD000000 		.4byte	0xad
 2310 0953 00       		.byte	0
 2311 0954 14       		.uleb128 0x14
 2312 0955 636200   		.ascii	"cb\000"
 2313 0958 0E       		.byte	0xe
 2314 0959 61       		.byte	0x61
 2315 095a 19090000 		.4byte	0x919
 2316 095e 04       		.byte	0x4
 2317 095f 00       		.byte	0
 2318 0960 04       		.uleb128 0x4
 2319 0961 4A020000 		.4byte	.LASF197
 2320 0965 0E       		.byte	0xe
 2321 0966 62       		.byte	0x62
 2322 0967 40090000 		.4byte	0x940
 2323 096b 1B       		.uleb128 0x1b
 2324 096c 1001     		.2byte	0x110
 2325 096e 0E       		.byte	0xe
 2326 096f 68       		.byte	0x68
 2327 0970 81090000 		.4byte	0x981
 2328 0974 06       		.uleb128 0x6
 2329 0975 B8010000 		.4byte	.LASF198
 2330 0979 0E       		.byte	0xe
 2331 097a 6C       		.byte	0x6c
 2332 097b 81090000 		.4byte	0x981
 2333 097f 00       		.byte	0
 2334 0980 00       		.byte	0
ARM GAS  /tmp/ccZqK06Y.s 			page 42


 2335 0981 19       		.uleb128 0x19
 2336 0982 60090000 		.4byte	0x960
 2337 0986 91090000 		.4byte	0x991
 2338 098a 1A       		.uleb128 0x1a
 2339 098b FB050000 		.4byte	0x5fb
 2340 098f 21       		.byte	0x21
 2341 0990 00       		.byte	0
 2342 0991 04       		.uleb128 0x4
 2343 0992 C7030000 		.4byte	.LASF199
 2344 0996 0E       		.byte	0xe
 2345 0997 6E       		.byte	0x6e
 2346 0998 6B090000 		.4byte	0x96b
 2347 099c 09       		.uleb128 0x9
 2348 099d 04       		.byte	0x4
 2349 099e A2090000 		.4byte	0x9a2
 2350 09a2 18       		.uleb128 0x18
 2351 09a3 91090000 		.4byte	0x991
 2352 09a7 1C       		.uleb128 0x1c
 2353 09a8 B5040000 		.4byte	.LASF200
 2354 09ac 01       		.byte	0x1
 2355 09ad 39       		.byte	0x39
 2356 09ae 00000000 		.4byte	.LFB272
 2357 09b2 2C000000 		.4byte	.LFE272-.LFB272
 2358 09b6 01       		.uleb128 0x1
 2359 09b7 9C       		.byte	0x9c
 2360 09b8 E3090000 		.4byte	0x9e3
 2361 09bc 1D       		.uleb128 0x1d
 2362 09bd 707200   		.ascii	"pr\000"
 2363 09c0 01       		.byte	0x1
 2364 09c1 3A       		.byte	0x3a
 2365 09c2 AD000000 		.4byte	0xad
 2366 09c6 00000000 		.4byte	.LLST0
 2367 09ca 1E       		.uleb128 0x1e
 2368 09cb 1C000000 		.4byte	.LVL1
 2369 09cf D9090000 		.4byte	0x9d9
 2370 09d3 1F       		.uleb128 0x1f
 2371 09d4 01       		.uleb128 0x1
 2372 09d5 51       		.byte	0x51
 2373 09d6 01       		.uleb128 0x1
 2374 09d7 30       		.byte	0x30
 2375 09d8 00       		.byte	0
 2376 09d9 20       		.uleb128 0x20
 2377 09da 24000000 		.4byte	.LVL2
 2378 09de CB100000 		.4byte	0x10cb
 2379 09e2 00       		.byte	0
 2380 09e3 1C       		.uleb128 0x1c
 2381 09e4 DB040000 		.4byte	.LASF201
 2382 09e8 01       		.byte	0x1
 2383 09e9 4D       		.byte	0x4d
 2384 09ea 00000000 		.4byte	.LFB273
 2385 09ee 2C000000 		.4byte	.LFE273-.LFB273
 2386 09f2 01       		.uleb128 0x1
 2387 09f3 9C       		.byte	0x9c
 2388 09f4 1F0A0000 		.4byte	0xa1f
 2389 09f8 1D       		.uleb128 0x1d
 2390 09f9 707200   		.ascii	"pr\000"
 2391 09fc 01       		.byte	0x1
ARM GAS  /tmp/ccZqK06Y.s 			page 43


 2392 09fd 4E       		.byte	0x4e
 2393 09fe AD000000 		.4byte	0xad
 2394 0a02 13000000 		.4byte	.LLST1
 2395 0a06 1E       		.uleb128 0x1e
 2396 0a07 1C000000 		.4byte	.LVL4
 2397 0a0b 150A0000 		.4byte	0xa15
 2398 0a0f 1F       		.uleb128 0x1f
 2399 0a10 01       		.uleb128 0x1
 2400 0a11 51       		.byte	0x51
 2401 0a12 01       		.uleb128 0x1
 2402 0a13 31       		.byte	0x31
 2403 0a14 00       		.byte	0
 2404 0a15 20       		.uleb128 0x20
 2405 0a16 24000000 		.4byte	.LVL5
 2406 0a1a CB100000 		.4byte	0x10cb
 2407 0a1e 00       		.byte	0
 2408 0a1f 1C       		.uleb128 0x1c
 2409 0a20 EB050000 		.4byte	.LASF202
 2410 0a24 01       		.byte	0x1
 2411 0a25 61       		.byte	0x61
 2412 0a26 00000000 		.4byte	.LFB274
 2413 0a2a 2C000000 		.4byte	.LFE274-.LFB274
 2414 0a2e 01       		.uleb128 0x1
 2415 0a2f 9C       		.byte	0x9c
 2416 0a30 5B0A0000 		.4byte	0xa5b
 2417 0a34 1D       		.uleb128 0x1d
 2418 0a35 707200   		.ascii	"pr\000"
 2419 0a38 01       		.byte	0x1
 2420 0a39 62       		.byte	0x62
 2421 0a3a AD000000 		.4byte	0xad
 2422 0a3e 26000000 		.4byte	.LLST2
 2423 0a42 1E       		.uleb128 0x1e
 2424 0a43 1C000000 		.4byte	.LVL7
 2425 0a47 510A0000 		.4byte	0xa51
 2426 0a4b 1F       		.uleb128 0x1f
 2427 0a4c 01       		.uleb128 0x1
 2428 0a4d 51       		.byte	0x51
 2429 0a4e 01       		.uleb128 0x1
 2430 0a4f 32       		.byte	0x32
 2431 0a50 00       		.byte	0
 2432 0a51 20       		.uleb128 0x20
 2433 0a52 24000000 		.4byte	.LVL8
 2434 0a56 CB100000 		.4byte	0x10cb
 2435 0a5a 00       		.byte	0
 2436 0a5b 1C       		.uleb128 0x1c
 2437 0a5c 07060000 		.4byte	.LASF203
 2438 0a60 01       		.byte	0x1
 2439 0a61 75       		.byte	0x75
 2440 0a62 00000000 		.4byte	.LFB275
 2441 0a66 2C000000 		.4byte	.LFE275-.LFB275
 2442 0a6a 01       		.uleb128 0x1
 2443 0a6b 9C       		.byte	0x9c
 2444 0a6c 970A0000 		.4byte	0xa97
 2445 0a70 1D       		.uleb128 0x1d
 2446 0a71 707200   		.ascii	"pr\000"
 2447 0a74 01       		.byte	0x1
 2448 0a75 76       		.byte	0x76
ARM GAS  /tmp/ccZqK06Y.s 			page 44


 2449 0a76 AD000000 		.4byte	0xad
 2450 0a7a 39000000 		.4byte	.LLST3
 2451 0a7e 1E       		.uleb128 0x1e
 2452 0a7f 1C000000 		.4byte	.LVL10
 2453 0a83 8D0A0000 		.4byte	0xa8d
 2454 0a87 1F       		.uleb128 0x1f
 2455 0a88 01       		.uleb128 0x1
 2456 0a89 51       		.byte	0x51
 2457 0a8a 01       		.uleb128 0x1
 2458 0a8b 33       		.byte	0x33
 2459 0a8c 00       		.byte	0
 2460 0a8d 20       		.uleb128 0x20
 2461 0a8e 24000000 		.4byte	.LVL11
 2462 0a92 CB100000 		.4byte	0x10cb
 2463 0a96 00       		.byte	0
 2464 0a97 1C       		.uleb128 0x1c
 2465 0a98 07010000 		.4byte	.LASF204
 2466 0a9c 01       		.byte	0x1
 2467 0a9d 89       		.byte	0x89
 2468 0a9e 00000000 		.4byte	.LFB276
 2469 0aa2 2C000000 		.4byte	.LFE276-.LFB276
 2470 0aa6 01       		.uleb128 0x1
 2471 0aa7 9C       		.byte	0x9c
 2472 0aa8 D30A0000 		.4byte	0xad3
 2473 0aac 1D       		.uleb128 0x1d
 2474 0aad 707200   		.ascii	"pr\000"
 2475 0ab0 01       		.byte	0x1
 2476 0ab1 8A       		.byte	0x8a
 2477 0ab2 AD000000 		.4byte	0xad
 2478 0ab6 4C000000 		.4byte	.LLST4
 2479 0aba 1E       		.uleb128 0x1e
 2480 0abb 1C000000 		.4byte	.LVL13
 2481 0abf C90A0000 		.4byte	0xac9
 2482 0ac3 1F       		.uleb128 0x1f
 2483 0ac4 01       		.uleb128 0x1
 2484 0ac5 51       		.byte	0x51
 2485 0ac6 01       		.uleb128 0x1
 2486 0ac7 34       		.byte	0x34
 2487 0ac8 00       		.byte	0
 2488 0ac9 20       		.uleb128 0x20
 2489 0aca 24000000 		.4byte	.LVL14
 2490 0ace CB100000 		.4byte	0x10cb
 2491 0ad2 00       		.byte	0
 2492 0ad3 1C       		.uleb128 0x1c
 2493 0ad4 1C000000 		.4byte	.LASF205
 2494 0ad8 01       		.byte	0x1
 2495 0ad9 9D       		.byte	0x9d
 2496 0ada 00000000 		.4byte	.LFB277
 2497 0ade 70000000 		.4byte	.LFE277-.LFB277
 2498 0ae2 01       		.uleb128 0x1
 2499 0ae3 9C       		.byte	0x9c
 2500 0ae4 470B0000 		.4byte	0xb47
 2501 0ae8 1D       		.uleb128 0x1d
 2502 0ae9 707200   		.ascii	"pr\000"
 2503 0aec 01       		.byte	0x1
 2504 0aed 9E       		.byte	0x9e
 2505 0aee AD000000 		.4byte	0xad
ARM GAS  /tmp/ccZqK06Y.s 			page 45


 2506 0af2 5F000000 		.4byte	.LLST5
 2507 0af6 1E       		.uleb128 0x1e
 2508 0af7 2E000000 		.4byte	.LVL17
 2509 0afb 050B0000 		.4byte	0xb05
 2510 0aff 1F       		.uleb128 0x1f
 2511 0b00 01       		.uleb128 0x1
 2512 0b01 51       		.byte	0x51
 2513 0b02 01       		.uleb128 0x1
 2514 0b03 39       		.byte	0x39
 2515 0b04 00       		.byte	0
 2516 0b05 20       		.uleb128 0x20
 2517 0b06 36000000 		.4byte	.LVL19
 2518 0b0a CB100000 		.4byte	0x10cb
 2519 0b0e 1E       		.uleb128 0x1e
 2520 0b0f 40000000 		.4byte	.LVL20
 2521 0b13 1D0B0000 		.4byte	0xb1d
 2522 0b17 1F       		.uleb128 0x1f
 2523 0b18 01       		.uleb128 0x1
 2524 0b19 51       		.byte	0x51
 2525 0b1a 01       		.uleb128 0x1
 2526 0b1b 38       		.byte	0x38
 2527 0b1c 00       		.byte	0
 2528 0b1d 1E       		.uleb128 0x1e
 2529 0b1e 4C000000 		.4byte	.LVL21
 2530 0b22 2C0B0000 		.4byte	0xb2c
 2531 0b26 1F       		.uleb128 0x1f
 2532 0b27 01       		.uleb128 0x1
 2533 0b28 51       		.byte	0x51
 2534 0b29 01       		.uleb128 0x1
 2535 0b2a 37       		.byte	0x37
 2536 0b2b 00       		.byte	0
 2537 0b2c 1E       		.uleb128 0x1e
 2538 0b2d 58000000 		.4byte	.LVL22
 2539 0b31 3B0B0000 		.4byte	0xb3b
 2540 0b35 1F       		.uleb128 0x1f
 2541 0b36 01       		.uleb128 0x1
 2542 0b37 51       		.byte	0x51
 2543 0b38 01       		.uleb128 0x1
 2544 0b39 36       		.byte	0x36
 2545 0b3a 00       		.byte	0
 2546 0b3b 21       		.uleb128 0x21
 2547 0b3c 64000000 		.4byte	.LVL24
 2548 0b40 1F       		.uleb128 0x1f
 2549 0b41 01       		.uleb128 0x1
 2550 0b42 51       		.byte	0x51
 2551 0b43 01       		.uleb128 0x1
 2552 0b44 35       		.byte	0x35
 2553 0b45 00       		.byte	0
 2554 0b46 00       		.byte	0
 2555 0b47 1C       		.uleb128 0x1c
 2556 0b48 750A0000 		.4byte	.LASF206
 2557 0b4c 01       		.byte	0x1
 2558 0b4d BA       		.byte	0xba
 2559 0b4e 00000000 		.4byte	.LFB278
 2560 0b52 80000000 		.4byte	.LFE278-.LFB278
 2561 0b56 01       		.uleb128 0x1
 2562 0b57 9C       		.byte	0x9c
ARM GAS  /tmp/ccZqK06Y.s 			page 46


 2563 0b58 CA0B0000 		.4byte	0xbca
 2564 0b5c 1D       		.uleb128 0x1d
 2565 0b5d 707200   		.ascii	"pr\000"
 2566 0b60 01       		.byte	0x1
 2567 0b61 BB       		.byte	0xbb
 2568 0b62 AD000000 		.4byte	0xad
 2569 0b66 B0000000 		.4byte	.LLST6
 2570 0b6a 1E       		.uleb128 0x1e
 2571 0b6b 32000000 		.4byte	.LVL28
 2572 0b6f 790B0000 		.4byte	0xb79
 2573 0b73 1F       		.uleb128 0x1f
 2574 0b74 01       		.uleb128 0x1
 2575 0b75 51       		.byte	0x51
 2576 0b76 01       		.uleb128 0x1
 2577 0b77 3F       		.byte	0x3f
 2578 0b78 00       		.byte	0
 2579 0b79 20       		.uleb128 0x20
 2580 0b7a 3A000000 		.4byte	.LVL30
 2581 0b7e CB100000 		.4byte	0x10cb
 2582 0b82 1E       		.uleb128 0x1e
 2583 0b83 44000000 		.4byte	.LVL31
 2584 0b87 910B0000 		.4byte	0xb91
 2585 0b8b 1F       		.uleb128 0x1f
 2586 0b8c 01       		.uleb128 0x1
 2587 0b8d 51       		.byte	0x51
 2588 0b8e 01       		.uleb128 0x1
 2589 0b8f 3E       		.byte	0x3e
 2590 0b90 00       		.byte	0
 2591 0b91 1E       		.uleb128 0x1e
 2592 0b92 50000000 		.4byte	.LVL32
 2593 0b96 A00B0000 		.4byte	0xba0
 2594 0b9a 1F       		.uleb128 0x1f
 2595 0b9b 01       		.uleb128 0x1
 2596 0b9c 51       		.byte	0x51
 2597 0b9d 01       		.uleb128 0x1
 2598 0b9e 3D       		.byte	0x3d
 2599 0b9f 00       		.byte	0
 2600 0ba0 1E       		.uleb128 0x1e
 2601 0ba1 5C000000 		.4byte	.LVL33
 2602 0ba5 AF0B0000 		.4byte	0xbaf
 2603 0ba9 1F       		.uleb128 0x1f
 2604 0baa 01       		.uleb128 0x1
 2605 0bab 51       		.byte	0x51
 2606 0bac 01       		.uleb128 0x1
 2607 0bad 3C       		.byte	0x3c
 2608 0bae 00       		.byte	0
 2609 0baf 1E       		.uleb128 0x1e
 2610 0bb0 68000000 		.4byte	.LVL34
 2611 0bb4 BE0B0000 		.4byte	0xbbe
 2612 0bb8 1F       		.uleb128 0x1f
 2613 0bb9 01       		.uleb128 0x1
 2614 0bba 51       		.byte	0x51
 2615 0bbb 01       		.uleb128 0x1
 2616 0bbc 3B       		.byte	0x3b
 2617 0bbd 00       		.byte	0
 2618 0bbe 21       		.uleb128 0x21
 2619 0bbf 74000000 		.4byte	.LVL37
ARM GAS  /tmp/ccZqK06Y.s 			page 47


 2620 0bc3 1F       		.uleb128 0x1f
 2621 0bc4 01       		.uleb128 0x1
 2622 0bc5 51       		.byte	0x51
 2623 0bc6 01       		.uleb128 0x1
 2624 0bc7 3A       		.byte	0x3a
 2625 0bc8 00       		.byte	0
 2626 0bc9 00       		.byte	0
 2627 0bca 1C       		.uleb128 0x1c
 2628 0bcb 9A050000 		.4byte	.LASF207
 2629 0bcf 01       		.byte	0x1
 2630 0bd0 D9       		.byte	0xd9
 2631 0bd1 00000000 		.4byte	.LFB279
 2632 0bd5 30000000 		.4byte	.LFE279-.LFB279
 2633 0bd9 01       		.uleb128 0x1
 2634 0bda 9C       		.byte	0x9c
 2635 0bdb 060C0000 		.4byte	0xc06
 2636 0bdf 1D       		.uleb128 0x1d
 2637 0be0 707200   		.ascii	"pr\000"
 2638 0be3 01       		.byte	0x1
 2639 0be4 DA       		.byte	0xda
 2640 0be5 AD000000 		.4byte	0xad
 2641 0be9 1D010000 		.4byte	.LLST7
 2642 0bed 1E       		.uleb128 0x1e
 2643 0bee 1E000000 		.4byte	.LVL39
 2644 0bf2 FC0B0000 		.4byte	0xbfc
 2645 0bf6 1F       		.uleb128 0x1f
 2646 0bf7 01       		.uleb128 0x1
 2647 0bf8 51       		.byte	0x51
 2648 0bf9 01       		.uleb128 0x1
 2649 0bfa 40       		.byte	0x40
 2650 0bfb 00       		.byte	0
 2651 0bfc 20       		.uleb128 0x20
 2652 0bfd 26000000 		.4byte	.LVL40
 2653 0c01 CB100000 		.4byte	0x10cb
 2654 0c05 00       		.byte	0
 2655 0c06 1C       		.uleb128 0x1c
 2656 0c07 3E0B0000 		.4byte	.LASF208
 2657 0c0b 01       		.byte	0x1
 2658 0c0c ED       		.byte	0xed
 2659 0c0d 00000000 		.4byte	.LFB280
 2660 0c11 30000000 		.4byte	.LFE280-.LFB280
 2661 0c15 01       		.uleb128 0x1
 2662 0c16 9C       		.byte	0x9c
 2663 0c17 420C0000 		.4byte	0xc42
 2664 0c1b 1D       		.uleb128 0x1d
 2665 0c1c 707200   		.ascii	"pr\000"
 2666 0c1f 01       		.byte	0x1
 2667 0c20 EE       		.byte	0xee
 2668 0c21 AD000000 		.4byte	0xad
 2669 0c25 30010000 		.4byte	.LLST8
 2670 0c29 1E       		.uleb128 0x1e
 2671 0c2a 1E000000 		.4byte	.LVL42
 2672 0c2e 380C0000 		.4byte	0xc38
 2673 0c32 1F       		.uleb128 0x1f
 2674 0c33 01       		.uleb128 0x1
 2675 0c34 51       		.byte	0x51
 2676 0c35 01       		.uleb128 0x1
ARM GAS  /tmp/ccZqK06Y.s 			page 48


 2677 0c36 41       		.byte	0x41
 2678 0c37 00       		.byte	0
 2679 0c38 20       		.uleb128 0x20
 2680 0c39 26000000 		.4byte	.LVL43
 2681 0c3d CB100000 		.4byte	0x10cb
 2682 0c41 00       		.byte	0
 2683 0c42 22       		.uleb128 0x22
 2684 0c43 D2050000 		.4byte	.LASF209
 2685 0c47 01       		.byte	0x1
 2686 0c48 0101     		.2byte	0x101
 2687 0c4a 00000000 		.4byte	.LFB281
 2688 0c4e 30000000 		.4byte	.LFE281-.LFB281
 2689 0c52 01       		.uleb128 0x1
 2690 0c53 9C       		.byte	0x9c
 2691 0c54 800C0000 		.4byte	0xc80
 2692 0c58 23       		.uleb128 0x23
 2693 0c59 707200   		.ascii	"pr\000"
 2694 0c5c 01       		.byte	0x1
 2695 0c5d 0201     		.2byte	0x102
 2696 0c5f AD000000 		.4byte	0xad
 2697 0c63 43010000 		.4byte	.LLST9
 2698 0c67 1E       		.uleb128 0x1e
 2699 0c68 1E000000 		.4byte	.LVL45
 2700 0c6c 760C0000 		.4byte	0xc76
 2701 0c70 1F       		.uleb128 0x1f
 2702 0c71 01       		.uleb128 0x1
 2703 0c72 51       		.byte	0x51
 2704 0c73 01       		.uleb128 0x1
 2705 0c74 42       		.byte	0x42
 2706 0c75 00       		.byte	0
 2707 0c76 20       		.uleb128 0x20
 2708 0c77 26000000 		.4byte	.LVL46
 2709 0c7b CB100000 		.4byte	0x10cb
 2710 0c7f 00       		.byte	0
 2711 0c80 22       		.uleb128 0x22
 2712 0c81 2A030000 		.4byte	.LASF210
 2713 0c85 01       		.byte	0x1
 2714 0c86 1501     		.2byte	0x115
 2715 0c88 00000000 		.4byte	.LFB282
 2716 0c8c 30000000 		.4byte	.LFE282-.LFB282
 2717 0c90 01       		.uleb128 0x1
 2718 0c91 9C       		.byte	0x9c
 2719 0c92 BE0C0000 		.4byte	0xcbe
 2720 0c96 23       		.uleb128 0x23
 2721 0c97 707200   		.ascii	"pr\000"
 2722 0c9a 01       		.byte	0x1
 2723 0c9b 1601     		.2byte	0x116
 2724 0c9d AD000000 		.4byte	0xad
 2725 0ca1 56010000 		.4byte	.LLST10
 2726 0ca5 1E       		.uleb128 0x1e
 2727 0ca6 1E000000 		.4byte	.LVL48
 2728 0caa B40C0000 		.4byte	0xcb4
 2729 0cae 1F       		.uleb128 0x1f
 2730 0caf 01       		.uleb128 0x1
 2731 0cb0 51       		.byte	0x51
 2732 0cb1 01       		.uleb128 0x1
 2733 0cb2 43       		.byte	0x43
ARM GAS  /tmp/ccZqK06Y.s 			page 49


 2734 0cb3 00       		.byte	0
 2735 0cb4 20       		.uleb128 0x20
 2736 0cb5 26000000 		.4byte	.LVL49
 2737 0cb9 CB100000 		.4byte	0x10cb
 2738 0cbd 00       		.byte	0
 2739 0cbe 22       		.uleb128 0x22
 2740 0cbf 68030000 		.4byte	.LASF211
 2741 0cc3 01       		.byte	0x1
 2742 0cc4 2901     		.2byte	0x129
 2743 0cc6 00000000 		.4byte	.LFB283
 2744 0cca 30000000 		.4byte	.LFE283-.LFB283
 2745 0cce 01       		.uleb128 0x1
 2746 0ccf 9C       		.byte	0x9c
 2747 0cd0 FC0C0000 		.4byte	0xcfc
 2748 0cd4 23       		.uleb128 0x23
 2749 0cd5 707200   		.ascii	"pr\000"
 2750 0cd8 01       		.byte	0x1
 2751 0cd9 2A01     		.2byte	0x12a
 2752 0cdb AD000000 		.4byte	0xad
 2753 0cdf 69010000 		.4byte	.LLST11
 2754 0ce3 1E       		.uleb128 0x1e
 2755 0ce4 1E000000 		.4byte	.LVL51
 2756 0ce8 F20C0000 		.4byte	0xcf2
 2757 0cec 1F       		.uleb128 0x1f
 2758 0ced 01       		.uleb128 0x1
 2759 0cee 51       		.byte	0x51
 2760 0cef 01       		.uleb128 0x1
 2761 0cf0 44       		.byte	0x44
 2762 0cf1 00       		.byte	0
 2763 0cf2 20       		.uleb128 0x20
 2764 0cf3 26000000 		.4byte	.LVL52
 2765 0cf7 CB100000 		.4byte	0x10cb
 2766 0cfb 00       		.byte	0
 2767 0cfc 22       		.uleb128 0x22
 2768 0cfd CA010000 		.4byte	.LASF212
 2769 0d01 01       		.byte	0x1
 2770 0d02 3D01     		.2byte	0x13d
 2771 0d04 00000000 		.4byte	.LFB284
 2772 0d08 58000000 		.4byte	.LFE284-.LFB284
 2773 0d0c 01       		.uleb128 0x1
 2774 0d0d 9C       		.byte	0x9c
 2775 0d0e 540D0000 		.4byte	0xd54
 2776 0d12 23       		.uleb128 0x23
 2777 0d13 707200   		.ascii	"pr\000"
 2778 0d16 01       		.byte	0x1
 2779 0d17 3E01     		.2byte	0x13e
 2780 0d19 AD000000 		.4byte	0xad
 2781 0d1d 7C010000 		.4byte	.LLST12
 2782 0d21 1E       		.uleb128 0x1e
 2783 0d22 28000000 		.4byte	.LVL55
 2784 0d26 300D0000 		.4byte	0xd30
 2785 0d2a 1F       		.uleb128 0x1f
 2786 0d2b 01       		.uleb128 0x1
 2787 0d2c 51       		.byte	0x51
 2788 0d2d 01       		.uleb128 0x1
 2789 0d2e 4D       		.byte	0x4d
 2790 0d2f 00       		.byte	0
ARM GAS  /tmp/ccZqK06Y.s 			page 50


 2791 0d30 20       		.uleb128 0x20
 2792 0d31 30000000 		.4byte	.LVL57
 2793 0d35 CB100000 		.4byte	0x10cb
 2794 0d39 1E       		.uleb128 0x1e
 2795 0d3a 3C000000 		.4byte	.LVL58
 2796 0d3e 480D0000 		.4byte	0xd48
 2797 0d42 1F       		.uleb128 0x1f
 2798 0d43 01       		.uleb128 0x1
 2799 0d44 51       		.byte	0x51
 2800 0d45 01       		.uleb128 0x1
 2801 0d46 46       		.byte	0x46
 2802 0d47 00       		.byte	0
 2803 0d48 21       		.uleb128 0x21
 2804 0d49 4A000000 		.4byte	.LVL60
 2805 0d4d 1F       		.uleb128 0x1f
 2806 0d4e 01       		.uleb128 0x1
 2807 0d4f 51       		.byte	0x51
 2808 0d50 01       		.uleb128 0x1
 2809 0d51 45       		.byte	0x45
 2810 0d52 00       		.byte	0
 2811 0d53 00       		.byte	0
 2812 0d54 22       		.uleb128 0x22
 2813 0d55 E1010000 		.4byte	.LASF213
 2814 0d59 01       		.byte	0x1
 2815 0d5a 5501     		.2byte	0x155
 2816 0d5c 00000000 		.4byte	.LFB285
 2817 0d60 64000000 		.4byte	.LFE285-.LFB285
 2818 0d64 01       		.uleb128 0x1
 2819 0d65 9C       		.byte	0x9c
 2820 0d66 AD0D0000 		.4byte	0xdad
 2821 0d6a 23       		.uleb128 0x23
 2822 0d6b 707200   		.ascii	"pr\000"
 2823 0d6e 01       		.byte	0x1
 2824 0d6f 5601     		.2byte	0x156
 2825 0d71 AD000000 		.4byte	0xad
 2826 0d75 D3010000 		.4byte	.LLST13
 2827 0d79 1E       		.uleb128 0x1e
 2828 0d7a 34000000 		.4byte	.LVL63
 2829 0d7e 890D0000 		.4byte	0xd89
 2830 0d82 1F       		.uleb128 0x1f
 2831 0d83 01       		.uleb128 0x1
 2832 0d84 51       		.byte	0x51
 2833 0d85 02       		.uleb128 0x2
 2834 0d86 08       		.byte	0x8
 2835 0d87 20       		.byte	0x20
 2836 0d88 00       		.byte	0
 2837 0d89 20       		.uleb128 0x20
 2838 0d8a 3C000000 		.4byte	.LVL64
 2839 0d8e CB100000 		.4byte	0x10cb
 2840 0d92 1E       		.uleb128 0x1e
 2841 0d93 48000000 		.4byte	.LVL65
 2842 0d97 A10D0000 		.4byte	0xda1
 2843 0d9b 1F       		.uleb128 0x1f
 2844 0d9c 01       		.uleb128 0x1
 2845 0d9d 51       		.byte	0x51
 2846 0d9e 01       		.uleb128 0x1
 2847 0d9f 4E       		.byte	0x4e
ARM GAS  /tmp/ccZqK06Y.s 			page 51


 2848 0da0 00       		.byte	0
 2849 0da1 21       		.uleb128 0x21
 2850 0da2 58000000 		.4byte	.LVL66
 2851 0da6 1F       		.uleb128 0x1f
 2852 0da7 01       		.uleb128 0x1
 2853 0da8 51       		.byte	0x51
 2854 0da9 01       		.uleb128 0x1
 2855 0daa 4F       		.byte	0x4f
 2856 0dab 00       		.byte	0
 2857 0dac 00       		.byte	0
 2858 0dad 22       		.uleb128 0x22
 2859 0dae F4010000 		.4byte	.LASF214
 2860 0db2 01       		.byte	0x1
 2861 0db3 7001     		.2byte	0x170
 2862 0db5 00000000 		.4byte	.LFB286
 2863 0db9 30000000 		.4byte	.LFE286-.LFB286
 2864 0dbd 01       		.uleb128 0x1
 2865 0dbe 9C       		.byte	0x9c
 2866 0dbf ED0D0000 		.4byte	0xded
 2867 0dc3 23       		.uleb128 0x23
 2868 0dc4 70723200 		.ascii	"pr2\000"
 2869 0dc8 01       		.byte	0x1
 2870 0dc9 7101     		.2byte	0x171
 2871 0dcb AD000000 		.4byte	0xad
 2872 0dcf FC010000 		.4byte	.LLST14
 2873 0dd3 1E       		.uleb128 0x1e
 2874 0dd4 1E000000 		.4byte	.LVL68
 2875 0dd8 E30D0000 		.4byte	0xde3
 2876 0ddc 1F       		.uleb128 0x1f
 2877 0ddd 01       		.uleb128 0x1
 2878 0dde 51       		.byte	0x51
 2879 0ddf 02       		.uleb128 0x2
 2880 0de0 08       		.byte	0x8
 2881 0de1 21       		.byte	0x21
 2882 0de2 00       		.byte	0
 2883 0de3 20       		.uleb128 0x20
 2884 0de4 26000000 		.4byte	.LVL69
 2885 0de8 CB100000 		.4byte	0x10cb
 2886 0dec 00       		.byte	0
 2887 0ded 22       		.uleb128 0x22
 2888 0dee A5030000 		.4byte	.LASF215
 2889 0df2 01       		.byte	0x1
 2890 0df3 8701     		.2byte	0x187
 2891 0df5 00000000 		.4byte	.LFB287
 2892 0df9 7E000000 		.4byte	.LFE287-.LFB287
 2893 0dfd 01       		.uleb128 0x1
 2894 0dfe 9C       		.byte	0x9c
 2895 0dff 6E0F0000 		.4byte	0xf6e
 2896 0e03 24       		.uleb128 0x24
 2897 0e04 0A000000 		.4byte	.LVL70
 2898 0e08 D3100000 		.4byte	0x10d3
 2899 0e0c 1B0E0000 		.4byte	0xe1b
 2900 0e10 1F       		.uleb128 0x1f
 2901 0e11 01       		.uleb128 0x1
 2902 0e12 51       		.byte	0x51
 2903 0e13 01       		.uleb128 0x1
 2904 0e14 36       		.byte	0x36
ARM GAS  /tmp/ccZqK06Y.s 			page 52


 2905 0e15 1F       		.uleb128 0x1f
 2906 0e16 01       		.uleb128 0x1
 2907 0e17 50       		.byte	0x50
 2908 0e18 01       		.uleb128 0x1
 2909 0e19 36       		.byte	0x36
 2910 0e1a 00       		.byte	0
 2911 0e1b 24       		.uleb128 0x24
 2912 0e1c 12000000 		.4byte	.LVL71
 2913 0e20 D3100000 		.4byte	0x10d3
 2914 0e24 330E0000 		.4byte	0xe33
 2915 0e28 1F       		.uleb128 0x1f
 2916 0e29 01       		.uleb128 0x1
 2917 0e2a 51       		.byte	0x51
 2918 0e2b 01       		.uleb128 0x1
 2919 0e2c 36       		.byte	0x36
 2920 0e2d 1F       		.uleb128 0x1f
 2921 0e2e 01       		.uleb128 0x1
 2922 0e2f 50       		.byte	0x50
 2923 0e30 01       		.uleb128 0x1
 2924 0e31 37       		.byte	0x37
 2925 0e32 00       		.byte	0
 2926 0e33 24       		.uleb128 0x24
 2927 0e34 1A000000 		.4byte	.LVL72
 2928 0e38 D3100000 		.4byte	0x10d3
 2929 0e3c 4B0E0000 		.4byte	0xe4b
 2930 0e40 1F       		.uleb128 0x1f
 2931 0e41 01       		.uleb128 0x1
 2932 0e42 51       		.byte	0x51
 2933 0e43 01       		.uleb128 0x1
 2934 0e44 36       		.byte	0x36
 2935 0e45 1F       		.uleb128 0x1f
 2936 0e46 01       		.uleb128 0x1
 2937 0e47 50       		.byte	0x50
 2938 0e48 01       		.uleb128 0x1
 2939 0e49 38       		.byte	0x38
 2940 0e4a 00       		.byte	0
 2941 0e4b 24       		.uleb128 0x24
 2942 0e4c 22000000 		.4byte	.LVL73
 2943 0e50 D3100000 		.4byte	0x10d3
 2944 0e54 630E0000 		.4byte	0xe63
 2945 0e58 1F       		.uleb128 0x1f
 2946 0e59 01       		.uleb128 0x1
 2947 0e5a 51       		.byte	0x51
 2948 0e5b 01       		.uleb128 0x1
 2949 0e5c 36       		.byte	0x36
 2950 0e5d 1F       		.uleb128 0x1f
 2951 0e5e 01       		.uleb128 0x1
 2952 0e5f 50       		.byte	0x50
 2953 0e60 01       		.uleb128 0x1
 2954 0e61 39       		.byte	0x39
 2955 0e62 00       		.byte	0
 2956 0e63 24       		.uleb128 0x24
 2957 0e64 2A000000 		.4byte	.LVL74
 2958 0e68 D3100000 		.4byte	0x10d3
 2959 0e6c 7B0E0000 		.4byte	0xe7b
 2960 0e70 1F       		.uleb128 0x1f
 2961 0e71 01       		.uleb128 0x1
ARM GAS  /tmp/ccZqK06Y.s 			page 53


 2962 0e72 51       		.byte	0x51
 2963 0e73 01       		.uleb128 0x1
 2964 0e74 36       		.byte	0x36
 2965 0e75 1F       		.uleb128 0x1f
 2966 0e76 01       		.uleb128 0x1
 2967 0e77 50       		.byte	0x50
 2968 0e78 01       		.uleb128 0x1
 2969 0e79 3A       		.byte	0x3a
 2970 0e7a 00       		.byte	0
 2971 0e7b 24       		.uleb128 0x24
 2972 0e7c 32000000 		.4byte	.LVL75
 2973 0e80 D3100000 		.4byte	0x10d3
 2974 0e84 930E0000 		.4byte	0xe93
 2975 0e88 1F       		.uleb128 0x1f
 2976 0e89 01       		.uleb128 0x1
 2977 0e8a 51       		.byte	0x51
 2978 0e8b 01       		.uleb128 0x1
 2979 0e8c 36       		.byte	0x36
 2980 0e8d 1F       		.uleb128 0x1f
 2981 0e8e 01       		.uleb128 0x1
 2982 0e8f 50       		.byte	0x50
 2983 0e90 01       		.uleb128 0x1
 2984 0e91 47       		.byte	0x47
 2985 0e92 00       		.byte	0
 2986 0e93 24       		.uleb128 0x24
 2987 0e94 3A000000 		.4byte	.LVL76
 2988 0e98 D3100000 		.4byte	0x10d3
 2989 0e9c AC0E0000 		.4byte	0xeac
 2990 0ea0 1F       		.uleb128 0x1f
 2991 0ea1 01       		.uleb128 0x1
 2992 0ea2 51       		.byte	0x51
 2993 0ea3 01       		.uleb128 0x1
 2994 0ea4 36       		.byte	0x36
 2995 0ea5 1F       		.uleb128 0x1f
 2996 0ea6 01       		.uleb128 0x1
 2997 0ea7 50       		.byte	0x50
 2998 0ea8 02       		.uleb128 0x2
 2999 0ea9 08       		.byte	0x8
 3000 0eaa 28       		.byte	0x28
 3001 0eab 00       		.byte	0
 3002 0eac 24       		.uleb128 0x24
 3003 0ead 42000000 		.4byte	.LVL77
 3004 0eb1 D3100000 		.4byte	0x10d3
 3005 0eb5 C40E0000 		.4byte	0xec4
 3006 0eb9 1F       		.uleb128 0x1f
 3007 0eba 01       		.uleb128 0x1
 3008 0ebb 51       		.byte	0x51
 3009 0ebc 01       		.uleb128 0x1
 3010 0ebd 36       		.byte	0x36
 3011 0ebe 1F       		.uleb128 0x1f
 3012 0ebf 01       		.uleb128 0x1
 3013 0ec0 50       		.byte	0x50
 3014 0ec1 01       		.uleb128 0x1
 3015 0ec2 31       		.byte	0x31
 3016 0ec3 00       		.byte	0
 3017 0ec4 24       		.uleb128 0x24
 3018 0ec5 4A000000 		.4byte	.LVL78
ARM GAS  /tmp/ccZqK06Y.s 			page 54


 3019 0ec9 D3100000 		.4byte	0x10d3
 3020 0ecd DD0E0000 		.4byte	0xedd
 3021 0ed1 1F       		.uleb128 0x1f
 3022 0ed2 01       		.uleb128 0x1
 3023 0ed3 51       		.byte	0x51
 3024 0ed4 01       		.uleb128 0x1
 3025 0ed5 36       		.byte	0x36
 3026 0ed6 1F       		.uleb128 0x1f
 3027 0ed7 01       		.uleb128 0x1
 3028 0ed8 50       		.byte	0x50
 3029 0ed9 02       		.uleb128 0x2
 3030 0eda 08       		.byte	0x8
 3031 0edb 29       		.byte	0x29
 3032 0edc 00       		.byte	0
 3033 0edd 24       		.uleb128 0x24
 3034 0ede 52000000 		.4byte	.LVL79
 3035 0ee2 D3100000 		.4byte	0x10d3
 3036 0ee6 F60E0000 		.4byte	0xef6
 3037 0eea 1F       		.uleb128 0x1f
 3038 0eeb 01       		.uleb128 0x1
 3039 0eec 51       		.byte	0x51
 3040 0eed 01       		.uleb128 0x1
 3041 0eee 36       		.byte	0x36
 3042 0eef 1F       		.uleb128 0x1f
 3043 0ef0 01       		.uleb128 0x1
 3044 0ef1 50       		.byte	0x50
 3045 0ef2 02       		.uleb128 0x2
 3046 0ef3 08       		.byte	0x8
 3047 0ef4 4C       		.byte	0x4c
 3048 0ef5 00       		.byte	0
 3049 0ef6 24       		.uleb128 0x24
 3050 0ef7 5A000000 		.4byte	.LVL80
 3051 0efb D3100000 		.4byte	0x10d3
 3052 0eff 0E0F0000 		.4byte	0xf0e
 3053 0f03 1F       		.uleb128 0x1f
 3054 0f04 01       		.uleb128 0x1
 3055 0f05 51       		.byte	0x51
 3056 0f06 01       		.uleb128 0x1
 3057 0f07 36       		.byte	0x36
 3058 0f08 1F       		.uleb128 0x1f
 3059 0f09 01       		.uleb128 0x1
 3060 0f0a 50       		.byte	0x50
 3061 0f0b 01       		.uleb128 0x1
 3062 0f0c 32       		.byte	0x32
 3063 0f0d 00       		.byte	0
 3064 0f0e 24       		.uleb128 0x24
 3065 0f0f 62000000 		.4byte	.LVL81
 3066 0f13 D3100000 		.4byte	0x10d3
 3067 0f17 260F0000 		.4byte	0xf26
 3068 0f1b 1F       		.uleb128 0x1f
 3069 0f1c 01       		.uleb128 0x1
 3070 0f1d 51       		.byte	0x51
 3071 0f1e 01       		.uleb128 0x1
 3072 0f1f 36       		.byte	0x36
 3073 0f20 1F       		.uleb128 0x1f
 3074 0f21 01       		.uleb128 0x1
 3075 0f22 50       		.byte	0x50
ARM GAS  /tmp/ccZqK06Y.s 			page 55


 3076 0f23 01       		.uleb128 0x1
 3077 0f24 33       		.byte	0x33
 3078 0f25 00       		.byte	0
 3079 0f26 24       		.uleb128 0x24
 3080 0f27 6A000000 		.4byte	.LVL82
 3081 0f2b D3100000 		.4byte	0x10d3
 3082 0f2f 3F0F0000 		.4byte	0xf3f
 3083 0f33 1F       		.uleb128 0x1f
 3084 0f34 01       		.uleb128 0x1
 3085 0f35 51       		.byte	0x51
 3086 0f36 01       		.uleb128 0x1
 3087 0f37 36       		.byte	0x36
 3088 0f38 1F       		.uleb128 0x1f
 3089 0f39 01       		.uleb128 0x1
 3090 0f3a 50       		.byte	0x50
 3091 0f3b 02       		.uleb128 0x2
 3092 0f3c 08       		.byte	0x8
 3093 0f3d 40       		.byte	0x40
 3094 0f3e 00       		.byte	0
 3095 0f3f 24       		.uleb128 0x24
 3096 0f40 72000000 		.4byte	.LVL83
 3097 0f44 D3100000 		.4byte	0x10d3
 3098 0f48 580F0000 		.4byte	0xf58
 3099 0f4c 1F       		.uleb128 0x1f
 3100 0f4d 01       		.uleb128 0x1
 3101 0f4e 51       		.byte	0x51
 3102 0f4f 01       		.uleb128 0x1
 3103 0f50 36       		.byte	0x36
 3104 0f51 1F       		.uleb128 0x1f
 3105 0f52 01       		.uleb128 0x1
 3106 0f53 50       		.byte	0x50
 3107 0f54 02       		.uleb128 0x2
 3108 0f55 08       		.byte	0x8
 3109 0f56 41       		.byte	0x41
 3110 0f57 00       		.byte	0
 3111 0f58 25       		.uleb128 0x25
 3112 0f59 7E000000 		.4byte	.LVL84
 3113 0f5d D3100000 		.4byte	0x10d3
 3114 0f61 1F       		.uleb128 0x1f
 3115 0f62 01       		.uleb128 0x1
 3116 0f63 51       		.byte	0x51
 3117 0f64 01       		.uleb128 0x1
 3118 0f65 36       		.byte	0x36
 3119 0f66 1F       		.uleb128 0x1f
 3120 0f67 01       		.uleb128 0x1
 3121 0f68 50       		.byte	0x50
 3122 0f69 02       		.uleb128 0x2
 3123 0f6a 08       		.byte	0x8
 3124 0f6b 42       		.byte	0x42
 3125 0f6c 00       		.byte	0
 3126 0f6d 00       		.byte	0
 3127 0f6e 22       		.uleb128 0x22
 3128 0f6f BA020000 		.4byte	.LASF216
 3129 0f73 01       		.byte	0x1
 3130 0f74 A301     		.2byte	0x1a3
 3131 0f76 00000000 		.4byte	.LFB288
 3132 0f7a 60000000 		.4byte	.LFE288-.LFB288
ARM GAS  /tmp/ccZqK06Y.s 			page 56


 3133 0f7e 01       		.uleb128 0x1
 3134 0f7f 9C       		.byte	0x9c
 3135 0f80 A4100000 		.4byte	0x10a4
 3136 0f84 24       		.uleb128 0x24
 3137 0f85 08000000 		.4byte	.LVL85
 3138 0f89 E9100000 		.4byte	0x10e9
 3139 0f8d 970F0000 		.4byte	0xf97
 3140 0f91 1F       		.uleb128 0x1f
 3141 0f92 01       		.uleb128 0x1
 3142 0f93 50       		.byte	0x50
 3143 0f94 01       		.uleb128 0x1
 3144 0f95 36       		.byte	0x36
 3145 0f96 00       		.byte	0
 3146 0f97 24       		.uleb128 0x24
 3147 0f98 0E000000 		.4byte	.LVL86
 3148 0f9c E9100000 		.4byte	0x10e9
 3149 0fa0 AA0F0000 		.4byte	0xfaa
 3150 0fa4 1F       		.uleb128 0x1f
 3151 0fa5 01       		.uleb128 0x1
 3152 0fa6 50       		.byte	0x50
 3153 0fa7 01       		.uleb128 0x1
 3154 0fa8 37       		.byte	0x37
 3155 0fa9 00       		.byte	0
 3156 0faa 24       		.uleb128 0x24
 3157 0fab 14000000 		.4byte	.LVL87
 3158 0faf E9100000 		.4byte	0x10e9
 3159 0fb3 BD0F0000 		.4byte	0xfbd
 3160 0fb7 1F       		.uleb128 0x1f
 3161 0fb8 01       		.uleb128 0x1
 3162 0fb9 50       		.byte	0x50
 3163 0fba 01       		.uleb128 0x1
 3164 0fbb 38       		.byte	0x38
 3165 0fbc 00       		.byte	0
 3166 0fbd 24       		.uleb128 0x24
 3167 0fbe 1A000000 		.4byte	.LVL88
 3168 0fc2 E9100000 		.4byte	0x10e9
 3169 0fc6 D00F0000 		.4byte	0xfd0
 3170 0fca 1F       		.uleb128 0x1f
 3171 0fcb 01       		.uleb128 0x1
 3172 0fcc 50       		.byte	0x50
 3173 0fcd 01       		.uleb128 0x1
 3174 0fce 39       		.byte	0x39
 3175 0fcf 00       		.byte	0
 3176 0fd0 24       		.uleb128 0x24
 3177 0fd1 20000000 		.4byte	.LVL89
 3178 0fd5 E9100000 		.4byte	0x10e9
 3179 0fd9 E30F0000 		.4byte	0xfe3
 3180 0fdd 1F       		.uleb128 0x1f
 3181 0fde 01       		.uleb128 0x1
 3182 0fdf 50       		.byte	0x50
 3183 0fe0 01       		.uleb128 0x1
 3184 0fe1 3A       		.byte	0x3a
 3185 0fe2 00       		.byte	0
 3186 0fe3 24       		.uleb128 0x24
 3187 0fe4 26000000 		.4byte	.LVL90
 3188 0fe8 E9100000 		.4byte	0x10e9
 3189 0fec F60F0000 		.4byte	0xff6
ARM GAS  /tmp/ccZqK06Y.s 			page 57


 3190 0ff0 1F       		.uleb128 0x1f
 3191 0ff1 01       		.uleb128 0x1
 3192 0ff2 50       		.byte	0x50
 3193 0ff3 01       		.uleb128 0x1
 3194 0ff4 47       		.byte	0x47
 3195 0ff5 00       		.byte	0
 3196 0ff6 24       		.uleb128 0x24
 3197 0ff7 2C000000 		.4byte	.LVL91
 3198 0ffb E9100000 		.4byte	0x10e9
 3199 0fff 0A100000 		.4byte	0x100a
 3200 1003 1F       		.uleb128 0x1f
 3201 1004 01       		.uleb128 0x1
 3202 1005 50       		.byte	0x50
 3203 1006 02       		.uleb128 0x2
 3204 1007 08       		.byte	0x8
 3205 1008 28       		.byte	0x28
 3206 1009 00       		.byte	0
 3207 100a 24       		.uleb128 0x24
 3208 100b 32000000 		.4byte	.LVL92
 3209 100f E9100000 		.4byte	0x10e9
 3210 1013 1D100000 		.4byte	0x101d
 3211 1017 1F       		.uleb128 0x1f
 3212 1018 01       		.uleb128 0x1
 3213 1019 50       		.byte	0x50
 3214 101a 01       		.uleb128 0x1
 3215 101b 31       		.byte	0x31
 3216 101c 00       		.byte	0
 3217 101d 24       		.uleb128 0x24
 3218 101e 38000000 		.4byte	.LVL93
 3219 1022 E9100000 		.4byte	0x10e9
 3220 1026 31100000 		.4byte	0x1031
 3221 102a 1F       		.uleb128 0x1f
 3222 102b 01       		.uleb128 0x1
 3223 102c 50       		.byte	0x50
 3224 102d 02       		.uleb128 0x2
 3225 102e 08       		.byte	0x8
 3226 102f 29       		.byte	0x29
 3227 1030 00       		.byte	0
 3228 1031 24       		.uleb128 0x24
 3229 1032 3E000000 		.4byte	.LVL94
 3230 1036 E9100000 		.4byte	0x10e9
 3231 103a 45100000 		.4byte	0x1045
 3232 103e 1F       		.uleb128 0x1f
 3233 103f 01       		.uleb128 0x1
 3234 1040 50       		.byte	0x50
 3235 1041 02       		.uleb128 0x2
 3236 1042 08       		.byte	0x8
 3237 1043 4C       		.byte	0x4c
 3238 1044 00       		.byte	0
 3239 1045 24       		.uleb128 0x24
 3240 1046 44000000 		.4byte	.LVL95
 3241 104a E9100000 		.4byte	0x10e9
 3242 104e 58100000 		.4byte	0x1058
 3243 1052 1F       		.uleb128 0x1f
 3244 1053 01       		.uleb128 0x1
 3245 1054 50       		.byte	0x50
 3246 1055 01       		.uleb128 0x1
ARM GAS  /tmp/ccZqK06Y.s 			page 58


 3247 1056 32       		.byte	0x32
 3248 1057 00       		.byte	0
 3249 1058 24       		.uleb128 0x24
 3250 1059 4A000000 		.4byte	.LVL96
 3251 105d E9100000 		.4byte	0x10e9
 3252 1061 6B100000 		.4byte	0x106b
 3253 1065 1F       		.uleb128 0x1f
 3254 1066 01       		.uleb128 0x1
 3255 1067 50       		.byte	0x50
 3256 1068 01       		.uleb128 0x1
 3257 1069 33       		.byte	0x33
 3258 106a 00       		.byte	0
 3259 106b 24       		.uleb128 0x24
 3260 106c 50000000 		.4byte	.LVL97
 3261 1070 E9100000 		.4byte	0x10e9
 3262 1074 7F100000 		.4byte	0x107f
 3263 1078 1F       		.uleb128 0x1f
 3264 1079 01       		.uleb128 0x1
 3265 107a 50       		.byte	0x50
 3266 107b 02       		.uleb128 0x2
 3267 107c 08       		.byte	0x8
 3268 107d 40       		.byte	0x40
 3269 107e 00       		.byte	0
 3270 107f 24       		.uleb128 0x24
 3271 1080 56000000 		.4byte	.LVL98
 3272 1084 E9100000 		.4byte	0x10e9
 3273 1088 93100000 		.4byte	0x1093
 3274 108c 1F       		.uleb128 0x1f
 3275 108d 01       		.uleb128 0x1
 3276 108e 50       		.byte	0x50
 3277 108f 02       		.uleb128 0x2
 3278 1090 08       		.byte	0x8
 3279 1091 41       		.byte	0x41
 3280 1092 00       		.byte	0
 3281 1093 25       		.uleb128 0x25
 3282 1094 60000000 		.4byte	.LVL99
 3283 1098 E9100000 		.4byte	0x10e9
 3284 109c 1F       		.uleb128 0x1f
 3285 109d 01       		.uleb128 0x1
 3286 109e 50       		.byte	0x50
 3287 109f 02       		.uleb128 0x2
 3288 10a0 08       		.byte	0x8
 3289 10a1 42       		.byte	0x42
 3290 10a2 00       		.byte	0
 3291 10a3 00       		.byte	0
 3292 10a4 26       		.uleb128 0x26
 3293 10a5 A7060000 		.4byte	.LASF217
 3294 10a9 0F       		.byte	0xf
 3295 10aa FA06     		.2byte	0x6fa
 3296 10ac B0100000 		.4byte	0x10b0
 3297 10b0 11       		.uleb128 0x11
 3298 10b1 A2000000 		.4byte	0xa2
 3299 10b5 27       		.uleb128 0x27
 3300 10b6 636800   		.ascii	"ch\000"
 3301 10b9 06       		.byte	0x6
 3302 10ba 0B02     		.2byte	0x20b
 3303 10bc C8030000 		.4byte	0x3c8
ARM GAS  /tmp/ccZqK06Y.s 			page 59


 3304 10c0 28       		.uleb128 0x28
 3305 10c1 170B0000 		.4byte	.LASF218
 3306 10c5 0E       		.byte	0xe
 3307 10c6 88       		.byte	0x88
 3308 10c7 DE080000 		.4byte	0x8de
 3309 10cb 29       		.uleb128 0x29
 3310 10cc 5C0A0000 		.4byte	.LASF222
 3311 10d0 09       		.byte	0x9
 3312 10d1 6F01     		.2byte	0x16f
 3313 10d3 2A       		.uleb128 0x2a
 3314 10d4 47010000 		.4byte	.LASF223
 3315 10d8 10       		.byte	0x10
 3316 10d9 4E       		.byte	0x4e
 3317 10da E9100000 		.4byte	0x10e9
 3318 10de 0C       		.uleb128 0xc
 3319 10df AD000000 		.4byte	0xad
 3320 10e3 0C       		.uleb128 0xc
 3321 10e4 AD000000 		.4byte	0xad
 3322 10e8 00       		.byte	0
 3323 10e9 2B       		.uleb128 0x2b
 3324 10ea E8020000 		.4byte	.LASF224
 3325 10ee 10       		.byte	0x10
 3326 10ef 4F       		.byte	0x4f
 3327 10f0 0C       		.uleb128 0xc
 3328 10f1 AD000000 		.4byte	0xad
 3329 10f5 00       		.byte	0
 3330 10f6 00       		.byte	0
 3331              		.section	.debug_abbrev,"",%progbits
 3332              	.Ldebug_abbrev0:
 3333 0000 01       		.uleb128 0x1
 3334 0001 11       		.uleb128 0x11
 3335 0002 01       		.byte	0x1
 3336 0003 25       		.uleb128 0x25
 3337 0004 0E       		.uleb128 0xe
 3338 0005 13       		.uleb128 0x13
 3339 0006 0B       		.uleb128 0xb
 3340 0007 03       		.uleb128 0x3
 3341 0008 0E       		.uleb128 0xe
 3342 0009 1B       		.uleb128 0x1b
 3343 000a 0E       		.uleb128 0xe
 3344 000b 55       		.uleb128 0x55
 3345 000c 17       		.uleb128 0x17
 3346 000d 11       		.uleb128 0x11
 3347 000e 01       		.uleb128 0x1
 3348 000f 10       		.uleb128 0x10
 3349 0010 17       		.uleb128 0x17
 3350 0011 00       		.byte	0
 3351 0012 00       		.byte	0
 3352 0013 02       		.uleb128 0x2
 3353 0014 24       		.uleb128 0x24
 3354 0015 00       		.byte	0
 3355 0016 0B       		.uleb128 0xb
 3356 0017 0B       		.uleb128 0xb
 3357 0018 3E       		.uleb128 0x3e
 3358 0019 0B       		.uleb128 0xb
 3359 001a 03       		.uleb128 0x3
 3360 001b 08       		.uleb128 0x8
ARM GAS  /tmp/ccZqK06Y.s 			page 60


 3361 001c 00       		.byte	0
 3362 001d 00       		.byte	0
 3363 001e 03       		.uleb128 0x3
 3364 001f 24       		.uleb128 0x24
 3365 0020 00       		.byte	0
 3366 0021 0B       		.uleb128 0xb
 3367 0022 0B       		.uleb128 0xb
 3368 0023 3E       		.uleb128 0x3e
 3369 0024 0B       		.uleb128 0xb
 3370 0025 03       		.uleb128 0x3
 3371 0026 0E       		.uleb128 0xe
 3372 0027 00       		.byte	0
 3373 0028 00       		.byte	0
 3374 0029 04       		.uleb128 0x4
 3375 002a 16       		.uleb128 0x16
 3376 002b 00       		.byte	0
 3377 002c 03       		.uleb128 0x3
 3378 002d 0E       		.uleb128 0xe
 3379 002e 3A       		.uleb128 0x3a
 3380 002f 0B       		.uleb128 0xb
 3381 0030 3B       		.uleb128 0x3b
 3382 0031 0B       		.uleb128 0xb
 3383 0032 49       		.uleb128 0x49
 3384 0033 13       		.uleb128 0x13
 3385 0034 00       		.byte	0
 3386 0035 00       		.byte	0
 3387 0036 05       		.uleb128 0x5
 3388 0037 13       		.uleb128 0x13
 3389 0038 01       		.byte	0x1
 3390 0039 03       		.uleb128 0x3
 3391 003a 0E       		.uleb128 0xe
 3392 003b 0B       		.uleb128 0xb
 3393 003c 0B       		.uleb128 0xb
 3394 003d 3A       		.uleb128 0x3a
 3395 003e 0B       		.uleb128 0xb
 3396 003f 3B       		.uleb128 0x3b
 3397 0040 0B       		.uleb128 0xb
 3398 0041 01       		.uleb128 0x1
 3399 0042 13       		.uleb128 0x13
 3400 0043 00       		.byte	0
 3401 0044 00       		.byte	0
 3402 0045 06       		.uleb128 0x6
 3403 0046 0D       		.uleb128 0xd
 3404 0047 00       		.byte	0
 3405 0048 03       		.uleb128 0x3
 3406 0049 0E       		.uleb128 0xe
 3407 004a 3A       		.uleb128 0x3a
 3408 004b 0B       		.uleb128 0xb
 3409 004c 3B       		.uleb128 0x3b
 3410 004d 0B       		.uleb128 0xb
 3411 004e 49       		.uleb128 0x49
 3412 004f 13       		.uleb128 0x13
 3413 0050 38       		.uleb128 0x38
 3414 0051 0B       		.uleb128 0xb
 3415 0052 00       		.byte	0
 3416 0053 00       		.byte	0
 3417 0054 07       		.uleb128 0x7
ARM GAS  /tmp/ccZqK06Y.s 			page 61


 3418 0055 0D       		.uleb128 0xd
 3419 0056 00       		.byte	0
 3420 0057 03       		.uleb128 0x3
 3421 0058 08       		.uleb128 0x8
 3422 0059 3A       		.uleb128 0x3a
 3423 005a 0B       		.uleb128 0xb
 3424 005b 3B       		.uleb128 0x3b
 3425 005c 05       		.uleb128 0x5
 3426 005d 49       		.uleb128 0x49
 3427 005e 13       		.uleb128 0x13
 3428 005f 38       		.uleb128 0x38
 3429 0060 0B       		.uleb128 0xb
 3430 0061 00       		.byte	0
 3431 0062 00       		.byte	0
 3432 0063 08       		.uleb128 0x8
 3433 0064 0D       		.uleb128 0xd
 3434 0065 00       		.byte	0
 3435 0066 03       		.uleb128 0x3
 3436 0067 0E       		.uleb128 0xe
 3437 0068 3A       		.uleb128 0x3a
 3438 0069 0B       		.uleb128 0xb
 3439 006a 3B       		.uleb128 0x3b
 3440 006b 05       		.uleb128 0x5
 3441 006c 49       		.uleb128 0x49
 3442 006d 13       		.uleb128 0x13
 3443 006e 38       		.uleb128 0x38
 3444 006f 0B       		.uleb128 0xb
 3445 0070 00       		.byte	0
 3446 0071 00       		.byte	0
 3447 0072 09       		.uleb128 0x9
 3448 0073 0F       		.uleb128 0xf
 3449 0074 00       		.byte	0
 3450 0075 0B       		.uleb128 0xb
 3451 0076 0B       		.uleb128 0xb
 3452 0077 49       		.uleb128 0x49
 3453 0078 13       		.uleb128 0x13
 3454 0079 00       		.byte	0
 3455 007a 00       		.byte	0
 3456 007b 0A       		.uleb128 0xa
 3457 007c 13       		.uleb128 0x13
 3458 007d 01       		.byte	0x1
 3459 007e 03       		.uleb128 0x3
 3460 007f 0E       		.uleb128 0xe
 3461 0080 0B       		.uleb128 0xb
 3462 0081 0B       		.uleb128 0xb
 3463 0082 3A       		.uleb128 0x3a
 3464 0083 0B       		.uleb128 0xb
 3465 0084 3B       		.uleb128 0x3b
 3466 0085 05       		.uleb128 0x5
 3467 0086 01       		.uleb128 0x1
 3468 0087 13       		.uleb128 0x13
 3469 0088 00       		.byte	0
 3470 0089 00       		.byte	0
 3471 008a 0B       		.uleb128 0xb
 3472 008b 15       		.uleb128 0x15
 3473 008c 01       		.byte	0x1
 3474 008d 27       		.uleb128 0x27
ARM GAS  /tmp/ccZqK06Y.s 			page 62


 3475 008e 19       		.uleb128 0x19
 3476 008f 01       		.uleb128 0x1
 3477 0090 13       		.uleb128 0x13
 3478 0091 00       		.byte	0
 3479 0092 00       		.byte	0
 3480 0093 0C       		.uleb128 0xc
 3481 0094 05       		.uleb128 0x5
 3482 0095 00       		.byte	0
 3483 0096 49       		.uleb128 0x49
 3484 0097 13       		.uleb128 0x13
 3485 0098 00       		.byte	0
 3486 0099 00       		.byte	0
 3487 009a 0D       		.uleb128 0xd
 3488 009b 0F       		.uleb128 0xf
 3489 009c 00       		.byte	0
 3490 009d 0B       		.uleb128 0xb
 3491 009e 0B       		.uleb128 0xb
 3492 009f 00       		.byte	0
 3493 00a0 00       		.byte	0
 3494 00a1 0E       		.uleb128 0xe
 3495 00a2 13       		.uleb128 0x13
 3496 00a3 01       		.byte	0x1
 3497 00a4 03       		.uleb128 0x3
 3498 00a5 0E       		.uleb128 0xe
 3499 00a6 0B       		.uleb128 0xb
 3500 00a7 05       		.uleb128 0x5
 3501 00a8 3A       		.uleb128 0x3a
 3502 00a9 0B       		.uleb128 0xb
 3503 00aa 3B       		.uleb128 0x3b
 3504 00ab 05       		.uleb128 0x5
 3505 00ac 01       		.uleb128 0x1
 3506 00ad 13       		.uleb128 0x13
 3507 00ae 00       		.byte	0
 3508 00af 00       		.byte	0
 3509 00b0 0F       		.uleb128 0xf
 3510 00b1 04       		.uleb128 0x4
 3511 00b2 01       		.byte	0x1
 3512 00b3 0B       		.uleb128 0xb
 3513 00b4 0B       		.uleb128 0xb
 3514 00b5 3A       		.uleb128 0x3a
 3515 00b6 0B       		.uleb128 0xb
 3516 00b7 3B       		.uleb128 0x3b
 3517 00b8 0B       		.uleb128 0xb
 3518 00b9 01       		.uleb128 0x1
 3519 00ba 13       		.uleb128 0x13
 3520 00bb 00       		.byte	0
 3521 00bc 00       		.byte	0
 3522 00bd 10       		.uleb128 0x10
 3523 00be 28       		.uleb128 0x28
 3524 00bf 00       		.byte	0
 3525 00c0 03       		.uleb128 0x3
 3526 00c1 0E       		.uleb128 0xe
 3527 00c2 1C       		.uleb128 0x1c
 3528 00c3 0D       		.uleb128 0xd
 3529 00c4 00       		.byte	0
 3530 00c5 00       		.byte	0
 3531 00c6 11       		.uleb128 0x11
ARM GAS  /tmp/ccZqK06Y.s 			page 63


 3532 00c7 35       		.uleb128 0x35
 3533 00c8 00       		.byte	0
 3534 00c9 49       		.uleb128 0x49
 3535 00ca 13       		.uleb128 0x13
 3536 00cb 00       		.byte	0
 3537 00cc 00       		.byte	0
 3538 00cd 12       		.uleb128 0x12
 3539 00ce 13       		.uleb128 0x13
 3540 00cf 01       		.byte	0x1
 3541 00d0 0B       		.uleb128 0xb
 3542 00d1 0B       		.uleb128 0xb
 3543 00d2 3A       		.uleb128 0x3a
 3544 00d3 0B       		.uleb128 0xb
 3545 00d4 3B       		.uleb128 0x3b
 3546 00d5 05       		.uleb128 0x5
 3547 00d6 01       		.uleb128 0x1
 3548 00d7 13       		.uleb128 0x13
 3549 00d8 00       		.byte	0
 3550 00d9 00       		.byte	0
 3551 00da 13       		.uleb128 0x13
 3552 00db 16       		.uleb128 0x16
 3553 00dc 00       		.byte	0
 3554 00dd 03       		.uleb128 0x3
 3555 00de 0E       		.uleb128 0xe
 3556 00df 3A       		.uleb128 0x3a
 3557 00e0 0B       		.uleb128 0xb
 3558 00e1 3B       		.uleb128 0x3b
 3559 00e2 05       		.uleb128 0x5
 3560 00e3 49       		.uleb128 0x49
 3561 00e4 13       		.uleb128 0x13
 3562 00e5 00       		.byte	0
 3563 00e6 00       		.byte	0
 3564 00e7 14       		.uleb128 0x14
 3565 00e8 0D       		.uleb128 0xd
 3566 00e9 00       		.byte	0
 3567 00ea 03       		.uleb128 0x3
 3568 00eb 08       		.uleb128 0x8
 3569 00ec 3A       		.uleb128 0x3a
 3570 00ed 0B       		.uleb128 0xb
 3571 00ee 3B       		.uleb128 0x3b
 3572 00ef 0B       		.uleb128 0xb
 3573 00f0 49       		.uleb128 0x49
 3574 00f1 13       		.uleb128 0x13
 3575 00f2 38       		.uleb128 0x38
 3576 00f3 0B       		.uleb128 0xb
 3577 00f4 00       		.byte	0
 3578 00f5 00       		.byte	0
 3579 00f6 15       		.uleb128 0x15
 3580 00f7 13       		.uleb128 0x13
 3581 00f8 01       		.byte	0x1
 3582 00f9 0B       		.uleb128 0xb
 3583 00fa 0B       		.uleb128 0xb
 3584 00fb 3A       		.uleb128 0x3a
 3585 00fc 0B       		.uleb128 0xb
 3586 00fd 3B       		.uleb128 0x3b
 3587 00fe 0B       		.uleb128 0xb
 3588 00ff 01       		.uleb128 0x1
ARM GAS  /tmp/ccZqK06Y.s 			page 64


 3589 0100 13       		.uleb128 0x13
 3590 0101 00       		.byte	0
 3591 0102 00       		.byte	0
 3592 0103 16       		.uleb128 0x16
 3593 0104 17       		.uleb128 0x17
 3594 0105 01       		.byte	0x1
 3595 0106 0B       		.uleb128 0xb
 3596 0107 0B       		.uleb128 0xb
 3597 0108 3A       		.uleb128 0x3a
 3598 0109 0B       		.uleb128 0xb
 3599 010a 3B       		.uleb128 0x3b
 3600 010b 0B       		.uleb128 0xb
 3601 010c 01       		.uleb128 0x1
 3602 010d 13       		.uleb128 0x13
 3603 010e 00       		.byte	0
 3604 010f 00       		.byte	0
 3605 0110 17       		.uleb128 0x17
 3606 0111 0D       		.uleb128 0xd
 3607 0112 00       		.byte	0
 3608 0113 03       		.uleb128 0x3
 3609 0114 0E       		.uleb128 0xe
 3610 0115 3A       		.uleb128 0x3a
 3611 0116 0B       		.uleb128 0xb
 3612 0117 3B       		.uleb128 0x3b
 3613 0118 05       		.uleb128 0x5
 3614 0119 49       		.uleb128 0x49
 3615 011a 13       		.uleb128 0x13
 3616 011b 00       		.byte	0
 3617 011c 00       		.byte	0
 3618 011d 18       		.uleb128 0x18
 3619 011e 26       		.uleb128 0x26
 3620 011f 00       		.byte	0
 3621 0120 49       		.uleb128 0x49
 3622 0121 13       		.uleb128 0x13
 3623 0122 00       		.byte	0
 3624 0123 00       		.byte	0
 3625 0124 19       		.uleb128 0x19
 3626 0125 01       		.uleb128 0x1
 3627 0126 01       		.byte	0x1
 3628 0127 49       		.uleb128 0x49
 3629 0128 13       		.uleb128 0x13
 3630 0129 01       		.uleb128 0x1
 3631 012a 13       		.uleb128 0x13
 3632 012b 00       		.byte	0
 3633 012c 00       		.byte	0
 3634 012d 1A       		.uleb128 0x1a
 3635 012e 21       		.uleb128 0x21
 3636 012f 00       		.byte	0
 3637 0130 49       		.uleb128 0x49
 3638 0131 13       		.uleb128 0x13
 3639 0132 2F       		.uleb128 0x2f
 3640 0133 0B       		.uleb128 0xb
 3641 0134 00       		.byte	0
 3642 0135 00       		.byte	0
 3643 0136 1B       		.uleb128 0x1b
 3644 0137 13       		.uleb128 0x13
 3645 0138 01       		.byte	0x1
ARM GAS  /tmp/ccZqK06Y.s 			page 65


 3646 0139 0B       		.uleb128 0xb
 3647 013a 05       		.uleb128 0x5
 3648 013b 3A       		.uleb128 0x3a
 3649 013c 0B       		.uleb128 0xb
 3650 013d 3B       		.uleb128 0x3b
 3651 013e 0B       		.uleb128 0xb
 3652 013f 01       		.uleb128 0x1
 3653 0140 13       		.uleb128 0x13
 3654 0141 00       		.byte	0
 3655 0142 00       		.byte	0
 3656 0143 1C       		.uleb128 0x1c
 3657 0144 2E       		.uleb128 0x2e
 3658 0145 01       		.byte	0x1
 3659 0146 3F       		.uleb128 0x3f
 3660 0147 19       		.uleb128 0x19
 3661 0148 03       		.uleb128 0x3
 3662 0149 0E       		.uleb128 0xe
 3663 014a 3A       		.uleb128 0x3a
 3664 014b 0B       		.uleb128 0xb
 3665 014c 3B       		.uleb128 0x3b
 3666 014d 0B       		.uleb128 0xb
 3667 014e 27       		.uleb128 0x27
 3668 014f 19       		.uleb128 0x19
 3669 0150 11       		.uleb128 0x11
 3670 0151 01       		.uleb128 0x1
 3671 0152 12       		.uleb128 0x12
 3672 0153 06       		.uleb128 0x6
 3673 0154 40       		.uleb128 0x40
 3674 0155 18       		.uleb128 0x18
 3675 0156 9742     		.uleb128 0x2117
 3676 0158 19       		.uleb128 0x19
 3677 0159 01       		.uleb128 0x1
 3678 015a 13       		.uleb128 0x13
 3679 015b 00       		.byte	0
 3680 015c 00       		.byte	0
 3681 015d 1D       		.uleb128 0x1d
 3682 015e 34       		.uleb128 0x34
 3683 015f 00       		.byte	0
 3684 0160 03       		.uleb128 0x3
 3685 0161 08       		.uleb128 0x8
 3686 0162 3A       		.uleb128 0x3a
 3687 0163 0B       		.uleb128 0xb
 3688 0164 3B       		.uleb128 0x3b
 3689 0165 0B       		.uleb128 0xb
 3690 0166 49       		.uleb128 0x49
 3691 0167 13       		.uleb128 0x13
 3692 0168 02       		.uleb128 0x2
 3693 0169 17       		.uleb128 0x17
 3694 016a 00       		.byte	0
 3695 016b 00       		.byte	0
 3696 016c 1E       		.uleb128 0x1e
 3697 016d 898201   		.uleb128 0x4109
 3698 0170 01       		.byte	0x1
 3699 0171 11       		.uleb128 0x11
 3700 0172 01       		.uleb128 0x1
 3701 0173 01       		.uleb128 0x1
 3702 0174 13       		.uleb128 0x13
ARM GAS  /tmp/ccZqK06Y.s 			page 66


 3703 0175 00       		.byte	0
 3704 0176 00       		.byte	0
 3705 0177 1F       		.uleb128 0x1f
 3706 0178 8A8201   		.uleb128 0x410a
 3707 017b 00       		.byte	0
 3708 017c 02       		.uleb128 0x2
 3709 017d 18       		.uleb128 0x18
 3710 017e 9142     		.uleb128 0x2111
 3711 0180 18       		.uleb128 0x18
 3712 0181 00       		.byte	0
 3713 0182 00       		.byte	0
 3714 0183 20       		.uleb128 0x20
 3715 0184 898201   		.uleb128 0x4109
 3716 0187 00       		.byte	0
 3717 0188 11       		.uleb128 0x11
 3718 0189 01       		.uleb128 0x1
 3719 018a 9542     		.uleb128 0x2115
 3720 018c 19       		.uleb128 0x19
 3721 018d 31       		.uleb128 0x31
 3722 018e 13       		.uleb128 0x13
 3723 018f 00       		.byte	0
 3724 0190 00       		.byte	0
 3725 0191 21       		.uleb128 0x21
 3726 0192 898201   		.uleb128 0x4109
 3727 0195 01       		.byte	0x1
 3728 0196 11       		.uleb128 0x11
 3729 0197 01       		.uleb128 0x1
 3730 0198 00       		.byte	0
 3731 0199 00       		.byte	0
 3732 019a 22       		.uleb128 0x22
 3733 019b 2E       		.uleb128 0x2e
 3734 019c 01       		.byte	0x1
 3735 019d 3F       		.uleb128 0x3f
 3736 019e 19       		.uleb128 0x19
 3737 019f 03       		.uleb128 0x3
 3738 01a0 0E       		.uleb128 0xe
 3739 01a1 3A       		.uleb128 0x3a
 3740 01a2 0B       		.uleb128 0xb
 3741 01a3 3B       		.uleb128 0x3b
 3742 01a4 05       		.uleb128 0x5
 3743 01a5 27       		.uleb128 0x27
 3744 01a6 19       		.uleb128 0x19
 3745 01a7 11       		.uleb128 0x11
 3746 01a8 01       		.uleb128 0x1
 3747 01a9 12       		.uleb128 0x12
 3748 01aa 06       		.uleb128 0x6
 3749 01ab 40       		.uleb128 0x40
 3750 01ac 18       		.uleb128 0x18
 3751 01ad 9742     		.uleb128 0x2117
 3752 01af 19       		.uleb128 0x19
 3753 01b0 01       		.uleb128 0x1
 3754 01b1 13       		.uleb128 0x13
 3755 01b2 00       		.byte	0
 3756 01b3 00       		.byte	0
 3757 01b4 23       		.uleb128 0x23
 3758 01b5 34       		.uleb128 0x34
 3759 01b6 00       		.byte	0
ARM GAS  /tmp/ccZqK06Y.s 			page 67


 3760 01b7 03       		.uleb128 0x3
 3761 01b8 08       		.uleb128 0x8
 3762 01b9 3A       		.uleb128 0x3a
 3763 01ba 0B       		.uleb128 0xb
 3764 01bb 3B       		.uleb128 0x3b
 3765 01bc 05       		.uleb128 0x5
 3766 01bd 49       		.uleb128 0x49
 3767 01be 13       		.uleb128 0x13
 3768 01bf 02       		.uleb128 0x2
 3769 01c0 17       		.uleb128 0x17
 3770 01c1 00       		.byte	0
 3771 01c2 00       		.byte	0
 3772 01c3 24       		.uleb128 0x24
 3773 01c4 898201   		.uleb128 0x4109
 3774 01c7 01       		.byte	0x1
 3775 01c8 11       		.uleb128 0x11
 3776 01c9 01       		.uleb128 0x1
 3777 01ca 31       		.uleb128 0x31
 3778 01cb 13       		.uleb128 0x13
 3779 01cc 01       		.uleb128 0x1
 3780 01cd 13       		.uleb128 0x13
 3781 01ce 00       		.byte	0
 3782 01cf 00       		.byte	0
 3783 01d0 25       		.uleb128 0x25
 3784 01d1 898201   		.uleb128 0x4109
 3785 01d4 01       		.byte	0x1
 3786 01d5 11       		.uleb128 0x11
 3787 01d6 01       		.uleb128 0x1
 3788 01d7 9542     		.uleb128 0x2115
 3789 01d9 19       		.uleb128 0x19
 3790 01da 31       		.uleb128 0x31
 3791 01db 13       		.uleb128 0x13
 3792 01dc 00       		.byte	0
 3793 01dd 00       		.byte	0
 3794 01de 26       		.uleb128 0x26
 3795 01df 34       		.uleb128 0x34
 3796 01e0 00       		.byte	0
 3797 01e1 03       		.uleb128 0x3
 3798 01e2 0E       		.uleb128 0xe
 3799 01e3 3A       		.uleb128 0x3a
 3800 01e4 0B       		.uleb128 0xb
 3801 01e5 3B       		.uleb128 0x3b
 3802 01e6 05       		.uleb128 0x5
 3803 01e7 49       		.uleb128 0x49
 3804 01e8 13       		.uleb128 0x13
 3805 01e9 3F       		.uleb128 0x3f
 3806 01ea 19       		.uleb128 0x19
 3807 01eb 3C       		.uleb128 0x3c
 3808 01ec 19       		.uleb128 0x19
 3809 01ed 00       		.byte	0
 3810 01ee 00       		.byte	0
 3811 01ef 27       		.uleb128 0x27
 3812 01f0 34       		.uleb128 0x34
 3813 01f1 00       		.byte	0
 3814 01f2 03       		.uleb128 0x3
 3815 01f3 08       		.uleb128 0x8
 3816 01f4 3A       		.uleb128 0x3a
ARM GAS  /tmp/ccZqK06Y.s 			page 68


 3817 01f5 0B       		.uleb128 0xb
 3818 01f6 3B       		.uleb128 0x3b
 3819 01f7 05       		.uleb128 0x5
 3820 01f8 49       		.uleb128 0x49
 3821 01f9 13       		.uleb128 0x13
 3822 01fa 3F       		.uleb128 0x3f
 3823 01fb 19       		.uleb128 0x19
 3824 01fc 3C       		.uleb128 0x3c
 3825 01fd 19       		.uleb128 0x19
 3826 01fe 00       		.byte	0
 3827 01ff 00       		.byte	0
 3828 0200 28       		.uleb128 0x28
 3829 0201 34       		.uleb128 0x34
 3830 0202 00       		.byte	0
 3831 0203 03       		.uleb128 0x3
 3832 0204 0E       		.uleb128 0xe
 3833 0205 3A       		.uleb128 0x3a
 3834 0206 0B       		.uleb128 0xb
 3835 0207 3B       		.uleb128 0x3b
 3836 0208 0B       		.uleb128 0xb
 3837 0209 49       		.uleb128 0x49
 3838 020a 13       		.uleb128 0x13
 3839 020b 3F       		.uleb128 0x3f
 3840 020c 19       		.uleb128 0x19
 3841 020d 3C       		.uleb128 0x3c
 3842 020e 19       		.uleb128 0x19
 3843 020f 00       		.byte	0
 3844 0210 00       		.byte	0
 3845 0211 29       		.uleb128 0x29
 3846 0212 2E       		.uleb128 0x2e
 3847 0213 00       		.byte	0
 3848 0214 3F       		.uleb128 0x3f
 3849 0215 19       		.uleb128 0x19
 3850 0216 03       		.uleb128 0x3
 3851 0217 0E       		.uleb128 0xe
 3852 0218 3A       		.uleb128 0x3a
 3853 0219 0B       		.uleb128 0xb
 3854 021a 3B       		.uleb128 0x3b
 3855 021b 05       		.uleb128 0x5
 3856 021c 27       		.uleb128 0x27
 3857 021d 19       		.uleb128 0x19
 3858 021e 3C       		.uleb128 0x3c
 3859 021f 19       		.uleb128 0x19
 3860 0220 00       		.byte	0
 3861 0221 00       		.byte	0
 3862 0222 2A       		.uleb128 0x2a
 3863 0223 2E       		.uleb128 0x2e
 3864 0224 01       		.byte	0x1
 3865 0225 3F       		.uleb128 0x3f
 3866 0226 19       		.uleb128 0x19
 3867 0227 03       		.uleb128 0x3
 3868 0228 0E       		.uleb128 0xe
 3869 0229 3A       		.uleb128 0x3a
 3870 022a 0B       		.uleb128 0xb
 3871 022b 3B       		.uleb128 0x3b
 3872 022c 0B       		.uleb128 0xb
 3873 022d 27       		.uleb128 0x27
ARM GAS  /tmp/ccZqK06Y.s 			page 69


 3874 022e 19       		.uleb128 0x19
 3875 022f 3C       		.uleb128 0x3c
 3876 0230 19       		.uleb128 0x19
 3877 0231 01       		.uleb128 0x1
 3878 0232 13       		.uleb128 0x13
 3879 0233 00       		.byte	0
 3880 0234 00       		.byte	0
 3881 0235 2B       		.uleb128 0x2b
 3882 0236 2E       		.uleb128 0x2e
 3883 0237 01       		.byte	0x1
 3884 0238 3F       		.uleb128 0x3f
 3885 0239 19       		.uleb128 0x19
 3886 023a 03       		.uleb128 0x3
 3887 023b 0E       		.uleb128 0xe
 3888 023c 3A       		.uleb128 0x3a
 3889 023d 0B       		.uleb128 0xb
 3890 023e 3B       		.uleb128 0x3b
 3891 023f 0B       		.uleb128 0xb
 3892 0240 27       		.uleb128 0x27
 3893 0241 19       		.uleb128 0x19
 3894 0242 3C       		.uleb128 0x3c
 3895 0243 19       		.uleb128 0x19
 3896 0244 00       		.byte	0
 3897 0245 00       		.byte	0
 3898 0246 00       		.byte	0
 3899              		.section	.debug_loc,"",%progbits
 3900              	.Ldebug_loc0:
 3901              	.LLST0:
 3902 0000 0E000000 		.4byte	.LVL0
 3903 0004 1B000000 		.4byte	.LVL1-1
 3904 0008 0100     		.2byte	0x1
 3905 000a 52       		.byte	0x52
 3906 000b 00000000 		.4byte	0
 3907 000f 00000000 		.4byte	0
 3908              	.LLST1:
 3909 0013 0E000000 		.4byte	.LVL3
 3910 0017 1B000000 		.4byte	.LVL4-1
 3911 001b 0100     		.2byte	0x1
 3912 001d 52       		.byte	0x52
 3913 001e 00000000 		.4byte	0
 3914 0022 00000000 		.4byte	0
 3915              	.LLST2:
 3916 0026 0E000000 		.4byte	.LVL6
 3917 002a 1B000000 		.4byte	.LVL7-1
 3918 002e 0100     		.2byte	0x1
 3919 0030 52       		.byte	0x52
 3920 0031 00000000 		.4byte	0
 3921 0035 00000000 		.4byte	0
 3922              	.LLST3:
 3923 0039 0E000000 		.4byte	.LVL9
 3924 003d 1B000000 		.4byte	.LVL10-1
 3925 0041 0100     		.2byte	0x1
 3926 0043 52       		.byte	0x52
 3927 0044 00000000 		.4byte	0
 3928 0048 00000000 		.4byte	0
 3929              	.LLST4:
 3930 004c 0E000000 		.4byte	.LVL12
ARM GAS  /tmp/ccZqK06Y.s 			page 70


 3931 0050 1B000000 		.4byte	.LVL13-1
 3932 0054 0100     		.2byte	0x1
 3933 0056 52       		.byte	0x52
 3934 0057 00000000 		.4byte	0
 3935 005b 00000000 		.4byte	0
 3936              	.LLST5:
 3937 005f 0E000000 		.4byte	.LVL15
 3938 0063 14000000 		.4byte	.LVL16
 3939 0067 0100     		.2byte	0x1
 3940 0069 52       		.byte	0x52
 3941 006a 14000000 		.4byte	.LVL16
 3942 006e 32000000 		.4byte	.LVL18
 3943 0072 0700     		.2byte	0x7
 3944 0074 74       		.byte	0x74
 3945 0075 00       		.sleb128 0
 3946 0076 0A       		.byte	0xa
 3947 0077 E003     		.2byte	0x3e0
 3948 0079 1A       		.byte	0x1a
 3949 007a 9F       		.byte	0x9f
 3950 007b 36000000 		.4byte	.LVL19
 3951 007f 5A000000 		.4byte	.LVL23
 3952 0083 0700     		.2byte	0x7
 3953 0085 74       		.byte	0x74
 3954 0086 00       		.sleb128 0
 3955 0087 0A       		.byte	0xa
 3956 0088 E003     		.2byte	0x3e0
 3957 008a 1A       		.byte	0x1a
 3958 008b 9F       		.byte	0x9f
 3959 008c 5A000000 		.4byte	.LVL23
 3960 0090 63000000 		.4byte	.LVL24-1
 3961 0094 0100     		.2byte	0x1
 3962 0096 52       		.byte	0x52
 3963 0097 63000000 		.4byte	.LVL24-1
 3964 009b 70000000 		.4byte	.LFE277
 3965 009f 0700     		.2byte	0x7
 3966 00a1 74       		.byte	0x74
 3967 00a2 00       		.sleb128 0
 3968 00a3 0A       		.byte	0xa
 3969 00a4 E003     		.2byte	0x3e0
 3970 00a6 1A       		.byte	0x1a
 3971 00a7 9F       		.byte	0x9f
 3972 00a8 00000000 		.4byte	0
 3973 00ac 00000000 		.4byte	0
 3974              	.LLST6:
 3975 00b0 0E000000 		.4byte	.LVL25
 3976 00b4 12000000 		.4byte	.LVL26
 3977 00b8 0100     		.2byte	0x1
 3978 00ba 52       		.byte	0x52
 3979 00bb 12000000 		.4byte	.LVL26
 3980 00bf 14000000 		.4byte	.LVL27
 3981 00c3 0200     		.2byte	0x2
 3982 00c5 73       		.byte	0x73
 3983 00c6 14       		.sleb128 20
 3984 00c7 14000000 		.4byte	.LVL27
 3985 00cb 36000000 		.4byte	.LVL29
 3986 00cf 0700     		.2byte	0x7
 3987 00d1 74       		.byte	0x74
ARM GAS  /tmp/ccZqK06Y.s 			page 71


 3988 00d2 00       		.sleb128 0
 3989 00d3 0A       		.byte	0xa
 3990 00d4 00FC     		.2byte	0xfc00
 3991 00d6 1A       		.byte	0x1a
 3992 00d7 9F       		.byte	0x9f
 3993 00d8 3A000000 		.4byte	.LVL30
 3994 00dc 6A000000 		.4byte	.LVL35
 3995 00e0 0700     		.2byte	0x7
 3996 00e2 74       		.byte	0x74
 3997 00e3 00       		.sleb128 0
 3998 00e4 0A       		.byte	0xa
 3999 00e5 00FC     		.2byte	0xfc00
 4000 00e7 1A       		.byte	0x1a
 4001 00e8 9F       		.byte	0x9f
 4002 00e9 6A000000 		.4byte	.LVL35
 4003 00ed 6E000000 		.4byte	.LVL36
 4004 00f1 0200     		.2byte	0x2
 4005 00f3 73       		.byte	0x73
 4006 00f4 14       		.sleb128 20
 4007 00f5 6E000000 		.4byte	.LVL36
 4008 00f9 73000000 		.4byte	.LVL37-1
 4009 00fd 0500     		.2byte	0x5
 4010 00ff 0C       		.byte	0xc
 4011 0100 14040140 		.4byte	0x40010414
 4012 0104 73000000 		.4byte	.LVL37-1
 4013 0108 80000000 		.4byte	.LFE278
 4014 010c 0700     		.2byte	0x7
 4015 010e 74       		.byte	0x74
 4016 010f 00       		.sleb128 0
 4017 0110 0A       		.byte	0xa
 4018 0111 00FC     		.2byte	0xfc00
 4019 0113 1A       		.byte	0x1a
 4020 0114 9F       		.byte	0x9f
 4021 0115 00000000 		.4byte	0
 4022 0119 00000000 		.4byte	0
 4023              	.LLST7:
 4024 011d 0E000000 		.4byte	.LVL38
 4025 0121 1D000000 		.4byte	.LVL39-1
 4026 0125 0100     		.2byte	0x1
 4027 0127 52       		.byte	0x52
 4028 0128 00000000 		.4byte	0
 4029 012c 00000000 		.4byte	0
 4030              	.LLST8:
 4031 0130 0E000000 		.4byte	.LVL41
 4032 0134 1D000000 		.4byte	.LVL42-1
 4033 0138 0100     		.2byte	0x1
 4034 013a 52       		.byte	0x52
 4035 013b 00000000 		.4byte	0
 4036 013f 00000000 		.4byte	0
 4037              	.LLST9:
 4038 0143 0E000000 		.4byte	.LVL44
 4039 0147 1D000000 		.4byte	.LVL45-1
 4040 014b 0100     		.2byte	0x1
 4041 014d 52       		.byte	0x52
 4042 014e 00000000 		.4byte	0
 4043 0152 00000000 		.4byte	0
 4044              	.LLST10:
ARM GAS  /tmp/ccZqK06Y.s 			page 72


 4045 0156 0E000000 		.4byte	.LVL47
 4046 015a 1D000000 		.4byte	.LVL48-1
 4047 015e 0100     		.2byte	0x1
 4048 0160 52       		.byte	0x52
 4049 0161 00000000 		.4byte	0
 4050 0165 00000000 		.4byte	0
 4051              	.LLST11:
 4052 0169 0E000000 		.4byte	.LVL50
 4053 016d 1D000000 		.4byte	.LVL51-1
 4054 0171 0100     		.2byte	0x1
 4055 0173 52       		.byte	0x52
 4056 0174 00000000 		.4byte	0
 4057 0178 00000000 		.4byte	0
 4058              	.LLST12:
 4059 017c 0E000000 		.4byte	.LVL53
 4060 0180 14000000 		.4byte	.LVL54
 4061 0184 0100     		.2byte	0x1
 4062 0186 52       		.byte	0x52
 4063 0187 14000000 		.4byte	.LVL54
 4064 018b 2C000000 		.4byte	.LVL56
 4065 018f 0900     		.2byte	0x9
 4066 0191 74       		.byte	0x74
 4067 0192 00       		.sleb128 0
 4068 0193 0C       		.byte	0xc
 4069 0194 00006020 		.4byte	0x20600000
 4070 0198 1A       		.byte	0x1a
 4071 0199 9F       		.byte	0x9f
 4072 019a 30000000 		.4byte	.LVL57
 4073 019e 3E000000 		.4byte	.LVL59
 4074 01a2 0900     		.2byte	0x9
 4075 01a4 74       		.byte	0x74
 4076 01a5 00       		.sleb128 0
 4077 01a6 0C       		.byte	0xc
 4078 01a7 00006020 		.4byte	0x20600000
 4079 01ab 1A       		.byte	0x1a
 4080 01ac 9F       		.byte	0x9f
 4081 01ad 3E000000 		.4byte	.LVL59
 4082 01b1 49000000 		.4byte	.LVL60-1
 4083 01b5 0100     		.2byte	0x1
 4084 01b7 52       		.byte	0x52
 4085 01b8 49000000 		.4byte	.LVL60-1
 4086 01bc 58000000 		.4byte	.LFE284
 4087 01c0 0900     		.2byte	0x9
 4088 01c2 74       		.byte	0x74
 4089 01c3 00       		.sleb128 0
 4090 01c4 0C       		.byte	0xc
 4091 01c5 00006020 		.4byte	0x20600000
 4092 01c9 1A       		.byte	0x1a
 4093 01ca 9F       		.byte	0x9f
 4094 01cb 00000000 		.4byte	0
 4095 01cf 00000000 		.4byte	0
 4096              	.LLST13:
 4097 01d3 0E000000 		.4byte	.LVL61
 4098 01d7 24000000 		.4byte	.LVL62
 4099 01db 0100     		.2byte	0x1
 4100 01dd 54       		.byte	0x54
 4101 01de 24000000 		.4byte	.LVL62
ARM GAS  /tmp/ccZqK06Y.s 			page 73


 4102 01e2 33000000 		.4byte	.LVL63-1
 4103 01e6 0100     		.2byte	0x1
 4104 01e8 52       		.byte	0x52
 4105 01e9 3C000000 		.4byte	.LVL64
 4106 01ed 64000000 		.4byte	.LFE285
 4107 01f1 0100     		.2byte	0x1
 4108 01f3 54       		.byte	0x54
 4109 01f4 00000000 		.4byte	0
 4110 01f8 00000000 		.4byte	0
 4111              	.LLST14:
 4112 01fc 0E000000 		.4byte	.LVL67
 4113 0200 1D000000 		.4byte	.LVL68-1
 4114 0204 0100     		.2byte	0x1
 4115 0206 52       		.byte	0x52
 4116 0207 00000000 		.4byte	0
 4117 020b 00000000 		.4byte	0
 4118              		.section	.debug_aranges,"",%progbits
 4119 0000 9C000000 		.4byte	0x9c
 4120 0004 0200     		.2byte	0x2
 4121 0006 00000000 		.4byte	.Ldebug_info0
 4122 000a 04       		.byte	0x4
 4123 000b 00       		.byte	0
 4124 000c 0000     		.2byte	0
 4125 000e 0000     		.2byte	0
 4126 0010 00000000 		.4byte	.LFB272
 4127 0014 2C000000 		.4byte	.LFE272-.LFB272
 4128 0018 00000000 		.4byte	.LFB273
 4129 001c 2C000000 		.4byte	.LFE273-.LFB273
 4130 0020 00000000 		.4byte	.LFB274
 4131 0024 2C000000 		.4byte	.LFE274-.LFB274
 4132 0028 00000000 		.4byte	.LFB275
 4133 002c 2C000000 		.4byte	.LFE275-.LFB275
 4134 0030 00000000 		.4byte	.LFB276
 4135 0034 2C000000 		.4byte	.LFE276-.LFB276
 4136 0038 00000000 		.4byte	.LFB277
 4137 003c 70000000 		.4byte	.LFE277-.LFB277
 4138 0040 00000000 		.4byte	.LFB278
 4139 0044 80000000 		.4byte	.LFE278-.LFB278
 4140 0048 00000000 		.4byte	.LFB279
 4141 004c 30000000 		.4byte	.LFE279-.LFB279
 4142 0050 00000000 		.4byte	.LFB280
 4143 0054 30000000 		.4byte	.LFE280-.LFB280
 4144 0058 00000000 		.4byte	.LFB281
 4145 005c 30000000 		.4byte	.LFE281-.LFB281
 4146 0060 00000000 		.4byte	.LFB282
 4147 0064 30000000 		.4byte	.LFE282-.LFB282
 4148 0068 00000000 		.4byte	.LFB283
 4149 006c 30000000 		.4byte	.LFE283-.LFB283
 4150 0070 00000000 		.4byte	.LFB284
 4151 0074 58000000 		.4byte	.LFE284-.LFB284
 4152 0078 00000000 		.4byte	.LFB285
 4153 007c 64000000 		.4byte	.LFE285-.LFB285
 4154 0080 00000000 		.4byte	.LFB286
 4155 0084 30000000 		.4byte	.LFE286-.LFB286
 4156 0088 00000000 		.4byte	.LFB287
 4157 008c 7E000000 		.4byte	.LFE287-.LFB287
 4158 0090 00000000 		.4byte	.LFB288
ARM GAS  /tmp/ccZqK06Y.s 			page 74


 4159 0094 60000000 		.4byte	.LFE288-.LFB288
 4160 0098 00000000 		.4byte	0
 4161 009c 00000000 		.4byte	0
 4162              		.section	.debug_ranges,"",%progbits
 4163              	.Ldebug_ranges0:
 4164 0000 00000000 		.4byte	.LFB272
 4165 0004 2C000000 		.4byte	.LFE272
 4166 0008 00000000 		.4byte	.LFB273
 4167 000c 2C000000 		.4byte	.LFE273
 4168 0010 00000000 		.4byte	.LFB274
 4169 0014 2C000000 		.4byte	.LFE274
 4170 0018 00000000 		.4byte	.LFB275
 4171 001c 2C000000 		.4byte	.LFE275
 4172 0020 00000000 		.4byte	.LFB276
 4173 0024 2C000000 		.4byte	.LFE276
 4174 0028 00000000 		.4byte	.LFB277
 4175 002c 70000000 		.4byte	.LFE277
 4176 0030 00000000 		.4byte	.LFB278
 4177 0034 80000000 		.4byte	.LFE278
 4178 0038 00000000 		.4byte	.LFB279
 4179 003c 30000000 		.4byte	.LFE279
 4180 0040 00000000 		.4byte	.LFB280
 4181 0044 30000000 		.4byte	.LFE280
 4182 0048 00000000 		.4byte	.LFB281
 4183 004c 30000000 		.4byte	.LFE281
 4184 0050 00000000 		.4byte	.LFB282
 4185 0054 30000000 		.4byte	.LFE282
 4186 0058 00000000 		.4byte	.LFB283
 4187 005c 30000000 		.4byte	.LFE283
 4188 0060 00000000 		.4byte	.LFB284
 4189 0064 58000000 		.4byte	.LFE284
 4190 0068 00000000 		.4byte	.LFB285
 4191 006c 64000000 		.4byte	.LFE285
 4192 0070 00000000 		.4byte	.LFB286
 4193 0074 30000000 		.4byte	.LFE286
 4194 0078 00000000 		.4byte	.LFB287
 4195 007c 7E000000 		.4byte	.LFE287
 4196 0080 00000000 		.4byte	.LFB288
 4197 0084 60000000 		.4byte	.LFE288
 4198 0088 00000000 		.4byte	0
 4199 008c 00000000 		.4byte	0
 4200              		.section	.debug_line,"",%progbits
 4201              	.Ldebug_line0:
 4202 0000 B8040000 		.section	.debug_str,"MS",%progbits,1
 4202      0200FD02 
 4202      00000201 
 4202      FB0E0D00 
 4202      01010101 
 4203              	.LASF44:
 4204 0000 74687265 		.ascii	"threads_list_t\000"
 4204      6164735F 
 4204      6C697374 
 4204      5F7400
 4205              	.LASF49:
 4206 000f 72656164 		.ascii	"ready_list_t\000"
 4206      795F6C69 
 4206      73745F74 
ARM GAS  /tmp/ccZqK06Y.s 			page 75


 4206      00
 4207              	.LASF205:
 4208 001c 56656374 		.ascii	"Vector9C\000"
 4208      6F723943 
 4208      00
 4209              	.LASF172:
 4210 0025 77747472 		.ascii	"wttrp\000"
 4210      7000
 4211              	.LASF169:
 4212 002b 7264796D 		.ascii	"rdymsg\000"
 4212      736700
 4213              	.LASF16:
 4214 0032 75696E74 		.ascii	"uint64_t\000"
 4214      36345F74 
 4214      00
 4215              	.LASF116:
 4216 003b 49324331 		.ascii	"I2C1_EV_IRQn\000"
 4216      5F45565F 
 4216      4952516E 
 4216      00
 4217              	.LASF5:
 4218 0048 5F5F7569 		.ascii	"__uint8_t\000"
 4218      6E74385F 
 4218      7400
 4219              	.LASF194:
 4220 0052 65787063 		.ascii	"expchannel_t\000"
 4220      68616E6E 
 4220      656C5F74 
 4220      00
 4221              	.LASF126:
 4222 005f 5254435F 		.ascii	"RTC_Alarm_IRQn\000"
 4222      416C6172 
 4222      6D5F4952 
 4222      516E00
 4223              	.LASF166:
 4224 006e 706F7274 		.ascii	"port_intctx\000"
 4224      5F696E74 
 4224      63747800 
 4225              	.LASF68:
 4226 007a 73797374 		.ascii	"system_debug_t\000"
 4226      656D5F64 
 4226      65627567 
 4226      5F7400
 4227              	.LASF146:
 4228 0089 434F4D50 		.ascii	"COMP7_IRQn\000"
 4228      375F4952 
 4228      516E00
 4229              	.LASF160:
 4230 0094 46545352 		.ascii	"FTSR2\000"
 4230      3200
 4231              	.LASF154:
 4232 009a 53574945 		.ascii	"SWIER\000"
 4232      5200
 4233              	.LASF110:
 4234 00a0 54494D31 		.ascii	"TIM1_UP_TIM16_IRQn\000"
 4234      5F55505F 
 4234      54494D31 
ARM GAS  /tmp/ccZqK06Y.s 			page 76


 4234      365F4952 
 4234      516E00
 4235              	.LASF12:
 4236 00b3 6C6F6E67 		.ascii	"long long unsigned int\000"
 4236      206C6F6E 
 4236      6720756E 
 4236      7369676E 
 4236      65642069 
 4237              	.LASF138:
 4238 00ca 444D4132 		.ascii	"DMA2_Channel1_IRQn\000"
 4238      5F436861 
 4238      6E6E656C 
 4238      315F4952 
 4238      516E00
 4239              	.LASF163:
 4240 00dd 72656761 		.ascii	"regarm_t\000"
 4240      726D5F74 
 4240      00
 4241              	.LASF170:
 4242 00e6 65786974 		.ascii	"exitcode\000"
 4242      636F6465 
 4242      00
 4243              	.LASF75:
 4244 00ef 6D61696E 		.ascii	"mainthread\000"
 4244      74687265 
 4244      616400
 4245              	.LASF119:
 4246 00fa 49324332 		.ascii	"I2C2_ER_IRQn\000"
 4246      5F45525F 
 4246      4952516E 
 4246      00
 4247              	.LASF204:
 4248 0107 56656374 		.ascii	"Vector68\000"
 4248      6F723638 
 4248      00
 4249              	.LASF115:
 4250 0110 54494D34 		.ascii	"TIM4_IRQn\000"
 4250      5F495251 
 4250      6E00
 4251              	.LASF88:
 4252 011a 5254435F 		.ascii	"RTC_WKUP_IRQn\000"
 4252      574B5550 
 4252      5F495251 
 4252      6E00
 4253              	.LASF161:
 4254 0128 53574945 		.ascii	"SWIER2\000"
 4254      523200
 4255              	.LASF48:
 4256 012f 63685F74 		.ascii	"ch_threads_queue\000"
 4256      68726561 
 4256      64735F71 
 4256      75657565 
 4256      00
 4257              	.LASF29:
 4258 0140 705F7072 		.ascii	"p_prio\000"
 4258      696F00
 4259              	.LASF223:
ARM GAS  /tmp/ccZqK06Y.s 			page 77


 4260 0147 6E766963 		.ascii	"nvicEnableVector\000"
 4260      456E6162 
 4260      6C655665 
 4260      63746F72 
 4260      00
 4261              	.LASF131:
 4262 0158 54494D38 		.ascii	"TIM8_CC_IRQn\000"
 4262      5F43435F 
 4262      4952516E 
 4262      00
 4263              	.LASF10:
 4264 0165 6C6F6E67 		.ascii	"long long int\000"
 4264      206C6F6E 
 4264      6720696E 
 4264      7400
 4265              	.LASF1:
 4266 0173 7369676E 		.ascii	"signed char\000"
 4266      65642063 
 4266      68617200 
 4267              	.LASF86:
 4268 017f 5056445F 		.ascii	"PVD_IRQn\000"
 4268      4952516E 
 4268      00
 4269              	.LASF42:
 4270 0188 705F6D70 		.ascii	"p_mpool\000"
 4270      6F6F6C00 
 4271              	.LASF181:
 4272 0190 6D5F7175 		.ascii	"m_queue\000"
 4272      65756500 
 4273              	.LASF74:
 4274 0198 76746C69 		.ascii	"vtlist\000"
 4274      737400
 4275              	.LASF142:
 4276 019f 444D4132 		.ascii	"DMA2_Channel5_IRQn\000"
 4276      5F436861 
 4276      6E6E656C 
 4276      355F4952 
 4276      516E00
 4277              	.LASF192:
 4278 01b2 73746174 		.ascii	"state\000"
 4278      6500
 4279              	.LASF198:
 4280 01b8 6368616E 		.ascii	"channels\000"
 4280      6E656C73 
 4280      00
 4281              	.LASF7:
 4282 01c1 6C6F6E67 		.ascii	"long int\000"
 4282      20696E74 
 4282      00
 4283              	.LASF212:
 4284 01ca 56656374 		.ascii	"Vector140\000"
 4284      6F723134 
 4284      3000
 4285              	.LASF118:
 4286 01d4 49324332 		.ascii	"I2C2_EV_IRQn\000"
 4286      5F45565F 
 4286      4952516E 
ARM GAS  /tmp/ccZqK06Y.s 			page 78


 4286      00
 4287              	.LASF213:
 4288 01e1 56656374 		.ascii	"Vector144\000"
 4288      6F723134 
 4288      3400
 4289              	.LASF19:
 4290 01eb 74737461 		.ascii	"tstate_t\000"
 4290      74655F74 
 4290      00
 4291              	.LASF214:
 4292 01f4 56656374 		.ascii	"Vector148\000"
 4292      6F723134 
 4292      3800
 4293              	.LASF108:
 4294 01fe 45585449 		.ascii	"EXTI9_5_IRQn\000"
 4294      395F355F 
 4294      4952516E 
 4294      00
 4295              	.LASF132:
 4296 020b 41444333 		.ascii	"ADC3_IRQn\000"
 4296      5F495251 
 4296      6E00
 4297              	.LASF103:
 4298 0215 41444331 		.ascii	"ADC1_2_IRQn\000"
 4298      5F325F49 
 4298      52516E00 
 4299              	.LASF31:
 4300 0221 705F6E65 		.ascii	"p_newer\000"
 4300      77657200 
 4301              	.LASF136:
 4302 0229 54494D36 		.ascii	"TIM6_DAC_IRQn\000"
 4302      5F444143 
 4302      5F495251 
 4302      6E00
 4303              	.LASF178:
 4304 0237 735F7175 		.ascii	"s_queue\000"
 4304      65756500 
 4305              	.LASF134:
 4306 023f 55415254 		.ascii	"UART4_IRQn\000"
 4306      345F4952 
 4306      516E00
 4307              	.LASF197:
 4308 024a 45585443 		.ascii	"EXTChannelConfig\000"
 4308      68616E6E 
 4308      656C436F 
 4308      6E666967 
 4308      00
 4309              	.LASF83:
 4310 025b 50656E64 		.ascii	"PendSV_IRQn\000"
 4310      53565F49 
 4310      52516E00 
 4311              	.LASF41:
 4312 0267 705F7265 		.ascii	"p_realprio\000"
 4312      616C7072 
 4312      696F00
 4313              	.LASF99:
 4314 0272 444D4131 		.ascii	"DMA1_Channel4_IRQn\000"
ARM GAS  /tmp/ccZqK06Y.s 			page 79


 4314      5F436861 
 4314      6E6E656C 
 4314      345F4952 
 4314      516E00
 4315              	.LASF54:
 4316 0285 725F6E65 		.ascii	"r_newer\000"
 4316      77657200 
 4317              	.LASF79:
 4318 028d 42757346 		.ascii	"BusFault_IRQn\000"
 4318      61756C74 
 4318      5F495251 
 4318      6E00
 4319              	.LASF61:
 4320 029b 76745F70 		.ascii	"vt_prev\000"
 4320      72657600 
 4321              	.LASF185:
 4322 02a3 6D757465 		.ascii	"mutex_t\000"
 4322      785F7400 
 4323              	.LASF76:
 4324 02ab 69646C65 		.ascii	"idle_thread_wa\000"
 4324      5F746872 
 4324      6561645F 
 4324      776100
 4325              	.LASF216:
 4326 02ba 6578745F 		.ascii	"ext_lld_exti_irq_disable\000"
 4326      6C6C645F 
 4326      65787469 
 4326      5F697271 
 4326      5F646973 
 4327              	.LASF0:
 4328 02d3 756E7369 		.ascii	"unsigned int\000"
 4328      676E6564 
 4328      20696E74 
 4328      00
 4329              	.LASF60:
 4330 02e0 76745F6E 		.ascii	"vt_next\000"
 4330      65787400 
 4331              	.LASF224:
 4332 02e8 6E766963 		.ascii	"nvicDisableVector\000"
 4332      44697361 
 4332      626C6556 
 4332      6563746F 
 4332      7200
 4333              	.LASF143:
 4334 02fa 41444334 		.ascii	"ADC4_IRQn\000"
 4334      5F495251 
 4334      6E00
 4335              	.LASF174:
 4336 0304 77747365 		.ascii	"wtsemp\000"
 4336      6D7000
 4337              	.LASF78:
 4338 030b 4D656D6F 		.ascii	"MemoryManagement_IRQn\000"
 4338      72794D61 
 4338      6E616765 
 4338      6D656E74 
 4338      5F495251 
 4339              	.LASF62:
ARM GAS  /tmp/ccZqK06Y.s 			page 80


 4340 0321 76745F64 		.ascii	"vt_delta\000"
 4340      656C7461 
 4340      00
 4341              	.LASF210:
 4342 032a 56656374 		.ascii	"Vector48\000"
 4342      6F723438 
 4342      00
 4343              	.LASF38:
 4344 0333 705F6D73 		.ascii	"p_msgqueue\000"
 4344      67717565 
 4344      756500
 4345              	.LASF221:
 4346 033e 2F752F63 		.ascii	"/u/cojthack/summerResearch2016/milestone2\000"
 4346      6F6A7468 
 4346      61636B2F 
 4346      73756D6D 
 4346      65725265 
 4347              	.LASF211:
 4348 0368 56656374 		.ascii	"Vector4C\000"
 4348      6F723443 
 4348      00
 4349              	.LASF179:
 4350 0371 735F636E 		.ascii	"s_cnt\000"
 4350      7400
 4351              	.LASF165:
 4352 0377 636F6E74 		.ascii	"context\000"
 4352      65787400 
 4353              	.LASF100:
 4354 037f 444D4131 		.ascii	"DMA1_Channel5_IRQn\000"
 4354      5F436861 
 4354      6E6E656C 
 4354      355F4952 
 4354      516E00
 4355              	.LASF4:
 4356 0392 73686F72 		.ascii	"short unsigned int\000"
 4356      7420756E 
 4356      7369676E 
 4356      65642069 
 4356      6E7400
 4357              	.LASF215:
 4358 03a5 6578745F 		.ascii	"ext_lld_exti_irq_enable\000"
 4358      6C6C645F 
 4358      65787469 
 4358      5F697271 
 4358      5F656E61 
 4359              	.LASF45:
 4360 03bd 63685F74 		.ascii	"ch_thread\000"
 4360      68726561 
 4360      6400
 4361              	.LASF199:
 4362 03c7 45585443 		.ascii	"EXTConfig\000"
 4362      6F6E6669 
 4362      6700
 4363              	.LASF22:
 4364 03d1 6D73675F 		.ascii	"msg_t\000"
 4364      7400
 4365              	.LASF129:
ARM GAS  /tmp/ccZqK06Y.s 			page 81


 4366 03d7 54494D38 		.ascii	"TIM8_UP_IRQn\000"
 4366      5F55505F 
 4366      4952516E 
 4366      00
 4367              	.LASF125:
 4368 03e4 45585449 		.ascii	"EXTI15_10_IRQn\000"
 4368      31355F31 
 4368      305F4952 
 4368      516E00
 4369              	.LASF107:
 4370 03f3 43414E5F 		.ascii	"CAN_SCE_IRQn\000"
 4370      5343455F 
 4370      4952516E 
 4370      00
 4371              	.LASF120:
 4372 0400 53504931 		.ascii	"SPI1_IRQn\000"
 4372      5F495251 
 4372      6E00
 4373              	.LASF18:
 4374 040a 746D6F64 		.ascii	"tmode_t\000"
 4374      655F7400 
 4375              	.LASF159:
 4376 0412 52545352 		.ascii	"RTSR2\000"
 4376      3200
 4377              	.LASF111:
 4378 0418 54494D31 		.ascii	"TIM1_TRG_COM_TIM17_IRQn\000"
 4378      5F545247 
 4378      5F434F4D 
 4378      5F54494D 
 4378      31375F49 
 4379              	.LASF50:
 4380 0430 63685F72 		.ascii	"ch_ready_list\000"
 4380      65616479 
 4380      5F6C6973 
 4380      7400
 4381              	.LASF23:
 4382 043e 6576656E 		.ascii	"eventmask_t\000"
 4382      746D6173 
 4382      6B5F7400 
 4383              	.LASF6:
 4384 044a 5F5F696E 		.ascii	"__int32_t\000"
 4384      7433325F 
 4384      7400
 4385              	.LASF147:
 4386 0454 5553425F 		.ascii	"USB_HP_IRQn\000"
 4386      48505F49 
 4386      52516E00 
 4387              	.LASF65:
 4388 0460 76697274 		.ascii	"virtual_timers_list_t\000"
 4388      75616C5F 
 4388      74696D65 
 4388      72735F6C 
 4388      6973745F 
 4389              	.LASF84:
 4390 0476 53797354 		.ascii	"SysTick_IRQn\000"
 4390      69636B5F 
 4390      4952516E 
ARM GAS  /tmp/ccZqK06Y.s 			page 82


 4390      00
 4391              	.LASF112:
 4392 0483 54494D31 		.ascii	"TIM1_CC_IRQn\000"
 4392      5F43435F 
 4392      4952516E 
 4392      00
 4393              	.LASF164:
 4394 0490 73746B61 		.ascii	"stkalign_t\000"
 4394      6C69676E 
 4394      5F7400
 4395              	.LASF145:
 4396 049b 434F4D50 		.ascii	"COMP4_5_6_IRQn\000"
 4396      345F355F 
 4396      365F4952 
 4396      516E00
 4397              	.LASF189:
 4398 04aa 4558545F 		.ascii	"EXT_ACTIVE\000"
 4398      41435449 
 4398      564500
 4399              	.LASF200:
 4400 04b5 56656374 		.ascii	"Vector58\000"
 4400      6F723538 
 4400      00
 4401              	.LASF157:
 4402 04be 494D5232 		.ascii	"IMR2\000"
 4402      00
 4403              	.LASF37:
 4404 04c3 705F7761 		.ascii	"p_waiting\000"
 4404      6974696E 
 4404      6700
 4405              	.LASF128:
 4406 04cd 54494D38 		.ascii	"TIM8_BRK_IRQn\000"
 4406      5F42524B 
 4406      5F495251 
 4406      6E00
 4407              	.LASF201:
 4408 04db 56656374 		.ascii	"Vector5C\000"
 4408      6F723543 
 4408      00
 4409              	.LASF151:
 4410 04e4 73697A65 		.ascii	"sizetype\000"
 4410      74797065 
 4410      00
 4411              	.LASF43:
 4412 04ed 74687265 		.ascii	"thread_reference_t\000"
 4412      61645F72 
 4412      65666572 
 4412      656E6365 
 4412      5F7400
 4413              	.LASF190:
 4414 0500 65787473 		.ascii	"extstate_t\000"
 4414      74617465 
 4414      5F7400
 4415              	.LASF66:
 4416 050b 63685F76 		.ascii	"ch_virtual_timers_list\000"
 4416      69727475 
 4416      616C5F74 
ARM GAS  /tmp/ccZqK06Y.s 			page 83


 4416      696D6572 
 4416      735F6C69 
 4417              	.LASF81:
 4418 0522 53564361 		.ascii	"SVCall_IRQn\000"
 4418      6C6C5F49 
 4418      52516E00 
 4419              	.LASF139:
 4420 052e 444D4132 		.ascii	"DMA2_Channel2_IRQn\000"
 4420      5F436861 
 4420      6E6E656C 
 4420      325F4952 
 4420      516E00
 4421              	.LASF51:
 4422 0541 725F7175 		.ascii	"r_queue\000"
 4422      65756500 
 4423              	.LASF24:
 4424 0549 636E745F 		.ascii	"cnt_t\000"
 4424      7400
 4425              	.LASF67:
 4426 054f 76745F6C 		.ascii	"vt_lasttime\000"
 4426      61737474 
 4426      696D6500 
 4427              	.LASF94:
 4428 055b 45585449 		.ascii	"EXTI3_IRQn\000"
 4428      335F4952 
 4428      516E00
 4429              	.LASF121:
 4430 0566 53504932 		.ascii	"SPI2_IRQn\000"
 4430      5F495251 
 4430      6E00
 4431              	.LASF53:
 4432 0570 725F6374 		.ascii	"r_ctx\000"
 4432      7800
 4433              	.LASF168:
 4434 0576 746D5F63 		.ascii	"tm_calibration_t\000"
 4434      616C6962 
 4434      72617469 
 4434      6F6E5F74 
 4434      00
 4435              	.LASF140:
 4436 0587 444D4132 		.ascii	"DMA2_Channel3_IRQn\000"
 4436      5F436861 
 4436      6E6E656C 
 4436      335F4952 
 4436      516E00
 4437              	.LASF207:
 4438 059a 56656374 		.ascii	"Vector44\000"
 4438      6F723434 
 4438      00
 4439              	.LASF56:
 4440 05a3 725F6375 		.ascii	"r_current\000"
 4440      7272656E 
 4440      7400
 4441              	.LASF55:
 4442 05ad 725F6F6C 		.ascii	"r_older\000"
 4442      64657200 
 4443              	.LASF106:
ARM GAS  /tmp/ccZqK06Y.s 			page 84


 4444 05b5 43414E5F 		.ascii	"CAN_RX1_IRQn\000"
 4444      5258315F 
 4444      4952516E 
 4444      00
 4445              	.LASF87:
 4446 05c2 54414D50 		.ascii	"TAMP_STAMP_IRQn\000"
 4446      5F535441 
 4446      4D505F49 
 4446      52516E00 
 4447              	.LASF209:
 4448 05d2 56656374 		.ascii	"VectorE8\000"
 4448      6F724538 
 4448      00
 4449              	.LASF11:
 4450 05db 5F5F7569 		.ascii	"__uint64_t\000"
 4450      6E743634 
 4450      5F7400
 4451              	.LASF152:
 4452 05e6 52545352 		.ascii	"RTSR\000"
 4452      00
 4453              	.LASF202:
 4454 05eb 56656374 		.ascii	"Vector60\000"
 4454      6F723630 
 4454      00
 4455              	.LASF96:
 4456 05f4 444D4131 		.ascii	"DMA1_Channel1_IRQn\000"
 4456      5F436861 
 4456      6E6E656C 
 4456      315F4952 
 4456      516E00
 4457              	.LASF203:
 4458 0607 56656374 		.ascii	"Vector64\000"
 4458      6F723634 
 4458      00
 4459              	.LASF104:
 4460 0610 5553425F 		.ascii	"USB_HP_CAN_TX_IRQn\000"
 4460      48505F43 
 4460      414E5F54 
 4460      585F4952 
 4460      516E00
 4461              	.LASF20:
 4462 0623 74726566 		.ascii	"trefs_t\000"
 4462      735F7400 
 4463              	.LASF155:
 4464 062b 52455345 		.ascii	"RESERVED1\000"
 4464      52564544 
 4464      3100
 4465              	.LASF156:
 4466 0635 52455345 		.ascii	"RESERVED2\000"
 4466      52564544 
 4466      3200
 4467              	.LASF58:
 4468 063f 76697274 		.ascii	"virtual_timer_t\000"
 4468      75616C5F 
 4468      74696D65 
 4468      725F7400 
 4469              	.LASF28:
ARM GAS  /tmp/ccZqK06Y.s 			page 85


 4470 064f 705F7072 		.ascii	"p_prev\000"
 4470      657600
 4471              	.LASF21:
 4472 0656 74707269 		.ascii	"tprio_t\000"
 4472      6F5F7400 
 4473              	.LASF69:
 4474 065e 63685F73 		.ascii	"ch_system_debug\000"
 4474      79737465 
 4474      6D5F6465 
 4474      62756700 
 4475              	.LASF186:
 4476 066e 5F426F6F 		.ascii	"_Bool\000"
 4476      6C00
 4477              	.LASF14:
 4478 0674 696E7433 		.ascii	"int32_t\000"
 4478      325F7400 
 4479              	.LASF2:
 4480 067c 756E7369 		.ascii	"unsigned char\000"
 4480      676E6564 
 4480      20636861 
 4480      7200
 4481              	.LASF187:
 4482 068a 4558545F 		.ascii	"EXT_UNINIT\000"
 4482      554E494E 
 4482      495400
 4483              	.LASF130:
 4484 0695 54494D38 		.ascii	"TIM8_TRG_COM_IRQn\000"
 4484      5F545247 
 4484      5F434F4D 
 4484      5F495251 
 4484      6E00
 4485              	.LASF217:
 4486 06a7 49544D5F 		.ascii	"ITM_RxBuffer\000"
 4486      52784275 
 4486      66666572 
 4486      00
 4487              	.LASF153:
 4488 06b4 46545352 		.ascii	"FTSR\000"
 4488      00
 4489              	.LASF95:
 4490 06b9 45585449 		.ascii	"EXTI4_IRQn\000"
 4490      345F4952 
 4490      516E00
 4491              	.LASF40:
 4492 06c4 705F6D74 		.ascii	"p_mtxlist\000"
 4492      786C6973 
 4492      7400
 4493              	.LASF3:
 4494 06ce 73686F72 		.ascii	"short int\000"
 4494      7420696E 
 4494      7400
 4495              	.LASF34:
 4496 06d8 705F7374 		.ascii	"p_state\000"
 4496      61746500 
 4497              	.LASF32:
 4498 06e0 705F6F6C 		.ascii	"p_older\000"
 4498      64657200 
ARM GAS  /tmp/ccZqK06Y.s 			page 86


 4499              	.LASF52:
 4500 06e8 725F7072 		.ascii	"r_prio\000"
 4500      696F00
 4501              	.LASF135:
 4502 06ef 55415254 		.ascii	"UART5_IRQn\000"
 4502      355F4952 
 4502      516E00
 4503              	.LASF98:
 4504 06fa 444D4131 		.ascii	"DMA1_Channel3_IRQn\000"
 4504      5F436861 
 4504      6E6E656C 
 4504      335F4952 
 4504      516E00
 4505              	.LASF176:
 4506 070d 65776D61 		.ascii	"ewmask\000"
 4506      736B00
 4507              	.LASF27:
 4508 0714 705F6E65 		.ascii	"p_next\000"
 4508      787400
 4509              	.LASF35:
 4510 071b 705F666C 		.ascii	"p_flags\000"
 4510      61677300 
 4511              	.LASF144:
 4512 0723 434F4D50 		.ascii	"COMP1_2_3_IRQn\000"
 4512      315F325F 
 4512      335F4952 
 4512      516E00
 4513              	.LASF105:
 4514 0732 5553425F 		.ascii	"USB_LP_CAN_RX0_IRQn\000"
 4514      4C505F43 
 4514      414E5F52 
 4514      58305F49 
 4514      52516E00 
 4515              	.LASF72:
 4516 0746 63685F73 		.ascii	"ch_system\000"
 4516      79737465 
 4516      6D00
 4517              	.LASF59:
 4518 0750 63685F76 		.ascii	"ch_virtual_timer\000"
 4518      69727475 
 4518      616C5F74 
 4518      696D6572 
 4518      00
 4519              	.LASF177:
 4520 0761 63685F73 		.ascii	"ch_semaphore\000"
 4520      656D6170 
 4520      686F7265 
 4520      00
 4521              	.LASF89:
 4522 076e 464C4153 		.ascii	"FLASH_IRQn\000"
 4522      485F4952 
 4522      516E00
 4523              	.LASF195:
 4524 0779 65787463 		.ascii	"extcallback_t\000"
 4524      616C6C62 
 4524      61636B5F 
 4524      7400
ARM GAS  /tmp/ccZqK06Y.s 			page 87


 4525              	.LASF39:
 4526 0787 705F6570 		.ascii	"p_epending\000"
 4526      656E6469 
 4526      6E6700
 4527              	.LASF15:
 4528 0792 75696E74 		.ascii	"uint32_t\000"
 4528      33325F74 
 4528      00
 4529              	.LASF175:
 4530 079b 77746D74 		.ascii	"wtmtxp\000"
 4530      787000
 4531              	.LASF123:
 4532 07a2 55534152 		.ascii	"USART2_IRQn\000"
 4532      54325F49 
 4532      52516E00 
 4533              	.LASF80:
 4534 07ae 55736167 		.ascii	"UsageFault_IRQn\000"
 4534      65466175 
 4534      6C745F49 
 4534      52516E00 
 4535              	.LASF46:
 4536 07be 63685F74 		.ascii	"ch_threads_list\000"
 4536      68726561 
 4536      64735F6C 
 4536      69737400 
 4537              	.LASF149:
 4538 07ce 55534257 		.ascii	"USBWakeUp_RMP_IRQn\000"
 4538      616B6555 
 4538      705F524D 
 4538      505F4952 
 4538      516E00
 4539              	.LASF9:
 4540 07e1 6C6F6E67 		.ascii	"long unsigned int\000"
 4540      20756E73 
 4540      69676E65 
 4540      6420696E 
 4540      7400
 4541              	.LASF188:
 4542 07f3 4558545F 		.ascii	"EXT_STOP\000"
 4542      53544F50 
 4542      00
 4543              	.LASF184:
 4544 07fc 63686172 		.ascii	"char\000"
 4544      00
 4545              	.LASF141:
 4546 0801 444D4132 		.ascii	"DMA2_Channel4_IRQn\000"
 4546      5F436861 
 4546      6E6E656C 
 4546      345F4952 
 4546      516E00
 4547              	.LASF196:
 4548 0814 6D6F6465 		.ascii	"mode\000"
 4548      00
 4549              	.LASF193:
 4550 0819 636F6E66 		.ascii	"config\000"
 4550      696700
 4551              	.LASF137:
ARM GAS  /tmp/ccZqK06Y.s 			page 88


 4552 0820 54494D37 		.ascii	"TIM7_IRQn\000"
 4552      5F495251 
 4552      6E00
 4553              	.LASF220:
 4554 082a 2E2E2F43 		.ascii	"../ChibiOS/os/hal/ports/STM32/STM32F3xx/ext_lld_isr"
 4554      68696269 
 4554      4F532F6F 
 4554      732F6861 
 4554      6C2F706F 
 4555 085d 2E6300   		.ascii	".c\000"
 4556              	.LASF26:
 4557 0860 74687265 		.ascii	"thread_t\000"
 4557      61645F74 
 4557      00
 4558              	.LASF219:
 4559 0869 474E5520 		.ascii	"GNU C 4.8.4 20140526 (release) [ARM/embedded-4_8-br"
 4559      4320342E 
 4559      382E3420 
 4559      32303134 
 4559      30353236 
 4560 089c 616E6368 		.ascii	"anch revision 211358] -mcpu=cortex-m4 -mno-thumb-in"
 4560      20726576 
 4560      6973696F 
 4560      6E203231 
 4560      31333538 
 4561 08cf 74657277 		.ascii	"terwork -mthumb -ggdb -O2 -fomit-frame-pointer -fal"
 4561      6F726B20 
 4561      2D6D7468 
 4561      756D6220 
 4561      2D676764 
 4562 0902 69676E2D 		.ascii	"ign-functions=16 -ffunction-sections -fdata-section"
 4562      66756E63 
 4562      74696F6E 
 4562      733D3136 
 4562      202D6666 
 4563 0935 73202D66 		.ascii	"s -fno-common\000"
 4563      6E6F2D63 
 4563      6F6D6D6F 
 4563      6E00
 4564              	.LASF183:
 4565 0943 6D5F6E65 		.ascii	"m_next\000"
 4565      787400
 4566              	.LASF25:
 4567 094a 73797374 		.ascii	"systime_t\000"
 4567      696D655F 
 4567      7400
 4568              	.LASF77:
 4569 0954 4E6F6E4D 		.ascii	"NonMaskableInt_IRQn\000"
 4569      61736B61 
 4569      626C6549 
 4569      6E745F49 
 4569      52516E00 
 4570              	.LASF57:
 4571 0968 76746675 		.ascii	"vtfunc_t\000"
 4571      6E635F74 
 4571      00
 4572              	.LASF8:
ARM GAS  /tmp/ccZqK06Y.s 			page 89


 4573 0971 5F5F7569 		.ascii	"__uint32_t\000"
 4573      6E743332 
 4573      5F7400
 4574              	.LASF70:
 4575 097c 70616E69 		.ascii	"panic_msg\000"
 4575      635F6D73 
 4575      6700
 4576              	.LASF85:
 4577 0986 57574447 		.ascii	"WWDG_IRQn\000"
 4577      5F495251 
 4577      6E00
 4578              	.LASF101:
 4579 0990 444D4131 		.ascii	"DMA1_Channel6_IRQn\000"
 4579      5F436861 
 4579      6E6E656C 
 4579      365F4952 
 4579      516E00
 4580              	.LASF167:
 4581 09a3 6F666673 		.ascii	"offset\000"
 4581      657400
 4582              	.LASF97:
 4583 09aa 444D4131 		.ascii	"DMA1_Channel2_IRQn\000"
 4583      5F436861 
 4583      6E6E656C 
 4583      325F4952 
 4583      516E00
 4584              	.LASF180:
 4585 09bd 63685F6D 		.ascii	"ch_mutex\000"
 4585      75746578 
 4585      00
 4586              	.LASF148:
 4587 09c6 5553425F 		.ascii	"USB_LP_IRQn\000"
 4587      4C505F49 
 4587      52516E00 
 4588              	.LASF117:
 4589 09d2 49324331 		.ascii	"I2C1_ER_IRQn\000"
 4589      5F45525F 
 4589      4952516E 
 4589      00
 4590              	.LASF71:
 4591 09df 63685F73 		.ascii	"ch_system_t\000"
 4591      79737465 
 4591      6D5F7400 
 4592              	.LASF127:
 4593 09eb 55534257 		.ascii	"USBWakeUp_IRQn\000"
 4593      616B6555 
 4593      705F4952 
 4593      516E00
 4594              	.LASF17:
 4595 09fa 7274636E 		.ascii	"rtcnt_t\000"
 4595      745F7400 
 4596              	.LASF158:
 4597 0a02 454D5232 		.ascii	"EMR2\000"
 4597      00
 4598              	.LASF64:
 4599 0a07 76745F70 		.ascii	"vt_par\000"
 4599      617200
ARM GAS  /tmp/ccZqK06Y.s 			page 90


 4600              	.LASF124:
 4601 0a0e 55534152 		.ascii	"USART3_IRQn\000"
 4601      54335F49 
 4601      52516E00 
 4602              	.LASF191:
 4603 0a1a 45585444 		.ascii	"EXTDriver\000"
 4603      72697665 
 4603      7200
 4604              	.LASF113:
 4605 0a24 54494D32 		.ascii	"TIM2_IRQn\000"
 4605      5F495251 
 4605      6E00
 4606              	.LASF47:
 4607 0a2e 74687265 		.ascii	"threads_queue_t\000"
 4607      6164735F 
 4607      71756575 
 4607      655F7400 
 4608              	.LASF91:
 4609 0a3e 45585449 		.ascii	"EXTI0_IRQn\000"
 4609      305F4952 
 4609      516E00
 4610              	.LASF36:
 4611 0a49 705F7265 		.ascii	"p_refs\000"
 4611      667300
 4612              	.LASF122:
 4613 0a50 55534152 		.ascii	"USART1_IRQn\000"
 4613      54315F49 
 4613      52516E00 
 4614              	.LASF222:
 4615 0a5c 5F706F72 		.ascii	"_port_irq_epilogue\000"
 4615      745F6972 
 4615      715F6570 
 4615      696C6F67 
 4615      756500
 4616              	.LASF73:
 4617 0a6f 726C6973 		.ascii	"rlist\000"
 4617      7400
 4618              	.LASF206:
 4619 0a75 56656374 		.ascii	"VectorE0\000"
 4619      6F724530 
 4619      00
 4620              	.LASF13:
 4621 0a7e 75696E74 		.ascii	"uint8_t\000"
 4621      385F7400 
 4622              	.LASF90:
 4623 0a86 5243435F 		.ascii	"RCC_IRQn\000"
 4623      4952516E 
 4623      00
 4624              	.LASF109:
 4625 0a8f 54494D31 		.ascii	"TIM1_BRK_TIM15_IRQn\000"
 4625      5F42524B 
 4625      5F54494D 
 4625      31355F49 
 4625      52516E00 
 4626              	.LASF171:
 4627 0aa3 77746F62 		.ascii	"wtobjp\000"
 4627      6A7000
ARM GAS  /tmp/ccZqK06Y.s 			page 91


 4628              	.LASF33:
 4629 0aaa 705F6E61 		.ascii	"p_name\000"
 4629      6D6500
 4630              	.LASF102:
 4631 0ab1 444D4131 		.ascii	"DMA1_Channel7_IRQn\000"
 4631      5F436861 
 4631      6E6E656C 
 4631      375F4952 
 4631      516E00
 4632              	.LASF150:
 4633 0ac4 4650555F 		.ascii	"FPU_IRQn\000"
 4633      4952516E 
 4633      00
 4634              	.LASF82:
 4635 0acd 44656275 		.ascii	"DebugMonitor_IRQn\000"
 4635      674D6F6E 
 4635      69746F72 
 4635      5F495251 
 4635      6E00
 4636              	.LASF93:
 4637 0adf 45585449 		.ascii	"EXTI2_TSC_IRQn\000"
 4637      325F5453 
 4637      435F4952 
 4637      516E00
 4638              	.LASF162:
 4639 0aee 45585449 		.ascii	"EXTI_TypeDef\000"
 4639      5F547970 
 4639      65446566 
 4639      00
 4640              	.LASF133:
 4641 0afb 53504933 		.ascii	"SPI3_IRQn\000"
 4641      5F495251 
 4641      6E00
 4642              	.LASF114:
 4643 0b05 54494D33 		.ascii	"TIM3_IRQn\000"
 4643      5F495251 
 4643      6E00
 4644              	.LASF173:
 4645 0b0f 73656E74 		.ascii	"sentmsg\000"
 4645      6D736700 
 4646              	.LASF218:
 4647 0b17 45585444 		.ascii	"EXTD1\000"
 4647      3100
 4648              	.LASF182:
 4649 0b1d 6D5F6F77 		.ascii	"m_owner\000"
 4649      6E657200 
 4650              	.LASF30:
 4651 0b25 705F6374 		.ascii	"p_ctx\000"
 4651      7800
 4652              	.LASF63:
 4653 0b2b 76745F66 		.ascii	"vt_func\000"
 4653      756E6300 
 4654              	.LASF92:
 4655 0b33 45585449 		.ascii	"EXTI1_IRQn\000"
 4655      315F4952 
 4655      516E00
 4656              	.LASF208:
ARM GAS  /tmp/ccZqK06Y.s 			page 92


 4657 0b3e 56656374 		.ascii	"VectorE4\000"
 4657      6F724534 
 4657      00
 4658              		.ident	"GCC: (GNU Tools for ARM Embedded Processors) 4.8.4 20140526 (release) [ARM/embedded-4_8-br
ARM GAS  /tmp/ccZqK06Y.s 			page 93


DEFINED SYMBOLS
                            *ABS*:00000000 ext_lld_isr.c
     /tmp/ccZqK06Y.s:19     .text.Vector58:00000000 $t
     /tmp/ccZqK06Y.s:25     .text.Vector58:00000000 Vector58
     /tmp/ccZqK06Y.s:63     .text.Vector58:00000024 $d
     /tmp/ccZqK06Y.s:69     .text.Vector5C:00000000 $t
     /tmp/ccZqK06Y.s:75     .text.Vector5C:00000000 Vector5C
     /tmp/ccZqK06Y.s:112    .text.Vector5C:00000024 $d
     /tmp/ccZqK06Y.s:118    .text.Vector60:00000000 $t
     /tmp/ccZqK06Y.s:124    .text.Vector60:00000000 Vector60
     /tmp/ccZqK06Y.s:161    .text.Vector60:00000024 $d
     /tmp/ccZqK06Y.s:167    .text.Vector64:00000000 $t
     /tmp/ccZqK06Y.s:173    .text.Vector64:00000000 Vector64
     /tmp/ccZqK06Y.s:210    .text.Vector64:00000024 $d
     /tmp/ccZqK06Y.s:216    .text.Vector68:00000000 $t
     /tmp/ccZqK06Y.s:222    .text.Vector68:00000000 Vector68
     /tmp/ccZqK06Y.s:259    .text.Vector68:00000024 $d
     /tmp/ccZqK06Y.s:265    .text.Vector9C:00000000 $t
     /tmp/ccZqK06Y.s:271    .text.Vector9C:00000000 Vector9C
     /tmp/ccZqK06Y.s:366    .text.Vector9C:00000068 $d
     /tmp/ccZqK06Y.s:372    .text.VectorE0:00000000 $t
     /tmp/ccZqK06Y.s:378    .text.VectorE0:00000000 VectorE0
     /tmp/ccZqK06Y.s:488    .text.VectorE0:00000078 $d
     /tmp/ccZqK06Y.s:494    .text.Vector44:00000000 $t
     /tmp/ccZqK06Y.s:500    .text.Vector44:00000000 Vector44
     /tmp/ccZqK06Y.s:537    .text.Vector44:00000028 $d
     /tmp/ccZqK06Y.s:543    .text.VectorE4:00000000 $t
     /tmp/ccZqK06Y.s:549    .text.VectorE4:00000000 VectorE4
     /tmp/ccZqK06Y.s:586    .text.VectorE4:00000028 $d
     /tmp/ccZqK06Y.s:592    .text.VectorE8:00000000 $t
     /tmp/ccZqK06Y.s:598    .text.VectorE8:00000000 VectorE8
     /tmp/ccZqK06Y.s:635    .text.VectorE8:00000028 $d
     /tmp/ccZqK06Y.s:641    .text.Vector48:00000000 $t
     /tmp/ccZqK06Y.s:647    .text.Vector48:00000000 Vector48
     /tmp/ccZqK06Y.s:684    .text.Vector48:00000028 $d
     /tmp/ccZqK06Y.s:690    .text.Vector4C:00000000 $t
     /tmp/ccZqK06Y.s:696    .text.Vector4C:00000000 Vector4C
     /tmp/ccZqK06Y.s:733    .text.Vector4C:00000028 $d
     /tmp/ccZqK06Y.s:739    .text.Vector140:00000000 $t
     /tmp/ccZqK06Y.s:745    .text.Vector140:00000000 Vector140
     /tmp/ccZqK06Y.s:816    .text.Vector140:0000004c $d
     /tmp/ccZqK06Y.s:823    .text.Vector144:00000000 $t
     /tmp/ccZqK06Y.s:829    .text.Vector144:00000000 Vector144
     /tmp/ccZqK06Y.s:904    .text.Vector144:0000005c $d
     /tmp/ccZqK06Y.s:910    .text.Vector148:00000000 $t
     /tmp/ccZqK06Y.s:916    .text.Vector148:00000000 Vector148
     /tmp/ccZqK06Y.s:953    .text.Vector148:00000028 $d
     /tmp/ccZqK06Y.s:959    .text.ext_lld_exti_irq_enable:00000000 $t
     /tmp/ccZqK06Y.s:965    .text.ext_lld_exti_irq_enable:00000000 ext_lld_exti_irq_enable
     /tmp/ccZqK06Y.s:1059   .text.ext_lld_exti_irq_disable:00000000 $t
     /tmp/ccZqK06Y.s:1065   .text.ext_lld_exti_irq_disable:00000000 ext_lld_exti_irq_disable
                     .debug_frame:00000010 $d
     /tmp/ccZqK06Y.s:68     .text.Vector58:0000002c $t
     /tmp/ccZqK06Y.s:117    .text.Vector5C:0000002c $t
     /tmp/ccZqK06Y.s:166    .text.Vector60:0000002c $t
     /tmp/ccZqK06Y.s:215    .text.Vector64:0000002c $t
     /tmp/ccZqK06Y.s:264    .text.Vector68:0000002c $t
ARM GAS  /tmp/ccZqK06Y.s 			page 94


     /tmp/ccZqK06Y.s:822    .text.Vector140:00000058 $t
     /tmp/ccZqK06Y.s:909    .text.Vector144:00000064 $t

UNDEFINED SYMBOLS
_port_irq_epilogue
EXTD1
nvicEnableVector
nvicDisableVector
