ARM GAS  /tmp/ccNeGdAE.s 			page 1


   1              		.syntax unified
   2              		.cpu cortex-m4
   3              		.fpu softvfp
   4              		.eabi_attribute 20, 1
   5              		.eabi_attribute 21, 1
   6              		.eabi_attribute 23, 3
   7              		.eabi_attribute 24, 1
   8              		.eabi_attribute 25, 1
   9              		.eabi_attribute 26, 1
  10              		.eabi_attribute 30, 2
  11              		.eabi_attribute 34, 1
  12              		.eabi_attribute 18, 4
  13              		.thumb
  14              		.file	"ext_lld.c"
  15              		.text
  16              	.Ltext0:
  17              		.cfi_sections	.debug_frame
  18              		.section	.text.ext_lld_init,"ax",%progbits
  19              		.align	2
  20              		.p2align 4,,15
  21              		.global	ext_lld_init
  22              		.thumb
  23              		.thumb_func
  24              		.type	ext_lld_init, %function
  25              	ext_lld_init:
  26              	.LFB272:
  27              		.file 1 "../ChibiOS/os/hal/ports/STM32/LLD/EXTIv1/ext_lld.c"
  28              		.loc 1 72 0
  29              		.cfi_startproc
  30              		@ args = 0, pretend = 0, frame = 0
  31              		@ frame_needed = 0, uses_anonymous_args = 0
  32              		@ link register save eliminated.
  33              		.loc 1 75 0
  34 0000 0148     		ldr	r0, .L2
  35 0002 FFF7FEBF 		b	extObjectInit
  36              	.LVL0:
  37              	.L3:
  38 0006 00BF     		.align	2
  39              	.L2:
  40 0008 00000000 		.word	.LANCHOR0
  41              		.cfi_endproc
  42              	.LFE272:
  43              		.size	ext_lld_init, .-ext_lld_init
  44 000c AFF30080 		.section	.text.ext_lld_stop,"ax",%progbits
  45              		.align	2
  46              		.p2align 4,,15
  47              		.global	ext_lld_stop
  48              		.thumb
  49              		.thumb_func
  50              		.type	ext_lld_stop, %function
  51              	ext_lld_stop:
  52              	.LFB274:
  53              		.loc 1 106 0
  54              		.cfi_startproc
  55              		@ args = 0, pretend = 0, frame = 0
  56              		@ frame_needed = 0, uses_anonymous_args = 0
  57              	.LVL1:
ARM GAS  /tmp/ccNeGdAE.s 			page 2


  58 0000 38B5     		push	{r3, r4, r5, lr}
  59              		.cfi_def_cfa_offset 16
  60              		.cfi_offset 3, -16
  61              		.cfi_offset 4, -12
  62              		.cfi_offset 5, -8
  63              		.cfi_offset 14, -4
  64              		.loc 1 108 0
  65 0002 0378     		ldrb	r3, [r0]	@ zero_extendqisi2
  66 0004 022B     		cmp	r3, #2
  67 0006 0ED0     		beq	.L7
  68              	.LVL2:
  69              	.L5:
  70              		.loc 1 111 0
  71 0008 084B     		ldr	r3, .L8
  72 000a 0025     		movs	r5, #0
  73              		.loc 1 112 0
  74 000c 4FF0FC54 		mov	r4, #528482304
  75              		.loc 1 113 0
  76 0010 6FF0FC50 		mvn	r0, #528482304
  77              		.loc 1 115 0
  78 0014 6FF00301 		mvn	r1, #3
  79              		.loc 1 116 0
  80 0018 0322     		movs	r2, #3
  81              		.loc 1 111 0
  82 001a 5D60     		str	r5, [r3, #4]
  83              		.loc 1 112 0
  84 001c 1C60     		str	r4, [r3]
  85              		.loc 1 113 0
  86 001e 5861     		str	r0, [r3, #20]
  87              		.loc 1 115 0
  88 0020 1962     		str	r1, [r3, #32]
  89              		.loc 1 116 0
  90 0022 5A63     		str	r2, [r3, #52]
  91 0024 38BD     		pop	{r3, r4, r5, pc}
  92              	.LVL3:
  93              	.L7:
  94              		.loc 1 109 0
  95 0026 FFF7FEFF 		bl	ext_lld_exti_irq_disable
  96              	.LVL4:
  97 002a EDE7     		b	.L5
  98              	.L9:
  99              		.align	2
 100              	.L8:
 101 002c 00040140 		.word	1073808384
 102              		.cfi_endproc
 103              	.LFE274:
 104              		.size	ext_lld_stop, .-ext_lld_stop
 105              		.section	.text.ext_lld_channel_enable,"ax",%progbits
 106              		.align	2
 107              		.p2align 4,,15
 108              		.global	ext_lld_channel_enable
 109              		.thumb
 110              		.thumb_func
 111              		.type	ext_lld_channel_enable, %function
 112              	ext_lld_channel_enable:
 113              	.LFB275:
 114              		.loc 1 128 0
ARM GAS  /tmp/ccNeGdAE.s 			page 3


 115              		.cfi_startproc
 116              		@ args = 0, pretend = 0, frame = 0
 117              		@ frame_needed = 0, uses_anonymous_args = 0
 118              		@ link register save eliminated.
 119              	.LVL5:
 120              		.loc 1 129 0
 121 0000 01F01F03 		and	r3, r1, #31
 122 0004 0122     		movs	r2, #1
 123              		.loc 1 132 0
 124 0006 0F29     		cmp	r1, #15
 125              		.loc 1 128 0
 126 0008 F0B4     		push	{r4, r5, r6, r7}
 127              		.cfi_def_cfa_offset 16
 128              		.cfi_offset 4, -16
 129              		.cfi_offset 5, -12
 130              		.cfi_offset 6, -8
 131              		.cfi_offset 7, -4
 132              		.loc 1 129 0
 133 000a 02FA03F3 		lsl	r3, r2, r3
 134              	.LVL6:
 135              		.loc 1 132 0
 136 000e 39D8     		bhi	.L11
 137              	.LVL7:
 138 0010 21F00302 		bic	r2, r1, #3
 139              	.LBB2:
 140              		.loc 1 135 0
 141 0014 4568     		ldr	r5, [r0, #4]
 142 0016 02F18042 		add	r2, r2, #1073741824
 143 001a 02F58032 		add	r2, r2, #65536
 144 001e 55F83160 		ldr	r6, [r5, r1, lsl #3]
 145              		.loc 1 142 0
 146 0022 9768     		ldr	r7, [r2, #8]
 147              		.loc 1 134 0
 148 0024 01F00304 		and	r4, r1, #3
 149 0028 A400     		lsls	r4, r4, #2
 150              	.LVL8:
 151 002a 0F25     		movs	r5, #15
 152              	.LVL9:
 153 002c A540     		lsls	r5, r5, r4
 154              		.loc 1 136 0
 155 002e C6F30316 		ubfx	r6, r6, #4, #4
 156              		.loc 1 142 0
 157 0032 27EA0505 		bic	r5, r7, r5
 158              		.loc 1 135 0
 159 0036 06FA04F4 		lsl	r4, r6, r4
 160              	.LVL10:
 161              		.loc 1 142 0
 162 003a 2C43     		orrs	r4, r4, r5
 163 003c 9460     		str	r4, [r2, #8]
 164              	.LVL11:
 165              	.L12:
 166              	.LBE2:
 167              		.loc 1 150 0
 168 003e 13F0FC5F 		tst	r3, #528482304
 169 0042 1DD1     		bne	.L10
 170 0044 4068     		ldr	r0, [r0, #4]
 171              	.LVL12:
ARM GAS  /tmp/ccNeGdAE.s 			page 4


 172              		.loc 1 155 0
 173 0046 50F83120 		ldr	r2, [r0, r1, lsl #3]
 174 004a D507     		lsls	r5, r2, #31
 175 004c 00EBC101 		add	r1, r0, r1, lsl #3
 176              	.LVL13:
 177              		.loc 1 156 0
 178 0050 2B48     		ldr	r0, .L29
 179              		.loc 1 155 0
 180 0052 3BD4     		bmi	.L27
 181              		.loc 1 158 0
 182 0054 8568     		ldr	r5, [r0, #8]
 183 0056 DC43     		mvns	r4, r3
 184 0058 2540     		ands	r5, r5, r4
 185 005a 8560     		str	r5, [r0, #8]
 186              	.L17:
 187              		.loc 1 159 0
 188 005c 12F0020F 		tst	r2, #2
 189              		.loc 1 160 0
 190 0060 274A     		ldr	r2, .L29
 191 0062 D068     		ldr	r0, [r2, #12]
 192 0064 14BF     		ite	ne
 193 0066 1843     		orrne	r0, r3, r0
 194              		.loc 1 162 0
 195 0068 2040     		andeq	r0, r4, r0
 196 006a D060     		str	r0, [r2, #12]
 197              		.loc 1 165 0
 198 006c 4A68     		ldr	r2, [r1, #4]
 199 006e 002A     		cmp	r2, #0
 200 0070 3ED0     		beq	.L20
 201              		.loc 1 166 0
 202 0072 234A     		ldr	r2, .L29
 203 0074 1168     		ldr	r1, [r2]
 204 0076 0B43     		orrs	r3, r3, r1
 205              	.LVL14:
 206 0078 1360     		str	r3, [r2]
 207              		.loc 1 167 0
 208 007a 5368     		ldr	r3, [r2, #4]
 209 007c 1C40     		ands	r4, r4, r3
 210 007e 5460     		str	r4, [r2, #4]
 211              	.L10:
 212              		.loc 1 202 0
 213 0080 F0BC     		pop	{r4, r5, r6, r7}
 214 0082 7047     		bx	lr
 215              	.LVL15:
 216              	.L11:
 217              		.loc 1 147 0
 218 0084 1F29     		cmp	r1, #31
 219 0086 DAD9     		bls	.L12
 220              		.loc 1 177 0
 221 0088 33F00302 		bics	r2, r3, #3
 222 008c F8D1     		bne	.L10
 223 008e 4068     		ldr	r0, [r0, #4]
 224              	.LVL16:
 225              		.loc 1 182 0
 226 0090 50F83120 		ldr	r2, [r0, r1, lsl #3]
 227 0094 D407     		lsls	r4, r2, #31
 228 0096 00EBC101 		add	r1, r0, r1, lsl #3
ARM GAS  /tmp/ccNeGdAE.s 			page 5


 229              	.LVL17:
 230              		.loc 1 183 0
 231 009a 1948     		ldr	r0, .L29
 232              		.loc 1 182 0
 233 009c 1BD4     		bmi	.L28
 234              		.loc 1 185 0
 235 009e 856A     		ldr	r5, [r0, #40]
 236 00a0 DC43     		mvns	r4, r3
 237 00a2 2540     		ands	r5, r5, r4
 238 00a4 8562     		str	r5, [r0, #40]
 239              	.L23:
 240              		.loc 1 186 0
 241 00a6 12F0020F 		tst	r2, #2
 242              		.loc 1 187 0
 243 00aa 154A     		ldr	r2, .L29
 244 00ac D06A     		ldr	r0, [r2, #44]
 245 00ae 14BF     		ite	ne
 246 00b0 1843     		orrne	r0, r3, r0
 247              		.loc 1 189 0
 248 00b2 2040     		andeq	r0, r4, r0
 249 00b4 D062     		str	r0, [r2, #44]
 250              		.loc 1 192 0
 251 00b6 4A68     		ldr	r2, [r1, #4]
 252 00b8 92B1     		cbz	r2, .L26
 253              		.loc 1 193 0
 254 00ba 114A     		ldr	r2, .L29
 255 00bc 116A     		ldr	r1, [r2, #32]
 256 00be 0B43     		orrs	r3, r3, r1
 257              	.LVL18:
 258 00c0 1362     		str	r3, [r2, #32]
 259              		.loc 1 194 0
 260 00c2 536A     		ldr	r3, [r2, #36]
 261 00c4 1C40     		ands	r4, r4, r3
 262 00c6 5462     		str	r4, [r2, #36]
 263              		.loc 1 202 0
 264 00c8 F0BC     		pop	{r4, r5, r6, r7}
 265 00ca 7047     		bx	lr
 266              	.LVL19:
 267              	.L27:
 268              		.loc 1 156 0
 269 00cc 8468     		ldr	r4, [r0, #8]
 270 00ce 1C43     		orrs	r4, r4, r3
 271 00d0 8460     		str	r4, [r0, #8]
 272 00d2 DC43     		mvns	r4, r3
 273 00d4 C2E7     		b	.L17
 274              	.L28:
 275              		.loc 1 183 0
 276 00d6 846A     		ldr	r4, [r0, #40]
 277 00d8 1C43     		orrs	r4, r4, r3
 278 00da 8462     		str	r4, [r0, #40]
 279 00dc DC43     		mvns	r4, r3
 280 00de E2E7     		b	.L23
 281              	.L26:
 282              		.loc 1 197 0
 283 00e0 074A     		ldr	r2, .L29
 284 00e2 516A     		ldr	r1, [r2, #36]
 285 00e4 0B43     		orrs	r3, r3, r1
ARM GAS  /tmp/ccNeGdAE.s 			page 6


 286              	.LVL20:
 287 00e6 5362     		str	r3, [r2, #36]
 288              		.loc 1 198 0
 289 00e8 136A     		ldr	r3, [r2, #32]
 290 00ea 1C40     		ands	r4, r4, r3
 291 00ec 1462     		str	r4, [r2, #32]
 292 00ee C7E7     		b	.L10
 293              	.LVL21:
 294              	.L20:
 295              		.loc 1 170 0
 296 00f0 034A     		ldr	r2, .L29
 297 00f2 5168     		ldr	r1, [r2, #4]
 298 00f4 0B43     		orrs	r3, r3, r1
 299              	.LVL22:
 300 00f6 5360     		str	r3, [r2, #4]
 301              		.loc 1 171 0
 302 00f8 1368     		ldr	r3, [r2]
 303 00fa 1C40     		ands	r4, r4, r3
 304 00fc 1460     		str	r4, [r2]
 305 00fe BFE7     		b	.L10
 306              	.L30:
 307              		.align	2
 308              	.L29:
 309 0100 00040140 		.word	1073808384
 310              		.cfi_endproc
 311              	.LFE275:
 312              		.size	ext_lld_channel_enable, .-ext_lld_channel_enable
 313 0104 AFF30080 		.section	.text.ext_lld_channel_disable,"ax",%progbits
 313      AFF30080 
 313      AFF30080 
 314              		.align	2
 315              		.p2align 4,,15
 316              		.global	ext_lld_channel_disable
 317              		.thumb
 318              		.thumb_func
 319              		.type	ext_lld_channel_disable, %function
 320              	ext_lld_channel_disable:
 321              	.LFB276:
 322              		.loc 1 212 0
 323              		.cfi_startproc
 324              		@ args = 0, pretend = 0, frame = 0
 325              		@ frame_needed = 0, uses_anonymous_args = 0
 326              		@ link register save eliminated.
 327              	.LVL23:
 328              		.loc 1 213 0
 329 0000 01F01F03 		and	r3, r1, #31
 330 0004 0120     		movs	r0, #1
 331              	.LVL24:
 332              		.loc 1 218 0
 333 0006 1F29     		cmp	r1, #31
 334              		.loc 1 213 0
 335 0008 00FA03F0 		lsl	r0, r0, r3
 336              	.LVL25:
 337              		.loc 1 220 0
 338 000c 0F4B     		ldr	r3, .L35
 339              		.loc 1 218 0
 340 000e 0ED9     		bls	.L34
ARM GAS  /tmp/ccNeGdAE.s 			page 7


 341              		.loc 1 228 0
 342 0010 196A     		ldr	r1, [r3, #32]
 343              	.LVL26:
 344 0012 C243     		mvns	r2, r0
 345 0014 1140     		ands	r1, r1, r2
 346 0016 1962     		str	r1, [r3, #32]
 347              		.loc 1 229 0
 348 0018 596A     		ldr	r1, [r3, #36]
 349 001a 1140     		ands	r1, r1, r2
 350 001c 5962     		str	r1, [r3, #36]
 351              		.loc 1 230 0
 352 001e 996A     		ldr	r1, [r3, #40]
 353 0020 1140     		ands	r1, r1, r2
 354 0022 9962     		str	r1, [r3, #40]
 355              		.loc 1 231 0
 356 0024 D96A     		ldr	r1, [r3, #44]
 357 0026 0A40     		ands	r2, r2, r1
 358 0028 DA62     		str	r2, [r3, #44]
 359              		.loc 1 232 0
 360 002a 5863     		str	r0, [r3, #52]
 361 002c 7047     		bx	lr
 362              	.LVL27:
 363              	.L34:
 364              		.loc 1 220 0
 365 002e 1968     		ldr	r1, [r3]
 366              	.LVL28:
 367 0030 C243     		mvns	r2, r0
 368 0032 1140     		ands	r1, r1, r2
 369 0034 1960     		str	r1, [r3]
 370              		.loc 1 221 0
 371 0036 5968     		ldr	r1, [r3, #4]
 372 0038 1140     		ands	r1, r1, r2
 373 003a 5960     		str	r1, [r3, #4]
 374              		.loc 1 222 0
 375 003c 9968     		ldr	r1, [r3, #8]
 376 003e 1140     		ands	r1, r1, r2
 377 0040 9960     		str	r1, [r3, #8]
 378              		.loc 1 223 0
 379 0042 D968     		ldr	r1, [r3, #12]
 380 0044 0A40     		ands	r2, r2, r1
 381 0046 DA60     		str	r2, [r3, #12]
 382              		.loc 1 224 0
 383 0048 5861     		str	r0, [r3, #20]
 384 004a 7047     		bx	lr
 385              	.L36:
 386              		.align	2
 387              	.L35:
 388 004c 00040140 		.word	1073808384
 389              		.cfi_endproc
 390              	.LFE276:
 391              		.size	ext_lld_channel_disable, .-ext_lld_channel_disable
 392              		.section	.text.ext_lld_start,"ax",%progbits
 393              		.align	2
 394              		.p2align 4,,15
 395              		.global	ext_lld_start
 396              		.thumb
 397              		.thumb_func
ARM GAS  /tmp/ccNeGdAE.s 			page 8


 398              		.type	ext_lld_start, %function
 399              	ext_lld_start:
 400              	.LFB273:
 401              		.loc 1 85 0
 402              		.cfi_startproc
 403              		@ args = 0, pretend = 0, frame = 0
 404              		@ frame_needed = 0, uses_anonymous_args = 0
 405              	.LVL29:
 406 0000 38B5     		push	{r3, r4, r5, lr}
 407              		.cfi_def_cfa_offset 16
 408              		.cfi_offset 3, -16
 409              		.cfi_offset 4, -12
 410              		.cfi_offset 5, -8
 411              		.cfi_offset 14, -4
 412              		.loc 1 88 0
 413 0002 0378     		ldrb	r3, [r0]	@ zero_extendqisi2
 414 0004 012B     		cmp	r3, #1
 415              		.loc 1 85 0
 416 0006 0546     		mov	r5, r0
 417              		.loc 1 88 0
 418 0008 14D0     		beq	.L43
 419              	.LVL30:
 420              	.L38:
 421              		.loc 1 85 0 discriminator 1
 422 000a 0024     		movs	r4, #0
 423 000c 04E0     		b	.L42
 424              	.LVL31:
 425              	.L45:
 426              		.loc 1 92 0
 427 000e 0134     		adds	r4, r4, #1
 428              		.loc 1 94 0
 429 0010 FFF7FEFF 		bl	ext_lld_channel_enable
 430              	.LVL32:
 431              		.loc 1 92 0
 432 0014 222C     		cmp	r4, #34
 433 0016 0CD0     		beq	.L44
 434              	.LVL33:
 435              	.L42:
 436              		.loc 1 93 0
 437 0018 6B68     		ldr	r3, [r5, #4]
 438 001a 53F83430 		ldr	r3, [r3, r4, lsl #3]
 439 001e 13F0040F 		tst	r3, #4
 440              		.loc 1 96 0
 441 0022 2146     		mov	r1, r4
 442 0024 2846     		mov	r0, r5
 443              		.loc 1 93 0
 444 0026 F2D1     		bne	.L45
 445              	.LVL34:
 446              		.loc 1 92 0
 447 0028 0134     		adds	r4, r4, #1
 448              	.LVL35:
 449              		.loc 1 96 0
 450 002a FFF7FEFF 		bl	ext_lld_channel_disable
 451              	.LVL36:
 452              		.loc 1 92 0
 453 002e 222C     		cmp	r4, #34
 454 0030 F2D1     		bne	.L42
ARM GAS  /tmp/ccNeGdAE.s 			page 9


 455              	.L44:
 456              		.loc 1 97 0
 457 0032 38BD     		pop	{r3, r4, r5, pc}
 458              	.LVL37:
 459              	.L43:
 460              		.loc 1 89 0
 461 0034 FFF7FEFF 		bl	ext_lld_exti_irq_enable
 462              	.LVL38:
 463 0038 E7E7     		b	.L38
 464              		.cfi_endproc
 465              	.LFE273:
 466              		.size	ext_lld_start, .-ext_lld_start
 467              		.global	EXTD1
 468 003a 00BFAFF3 		.section	.bss.EXTD1,"aw",%nobits
 468      0080
 469              		.align	2
 470              		.set	.LANCHOR0,. + 0
 471              		.type	EXTD1, %object
 472              		.size	EXTD1, 8
 473              	EXTD1:
 474 0000 00000000 		.space	8
 474      00000000 
 475              		.text
 476              	.Letext0:
 477              		.file 2 "/nfs/nfs5/home/research/hardware/arm2/gcc-arm-embedded/gcc-arm-none-eabi-4_8-2014q2/lib/g
 478              		.file 3 "/nfs/nfs5/home/research/hardware/arm2/gcc-arm-embedded/gcc-arm-none-eabi-4_8-2014q2/arm-n
 479              		.file 4 "/nfs/nfs5/home/research/hardware/arm2/gcc-arm-embedded/gcc-arm-none-eabi-4_8-2014q2/arm-n
 480              		.file 5 "../ChibiOS/os/rt/ports/ARMCMx/compilers/GCC/chtypes.h"
 481              		.file 6 "../ChibiOS/os/rt/include/chsystypes.h"
 482              		.file 7 "../ChibiOS/os/rt/include/chschd.h"
 483              		.file 8 "../ChibiOS/os/ext/CMSIS/ST/STM32F3xx/stm32f303xc.h"
 484              		.file 9 "../ChibiOS/os/rt/ports/ARMCMx/chcore.h"
 485              		.file 10 "../ChibiOS/os/rt/ports/ARMCMx/chcore_v7m.h"
 486              		.file 11 "../ChibiOS/os/rt/include/chtm.h"
 487              		.file 12 "../ChibiOS/os/rt/include/chsem.h"
 488              		.file 13 "../ChibiOS/os/rt/include/chmtx.h"
 489              		.file 14 "../ChibiOS/os/hal/include/ext.h"
 490              		.file 15 "../ChibiOS/os/hal/ports/STM32/LLD/EXTIv1/ext_lld.h"
 491              		.file 16 "../ChibiOS/os/ext/CMSIS/include/core_cm4.h"
 492              		.file 17 "../ChibiOS/os/hal/ports/STM32/STM32F3xx/ext_lld_isr.h"
 493              		.section	.debug_info,"",%progbits
 494              	.Ldebug_info0:
 495 0000 FE090000 		.4byte	0x9fe
 496 0004 0400     		.2byte	0x4
 497 0006 00000000 		.4byte	.Ldebug_abbrev0
 498 000a 04       		.byte	0x4
 499 000b 01       		.uleb128 0x1
 500 000c 57050000 		.4byte	.LASF146
 501 0010 01       		.byte	0x1
 502 0011 92020000 		.4byte	.LASF147
 503 0015 0D020000 		.4byte	.LASF148
 504 0019 00000000 		.4byte	.Ldebug_ranges0+0
 505 001d 00000000 		.4byte	0
 506 0021 00000000 		.4byte	.Ldebug_line0
 507 0025 02       		.uleb128 0x2
 508 0026 04       		.byte	0x4
 509 0027 05       		.byte	0x5
ARM GAS  /tmp/ccNeGdAE.s 			page 10


 510 0028 696E7400 		.ascii	"int\000"
 511 002c 03       		.uleb128 0x3
 512 002d 0D000000 		.4byte	.LASF2
 513 0031 02       		.byte	0x2
 514 0032 D4       		.byte	0xd4
 515 0033 37000000 		.4byte	0x37
 516 0037 04       		.uleb128 0x4
 517 0038 04       		.byte	0x4
 518 0039 07       		.byte	0x7
 519 003a E6010000 		.4byte	.LASF0
 520 003e 04       		.uleb128 0x4
 521 003f 01       		.byte	0x1
 522 0040 06       		.byte	0x6
 523 0041 1D000000 		.4byte	.LASF1
 524 0045 03       		.uleb128 0x3
 525 0046 29000000 		.4byte	.LASF3
 526 004a 03       		.byte	0x3
 527 004b 1C       		.byte	0x1c
 528 004c 50000000 		.4byte	0x50
 529 0050 04       		.uleb128 0x4
 530 0051 01       		.byte	0x1
 531 0052 08       		.byte	0x8
 532 0053 55040000 		.4byte	.LASF4
 533 0057 04       		.uleb128 0x4
 534 0058 02       		.byte	0x2
 535 0059 05       		.byte	0x5
 536 005a 72040000 		.4byte	.LASF5
 537 005e 04       		.uleb128 0x4
 538 005f 02       		.byte	0x2
 539 0060 07       		.byte	0x7
 540 0061 53020000 		.4byte	.LASF6
 541 0065 03       		.uleb128 0x3
 542 0066 FF020000 		.4byte	.LASF7
 543 006a 03       		.byte	0x3
 544 006b 37       		.byte	0x37
 545 006c 70000000 		.4byte	0x70
 546 0070 04       		.uleb128 0x4
 547 0071 04       		.byte	0x4
 548 0072 05       		.byte	0x5
 549 0073 55010000 		.4byte	.LASF8
 550 0077 03       		.uleb128 0x3
 551 0078 56060000 		.4byte	.LASF9
 552 007c 03       		.byte	0x3
 553 007d 38       		.byte	0x38
 554 007e 82000000 		.4byte	0x82
 555 0082 04       		.uleb128 0x4
 556 0083 04       		.byte	0x4
 557 0084 07       		.byte	0x7
 558 0085 14050000 		.4byte	.LASF10
 559 0089 04       		.uleb128 0x4
 560 008a 08       		.byte	0x8
 561 008b 05       		.byte	0x5
 562 008c 01010000 		.4byte	.LASF11
 563 0090 03       		.uleb128 0x3
 564 0091 DD030000 		.4byte	.LASF12
 565 0095 03       		.byte	0x3
 566 0096 4E       		.byte	0x4e
ARM GAS  /tmp/ccNeGdAE.s 			page 11


 567 0097 9B000000 		.4byte	0x9b
 568 009b 04       		.uleb128 0x4
 569 009c 08       		.byte	0x8
 570 009d 07       		.byte	0x7
 571 009e 67000000 		.4byte	.LASF13
 572 00a2 03       		.uleb128 0x3
 573 00a3 BC060000 		.4byte	.LASF14
 574 00a7 04       		.byte	0x4
 575 00a8 2A       		.byte	0x2a
 576 00a9 45000000 		.4byte	0x45
 577 00ad 03       		.uleb128 0x3
 578 00ae 4D040000 		.4byte	.LASF15
 579 00b2 04       		.byte	0x4
 580 00b3 41       		.byte	0x41
 581 00b4 65000000 		.4byte	0x65
 582 00b8 03       		.uleb128 0x3
 583 00b9 E3040000 		.4byte	.LASF16
 584 00bd 04       		.byte	0x4
 585 00be 42       		.byte	0x42
 586 00bf 77000000 		.4byte	0x77
 587 00c3 03       		.uleb128 0x3
 588 00c4 14000000 		.4byte	.LASF17
 589 00c8 04       		.byte	0x4
 590 00c9 4E       		.byte	0x4e
 591 00ca 90000000 		.4byte	0x90
 592 00ce 03       		.uleb128 0x3
 593 00cf 72060000 		.4byte	.LASF18
 594 00d3 05       		.byte	0x5
 595 00d4 39       		.byte	0x39
 596 00d5 B8000000 		.4byte	0xb8
 597 00d9 03       		.uleb128 0x3
 598 00da D7020000 		.4byte	.LASF19
 599 00de 05       		.byte	0x5
 600 00df 3C       		.byte	0x3c
 601 00e0 A2000000 		.4byte	0xa2
 602 00e4 03       		.uleb128 0x3
 603 00e5 5E010000 		.4byte	.LASF20
 604 00e9 05       		.byte	0x5
 605 00ea 3D       		.byte	0x3d
 606 00eb A2000000 		.4byte	0xa2
 607 00ef 03       		.uleb128 0x3
 608 00f0 FC030000 		.4byte	.LASF21
 609 00f4 05       		.byte	0x5
 610 00f5 3E       		.byte	0x3e
 611 00f6 A2000000 		.4byte	0xa2
 612 00fa 03       		.uleb128 0x3
 613 00fb 2F040000 		.4byte	.LASF22
 614 00ff 05       		.byte	0x5
 615 0100 40       		.byte	0x40
 616 0101 B8000000 		.4byte	0xb8
 617 0105 03       		.uleb128 0x3
 618 0106 C5020000 		.4byte	.LASF23
 619 010a 05       		.byte	0x5
 620 010b 41       		.byte	0x41
 621 010c AD000000 		.4byte	0xad
 622 0110 03       		.uleb128 0x3
 623 0111 F3020000 		.4byte	.LASF24
ARM GAS  /tmp/ccNeGdAE.s 			page 12


 624 0115 05       		.byte	0x5
 625 0116 43       		.byte	0x43
 626 0117 B8000000 		.4byte	0xb8
 627 011b 03       		.uleb128 0x3
 628 011c 78030000 		.4byte	.LASF25
 629 0120 05       		.byte	0x5
 630 0121 45       		.byte	0x45
 631 0122 AD000000 		.4byte	0xad
 632 0126 03       		.uleb128 0x3
 633 0127 38060000 		.4byte	.LASF26
 634 012b 06       		.byte	0x6
 635 012c 33       		.byte	0x33
 636 012d B8000000 		.4byte	0xb8
 637 0131 03       		.uleb128 0x3
 638 0132 4E050000 		.4byte	.LASF27
 639 0136 06       		.byte	0x6
 640 0137 3F       		.byte	0x3f
 641 0138 3C010000 		.4byte	0x13c
 642 013c 05       		.uleb128 0x5
 643 013d 7E020000 		.4byte	.LASF46
 644 0141 40       		.byte	0x40
 645 0142 07       		.byte	0x7
 646 0143 C2       		.byte	0xc2
 647 0144 1C020000 		.4byte	0x21c
 648 0148 06       		.uleb128 0x6
 649 0149 92040000 		.4byte	.LASF28
 650 014d 07       		.byte	0x7
 651 014e C3       		.byte	0xc3
 652 014f 27020000 		.4byte	0x227
 653 0153 00       		.byte	0
 654 0154 06       		.uleb128 0x6
 655 0155 28040000 		.4byte	.LASF29
 656 0159 07       		.byte	0x7
 657 015a C5       		.byte	0xc5
 658 015b 27020000 		.4byte	0x227
 659 015f 04       		.byte	0x4
 660 0160 06       		.uleb128 0x6
 661 0161 FA000000 		.4byte	.LASF30
 662 0165 07       		.byte	0x7
 663 0166 C7       		.byte	0xc7
 664 0167 FA000000 		.4byte	0xfa
 665 016b 08       		.byte	0x8
 666 016c 06       		.uleb128 0x6
 667 016d FC060000 		.4byte	.LASF31
 668 0171 07       		.byte	0x7
 669 0172 C8       		.byte	0xc8
 670 0173 86050000 		.4byte	0x586
 671 0177 0C       		.byte	0xc
 672 0178 06       		.uleb128 0x6
 673 0179 67010000 		.4byte	.LASF32
 674 017d 07       		.byte	0x7
 675 017e CA       		.byte	0xca
 676 017f 27020000 		.4byte	0x227
 677 0183 10       		.byte	0x10
 678 0184 06       		.uleb128 0x6
 679 0185 8A030000 		.4byte	.LASF33
 680 0189 07       		.byte	0x7
ARM GAS  /tmp/ccNeGdAE.s 			page 13


 681 018a CB       		.byte	0xcb
 682 018b 27020000 		.4byte	0x227
 683 018f 14       		.byte	0x14
 684 0190 06       		.uleb128 0x6
 685 0191 CB060000 		.4byte	.LASF34
 686 0195 07       		.byte	0x7
 687 0196 D2       		.byte	0xd2
 688 0197 11070000 		.4byte	0x711
 689 019b 18       		.byte	0x18
 690 019c 06       		.uleb128 0x6
 691 019d 7C040000 		.4byte	.LASF35
 692 01a1 07       		.byte	0x7
 693 01a2 DD       		.byte	0xdd
 694 01a3 E4000000 		.4byte	0xe4
 695 01a7 1C       		.byte	0x1c
 696 01a8 06       		.uleb128 0x6
 697 01a9 99040000 		.4byte	.LASF36
 698 01ad 07       		.byte	0x7
 699 01ae E1       		.byte	0xe1
 700 01af D9000000 		.4byte	0xd9
 701 01b3 1D       		.byte	0x1d
 702 01b4 06       		.uleb128 0x6
 703 01b5 A9060000 		.4byte	.LASF37
 704 01b9 07       		.byte	0x7
 705 01ba E6       		.byte	0xe6
 706 01bb EF000000 		.4byte	0xef
 707 01bf 1E       		.byte	0x1e
 708 01c0 07       		.uleb128 0x7
 709 01c1 705F7500 		.ascii	"p_u\000"
 710 01c5 07       		.byte	0x7
 711 01c6 3701     		.2byte	0x137
 712 01c8 40060000 		.4byte	0x640
 713 01cc 20       		.byte	0x20
 714 01cd 08       		.uleb128 0x8
 715 01ce 2A030000 		.4byte	.LASF38
 716 01d2 07       		.byte	0x7
 717 01d3 3C01     		.2byte	0x13c
 718 01d5 2D020000 		.4byte	0x22d
 719 01d9 24       		.byte	0x24
 720 01da 08       		.uleb128 0x8
 721 01db 02020000 		.4byte	.LASF39
 722 01df 07       		.byte	0x7
 723 01e0 4201     		.2byte	0x142
 724 01e2 51020000 		.4byte	0x251
 725 01e6 28       		.byte	0x28
 726 01e7 08       		.uleb128 0x8
 727 01e8 D8040000 		.4byte	.LASF40
 728 01ec 07       		.byte	0x7
 729 01ed 4801     		.2byte	0x148
 730 01ef 10010000 		.4byte	0x110
 731 01f3 30       		.byte	0x30
 732 01f4 08       		.uleb128 0x8
 733 01f5 68040000 		.4byte	.LASF41
 734 01f9 07       		.byte	0x7
 735 01fa 4F01     		.2byte	0x14f
 736 01fc 0B070000 		.4byte	0x70b
 737 0200 34       		.byte	0x34
ARM GAS  /tmp/ccNeGdAE.s 			page 14


 738 0201 08       		.uleb128 0x8
 739 0202 42060000 		.4byte	.LASF42
 740 0206 07       		.byte	0x7
 741 0207 5301     		.2byte	0x153
 742 0209 FA000000 		.4byte	0xfa
 743 020d 38       		.byte	0x38
 744 020e 08       		.uleb128 0x8
 745 020f 22010000 		.4byte	.LASF43
 746 0213 07       		.byte	0x7
 747 0214 5A01     		.2byte	0x15a
 748 0216 04030000 		.4byte	0x304
 749 021a 3C       		.byte	0x3c
 750 021b 00       		.byte	0
 751 021c 03       		.uleb128 0x3
 752 021d 3D030000 		.4byte	.LASF44
 753 0221 06       		.byte	0x6
 754 0222 44       		.byte	0x44
 755 0223 27020000 		.4byte	0x227
 756 0227 09       		.uleb128 0x9
 757 0228 04       		.byte	0x4
 758 0229 31010000 		.4byte	0x131
 759 022d 03       		.uleb128 0x3
 760 022e D2060000 		.4byte	.LASF45
 761 0232 06       		.byte	0x6
 762 0233 49       		.byte	0x49
 763 0234 38020000 		.4byte	0x238
 764 0238 05       		.uleb128 0x5
 765 0239 04050000 		.4byte	.LASF47
 766 023d 04       		.byte	0x4
 767 023e 07       		.byte	0x7
 768 023f B0       		.byte	0xb0
 769 0240 51020000 		.4byte	0x251
 770 0244 06       		.uleb128 0x6
 771 0245 92040000 		.4byte	.LASF28
 772 0249 07       		.byte	0x7
 773 024a B1       		.byte	0xb1
 774 024b 27020000 		.4byte	0x227
 775 024f 00       		.byte	0
 776 0250 00       		.byte	0
 777 0251 03       		.uleb128 0x3
 778 0252 90060000 		.4byte	.LASF48
 779 0256 06       		.byte	0x6
 780 0257 50       		.byte	0x50
 781 0258 5C020000 		.4byte	0x25c
 782 025c 05       		.uleb128 0x5
 783 025d D1000000 		.4byte	.LASF49
 784 0261 08       		.byte	0x8
 785 0262 07       		.byte	0x7
 786 0263 B7       		.byte	0xb7
 787 0264 81020000 		.4byte	0x281
 788 0268 06       		.uleb128 0x6
 789 0269 92040000 		.4byte	.LASF28
 790 026d 07       		.byte	0x7
 791 026e B8       		.byte	0xb8
 792 026f 27020000 		.4byte	0x227
 793 0273 00       		.byte	0
 794 0274 06       		.uleb128 0x6
ARM GAS  /tmp/ccNeGdAE.s 			page 15


 795 0275 28040000 		.4byte	.LASF29
 796 0279 07       		.byte	0x7
 797 027a B9       		.byte	0xb9
 798 027b 27020000 		.4byte	0x227
 799 027f 04       		.byte	0x4
 800 0280 00       		.byte	0
 801 0281 03       		.uleb128 0x3
 802 0282 00000000 		.4byte	.LASF50
 803 0286 06       		.byte	0x6
 804 0287 57       		.byte	0x57
 805 0288 8C020000 		.4byte	0x28c
 806 028c 0A       		.uleb128 0xa
 807 028d E5020000 		.4byte	.LASF51
 808 0291 1C       		.byte	0x1c
 809 0292 07       		.byte	0x7
 810 0293 9201     		.2byte	0x192
 811 0295 E8020000 		.4byte	0x2e8
 812 0299 08       		.uleb128 0x8
 813 029a F3040000 		.4byte	.LASF52
 814 029e 07       		.byte	0x7
 815 029f 9301     		.2byte	0x193
 816 02a1 51020000 		.4byte	0x251
 817 02a5 00       		.byte	0
 818 02a6 08       		.uleb128 0x8
 819 02a7 84040000 		.4byte	.LASF53
 820 02ab 07       		.byte	0x7
 821 02ac 9401     		.2byte	0x194
 822 02ae FA000000 		.4byte	0xfa
 823 02b2 08       		.byte	0x8
 824 02b3 08       		.uleb128 0x8
 825 02b4 92030000 		.4byte	.LASF54
 826 02b8 07       		.byte	0x7
 827 02b9 9601     		.2byte	0x196
 828 02bb 86050000 		.4byte	0x586
 829 02bf 0C       		.byte	0xc
 830 02c0 08       		.uleb128 0x8
 831 02c1 8D010000 		.4byte	.LASF55
 832 02c5 07       		.byte	0x7
 833 02c6 9901     		.2byte	0x199
 834 02c8 27020000 		.4byte	0x227
 835 02cc 10       		.byte	0x10
 836 02cd 08       		.uleb128 0x8
 837 02ce D5030000 		.4byte	.LASF56
 838 02d2 07       		.byte	0x7
 839 02d3 9A01     		.2byte	0x19a
 840 02d5 27020000 		.4byte	0x227
 841 02d9 14       		.byte	0x14
 842 02da 08       		.uleb128 0x8
 843 02db CB030000 		.4byte	.LASF57
 844 02df 07       		.byte	0x7
 845 02e0 9D01     		.2byte	0x19d
 846 02e2 27020000 		.4byte	0x227
 847 02e6 18       		.byte	0x18
 848 02e7 00       		.byte	0
 849 02e8 03       		.uleb128 0x3
 850 02e9 4D060000 		.4byte	.LASF58
 851 02ed 06       		.byte	0x6
ARM GAS  /tmp/ccNeGdAE.s 			page 16


 852 02ee 5C       		.byte	0x5c
 853 02ef F3020000 		.4byte	0x2f3
 854 02f3 09       		.uleb128 0x9
 855 02f4 04       		.byte	0x4
 856 02f5 F9020000 		.4byte	0x2f9
 857 02f9 0B       		.uleb128 0xb
 858 02fa 04030000 		.4byte	0x304
 859 02fe 0C       		.uleb128 0xc
 860 02ff 04030000 		.4byte	0x304
 861 0303 00       		.byte	0
 862 0304 0D       		.uleb128 0xd
 863 0305 04       		.byte	0x4
 864 0306 03       		.uleb128 0x3
 865 0307 18040000 		.4byte	.LASF59
 866 030b 06       		.byte	0x6
 867 030c 61       		.byte	0x61
 868 030d 11030000 		.4byte	0x311
 869 0311 0A       		.uleb128 0xa
 870 0312 BA040000 		.4byte	.LASF60
 871 0316 14       		.byte	0x14
 872 0317 07       		.byte	0x7
 873 0318 6D01     		.2byte	0x16d
 874 031a 60030000 		.4byte	0x360
 875 031e 08       		.uleb128 0x8
 876 031f F3010000 		.4byte	.LASF61
 877 0323 07       		.byte	0x7
 878 0324 6E01     		.2byte	0x16e
 879 0326 23070000 		.4byte	0x723
 880 032a 00       		.byte	0
 881 032b 08       		.uleb128 0x8
 882 032c A3010000 		.4byte	.LASF62
 883 0330 07       		.byte	0x7
 884 0331 6F01     		.2byte	0x16f
 885 0333 23070000 		.4byte	0x723
 886 0337 04       		.byte	0x4
 887 0338 08       		.uleb128 0x8
 888 0339 FB040000 		.4byte	.LASF63
 889 033d 07       		.byte	0x7
 890 033e 7001     		.2byte	0x170
 891 0340 26010000 		.4byte	0x126
 892 0344 08       		.byte	0x8
 893 0345 08       		.uleb128 0x8
 894 0346 02070000 		.4byte	.LASF64
 895 034a 07       		.byte	0x7
 896 034b 7101     		.2byte	0x171
 897 034d E8020000 		.4byte	0x2e8
 898 0351 0C       		.byte	0xc
 899 0352 08       		.uleb128 0x8
 900 0353 7F060000 		.4byte	.LASF65
 901 0357 07       		.byte	0x7
 902 0358 7301     		.2byte	0x173
 903 035a 04030000 		.4byte	0x304
 904 035e 10       		.byte	0x10
 905 035f 00       		.byte	0
 906 0360 03       		.uleb128 0x3
 907 0361 A7000000 		.4byte	.LASF66
 908 0365 06       		.byte	0x6
ARM GAS  /tmp/ccNeGdAE.s 			page 17


 909 0366 66       		.byte	0x66
 910 0367 6B030000 		.4byte	0x36b
 911 036b 0A       		.uleb128 0xa
 912 036c 5B030000 		.4byte	.LASF67
 913 0370 10       		.byte	0x10
 914 0371 07       		.byte	0x7
 915 0372 7D01     		.2byte	0x17d
 916 0374 AD030000 		.4byte	0x3ad
 917 0378 08       		.uleb128 0x8
 918 0379 F3010000 		.4byte	.LASF61
 919 037d 07       		.byte	0x7
 920 037e 7E01     		.2byte	0x17e
 921 0380 23070000 		.4byte	0x723
 922 0384 00       		.byte	0
 923 0385 08       		.uleb128 0x8
 924 0386 A3010000 		.4byte	.LASF62
 925 038a 07       		.byte	0x7
 926 038b 8001     		.2byte	0x180
 927 038d 23070000 		.4byte	0x723
 928 0391 04       		.byte	0x4
 929 0392 08       		.uleb128 0x8
 930 0393 FB040000 		.4byte	.LASF63
 931 0397 07       		.byte	0x7
 932 0398 8201     		.2byte	0x182
 933 039a 26010000 		.4byte	0x126
 934 039e 08       		.byte	0x8
 935 039f 08       		.uleb128 0x8
 936 03a0 7E030000 		.4byte	.LASF68
 937 03a4 07       		.byte	0x7
 938 03a5 8A01     		.2byte	0x18a
 939 03a7 26010000 		.4byte	0x126
 940 03ab 0C       		.byte	0xc
 941 03ac 00       		.byte	0
 942 03ad 03       		.uleb128 0x3
 943 03ae 4C000000 		.4byte	.LASF69
 944 03b2 06       		.byte	0x6
 945 03b3 6B       		.byte	0x6b
 946 03b4 B8030000 		.4byte	0x3b8
 947 03b8 0A       		.uleb128 0xa
 948 03b9 37040000 		.4byte	.LASF70
 949 03bd 04       		.byte	0x4
 950 03be 07       		.byte	0x7
 951 03bf A401     		.2byte	0x1a4
 952 03c1 D3030000 		.4byte	0x3d3
 953 03c5 08       		.uleb128 0x8
 954 03c6 61060000 		.4byte	.LASF71
 955 03ca 07       		.byte	0x7
 956 03cb AC01     		.2byte	0x1ac
 957 03cd 29070000 		.4byte	0x729
 958 03d1 00       		.byte	0
 959 03d2 00       		.byte	0
 960 03d3 03       		.uleb128 0x3
 961 03d4 CB020000 		.4byte	.LASF72
 962 03d8 06       		.byte	0x6
 963 03d9 70       		.byte	0x70
 964 03da DE030000 		.4byte	0x3de
 965 03de 0E       		.uleb128 0xe
ARM GAS  /tmp/ccNeGdAE.s 			page 18


 966 03df A1040000 		.4byte	.LASF73
 967 03e3 5001     		.2byte	0x150
 968 03e5 07       		.byte	0x7
 969 03e6 C401     		.2byte	0x1c4
 970 03e8 3A040000 		.4byte	0x43a
 971 03ec 08       		.uleb128 0x8
 972 03ed AB010000 		.4byte	.LASF74
 973 03f1 07       		.byte	0x7
 974 03f2 C801     		.2byte	0x1c8
 975 03f4 81020000 		.4byte	0x281
 976 03f8 00       		.byte	0
 977 03f9 08       		.uleb128 0x8
 978 03fa 32010000 		.4byte	.LASF75
 979 03fe 07       		.byte	0x7
 980 03ff CC01     		.2byte	0x1cc
 981 0401 60030000 		.4byte	0x360
 982 0405 1C       		.byte	0x1c
 983 0406 07       		.uleb128 0x7
 984 0407 64626700 		.ascii	"dbg\000"
 985 040b 07       		.byte	0x7
 986 040c D001     		.2byte	0x1d0
 987 040e AD030000 		.4byte	0x3ad
 988 0412 2C       		.byte	0x2c
 989 0413 08       		.uleb128 0x8
 990 0414 94000000 		.4byte	.LASF76
 991 0418 07       		.byte	0x7
 992 0419 D401     		.2byte	0x1d4
 993 041b 31010000 		.4byte	0x131
 994 041f 30       		.byte	0x30
 995 0420 07       		.uleb128 0x7
 996 0421 746D00   		.ascii	"tm\000"
 997 0424 07       		.byte	0x7
 998 0425 D901     		.2byte	0x1d9
 999 0427 35060000 		.4byte	0x635
 1000 042b 70       		.byte	0x70
 1001 042c 08       		.uleb128 0x8
 1002 042d BE010000 		.4byte	.LASF77
 1003 0431 07       		.byte	0x7
 1004 0432 E501     		.2byte	0x1e5
 1005 0434 2E070000 		.4byte	0x72e
 1006 0438 78       		.byte	0x78
 1007 0439 00       		.byte	0
 1008 043a 04       		.uleb128 0x4
 1009 043b 04       		.byte	0x4
 1010 043c 07       		.byte	0x7
 1011 043d 34030000 		.4byte	.LASF78
 1012 0441 0F       		.uleb128 0xf
 1013 0442 B8000000 		.4byte	0xb8
 1014 0446 10       		.uleb128 0x10
 1015 0447 B8000000 		.4byte	0xb8
 1016 044b 56040000 		.4byte	0x456
 1017 044f 11       		.uleb128 0x11
 1018 0450 3A040000 		.4byte	0x43a
 1019 0454 03       		.byte	0x3
 1020 0455 00       		.byte	0
 1021 0456 12       		.uleb128 0x12
 1022 0457 38       		.byte	0x38
ARM GAS  /tmp/ccNeGdAE.s 			page 19


 1023 0458 08       		.byte	0x8
 1024 0459 7401     		.2byte	0x174
 1025 045b 15050000 		.4byte	0x515
 1026 045f 07       		.uleb128 0x7
 1027 0460 494D5200 		.ascii	"IMR\000"
 1028 0464 08       		.byte	0x8
 1029 0465 7601     		.2byte	0x176
 1030 0467 41040000 		.4byte	0x441
 1031 046b 00       		.byte	0
 1032 046c 07       		.uleb128 0x7
 1033 046d 454D5200 		.ascii	"EMR\000"
 1034 0471 08       		.byte	0x8
 1035 0472 7701     		.2byte	0x177
 1036 0474 41040000 		.4byte	0x441
 1037 0478 04       		.byte	0x4
 1038 0479 08       		.uleb128 0x8
 1039 047a E8030000 		.4byte	.LASF79
 1040 047e 08       		.byte	0x8
 1041 047f 7801     		.2byte	0x178
 1042 0481 41040000 		.4byte	0x441
 1043 0485 08       		.byte	0x8
 1044 0486 08       		.uleb128 0x8
 1045 0487 63040000 		.4byte	.LASF80
 1046 048b 08       		.byte	0x8
 1047 048c 7901     		.2byte	0x179
 1048 048e 41040000 		.4byte	0x441
 1049 0492 0C       		.byte	0xc
 1050 0493 08       		.uleb128 0x8
 1051 0494 61000000 		.4byte	.LASF81
 1052 0498 08       		.byte	0x8
 1053 0499 7A01     		.2byte	0x17a
 1054 049b 41040000 		.4byte	0x441
 1055 049f 10       		.byte	0x10
 1056 04a0 07       		.uleb128 0x7
 1057 04a1 505200   		.ascii	"PR\000"
 1058 04a4 08       		.byte	0x8
 1059 04a5 7B01     		.2byte	0x17b
 1060 04a7 41040000 		.4byte	0x441
 1061 04ab 14       		.byte	0x14
 1062 04ac 08       		.uleb128 0x8
 1063 04ad 04040000 		.4byte	.LASF82
 1064 04b1 08       		.byte	0x8
 1065 04b2 7C01     		.2byte	0x17c
 1066 04b4 B8000000 		.4byte	0xb8
 1067 04b8 18       		.byte	0x18
 1068 04b9 08       		.uleb128 0x8
 1069 04ba 0E040000 		.4byte	.LASF83
 1070 04be 08       		.byte	0x8
 1071 04bf 7D01     		.2byte	0x17d
 1072 04c1 B8000000 		.4byte	0xb8
 1073 04c5 1C       		.byte	0x1c
 1074 04c6 08       		.uleb128 0x8
 1075 04c7 25030000 		.4byte	.LASF84
 1076 04cb 08       		.byte	0x8
 1077 04cc 7E01     		.2byte	0x17e
 1078 04ce 41040000 		.4byte	0x441
 1079 04d2 20       		.byte	0x20
ARM GAS  /tmp/ccNeGdAE.s 			page 20


 1080 04d3 08       		.uleb128 0x8
 1081 04d4 7A060000 		.4byte	.LASF85
 1082 04d8 08       		.byte	0x8
 1083 04d9 7F01     		.2byte	0x17f
 1084 04db 41040000 		.4byte	0x441
 1085 04df 24       		.byte	0x24
 1086 04e0 08       		.uleb128 0x8
 1087 04e1 DF020000 		.4byte	.LASF86
 1088 04e5 08       		.byte	0x8
 1089 04e6 8001     		.2byte	0x180
 1090 04e8 41040000 		.4byte	0x441
 1091 04ec 28       		.byte	0x28
 1092 04ed 08       		.uleb128 0x8
 1093 04ee 5B000000 		.4byte	.LASF87
 1094 04f2 08       		.byte	0x8
 1095 04f3 8101     		.2byte	0x181
 1096 04f5 41040000 		.4byte	0x441
 1097 04f9 2C       		.byte	0x2c
 1098 04fa 08       		.uleb128 0x8
 1099 04fb CA000000 		.4byte	.LASF88
 1100 04ff 08       		.byte	0x8
 1101 0500 8201     		.2byte	0x182
 1102 0502 41040000 		.4byte	0x441
 1103 0506 30       		.byte	0x30
 1104 0507 07       		.uleb128 0x7
 1105 0508 50523200 		.ascii	"PR2\000"
 1106 050c 08       		.byte	0x8
 1107 050d 8301     		.2byte	0x183
 1108 050f 41040000 		.4byte	0x441
 1109 0513 34       		.byte	0x34
 1110 0514 00       		.byte	0
 1111 0515 13       		.uleb128 0x13
 1112 0516 E1060000 		.4byte	.LASF89
 1113 051a 08       		.byte	0x8
 1114 051b 8401     		.2byte	0x184
 1115 051d 56040000 		.4byte	0x456
 1116 0521 12       		.uleb128 0x12
 1117 0522 1C       		.byte	0x1c
 1118 0523 08       		.byte	0x8
 1119 0524 C601     		.2byte	0x1c6
 1120 0526 5F050000 		.4byte	0x55f
 1121 052a 08       		.uleb128 0x8
 1122 052b B0060000 		.4byte	.LASF90
 1123 052f 08       		.byte	0x8
 1124 0530 C801     		.2byte	0x1c8
 1125 0532 41040000 		.4byte	0x441
 1126 0536 00       		.byte	0
 1127 0537 07       		.uleb128 0x7
 1128 0538 52435200 		.ascii	"RCR\000"
 1129 053c 08       		.byte	0x8
 1130 053d C901     		.2byte	0x1c9
 1131 053f 41040000 		.4byte	0x441
 1132 0543 04       		.byte	0x4
 1133 0544 08       		.uleb128 0x8
 1134 0545 0A070000 		.4byte	.LASF91
 1135 0549 08       		.byte	0x8
 1136 054a CA01     		.2byte	0x1ca
ARM GAS  /tmp/ccNeGdAE.s 			page 21


 1137 054c 5F050000 		.4byte	0x55f
 1138 0550 08       		.byte	0x8
 1139 0551 08       		.uleb128 0x8
 1140 0552 B6060000 		.4byte	.LASF92
 1141 0556 08       		.byte	0x8
 1142 0557 CB01     		.2byte	0x1cb
 1143 0559 41040000 		.4byte	0x441
 1144 055d 18       		.byte	0x18
 1145 055e 00       		.byte	0
 1146 055f 0F       		.uleb128 0xf
 1147 0560 46040000 		.4byte	0x446
 1148 0564 13       		.uleb128 0x13
 1149 0565 ED030000 		.4byte	.LASF93
 1150 0569 08       		.byte	0x8
 1151 056a CC01     		.2byte	0x1cc
 1152 056c 21050000 		.4byte	0x521
 1153 0570 03       		.uleb128 0x3
 1154 0571 9A010000 		.4byte	.LASF94
 1155 0575 09       		.byte	0x9
 1156 0576 65       		.byte	0x65
 1157 0577 04030000 		.4byte	0x304
 1158 057b 03       		.uleb128 0x3
 1159 057c 09030000 		.4byte	.LASF95
 1160 0580 09       		.byte	0x9
 1161 0581 6D       		.byte	0x6d
 1162 0582 C3000000 		.4byte	0xc3
 1163 0586 05       		.uleb128 0x5
 1164 0587 4B020000 		.4byte	.LASF96
 1165 058b 04       		.byte	0x4
 1166 058c 09       		.byte	0x9
 1167 058d 89       		.byte	0x89
 1168 058e 9F050000 		.4byte	0x59f
 1169 0592 14       		.uleb128 0x14
 1170 0593 72313300 		.ascii	"r13\000"
 1171 0597 09       		.byte	0x9
 1172 0598 8A       		.byte	0x8a
 1173 0599 1A060000 		.4byte	0x61a
 1174 059d 00       		.byte	0
 1175 059e 00       		.byte	0
 1176 059f 05       		.uleb128 0x5
 1177 05a0 40000000 		.4byte	.LASF97
 1178 05a4 24       		.byte	0x24
 1179 05a5 0A       		.byte	0xa
 1180 05a6 FD       		.byte	0xfd
 1181 05a7 1A060000 		.4byte	0x61a
 1182 05ab 07       		.uleb128 0x7
 1183 05ac 723400   		.ascii	"r4\000"
 1184 05af 0A       		.byte	0xa
 1185 05b0 1001     		.2byte	0x110
 1186 05b2 70050000 		.4byte	0x570
 1187 05b6 00       		.byte	0
 1188 05b7 07       		.uleb128 0x7
 1189 05b8 723500   		.ascii	"r5\000"
 1190 05bb 0A       		.byte	0xa
 1191 05bc 1101     		.2byte	0x111
 1192 05be 70050000 		.4byte	0x570
 1193 05c2 04       		.byte	0x4
ARM GAS  /tmp/ccNeGdAE.s 			page 22


 1194 05c3 07       		.uleb128 0x7
 1195 05c4 723600   		.ascii	"r6\000"
 1196 05c7 0A       		.byte	0xa
 1197 05c8 1201     		.2byte	0x112
 1198 05ca 70050000 		.4byte	0x570
 1199 05ce 08       		.byte	0x8
 1200 05cf 07       		.uleb128 0x7
 1201 05d0 723700   		.ascii	"r7\000"
 1202 05d3 0A       		.byte	0xa
 1203 05d4 1301     		.2byte	0x113
 1204 05d6 70050000 		.4byte	0x570
 1205 05da 0C       		.byte	0xc
 1206 05db 07       		.uleb128 0x7
 1207 05dc 723800   		.ascii	"r8\000"
 1208 05df 0A       		.byte	0xa
 1209 05e0 1401     		.2byte	0x114
 1210 05e2 70050000 		.4byte	0x570
 1211 05e6 10       		.byte	0x10
 1212 05e7 07       		.uleb128 0x7
 1213 05e8 723900   		.ascii	"r9\000"
 1214 05eb 0A       		.byte	0xa
 1215 05ec 1501     		.2byte	0x115
 1216 05ee 70050000 		.4byte	0x570
 1217 05f2 14       		.byte	0x14
 1218 05f3 07       		.uleb128 0x7
 1219 05f4 72313000 		.ascii	"r10\000"
 1220 05f8 0A       		.byte	0xa
 1221 05f9 1601     		.2byte	0x116
 1222 05fb 70050000 		.4byte	0x570
 1223 05ff 18       		.byte	0x18
 1224 0600 07       		.uleb128 0x7
 1225 0601 72313100 		.ascii	"r11\000"
 1226 0605 0A       		.byte	0xa
 1227 0606 1701     		.2byte	0x117
 1228 0608 70050000 		.4byte	0x570
 1229 060c 1C       		.byte	0x1c
 1230 060d 07       		.uleb128 0x7
 1231 060e 6C7200   		.ascii	"lr\000"
 1232 0611 0A       		.byte	0xa
 1233 0612 1801     		.2byte	0x118
 1234 0614 70050000 		.4byte	0x570
 1235 0618 20       		.byte	0x20
 1236 0619 00       		.byte	0
 1237 061a 09       		.uleb128 0x9
 1238 061b 04       		.byte	0x4
 1239 061c 9F050000 		.4byte	0x59f
 1240 0620 15       		.uleb128 0x15
 1241 0621 04       		.byte	0x4
 1242 0622 0B       		.byte	0xb
 1243 0623 38       		.byte	0x38
 1244 0624 35060000 		.4byte	0x635
 1245 0628 06       		.uleb128 0x6
 1246 0629 6B060000 		.4byte	.LASF98
 1247 062d 0B       		.byte	0xb
 1248 062e 3C       		.byte	0x3c
 1249 062f CE000000 		.4byte	0xce
 1250 0633 00       		.byte	0
ARM GAS  /tmp/ccNeGdAE.s 			page 23


 1251 0634 00       		.byte	0
 1252 0635 03       		.uleb128 0x3
 1253 0636 AF030000 		.4byte	.LASF99
 1254 063a 0B       		.byte	0xb
 1255 063b 3D       		.byte	0x3d
 1256 063c 20060000 		.4byte	0x620
 1257 0640 16       		.uleb128 0x16
 1258 0641 04       		.byte	0x4
 1259 0642 07       		.byte	0x7
 1260 0643 FA       		.byte	0xfa
 1261 0644 A9060000 		.4byte	0x6a9
 1262 0648 17       		.uleb128 0x17
 1263 0649 AB040000 		.4byte	.LASF100
 1264 064d 07       		.byte	0x7
 1265 064e 0101     		.2byte	0x101
 1266 0650 05010000 		.4byte	0x105
 1267 0654 17       		.uleb128 0x17
 1268 0655 8B000000 		.4byte	.LASF101
 1269 0659 07       		.byte	0x7
 1270 065a 0801     		.2byte	0x108
 1271 065c 05010000 		.4byte	0x105
 1272 0660 17       		.uleb128 0x17
 1273 0661 C4060000 		.4byte	.LASF102
 1274 0665 07       		.byte	0x7
 1275 0666 0F01     		.2byte	0x10f
 1276 0668 04030000 		.4byte	0x304
 1277 066c 17       		.uleb128 0x17
 1278 066d 72030000 		.4byte	.LASF103
 1279 0671 07       		.byte	0x7
 1280 0672 1601     		.2byte	0x116
 1281 0674 A9060000 		.4byte	0x6a9
 1282 0678 17       		.uleb128 0x17
 1283 0679 9F000000 		.4byte	.LASF104
 1284 067d 07       		.byte	0x7
 1285 067e 1B01     		.2byte	0x11b
 1286 0680 05010000 		.4byte	0x105
 1287 0684 17       		.uleb128 0x17
 1288 0685 FB010000 		.4byte	.LASF105
 1289 0689 07       		.byte	0x7
 1290 068a 2401     		.2byte	0x124
 1291 068c D4060000 		.4byte	0x6d4
 1292 0690 17       		.uleb128 0x17
 1293 0691 EC040000 		.4byte	.LASF106
 1294 0695 07       		.byte	0x7
 1295 0696 2D01     		.2byte	0x12d
 1296 0698 0B070000 		.4byte	0x70b
 1297 069c 17       		.uleb128 0x17
 1298 069d 8B040000 		.4byte	.LASF107
 1299 06a1 07       		.byte	0x7
 1300 06a2 3501     		.2byte	0x135
 1301 06a4 10010000 		.4byte	0x110
 1302 06a8 00       		.byte	0
 1303 06a9 09       		.uleb128 0x9
 1304 06aa 04       		.byte	0x4
 1305 06ab 1C020000 		.4byte	0x21c
 1306 06af 05       		.uleb128 0x5
 1307 06b0 CB040000 		.4byte	.LASF108
ARM GAS  /tmp/ccNeGdAE.s 			page 24


 1308 06b4 0C       		.byte	0xc
 1309 06b5 0C       		.byte	0xc
 1310 06b6 34       		.byte	0x34
 1311 06b7 D4060000 		.4byte	0x6d4
 1312 06bb 06       		.uleb128 0x6
 1313 06bc 6F010000 		.4byte	.LASF109
 1314 06c0 0C       		.byte	0xc
 1315 06c1 35       		.byte	0x35
 1316 06c2 51020000 		.4byte	0x251
 1317 06c6 00       		.byte	0
 1318 06c7 06       		.uleb128 0x6
 1319 06c8 45020000 		.4byte	.LASF110
 1320 06cc 0C       		.byte	0xc
 1321 06cd 37       		.byte	0x37
 1322 06ce 1B010000 		.4byte	0x11b
 1323 06d2 08       		.byte	0x8
 1324 06d3 00       		.byte	0
 1325 06d4 09       		.uleb128 0x9
 1326 06d5 04       		.byte	0x4
 1327 06d6 AF060000 		.4byte	0x6af
 1328 06da 05       		.uleb128 0x5
 1329 06db A0060000 		.4byte	.LASF111
 1330 06df 10       		.byte	0x10
 1331 06e0 0D       		.byte	0xd
 1332 06e1 39       		.byte	0x39
 1333 06e2 0B070000 		.4byte	0x70b
 1334 06e6 06       		.uleb128 0x6
 1335 06e7 2A010000 		.4byte	.LASF112
 1336 06eb 0D       		.byte	0xd
 1337 06ec 3A       		.byte	0x3a
 1338 06ed 51020000 		.4byte	0x251
 1339 06f1 00       		.byte	0
 1340 06f2 06       		.uleb128 0x6
 1341 06f3 F4060000 		.4byte	.LASF113
 1342 06f7 0D       		.byte	0xd
 1343 06f8 3C       		.byte	0x3c
 1344 06f9 27020000 		.4byte	0x227
 1345 06fd 08       		.byte	0x8
 1346 06fe 06       		.uleb128 0x6
 1347 06ff 31060000 		.4byte	.LASF114
 1348 0703 0D       		.byte	0xd
 1349 0704 3E       		.byte	0x3e
 1350 0705 49070000 		.4byte	0x749
 1351 0709 0C       		.byte	0xc
 1352 070a 00       		.byte	0
 1353 070b 09       		.uleb128 0x9
 1354 070c 04       		.byte	0x4
 1355 070d DA060000 		.4byte	0x6da
 1356 0711 09       		.uleb128 0x9
 1357 0712 04       		.byte	0x4
 1358 0713 17070000 		.4byte	0x717
 1359 0717 18       		.uleb128 0x18
 1360 0718 1C070000 		.4byte	0x71c
 1361 071c 04       		.uleb128 0x4
 1362 071d 01       		.byte	0x1
 1363 071e 08       		.byte	0x8
 1364 071f 2F050000 		.4byte	.LASF115
ARM GAS  /tmp/ccNeGdAE.s 			page 25


 1365 0723 09       		.uleb128 0x9
 1366 0724 04       		.byte	0x4
 1367 0725 06030000 		.4byte	0x306
 1368 0729 0F       		.uleb128 0xf
 1369 072a 11070000 		.4byte	0x711
 1370 072e 10       		.uleb128 0x10
 1371 072f 7B050000 		.4byte	0x57b
 1372 0733 3E070000 		.4byte	0x73e
 1373 0737 11       		.uleb128 0x11
 1374 0738 3A040000 		.4byte	0x43a
 1375 073c 1A       		.byte	0x1a
 1376 073d 00       		.byte	0
 1377 073e 03       		.uleb128 0x3
 1378 073f B6010000 		.4byte	.LASF116
 1379 0743 0D       		.byte	0xd
 1380 0744 34       		.byte	0x34
 1381 0745 DA060000 		.4byte	0x6da
 1382 0749 09       		.uleb128 0x9
 1383 074a 04       		.byte	0x4
 1384 074b 3E070000 		.4byte	0x73e
 1385 074f 04       		.uleb128 0x4
 1386 0750 01       		.byte	0x1
 1387 0751 02       		.byte	0x2
 1388 0752 47040000 		.4byte	.LASF117
 1389 0756 19       		.uleb128 0x19
 1390 0757 01       		.byte	0x1
 1391 0758 0E       		.byte	0xe
 1392 0759 3F       		.byte	0x3f
 1393 075a 71070000 		.4byte	0x771
 1394 075e 1A       		.uleb128 0x1a
 1395 075f C0030000 		.4byte	.LASF118
 1396 0763 00       		.sleb128 0
 1397 0764 1A       		.uleb128 0x1a
 1398 0765 26050000 		.4byte	.LASF119
 1399 0769 01       		.sleb128 1
 1400 076a 1A       		.uleb128 0x1a
 1401 076b 14030000 		.4byte	.LASF120
 1402 076f 02       		.sleb128 2
 1403 0770 00       		.byte	0
 1404 0771 03       		.uleb128 0x3
 1405 0772 50030000 		.4byte	.LASF121
 1406 0776 0E       		.byte	0xe
 1407 0777 43       		.byte	0x43
 1408 0778 56070000 		.4byte	0x756
 1409 077c 03       		.uleb128 0x3
 1410 077d 86060000 		.4byte	.LASF122
 1411 0781 0E       		.byte	0xe
 1412 0782 48       		.byte	0x48
 1413 0783 87070000 		.4byte	0x787
 1414 0787 05       		.uleb128 0x5
 1415 0788 86060000 		.4byte	.LASF122
 1416 078c 08       		.byte	0x8
 1417 078d 0F       		.byte	0xf
 1418 078e 73       		.byte	0x73
 1419 078f AC070000 		.4byte	0x7ac
 1420 0793 06       		.uleb128 0x6
 1421 0794 46010000 		.4byte	.LASF123
ARM GAS  /tmp/ccNeGdAE.s 			page 26


 1422 0798 0F       		.byte	0xf
 1423 0799 77       		.byte	0x77
 1424 079a 71070000 		.4byte	0x771
 1425 079e 00       		.byte	0
 1426 079f 06       		.uleb128 0x6
 1427 07a0 39050000 		.4byte	.LASF124
 1428 07a4 0F       		.byte	0xf
 1429 07a5 7B       		.byte	0x7b
 1430 07a6 3A080000 		.4byte	0x83a
 1431 07aa 04       		.byte	0x4
 1432 07ab 00       		.byte	0
 1433 07ac 03       		.uleb128 0x3
 1434 07ad 33000000 		.4byte	.LASF125
 1435 07b1 0F       		.byte	0xf
 1436 07b2 49       		.byte	0x49
 1437 07b3 B8000000 		.4byte	0xb8
 1438 07b7 03       		.uleb128 0x3
 1439 07b8 40050000 		.4byte	.LASF126
 1440 07bc 0F       		.byte	0xf
 1441 07bd 51       		.byte	0x51
 1442 07be C2070000 		.4byte	0x7c2
 1443 07c2 09       		.uleb128 0x9
 1444 07c3 04       		.byte	0x4
 1445 07c4 C8070000 		.4byte	0x7c8
 1446 07c8 0B       		.uleb128 0xb
 1447 07c9 D8070000 		.4byte	0x7d8
 1448 07cd 0C       		.uleb128 0xc
 1449 07ce D8070000 		.4byte	0x7d8
 1450 07d2 0C       		.uleb128 0xc
 1451 07d3 AC070000 		.4byte	0x7ac
 1452 07d7 00       		.byte	0
 1453 07d8 09       		.uleb128 0x9
 1454 07d9 04       		.byte	0x4
 1455 07da 7C070000 		.4byte	0x77c
 1456 07de 15       		.uleb128 0x15
 1457 07df 08       		.byte	0x8
 1458 07e0 0F       		.byte	0xf
 1459 07e1 56       		.byte	0x56
 1460 07e2 FE070000 		.4byte	0x7fe
 1461 07e6 06       		.uleb128 0x6
 1462 07e7 34050000 		.4byte	.LASF127
 1463 07eb 0F       		.byte	0xf
 1464 07ec 5A       		.byte	0x5a
 1465 07ed B8000000 		.4byte	0xb8
 1466 07f1 00       		.byte	0
 1467 07f2 14       		.uleb128 0x14
 1468 07f3 636200   		.ascii	"cb\000"
 1469 07f6 0F       		.byte	0xf
 1470 07f7 61       		.byte	0x61
 1471 07f8 B7070000 		.4byte	0x7b7
 1472 07fc 04       		.byte	0x4
 1473 07fd 00       		.byte	0
 1474 07fe 03       		.uleb128 0x3
 1475 07ff 77010000 		.4byte	.LASF128
 1476 0803 0F       		.byte	0xf
 1477 0804 62       		.byte	0x62
 1478 0805 DE070000 		.4byte	0x7de
ARM GAS  /tmp/ccNeGdAE.s 			page 27


 1479 0809 1B       		.uleb128 0x1b
 1480 080a 1001     		.2byte	0x110
 1481 080c 0F       		.byte	0xf
 1482 080d 68       		.byte	0x68
 1483 080e 1F080000 		.4byte	0x81f
 1484 0812 06       		.uleb128 0x6
 1485 0813 4C010000 		.4byte	.LASF129
 1486 0817 0F       		.byte	0xf
 1487 0818 6C       		.byte	0x6c
 1488 0819 1F080000 		.4byte	0x81f
 1489 081d 00       		.byte	0
 1490 081e 00       		.byte	0
 1491 081f 10       		.uleb128 0x10
 1492 0820 FE070000 		.4byte	0x7fe
 1493 0824 2F080000 		.4byte	0x82f
 1494 0828 11       		.uleb128 0x11
 1495 0829 3A040000 		.4byte	0x43a
 1496 082d 21       		.byte	0x21
 1497 082e 00       		.byte	0
 1498 082f 03       		.uleb128 0x3
 1499 0830 88020000 		.4byte	.LASF130
 1500 0834 0F       		.byte	0xf
 1501 0835 6E       		.byte	0x6e
 1502 0836 09080000 		.4byte	0x809
 1503 083a 09       		.uleb128 0x9
 1504 083b 04       		.byte	0x4
 1505 083c 40080000 		.4byte	0x840
 1506 0840 18       		.uleb128 0x18
 1507 0841 2F080000 		.4byte	0x82f
 1508 0845 1C       		.uleb128 0x1c
 1509 0846 39010000 		.4byte	.LASF131
 1510 084a 01       		.byte	0x1
 1511 084b 48       		.byte	0x48
 1512 084c 00000000 		.4byte	.LFB272
 1513 0850 0C000000 		.4byte	.LFE272-.LFB272
 1514 0854 01       		.uleb128 0x1
 1515 0855 9C       		.byte	0x9c
 1516 0856 6E080000 		.4byte	0x86e
 1517 085a 1D       		.uleb128 0x1d
 1518 085b 06000000 		.4byte	.LVL0
 1519 085f E2090000 		.4byte	0x9e2
 1520 0863 1E       		.uleb128 0x1e
 1521 0864 01       		.uleb128 0x1
 1522 0865 50       		.byte	0x50
 1523 0866 05       		.uleb128 0x5
 1524 0867 03       		.byte	0x3
 1525 0868 00000000 		.4byte	.LANCHOR0
 1526 086c 00       		.byte	0
 1527 086d 00       		.byte	0
 1528 086e 1C       		.uleb128 0x1c
 1529 086f 7E000000 		.4byte	.LASF132
 1530 0873 01       		.byte	0x1
 1531 0874 6A       		.byte	0x6a
 1532 0875 00000000 		.4byte	.LFB274
 1533 0879 30000000 		.4byte	.LFE274-.LFB274
 1534 087d 01       		.uleb128 0x1
 1535 087e 9C       		.byte	0x9c
ARM GAS  /tmp/ccNeGdAE.s 			page 28


 1536 087f 9C080000 		.4byte	0x89c
 1537 0883 1F       		.uleb128 0x1f
 1538 0884 0F010000 		.4byte	.LASF134
 1539 0888 01       		.byte	0x1
 1540 0889 6A       		.byte	0x6a
 1541 088a D8070000 		.4byte	0x7d8
 1542 088e 00000000 		.4byte	.LLST0
 1543 0892 20       		.uleb128 0x20
 1544 0893 2A000000 		.4byte	.LVL4
 1545 0897 F3090000 		.4byte	0x9f3
 1546 089b 00       		.byte	0
 1547 089c 1C       		.uleb128 0x1c
 1548 089d 98030000 		.4byte	.LASF133
 1549 08a1 01       		.byte	0x1
 1550 08a2 80       		.byte	0x80
 1551 08a3 00000000 		.4byte	.LFB275
 1552 08a7 04010000 		.4byte	.LFE275-.LFB275
 1553 08ab 01       		.uleb128 0x1
 1554 08ac 9C       		.byte	0x9c
 1555 08ad 14090000 		.4byte	0x914
 1556 08b1 1F       		.uleb128 0x1f
 1557 08b2 0F010000 		.4byte	.LASF134
 1558 08b6 01       		.byte	0x1
 1559 08b7 80       		.byte	0x80
 1560 08b8 D8070000 		.4byte	0x7d8
 1561 08bc 3A000000 		.4byte	.LLST1
 1562 08c0 1F       		.uleb128 0x1f
 1563 08c1 B2040000 		.4byte	.LASF135
 1564 08c5 01       		.byte	0x1
 1565 08c6 80       		.byte	0x80
 1566 08c7 AC070000 		.4byte	0x7ac
 1567 08cb 74000000 		.4byte	.LLST2
 1568 08cf 21       		.uleb128 0x21
 1569 08d0 1F030000 		.4byte	.LASF136
 1570 08d4 01       		.byte	0x1
 1571 08d5 81       		.byte	0x81
 1572 08d6 B8000000 		.4byte	0xb8
 1573 08da AE000000 		.4byte	.LLST3
 1574 08de 22       		.uleb128 0x22
 1575 08df 14000000 		.4byte	.LBB2
 1576 08e3 2A000000 		.4byte	.LBE2-.LBB2
 1577 08e7 23       		.uleb128 0x23
 1578 08e8 6E00     		.ascii	"n\000"
 1579 08ea 01       		.byte	0x1
 1580 08eb 85       		.byte	0x85
 1581 08ec B8000000 		.4byte	0xb8
 1582 08f0 2A010000 		.4byte	.LLST4
 1583 08f4 21       		.uleb128 0x21
 1584 08f5 95010000 		.4byte	.LASF137
 1585 08f9 01       		.byte	0x1
 1586 08fa 86       		.byte	0x86
 1587 08fb B8000000 		.4byte	0xb8
 1588 08ff 41010000 		.4byte	.LLST5
 1589 0903 21       		.uleb128 0x21
 1590 0904 B1010000 		.4byte	.LASF138
 1591 0908 01       		.byte	0x1
 1592 0909 87       		.byte	0x87
ARM GAS  /tmp/ccNeGdAE.s 			page 29


 1593 090a B8000000 		.4byte	0xb8
 1594 090e 6D010000 		.4byte	.LLST6
 1595 0912 00       		.byte	0
 1596 0913 00       		.byte	0
 1597 0914 1C       		.uleb128 0x1c
 1598 0915 E2000000 		.4byte	.LASF139
 1599 0919 01       		.byte	0x1
 1600 091a D4       		.byte	0xd4
 1601 091b 00000000 		.4byte	.LFB276
 1602 091f 50000000 		.4byte	.LFE276-.LFB276
 1603 0923 01       		.uleb128 0x1
 1604 0924 9C       		.byte	0x9c
 1605 0925 55090000 		.4byte	0x955
 1606 0929 1F       		.uleb128 0x1f
 1607 092a 0F010000 		.4byte	.LASF134
 1608 092e 01       		.byte	0x1
 1609 092f D4       		.byte	0xd4
 1610 0930 D8070000 		.4byte	0x7d8
 1611 0934 CC010000 		.4byte	.LLST7
 1612 0938 1F       		.uleb128 0x1f
 1613 0939 B2040000 		.4byte	.LASF135
 1614 093d 01       		.byte	0x1
 1615 093e D4       		.byte	0xd4
 1616 093f AC070000 		.4byte	0x7ac
 1617 0943 ED010000 		.4byte	.LLST8
 1618 0947 24       		.uleb128 0x24
 1619 0948 1F030000 		.4byte	.LASF136
 1620 094c 01       		.byte	0x1
 1621 094d D5       		.byte	0xd5
 1622 094e B8000000 		.4byte	0xb8
 1623 0952 01       		.uleb128 0x1
 1624 0953 50       		.byte	0x50
 1625 0954 00       		.byte	0
 1626 0955 1C       		.uleb128 0x1c
 1627 0956 37020000 		.4byte	.LASF140
 1628 095a 01       		.byte	0x1
 1629 095b 55       		.byte	0x55
 1630 095c 00000000 		.4byte	.LFB273
 1631 0960 3A000000 		.4byte	.LFE273-.LFB273
 1632 0964 01       		.uleb128 0x1
 1633 0965 9C       		.byte	0x9c
 1634 0966 B5090000 		.4byte	0x9b5
 1635 096a 1F       		.uleb128 0x1f
 1636 096b 0F010000 		.4byte	.LASF134
 1637 096f 01       		.byte	0x1
 1638 0970 55       		.byte	0x55
 1639 0971 D8070000 		.4byte	0x7d8
 1640 0975 27020000 		.4byte	.LLST9
 1641 0979 21       		.uleb128 0x21
 1642 097a 88010000 		.4byte	.LASF141
 1643 097e 01       		.byte	0x1
 1644 097f 56       		.byte	0x56
 1645 0980 AC070000 		.4byte	0x7ac
 1646 0984 87020000 		.4byte	.LLST10
 1647 0988 20       		.uleb128 0x20
 1648 0989 14000000 		.4byte	.LVL32
 1649 098d 9C080000 		.4byte	0x89c
ARM GAS  /tmp/ccNeGdAE.s 			page 30


 1650 0991 25       		.uleb128 0x25
 1651 0992 2E000000 		.4byte	.LVL36
 1652 0996 14090000 		.4byte	0x914
 1653 099a AB090000 		.4byte	0x9ab
 1654 099e 1E       		.uleb128 0x1e
 1655 099f 01       		.uleb128 0x1
 1656 09a0 51       		.byte	0x51
 1657 09a1 02       		.uleb128 0x2
 1658 09a2 74       		.byte	0x74
 1659 09a3 7F       		.sleb128 -1
 1660 09a4 1E       		.uleb128 0x1e
 1661 09a5 01       		.uleb128 0x1
 1662 09a6 50       		.byte	0x50
 1663 09a7 02       		.uleb128 0x2
 1664 09a8 75       		.byte	0x75
 1665 09a9 00       		.sleb128 0
 1666 09aa 00       		.byte	0
 1667 09ab 20       		.uleb128 0x20
 1668 09ac 38000000 		.4byte	.LVL38
 1669 09b0 FA090000 		.4byte	0x9fa
 1670 09b4 00       		.byte	0
 1671 09b5 26       		.uleb128 0x26
 1672 09b6 BD000000 		.4byte	.LASF142
 1673 09ba 10       		.byte	0x10
 1674 09bb FA06     		.2byte	0x6fa
 1675 09bd C1090000 		.4byte	0x9c1
 1676 09c1 0F       		.uleb128 0xf
 1677 09c2 AD000000 		.4byte	0xad
 1678 09c6 27       		.uleb128 0x27
 1679 09c7 636800   		.ascii	"ch\000"
 1680 09ca 07       		.byte	0x7
 1681 09cb 0B02     		.2byte	0x20b
 1682 09cd D3030000 		.4byte	0x3d3
 1683 09d1 28       		.uleb128 0x28
 1684 09d2 EE060000 		.4byte	.LASF143
 1685 09d6 01       		.byte	0x1
 1686 09d7 31       		.byte	0x31
 1687 09d8 7C070000 		.4byte	0x77c
 1688 09dc 05       		.uleb128 0x5
 1689 09dd 03       		.byte	0x3
 1690 09de 00000000 		.4byte	EXTD1
 1691 09e2 29       		.uleb128 0x29
 1692 09e3 14010000 		.4byte	.LASF149
 1693 09e7 0E       		.byte	0xe
 1694 09e8 86       		.byte	0x86
 1695 09e9 F3090000 		.4byte	0x9f3
 1696 09ed 0C       		.uleb128 0xc
 1697 09ee D8070000 		.4byte	0x7d8
 1698 09f2 00       		.byte	0
 1699 09f3 2A       		.uleb128 0x2a
 1700 09f4 CD010000 		.4byte	.LASF144
 1701 09f8 11       		.byte	0x11
 1702 09f9 A8       		.byte	0xa8
 1703 09fa 2A       		.uleb128 0x2a
 1704 09fb 66020000 		.4byte	.LASF145
 1705 09ff 11       		.byte	0x11
 1706 0a00 A7       		.byte	0xa7
ARM GAS  /tmp/ccNeGdAE.s 			page 31


 1707 0a01 00       		.byte	0
 1708              		.section	.debug_abbrev,"",%progbits
 1709              	.Ldebug_abbrev0:
 1710 0000 01       		.uleb128 0x1
 1711 0001 11       		.uleb128 0x11
 1712 0002 01       		.byte	0x1
 1713 0003 25       		.uleb128 0x25
 1714 0004 0E       		.uleb128 0xe
 1715 0005 13       		.uleb128 0x13
 1716 0006 0B       		.uleb128 0xb
 1717 0007 03       		.uleb128 0x3
 1718 0008 0E       		.uleb128 0xe
 1719 0009 1B       		.uleb128 0x1b
 1720 000a 0E       		.uleb128 0xe
 1721 000b 55       		.uleb128 0x55
 1722 000c 17       		.uleb128 0x17
 1723 000d 11       		.uleb128 0x11
 1724 000e 01       		.uleb128 0x1
 1725 000f 10       		.uleb128 0x10
 1726 0010 17       		.uleb128 0x17
 1727 0011 00       		.byte	0
 1728 0012 00       		.byte	0
 1729 0013 02       		.uleb128 0x2
 1730 0014 24       		.uleb128 0x24
 1731 0015 00       		.byte	0
 1732 0016 0B       		.uleb128 0xb
 1733 0017 0B       		.uleb128 0xb
 1734 0018 3E       		.uleb128 0x3e
 1735 0019 0B       		.uleb128 0xb
 1736 001a 03       		.uleb128 0x3
 1737 001b 08       		.uleb128 0x8
 1738 001c 00       		.byte	0
 1739 001d 00       		.byte	0
 1740 001e 03       		.uleb128 0x3
 1741 001f 16       		.uleb128 0x16
 1742 0020 00       		.byte	0
 1743 0021 03       		.uleb128 0x3
 1744 0022 0E       		.uleb128 0xe
 1745 0023 3A       		.uleb128 0x3a
 1746 0024 0B       		.uleb128 0xb
 1747 0025 3B       		.uleb128 0x3b
 1748 0026 0B       		.uleb128 0xb
 1749 0027 49       		.uleb128 0x49
 1750 0028 13       		.uleb128 0x13
 1751 0029 00       		.byte	0
 1752 002a 00       		.byte	0
 1753 002b 04       		.uleb128 0x4
 1754 002c 24       		.uleb128 0x24
 1755 002d 00       		.byte	0
 1756 002e 0B       		.uleb128 0xb
 1757 002f 0B       		.uleb128 0xb
 1758 0030 3E       		.uleb128 0x3e
 1759 0031 0B       		.uleb128 0xb
 1760 0032 03       		.uleb128 0x3
 1761 0033 0E       		.uleb128 0xe
 1762 0034 00       		.byte	0
 1763 0035 00       		.byte	0
ARM GAS  /tmp/ccNeGdAE.s 			page 32


 1764 0036 05       		.uleb128 0x5
 1765 0037 13       		.uleb128 0x13
 1766 0038 01       		.byte	0x1
 1767 0039 03       		.uleb128 0x3
 1768 003a 0E       		.uleb128 0xe
 1769 003b 0B       		.uleb128 0xb
 1770 003c 0B       		.uleb128 0xb
 1771 003d 3A       		.uleb128 0x3a
 1772 003e 0B       		.uleb128 0xb
 1773 003f 3B       		.uleb128 0x3b
 1774 0040 0B       		.uleb128 0xb
 1775 0041 01       		.uleb128 0x1
 1776 0042 13       		.uleb128 0x13
 1777 0043 00       		.byte	0
 1778 0044 00       		.byte	0
 1779 0045 06       		.uleb128 0x6
 1780 0046 0D       		.uleb128 0xd
 1781 0047 00       		.byte	0
 1782 0048 03       		.uleb128 0x3
 1783 0049 0E       		.uleb128 0xe
 1784 004a 3A       		.uleb128 0x3a
 1785 004b 0B       		.uleb128 0xb
 1786 004c 3B       		.uleb128 0x3b
 1787 004d 0B       		.uleb128 0xb
 1788 004e 49       		.uleb128 0x49
 1789 004f 13       		.uleb128 0x13
 1790 0050 38       		.uleb128 0x38
 1791 0051 0B       		.uleb128 0xb
 1792 0052 00       		.byte	0
 1793 0053 00       		.byte	0
 1794 0054 07       		.uleb128 0x7
 1795 0055 0D       		.uleb128 0xd
 1796 0056 00       		.byte	0
 1797 0057 03       		.uleb128 0x3
 1798 0058 08       		.uleb128 0x8
 1799 0059 3A       		.uleb128 0x3a
 1800 005a 0B       		.uleb128 0xb
 1801 005b 3B       		.uleb128 0x3b
 1802 005c 05       		.uleb128 0x5
 1803 005d 49       		.uleb128 0x49
 1804 005e 13       		.uleb128 0x13
 1805 005f 38       		.uleb128 0x38
 1806 0060 0B       		.uleb128 0xb
 1807 0061 00       		.byte	0
 1808 0062 00       		.byte	0
 1809 0063 08       		.uleb128 0x8
 1810 0064 0D       		.uleb128 0xd
 1811 0065 00       		.byte	0
 1812 0066 03       		.uleb128 0x3
 1813 0067 0E       		.uleb128 0xe
 1814 0068 3A       		.uleb128 0x3a
 1815 0069 0B       		.uleb128 0xb
 1816 006a 3B       		.uleb128 0x3b
 1817 006b 05       		.uleb128 0x5
 1818 006c 49       		.uleb128 0x49
 1819 006d 13       		.uleb128 0x13
 1820 006e 38       		.uleb128 0x38
ARM GAS  /tmp/ccNeGdAE.s 			page 33


 1821 006f 0B       		.uleb128 0xb
 1822 0070 00       		.byte	0
 1823 0071 00       		.byte	0
 1824 0072 09       		.uleb128 0x9
 1825 0073 0F       		.uleb128 0xf
 1826 0074 00       		.byte	0
 1827 0075 0B       		.uleb128 0xb
 1828 0076 0B       		.uleb128 0xb
 1829 0077 49       		.uleb128 0x49
 1830 0078 13       		.uleb128 0x13
 1831 0079 00       		.byte	0
 1832 007a 00       		.byte	0
 1833 007b 0A       		.uleb128 0xa
 1834 007c 13       		.uleb128 0x13
 1835 007d 01       		.byte	0x1
 1836 007e 03       		.uleb128 0x3
 1837 007f 0E       		.uleb128 0xe
 1838 0080 0B       		.uleb128 0xb
 1839 0081 0B       		.uleb128 0xb
 1840 0082 3A       		.uleb128 0x3a
 1841 0083 0B       		.uleb128 0xb
 1842 0084 3B       		.uleb128 0x3b
 1843 0085 05       		.uleb128 0x5
 1844 0086 01       		.uleb128 0x1
 1845 0087 13       		.uleb128 0x13
 1846 0088 00       		.byte	0
 1847 0089 00       		.byte	0
 1848 008a 0B       		.uleb128 0xb
 1849 008b 15       		.uleb128 0x15
 1850 008c 01       		.byte	0x1
 1851 008d 27       		.uleb128 0x27
 1852 008e 19       		.uleb128 0x19
 1853 008f 01       		.uleb128 0x1
 1854 0090 13       		.uleb128 0x13
 1855 0091 00       		.byte	0
 1856 0092 00       		.byte	0
 1857 0093 0C       		.uleb128 0xc
 1858 0094 05       		.uleb128 0x5
 1859 0095 00       		.byte	0
 1860 0096 49       		.uleb128 0x49
 1861 0097 13       		.uleb128 0x13
 1862 0098 00       		.byte	0
 1863 0099 00       		.byte	0
 1864 009a 0D       		.uleb128 0xd
 1865 009b 0F       		.uleb128 0xf
 1866 009c 00       		.byte	0
 1867 009d 0B       		.uleb128 0xb
 1868 009e 0B       		.uleb128 0xb
 1869 009f 00       		.byte	0
 1870 00a0 00       		.byte	0
 1871 00a1 0E       		.uleb128 0xe
 1872 00a2 13       		.uleb128 0x13
 1873 00a3 01       		.byte	0x1
 1874 00a4 03       		.uleb128 0x3
 1875 00a5 0E       		.uleb128 0xe
 1876 00a6 0B       		.uleb128 0xb
 1877 00a7 05       		.uleb128 0x5
ARM GAS  /tmp/ccNeGdAE.s 			page 34


 1878 00a8 3A       		.uleb128 0x3a
 1879 00a9 0B       		.uleb128 0xb
 1880 00aa 3B       		.uleb128 0x3b
 1881 00ab 05       		.uleb128 0x5
 1882 00ac 01       		.uleb128 0x1
 1883 00ad 13       		.uleb128 0x13
 1884 00ae 00       		.byte	0
 1885 00af 00       		.byte	0
 1886 00b0 0F       		.uleb128 0xf
 1887 00b1 35       		.uleb128 0x35
 1888 00b2 00       		.byte	0
 1889 00b3 49       		.uleb128 0x49
 1890 00b4 13       		.uleb128 0x13
 1891 00b5 00       		.byte	0
 1892 00b6 00       		.byte	0
 1893 00b7 10       		.uleb128 0x10
 1894 00b8 01       		.uleb128 0x1
 1895 00b9 01       		.byte	0x1
 1896 00ba 49       		.uleb128 0x49
 1897 00bb 13       		.uleb128 0x13
 1898 00bc 01       		.uleb128 0x1
 1899 00bd 13       		.uleb128 0x13
 1900 00be 00       		.byte	0
 1901 00bf 00       		.byte	0
 1902 00c0 11       		.uleb128 0x11
 1903 00c1 21       		.uleb128 0x21
 1904 00c2 00       		.byte	0
 1905 00c3 49       		.uleb128 0x49
 1906 00c4 13       		.uleb128 0x13
 1907 00c5 2F       		.uleb128 0x2f
 1908 00c6 0B       		.uleb128 0xb
 1909 00c7 00       		.byte	0
 1910 00c8 00       		.byte	0
 1911 00c9 12       		.uleb128 0x12
 1912 00ca 13       		.uleb128 0x13
 1913 00cb 01       		.byte	0x1
 1914 00cc 0B       		.uleb128 0xb
 1915 00cd 0B       		.uleb128 0xb
 1916 00ce 3A       		.uleb128 0x3a
 1917 00cf 0B       		.uleb128 0xb
 1918 00d0 3B       		.uleb128 0x3b
 1919 00d1 05       		.uleb128 0x5
 1920 00d2 01       		.uleb128 0x1
 1921 00d3 13       		.uleb128 0x13
 1922 00d4 00       		.byte	0
 1923 00d5 00       		.byte	0
 1924 00d6 13       		.uleb128 0x13
 1925 00d7 16       		.uleb128 0x16
 1926 00d8 00       		.byte	0
 1927 00d9 03       		.uleb128 0x3
 1928 00da 0E       		.uleb128 0xe
 1929 00db 3A       		.uleb128 0x3a
 1930 00dc 0B       		.uleb128 0xb
 1931 00dd 3B       		.uleb128 0x3b
 1932 00de 05       		.uleb128 0x5
 1933 00df 49       		.uleb128 0x49
 1934 00e0 13       		.uleb128 0x13
ARM GAS  /tmp/ccNeGdAE.s 			page 35


 1935 00e1 00       		.byte	0
 1936 00e2 00       		.byte	0
 1937 00e3 14       		.uleb128 0x14
 1938 00e4 0D       		.uleb128 0xd
 1939 00e5 00       		.byte	0
 1940 00e6 03       		.uleb128 0x3
 1941 00e7 08       		.uleb128 0x8
 1942 00e8 3A       		.uleb128 0x3a
 1943 00e9 0B       		.uleb128 0xb
 1944 00ea 3B       		.uleb128 0x3b
 1945 00eb 0B       		.uleb128 0xb
 1946 00ec 49       		.uleb128 0x49
 1947 00ed 13       		.uleb128 0x13
 1948 00ee 38       		.uleb128 0x38
 1949 00ef 0B       		.uleb128 0xb
 1950 00f0 00       		.byte	0
 1951 00f1 00       		.byte	0
 1952 00f2 15       		.uleb128 0x15
 1953 00f3 13       		.uleb128 0x13
 1954 00f4 01       		.byte	0x1
 1955 00f5 0B       		.uleb128 0xb
 1956 00f6 0B       		.uleb128 0xb
 1957 00f7 3A       		.uleb128 0x3a
 1958 00f8 0B       		.uleb128 0xb
 1959 00f9 3B       		.uleb128 0x3b
 1960 00fa 0B       		.uleb128 0xb
 1961 00fb 01       		.uleb128 0x1
 1962 00fc 13       		.uleb128 0x13
 1963 00fd 00       		.byte	0
 1964 00fe 00       		.byte	0
 1965 00ff 16       		.uleb128 0x16
 1966 0100 17       		.uleb128 0x17
 1967 0101 01       		.byte	0x1
 1968 0102 0B       		.uleb128 0xb
 1969 0103 0B       		.uleb128 0xb
 1970 0104 3A       		.uleb128 0x3a
 1971 0105 0B       		.uleb128 0xb
 1972 0106 3B       		.uleb128 0x3b
 1973 0107 0B       		.uleb128 0xb
 1974 0108 01       		.uleb128 0x1
 1975 0109 13       		.uleb128 0x13
 1976 010a 00       		.byte	0
 1977 010b 00       		.byte	0
 1978 010c 17       		.uleb128 0x17
 1979 010d 0D       		.uleb128 0xd
 1980 010e 00       		.byte	0
 1981 010f 03       		.uleb128 0x3
 1982 0110 0E       		.uleb128 0xe
 1983 0111 3A       		.uleb128 0x3a
 1984 0112 0B       		.uleb128 0xb
 1985 0113 3B       		.uleb128 0x3b
 1986 0114 05       		.uleb128 0x5
 1987 0115 49       		.uleb128 0x49
 1988 0116 13       		.uleb128 0x13
 1989 0117 00       		.byte	0
 1990 0118 00       		.byte	0
 1991 0119 18       		.uleb128 0x18
ARM GAS  /tmp/ccNeGdAE.s 			page 36


 1992 011a 26       		.uleb128 0x26
 1993 011b 00       		.byte	0
 1994 011c 49       		.uleb128 0x49
 1995 011d 13       		.uleb128 0x13
 1996 011e 00       		.byte	0
 1997 011f 00       		.byte	0
 1998 0120 19       		.uleb128 0x19
 1999 0121 04       		.uleb128 0x4
 2000 0122 01       		.byte	0x1
 2001 0123 0B       		.uleb128 0xb
 2002 0124 0B       		.uleb128 0xb
 2003 0125 3A       		.uleb128 0x3a
 2004 0126 0B       		.uleb128 0xb
 2005 0127 3B       		.uleb128 0x3b
 2006 0128 0B       		.uleb128 0xb
 2007 0129 01       		.uleb128 0x1
 2008 012a 13       		.uleb128 0x13
 2009 012b 00       		.byte	0
 2010 012c 00       		.byte	0
 2011 012d 1A       		.uleb128 0x1a
 2012 012e 28       		.uleb128 0x28
 2013 012f 00       		.byte	0
 2014 0130 03       		.uleb128 0x3
 2015 0131 0E       		.uleb128 0xe
 2016 0132 1C       		.uleb128 0x1c
 2017 0133 0D       		.uleb128 0xd
 2018 0134 00       		.byte	0
 2019 0135 00       		.byte	0
 2020 0136 1B       		.uleb128 0x1b
 2021 0137 13       		.uleb128 0x13
 2022 0138 01       		.byte	0x1
 2023 0139 0B       		.uleb128 0xb
 2024 013a 05       		.uleb128 0x5
 2025 013b 3A       		.uleb128 0x3a
 2026 013c 0B       		.uleb128 0xb
 2027 013d 3B       		.uleb128 0x3b
 2028 013e 0B       		.uleb128 0xb
 2029 013f 01       		.uleb128 0x1
 2030 0140 13       		.uleb128 0x13
 2031 0141 00       		.byte	0
 2032 0142 00       		.byte	0
 2033 0143 1C       		.uleb128 0x1c
 2034 0144 2E       		.uleb128 0x2e
 2035 0145 01       		.byte	0x1
 2036 0146 3F       		.uleb128 0x3f
 2037 0147 19       		.uleb128 0x19
 2038 0148 03       		.uleb128 0x3
 2039 0149 0E       		.uleb128 0xe
 2040 014a 3A       		.uleb128 0x3a
 2041 014b 0B       		.uleb128 0xb
 2042 014c 3B       		.uleb128 0x3b
 2043 014d 0B       		.uleb128 0xb
 2044 014e 27       		.uleb128 0x27
 2045 014f 19       		.uleb128 0x19
 2046 0150 11       		.uleb128 0x11
 2047 0151 01       		.uleb128 0x1
 2048 0152 12       		.uleb128 0x12
ARM GAS  /tmp/ccNeGdAE.s 			page 37


 2049 0153 06       		.uleb128 0x6
 2050 0154 40       		.uleb128 0x40
 2051 0155 18       		.uleb128 0x18
 2052 0156 9742     		.uleb128 0x2117
 2053 0158 19       		.uleb128 0x19
 2054 0159 01       		.uleb128 0x1
 2055 015a 13       		.uleb128 0x13
 2056 015b 00       		.byte	0
 2057 015c 00       		.byte	0
 2058 015d 1D       		.uleb128 0x1d
 2059 015e 898201   		.uleb128 0x4109
 2060 0161 01       		.byte	0x1
 2061 0162 11       		.uleb128 0x11
 2062 0163 01       		.uleb128 0x1
 2063 0164 9542     		.uleb128 0x2115
 2064 0166 19       		.uleb128 0x19
 2065 0167 31       		.uleb128 0x31
 2066 0168 13       		.uleb128 0x13
 2067 0169 00       		.byte	0
 2068 016a 00       		.byte	0
 2069 016b 1E       		.uleb128 0x1e
 2070 016c 8A8201   		.uleb128 0x410a
 2071 016f 00       		.byte	0
 2072 0170 02       		.uleb128 0x2
 2073 0171 18       		.uleb128 0x18
 2074 0172 9142     		.uleb128 0x2111
 2075 0174 18       		.uleb128 0x18
 2076 0175 00       		.byte	0
 2077 0176 00       		.byte	0
 2078 0177 1F       		.uleb128 0x1f
 2079 0178 05       		.uleb128 0x5
 2080 0179 00       		.byte	0
 2081 017a 03       		.uleb128 0x3
 2082 017b 0E       		.uleb128 0xe
 2083 017c 3A       		.uleb128 0x3a
 2084 017d 0B       		.uleb128 0xb
 2085 017e 3B       		.uleb128 0x3b
 2086 017f 0B       		.uleb128 0xb
 2087 0180 49       		.uleb128 0x49
 2088 0181 13       		.uleb128 0x13
 2089 0182 02       		.uleb128 0x2
 2090 0183 17       		.uleb128 0x17
 2091 0184 00       		.byte	0
 2092 0185 00       		.byte	0
 2093 0186 20       		.uleb128 0x20
 2094 0187 898201   		.uleb128 0x4109
 2095 018a 00       		.byte	0
 2096 018b 11       		.uleb128 0x11
 2097 018c 01       		.uleb128 0x1
 2098 018d 31       		.uleb128 0x31
 2099 018e 13       		.uleb128 0x13
 2100 018f 00       		.byte	0
 2101 0190 00       		.byte	0
 2102 0191 21       		.uleb128 0x21
 2103 0192 34       		.uleb128 0x34
 2104 0193 00       		.byte	0
 2105 0194 03       		.uleb128 0x3
ARM GAS  /tmp/ccNeGdAE.s 			page 38


 2106 0195 0E       		.uleb128 0xe
 2107 0196 3A       		.uleb128 0x3a
 2108 0197 0B       		.uleb128 0xb
 2109 0198 3B       		.uleb128 0x3b
 2110 0199 0B       		.uleb128 0xb
 2111 019a 49       		.uleb128 0x49
 2112 019b 13       		.uleb128 0x13
 2113 019c 02       		.uleb128 0x2
 2114 019d 17       		.uleb128 0x17
 2115 019e 00       		.byte	0
 2116 019f 00       		.byte	0
 2117 01a0 22       		.uleb128 0x22
 2118 01a1 0B       		.uleb128 0xb
 2119 01a2 01       		.byte	0x1
 2120 01a3 11       		.uleb128 0x11
 2121 01a4 01       		.uleb128 0x1
 2122 01a5 12       		.uleb128 0x12
 2123 01a6 06       		.uleb128 0x6
 2124 01a7 00       		.byte	0
 2125 01a8 00       		.byte	0
 2126 01a9 23       		.uleb128 0x23
 2127 01aa 34       		.uleb128 0x34
 2128 01ab 00       		.byte	0
 2129 01ac 03       		.uleb128 0x3
 2130 01ad 08       		.uleb128 0x8
 2131 01ae 3A       		.uleb128 0x3a
 2132 01af 0B       		.uleb128 0xb
 2133 01b0 3B       		.uleb128 0x3b
 2134 01b1 0B       		.uleb128 0xb
 2135 01b2 49       		.uleb128 0x49
 2136 01b3 13       		.uleb128 0x13
 2137 01b4 02       		.uleb128 0x2
 2138 01b5 17       		.uleb128 0x17
 2139 01b6 00       		.byte	0
 2140 01b7 00       		.byte	0
 2141 01b8 24       		.uleb128 0x24
 2142 01b9 34       		.uleb128 0x34
 2143 01ba 00       		.byte	0
 2144 01bb 03       		.uleb128 0x3
 2145 01bc 0E       		.uleb128 0xe
 2146 01bd 3A       		.uleb128 0x3a
 2147 01be 0B       		.uleb128 0xb
 2148 01bf 3B       		.uleb128 0x3b
 2149 01c0 0B       		.uleb128 0xb
 2150 01c1 49       		.uleb128 0x49
 2151 01c2 13       		.uleb128 0x13
 2152 01c3 02       		.uleb128 0x2
 2153 01c4 18       		.uleb128 0x18
 2154 01c5 00       		.byte	0
 2155 01c6 00       		.byte	0
 2156 01c7 25       		.uleb128 0x25
 2157 01c8 898201   		.uleb128 0x4109
 2158 01cb 01       		.byte	0x1
 2159 01cc 11       		.uleb128 0x11
 2160 01cd 01       		.uleb128 0x1
 2161 01ce 31       		.uleb128 0x31
 2162 01cf 13       		.uleb128 0x13
ARM GAS  /tmp/ccNeGdAE.s 			page 39


 2163 01d0 01       		.uleb128 0x1
 2164 01d1 13       		.uleb128 0x13
 2165 01d2 00       		.byte	0
 2166 01d3 00       		.byte	0
 2167 01d4 26       		.uleb128 0x26
 2168 01d5 34       		.uleb128 0x34
 2169 01d6 00       		.byte	0
 2170 01d7 03       		.uleb128 0x3
 2171 01d8 0E       		.uleb128 0xe
 2172 01d9 3A       		.uleb128 0x3a
 2173 01da 0B       		.uleb128 0xb
 2174 01db 3B       		.uleb128 0x3b
 2175 01dc 05       		.uleb128 0x5
 2176 01dd 49       		.uleb128 0x49
 2177 01de 13       		.uleb128 0x13
 2178 01df 3F       		.uleb128 0x3f
 2179 01e0 19       		.uleb128 0x19
 2180 01e1 3C       		.uleb128 0x3c
 2181 01e2 19       		.uleb128 0x19
 2182 01e3 00       		.byte	0
 2183 01e4 00       		.byte	0
 2184 01e5 27       		.uleb128 0x27
 2185 01e6 34       		.uleb128 0x34
 2186 01e7 00       		.byte	0
 2187 01e8 03       		.uleb128 0x3
 2188 01e9 08       		.uleb128 0x8
 2189 01ea 3A       		.uleb128 0x3a
 2190 01eb 0B       		.uleb128 0xb
 2191 01ec 3B       		.uleb128 0x3b
 2192 01ed 05       		.uleb128 0x5
 2193 01ee 49       		.uleb128 0x49
 2194 01ef 13       		.uleb128 0x13
 2195 01f0 3F       		.uleb128 0x3f
 2196 01f1 19       		.uleb128 0x19
 2197 01f2 3C       		.uleb128 0x3c
 2198 01f3 19       		.uleb128 0x19
 2199 01f4 00       		.byte	0
 2200 01f5 00       		.byte	0
 2201 01f6 28       		.uleb128 0x28
 2202 01f7 34       		.uleb128 0x34
 2203 01f8 00       		.byte	0
 2204 01f9 03       		.uleb128 0x3
 2205 01fa 0E       		.uleb128 0xe
 2206 01fb 3A       		.uleb128 0x3a
 2207 01fc 0B       		.uleb128 0xb
 2208 01fd 3B       		.uleb128 0x3b
 2209 01fe 0B       		.uleb128 0xb
 2210 01ff 49       		.uleb128 0x49
 2211 0200 13       		.uleb128 0x13
 2212 0201 3F       		.uleb128 0x3f
 2213 0202 19       		.uleb128 0x19
 2214 0203 02       		.uleb128 0x2
 2215 0204 18       		.uleb128 0x18
 2216 0205 00       		.byte	0
 2217 0206 00       		.byte	0
 2218 0207 29       		.uleb128 0x29
 2219 0208 2E       		.uleb128 0x2e
ARM GAS  /tmp/ccNeGdAE.s 			page 40


 2220 0209 01       		.byte	0x1
 2221 020a 3F       		.uleb128 0x3f
 2222 020b 19       		.uleb128 0x19
 2223 020c 03       		.uleb128 0x3
 2224 020d 0E       		.uleb128 0xe
 2225 020e 3A       		.uleb128 0x3a
 2226 020f 0B       		.uleb128 0xb
 2227 0210 3B       		.uleb128 0x3b
 2228 0211 0B       		.uleb128 0xb
 2229 0212 27       		.uleb128 0x27
 2230 0213 19       		.uleb128 0x19
 2231 0214 3C       		.uleb128 0x3c
 2232 0215 19       		.uleb128 0x19
 2233 0216 01       		.uleb128 0x1
 2234 0217 13       		.uleb128 0x13
 2235 0218 00       		.byte	0
 2236 0219 00       		.byte	0
 2237 021a 2A       		.uleb128 0x2a
 2238 021b 2E       		.uleb128 0x2e
 2239 021c 00       		.byte	0
 2240 021d 3F       		.uleb128 0x3f
 2241 021e 19       		.uleb128 0x19
 2242 021f 03       		.uleb128 0x3
 2243 0220 0E       		.uleb128 0xe
 2244 0221 3A       		.uleb128 0x3a
 2245 0222 0B       		.uleb128 0xb
 2246 0223 3B       		.uleb128 0x3b
 2247 0224 0B       		.uleb128 0xb
 2248 0225 27       		.uleb128 0x27
 2249 0226 19       		.uleb128 0x19
 2250 0227 3C       		.uleb128 0x3c
 2251 0228 19       		.uleb128 0x19
 2252 0229 00       		.byte	0
 2253 022a 00       		.byte	0
 2254 022b 00       		.byte	0
 2255              		.section	.debug_loc,"",%progbits
 2256              	.Ldebug_loc0:
 2257              	.LLST0:
 2258 0000 00000000 		.4byte	.LVL1
 2259 0004 08000000 		.4byte	.LVL2
 2260 0008 0100     		.2byte	0x1
 2261 000a 50       		.byte	0x50
 2262 000b 08000000 		.4byte	.LVL2
 2263 000f 26000000 		.4byte	.LVL3
 2264 0013 0400     		.2byte	0x4
 2265 0015 F3       		.byte	0xf3
 2266 0016 01       		.uleb128 0x1
 2267 0017 50       		.byte	0x50
 2268 0018 9F       		.byte	0x9f
 2269 0019 26000000 		.4byte	.LVL3
 2270 001d 29000000 		.4byte	.LVL4-1
 2271 0021 0100     		.2byte	0x1
 2272 0023 50       		.byte	0x50
 2273 0024 29000000 		.4byte	.LVL4-1
 2274 0028 30000000 		.4byte	.LFE274
 2275 002c 0400     		.2byte	0x4
 2276 002e F3       		.byte	0xf3
ARM GAS  /tmp/ccNeGdAE.s 			page 41


 2277 002f 01       		.uleb128 0x1
 2278 0030 50       		.byte	0x50
 2279 0031 9F       		.byte	0x9f
 2280 0032 00000000 		.4byte	0
 2281 0036 00000000 		.4byte	0
 2282              	.LLST1:
 2283 003a 00000000 		.4byte	.LVL5
 2284 003e 46000000 		.4byte	.LVL12
 2285 0042 0100     		.2byte	0x1
 2286 0044 50       		.byte	0x50
 2287 0045 46000000 		.4byte	.LVL12
 2288 0049 84000000 		.4byte	.LVL15
 2289 004d 0400     		.2byte	0x4
 2290 004f F3       		.byte	0xf3
 2291 0050 01       		.uleb128 0x1
 2292 0051 50       		.byte	0x50
 2293 0052 9F       		.byte	0x9f
 2294 0053 84000000 		.4byte	.LVL15
 2295 0057 90000000 		.4byte	.LVL16
 2296 005b 0100     		.2byte	0x1
 2297 005d 50       		.byte	0x50
 2298 005e 90000000 		.4byte	.LVL16
 2299 0062 04010000 		.4byte	.LFE275
 2300 0066 0400     		.2byte	0x4
 2301 0068 F3       		.byte	0xf3
 2302 0069 01       		.uleb128 0x1
 2303 006a 50       		.byte	0x50
 2304 006b 9F       		.byte	0x9f
 2305 006c 00000000 		.4byte	0
 2306 0070 00000000 		.4byte	0
 2307              	.LLST2:
 2308 0074 00000000 		.4byte	.LVL5
 2309 0078 50000000 		.4byte	.LVL13
 2310 007c 0100     		.2byte	0x1
 2311 007e 51       		.byte	0x51
 2312 007f 50000000 		.4byte	.LVL13
 2313 0083 84000000 		.4byte	.LVL15
 2314 0087 0400     		.2byte	0x4
 2315 0089 F3       		.byte	0xf3
 2316 008a 01       		.uleb128 0x1
 2317 008b 51       		.byte	0x51
 2318 008c 9F       		.byte	0x9f
 2319 008d 84000000 		.4byte	.LVL15
 2320 0091 9A000000 		.4byte	.LVL17
 2321 0095 0100     		.2byte	0x1
 2322 0097 51       		.byte	0x51
 2323 0098 9A000000 		.4byte	.LVL17
 2324 009c 04010000 		.4byte	.LFE275
 2325 00a0 0400     		.2byte	0x4
 2326 00a2 F3       		.byte	0xf3
 2327 00a3 01       		.uleb128 0x1
 2328 00a4 51       		.byte	0x51
 2329 00a5 9F       		.byte	0x9f
 2330 00a6 00000000 		.4byte	0
 2331 00aa 00000000 		.4byte	0
 2332              	.LLST3:
 2333 00ae 0E000000 		.4byte	.LVL6
ARM GAS  /tmp/ccNeGdAE.s 			page 42


 2334 00b2 78000000 		.4byte	.LVL14
 2335 00b6 0100     		.2byte	0x1
 2336 00b8 53       		.byte	0x53
 2337 00b9 78000000 		.4byte	.LVL14
 2338 00bd 84000000 		.4byte	.LVL15
 2339 00c1 0800     		.2byte	0x8
 2340 00c3 31       		.byte	0x31
 2341 00c4 F3       		.byte	0xf3
 2342 00c5 01       		.uleb128 0x1
 2343 00c6 51       		.byte	0x51
 2344 00c7 4F       		.byte	0x4f
 2345 00c8 1A       		.byte	0x1a
 2346 00c9 24       		.byte	0x24
 2347 00ca 9F       		.byte	0x9f
 2348 00cb 84000000 		.4byte	.LVL15
 2349 00cf C0000000 		.4byte	.LVL18
 2350 00d3 0100     		.2byte	0x1
 2351 00d5 53       		.byte	0x53
 2352 00d6 C0000000 		.4byte	.LVL18
 2353 00da CC000000 		.4byte	.LVL19
 2354 00de 0800     		.2byte	0x8
 2355 00e0 31       		.byte	0x31
 2356 00e1 F3       		.byte	0xf3
 2357 00e2 01       		.uleb128 0x1
 2358 00e3 51       		.byte	0x51
 2359 00e4 4F       		.byte	0x4f
 2360 00e5 1A       		.byte	0x1a
 2361 00e6 24       		.byte	0x24
 2362 00e7 9F       		.byte	0x9f
 2363 00e8 CC000000 		.4byte	.LVL19
 2364 00ec E6000000 		.4byte	.LVL20
 2365 00f0 0100     		.2byte	0x1
 2366 00f2 53       		.byte	0x53
 2367 00f3 E6000000 		.4byte	.LVL20
 2368 00f7 F0000000 		.4byte	.LVL21
 2369 00fb 0800     		.2byte	0x8
 2370 00fd 31       		.byte	0x31
 2371 00fe F3       		.byte	0xf3
 2372 00ff 01       		.uleb128 0x1
 2373 0100 51       		.byte	0x51
 2374 0101 4F       		.byte	0x4f
 2375 0102 1A       		.byte	0x1a
 2376 0103 24       		.byte	0x24
 2377 0104 9F       		.byte	0x9f
 2378 0105 F0000000 		.4byte	.LVL21
 2379 0109 F6000000 		.4byte	.LVL22
 2380 010d 0100     		.2byte	0x1
 2381 010f 53       		.byte	0x53
 2382 0110 F6000000 		.4byte	.LVL22
 2383 0114 04010000 		.4byte	.LFE275
 2384 0118 0800     		.2byte	0x8
 2385 011a 31       		.byte	0x31
 2386 011b F3       		.byte	0xf3
 2387 011c 01       		.uleb128 0x1
 2388 011d 51       		.byte	0x51
 2389 011e 4F       		.byte	0x4f
 2390 011f 1A       		.byte	0x1a
ARM GAS  /tmp/ccNeGdAE.s 			page 43


 2391 0120 24       		.byte	0x24
 2392 0121 9F       		.byte	0x9f
 2393 0122 00000000 		.4byte	0
 2394 0126 00000000 		.4byte	0
 2395              	.LLST4:
 2396 012a 10000000 		.4byte	.LVL7
 2397 012e 3E000000 		.4byte	.LVL11
 2398 0132 0500     		.2byte	0x5
 2399 0134 71       		.byte	0x71
 2400 0135 00       		.sleb128 0
 2401 0136 32       		.byte	0x32
 2402 0137 25       		.byte	0x25
 2403 0138 9F       		.byte	0x9f
 2404 0139 00000000 		.4byte	0
 2405 013d 00000000 		.4byte	0
 2406              	.LLST5:
 2407 0141 2A000000 		.4byte	.LVL8
 2408 0145 3A000000 		.4byte	.LVL10
 2409 0149 0600     		.2byte	0x6
 2410 014b 3F       		.byte	0x3f
 2411 014c 74       		.byte	0x74
 2412 014d 00       		.sleb128 0
 2413 014e 24       		.byte	0x24
 2414 014f 20       		.byte	0x20
 2415 0150 9F       		.byte	0x9f
 2416 0151 3A000000 		.4byte	.LVL10
 2417 0155 3E000000 		.4byte	.LVL11
 2418 0159 0A00     		.2byte	0xa
 2419 015b 3F       		.byte	0x3f
 2420 015c 71       		.byte	0x71
 2421 015d 00       		.sleb128 0
 2422 015e 33       		.byte	0x33
 2423 015f 1A       		.byte	0x1a
 2424 0160 32       		.byte	0x32
 2425 0161 24       		.byte	0x24
 2426 0162 24       		.byte	0x24
 2427 0163 20       		.byte	0x20
 2428 0164 9F       		.byte	0x9f
 2429 0165 00000000 		.4byte	0
 2430 0169 00000000 		.4byte	0
 2431              	.LLST6:
 2432 016d 2A000000 		.4byte	.LVL8
 2433 0171 2C000000 		.4byte	.LVL9
 2434 0175 1100     		.2byte	0x11
 2435 0177 71       		.byte	0x71
 2436 0178 00       		.sleb128 0
 2437 0179 33       		.byte	0x33
 2438 017a 24       		.byte	0x24
 2439 017b 75       		.byte	0x75
 2440 017c 00       		.sleb128 0
 2441 017d 22       		.byte	0x22
 2442 017e 06       		.byte	0x6
 2443 017f 08       		.byte	0x8
 2444 0180 F0       		.byte	0xf0
 2445 0181 1A       		.byte	0x1a
 2446 0182 34       		.byte	0x34
 2447 0183 25       		.byte	0x25
ARM GAS  /tmp/ccNeGdAE.s 			page 44


 2448 0184 74       		.byte	0x74
 2449 0185 00       		.sleb128 0
 2450 0186 24       		.byte	0x24
 2451 0187 9F       		.byte	0x9f
 2452 0188 2C000000 		.4byte	.LVL9
 2453 018c 3A000000 		.4byte	.LVL10
 2454 0190 1200     		.2byte	0x12
 2455 0192 71       		.byte	0x71
 2456 0193 00       		.sleb128 0
 2457 0194 33       		.byte	0x33
 2458 0195 24       		.byte	0x24
 2459 0196 70       		.byte	0x70
 2460 0197 04       		.sleb128 4
 2461 0198 06       		.byte	0x6
 2462 0199 22       		.byte	0x22
 2463 019a 06       		.byte	0x6
 2464 019b 08       		.byte	0x8
 2465 019c F0       		.byte	0xf0
 2466 019d 1A       		.byte	0x1a
 2467 019e 34       		.byte	0x34
 2468 019f 25       		.byte	0x25
 2469 01a0 74       		.byte	0x74
 2470 01a1 00       		.sleb128 0
 2471 01a2 24       		.byte	0x24
 2472 01a3 9F       		.byte	0x9f
 2473 01a4 3A000000 		.4byte	.LVL10
 2474 01a8 3E000000 		.4byte	.LVL11
 2475 01ac 1600     		.2byte	0x16
 2476 01ae 71       		.byte	0x71
 2477 01af 00       		.sleb128 0
 2478 01b0 33       		.byte	0x33
 2479 01b1 24       		.byte	0x24
 2480 01b2 70       		.byte	0x70
 2481 01b3 04       		.sleb128 4
 2482 01b4 06       		.byte	0x6
 2483 01b5 22       		.byte	0x22
 2484 01b6 06       		.byte	0x6
 2485 01b7 08       		.byte	0x8
 2486 01b8 F0       		.byte	0xf0
 2487 01b9 1A       		.byte	0x1a
 2488 01ba 34       		.byte	0x34
 2489 01bb 25       		.byte	0x25
 2490 01bc 71       		.byte	0x71
 2491 01bd 00       		.sleb128 0
 2492 01be 33       		.byte	0x33
 2493 01bf 1A       		.byte	0x1a
 2494 01c0 32       		.byte	0x32
 2495 01c1 24       		.byte	0x24
 2496 01c2 24       		.byte	0x24
 2497 01c3 9F       		.byte	0x9f
 2498 01c4 00000000 		.4byte	0
 2499 01c8 00000000 		.4byte	0
 2500              	.LLST7:
 2501 01cc 00000000 		.4byte	.LVL23
 2502 01d0 06000000 		.4byte	.LVL24
 2503 01d4 0100     		.2byte	0x1
 2504 01d6 50       		.byte	0x50
ARM GAS  /tmp/ccNeGdAE.s 			page 45


 2505 01d7 06000000 		.4byte	.LVL24
 2506 01db 50000000 		.4byte	.LFE276
 2507 01df 0400     		.2byte	0x4
 2508 01e1 F3       		.byte	0xf3
 2509 01e2 01       		.uleb128 0x1
 2510 01e3 50       		.byte	0x50
 2511 01e4 9F       		.byte	0x9f
 2512 01e5 00000000 		.4byte	0
 2513 01e9 00000000 		.4byte	0
 2514              	.LLST8:
 2515 01ed 00000000 		.4byte	.LVL23
 2516 01f1 12000000 		.4byte	.LVL26
 2517 01f5 0100     		.2byte	0x1
 2518 01f7 51       		.byte	0x51
 2519 01f8 12000000 		.4byte	.LVL26
 2520 01fc 2E000000 		.4byte	.LVL27
 2521 0200 0400     		.2byte	0x4
 2522 0202 F3       		.byte	0xf3
 2523 0203 01       		.uleb128 0x1
 2524 0204 51       		.byte	0x51
 2525 0205 9F       		.byte	0x9f
 2526 0206 2E000000 		.4byte	.LVL27
 2527 020a 30000000 		.4byte	.LVL28
 2528 020e 0100     		.2byte	0x1
 2529 0210 51       		.byte	0x51
 2530 0211 30000000 		.4byte	.LVL28
 2531 0215 50000000 		.4byte	.LFE276
 2532 0219 0400     		.2byte	0x4
 2533 021b F3       		.byte	0xf3
 2534 021c 01       		.uleb128 0x1
 2535 021d 51       		.byte	0x51
 2536 021e 9F       		.byte	0x9f
 2537 021f 00000000 		.4byte	0
 2538 0223 00000000 		.4byte	0
 2539              	.LLST9:
 2540 0227 00000000 		.4byte	.LVL29
 2541 022b 0A000000 		.4byte	.LVL30
 2542 022f 0100     		.2byte	0x1
 2543 0231 50       		.byte	0x50
 2544 0232 0A000000 		.4byte	.LVL30
 2545 0236 0E000000 		.4byte	.LVL31
 2546 023a 0100     		.2byte	0x1
 2547 023c 55       		.byte	0x55
 2548 023d 0E000000 		.4byte	.LVL31
 2549 0241 13000000 		.4byte	.LVL32-1
 2550 0245 0100     		.2byte	0x1
 2551 0247 50       		.byte	0x50
 2552 0248 13000000 		.4byte	.LVL32-1
 2553 024c 28000000 		.4byte	.LVL34
 2554 0250 0100     		.2byte	0x1
 2555 0252 55       		.byte	0x55
 2556 0253 28000000 		.4byte	.LVL34
 2557 0257 2D000000 		.4byte	.LVL36-1
 2558 025b 0100     		.2byte	0x1
 2559 025d 50       		.byte	0x50
 2560 025e 2D000000 		.4byte	.LVL36-1
 2561 0262 34000000 		.4byte	.LVL37
ARM GAS  /tmp/ccNeGdAE.s 			page 46


 2562 0266 0100     		.2byte	0x1
 2563 0268 55       		.byte	0x55
 2564 0269 34000000 		.4byte	.LVL37
 2565 026d 37000000 		.4byte	.LVL38-1
 2566 0271 0100     		.2byte	0x1
 2567 0273 50       		.byte	0x50
 2568 0274 37000000 		.4byte	.LVL38-1
 2569 0278 3A000000 		.4byte	.LFE273
 2570 027c 0100     		.2byte	0x1
 2571 027e 55       		.byte	0x55
 2572 027f 00000000 		.4byte	0
 2573 0283 00000000 		.4byte	0
 2574              	.LLST10:
 2575 0287 0A000000 		.4byte	.LVL30
 2576 028b 0E000000 		.4byte	.LVL31
 2577 028f 0200     		.2byte	0x2
 2578 0291 30       		.byte	0x30
 2579 0292 9F       		.byte	0x9f
 2580 0293 0E000000 		.4byte	.LVL31
 2581 0297 13000000 		.4byte	.LVL32-1
 2582 029b 0100     		.2byte	0x1
 2583 029d 51       		.byte	0x51
 2584 029e 13000000 		.4byte	.LVL32-1
 2585 02a2 14000000 		.4byte	.LVL32
 2586 02a6 0300     		.2byte	0x3
 2587 02a8 74       		.byte	0x74
 2588 02a9 7F       		.sleb128 -1
 2589 02aa 9F       		.byte	0x9f
 2590 02ab 14000000 		.4byte	.LVL32
 2591 02af 2A000000 		.4byte	.LVL35
 2592 02b3 0100     		.2byte	0x1
 2593 02b5 54       		.byte	0x54
 2594 02b6 2A000000 		.4byte	.LVL35
 2595 02ba 2D000000 		.4byte	.LVL36-1
 2596 02be 0100     		.2byte	0x1
 2597 02c0 51       		.byte	0x51
 2598 02c1 2D000000 		.4byte	.LVL36-1
 2599 02c5 2E000000 		.4byte	.LVL36
 2600 02c9 0300     		.2byte	0x3
 2601 02cb 74       		.byte	0x74
 2602 02cc 7F       		.sleb128 -1
 2603 02cd 9F       		.byte	0x9f
 2604 02ce 2E000000 		.4byte	.LVL36
 2605 02d2 34000000 		.4byte	.LVL37
 2606 02d6 0100     		.2byte	0x1
 2607 02d8 54       		.byte	0x54
 2608 02d9 00000000 		.4byte	0
 2609 02dd 00000000 		.4byte	0
 2610              		.section	.debug_aranges,"",%progbits
 2611 0000 3C000000 		.4byte	0x3c
 2612 0004 0200     		.2byte	0x2
 2613 0006 00000000 		.4byte	.Ldebug_info0
 2614 000a 04       		.byte	0x4
 2615 000b 00       		.byte	0
 2616 000c 0000     		.2byte	0
 2617 000e 0000     		.2byte	0
 2618 0010 00000000 		.4byte	.LFB272
ARM GAS  /tmp/ccNeGdAE.s 			page 47


 2619 0014 0C000000 		.4byte	.LFE272-.LFB272
 2620 0018 00000000 		.4byte	.LFB274
 2621 001c 30000000 		.4byte	.LFE274-.LFB274
 2622 0020 00000000 		.4byte	.LFB275
 2623 0024 04010000 		.4byte	.LFE275-.LFB275
 2624 0028 00000000 		.4byte	.LFB276
 2625 002c 50000000 		.4byte	.LFE276-.LFB276
 2626 0030 00000000 		.4byte	.LFB273
 2627 0034 3A000000 		.4byte	.LFE273-.LFB273
 2628 0038 00000000 		.4byte	0
 2629 003c 00000000 		.4byte	0
 2630              		.section	.debug_ranges,"",%progbits
 2631              	.Ldebug_ranges0:
 2632 0000 00000000 		.4byte	.LFB272
 2633 0004 0C000000 		.4byte	.LFE272
 2634 0008 00000000 		.4byte	.LFB274
 2635 000c 30000000 		.4byte	.LFE274
 2636 0010 00000000 		.4byte	.LFB275
 2637 0014 04010000 		.4byte	.LFE275
 2638 0018 00000000 		.4byte	.LFB276
 2639 001c 50000000 		.4byte	.LFE276
 2640 0020 00000000 		.4byte	.LFB273
 2641 0024 3A000000 		.4byte	.LFE273
 2642 0028 00000000 		.4byte	0
 2643 002c 00000000 		.4byte	0
 2644              		.section	.debug_line,"",%progbits
 2645              	.Ldebug_line0:
 2646 0000 28040000 		.section	.debug_str,"MS",%progbits,1
 2646      02005E03 
 2646      00000201 
 2646      FB0E0D00 
 2646      01010101 
 2647              	.LASF50:
 2648 0000 72656164 		.ascii	"ready_list_t\000"
 2648      795F6C69 
 2648      73745F74 
 2648      00
 2649              	.LASF2:
 2650 000d 73697A65 		.ascii	"size_t\000"
 2650      5F7400
 2651              	.LASF17:
 2652 0014 75696E74 		.ascii	"uint64_t\000"
 2652      36345F74 
 2652      00
 2653              	.LASF1:
 2654 001d 7369676E 		.ascii	"signed char\000"
 2654      65642063 
 2654      68617200 
 2655              	.LASF3:
 2656 0029 5F5F7569 		.ascii	"__uint8_t\000"
 2656      6E74385F 
 2656      7400
 2657              	.LASF125:
 2658 0033 65787063 		.ascii	"expchannel_t\000"
 2658      68616E6E 
 2658      656C5F74 
 2658      00
ARM GAS  /tmp/ccNeGdAE.s 			page 48


 2659              	.LASF97:
 2660 0040 706F7274 		.ascii	"port_intctx\000"
 2660      5F696E74 
 2660      63747800 
 2661              	.LASF69:
 2662 004c 73797374 		.ascii	"system_debug_t\000"
 2662      656D5F64 
 2662      65627567 
 2662      5F7400
 2663              	.LASF87:
 2664 005b 46545352 		.ascii	"FTSR2\000"
 2664      3200
 2665              	.LASF81:
 2666 0061 53574945 		.ascii	"SWIER\000"
 2666      5200
 2667              	.LASF13:
 2668 0067 6C6F6E67 		.ascii	"long long unsigned int\000"
 2668      206C6F6E 
 2668      6720756E 
 2668      7369676E 
 2668      65642069 
 2669              	.LASF132:
 2670 007e 6578745F 		.ascii	"ext_lld_stop\000"
 2670      6C6C645F 
 2670      73746F70 
 2670      00
 2671              	.LASF101:
 2672 008b 65786974 		.ascii	"exitcode\000"
 2672      636F6465 
 2672      00
 2673              	.LASF76:
 2674 0094 6D61696E 		.ascii	"mainthread\000"
 2674      74687265 
 2674      616400
 2675              	.LASF104:
 2676 009f 73656E74 		.ascii	"sentmsg\000"
 2676      6D736700 
 2677              	.LASF66:
 2678 00a7 76697274 		.ascii	"virtual_timers_list_t\000"
 2678      75616C5F 
 2678      74696D65 
 2678      72735F6C 
 2678      6973745F 
 2679              	.LASF142:
 2680 00bd 49544D5F 		.ascii	"ITM_RxBuffer\000"
 2680      52784275 
 2680      66666572 
 2680      00
 2681              	.LASF88:
 2682 00ca 53574945 		.ascii	"SWIER2\000"
 2682      523200
 2683              	.LASF49:
 2684 00d1 63685F74 		.ascii	"ch_threads_queue\000"
 2684      68726561 
 2684      64735F71 
 2684      75657565 
 2684      00
ARM GAS  /tmp/ccNeGdAE.s 			page 49


 2685              	.LASF139:
 2686 00e2 6578745F 		.ascii	"ext_lld_channel_disable\000"
 2686      6C6C645F 
 2686      6368616E 
 2686      6E656C5F 
 2686      64697361 
 2687              	.LASF30:
 2688 00fa 705F7072 		.ascii	"p_prio\000"
 2688      696F00
 2689              	.LASF11:
 2690 0101 6C6F6E67 		.ascii	"long long int\000"
 2690      206C6F6E 
 2690      6720696E 
 2690      7400
 2691              	.LASF134:
 2692 010f 65787470 		.ascii	"extp\000"
 2692      00
 2693              	.LASF149:
 2694 0114 6578744F 		.ascii	"extObjectInit\000"
 2694      626A6563 
 2694      74496E69 
 2694      7400
 2695              	.LASF43:
 2696 0122 705F6D70 		.ascii	"p_mpool\000"
 2696      6F6F6C00 
 2697              	.LASF112:
 2698 012a 6D5F7175 		.ascii	"m_queue\000"
 2698      65756500 
 2699              	.LASF75:
 2700 0132 76746C69 		.ascii	"vtlist\000"
 2700      737400
 2701              	.LASF131:
 2702 0139 6578745F 		.ascii	"ext_lld_init\000"
 2702      6C6C645F 
 2702      696E6974 
 2702      00
 2703              	.LASF123:
 2704 0146 73746174 		.ascii	"state\000"
 2704      6500
 2705              	.LASF129:
 2706 014c 6368616E 		.ascii	"channels\000"
 2706      6E656C73 
 2706      00
 2707              	.LASF8:
 2708 0155 6C6F6E67 		.ascii	"long int\000"
 2708      20696E74 
 2708      00
 2709              	.LASF20:
 2710 015e 74737461 		.ascii	"tstate_t\000"
 2710      74655F74 
 2710      00
 2711              	.LASF32:
 2712 0167 705F6E65 		.ascii	"p_newer\000"
 2712      77657200 
 2713              	.LASF109:
 2714 016f 735F7175 		.ascii	"s_queue\000"
 2714      65756500 
ARM GAS  /tmp/ccNeGdAE.s 			page 50


 2715              	.LASF128:
 2716 0177 45585443 		.ascii	"EXTChannelConfig\000"
 2716      68616E6E 
 2716      656C436F 
 2716      6E666967 
 2716      00
 2717              	.LASF141:
 2718 0188 6C696E65 		.ascii	"line\000"
 2718      00
 2719              	.LASF55:
 2720 018d 725F6E65 		.ascii	"r_newer\000"
 2720      77657200 
 2721              	.LASF137:
 2722 0195 6D61736B 		.ascii	"mask\000"
 2722      00
 2723              	.LASF94:
 2724 019a 72656761 		.ascii	"regarm_t\000"
 2724      726D5F74 
 2724      00
 2725              	.LASF62:
 2726 01a3 76745F70 		.ascii	"vt_prev\000"
 2726      72657600 
 2727              	.LASF74:
 2728 01ab 726C6973 		.ascii	"rlist\000"
 2728      7400
 2729              	.LASF138:
 2730 01b1 706F7274 		.ascii	"port\000"
 2730      00
 2731              	.LASF116:
 2732 01b6 6D757465 		.ascii	"mutex_t\000"
 2732      785F7400 
 2733              	.LASF77:
 2734 01be 69646C65 		.ascii	"idle_thread_wa\000"
 2734      5F746872 
 2734      6561645F 
 2734      776100
 2735              	.LASF144:
 2736 01cd 6578745F 		.ascii	"ext_lld_exti_irq_disable\000"
 2736      6C6C645F 
 2736      65787469 
 2736      5F697271 
 2736      5F646973 
 2737              	.LASF0:
 2738 01e6 756E7369 		.ascii	"unsigned int\000"
 2738      676E6564 
 2738      20696E74 
 2738      00
 2739              	.LASF61:
 2740 01f3 76745F6E 		.ascii	"vt_next\000"
 2740      65787400 
 2741              	.LASF105:
 2742 01fb 77747365 		.ascii	"wtsemp\000"
 2742      6D7000
 2743              	.LASF39:
 2744 0202 705F6D73 		.ascii	"p_msgqueue\000"
 2744      67717565 
 2744      756500
ARM GAS  /tmp/ccNeGdAE.s 			page 51


 2745              	.LASF148:
 2746 020d 2F752F63 		.ascii	"/u/cojthack/summerResearch2016/milestone2\000"
 2746      6F6A7468 
 2746      61636B2F 
 2746      73756D6D 
 2746      65725265 
 2747              	.LASF140:
 2748 0237 6578745F 		.ascii	"ext_lld_start\000"
 2748      6C6C645F 
 2748      73746172 
 2748      7400
 2749              	.LASF110:
 2750 0245 735F636E 		.ascii	"s_cnt\000"
 2750      7400
 2751              	.LASF96:
 2752 024b 636F6E74 		.ascii	"context\000"
 2752      65787400 
 2753              	.LASF6:
 2754 0253 73686F72 		.ascii	"short unsigned int\000"
 2754      7420756E 
 2754      7369676E 
 2754      65642069 
 2754      6E7400
 2755              	.LASF145:
 2756 0266 6578745F 		.ascii	"ext_lld_exti_irq_enable\000"
 2756      6C6C645F 
 2756      65787469 
 2756      5F697271 
 2756      5F656E61 
 2757              	.LASF46:
 2758 027e 63685F74 		.ascii	"ch_thread\000"
 2758      68726561 
 2758      6400
 2759              	.LASF130:
 2760 0288 45585443 		.ascii	"EXTConfig\000"
 2760      6F6E6669 
 2760      6700
 2761              	.LASF147:
 2762 0292 2E2E2F43 		.ascii	"../ChibiOS/os/hal/ports/STM32/LLD/EXTIv1/ext_lld.c\000"
 2762      68696269 
 2762      4F532F6F 
 2762      732F6861 
 2762      6C2F706F 
 2763              	.LASF23:
 2764 02c5 6D73675F 		.ascii	"msg_t\000"
 2764      7400
 2765              	.LASF72:
 2766 02cb 63685F73 		.ascii	"ch_system_t\000"
 2766      79737465 
 2766      6D5F7400 
 2767              	.LASF19:
 2768 02d7 746D6F64 		.ascii	"tmode_t\000"
 2768      655F7400 
 2769              	.LASF86:
 2770 02df 52545352 		.ascii	"RTSR2\000"
 2770      3200
 2771              	.LASF51:
ARM GAS  /tmp/ccNeGdAE.s 			page 52


 2772 02e5 63685F72 		.ascii	"ch_ready_list\000"
 2772      65616479 
 2772      5F6C6973 
 2772      7400
 2773              	.LASF24:
 2774 02f3 6576656E 		.ascii	"eventmask_t\000"
 2774      746D6173 
 2774      6B5F7400 
 2775              	.LASF7:
 2776 02ff 5F5F696E 		.ascii	"__int32_t\000"
 2776      7433325F 
 2776      7400
 2777              	.LASF95:
 2778 0309 73746B61 		.ascii	"stkalign_t\000"
 2778      6C69676E 
 2778      5F7400
 2779              	.LASF120:
 2780 0314 4558545F 		.ascii	"EXT_ACTIVE\000"
 2780      41435449 
 2780      564500
 2781              	.LASF136:
 2782 031f 636D6173 		.ascii	"cmask\000"
 2782      6B00
 2783              	.LASF84:
 2784 0325 494D5232 		.ascii	"IMR2\000"
 2784      00
 2785              	.LASF38:
 2786 032a 705F7761 		.ascii	"p_waiting\000"
 2786      6974696E 
 2786      6700
 2787              	.LASF78:
 2788 0334 73697A65 		.ascii	"sizetype\000"
 2788      74797065 
 2788      00
 2789              	.LASF44:
 2790 033d 74687265 		.ascii	"thread_reference_t\000"
 2790      61645F72 
 2790      65666572 
 2790      656E6365 
 2790      5F7400
 2791              	.LASF121:
 2792 0350 65787473 		.ascii	"extstate_t\000"
 2792      74617465 
 2792      5F7400
 2793              	.LASF67:
 2794 035b 63685F76 		.ascii	"ch_virtual_timers_list\000"
 2794      69727475 
 2794      616C5F74 
 2794      696D6572 
 2794      735F6C69 
 2795              	.LASF103:
 2796 0372 77747472 		.ascii	"wttrp\000"
 2796      7000
 2797              	.LASF25:
 2798 0378 636E745F 		.ascii	"cnt_t\000"
 2798      7400
 2799              	.LASF68:
ARM GAS  /tmp/ccNeGdAE.s 			page 53


 2800 037e 76745F6C 		.ascii	"vt_lasttime\000"
 2800      61737474 
 2800      696D6500 
 2801              	.LASF33:
 2802 038a 705F6F6C 		.ascii	"p_older\000"
 2802      64657200 
 2803              	.LASF54:
 2804 0392 725F6374 		.ascii	"r_ctx\000"
 2804      7800
 2805              	.LASF133:
 2806 0398 6578745F 		.ascii	"ext_lld_channel_enable\000"
 2806      6C6C645F 
 2806      6368616E 
 2806      6E656C5F 
 2806      656E6162 
 2807              	.LASF99:
 2808 03af 746D5F63 		.ascii	"tm_calibration_t\000"
 2808      616C6962 
 2808      72617469 
 2808      6F6E5F74 
 2808      00
 2809              	.LASF118:
 2810 03c0 4558545F 		.ascii	"EXT_UNINIT\000"
 2810      554E494E 
 2810      495400
 2811              	.LASF57:
 2812 03cb 725F6375 		.ascii	"r_current\000"
 2812      7272656E 
 2812      7400
 2813              	.LASF56:
 2814 03d5 725F6F6C 		.ascii	"r_older\000"
 2814      64657200 
 2815              	.LASF12:
 2816 03dd 5F5F7569 		.ascii	"__uint64_t\000"
 2816      6E743634 
 2816      5F7400
 2817              	.LASF79:
 2818 03e8 52545352 		.ascii	"RTSR\000"
 2818      00
 2819              	.LASF93:
 2820 03ed 53595343 		.ascii	"SYSCFG_TypeDef\000"
 2820      46475F54 
 2820      79706544 
 2820      656600
 2821              	.LASF21:
 2822 03fc 74726566 		.ascii	"trefs_t\000"
 2822      735F7400 
 2823              	.LASF82:
 2824 0404 52455345 		.ascii	"RESERVED1\000"
 2824      52564544 
 2824      3100
 2825              	.LASF83:
 2826 040e 52455345 		.ascii	"RESERVED2\000"
 2826      52564544 
 2826      3200
 2827              	.LASF59:
 2828 0418 76697274 		.ascii	"virtual_timer_t\000"
ARM GAS  /tmp/ccNeGdAE.s 			page 54


 2828      75616C5F 
 2828      74696D65 
 2828      725F7400 
 2829              	.LASF29:
 2830 0428 705F7072 		.ascii	"p_prev\000"
 2830      657600
 2831              	.LASF22:
 2832 042f 74707269 		.ascii	"tprio_t\000"
 2832      6F5F7400 
 2833              	.LASF70:
 2834 0437 63685F73 		.ascii	"ch_system_debug\000"
 2834      79737465 
 2834      6D5F6465 
 2834      62756700 
 2835              	.LASF117:
 2836 0447 5F426F6F 		.ascii	"_Bool\000"
 2836      6C00
 2837              	.LASF15:
 2838 044d 696E7433 		.ascii	"int32_t\000"
 2838      325F7400 
 2839              	.LASF4:
 2840 0455 756E7369 		.ascii	"unsigned char\000"
 2840      676E6564 
 2840      20636861 
 2840      7200
 2841              	.LASF80:
 2842 0463 46545352 		.ascii	"FTSR\000"
 2842      00
 2843              	.LASF41:
 2844 0468 705F6D74 		.ascii	"p_mtxlist\000"
 2844      786C6973 
 2844      7400
 2845              	.LASF5:
 2846 0472 73686F72 		.ascii	"short int\000"
 2846      7420696E 
 2846      7400
 2847              	.LASF35:
 2848 047c 705F7374 		.ascii	"p_state\000"
 2848      61746500 
 2849              	.LASF53:
 2850 0484 725F7072 		.ascii	"r_prio\000"
 2850      696F00
 2851              	.LASF107:
 2852 048b 65776D61 		.ascii	"ewmask\000"
 2852      736B00
 2853              	.LASF28:
 2854 0492 705F6E65 		.ascii	"p_next\000"
 2854      787400
 2855              	.LASF36:
 2856 0499 705F666C 		.ascii	"p_flags\000"
 2856      61677300 
 2857              	.LASF73:
 2858 04a1 63685F73 		.ascii	"ch_system\000"
 2858      79737465 
 2858      6D00
 2859              	.LASF100:
 2860 04ab 7264796D 		.ascii	"rdymsg\000"
ARM GAS  /tmp/ccNeGdAE.s 			page 55


 2860      736700
 2861              	.LASF135:
 2862 04b2 6368616E 		.ascii	"channel\000"
 2862      6E656C00 
 2863              	.LASF60:
 2864 04ba 63685F76 		.ascii	"ch_virtual_timer\000"
 2864      69727475 
 2864      616C5F74 
 2864      696D6572 
 2864      00
 2865              	.LASF108:
 2866 04cb 63685F73 		.ascii	"ch_semaphore\000"
 2866      656D6170 
 2866      686F7265 
 2866      00
 2867              	.LASF40:
 2868 04d8 705F6570 		.ascii	"p_epending\000"
 2868      656E6469 
 2868      6E6700
 2869              	.LASF16:
 2870 04e3 75696E74 		.ascii	"uint32_t\000"
 2870      33325F74 
 2870      00
 2871              	.LASF106:
 2872 04ec 77746D74 		.ascii	"wtmtxp\000"
 2872      787000
 2873              	.LASF52:
 2874 04f3 725F7175 		.ascii	"r_queue\000"
 2874      65756500 
 2875              	.LASF63:
 2876 04fb 76745F64 		.ascii	"vt_delta\000"
 2876      656C7461 
 2876      00
 2877              	.LASF47:
 2878 0504 63685F74 		.ascii	"ch_threads_list\000"
 2878      68726561 
 2878      64735F6C 
 2878      69737400 
 2879              	.LASF10:
 2880 0514 6C6F6E67 		.ascii	"long unsigned int\000"
 2880      20756E73 
 2880      69676E65 
 2880      6420696E 
 2880      7400
 2881              	.LASF119:
 2882 0526 4558545F 		.ascii	"EXT_STOP\000"
 2882      53544F50 
 2882      00
 2883              	.LASF115:
 2884 052f 63686172 		.ascii	"char\000"
 2884      00
 2885              	.LASF127:
 2886 0534 6D6F6465 		.ascii	"mode\000"
 2886      00
 2887              	.LASF124:
 2888 0539 636F6E66 		.ascii	"config\000"
 2888      696700
ARM GAS  /tmp/ccNeGdAE.s 			page 56


 2889              	.LASF126:
 2890 0540 65787463 		.ascii	"extcallback_t\000"
 2890      616C6C62 
 2890      61636B5F 
 2890      7400
 2891              	.LASF27:
 2892 054e 74687265 		.ascii	"thread_t\000"
 2892      61645F74 
 2892      00
 2893              	.LASF146:
 2894 0557 474E5520 		.ascii	"GNU C 4.8.4 20140526 (release) [ARM/embedded-4_8-br"
 2894      4320342E 
 2894      382E3420 
 2894      32303134 
 2894      30353236 
 2895 058a 616E6368 		.ascii	"anch revision 211358] -mcpu=cortex-m4 -mno-thumb-in"
 2895      20726576 
 2895      6973696F 
 2895      6E203231 
 2895      31333538 
 2896 05bd 74657277 		.ascii	"terwork -mthumb -ggdb -O2 -fomit-frame-pointer -fal"
 2896      6F726B20 
 2896      2D6D7468 
 2896      756D6220 
 2896      2D676764 
 2897 05f0 69676E2D 		.ascii	"ign-functions=16 -ffunction-sections -fdata-section"
 2897      66756E63 
 2897      74696F6E 
 2897      733D3136 
 2897      202D6666 
 2898 0623 73202D66 		.ascii	"s -fno-common\000"
 2898      6E6F2D63 
 2898      6F6D6D6F 
 2898      6E00
 2899              	.LASF114:
 2900 0631 6D5F6E65 		.ascii	"m_next\000"
 2900      787400
 2901              	.LASF26:
 2902 0638 73797374 		.ascii	"systime_t\000"
 2902      696D655F 
 2902      7400
 2903              	.LASF42:
 2904 0642 705F7265 		.ascii	"p_realprio\000"
 2904      616C7072 
 2904      696F00
 2905              	.LASF58:
 2906 064d 76746675 		.ascii	"vtfunc_t\000"
 2906      6E635F74 
 2906      00
 2907              	.LASF9:
 2908 0656 5F5F7569 		.ascii	"__uint32_t\000"
 2908      6E743332 
 2908      5F7400
 2909              	.LASF71:
 2910 0661 70616E69 		.ascii	"panic_msg\000"
 2910      635F6D73 
 2910      6700
ARM GAS  /tmp/ccNeGdAE.s 			page 57


 2911              	.LASF98:
 2912 066b 6F666673 		.ascii	"offset\000"
 2912      657400
 2913              	.LASF18:
 2914 0672 7274636E 		.ascii	"rtcnt_t\000"
 2914      745F7400 
 2915              	.LASF85:
 2916 067a 454D5232 		.ascii	"EMR2\000"
 2916      00
 2917              	.LASF65:
 2918 067f 76745F70 		.ascii	"vt_par\000"
 2918      617200
 2919              	.LASF122:
 2920 0686 45585444 		.ascii	"EXTDriver\000"
 2920      72697665 
 2920      7200
 2921              	.LASF48:
 2922 0690 74687265 		.ascii	"threads_queue_t\000"
 2922      6164735F 
 2922      71756575 
 2922      655F7400 
 2923              	.LASF111:
 2924 06a0 63685F6D 		.ascii	"ch_mutex\000"
 2924      75746578 
 2924      00
 2925              	.LASF37:
 2926 06a9 705F7265 		.ascii	"p_refs\000"
 2926      667300
 2927              	.LASF90:
 2928 06b0 43464752 		.ascii	"CFGR1\000"
 2928      3100
 2929              	.LASF92:
 2930 06b6 43464752 		.ascii	"CFGR2\000"
 2930      3200
 2931              	.LASF14:
 2932 06bc 75696E74 		.ascii	"uint8_t\000"
 2932      385F7400 
 2933              	.LASF102:
 2934 06c4 77746F62 		.ascii	"wtobjp\000"
 2934      6A7000
 2935              	.LASF34:
 2936 06cb 705F6E61 		.ascii	"p_name\000"
 2936      6D6500
 2937              	.LASF45:
 2938 06d2 74687265 		.ascii	"threads_list_t\000"
 2938      6164735F 
 2938      6C697374 
 2938      5F7400
 2939              	.LASF89:
 2940 06e1 45585449 		.ascii	"EXTI_TypeDef\000"
 2940      5F547970 
 2940      65446566 
 2940      00
 2941              	.LASF143:
 2942 06ee 45585444 		.ascii	"EXTD1\000"
 2942      3100
 2943              	.LASF113:
ARM GAS  /tmp/ccNeGdAE.s 			page 58


 2944 06f4 6D5F6F77 		.ascii	"m_owner\000"
 2944      6E657200 
 2945              	.LASF31:
 2946 06fc 705F6374 		.ascii	"p_ctx\000"
 2946      7800
 2947              	.LASF64:
 2948 0702 76745F66 		.ascii	"vt_func\000"
 2948      756E6300 
 2949              	.LASF91:
 2950 070a 45585449 		.ascii	"EXTICR\000"
 2950      435200
 2951              		.ident	"GCC: (GNU Tools for ARM Embedded Processors) 4.8.4 20140526 (release) [ARM/embedded-4_8-br
ARM GAS  /tmp/ccNeGdAE.s 			page 59


DEFINED SYMBOLS
                            *ABS*:00000000 ext_lld.c
     /tmp/ccNeGdAE.s:19     .text.ext_lld_init:00000000 $t
     /tmp/ccNeGdAE.s:25     .text.ext_lld_init:00000000 ext_lld_init
     /tmp/ccNeGdAE.s:40     .text.ext_lld_init:00000008 $d
     /tmp/ccNeGdAE.s:45     .text.ext_lld_stop:00000000 $t
     /tmp/ccNeGdAE.s:51     .text.ext_lld_stop:00000000 ext_lld_stop
     /tmp/ccNeGdAE.s:101    .text.ext_lld_stop:0000002c $d
     /tmp/ccNeGdAE.s:106    .text.ext_lld_channel_enable:00000000 $t
     /tmp/ccNeGdAE.s:112    .text.ext_lld_channel_enable:00000000 ext_lld_channel_enable
     /tmp/ccNeGdAE.s:309    .text.ext_lld_channel_enable:00000100 $d
     /tmp/ccNeGdAE.s:314    .text.ext_lld_channel_disable:00000000 $t
     /tmp/ccNeGdAE.s:320    .text.ext_lld_channel_disable:00000000 ext_lld_channel_disable
     /tmp/ccNeGdAE.s:388    .text.ext_lld_channel_disable:0000004c $d
     /tmp/ccNeGdAE.s:393    .text.ext_lld_start:00000000 $t
     /tmp/ccNeGdAE.s:399    .text.ext_lld_start:00000000 ext_lld_start
     /tmp/ccNeGdAE.s:473    .bss.EXTD1:00000000 EXTD1
     /tmp/ccNeGdAE.s:469    .bss.EXTD1:00000000 $d
                     .debug_frame:00000010 $d
     /tmp/ccNeGdAE.s:44     .text.ext_lld_init:0000000c $t
     /tmp/ccNeGdAE.s:313    .text.ext_lld_channel_enable:00000104 $t

UNDEFINED SYMBOLS
extObjectInit
ext_lld_exti_irq_disable
ext_lld_exti_irq_enable
