ARM GAS  /tmp/ccNeGdAE.s 			page 1


   1              		.syntax unified
   2              		.cpu cortex-m4
   3              		.fpu softvfp
   4              		.eabi_attribute 20, 1
   5              		.eabi_attribute 21, 1
   6              		.eabi_attribute 23, 3
   7              		.eabi_attribute 24, 1
   8              		.eabi_attribute 25, 1
   9              		.eabi_attribute 26, 1
  10              		.eabi_attribute 30, 2
  11              		.eabi_attribute 34, 1
  12              		.eabi_attribute 18, 4
  13              		.thumb
  14              		.file	"ext_lld.c"
  15              		.text
  16              	.Ltext0:
  17              		.cfi_sections	.debug_frame
  18              		.section	.text.ext_lld_init,"ax",%progbits
  19              		.align	2
  20              		.p2align 4,,15
  21              		.global	ext_lld_init
  22              		.thumb
  23              		.thumb_func
  24              		.type	ext_lld_init, %function
  25              	ext_lld_init:
  26              	.LFB272:
  27              		.file 1 "../ChibiOS/os/hal/ports/STM32/LLD/EXTIv1/ext_lld.c"
  28              		.loc 1 72 0
  29              		.cfi_startproc
  30              		@ args = 0, pretend = 0, frame = 0
  31              		@ frame_needed = 0, uses_anonymous_args = 0
  32              		@ link register save eliminated.
  33              		.loc 1 75 0
  34 0000 0148     		ldr	r0, .L2
  35 0002 FFF7FEBF 		b	extObjectInit
  36              	.LVL0:
  37              	.L3:
  38 0006 00BF     		.align	2
  39              	.L2:
  40 0008 00000000 		.word	.LANCHOR0
  41              		.cfi_endproc
  42              	.LFE272:
  43              		.size	ext_lld_init, .-ext_lld_init
  44 000c AFF30080 		.section	.text.ext_lld_stop,"ax",%progbits
  45              		.align	2
  46              		.p2align 4,,15
  47              		.global	ext_lld_stop
  48              		.thumb
  49              		.thumb_func
  50              		.type	ext_lld_stop, %function
  51              	ext_lld_stop:
  52              	.LFB274:
  53              		.loc 1 106 0
  54              		.cfi_startproc
  55              		@ args = 0, pretend = 0, frame = 0
  56              		@ frame_needed = 0, uses_anonymous_args = 0
  57              	.LVL1:
ARM GAS  /tmp/ccNeGdAE.s 			page 2


  58 0000 38B5     		push	{r3, r4, r5, lr}
  59              		.cfi_def_cfa_offset 16
  60              		.cfi_offset 3, -16
  61              		.cfi_offset 4, -12
  62              		.cfi_offset 5, -8
  63              		.cfi_offset 14, -4
  64              		.loc 1 108 0
  65 0002 0378     		ldrb	r3, [r0]	@ zero_extendqisi2
  66 0004 022B     		cmp	r3, #2
  67 0006 0ED0     		beq	.L7
  68              	.LVL2:
  69              	.L5:
  70              		.loc 1 111 0
  71 0008 084B     		ldr	r3, .L8
  72 000a 0025     		movs	r5, #0
  73              		.loc 1 112 0
  74 000c 4FF0FC54 		mov	r4, #528482304
  75              		.loc 1 113 0
  76 0010 6FF0FC50 		mvn	r0, #528482304
  77              		.loc 1 115 0
  78 0014 6FF00301 		mvn	r1, #3
  79              		.loc 1 116 0
  80 0018 0322     		movs	r2, #3
  81              		.loc 1 111 0
  82 001a 5D60     		str	r5, [r3, #4]
  83              		.loc 1 112 0
  84 001c 1C60     		str	r4, [r3]
  85              		.loc 1 113 0
  86 001e 5861     		str	r0, [r3, #20]
  87              		.loc 1 115 0
  88 0020 1962     		str	r1, [r3, #32]
  89              		.loc 1 116 0
  90 0022 5A63     		str	r2, [r3, #52]
  91 0024 38BD     		pop	{r3, r4, r5, pc}
  92              	.LVL3:
  93              	.L7:
  94              		.loc 1 109 0
  95 0026 FFF7FEFF 		bl	ext_lld_exti_irq_disable
  96              	.LVL4:
  97 002a EDE7     		b	.L5
  98              	.L9:
  99              		.align	2
 100              	.L8:
 101 002c 00040140 		.word	1073808384
 102              		.cfi_endproc
 103              	.LFE274:
 104              		.size	ext_lld_stop, .-ext_lld_stop
 105              		.section	.text.ext_lld_channel_enable,"ax",%progbits
 106              		.align	2
 107              		.p2align 4,,15
 108              		.global	ext_lld_channel_enable
 109              		.thumb
 110              		.thumb_func
 111              		.type	ext_lld_channel_enable, %function
 112              	ext_lld_channel_enable:
 113              	.LFB275:
 114              		.loc 1 128 0
ARM GAS  /tmp/ccNeGdAE.s 			page 3


 115              		.cfi_startproc
 116              		@ args = 0, pretend = 0, frame = 0
 117              		@ frame_needed = 0, uses_anonymous_args = 0
 118              		@ link register save eliminated.
 119              	.LVL5:
 120              		.loc 1 129 0
 121 0000 01F01F03 		and	r3, r1, #31
 122 0004 0122     		movs	r2, #1
 123              		.loc 1 132 0
 124 0006 0F29     		cmp	r1, #15
 125              		.loc 1 128 0
 126 0008 F0B4     		push	{r4, r5, r6, r7}
 127              		.cfi_def_cfa_offset 16
 128              		.cfi_offset 4, -16
 129              		.cfi_offset 5, -12
 130              		.cfi_offset 6, -8
 131              		.cfi_offset 7, -4
 132              		.loc 1 129 0
 133 000a 02FA03F3 		lsl	r3, r2, r3
 134              	.LVL6:
 135              		.loc 1 132 0
 136 000e 39D8     		bhi	.L11
 137              	.LVL7:
 138 0010 21F00302 		bic	r2, r1, #3
 139              	.LBB2:
 140              		.loc 1 135 0
 141 0014 4568     		ldr	r5, [r0, #4]
 142 0016 02F18042 		add	r2, r2, #1073741824
 143 001a 02F58032 		add	r2, r2, #65536
 144 001e 55F83160 		ldr	r6, [r5, r1, lsl #3]
 145              		.loc 1 142 0
 146 0022 9768     		ldr	r7, [r2, #8]
 147              		.loc 1 134 0
 148 0024 01F00304 		and	r4, r1, #3
 149 0028 A400     		lsls	r4, r4, #2
 150              	.LVL8:
 151 002a 0F25     		movs	r5, #15
 152              	.LVL9:
 153 002c A540     		lsls	r5, r5, r4
 154              		.loc 1 136 0
 155 002e C6F30316 		ubfx	r6, r6, #4, #4
 156              		.loc 1 142 0
 157 0032 27EA0505 		bic	r5, r7, r5
 158              		.loc 1 135 0
 159 0036 06FA04F4 		lsl	r4, r6, r4
 160              	.LVL10:
 161              		.loc 1 142 0
 162 003a 2C43     		orrs	r4, r4, r5
 163 003c 9460     		str	r4, [r2, #8]
 164              	.LVL11:
 165              	.L12:
 166              	.LBE2:
 167              		.loc 1 150 0
 168 003e 13F0FC5F 		tst	r3, #528482304
 169 0042 1DD1     		bne	.L10
 170 0044 4068     		ldr	r0, [r0, #4]
 171              	.LVL12:
ARM GAS  /tmp/ccNeGdAE.s 			page 4


 172              		.loc 1 155 0
 173 0046 50F83120 		ldr	r2, [r0, r1, lsl #3]
 174 004a D507     		lsls	r5, r2, #31
 175 004c 00EBC101 		add	r1, r0, r1, lsl #3
 176              	.LVL13:
 177              		.loc 1 156 0
 178 0050 2B48     		ldr	r0, .L29
 179              		.loc 1 155 0
 180 0052 3BD4     		bmi	.L27
 181              		.loc 1 158 0
 182 0054 8568     		ldr	r5, [r0, #8]
 183 0056 DC43     		mvns	r4, r3
 184 0058 2540     		ands	r5, r5, r4
 185 005a 8560     		str	r5, [r0, #8]
 186              	.L17:
 187              		.loc 1 159 0
 188 005c 12F0020F 		tst	r2, #2
 189              		.loc 1 160 0
 190 0060 274A     		ldr	r2, .L29
 191 0062 D068     		ldr	r0, [r2, #12]
 192 0064 14BF     		ite	ne
 193 0066 1843     		orrne	r0, r3, r0
 194              		.loc 1 162 0
 195 0068 2040     		andeq	r0, r4, r0
 196 006a D060     		str	r0, [r2, #12]
 197              		.loc 1 165 0
 198 006c 4A68     		ldr	r2, [r1, #4]
 199 006e 002A     		cmp	r2, #0
 200 0070 3ED0     		beq	.L20
 201              		.loc 1 166 0
 202 0072 234A     		ldr	r2, .L29
 203 0074 1168     		ldr	r1, [r2]
 204 0076 0B43     		orrs	r3, r3, r1
 205              	.LVL14:
 206 0078 1360     		str	r3, [r2]
 207              		.loc 1 167 0
 208 007a 5368     		ldr	r3, [r2, #4]
 209 007c 1C40     		ands	r4, r4, r3
 210 007e 5460     		str	r4, [r2, #4]
 211              	.L10:
 212              		.loc 1 202 0
 213 0080 F0BC     		pop	{r4, r5, r6, r7}
 214 0082 7047     		bx	lr
 215              	.LVL15:
 216              	.L11:
 217              		.loc 1 147 0
 218 0084 1F29     		cmp	r1, #31
 219 0086 DAD9     		bls	.L12
 220              		.loc 1 177 0
 221 0088 33F00302 		bics	r2, r3, #3
 222 008c F8D1     		bne	.L10
 223 008e 4068     		ldr	r0, [r0, #4]
 224              	.LVL16:
 225              		.loc 1 182 0
 226 0090 50F83120 		ldr	r2, [r0, r1, lsl #3]
 227 0094 D407     		lsls	r4, r2, #31
 228 0096 00EBC101 		add	r1, r0, r1, lsl #3
ARM GAS  /tmp/ccNeGdAE.s 			page 5


 229              	.LVL17:
 230              		.loc 1 183 0
 231 009a 1948     		ldr	r0, .L29
 232              		.loc 1 182 0
 233 009c 1BD4     		bmi	.L28
 234              		.loc 1 185 0
 235 009e 856A     		ldr	r5, [r0, #40]
 236 00a0 DC43     		mvns	r4, r3
 237 00a2 2540     		ands	r5, r5, r4
 238 00a4 8562     		str	r5, [r0, #40]
 239              	.L23:
 240              		.loc 1 186 0
 241 00a6 12F0020F 		tst	r2, #2
 242              		.loc 1 187 0
 243 00aa 154A     		ldr	r2, .L29
 244 00ac D06A     		ldr	r0, [r2, #44]
 245 00ae 14BF     		ite	ne
 246 00b0 1843     		orrne	r0, r3, r0
 247              		.loc 1 189 0
 248 00b2 2040     		andeq	r0, r4, r0
 249 00b4 D062     		str	r0, [r2, #44]
 250              		.loc 1 192 0
 251 00b6 4A68     		ldr	r2, [r1, #4]
 252 00b8 92B1     		cbz	r2, .L26
 253              		.loc 1 193 0
 254 00ba 114A     		ldr	r2, .L29
 255 00bc 116A     		ldr	r1, [r2, #32]
 256 00be 0B43     		orrs	r3, r3, r1
 257              	.LVL18:
 258 00c0 1362     		str	r3, [r2, #32]
 259              		.loc 1 194 0
 260 00c2 536A     		ldr	r3, [r2, #36]
 261 00c4 1C40     		ands	r4, r4, r3
 262 00c6 5462     		str	r4, [r2, #36]
 263              		.loc 1 202 0
 264 00c8 F0BC     		pop	{r4, r5, r6, r7}
 265 00ca 7047     		bx	lr
 266              	.LVL19:
 267              	.L27:
 268              		.loc 1 156 0
 269 00cc 8468     		ldr	r4, [r0, #8]
 270 00ce 1C43     		orrs	r4, r4, r3
 271 00d0 8460     		str	r4, [r0, #8]
 272 00d2 DC43     		mvns	r4, r3
 273 00d4 C2E7     		b	.L17
 274              	.L28:
 275              		.loc 1 183 0
 276 00d6 846A     		ldr	r4, [r0, #40]
 277 00d8 1C43     		orrs	r4, r4, r3
 278 00da 8462     		str	r4, [r0, #40]
 279 00dc DC43     		mvns	r4, r3
 280 00de E2E7     		b	.L23
 281              	.L26:
 282              		.loc 1 197 0
 283 00e0 074A     		ldr	r2, .L29
 284 00e2 516A     		ldr	r1, [r2, #36]
 285 00e4 0B43     		orrs	r3, r3, r1
ARM GAS  /tmp/ccNeGdAE.s 			page 6


 286              	.LVL20:
 287 00e6 5362     		str	r3, [r2, #36]
 288              		.loc 1 198 0
 289 00e8 136A     		ldr	r3, [r2, #32]
 290 00ea 1C40     		ands	r4, r4, r3
 291 00ec 1462     		str	r4, [r2, #32]
 292 00ee C7E7     		b	.L10
 293              	.LVL21:
 294              	.L20:
 295              		.loc 1 170 0
 296 00f0 034A     		ldr	r2, .L29
 297 00f2 5168     		ldr	r1, [r2, #4]
 298 00f4 0B43     		orrs	r3, r3, r1
 299              	.LVL22:
 300 00f6 5360     		str	r3, [r2, #4]
 301              		.loc 1 171 0
 302 00f8 1368     		ldr	r3, [r2]
 303 00fa 1C40     		ands	r4, r4, r3
 304 00fc 1460     		str	r4, [r2]
 305 00fe BFE7     		b	.L10
 306              	.L30:
 307              		.align	2
 308              	.L29:
 309 0100 00040140 		.word	1073808384
 310              		.cfi_endproc
 311              	.LFE275:
 312              		.size	ext_lld_channel_enable, .-ext_lld_channel_enable
 313 0104 AFF30080 		.section	.text.ext_lld_channel_disable,"ax",%progbits
 313      AFF30080 
 313      AFF30080 
 314              		.align	2
 315              		.p2align 4,,15
 316              		.global	ext_lld_channel_disable
 317              		.thumb
 318              		.thumb_func
 319              		.type	ext_lld_channel_disable, %function
 320              	ext_lld_channel_disable:
 321              	.LFB276:
 322              		.loc 1 212 0
 323              		.cfi_startproc
 324              		@ args = 0, pretend = 0, frame = 0
 325              		@ frame_needed = 0, uses_anonymous_args = 0
 326              		@ link register save eliminated.
 327              	.LVL23:
 328              		.loc 1 213 0
 329 0000 01F01F03 		and	r3, r1, #31
 330 0004 0120     		movs	r0, #1
 331              	.LVL24:
 332              		.loc 1 218 0
 333 0006 1F29     		cmp	r1, #31
 334              		.loc 1 213 0
 335 0008 00FA03F0 		lsl	r0, r0, r3
 336              	.LVL25:
 337              		.loc 1 220 0
 338 000c 0F4B     		ldr	r3, .L35
 339              		.loc 1 218 0
 340 000e 0ED9     		bls	.L34
ARM GAS  /tmp/ccNeGdAE.s 			page 7


 341              		.loc 1 228 0
 342 0010 196A     		ldr	r1, [r3, #32]
 343              	.LVL26:
 344 0012 C243     		mvns	r2, r0
 345 0014 1140     		ands	r1, r1, r2
 346 0016 1962     		str	r1, [r3, #32]
 347              		.loc 1 229 0
 348 0018 596A     		ldr	r1, [r3, #36]
 349 001a 1140     		ands	r1, r1, r2
 350 001c 5962     		str	r1, [r3, #36]
 351              		.loc 1 230 0
 352 001e 996A     		ldr	r1, [r3, #40]
 353 0020 1140     		ands	r1, r1, r2
 354 0022 9962     		str	r1, [r3, #40]
 355              		.loc 1 231 0
 356 0024 D96A     		ldr	r1, [r3, #44]
 357 0026 0A40     		ands	r2, r2, r1
 358 0028 DA62     		str	r2, [r3, #44]
 359              		.loc 1 232 0
 360 002a 5863     		str	r0, [r3, #52]
 361 002c 7047     		bx	lr
 362              	.LVL27:
 363              	.L34:
 364              		.loc 1 220 0
 365 002e 1968     		ldr	r1, [r3]
 366              	.LVL28:
 367 0030 C243     		mvns	r2, r0
 368 0032 1140     		ands	r1, r1, r2
 369 0034 1960     		str	r1, [r3]
 370              		.loc 1 221 0
 371 0036 5968     		ldr	r1, [r3, #4]
 372 0038 1140     		ands	r1, r1, r2
 373 003a 5960     		str	r1, [r3, #4]
 374              		.loc 1 222 0
 375 003c 9968     		ldr	r1, [r3, #8]
 376 003e 1140     		ands	r1, r1, r2
 377 0040 9960     		str	r1, [r3, #8]
 378              		.loc 1 223 0
 379 0042 D968     		ldr	r1, [r3, #12]
 380 0044 0A40     		ands	r2, r2, r1
 381 0046 DA60     		str	r2, [r3, #12]
 382              		.loc 1 224 0
 383 0048 5861     		str	r0, [r3, #20]
 384 004a 7047     		bx	lr
 385              	.L36:
 386              		.align	2
 387              	.L35:
 388 004c 00040140 		.word	1073808384
 389              		.cfi_endproc
 390              	.LFE276:
 391              		.size	ext_lld_channel_disable, .-ext_lld_channel_disable
 392              		.section	.text.ext_lld_start,"ax",%progbits
 393              		.align	2
 394              		.p2align 4,,15
 395              		.global	ext_lld_start
 396              		.thumb
 397              		.thumb_func
ARM GAS  /tmp/ccNeGdAE.s 			page 8


 398              		.type	ext_lld_start, %function
 399              	ext_lld_start:
 400              	.LFB273:
 401              		.loc 1 85 0
 402              		.cfi_startproc
 403              		@ args = 0, pretend = 0, frame = 0
 404              		@ frame_needed = 0, uses_anonymous_args = 0
 405              	.LVL29:
 406 0000 38B5     		push	{r3, r4, r5, lr}
 407              		.cfi_def_cfa_offset 16
 408              		.cfi_offset 3, -16
 409              		.cfi_offset 4, -12
 410              		.cfi_offset 5, -8
 411              		.cfi_offset 14, -4
 412              		.loc 1 88 0
 413 0002 0378     		ldrb	r3, [r0]	@ zero_extendqisi2
 414 0004 012B     		cmp	r3, #1
 415              		.loc 1 85 0
 416 0006 0546     		mov	r5, r0
 417              		.loc 1 88 0
 418 0008 14D0     		beq	.L43
 419              	.LVL30:
 420              	.L38:
 421              		.loc 1 85 0 discriminator 1
 422 000a 0024     		movs	r4, #0
 423 000c 04E0     		b	.L42
 424              	.LVL31:
 425              	.L45:
 426              		.loc 1 92 0
 427 000e 0134     		adds	r4, r4, #1
 428              		.loc 1 94 0
 429 0010 FFF7FEFF 		bl	ext_lld_channel_enable
 430              	.LVL32:
 431              		.loc 1 92 0
 432 0014 222C     		cmp	r4, #34
 433 0016 0CD0     		beq	.L44
 434              	.LVL33:
 435              	.L42:
 436              		.loc 1 93 0
 437 0018 6B68     		ldr	r3, [r5, #4]
 438 001a 53F83430 		ldr	r3, [r3, r4, lsl #3]
 439 001e 13F0040F 		tst	r3, #4
 440              		.loc 1 96 0
 441 0022 2146     		mov	r1, r4
 442 0024 2846     		mov	r0, r5
 443              		.loc 1 93 0
 444 0026 F2D1     		bne	.L45
 445              	.LVL34:
 446              		.loc 1 92 0
 447 0028 0134     		adds	r4, r4, #1
 448              	.LVL35:
 449              		.loc 1 96 0
 450 002a FFF7FEFF 		bl	ext_lld_channel_disable
 451              	.LVL36:
 452              		.loc 1 92 0
 453 002e 222C     		cmp	r4, #34
 454 0030 F2D1     		bne	.L42
ARM GAS  /tmp/ccNeGdAE.s 			page 9


 455              	.L44:
 456              		.loc 1 97 0
 457 0032 38BD     		pop	{r3, r4, r5, pc}
 458              	.LVL37:
 459              	.L43:
 460              		.loc 1 89 0
 461 0034 FFF7FEFF 		bl	ext_lld_exti_irq_enable
 462              	.LVL38:
 463 0038 E7E7     		b	.L38
 464              		.cfi_endproc
 465              	.LFE273:
 466              		.size	ext_lld_start, .-ext_lld_start
 467              		.global	EXTD1
 468 003a 00BFAFF3 		.section	.bss.EXTD1,"aw",%nobits
 468      0080
 469              		.align	2
 470              		.set	.LANCHOR0,. + 0
 471              		.type	EXTD1, %object
 472              		.size	EXTD1, 8
 473              	EXTD1:
 474 0000 00000000 		.space	8
 474      00000000 
 475              		.text
 476              	.Letext0:
 477              		.file 2 "/nfs/nfs5/home/research/hardware/arm2/gcc-arm-embedded/gcc-arm-none-eabi-4_8-2014q2/lib/g
 478              		.file 3 "/nfs/nfs5/home/research/hardware/arm2/gcc-arm-embedded/gcc-arm-none-eabi-4_8-2014q2/arm-n
 479              		.file 4 "/nfs/nfs5/home/research/hardware/arm2/gcc-arm-embedded/gcc-arm-none-eabi-4_8-2014q2/arm-n
 480              		.file 5 "../ChibiOS/os/rt/ports/ARMCMx/compilers/GCC/chtypes.h"
 481              		.file 6 "../ChibiOS/os/rt/include/chsystypes.h"
 482              		.file 7 "../ChibiOS/os/rt/include/chschd.h"
 483              		.file 8 "../ChibiOS/os/ext/CMSIS/ST/STM32F3xx/stm32f303xc.h"
 484              		.file 9 "../ChibiOS/os/rt/ports/ARMCMx/chcore.h"
 485              		.file 10 "../ChibiOS/os/rt/ports/ARMCMx/chcore_v7m.h"
 486              		.file 11 "../ChibiOS/os/rt/include/chtm.h"
 487              		.file 12 "../ChibiOS/os/rt/include/chsem.h"
 488              		.file 13 "../ChibiOS/os/rt/include/chmtx.h"
 489              		.file 14 "../ChibiOS/os/hal/include/ext.h"
 490              		.file 15 "../ChibiOS/os/hal/ports/STM32/LLD/EXTIv1/ext_lld.h"
 491              		.file 16 "../ChibiOS/os/ext/CMSIS/include/core_cm4.h"
 492              		.file 17 "../ChibiOS/os/hal/ports/STM32/STM32F3xx/ext_lld_isr.h"