ARM GAS  /tmp/ccrpaMoh.s 			page 1


   1              		.syntax unified
   2              		.cpu cortex-m4
   3              		.fpu softvfp
   4              		.eabi_attribute 20, 1
   5              		.eabi_attribute 21, 1
   6              		.eabi_attribute 23, 3
   7              		.eabi_attribute 24, 1
   8              		.eabi_attribute 25, 1
   9              		.eabi_attribute 26, 1
  10              		.eabi_attribute 30, 2
  11              		.eabi_attribute 34, 1
  12              		.eabi_attribute 18, 4
  13              		.thumb
  14              		.file	"fatfs_diskio.c"
  15              		.text
  16              	.Ltext0:
  17              		.cfi_sections	.debug_frame
  18              		.section	.text.disk_initialize,"ax",%progbits
  19              		.align	2
  20              		.p2align 4,,15
  21              		.global	disk_initialize
  22              		.thumb
  23              		.thumb_func
  24              		.type	disk_initialize, %function
  25              	disk_initialize:
  26              	.LFB272:
  27              		.file 1 "../ChibiOS/os/various/fatfs_bindings/fatfs_diskio.c"
  28              		.loc 1 42 0
  29              		.cfi_startproc
  30              		@ args = 0, pretend = 0, frame = 0
  31              		@ frame_needed = 0, uses_anonymous_args = 0
  32              	.LVL0:
  33 0000 10B5     		push	{r4, lr}
  34              		.cfi_def_cfa_offset 8
  35              		.cfi_offset 4, -8
  36              		.cfi_offset 14, -4
  37              		.loc 1 45 0
  38 0002 60B9     		cbnz	r0, .L8
  39              	.LVL1:
  40              		.loc 1 50 0
  41 0004 0748     		ldr	r0, .L10
  42              	.LVL2:
  43 0006 0479     		ldrb	r4, [r0, #4]	@ zero_extendqisi2
  44              		.loc 1 48 0
  45 0008 053C     		subs	r4, r4, #5
  46 000a 18BF     		it	ne
  47 000c 0124     		movne	r4, #1
  48              	.LVL3:
  49              		.loc 1 52 0
  50 000e FFF7FEFF 		bl	mmc_lld_is_write_protected
  51              	.LVL4:
  52 0012 10B1     		cbz	r0, .L2
  53              		.loc 1 53 0
  54 0014 44F00404 		orr	r4, r4, #4
  55              	.LVL5:
  56 0018 E4B2     		uxtb	r4, r4
  57              	.L2:
ARM GAS  /tmp/ccrpaMoh.s 			page 2


  58              		.loc 1 67 0
  59 001a 2046     		mov	r0, r4
  60 001c 10BD     		pop	{r4, pc}
  61              	.LVL6:
  62              	.L8:
  63              		.loc 1 66 0
  64 001e 0124     		movs	r4, #1
  65              		.loc 1 67 0
  66 0020 2046     		mov	r0, r4
  67              	.LVL7:
  68 0022 10BD     		pop	{r4, pc}
  69              	.L11:
  70              		.align	2
  71              	.L10:
  72 0024 00000000 		.word	MMCD1
  73              		.cfi_endproc
  74              	.LFE272:
  75              		.size	disk_initialize, .-disk_initialize
  76 0028 AFF30080 		.section	.text.disk_status,"ax",%progbits
  76      AFF30080 
  77              		.align	2
  78              		.p2align 4,,15
  79              		.global	disk_status
  80              		.thumb
  81              		.thumb_func
  82              		.type	disk_status, %function
  83              	disk_status:
  84              	.LFB273:
  85              		.loc 1 77 0
  86              		.cfi_startproc
  87              		@ args = 0, pretend = 0, frame = 0
  88              		@ frame_needed = 0, uses_anonymous_args = 0
  89              	.LVL8:
  90 0000 10B5     		push	{r4, lr}
  91              		.cfi_def_cfa_offset 8
  92              		.cfi_offset 4, -8
  93              		.cfi_offset 14, -4
  94              		.loc 1 80 0
  95 0002 60B9     		cbnz	r0, .L19
  96              	.LVL9:
  97              		.loc 1 85 0
  98 0004 0748     		ldr	r0, .L20
  99              	.LVL10:
 100 0006 0479     		ldrb	r4, [r0, #4]	@ zero_extendqisi2
 101              		.loc 1 83 0
 102 0008 053C     		subs	r4, r4, #5
 103 000a 18BF     		it	ne
 104 000c 0124     		movne	r4, #1
 105              	.LVL11:
 106              		.loc 1 87 0
 107 000e FFF7FEFF 		bl	mmc_lld_is_write_protected
 108              	.LVL12:
 109 0012 10B1     		cbz	r0, .L13
 110              		.loc 1 88 0
 111 0014 44F00404 		orr	r4, r4, #4
 112              	.LVL13:
 113 0018 E4B2     		uxtb	r4, r4
ARM GAS  /tmp/ccrpaMoh.s 			page 3


 114              	.L13:
 115              		.loc 1 102 0
 116 001a 2046     		mov	r0, r4
 117 001c 10BD     		pop	{r4, pc}
 118              	.LVL14:
 119              	.L19:
 120              		.loc 1 101 0
 121 001e 0124     		movs	r4, #1
 122              		.loc 1 102 0
 123 0020 2046     		mov	r0, r4
 124              	.LVL15:
 125 0022 10BD     		pop	{r4, pc}
 126              	.L21:
 127              		.align	2
 128              	.L20:
 129 0024 00000000 		.word	MMCD1
 130              		.cfi_endproc
 131              	.LFE273:
 132              		.size	disk_status, .-disk_status
 133 0028 AFF30080 		.section	.text.disk_read,"ax",%progbits
 133      AFF30080 
 134              		.align	2
 135              		.p2align 4,,15
 136              		.global	disk_read
 137              		.thumb
 138              		.thumb_func
 139              		.type	disk_read, %function
 140              	disk_read:
 141              	.LFB274:
 142              		.loc 1 115 0
 143              		.cfi_startproc
 144              		@ args = 0, pretend = 0, frame = 8
 145              		@ frame_needed = 0, uses_anonymous_args = 0
 146              	.LVL16:
 147 0000 10B5     		push	{r4, lr}
 148              		.cfi_def_cfa_offset 8
 149              		.cfi_offset 4, -8
 150              		.cfi_offset 14, -4
 151 0002 0C46     		mov	r4, r1
 152 0004 82B0     		sub	sp, sp, #8
 153              		.cfi_def_cfa_offset 16
 154              		.loc 1 116 0
 155 0006 10B1     		cbz	r0, .L36
 156              		.loc 1 141 0
 157 0008 0420     		movs	r0, #4
 158              	.LVL17:
 159              	.L23:
 160              		.loc 1 142 0
 161 000a 02B0     		add	sp, sp, #8
 162              		@ sp needed
 163 000c 10BD     		pop	{r4, pc}
 164              	.LVL18:
 165              	.L36:
 166              		.loc 1 119 0
 167 000e 1148     		ldr	r0, .L38
 168              	.LVL19:
 169 0010 0179     		ldrb	r1, [r0, #4]	@ zero_extendqisi2
ARM GAS  /tmp/ccrpaMoh.s 			page 4


 170              	.LVL20:
 171 0012 0529     		cmp	r1, #5
 172              		.loc 1 120 0
 173 0014 18BF     		it	ne
 174 0016 0320     		movne	r0, #3
 175              		.loc 1 119 0
 176 0018 F7D1     		bne	.L23
 177              		.loc 1 121 0
 178 001a 1146     		mov	r1, r2
 179 001c 0193     		str	r3, [sp, #4]
 180 001e FFF7FEFF 		bl	mmcStartSequentialRead
 181              	.LVL21:
 182 0022 019B     		ldr	r3, [sp, #4]
 183 0024 68B9     		cbnz	r0, .L27
 184              	.LVL22:
 185              		.loc 1 123 0 discriminator 1
 186 0026 13B9     		cbnz	r3, .L29
 187 0028 0DE0     		b	.L28
 188              	.LVL23:
 189              	.L37:
 190              		.loc 1 123 0 is_stmt 0
 191 002a 013B     		subs	r3, r3, #1
 192              	.LVL24:
 193 002c 0BD0     		beq	.L28
 194              	.LVL25:
 195              	.L29:
 196              		.loc 1 124 0 is_stmt 1
 197 002e 2146     		mov	r1, r4
 198 0030 0848     		ldr	r0, .L38
 199 0032 0193     		str	r3, [sp, #4]
 200 0034 FFF7FEFF 		bl	mmcSequentialRead
 201              	.LVL26:
 202              		.loc 1 126 0
 203 0038 04F50074 		add	r4, r4, #512
 204              	.LVL27:
 205              		.loc 1 124 0
 206 003c 019B     		ldr	r3, [sp, #4]
 207 003e 0028     		cmp	r0, #0
 208 0040 F3D0     		beq	.L37
 209              	.LVL28:
 210              	.L27:
 211              		.loc 1 122 0
 212 0042 0120     		movs	r0, #1
 213 0044 E1E7     		b	.L23
 214              	.L28:
 215              		.loc 1 129 0
 216 0046 0348     		ldr	r0, .L38
 217              		.loc 1 142 0
 218 0048 02B0     		add	sp, sp, #8
 219              		@ sp needed
 220 004a BDE81040 		pop	{r4, lr}
 221              	.LVL29:
 222              		.loc 1 129 0
 223 004e FFF7FEBF 		b	mmcStopSequentialRead
 224              	.LVL30:
 225              	.L39:
 226 0052 00BF     		.align	2
ARM GAS  /tmp/ccrpaMoh.s 			page 5


 227              	.L38:
 228 0054 00000000 		.word	MMCD1
 229              		.cfi_endproc
 230              	.LFE274:
 231              		.size	disk_read, .-disk_read
 232 0058 AFF30080 		.section	.text.disk_write,"ax",%progbits
 232      AFF30080 
 233              		.align	2
 234              		.p2align 4,,15
 235              		.global	disk_write
 236              		.thumb
 237              		.thumb_func
 238              		.type	disk_write, %function
 239              	disk_write:
 240              	.LFB275:
 241              		.loc 1 156 0
 242              		.cfi_startproc
 243              		@ args = 0, pretend = 0, frame = 8
 244              		@ frame_needed = 0, uses_anonymous_args = 0
 245              	.LVL31:
 246 0000 30B5     		push	{r4, r5, lr}
 247              		.cfi_def_cfa_offset 12
 248              		.cfi_offset 4, -12
 249              		.cfi_offset 5, -8
 250              		.cfi_offset 14, -4
 251 0002 0C46     		mov	r4, r1
 252 0004 83B0     		sub	sp, sp, #12
 253              		.cfi_def_cfa_offset 24
 254              		.loc 1 157 0
 255 0006 10B1     		cbz	r0, .L55
 256              		.loc 1 184 0
 257 0008 0420     		movs	r0, #4
 258              	.LVL32:
 259              	.L41:
 260              		.loc 1 185 0
 261 000a 03B0     		add	sp, sp, #12
 262              		@ sp needed
 263 000c 30BD     		pop	{r4, r5, pc}
 264              	.LVL33:
 265              	.L55:
 266              		.loc 1 160 0
 267 000e 154D     		ldr	r5, .L58
 268 0010 2979     		ldrb	r1, [r5, #4]	@ zero_extendqisi2
 269              	.LVL34:
 270 0012 0529     		cmp	r1, #5
 271              		.loc 1 161 0
 272 0014 18BF     		it	ne
 273 0016 0320     		movne	r0, #3
 274              	.LVL35:
 275              		.loc 1 160 0
 276 0018 F7D1     		bne	.L41
 277              		.loc 1 162 0
 278 001a 2846     		mov	r0, r5
 279 001c 0192     		str	r2, [sp, #4]
 280 001e 0093     		str	r3, [sp]
 281 0020 FFF7FEFF 		bl	mmc_lld_is_write_protected
 282              	.LVL36:
ARM GAS  /tmp/ccrpaMoh.s 			page 6


 283 0024 019A     		ldr	r2, [sp, #4]
 284 0026 08B1     		cbz	r0, .L56
 285              		.loc 1 163 0
 286 0028 0220     		movs	r0, #2
 287 002a EEE7     		b	.L41
 288              	.L56:
 289              		.loc 1 164 0
 290 002c 2846     		mov	r0, r5
 291 002e 1146     		mov	r1, r2
 292 0030 FFF7FEFF 		bl	mmcStartSequentialWrite
 293              	.LVL37:
 294 0034 009B     		ldr	r3, [sp]
 295 0036 68B9     		cbnz	r0, .L45
 296              	.LVL38:
 297              		.loc 1 166 0 discriminator 1
 298 0038 13B9     		cbnz	r3, .L47
 299 003a 0DE0     		b	.L46
 300              	.LVL39:
 301              	.L57:
 302              		.loc 1 166 0 is_stmt 0
 303 003c 013B     		subs	r3, r3, #1
 304              	.LVL40:
 305 003e 0BD0     		beq	.L46
 306              	.LVL41:
 307              	.L47:
 308              		.loc 1 167 0 is_stmt 1
 309 0040 2146     		mov	r1, r4
 310 0042 0848     		ldr	r0, .L58
 311 0044 0093     		str	r3, [sp]
 312 0046 FFF7FEFF 		bl	mmcSequentialWrite
 313              	.LVL42:
 314              		.loc 1 169 0
 315 004a 04F50074 		add	r4, r4, #512
 316              	.LVL43:
 317              		.loc 1 167 0
 318 004e 009B     		ldr	r3, [sp]
 319 0050 0028     		cmp	r0, #0
 320 0052 F3D0     		beq	.L57
 321              	.LVL44:
 322              	.L45:
 323              		.loc 1 165 0
 324 0054 0120     		movs	r0, #1
 325 0056 D8E7     		b	.L41
 326              	.L46:
 327              		.loc 1 172 0
 328 0058 0248     		ldr	r0, .L58
 329              		.loc 1 185 0
 330 005a 03B0     		add	sp, sp, #12
 331              		@ sp needed
 332 005c BDE83040 		pop	{r4, r5, lr}
 333              	.LVL45:
 334              		.loc 1 172 0
 335 0060 FFF7FEBF 		b	mmcStopSequentialWrite
 336              	.LVL46:
 337              	.L59:
 338              		.align	2
 339              	.L58:
ARM GAS  /tmp/ccrpaMoh.s 			page 7


 340 0064 00000000 		.word	MMCD1
 341              		.cfi_endproc
 342              	.LFE275:
 343              		.size	disk_write, .-disk_write
 344 0068 AFF30080 		.section	.text.disk_ioctl,"ax",%progbits
 344      AFF30080 
 345              		.align	2
 346              		.p2align 4,,15
 347              		.global	disk_ioctl
 348              		.thumb
 349              		.thumb_func
 350              		.type	disk_ioctl, %function
 351              	disk_ioctl:
 352              	.LFB276:
 353              		.loc 1 199 0
 354              		.cfi_startproc
 355              		@ args = 0, pretend = 0, frame = 0
 356              		@ frame_needed = 0, uses_anonymous_args = 0
 357              		@ link register save eliminated.
 358              	.LVL47:
 359              		.loc 1 200 0
 360 0000 08B1     		cbz	r0, .L69
 361              	.L68:
 362              		.loc 1 215 0
 363 0002 0420     		movs	r0, #4
 364              	.LVL48:
 365              		.loc 1 242 0
 366 0004 7047     		bx	lr
 367              	.LVL49:
 368              	.L69:
 369              		.loc 1 203 0
 370 0006 29B1     		cbz	r1, .L63
 371 0008 0229     		cmp	r1, #2
 372 000a FAD1     		bne	.L68
 373              		.loc 1 207 0
 374 000c 4FF40073 		mov	r3, #512
 375 0010 1380     		strh	r3, [r2]	@ movhi
 376              		.loc 1 208 0
 377 0012 7047     		bx	lr
 378              	.L63:
 379              		.loc 1 205 0
 380 0014 0846     		mov	r0, r1
 381              	.LVL50:
 382 0016 7047     		bx	lr
 383              		.cfi_endproc
 384              	.LFE276:
 385              		.size	disk_ioctl, .-disk_ioctl
 386 0018 AFF30080 		.section	.text.get_fattime,"ax",%progbits
 386      AFF30080 
 387              		.align	2
 388              		.p2align 4,,15
 389              		.global	get_fattime
 390              		.thumb
 391              		.thumb_func
 392              		.type	get_fattime, %function
 393              	get_fattime:
 394              	.LFB277:
ARM GAS  /tmp/ccrpaMoh.s 			page 8


 395              		.loc 1 245 0
 396              		.cfi_startproc
 397              		@ args = 0, pretend = 0, frame = 8
 398              		@ frame_needed = 0, uses_anonymous_args = 0
 399 0000 00B5     		push	{lr}
 400              		.cfi_def_cfa_offset 4
 401              		.cfi_offset 14, -4
 402 0002 83B0     		sub	sp, sp, #12
 403              		.cfi_def_cfa_offset 16
 404              		.loc 1 249 0
 405 0004 6946     		mov	r1, sp
 406 0006 0448     		ldr	r0, .L71
 407 0008 FFF7FEFF 		bl	rtcGetTime
 408              	.LVL51:
 409              		.loc 1 250 0
 410 000c 6846     		mov	r0, sp
 411 000e FFF7FEFF 		bl	rtcConvertDateTimeToFAT
 412              	.LVL52:
 413              		.loc 1 254 0
 414 0012 03B0     		add	sp, sp, #12
 415              		@ sp needed
 416 0014 5DF804FB 		ldr	pc, [sp], #4
 417              	.L72:
 418              		.align	2
 419              	.L71:
 420 0018 00000000 		.word	RTCD1
 421              		.cfi_endproc
 422              	.LFE277:
 423              		.size	get_fattime, .-get_fattime
 424 001c AFF30080 		.text
 425              	.Letext0:
 426              		.file 2 "/nfs/nfs5/home/research/hardware/arm2/gcc-arm-embedded/gcc-arm-none-eabi-4_8-2014q2/lib/g
 427              		.file 3 "/nfs/nfs5/home/research/hardware/arm2/gcc-arm-embedded/gcc-arm-none-eabi-4_8-2014q2/arm-n
 428              		.file 4 "/nfs/nfs5/home/research/hardware/arm2/gcc-arm-embedded/gcc-arm-none-eabi-4_8-2014q2/arm-n
 429              		.file 5 "../ChibiOS/os/rt/ports/ARMCMx/compilers/GCC/chtypes.h"
 430              		.file 6 "../ChibiOS/os/rt/include/chsystypes.h"
 431              		.file 7 "../ChibiOS/os/rt/include/chschd.h"
 432              		.file 8 "../ChibiOS/os/ext/CMSIS/ST/STM32F3xx/stm32f303xc.h"
 433              		.file 9 "../ChibiOS/os/rt/ports/ARMCMx/chcore.h"
 434              		.file 10 "../ChibiOS/os/rt/ports/ARMCMx/chcore_v7m.h"
 435              		.file 11 "../ChibiOS/os/rt/include/chtm.h"
 436              		.file 12 "../ChibiOS/os/rt/include/chsem.h"
 437              		.file 13 "../ChibiOS/os/rt/include/chmtx.h"
 438              		.file 14 "../ChibiOS/os/hal/ports/STM32/LLD/DMAv1/stm32_dma.h"
 439              		.file 15 "../ChibiOS/os/hal/include/hal_ioblock.h"
 440              		.file 16 "../ChibiOS/os/hal/ports/STM32/LLD/GPIOv2/pal_lld.h"
 441              		.file 17 "../ChibiOS/os/hal/include/rtc.h"
 442              		.file 18 "../ChibiOS/os/hal/ports/STM32/LLD/RTCv2/rtc_lld.h"
 443              		.file 19 "../ChibiOS/os/hal/include/spi.h"
 444              		.file 20 "../ChibiOS/os/hal/ports/STM32/LLD/SPIv2/spi_lld.h"
 445              		.file 21 "../ChibiOS/os/hal/include/mmc_spi.h"
 446              		.file 22 "../ChibiOS/ext/fatfs/src/integer.h"
 447              		.file 23 "../ChibiOS/ext/fatfs/src/diskio.h"
 448              		.file 24 "../ChibiOS/os/ext/CMSIS/include/core_cm4.h"
 449              		.section	.debug_info,"",%progbits
 450              	.Ldebug_info0:
 451 0000 96120000 		.4byte	0x1296
ARM GAS  /tmp/ccrpaMoh.s 			page 9


 452 0004 0400     		.2byte	0x4
 453 0006 00000000 		.4byte	.Ldebug_abbrev0
 454 000a 04       		.byte	0x4
 455 000b 01       		.uleb128 0x1
 456 000c DB040000 		.4byte	.LASF257
 457 0010 01       		.byte	0x1
 458 0011 D9090000 		.4byte	.LASF258
 459 0015 7E060000 		.4byte	.LASF259
 460 0019 00000000 		.4byte	.Ldebug_ranges0+0
 461 001d 00000000 		.4byte	0
 462 0021 00000000 		.4byte	.Ldebug_line0
 463 0025 02       		.uleb128 0x2
 464 0026 04       		.byte	0x4
 465 0027 05       		.byte	0x5
 466 0028 696E7400 		.ascii	"int\000"
 467 002c 03       		.uleb128 0x3
 468 002d 25000000 		.4byte	.LASF2
 469 0031 02       		.byte	0x2
 470 0032 D4       		.byte	0xd4
 471 0033 37000000 		.4byte	0x37
 472 0037 04       		.uleb128 0x4
 473 0038 04       		.byte	0x4
 474 0039 07       		.byte	0x7
 475 003a 14060000 		.4byte	.LASF0
 476 003e 04       		.uleb128 0x4
 477 003f 01       		.byte	0x1
 478 0040 06       		.byte	0x6
 479 0041 DE010000 		.4byte	.LASF1
 480 0045 03       		.uleb128 0x3
 481 0046 31010000 		.4byte	.LASF3
 482 004a 03       		.byte	0x3
 483 004b 1C       		.byte	0x1c
 484 004c 50000000 		.4byte	0x50
 485 0050 04       		.uleb128 0x4
 486 0051 01       		.byte	0x1
 487 0052 08       		.byte	0x8
 488 0053 40020000 		.4byte	.LASF4
 489 0057 04       		.uleb128 0x4
 490 0058 02       		.byte	0x2
 491 0059 05       		.byte	0x5
 492 005a 1B090000 		.4byte	.LASF5
 493 005e 03       		.uleb128 0x3
 494 005f 06030000 		.4byte	.LASF6
 495 0063 03       		.byte	0x3
 496 0064 26       		.byte	0x26
 497 0065 69000000 		.4byte	0x69
 498 0069 04       		.uleb128 0x4
 499 006a 02       		.byte	0x2
 500 006b 07       		.byte	0x7
 501 006c 520A0000 		.4byte	.LASF7
 502 0070 03       		.uleb128 0x3
 503 0071 810A0000 		.4byte	.LASF8
 504 0075 03       		.byte	0x3
 505 0076 37       		.byte	0x37
 506 0077 7B000000 		.4byte	0x7b
 507 007b 04       		.uleb128 0x4
 508 007c 04       		.byte	0x4
ARM GAS  /tmp/ccrpaMoh.s 			page 10


 509 007d 05       		.byte	0x5
 510 007e 67010000 		.4byte	.LASF9
 511 0082 03       		.uleb128 0x3
 512 0083 85040000 		.4byte	.LASF10
 513 0087 03       		.byte	0x3
 514 0088 38       		.byte	0x38
 515 0089 8D000000 		.4byte	0x8d
 516 008d 04       		.uleb128 0x4
 517 008e 04       		.byte	0x4
 518 008f 07       		.byte	0x7
 519 0090 BD030000 		.4byte	.LASF11
 520 0094 04       		.uleb128 0x4
 521 0095 08       		.byte	0x8
 522 0096 05       		.byte	0x5
 523 0097 A1040000 		.4byte	.LASF12
 524 009b 03       		.uleb128 0x3
 525 009c B2030000 		.4byte	.LASF13
 526 00a0 03       		.byte	0x3
 527 00a1 4E       		.byte	0x4e
 528 00a2 A6000000 		.4byte	0xa6
 529 00a6 04       		.uleb128 0x4
 530 00a7 08       		.byte	0x8
 531 00a8 07       		.byte	0x7
 532 00a9 F6070000 		.4byte	.LASF14
 533 00ad 03       		.uleb128 0x3
 534 00ae F1010000 		.4byte	.LASF15
 535 00b2 04       		.byte	0x4
 536 00b3 2A       		.byte	0x2a
 537 00b4 45000000 		.4byte	0x45
 538 00b8 03       		.uleb128 0x3
 539 00b9 15080000 		.4byte	.LASF16
 540 00bd 04       		.byte	0x4
 541 00be 36       		.byte	0x36
 542 00bf 5E000000 		.4byte	0x5e
 543 00c3 03       		.uleb128 0x3
 544 00c4 79000000 		.4byte	.LASF17
 545 00c8 04       		.byte	0x4
 546 00c9 41       		.byte	0x41
 547 00ca 70000000 		.4byte	0x70
 548 00ce 03       		.uleb128 0x3
 549 00cf 0D0A0000 		.4byte	.LASF18
 550 00d3 04       		.byte	0x4
 551 00d4 42       		.byte	0x42
 552 00d5 82000000 		.4byte	0x82
 553 00d9 03       		.uleb128 0x3
 554 00da 25090000 		.4byte	.LASF19
 555 00de 04       		.byte	0x4
 556 00df 4E       		.byte	0x4e
 557 00e0 9B000000 		.4byte	0x9b
 558 00e4 03       		.uleb128 0x3
 559 00e5 45060000 		.4byte	.LASF20
 560 00e9 05       		.byte	0x5
 561 00ea 39       		.byte	0x39
 562 00eb CE000000 		.4byte	0xce
 563 00ef 03       		.uleb128 0x3
 564 00f0 C2080000 		.4byte	.LASF21
 565 00f4 05       		.byte	0x5
ARM GAS  /tmp/ccrpaMoh.s 			page 11


 566 00f5 3C       		.byte	0x3c
 567 00f6 AD000000 		.4byte	0xad
 568 00fa 03       		.uleb128 0x3
 569 00fb 9A010000 		.4byte	.LASF22
 570 00ff 05       		.byte	0x5
 571 0100 3D       		.byte	0x3d
 572 0101 AD000000 		.4byte	0xad
 573 0105 03       		.uleb128 0x3
 574 0106 99090000 		.4byte	.LASF23
 575 010a 05       		.byte	0x5
 576 010b 3E       		.byte	0x3e
 577 010c AD000000 		.4byte	0xad
 578 0110 03       		.uleb128 0x3
 579 0111 5A000000 		.4byte	.LASF24
 580 0115 05       		.byte	0x5
 581 0116 40       		.byte	0x40
 582 0117 CE000000 		.4byte	0xce
 583 011b 03       		.uleb128 0x3
 584 011c 26080000 		.4byte	.LASF25
 585 0120 05       		.byte	0x5
 586 0121 41       		.byte	0x41
 587 0122 C3000000 		.4byte	0xc3
 588 0126 03       		.uleb128 0x3
 589 0127 11020000 		.4byte	.LASF26
 590 012b 05       		.byte	0x5
 591 012c 43       		.byte	0x43
 592 012d CE000000 		.4byte	0xce
 593 0131 03       		.uleb128 0x3
 594 0132 52030000 		.4byte	.LASF27
 595 0136 05       		.byte	0x5
 596 0137 45       		.byte	0x45
 597 0138 C3000000 		.4byte	0xc3
 598 013c 03       		.uleb128 0x3
 599 013d 41000000 		.4byte	.LASF28
 600 0141 06       		.byte	0x6
 601 0142 33       		.byte	0x33
 602 0143 CE000000 		.4byte	0xce
 603 0147 03       		.uleb128 0x3
 604 0148 E7060000 		.4byte	.LASF29
 605 014c 06       		.byte	0x6
 606 014d 3F       		.byte	0x3f
 607 014e 52010000 		.4byte	0x152
 608 0152 05       		.uleb128 0x5
 609 0153 FD030000 		.4byte	.LASF48
 610 0157 40       		.byte	0x40
 611 0158 07       		.byte	0x7
 612 0159 C2       		.byte	0xc2
 613 015a 32020000 		.4byte	0x232
 614 015e 06       		.uleb128 0x6
 615 015f 7B010000 		.4byte	.LASF30
 616 0163 07       		.byte	0x7
 617 0164 C3       		.byte	0xc3
 618 0165 3D020000 		.4byte	0x23d
 619 0169 00       		.byte	0
 620 016a 06       		.uleb128 0x6
 621 016b 82010000 		.4byte	.LASF31
 622 016f 07       		.byte	0x7
ARM GAS  /tmp/ccrpaMoh.s 			page 12


 623 0170 C5       		.byte	0xc5
 624 0171 3D020000 		.4byte	0x23d
 625 0175 04       		.byte	0x4
 626 0176 06       		.uleb128 0x6
 627 0177 F5020000 		.4byte	.LASF32
 628 017b 07       		.byte	0x7
 629 017c C7       		.byte	0xc7
 630 017d 10010000 		.4byte	0x110
 631 0181 08       		.byte	0x8
 632 0182 06       		.uleb128 0x6
 633 0183 4B000000 		.4byte	.LASF33
 634 0187 07       		.byte	0x7
 635 0188 C8       		.byte	0xc8
 636 0189 6C070000 		.4byte	0x76c
 637 018d 0C       		.byte	0xc
 638 018e 06       		.uleb128 0x6
 639 018f 56010000 		.4byte	.LASF34
 640 0193 07       		.byte	0x7
 641 0194 CA       		.byte	0xca
 642 0195 3D020000 		.4byte	0x23d
 643 0199 10       		.byte	0x10
 644 019a 06       		.uleb128 0x6
 645 019b 0D080000 		.4byte	.LASF35
 646 019f 07       		.byte	0x7
 647 01a0 CB       		.byte	0xcb
 648 01a1 3D020000 		.4byte	0x23d
 649 01a5 14       		.byte	0x14
 650 01a6 06       		.uleb128 0x6
 651 01a7 B30A0000 		.4byte	.LASF36
 652 01ab 07       		.byte	0x7
 653 01ac D2       		.byte	0xd2
 654 01ad F7080000 		.4byte	0x8f7
 655 01b1 18       		.byte	0x18
 656 01b2 06       		.uleb128 0x6
 657 01b3 D90A0000 		.4byte	.LASF37
 658 01b7 07       		.byte	0x7
 659 01b8 DD       		.byte	0xdd
 660 01b9 FA000000 		.4byte	0xfa
 661 01bd 1C       		.byte	0x1c
 662 01be 06       		.uleb128 0x6
 663 01bf F8050000 		.4byte	.LASF38
 664 01c3 07       		.byte	0x7
 665 01c4 E1       		.byte	0xe1
 666 01c5 EF000000 		.4byte	0xef
 667 01c9 1D       		.byte	0x1d
 668 01ca 06       		.uleb128 0x6
 669 01cb 5C060000 		.4byte	.LASF39
 670 01cf 07       		.byte	0x7
 671 01d0 E6       		.byte	0xe6
 672 01d1 05010000 		.4byte	0x105
 673 01d5 1E       		.byte	0x1e
 674 01d6 07       		.uleb128 0x7
 675 01d7 705F7500 		.ascii	"p_u\000"
 676 01db 07       		.byte	0x7
 677 01dc 3701     		.2byte	0x137
 678 01de 26080000 		.4byte	0x826
 679 01e2 20       		.byte	0x20
ARM GAS  /tmp/ccrpaMoh.s 			page 13


 680 01e3 08       		.uleb128 0x8
 681 01e4 E2050000 		.4byte	.LASF40
 682 01e8 07       		.byte	0x7
 683 01e9 3C01     		.2byte	0x13c
 684 01eb 43020000 		.4byte	0x243
 685 01ef 24       		.byte	0x24
 686 01f0 08       		.uleb128 0x8
 687 01f1 68000000 		.4byte	.LASF41
 688 01f5 07       		.byte	0x7
 689 01f6 4201     		.2byte	0x142
 690 01f8 67020000 		.4byte	0x267
 691 01fc 28       		.byte	0x28
 692 01fd 08       		.uleb128 0x8
 693 01fe 75030000 		.4byte	.LASF42
 694 0202 07       		.byte	0x7
 695 0203 4801     		.2byte	0x148
 696 0205 26010000 		.4byte	0x126
 697 0209 30       		.byte	0x30
 698 020a 08       		.uleb128 0x8
 699 020b B3010000 		.4byte	.LASF43
 700 020f 07       		.byte	0x7
 701 0210 4F01     		.2byte	0x14f
 702 0212 F1080000 		.4byte	0x8f1
 703 0216 34       		.byte	0x34
 704 0217 08       		.uleb128 0x8
 705 0218 2A070000 		.4byte	.LASF44
 706 021c 07       		.byte	0x7
 707 021d 5301     		.2byte	0x153
 708 021f 10010000 		.4byte	0x110
 709 0223 38       		.byte	0x38
 710 0224 08       		.uleb128 0x8
 711 0225 4D060000 		.4byte	.LASF45
 712 0229 07       		.byte	0x7
 713 022a 5A01     		.2byte	0x15a
 714 022c 1A030000 		.4byte	0x31a
 715 0230 3C       		.byte	0x3c
 716 0231 00       		.byte	0
 717 0232 03       		.uleb128 0x3
 718 0233 F0060000 		.4byte	.LASF46
 719 0237 06       		.byte	0x6
 720 0238 44       		.byte	0x44
 721 0239 3D020000 		.4byte	0x23d
 722 023d 09       		.uleb128 0x9
 723 023e 04       		.byte	0x4
 724 023f 47010000 		.4byte	0x147
 725 0243 03       		.uleb128 0x3
 726 0244 AE090000 		.4byte	.LASF47
 727 0248 06       		.byte	0x6
 728 0249 49       		.byte	0x49
 729 024a 4E020000 		.4byte	0x24e
 730 024e 05       		.uleb128 0x5
 731 024f 52040000 		.4byte	.LASF49
 732 0253 04       		.byte	0x4
 733 0254 07       		.byte	0x7
 734 0255 B0       		.byte	0xb0
 735 0256 67020000 		.4byte	0x267
 736 025a 06       		.uleb128 0x6
ARM GAS  /tmp/ccrpaMoh.s 			page 14


 737 025b 7B010000 		.4byte	.LASF30
 738 025f 07       		.byte	0x7
 739 0260 B1       		.byte	0xb1
 740 0261 3D020000 		.4byte	0x23d
 741 0265 00       		.byte	0
 742 0266 00       		.byte	0
 743 0267 03       		.uleb128 0x3
 744 0268 A3010000 		.4byte	.LASF50
 745 026c 06       		.byte	0x6
 746 026d 50       		.byte	0x50
 747 026e 72020000 		.4byte	0x272
 748 0272 05       		.uleb128 0x5
 749 0273 2C080000 		.4byte	.LASF51
 750 0277 08       		.byte	0x8
 751 0278 07       		.byte	0x7
 752 0279 B7       		.byte	0xb7
 753 027a 97020000 		.4byte	0x297
 754 027e 06       		.uleb128 0x6
 755 027f 7B010000 		.4byte	.LASF30
 756 0283 07       		.byte	0x7
 757 0284 B8       		.byte	0xb8
 758 0285 3D020000 		.4byte	0x23d
 759 0289 00       		.byte	0
 760 028a 06       		.uleb128 0x6
 761 028b 82010000 		.4byte	.LASF31
 762 028f 07       		.byte	0x7
 763 0290 B9       		.byte	0xb9
 764 0291 3D020000 		.4byte	0x23d
 765 0295 04       		.byte	0x4
 766 0296 00       		.byte	0
 767 0297 03       		.uleb128 0x3
 768 0298 40040000 		.4byte	.LASF52
 769 029c 06       		.byte	0x6
 770 029d 57       		.byte	0x57
 771 029e A2020000 		.4byte	0x2a2
 772 02a2 0A       		.uleb128 0xa
 773 02a3 87030000 		.4byte	.LASF53
 774 02a7 1C       		.byte	0x1c
 775 02a8 07       		.byte	0x7
 776 02a9 9201     		.2byte	0x192
 777 02ab FE020000 		.4byte	0x2fe
 778 02af 08       		.uleb128 0x8
 779 02b0 9A080000 		.4byte	.LASF54
 780 02b4 07       		.byte	0x7
 781 02b5 9301     		.2byte	0x193
 782 02b7 67020000 		.4byte	0x267
 783 02bb 00       		.byte	0
 784 02bc 08       		.uleb128 0x8
 785 02bd 49090000 		.4byte	.LASF55
 786 02c1 07       		.byte	0x7
 787 02c2 9401     		.2byte	0x194
 788 02c4 10010000 		.4byte	0x110
 789 02c8 08       		.byte	0x8
 790 02c9 08       		.uleb128 0x8
 791 02ca 73000000 		.4byte	.LASF56
 792 02ce 07       		.byte	0x7
 793 02cf 9601     		.2byte	0x196
ARM GAS  /tmp/ccrpaMoh.s 			page 15


 794 02d1 6C070000 		.4byte	0x76c
 795 02d5 0C       		.byte	0xc
 796 02d6 08       		.uleb128 0x8
 797 02d7 94020000 		.4byte	.LASF57
 798 02db 07       		.byte	0x7
 799 02dc 9901     		.2byte	0x199
 800 02de 3D020000 		.4byte	0x23d
 801 02e2 10       		.byte	0x10
 802 02e3 08       		.uleb128 0x8
 803 02e4 E2080000 		.4byte	.LASF58
 804 02e8 07       		.byte	0x7
 805 02e9 9A01     		.2byte	0x19a
 806 02eb 3D020000 		.4byte	0x23d
 807 02ef 14       		.byte	0x14
 808 02f0 08       		.uleb128 0x8
 809 02f1 3D080000 		.4byte	.LASF59
 810 02f5 07       		.byte	0x7
 811 02f6 9D01     		.2byte	0x19d
 812 02f8 3D020000 		.4byte	0x23d
 813 02fc 18       		.byte	0x18
 814 02fd 00       		.byte	0
 815 02fe 03       		.uleb128 0x3
 816 02ff 8C000000 		.4byte	.LASF60
 817 0303 06       		.byte	0x6
 818 0304 5C       		.byte	0x5c
 819 0305 09030000 		.4byte	0x309
 820 0309 09       		.uleb128 0x9
 821 030a 04       		.byte	0x4
 822 030b 0F030000 		.4byte	0x30f
 823 030f 0B       		.uleb128 0xb
 824 0310 1A030000 		.4byte	0x31a
 825 0314 0C       		.uleb128 0xc
 826 0315 1A030000 		.4byte	0x31a
 827 0319 00       		.byte	0
 828 031a 0D       		.uleb128 0xd
 829 031b 04       		.byte	0x4
 830 031c 03       		.uleb128 0x3
 831 031d 30040000 		.4byte	.LASF61
 832 0321 06       		.byte	0x6
 833 0322 61       		.byte	0x61
 834 0323 27030000 		.4byte	0x327
 835 0327 0A       		.uleb128 0xa
 836 0328 C8070000 		.4byte	.LASF62
 837 032c 14       		.byte	0x14
 838 032d 07       		.byte	0x7
 839 032e 6D01     		.2byte	0x16d
 840 0330 76030000 		.4byte	0x376
 841 0334 08       		.uleb128 0x8
 842 0335 C6040000 		.4byte	.LASF63
 843 0339 07       		.byte	0x7
 844 033a 6E01     		.2byte	0x16e
 845 033c 09090000 		.4byte	0x909
 846 0340 00       		.byte	0
 847 0341 08       		.uleb128 0x8
 848 0342 CE040000 		.4byte	.LASF64
 849 0346 07       		.byte	0x7
 850 0347 6F01     		.2byte	0x16f
ARM GAS  /tmp/ccrpaMoh.s 			page 16


 851 0349 09090000 		.4byte	0x909
 852 034d 04       		.byte	0x4
 853 034e 08       		.uleb128 0x8
 854 034f 7D070000 		.4byte	.LASF65
 855 0353 07       		.byte	0x7
 856 0354 7001     		.2byte	0x170
 857 0356 3C010000 		.4byte	0x13c
 858 035a 08       		.byte	0x8
 859 035b 08       		.uleb128 0x8
 860 035c 63030000 		.4byte	.LASF66
 861 0360 07       		.byte	0x7
 862 0361 7101     		.2byte	0x171
 863 0363 FE020000 		.4byte	0x2fe
 864 0367 0C       		.byte	0xc
 865 0368 08       		.uleb128 0x8
 866 0369 12010000 		.4byte	.LASF67
 867 036d 07       		.byte	0x7
 868 036e 7301     		.2byte	0x173
 869 0370 1A030000 		.4byte	0x31a
 870 0374 10       		.byte	0x10
 871 0375 00       		.byte	0
 872 0376 03       		.uleb128 0x3
 873 0377 07040000 		.4byte	.LASF68
 874 037b 06       		.byte	0x6
 875 037c 66       		.byte	0x66
 876 037d 81030000 		.4byte	0x381
 877 0381 0A       		.uleb128 0xa
 878 0382 95000000 		.4byte	.LASF69
 879 0386 10       		.byte	0x10
 880 0387 07       		.byte	0x7
 881 0388 7D01     		.2byte	0x17d
 882 038a C3030000 		.4byte	0x3c3
 883 038e 08       		.uleb128 0x8
 884 038f C6040000 		.4byte	.LASF63
 885 0393 07       		.byte	0x7
 886 0394 7E01     		.2byte	0x17e
 887 0396 09090000 		.4byte	0x909
 888 039a 00       		.byte	0
 889 039b 08       		.uleb128 0x8
 890 039c CE040000 		.4byte	.LASF64
 891 03a0 07       		.byte	0x7
 892 03a1 8001     		.2byte	0x180
 893 03a3 09090000 		.4byte	0x909
 894 03a7 04       		.byte	0x4
 895 03a8 08       		.uleb128 0x8
 896 03a9 7D070000 		.4byte	.LASF65
 897 03ad 07       		.byte	0x7
 898 03ae 8201     		.2byte	0x182
 899 03b0 3C010000 		.4byte	0x13c
 900 03b4 08       		.byte	0x8
 901 03b5 08       		.uleb128 0x8
 902 03b6 460A0000 		.4byte	.LASF70
 903 03ba 07       		.byte	0x7
 904 03bb 8A01     		.2byte	0x18a
 905 03bd 3C010000 		.4byte	0x13c
 906 03c1 0C       		.byte	0xc
 907 03c2 00       		.byte	0
ARM GAS  /tmp/ccrpaMoh.s 			page 17


 908 03c3 03       		.uleb128 0x3
 909 03c4 A7020000 		.4byte	.LASF71
 910 03c8 06       		.byte	0x6
 911 03c9 6B       		.byte	0x6b
 912 03ca CE030000 		.4byte	0x3ce
 913 03ce 0A       		.uleb128 0xa
 914 03cf 50090000 		.4byte	.LASF72
 915 03d3 04       		.byte	0x4
 916 03d4 07       		.byte	0x7
 917 03d5 A401     		.2byte	0x1a4
 918 03d7 E9030000 		.4byte	0x3e9
 919 03db 08       		.uleb128 0x8
 920 03dc 72020000 		.4byte	.LASF73
 921 03e0 07       		.byte	0x7
 922 03e1 AC01     		.2byte	0x1ac
 923 03e3 0F090000 		.4byte	0x90f
 924 03e7 00       		.byte	0
 925 03e8 00       		.byte	0
 926 03e9 03       		.uleb128 0x3
 927 03ea 6A0A0000 		.4byte	.LASF74
 928 03ee 06       		.byte	0x6
 929 03ef 70       		.byte	0x70
 930 03f0 F4030000 		.4byte	0x3f4
 931 03f4 0E       		.uleb128 0xe
 932 03f5 BD090000 		.4byte	.LASF75
 933 03f9 5001     		.2byte	0x150
 934 03fb 07       		.byte	0x7
 935 03fc C401     		.2byte	0x1c4
 936 03fe 50040000 		.4byte	0x450
 937 0402 08       		.uleb128 0x8
 938 0403 BC080000 		.4byte	.LASF76
 939 0407 07       		.byte	0x7
 940 0408 C801     		.2byte	0x1c8
 941 040a 97020000 		.4byte	0x297
 942 040e 00       		.byte	0
 943 040f 08       		.uleb128 0x8
 944 0410 7A090000 		.4byte	.LASF77
 945 0414 07       		.byte	0x7
 946 0415 CC01     		.2byte	0x1cc
 947 0417 76030000 		.4byte	0x376
 948 041b 1C       		.byte	0x1c
 949 041c 07       		.uleb128 0x7
 950 041d 64626700 		.ascii	"dbg\000"
 951 0421 07       		.byte	0x7
 952 0422 D001     		.2byte	0x1d0
 953 0424 C3030000 		.4byte	0x3c3
 954 0428 2C       		.byte	0x2c
 955 0429 08       		.uleb128 0x8
 956 042a 85080000 		.4byte	.LASF78
 957 042e 07       		.byte	0x7
 958 042f D401     		.2byte	0x1d4
 959 0431 47010000 		.4byte	0x147
 960 0435 30       		.byte	0x30
 961 0436 07       		.uleb128 0x7
 962 0437 746D00   		.ascii	"tm\000"
 963 043a 07       		.byte	0x7
 964 043b D901     		.2byte	0x1d9
ARM GAS  /tmp/ccrpaMoh.s 			page 18


 965 043d 1B080000 		.4byte	0x81b
 966 0441 70       		.byte	0x70
 967 0442 08       		.uleb128 0x8
 968 0443 05060000 		.4byte	.LASF79
 969 0447 07       		.byte	0x7
 970 0448 E501     		.2byte	0x1e5
 971 044a 14090000 		.4byte	0x914
 972 044e 78       		.byte	0x78
 973 044f 00       		.byte	0
 974 0450 04       		.uleb128 0x4
 975 0451 04       		.byte	0x4
 976 0452 07       		.byte	0x7
 977 0453 2C000000 		.4byte	.LASF80
 978 0457 0F       		.uleb128 0xf
 979 0458 CE000000 		.4byte	0xce
 980 045c 10       		.uleb128 0x10
 981 045d CE000000 		.4byte	0xce
 982 0461 6C040000 		.4byte	0x46c
 983 0465 11       		.uleb128 0x11
 984 0466 50040000 		.4byte	0x450
 985 046a 03       		.byte	0x3
 986 046b 00       		.byte	0
 987 046c 12       		.uleb128 0x12
 988 046d 10       		.byte	0x10
 989 046e 08       		.byte	0x8
 990 046f 6201     		.2byte	0x162
 991 0471 AA040000 		.4byte	0x4aa
 992 0475 07       		.uleb128 0x7
 993 0476 43435200 		.ascii	"CCR\000"
 994 047a 08       		.byte	0x8
 995 047b 6401     		.2byte	0x164
 996 047d 57040000 		.4byte	0x457
 997 0481 00       		.byte	0
 998 0482 08       		.uleb128 0x8
 999 0483 EE000000 		.4byte	.LASF81
 1000 0487 08       		.byte	0x8
 1001 0488 6501     		.2byte	0x165
 1002 048a 57040000 		.4byte	0x457
 1003 048e 04       		.byte	0x4
 1004 048f 08       		.uleb128 0x8
 1005 0490 CC010000 		.4byte	.LASF82
 1006 0494 08       		.byte	0x8
 1007 0495 6601     		.2byte	0x166
 1008 0497 57040000 		.4byte	0x457
 1009 049b 08       		.byte	0x8
 1010 049c 08       		.uleb128 0x8
 1011 049d AD060000 		.4byte	.LASF83
 1012 04a1 08       		.byte	0x8
 1013 04a2 6701     		.2byte	0x167
 1014 04a4 57040000 		.4byte	0x457
 1015 04a8 0C       		.byte	0xc
 1016 04a9 00       		.byte	0
 1017 04aa 13       		.uleb128 0x13
 1018 04ab B4070000 		.4byte	.LASF84
 1019 04af 08       		.byte	0x8
 1020 04b0 6801     		.2byte	0x168
 1021 04b2 6C040000 		.4byte	0x46c
ARM GAS  /tmp/ccrpaMoh.s 			page 19


 1022 04b6 12       		.uleb128 0x12
 1023 04b7 08       		.byte	0x8
 1024 04b8 08       		.byte	0x8
 1025 04b9 6A01     		.2byte	0x16a
 1026 04bb DA040000 		.4byte	0x4da
 1027 04bf 07       		.uleb128 0x7
 1028 04c0 49535200 		.ascii	"ISR\000"
 1029 04c4 08       		.byte	0x8
 1030 04c5 6C01     		.2byte	0x16c
 1031 04c7 57040000 		.4byte	0x457
 1032 04cb 00       		.byte	0
 1033 04cc 08       		.uleb128 0x8
 1034 04cd E7020000 		.4byte	.LASF85
 1035 04d1 08       		.byte	0x8
 1036 04d2 6D01     		.2byte	0x16d
 1037 04d4 57040000 		.4byte	0x457
 1038 04d8 04       		.byte	0x4
 1039 04d9 00       		.byte	0
 1040 04da 13       		.uleb128 0x13
 1041 04db 66020000 		.4byte	.LASF86
 1042 04df 08       		.byte	0x8
 1043 04e0 6E01     		.2byte	0x16e
 1044 04e2 B6040000 		.4byte	0x4b6
 1045 04e6 12       		.uleb128 0x12
 1046 04e7 90       		.byte	0x90
 1047 04e8 08       		.byte	0x8
 1048 04e9 1002     		.2byte	0x210
 1049 04eb C1060000 		.4byte	0x6c1
 1050 04ef 07       		.uleb128 0x7
 1051 04f0 545200   		.ascii	"TR\000"
 1052 04f3 08       		.byte	0x8
 1053 04f4 1202     		.2byte	0x212
 1054 04f6 57040000 		.4byte	0x457
 1055 04fa 00       		.byte	0
 1056 04fb 07       		.uleb128 0x7
 1057 04fc 445200   		.ascii	"DR\000"
 1058 04ff 08       		.byte	0x8
 1059 0500 1302     		.2byte	0x213
 1060 0502 57040000 		.4byte	0x457
 1061 0506 04       		.byte	0x4
 1062 0507 07       		.uleb128 0x7
 1063 0508 435200   		.ascii	"CR\000"
 1064 050b 08       		.byte	0x8
 1065 050c 1402     		.2byte	0x214
 1066 050e 57040000 		.4byte	0x457
 1067 0512 08       		.byte	0x8
 1068 0513 07       		.uleb128 0x7
 1069 0514 49535200 		.ascii	"ISR\000"
 1070 0518 08       		.byte	0x8
 1071 0519 1502     		.2byte	0x215
 1072 051b 57040000 		.4byte	0x457
 1073 051f 0C       		.byte	0xc
 1074 0520 08       		.uleb128 0x8
 1075 0521 28030000 		.4byte	.LASF87
 1076 0525 08       		.byte	0x8
 1077 0526 1602     		.2byte	0x216
 1078 0528 57040000 		.4byte	0x457
ARM GAS  /tmp/ccrpaMoh.s 			page 20


 1079 052c 10       		.byte	0x10
 1080 052d 08       		.uleb128 0x8
 1081 052e 650A0000 		.4byte	.LASF88
 1082 0532 08       		.byte	0x8
 1083 0533 1702     		.2byte	0x217
 1084 0535 57040000 		.4byte	0x457
 1085 0539 14       		.byte	0x14
 1086 053a 08       		.uleb128 0x8
 1087 053b 36020000 		.4byte	.LASF89
 1088 053f 08       		.byte	0x8
 1089 0540 1802     		.2byte	0x218
 1090 0542 CE000000 		.4byte	0xce
 1091 0546 18       		.byte	0x18
 1092 0547 08       		.uleb128 0x8
 1093 0548 90040000 		.4byte	.LASF90
 1094 054c 08       		.byte	0x8
 1095 054d 1902     		.2byte	0x219
 1096 054f 57040000 		.4byte	0x457
 1097 0553 1C       		.byte	0x1c
 1098 0554 08       		.uleb128 0x8
 1099 0555 B5050000 		.4byte	.LASF91
 1100 0559 08       		.byte	0x8
 1101 055a 1A02     		.2byte	0x21a
 1102 055c 57040000 		.4byte	0x457
 1103 0560 20       		.byte	0x20
 1104 0561 07       		.uleb128 0x7
 1105 0562 57505200 		.ascii	"WPR\000"
 1106 0566 08       		.byte	0x8
 1107 0567 1B02     		.2byte	0x21b
 1108 0569 57040000 		.4byte	0x457
 1109 056d 24       		.byte	0x24
 1110 056e 07       		.uleb128 0x7
 1111 056f 53535200 		.ascii	"SSR\000"
 1112 0573 08       		.byte	0x8
 1113 0574 1C02     		.2byte	0x21c
 1114 0576 57040000 		.4byte	0x457
 1115 057a 28       		.byte	0x28
 1116 057b 08       		.uleb128 0x8
 1117 057c 0A090000 		.4byte	.LASF92
 1118 0580 08       		.byte	0x8
 1119 0581 1D02     		.2byte	0x21d
 1120 0583 57040000 		.4byte	0x457
 1121 0587 2C       		.byte	0x2c
 1122 0588 08       		.uleb128 0x8
 1123 0589 35000000 		.4byte	.LASF93
 1124 058d 08       		.byte	0x8
 1125 058e 1E02     		.2byte	0x21e
 1126 0590 57040000 		.4byte	0x457
 1127 0594 30       		.byte	0x30
 1128 0595 08       		.uleb128 0x8
 1129 0596 77040000 		.4byte	.LASF94
 1130 059a 08       		.byte	0x8
 1131 059b 1F02     		.2byte	0x21f
 1132 059d 57040000 		.4byte	0x457
 1133 05a1 34       		.byte	0x34
 1134 05a2 08       		.uleb128 0x8
 1135 05a3 AD0A0000 		.4byte	.LASF95
ARM GAS  /tmp/ccrpaMoh.s 			page 21


 1136 05a7 08       		.byte	0x8
 1137 05a8 2002     		.2byte	0x220
 1138 05aa 57040000 		.4byte	0x457
 1139 05ae 38       		.byte	0x38
 1140 05af 08       		.uleb128 0x8
 1141 05b0 C2050000 		.4byte	.LASF96
 1142 05b4 08       		.byte	0x8
 1143 05b5 2102     		.2byte	0x221
 1144 05b7 57040000 		.4byte	0x457
 1145 05bb 3C       		.byte	0x3c
 1146 05bc 08       		.uleb128 0x8
 1147 05bd 6B080000 		.4byte	.LASF97
 1148 05c1 08       		.byte	0x8
 1149 05c2 2202     		.2byte	0x222
 1150 05c4 57040000 		.4byte	0x457
 1151 05c8 40       		.byte	0x40
 1152 05c9 08       		.uleb128 0x8
 1153 05ca C10A0000 		.4byte	.LASF98
 1154 05ce 08       		.byte	0x8
 1155 05cf 2302     		.2byte	0x223
 1156 05d1 57040000 		.4byte	0x457
 1157 05d5 44       		.byte	0x44
 1158 05d6 08       		.uleb128 0x8
 1159 05d7 7C040000 		.4byte	.LASF99
 1160 05db 08       		.byte	0x8
 1161 05dc 2402     		.2byte	0x224
 1162 05de 57040000 		.4byte	0x457
 1163 05e2 48       		.byte	0x48
 1164 05e3 08       		.uleb128 0x8
 1165 05e4 4E020000 		.4byte	.LASF100
 1166 05e8 08       		.byte	0x8
 1167 05e9 2502     		.2byte	0x225
 1168 05eb CE000000 		.4byte	0xce
 1169 05ef 4C       		.byte	0x4c
 1170 05f0 08       		.uleb128 0x8
 1171 05f1 9B0A0000 		.4byte	.LASF101
 1172 05f5 08       		.byte	0x8
 1173 05f6 2602     		.2byte	0x226
 1174 05f8 57040000 		.4byte	0x457
 1175 05fc 50       		.byte	0x50
 1176 05fd 08       		.uleb128 0x8
 1177 05fe D30A0000 		.4byte	.LASF102
 1178 0602 08       		.byte	0x8
 1179 0603 2702     		.2byte	0x227
 1180 0605 57040000 		.4byte	0x457
 1181 0609 54       		.byte	0x54
 1182 060a 08       		.uleb128 0x8
 1183 060b 62000000 		.4byte	.LASF103
 1184 060f 08       		.byte	0x8
 1185 0610 2802     		.2byte	0x228
 1186 0612 57040000 		.4byte	0x457
 1187 0616 58       		.byte	0x58
 1188 0617 08       		.uleb128 0x8
 1189 0618 C9000000 		.4byte	.LASF104
 1190 061c 08       		.byte	0x8
 1191 061d 2902     		.2byte	0x229
 1192 061f 57040000 		.4byte	0x457
ARM GAS  /tmp/ccrpaMoh.s 			page 22


 1193 0623 5C       		.byte	0x5c
 1194 0624 08       		.uleb128 0x8
 1195 0625 F9000000 		.4byte	.LASF105
 1196 0629 08       		.byte	0x8
 1197 062a 2A02     		.2byte	0x22a
 1198 062c 57040000 		.4byte	0x457
 1199 0630 60       		.byte	0x60
 1200 0631 08       		.uleb128 0x8
 1201 0632 40010000 		.4byte	.LASF106
 1202 0636 08       		.byte	0x8
 1203 0637 2B02     		.2byte	0x22b
 1204 0639 57040000 		.4byte	0x457
 1205 063d 64       		.byte	0x64
 1206 063e 08       		.uleb128 0x8
 1207 063f 89010000 		.4byte	.LASF107
 1208 0643 08       		.byte	0x8
 1209 0644 2C02     		.2byte	0x22c
 1210 0646 57040000 		.4byte	0x457
 1211 064a 68       		.byte	0x68
 1212 064b 08       		.uleb128 0x8
 1213 064c C6010000 		.4byte	.LASF108
 1214 0650 08       		.byte	0x8
 1215 0651 2D02     		.2byte	0x22d
 1216 0653 57040000 		.4byte	0x457
 1217 0657 6C       		.byte	0x6c
 1218 0658 08       		.uleb128 0x8
 1219 0659 A70A0000 		.4byte	.LASF109
 1220 065d 08       		.byte	0x8
 1221 065e 2E02     		.2byte	0x22e
 1222 0660 57040000 		.4byte	0x457
 1223 0664 70       		.byte	0x70
 1224 0665 08       		.uleb128 0x8
 1225 0666 D0020000 		.4byte	.LASF110
 1226 066a 08       		.byte	0x8
 1227 066b 2F02     		.2byte	0x22f
 1228 066d 57040000 		.4byte	0x457
 1229 0671 74       		.byte	0x74
 1230 0672 08       		.uleb128 0x8
 1231 0673 9E030000 		.4byte	.LASF111
 1232 0677 08       		.byte	0x8
 1233 0678 3002     		.2byte	0x230
 1234 067a 57040000 		.4byte	0x457
 1235 067e 78       		.byte	0x78
 1236 067f 08       		.uleb128 0x8
 1237 0680 AB030000 		.4byte	.LASF112
 1238 0684 08       		.byte	0x8
 1239 0685 3102     		.2byte	0x231
 1240 0687 57040000 		.4byte	0x457
 1241 068b 7C       		.byte	0x7c
 1242 068c 08       		.uleb128 0x8
 1243 068d 1D040000 		.4byte	.LASF113
 1244 0691 08       		.byte	0x8
 1245 0692 3202     		.2byte	0x232
 1246 0694 57040000 		.4byte	0x457
 1247 0698 80       		.byte	0x80
 1248 0699 08       		.uleb128 0x8
 1249 069a 62040000 		.4byte	.LASF114
ARM GAS  /tmp/ccrpaMoh.s 			page 23


 1250 069e 08       		.byte	0x8
 1251 069f 3302     		.2byte	0x233
 1252 06a1 57040000 		.4byte	0x457
 1253 06a5 84       		.byte	0x84
 1254 06a6 08       		.uleb128 0x8
 1255 06a7 BF040000 		.4byte	.LASF115
 1256 06ab 08       		.byte	0x8
 1257 06ac 3402     		.2byte	0x234
 1258 06ae 57040000 		.4byte	0x457
 1259 06b2 88       		.byte	0x88
 1260 06b3 08       		.uleb128 0x8
 1261 06b4 C7050000 		.4byte	.LASF116
 1262 06b8 08       		.byte	0x8
 1263 06b9 3502     		.2byte	0x235
 1264 06bb 57040000 		.4byte	0x457
 1265 06bf 8C       		.byte	0x8c
 1266 06c0 00       		.byte	0
 1267 06c1 13       		.uleb128 0x13
 1268 06c2 D6030000 		.4byte	.LASF117
 1269 06c6 08       		.byte	0x8
 1270 06c7 3602     		.2byte	0x236
 1271 06c9 E6040000 		.4byte	0x4e6
 1272 06cd 12       		.uleb128 0x12
 1273 06ce 24       		.byte	0x24
 1274 06cf 08       		.byte	0x8
 1275 06d0 3D02     		.2byte	0x23d
 1276 06d2 4A070000 		.4byte	0x74a
 1277 06d6 07       		.uleb128 0x7
 1278 06d7 43523100 		.ascii	"CR1\000"
 1279 06db 08       		.byte	0x8
 1280 06dc 3F02     		.2byte	0x23f
 1281 06de 57040000 		.4byte	0x457
 1282 06e2 00       		.byte	0
 1283 06e3 07       		.uleb128 0x7
 1284 06e4 43523200 		.ascii	"CR2\000"
 1285 06e8 08       		.byte	0x8
 1286 06e9 4002     		.2byte	0x240
 1287 06eb 57040000 		.4byte	0x457
 1288 06ef 04       		.byte	0x4
 1289 06f0 07       		.uleb128 0x7
 1290 06f1 535200   		.ascii	"SR\000"
 1291 06f4 08       		.byte	0x8
 1292 06f5 4102     		.2byte	0x241
 1293 06f7 57040000 		.4byte	0x457
 1294 06fb 08       		.byte	0x8
 1295 06fc 07       		.uleb128 0x7
 1296 06fd 445200   		.ascii	"DR\000"
 1297 0700 08       		.byte	0x8
 1298 0701 4202     		.2byte	0x242
 1299 0703 57040000 		.4byte	0x457
 1300 0707 0C       		.byte	0xc
 1301 0708 08       		.uleb128 0x8
 1302 0709 CA080000 		.4byte	.LASF118
 1303 070d 08       		.byte	0x8
 1304 070e 4302     		.2byte	0x243
 1305 0710 57040000 		.4byte	0x457
 1306 0714 10       		.byte	0x10
ARM GAS  /tmp/ccrpaMoh.s 			page 24


 1307 0715 08       		.uleb128 0x8
 1308 0716 CF030000 		.4byte	.LASF119
 1309 071a 08       		.byte	0x8
 1310 071b 4402     		.2byte	0x244
 1311 071d 57040000 		.4byte	0x457
 1312 0721 14       		.byte	0x14
 1313 0722 08       		.uleb128 0x8
 1314 0723 A9080000 		.4byte	.LASF120
 1315 0727 08       		.byte	0x8
 1316 0728 4502     		.2byte	0x245
 1317 072a 57040000 		.4byte	0x457
 1318 072e 18       		.byte	0x18
 1319 072f 08       		.uleb128 0x8
 1320 0730 29010000 		.4byte	.LASF121
 1321 0734 08       		.byte	0x8
 1322 0735 4602     		.2byte	0x246
 1323 0737 57040000 		.4byte	0x457
 1324 073b 1C       		.byte	0x1c
 1325 073c 08       		.uleb128 0x8
 1326 073d 2C0A0000 		.4byte	.LASF122
 1327 0741 08       		.byte	0x8
 1328 0742 4702     		.2byte	0x247
 1329 0744 57040000 		.4byte	0x457
 1330 0748 20       		.byte	0x20
 1331 0749 00       		.byte	0
 1332 074a 13       		.uleb128 0x13
 1333 074b B0080000 		.4byte	.LASF123
 1334 074f 08       		.byte	0x8
 1335 0750 4802     		.2byte	0x248
 1336 0752 CD060000 		.4byte	0x6cd
 1337 0756 03       		.uleb128 0x3
 1338 0757 BD010000 		.4byte	.LASF124
 1339 075b 09       		.byte	0x9
 1340 075c 65       		.byte	0x65
 1341 075d 1A030000 		.4byte	0x31a
 1342 0761 03       		.uleb128 0x3
 1343 0762 32030000 		.4byte	.LASF125
 1344 0766 09       		.byte	0x9
 1345 0767 6D       		.byte	0x6d
 1346 0768 D9000000 		.4byte	0xd9
 1347 076c 05       		.uleb128 0x5
 1348 076d 1D020000 		.4byte	.LASF126
 1349 0771 04       		.byte	0x4
 1350 0772 09       		.byte	0x9
 1351 0773 89       		.byte	0x89
 1352 0774 85070000 		.4byte	0x785
 1353 0778 14       		.uleb128 0x14
 1354 0779 72313300 		.ascii	"r13\000"
 1355 077d 09       		.byte	0x9
 1356 077e 8A       		.byte	0x8a
 1357 077f 00080000 		.4byte	0x800
 1358 0783 00       		.byte	0
 1359 0784 00       		.byte	0
 1360 0785 05       		.uleb128 0x5
 1361 0786 3D070000 		.4byte	.LASF127
 1362 078a 24       		.byte	0x24
 1363 078b 0A       		.byte	0xa
ARM GAS  /tmp/ccrpaMoh.s 			page 25


 1364 078c FD       		.byte	0xfd
 1365 078d 00080000 		.4byte	0x800
 1366 0791 07       		.uleb128 0x7
 1367 0792 723400   		.ascii	"r4\000"
 1368 0795 0A       		.byte	0xa
 1369 0796 1001     		.2byte	0x110
 1370 0798 56070000 		.4byte	0x756
 1371 079c 00       		.byte	0
 1372 079d 07       		.uleb128 0x7
 1373 079e 723500   		.ascii	"r5\000"
 1374 07a1 0A       		.byte	0xa
 1375 07a2 1101     		.2byte	0x111
 1376 07a4 56070000 		.4byte	0x756
 1377 07a8 04       		.byte	0x4
 1378 07a9 07       		.uleb128 0x7
 1379 07aa 723600   		.ascii	"r6\000"
 1380 07ad 0A       		.byte	0xa
 1381 07ae 1201     		.2byte	0x112
 1382 07b0 56070000 		.4byte	0x756
 1383 07b4 08       		.byte	0x8
 1384 07b5 07       		.uleb128 0x7
 1385 07b6 723700   		.ascii	"r7\000"
 1386 07b9 0A       		.byte	0xa
 1387 07ba 1301     		.2byte	0x113
 1388 07bc 56070000 		.4byte	0x756
 1389 07c0 0C       		.byte	0xc
 1390 07c1 07       		.uleb128 0x7
 1391 07c2 723800   		.ascii	"r8\000"
 1392 07c5 0A       		.byte	0xa
 1393 07c6 1401     		.2byte	0x114
 1394 07c8 56070000 		.4byte	0x756
 1395 07cc 10       		.byte	0x10
 1396 07cd 07       		.uleb128 0x7
 1397 07ce 723900   		.ascii	"r9\000"
 1398 07d1 0A       		.byte	0xa
 1399 07d2 1501     		.2byte	0x115
 1400 07d4 56070000 		.4byte	0x756
 1401 07d8 14       		.byte	0x14
 1402 07d9 07       		.uleb128 0x7
 1403 07da 72313000 		.ascii	"r10\000"
 1404 07de 0A       		.byte	0xa
 1405 07df 1601     		.2byte	0x116
 1406 07e1 56070000 		.4byte	0x756
 1407 07e5 18       		.byte	0x18
 1408 07e6 07       		.uleb128 0x7
 1409 07e7 72313100 		.ascii	"r11\000"
 1410 07eb 0A       		.byte	0xa
 1411 07ec 1701     		.2byte	0x117
 1412 07ee 56070000 		.4byte	0x756
 1413 07f2 1C       		.byte	0x1c
 1414 07f3 07       		.uleb128 0x7
 1415 07f4 6C7200   		.ascii	"lr\000"
 1416 07f7 0A       		.byte	0xa
 1417 07f8 1801     		.2byte	0x118
 1418 07fa 56070000 		.4byte	0x756
 1419 07fe 20       		.byte	0x20
 1420 07ff 00       		.byte	0
ARM GAS  /tmp/ccrpaMoh.s 			page 26


 1421 0800 09       		.uleb128 0x9
 1422 0801 04       		.byte	0x4
 1423 0802 85070000 		.4byte	0x785
 1424 0806 15       		.uleb128 0x15
 1425 0807 04       		.byte	0x4
 1426 0808 0B       		.byte	0xb
 1427 0809 38       		.byte	0x38
 1428 080a 1B080000 		.4byte	0x81b
 1429 080e 06       		.uleb128 0x6
 1430 080f CA060000 		.4byte	.LASF128
 1431 0813 0B       		.byte	0xb
 1432 0814 3C       		.byte	0x3c
 1433 0815 E4000000 		.4byte	0xe4
 1434 0819 00       		.byte	0
 1435 081a 00       		.byte	0
 1436 081b 03       		.uleb128 0x3
 1437 081c EA080000 		.4byte	.LASF129
 1438 0820 0B       		.byte	0xb
 1439 0821 3D       		.byte	0x3d
 1440 0822 06080000 		.4byte	0x806
 1441 0826 16       		.uleb128 0x16
 1442 0827 04       		.byte	0x4
 1443 0828 07       		.byte	0x7
 1444 0829 FA       		.byte	0xfa
 1445 082a 8F080000 		.4byte	0x88f
 1446 082e 17       		.uleb128 0x17
 1447 082f 3F0A0000 		.4byte	.LASF130
 1448 0833 07       		.byte	0x7
 1449 0834 0101     		.2byte	0x101
 1450 0836 1B010000 		.4byte	0x11b
 1451 083a 17       		.uleb128 0x17
 1452 083b 20010000 		.4byte	.LASF131
 1453 083f 07       		.byte	0x7
 1454 0840 0801     		.2byte	0x108
 1455 0842 1B010000 		.4byte	0x11b
 1456 0846 17       		.uleb128 0x17
 1457 0847 21030000 		.4byte	.LASF132
 1458 084b 07       		.byte	0x7
 1459 084c 0F01     		.2byte	0x10f
 1460 084e 1A030000 		.4byte	0x31a
 1461 0852 17       		.uleb128 0x17
 1462 0853 30020000 		.4byte	.LASF133
 1463 0857 07       		.byte	0x7
 1464 0858 1601     		.2byte	0x116
 1465 085a 8F080000 		.4byte	0x88f
 1466 085e 17       		.uleb128 0x17
 1467 085f 35070000 		.4byte	.LASF134
 1468 0863 07       		.byte	0x7
 1469 0864 1B01     		.2byte	0x11b
 1470 0866 1B010000 		.4byte	0x11b
 1471 086a 17       		.uleb128 0x17
 1472 086b 3A000000 		.4byte	.LASF135
 1473 086f 07       		.byte	0x7
 1474 0870 2401     		.2byte	0x124
 1475 0872 BA080000 		.4byte	0x8ba
 1476 0876 17       		.uleb128 0x17
 1477 0877 80030000 		.4byte	.LASF136
ARM GAS  /tmp/ccrpaMoh.s 			page 27


 1478 087b 07       		.byte	0x7
 1479 087c 2D01     		.2byte	0x12d
 1480 087e F1080000 		.4byte	0x8f1
 1481 0882 17       		.uleb128 0x17
 1482 0883 EA010000 		.4byte	.LASF137
 1483 0887 07       		.byte	0x7
 1484 0888 3501     		.2byte	0x135
 1485 088a 26010000 		.4byte	0x126
 1486 088e 00       		.byte	0
 1487 088f 09       		.uleb128 0x9
 1488 0890 04       		.byte	0x4
 1489 0891 32020000 		.4byte	0x232
 1490 0895 05       		.uleb128 0x5
 1491 0896 E2030000 		.4byte	.LASF138
 1492 089a 0C       		.byte	0xc
 1493 089b 0C       		.byte	0xc
 1494 089c 34       		.byte	0x34
 1495 089d BA080000 		.4byte	0x8ba
 1496 08a1 06       		.uleb128 0x6
 1497 08a2 02090000 		.4byte	.LASF139
 1498 08a6 0C       		.byte	0xc
 1499 08a7 35       		.byte	0x35
 1500 08a8 67020000 		.4byte	0x267
 1501 08ac 00       		.byte	0
 1502 08ad 06       		.uleb128 0x6
 1503 08ae D9070000 		.4byte	.LASF140
 1504 08b2 0C       		.byte	0xc
 1505 08b3 37       		.byte	0x37
 1506 08b4 31010000 		.4byte	0x131
 1507 08b8 08       		.byte	0x8
 1508 08b9 00       		.byte	0
 1509 08ba 09       		.uleb128 0x9
 1510 08bb 04       		.byte	0x4
 1511 08bc 95080000 		.4byte	0x895
 1512 08c0 05       		.uleb128 0x5
 1513 08c1 2E090000 		.4byte	.LASF141
 1514 08c5 10       		.byte	0x10
 1515 08c6 0D       		.byte	0xd
 1516 08c7 39       		.byte	0x39
 1517 08c8 F1080000 		.4byte	0x8f1
 1518 08cc 06       		.uleb128 0x6
 1519 08cd B7040000 		.4byte	.LASF142
 1520 08d1 0D       		.byte	0xd
 1521 08d2 3A       		.byte	0x3a
 1522 08d3 67020000 		.4byte	0x267
 1523 08d7 00       		.byte	0
 1524 08d8 06       		.uleb128 0x6
 1525 08d9 0A010000 		.4byte	.LASF143
 1526 08dd 0D       		.byte	0xd
 1527 08de 3C       		.byte	0x3c
 1528 08df 3D020000 		.4byte	0x23d
 1529 08e3 08       		.byte	0x8
 1530 08e4 06       		.uleb128 0x6
 1531 08e5 BA0A0000 		.4byte	.LASF144
 1532 08e9 0D       		.byte	0xd
 1533 08ea 3E       		.byte	0x3e
 1534 08eb 2F090000 		.4byte	0x92f
ARM GAS  /tmp/ccrpaMoh.s 			page 28


 1535 08ef 0C       		.byte	0xc
 1536 08f0 00       		.byte	0
 1537 08f1 09       		.uleb128 0x9
 1538 08f2 04       		.byte	0x4
 1539 08f3 C0080000 		.4byte	0x8c0
 1540 08f7 09       		.uleb128 0x9
 1541 08f8 04       		.byte	0x4
 1542 08f9 FD080000 		.4byte	0x8fd
 1543 08fd 18       		.uleb128 0x18
 1544 08fe 02090000 		.4byte	0x902
 1545 0902 04       		.uleb128 0x4
 1546 0903 01       		.byte	0x1
 1547 0904 08       		.byte	0x8
 1548 0905 D6020000 		.4byte	.LASF145
 1549 0909 09       		.uleb128 0x9
 1550 090a 04       		.byte	0x4
 1551 090b 1C030000 		.4byte	0x31c
 1552 090f 0F       		.uleb128 0xf
 1553 0910 F7080000 		.4byte	0x8f7
 1554 0914 10       		.uleb128 0x10
 1555 0915 61070000 		.4byte	0x761
 1556 0919 24090000 		.4byte	0x924
 1557 091d 11       		.uleb128 0x11
 1558 091e 50040000 		.4byte	0x450
 1559 0922 1A       		.byte	0x1a
 1560 0923 00       		.byte	0
 1561 0924 03       		.uleb128 0x3
 1562 0925 91090000 		.4byte	.LASF146
 1563 0929 0D       		.byte	0xd
 1564 092a 34       		.byte	0x34
 1565 092b C0080000 		.4byte	0x8c0
 1566 092f 09       		.uleb128 0x9
 1567 0930 04       		.byte	0x4
 1568 0931 24090000 		.4byte	0x924
 1569 0935 09       		.uleb128 0x9
 1570 0936 04       		.byte	0x4
 1571 0937 AD000000 		.4byte	0xad
 1572 093b 09       		.uleb128 0x9
 1573 093c 04       		.byte	0x4
 1574 093d 41090000 		.4byte	0x941
 1575 0941 18       		.uleb128 0x18
 1576 0942 AD000000 		.4byte	0xad
 1577 0946 15       		.uleb128 0x15
 1578 0947 14       		.byte	0x14
 1579 0948 0E       		.byte	0xe
 1580 0949 E4       		.byte	0xe4
 1581 094a A3090000 		.4byte	0x9a3
 1582 094e 14       		.uleb128 0x14
 1583 094f 646D6100 		.ascii	"dma\000"
 1584 0953 0E       		.byte	0xe
 1585 0954 E5       		.byte	0xe5
 1586 0955 A3090000 		.4byte	0x9a3
 1587 0959 00       		.byte	0
 1588 095a 06       		.uleb128 0x6
 1589 095b F5030000 		.4byte	.LASF147
 1590 095f 0E       		.byte	0xe
 1591 0960 E6       		.byte	0xe6
ARM GAS  /tmp/ccrpaMoh.s 			page 29


 1592 0961 A9090000 		.4byte	0x9a9
 1593 0965 04       		.byte	0x4
 1594 0966 06       		.uleb128 0x6
 1595 0967 77070000 		.4byte	.LASF148
 1596 096b 0E       		.byte	0xe
 1597 096c E7       		.byte	0xe7
 1598 096d CE000000 		.4byte	0xce
 1599 0971 08       		.byte	0x8
 1600 0972 06       		.uleb128 0x6
 1601 0973 E1020000 		.4byte	.LASF149
 1602 0977 0E       		.byte	0xe
 1603 0978 E9       		.byte	0xe9
 1604 0979 AF090000 		.4byte	0x9af
 1605 097d 0C       		.byte	0xc
 1606 097e 06       		.uleb128 0x6
 1607 097f EF030000 		.4byte	.LASF150
 1608 0983 0E       		.byte	0xe
 1609 0984 EA       		.byte	0xea
 1610 0985 AD000000 		.4byte	0xad
 1611 0989 10       		.byte	0x10
 1612 098a 06       		.uleb128 0x6
 1613 098b DF070000 		.4byte	.LASF151
 1614 098f 0E       		.byte	0xe
 1615 0990 EC       		.byte	0xec
 1616 0991 AD000000 		.4byte	0xad
 1617 0995 11       		.byte	0x11
 1618 0996 06       		.uleb128 0x6
 1619 0997 64080000 		.4byte	.LASF152
 1620 099b 0E       		.byte	0xe
 1621 099c ED       		.byte	0xed
 1622 099d AD000000 		.4byte	0xad
 1623 09a1 12       		.byte	0x12
 1624 09a2 00       		.byte	0
 1625 09a3 09       		.uleb128 0x9
 1626 09a4 04       		.byte	0x4
 1627 09a5 DA040000 		.4byte	0x4da
 1628 09a9 09       		.uleb128 0x9
 1629 09aa 04       		.byte	0x4
 1630 09ab AA040000 		.4byte	0x4aa
 1631 09af 09       		.uleb128 0x9
 1632 09b0 04       		.byte	0x4
 1633 09b1 57040000 		.4byte	0x457
 1634 09b5 03       		.uleb128 0x3
 1635 09b6 00000000 		.4byte	.LASF153
 1636 09ba 0E       		.byte	0xe
 1637 09bb EE       		.byte	0xee
 1638 09bc 46090000 		.4byte	0x946
 1639 09c0 19       		.uleb128 0x19
 1640 09c1 01       		.byte	0x1
 1641 09c2 0F       		.byte	0xf
 1642 09c3 28       		.byte	0x28
 1643 09c4 FF090000 		.4byte	0x9ff
 1644 09c8 1A       		.uleb128 0x1a
 1645 09c9 9C020000 		.4byte	.LASF154
 1646 09cd 00       		.sleb128 0
 1647 09ce 1A       		.uleb128 0x1a
 1648 09cf CA0A0000 		.4byte	.LASF155
ARM GAS  /tmp/ccrpaMoh.s 			page 30


 1649 09d3 01       		.sleb128 1
 1650 09d4 1A       		.uleb128 0x1a
 1651 09d5 6C070000 		.4byte	.LASF156
 1652 09d9 02       		.sleb128 2
 1653 09da 1A       		.uleb128 0x1a
 1654 09db 9A070000 		.4byte	.LASF157
 1655 09df 03       		.sleb128 3
 1656 09e0 1A       		.uleb128 0x1a
 1657 09e1 37090000 		.4byte	.LASF158
 1658 09e5 04       		.sleb128 4
 1659 09e6 1A       		.uleb128 0x1a
 1660 09e7 11030000 		.4byte	.LASF159
 1661 09eb 05       		.sleb128 5
 1662 09ec 1A       		.uleb128 0x1a
 1663 09ed CD090000 		.4byte	.LASF160
 1664 09f1 06       		.sleb128 6
 1665 09f2 1A       		.uleb128 0x1a
 1666 09f3 49070000 		.4byte	.LASF161
 1667 09f7 07       		.sleb128 7
 1668 09f8 1A       		.uleb128 0x1a
 1669 09f9 C4020000 		.4byte	.LASF162
 1670 09fd 08       		.sleb128 8
 1671 09fe 00       		.byte	0
 1672 09ff 03       		.uleb128 0x3
 1673 0a00 81000000 		.4byte	.LASF163
 1674 0a04 0F       		.byte	0xf
 1675 0a05 32       		.byte	0x32
 1676 0a06 C0090000 		.4byte	0x9c0
 1677 0a0a 15       		.uleb128 0x15
 1678 0a0b 08       		.byte	0x8
 1679 0a0c 0F       		.byte	0xf
 1680 0a0d 37       		.byte	0x37
 1681 0a0e 2B0A0000 		.4byte	0xa2b
 1682 0a12 06       		.uleb128 0x6
 1683 0a13 95030000 		.4byte	.LASF164
 1684 0a17 0F       		.byte	0xf
 1685 0a18 38       		.byte	0x38
 1686 0a19 CE000000 		.4byte	0xce
 1687 0a1d 00       		.byte	0
 1688 0a1e 06       		.uleb128 0x6
 1689 0a1f 3D060000 		.4byte	.LASF165
 1690 0a23 0F       		.byte	0xf
 1691 0a24 39       		.byte	0x39
 1692 0a25 CE000000 		.4byte	0xce
 1693 0a29 04       		.byte	0x4
 1694 0a2a 00       		.byte	0
 1695 0a2b 03       		.uleb128 0x3
 1696 0a2c D7060000 		.4byte	.LASF166
 1697 0a30 0F       		.byte	0xf
 1698 0a31 3A       		.byte	0x3a
 1699 0a32 0A0A0000 		.4byte	0xa0a
 1700 0a36 1B       		.uleb128 0x1b
 1701 0a37 450A0000 		.4byte	0xa45
 1702 0a3b 450A0000 		.4byte	0xa45
 1703 0a3f 0C       		.uleb128 0xc
 1704 0a40 1A030000 		.4byte	0x31a
 1705 0a44 00       		.byte	0
ARM GAS  /tmp/ccrpaMoh.s 			page 31


 1706 0a45 04       		.uleb128 0x4
 1707 0a46 01       		.byte	0x1
 1708 0a47 02       		.byte	0x2
 1709 0a48 BE020000 		.4byte	.LASF167
 1710 0a4c 09       		.uleb128 0x9
 1711 0a4d 04       		.byte	0x4
 1712 0a4e 360A0000 		.4byte	0xa36
 1713 0a52 1B       		.uleb128 0x1b
 1714 0a53 450A0000 		.4byte	0xa45
 1715 0a57 700A0000 		.4byte	0xa70
 1716 0a5b 0C       		.uleb128 0xc
 1717 0a5c 1A030000 		.4byte	0x31a
 1718 0a60 0C       		.uleb128 0xc
 1719 0a61 CE000000 		.4byte	0xce
 1720 0a65 0C       		.uleb128 0xc
 1721 0a66 35090000 		.4byte	0x935
 1722 0a6a 0C       		.uleb128 0xc
 1723 0a6b CE000000 		.4byte	0xce
 1724 0a6f 00       		.byte	0
 1725 0a70 09       		.uleb128 0x9
 1726 0a71 04       		.byte	0x4
 1727 0a72 520A0000 		.4byte	0xa52
 1728 0a76 1B       		.uleb128 0x1b
 1729 0a77 450A0000 		.4byte	0xa45
 1730 0a7b 940A0000 		.4byte	0xa94
 1731 0a7f 0C       		.uleb128 0xc
 1732 0a80 1A030000 		.4byte	0x31a
 1733 0a84 0C       		.uleb128 0xc
 1734 0a85 CE000000 		.4byte	0xce
 1735 0a89 0C       		.uleb128 0xc
 1736 0a8a 3B090000 		.4byte	0x93b
 1737 0a8e 0C       		.uleb128 0xc
 1738 0a8f CE000000 		.4byte	0xce
 1739 0a93 00       		.byte	0
 1740 0a94 09       		.uleb128 0x9
 1741 0a95 04       		.byte	0x4
 1742 0a96 760A0000 		.4byte	0xa76
 1743 0a9a 1B       		.uleb128 0x1b
 1744 0a9b 450A0000 		.4byte	0xa45
 1745 0a9f AE0A0000 		.4byte	0xaae
 1746 0aa3 0C       		.uleb128 0xc
 1747 0aa4 1A030000 		.4byte	0x31a
 1748 0aa8 0C       		.uleb128 0xc
 1749 0aa9 AE0A0000 		.4byte	0xaae
 1750 0aad 00       		.byte	0
 1751 0aae 09       		.uleb128 0x9
 1752 0aaf 04       		.byte	0x4
 1753 0ab0 2B0A0000 		.4byte	0xa2b
 1754 0ab4 09       		.uleb128 0x9
 1755 0ab5 04       		.byte	0x4
 1756 0ab6 9A0A0000 		.4byte	0xa9a
 1757 0aba 15       		.uleb128 0x15
 1758 0abb 04       		.byte	0x4
 1759 0abc 10       		.byte	0x10
 1760 0abd E7       		.byte	0xe7
 1761 0abe DB0A0000 		.4byte	0xadb
 1762 0ac2 14       		.uleb128 0x14
ARM GAS  /tmp/ccrpaMoh.s 			page 32


 1763 0ac3 73657400 		.ascii	"set\000"
 1764 0ac7 10       		.byte	0x10
 1765 0ac8 E8       		.byte	0xe8
 1766 0ac9 B8000000 		.4byte	0xb8
 1767 0acd 00       		.byte	0
 1768 0ace 06       		.uleb128 0x6
 1769 0acf A5030000 		.4byte	.LASF168
 1770 0ad3 10       		.byte	0x10
 1771 0ad4 E9       		.byte	0xe9
 1772 0ad5 B8000000 		.4byte	0xb8
 1773 0ad9 02       		.byte	0x2
 1774 0ada 00       		.byte	0
 1775 0adb 16       		.uleb128 0x16
 1776 0adc 04       		.byte	0x4
 1777 0add 10       		.byte	0x10
 1778 0ade E5       		.byte	0xe5
 1779 0adf F60A0000 		.4byte	0xaf6
 1780 0ae3 1C       		.uleb128 0x1c
 1781 0ae4 5700     		.ascii	"W\000"
 1782 0ae6 10       		.byte	0x10
 1783 0ae7 E6       		.byte	0xe6
 1784 0ae8 CE000000 		.4byte	0xce
 1785 0aec 1C       		.uleb128 0x1c
 1786 0aed 4800     		.ascii	"H\000"
 1787 0aef 10       		.byte	0x10
 1788 0af0 EA       		.byte	0xea
 1789 0af1 BA0A0000 		.4byte	0xaba
 1790 0af5 00       		.byte	0
 1791 0af6 15       		.uleb128 0x15
 1792 0af7 2C       		.byte	0x2c
 1793 0af8 10       		.byte	0x10
 1794 0af9 DD       		.byte	0xdd
 1795 0afa 830B0000 		.4byte	0xb83
 1796 0afe 06       		.uleb128 0x6
 1797 0aff F2050000 		.4byte	.LASF169
 1798 0b03 10       		.byte	0x10
 1799 0b04 DF       		.byte	0xdf
 1800 0b05 57040000 		.4byte	0x457
 1801 0b09 00       		.byte	0
 1802 0b0a 06       		.uleb128 0x6
 1803 0b0b A2080000 		.4byte	.LASF170
 1804 0b0f 10       		.byte	0x10
 1805 0b10 E0       		.byte	0xe0
 1806 0b11 57040000 		.4byte	0x457
 1807 0b15 04       		.byte	0x4
 1808 0b16 06       		.uleb128 0x6
 1809 0b17 69040000 		.4byte	.LASF171
 1810 0b1b 10       		.byte	0x10
 1811 0b1c E1       		.byte	0xe1
 1812 0b1d 57040000 		.4byte	0x457
 1813 0b21 08       		.byte	0x8
 1814 0b22 06       		.uleb128 0x6
 1815 0b23 46010000 		.4byte	.LASF172
 1816 0b27 10       		.byte	0x10
 1817 0b28 E2       		.byte	0xe2
 1818 0b29 57040000 		.4byte	0x457
 1819 0b2d 0C       		.byte	0xc
ARM GAS  /tmp/ccrpaMoh.s 			page 33


 1820 0b2e 14       		.uleb128 0x14
 1821 0b2f 49445200 		.ascii	"IDR\000"
 1822 0b33 10       		.byte	0x10
 1823 0b34 E3       		.byte	0xe3
 1824 0b35 57040000 		.4byte	0x457
 1825 0b39 10       		.byte	0x10
 1826 0b3a 14       		.uleb128 0x14
 1827 0b3b 4F445200 		.ascii	"ODR\000"
 1828 0b3f 10       		.byte	0x10
 1829 0b40 E4       		.byte	0xe4
 1830 0b41 57040000 		.4byte	0x457
 1831 0b45 14       		.byte	0x14
 1832 0b46 06       		.uleb128 0x6
 1833 0b47 68090000 		.4byte	.LASF173
 1834 0b4b 10       		.byte	0x10
 1835 0b4c EB       		.byte	0xeb
 1836 0b4d 830B0000 		.4byte	0xb83
 1837 0b51 18       		.byte	0x18
 1838 0b52 06       		.uleb128 0x6
 1839 0b53 4D040000 		.4byte	.LASF174
 1840 0b57 10       		.byte	0x10
 1841 0b58 EC       		.byte	0xec
 1842 0b59 57040000 		.4byte	0x457
 1843 0b5d 1C       		.byte	0x1c
 1844 0b5e 06       		.uleb128 0x6
 1845 0b5f 4C080000 		.4byte	.LASF175
 1846 0b63 10       		.byte	0x10
 1847 0b64 ED       		.byte	0xed
 1848 0b65 57040000 		.4byte	0x457
 1849 0b69 20       		.byte	0x20
 1850 0b6a 06       		.uleb128 0x6
 1851 0b6b 47080000 		.4byte	.LASF176
 1852 0b6f 10       		.byte	0x10
 1853 0b70 EE       		.byte	0xee
 1854 0b71 57040000 		.4byte	0x457
 1855 0b75 24       		.byte	0x24
 1856 0b76 14       		.uleb128 0x14
 1857 0b77 42525200 		.ascii	"BRR\000"
 1858 0b7b 10       		.byte	0x10
 1859 0b7c EF       		.byte	0xef
 1860 0b7d 57040000 		.4byte	0x457
 1861 0b81 28       		.byte	0x28
 1862 0b82 00       		.byte	0
 1863 0b83 0F       		.uleb128 0xf
 1864 0b84 DB0A0000 		.4byte	0xadb
 1865 0b88 03       		.uleb128 0x3
 1866 0b89 E9070000 		.4byte	.LASF177
 1867 0b8d 10       		.byte	0x10
 1868 0b8e F0       		.byte	0xf0
 1869 0b8f F60A0000 		.4byte	0xaf6
 1870 0b93 13       		.uleb128 0x13
 1871 0b94 8F010000 		.4byte	.LASF178
 1872 0b98 10       		.byte	0x10
 1873 0b99 5101     		.2byte	0x151
 1874 0b9b 9F0B0000 		.4byte	0xb9f
 1875 0b9f 09       		.uleb128 0x9
 1876 0ba0 04       		.byte	0x4
ARM GAS  /tmp/ccrpaMoh.s 			page 34


 1877 0ba1 880B0000 		.4byte	0xb88
 1878 0ba5 09       		.uleb128 0x9
 1879 0ba6 04       		.byte	0x4
 1880 0ba7 AB0B0000 		.4byte	0xbab
 1881 0bab 18       		.uleb128 0x18
 1882 0bac B5090000 		.4byte	0x9b5
 1883 0bb0 03       		.uleb128 0x3
 1884 0bb1 3D030000 		.4byte	.LASF179
 1885 0bb5 11       		.byte	0x11
 1886 0bb6 58       		.byte	0x58
 1887 0bb7 BB0B0000 		.4byte	0xbbb
 1888 0bbb 05       		.uleb128 0x5
 1889 0bbc 3D030000 		.4byte	.LASF179
 1890 0bc0 04       		.byte	0x4
 1891 0bc1 12       		.byte	0x12
 1892 0bc2 B6       		.byte	0xb6
 1893 0bc3 D40B0000 		.4byte	0xbd4
 1894 0bc7 14       		.uleb128 0x14
 1895 0bc8 72746300 		.ascii	"rtc\000"
 1896 0bcc 12       		.byte	0x12
 1897 0bcd C1       		.byte	0xc1
 1898 0bce 420C0000 		.4byte	0xc42
 1899 0bd2 00       		.byte	0
 1900 0bd3 00       		.byte	0
 1901 0bd4 15       		.uleb128 0x15
 1902 0bd5 08       		.byte	0x8
 1903 0bd6 11       		.byte	0x11
 1904 0bd7 5D       		.byte	0x5d
 1905 0bd8 370C0000 		.4byte	0xc37
 1906 0bdc 1D       		.uleb128 0x1d
 1907 0bdd FF000000 		.4byte	.LASF180
 1908 0be1 11       		.byte	0x11
 1909 0be2 5F       		.byte	0x5f
 1910 0be3 CE000000 		.4byte	0xce
 1911 0be7 04       		.byte	0x4
 1912 0be8 08       		.byte	0x8
 1913 0be9 18       		.byte	0x18
 1914 0bea 00       		.byte	0
 1915 0beb 1D       		.uleb128 0x1d
 1916 0bec D0080000 		.4byte	.LASF181
 1917 0bf0 11       		.byte	0x11
 1918 0bf1 60       		.byte	0x60
 1919 0bf2 CE000000 		.4byte	0xce
 1920 0bf6 04       		.byte	0x4
 1921 0bf7 04       		.byte	0x4
 1922 0bf8 14       		.byte	0x14
 1923 0bf9 00       		.byte	0
 1924 0bfa 1D       		.uleb128 0x1d
 1925 0bfb 1E080000 		.4byte	.LASF182
 1926 0bff 11       		.byte	0x11
 1927 0c00 61       		.byte	0x61
 1928 0c01 CE000000 		.4byte	0xce
 1929 0c05 04       		.byte	0x4
 1930 0c06 01       		.byte	0x1
 1931 0c07 13       		.byte	0x13
 1932 0c08 00       		.byte	0
 1933 0c09 1D       		.uleb128 0x1d
ARM GAS  /tmp/ccrpaMoh.s 			page 35


 1934 0c0a BF000000 		.4byte	.LASF183
 1935 0c0e 11       		.byte	0x11
 1936 0c0f 62       		.byte	0x62
 1937 0c10 CE000000 		.4byte	0xce
 1938 0c14 04       		.byte	0x4
 1939 0c15 03       		.byte	0x3
 1940 0c16 10       		.byte	0x10
 1941 0c17 00       		.byte	0
 1942 0c18 1E       		.uleb128 0x1e
 1943 0c19 64617900 		.ascii	"day\000"
 1944 0c1d 11       		.byte	0x11
 1945 0c1e 63       		.byte	0x63
 1946 0c1f CE000000 		.4byte	0xce
 1947 0c23 04       		.byte	0x4
 1948 0c24 05       		.byte	0x5
 1949 0c25 0B       		.byte	0xb
 1950 0c26 00       		.byte	0
 1951 0c27 1D       		.uleb128 0x1d
 1952 0c28 CF000000 		.4byte	.LASF184
 1953 0c2c 11       		.byte	0x11
 1954 0c2d 64       		.byte	0x64
 1955 0c2e CE000000 		.4byte	0xce
 1956 0c32 04       		.byte	0x4
 1957 0c33 1B       		.byte	0x1b
 1958 0c34 05       		.byte	0x5
 1959 0c35 04       		.byte	0x4
 1960 0c36 00       		.byte	0
 1961 0c37 03       		.uleb128 0x3
 1962 0c38 D6080000 		.4byte	.LASF185
 1963 0c3c 11       		.byte	0x11
 1964 0c3d 66       		.byte	0x66
 1965 0c3e D40B0000 		.4byte	0xbd4
 1966 0c42 09       		.uleb128 0x9
 1967 0c43 04       		.byte	0x4
 1968 0c44 C1060000 		.4byte	0x6c1
 1969 0c48 19       		.uleb128 0x19
 1970 0c49 01       		.byte	0x1
 1971 0c4a 13       		.byte	0x13
 1972 0c4b 46       		.byte	0x46
 1973 0c4c 6F0C0000 		.4byte	0xc6f
 1974 0c50 1A       		.uleb128 0x1a
 1975 0c51 70010000 		.4byte	.LASF186
 1976 0c55 00       		.sleb128 0
 1977 0c56 1A       		.uleb128 0x1a
 1978 0c57 5E010000 		.4byte	.LASF187
 1979 0c5b 01       		.sleb128 1
 1980 0c5c 1A       		.uleb128 0x1a
 1981 0c5d 97040000 		.4byte	.LASF188
 1982 0c61 02       		.sleb128 2
 1983 0c62 1A       		.uleb128 0x1a
 1984 0c63 32060000 		.4byte	.LASF189
 1985 0c67 03       		.sleb128 3
 1986 0c68 1A       		.uleb128 0x1a
 1987 0c69 320A0000 		.4byte	.LASF190
 1988 0c6d 04       		.sleb128 4
 1989 0c6e 00       		.byte	0
 1990 0c6f 03       		.uleb128 0x3
ARM GAS  /tmp/ccrpaMoh.s 			page 36


 1991 0c70 760A0000 		.4byte	.LASF191
 1992 0c74 13       		.byte	0x13
 1993 0c75 4C       		.byte	0x4c
 1994 0c76 480C0000 		.4byte	0xc48
 1995 0c7a 13       		.uleb128 0x13
 1996 0c7b FC020000 		.4byte	.LASF192
 1997 0c7f 14       		.byte	0x14
 1998 0c80 9601     		.2byte	0x196
 1999 0c82 860C0000 		.4byte	0xc86
 2000 0c86 0A       		.uleb128 0xa
 2001 0c87 FC020000 		.4byte	.LASF192
 2002 0c8b 34       		.byte	0x34
 2003 0c8c 14       		.byte	0x14
 2004 0c8d BE01     		.2byte	0x1be
 2005 0c8f 160D0000 		.4byte	0xd16
 2006 0c93 08       		.uleb128 0x8
 2007 0c94 E8000000 		.4byte	.LASF193
 2008 0c98 14       		.byte	0x14
 2009 0c99 C201     		.2byte	0x1c2
 2010 0c9b 6F0C0000 		.4byte	0xc6f
 2011 0c9f 00       		.byte	0
 2012 0ca0 08       		.uleb128 0x8
 2013 0ca1 E1000000 		.4byte	.LASF194
 2014 0ca5 14       		.byte	0x14
 2015 0ca6 C601     		.2byte	0x1c6
 2016 0ca8 900D0000 		.4byte	0xd90
 2017 0cac 04       		.byte	0x4
 2018 0cad 08       		.uleb128 0x8
 2019 0cae FB080000 		.4byte	.LASF195
 2020 0cb2 14       		.byte	0x14
 2021 0cb3 CB01     		.2byte	0x1cb
 2022 0cb5 32020000 		.4byte	0x232
 2023 0cb9 08       		.byte	0x8
 2024 0cba 08       		.uleb128 0x8
 2025 0cbb BC050000 		.4byte	.LASF196
 2026 0cbf 14       		.byte	0x14
 2027 0cc0 D101     		.2byte	0x1d1
 2028 0cc2 24090000 		.4byte	0x924
 2029 0cc6 0C       		.byte	0xc
 2030 0cc7 07       		.uleb128 0x7
 2031 0cc8 73706900 		.ascii	"spi\000"
 2032 0ccc 14       		.byte	0x14
 2033 0ccd DA01     		.2byte	0x1da
 2034 0ccf 9B0D0000 		.4byte	0xd9b
 2035 0cd3 1C       		.byte	0x1c
 2036 0cd4 08       		.uleb128 0x8
 2037 0cd5 71040000 		.4byte	.LASF197
 2038 0cd9 14       		.byte	0x14
 2039 0cda DE01     		.2byte	0x1de
 2040 0cdc A50B0000 		.4byte	0xba5
 2041 0ce0 20       		.byte	0x20
 2042 0ce1 08       		.uleb128 0x8
 2043 0ce2 EC050000 		.4byte	.LASF198
 2044 0ce6 14       		.byte	0x14
 2045 0ce7 E201     		.2byte	0x1e2
 2046 0ce9 A50B0000 		.4byte	0xba5
 2047 0ced 24       		.byte	0x24
ARM GAS  /tmp/ccrpaMoh.s 			page 37


 2048 0cee 08       		.uleb128 0x8
 2049 0cef D3050000 		.4byte	.LASF199
 2050 0cf3 14       		.byte	0x14
 2051 0cf4 E601     		.2byte	0x1e6
 2052 0cf6 CE000000 		.4byte	0xce
 2053 0cfa 28       		.byte	0x28
 2054 0cfb 08       		.uleb128 0x8
 2055 0cfc 6B030000 		.4byte	.LASF200
 2056 0d00 14       		.byte	0x14
 2057 0d01 EA01     		.2byte	0x1ea
 2058 0d03 CE000000 		.4byte	0xce
 2059 0d07 2C       		.byte	0x2c
 2060 0d08 08       		.uleb128 0x8
 2061 0d09 DB000000 		.4byte	.LASF201
 2062 0d0d 14       		.byte	0x14
 2063 0d0e EE01     		.2byte	0x1ee
 2064 0d10 2C000000 		.4byte	0x2c
 2065 0d14 30       		.byte	0x30
 2066 0d15 00       		.byte	0
 2067 0d16 13       		.uleb128 0x13
 2068 0d17 58020000 		.4byte	.LASF202
 2069 0d1b 14       		.byte	0x14
 2070 0d1c 9E01     		.2byte	0x19e
 2071 0d1e 220D0000 		.4byte	0xd22
 2072 0d22 09       		.uleb128 0x9
 2073 0d23 04       		.byte	0x4
 2074 0d24 280D0000 		.4byte	0xd28
 2075 0d28 0B       		.uleb128 0xb
 2076 0d29 330D0000 		.4byte	0xd33
 2077 0d2d 0C       		.uleb128 0xc
 2078 0d2e 330D0000 		.4byte	0xd33
 2079 0d32 00       		.byte	0
 2080 0d33 09       		.uleb128 0x9
 2081 0d34 04       		.byte	0x4
 2082 0d35 7A0C0000 		.4byte	0xc7a
 2083 0d39 12       		.uleb128 0x12
 2084 0d3a 10       		.byte	0x10
 2085 0d3b 14       		.byte	0x14
 2086 0d3c A301     		.2byte	0x1a3
 2087 0d3e 840D0000 		.4byte	0xd84
 2088 0d42 08       		.uleb128 0x8
 2089 0d43 19010000 		.4byte	.LASF203
 2090 0d47 14       		.byte	0x14
 2091 0d48 A701     		.2byte	0x1a7
 2092 0d4a 160D0000 		.4byte	0xd16
 2093 0d4e 00       		.byte	0
 2094 0d4f 08       		.uleb128 0x8
 2095 0d50 AC000000 		.4byte	.LASF204
 2096 0d54 14       		.byte	0x14
 2097 0d55 AC01     		.2byte	0x1ac
 2098 0d57 930B0000 		.4byte	0xb93
 2099 0d5b 04       		.byte	0x4
 2100 0d5c 08       		.uleb128 0x8
 2101 0d5d A10A0000 		.4byte	.LASF205
 2102 0d61 14       		.byte	0x14
 2103 0d62 B001     		.2byte	0x1b0
 2104 0d64 B8000000 		.4byte	0xb8
ARM GAS  /tmp/ccrpaMoh.s 			page 38


 2105 0d68 08       		.byte	0x8
 2106 0d69 07       		.uleb128 0x7
 2107 0d6a 63723100 		.ascii	"cr1\000"
 2108 0d6e 14       		.byte	0x14
 2109 0d6f B401     		.2byte	0x1b4
 2110 0d71 B8000000 		.4byte	0xb8
 2111 0d75 0A       		.byte	0xa
 2112 0d76 07       		.uleb128 0x7
 2113 0d77 63723200 		.ascii	"cr2\000"
 2114 0d7b 14       		.byte	0x14
 2115 0d7c B801     		.2byte	0x1b8
 2116 0d7e B8000000 		.4byte	0xb8
 2117 0d82 0C       		.byte	0xc
 2118 0d83 00       		.byte	0
 2119 0d84 13       		.uleb128 0x13
 2120 0d85 28060000 		.4byte	.LASF206
 2121 0d89 14       		.byte	0x14
 2122 0d8a B901     		.2byte	0x1b9
 2123 0d8c 390D0000 		.4byte	0xd39
 2124 0d90 09       		.uleb128 0x9
 2125 0d91 04       		.byte	0x4
 2126 0d92 960D0000 		.4byte	0xd96
 2127 0d96 18       		.uleb128 0x18
 2128 0d97 840D0000 		.4byte	0xd84
 2129 0d9b 09       		.uleb128 0x9
 2130 0d9c 04       		.byte	0x4
 2131 0d9d 4A070000 		.4byte	0x74a
 2132 0da1 15       		.uleb128 0x15
 2133 0da2 0C       		.byte	0xc
 2134 0da3 15       		.byte	0x15
 2135 0da4 4B       		.byte	0x4b
 2136 0da5 CE0D0000 		.4byte	0xdce
 2137 0da9 06       		.uleb128 0x6
 2138 0daa DD050000 		.4byte	.LASF207
 2139 0dae 15       		.byte	0x15
 2140 0daf 4F       		.byte	0x4f
 2141 0db0 330D0000 		.4byte	0xd33
 2142 0db4 00       		.byte	0
 2143 0db5 06       		.uleb128 0x6
 2144 0db6 DB020000 		.4byte	.LASF208
 2145 0dba 15       		.byte	0x15
 2146 0dbb 53       		.byte	0x53
 2147 0dbc 900D0000 		.4byte	0xd90
 2148 0dc0 04       		.byte	0x4
 2149 0dc1 06       		.uleb128 0x6
 2150 0dc2 C7090000 		.4byte	.LASF209
 2151 0dc6 15       		.byte	0x15
 2152 0dc7 57       		.byte	0x57
 2153 0dc8 900D0000 		.4byte	0xd90
 2154 0dcc 08       		.byte	0x8
 2155 0dcd 00       		.byte	0
 2156 0dce 03       		.uleb128 0x3
 2157 0dcf 90080000 		.4byte	.LASF210
 2158 0dd3 15       		.byte	0x15
 2159 0dd4 58       		.byte	0x58
 2160 0dd5 A10D0000 		.4byte	0xda1
 2161 0dd9 05       		.uleb128 0x5
ARM GAS  /tmp/ccrpaMoh.s 			page 39


 2162 0dda A1090000 		.4byte	.LASF211
 2163 0dde 20       		.byte	0x20
 2164 0ddf 15       		.byte	0x15
 2165 0de0 65       		.byte	0x65
 2166 0de1 460E0000 		.4byte	0xe46
 2167 0de5 06       		.uleb128 0x6
 2168 0de6 24040000 		.4byte	.LASF212
 2169 0dea 15       		.byte	0x15
 2170 0deb 66       		.byte	0x66
 2171 0dec 4C0A0000 		.4byte	0xa4c
 2172 0df0 00       		.byte	0
 2173 0df1 06       		.uleb128 0x6
 2174 0df2 D1010000 		.4byte	.LASF213
 2175 0df6 15       		.byte	0x15
 2176 0df7 66       		.byte	0x66
 2177 0df8 4C0A0000 		.4byte	0xa4c
 2178 0dfc 04       		.byte	0x4
 2179 0dfd 06       		.uleb128 0x6
 2180 0dfe AF040000 		.4byte	.LASF214
 2181 0e02 15       		.byte	0x15
 2182 0e03 66       		.byte	0x66
 2183 0e04 4C0A0000 		.4byte	0xa4c
 2184 0e08 08       		.byte	0x8
 2185 0e09 06       		.uleb128 0x6
 2186 0e0a 86070000 		.4byte	.LASF215
 2187 0e0e 15       		.byte	0x15
 2188 0e0f 66       		.byte	0x66
 2189 0e10 4C0A0000 		.4byte	0xa4c
 2190 0e14 0C       		.byte	0xc
 2191 0e15 06       		.uleb128 0x6
 2192 0e16 00060000 		.4byte	.LASF216
 2193 0e1a 15       		.byte	0x15
 2194 0e1b 66       		.byte	0x66
 2195 0e1c 700A0000 		.4byte	0xa70
 2196 0e20 10       		.byte	0x10
 2197 0e21 06       		.uleb128 0x6
 2198 0e22 B9000000 		.4byte	.LASF217
 2199 0e26 15       		.byte	0x15
 2200 0e27 66       		.byte	0x66
 2201 0e28 940A0000 		.4byte	0xa94
 2202 0e2c 14       		.byte	0x14
 2203 0e2d 06       		.uleb128 0x6
 2204 0e2e D6040000 		.4byte	.LASF218
 2205 0e32 15       		.byte	0x15
 2206 0e33 66       		.byte	0x66
 2207 0e34 4C0A0000 		.4byte	0xa4c
 2208 0e38 18       		.byte	0x18
 2209 0e39 06       		.uleb128 0x6
 2210 0e3a 51000000 		.4byte	.LASF219
 2211 0e3e 15       		.byte	0x15
 2212 0e3f 66       		.byte	0x66
 2213 0e40 B40A0000 		.4byte	0xab4
 2214 0e44 1C       		.byte	0x1c
 2215 0e45 00       		.byte	0
 2216 0e46 15       		.uleb128 0x15
 2217 0e47 34       		.byte	0x34
 2218 0e48 15       		.byte	0x15
ARM GAS  /tmp/ccrpaMoh.s 			page 40


 2219 0e49 6E       		.byte	0x6e
 2220 0e4a A30E0000 		.4byte	0xea3
 2221 0e4e 14       		.uleb128 0x14
 2222 0e4f 766D7400 		.ascii	"vmt\000"
 2223 0e53 15       		.byte	0x15
 2224 0e54 72       		.byte	0x72
 2225 0e55 A30E0000 		.4byte	0xea3
 2226 0e59 00       		.byte	0
 2227 0e5a 06       		.uleb128 0x6
 2228 0e5b E8000000 		.4byte	.LASF193
 2229 0e5f 15       		.byte	0x15
 2230 0e60 73       		.byte	0x73
 2231 0e61 FF090000 		.4byte	0x9ff
 2232 0e65 04       		.byte	0x4
 2233 0e66 14       		.uleb128 0x14
 2234 0e67 63696400 		.ascii	"cid\000"
 2235 0e6b 15       		.byte	0x15
 2236 0e6c 73       		.byte	0x73
 2237 0e6d 5C040000 		.4byte	0x45c
 2238 0e71 08       		.byte	0x8
 2239 0e72 14       		.uleb128 0x14
 2240 0e73 63736400 		.ascii	"csd\000"
 2241 0e77 15       		.byte	0x15
 2242 0e78 73       		.byte	0x73
 2243 0e79 5C040000 		.4byte	0x45c
 2244 0e7d 18       		.byte	0x18
 2245 0e7e 06       		.uleb128 0x6
 2246 0e7f EC020000 		.4byte	.LASF220
 2247 0e83 15       		.byte	0x15
 2248 0e84 73       		.byte	0x73
 2249 0e85 CE000000 		.4byte	0xce
 2250 0e89 28       		.byte	0x28
 2251 0e8a 06       		.uleb128 0x6
 2252 0e8b E1000000 		.4byte	.LASF194
 2253 0e8f 15       		.byte	0x15
 2254 0e90 77       		.byte	0x77
 2255 0e91 AE0E0000 		.4byte	0xeae
 2256 0e95 2C       		.byte	0x2c
 2257 0e96 06       		.uleb128 0x6
 2258 0e97 81090000 		.4byte	.LASF221
 2259 0e9b 15       		.byte	0x15
 2260 0e9c 7B       		.byte	0x7b
 2261 0e9d 450A0000 		.4byte	0xa45
 2262 0ea1 30       		.byte	0x30
 2263 0ea2 00       		.byte	0
 2264 0ea3 09       		.uleb128 0x9
 2265 0ea4 04       		.byte	0x4
 2266 0ea5 A90E0000 		.4byte	0xea9
 2267 0ea9 18       		.uleb128 0x18
 2268 0eaa D90D0000 		.4byte	0xdd9
 2269 0eae 09       		.uleb128 0x9
 2270 0eaf 04       		.byte	0x4
 2271 0eb0 B40E0000 		.4byte	0xeb4
 2272 0eb4 18       		.uleb128 0x18
 2273 0eb5 CE0D0000 		.4byte	0xdce
 2274 0eb9 03       		.uleb128 0x3
 2275 0eba 7B080000 		.4byte	.LASF222
ARM GAS  /tmp/ccrpaMoh.s 			page 41


 2276 0ebe 15       		.byte	0x15
 2277 0ebf 7C       		.byte	0x7c
 2278 0ec0 460E0000 		.4byte	0xe46
 2279 0ec4 03       		.uleb128 0x3
 2280 0ec5 3B010000 		.4byte	.LASF223
 2281 0ec9 16       		.byte	0x16
 2282 0eca 10       		.byte	0x10
 2283 0ecb 50000000 		.4byte	0x50
 2284 0ecf 03       		.uleb128 0x3
 2285 0ed0 25070000 		.4byte	.LASF224
 2286 0ed4 16       		.byte	0x16
 2287 0ed5 14       		.byte	0x14
 2288 0ed6 69000000 		.4byte	0x69
 2289 0eda 03       		.uleb128 0x3
 2290 0edb 2D030000 		.4byte	.LASF225
 2291 0edf 16       		.byte	0x16
 2292 0ee0 19       		.byte	0x19
 2293 0ee1 37000000 		.4byte	0x37
 2294 0ee5 03       		.uleb128 0x3
 2295 0ee6 D1060000 		.4byte	.LASF226
 2296 0eea 16       		.byte	0x16
 2297 0eeb 1D       		.byte	0x1d
 2298 0eec 8D000000 		.4byte	0x8d
 2299 0ef0 03       		.uleb128 0x3
 2300 0ef1 60090000 		.4byte	.LASF227
 2301 0ef5 17       		.byte	0x17
 2302 0ef6 13       		.byte	0x13
 2303 0ef7 C40E0000 		.4byte	0xec4
 2304 0efb 19       		.uleb128 0x19
 2305 0efc 01       		.byte	0x1
 2306 0efd 17       		.byte	0x17
 2307 0efe 16       		.byte	0x16
 2308 0eff 220F0000 		.4byte	0xf22
 2309 0f03 1A       		.uleb128 0x1a
 2310 0f04 55060000 		.4byte	.LASF228
 2311 0f08 00       		.sleb128 0
 2312 0f09 1A       		.uleb128 0x1a
 2313 0f0a 4C010000 		.4byte	.LASF229
 2314 0f0e 01       		.sleb128 1
 2315 0f0f 1A       		.uleb128 0x1a
 2316 0f10 71080000 		.4byte	.LASF230
 2317 0f14 02       		.sleb128 2
 2318 0f15 1A       		.uleb128 0x1a
 2319 0f16 A9070000 		.4byte	.LASF231
 2320 0f1a 03       		.sleb128 3
 2321 0f1b 1A       		.uleb128 0x1a
 2322 0f1c 25020000 		.4byte	.LASF232
 2323 0f20 04       		.sleb128 4
 2324 0f21 00       		.byte	0
 2325 0f22 03       		.uleb128 0x3
 2326 0f23 B6020000 		.4byte	.LASF233
 2327 0f27 17       		.byte	0x17
 2328 0f28 1C       		.byte	0x1c
 2329 0f29 FB0E0000 		.4byte	0xefb
 2330 0f2d 1F       		.uleb128 0x1f
 2331 0f2e 8B0A0000 		.4byte	.LASF234
 2332 0f32 01       		.byte	0x1
ARM GAS  /tmp/ccrpaMoh.s 			page 42


 2333 0f33 27       		.byte	0x27
 2334 0f34 F00E0000 		.4byte	0xef0
 2335 0f38 00000000 		.4byte	.LFB272
 2336 0f3c 28000000 		.4byte	.LFE272-.LFB272
 2337 0f40 01       		.uleb128 0x1
 2338 0f41 9C       		.byte	0x9c
 2339 0f42 6E0F0000 		.4byte	0xf6e
 2340 0f46 20       		.uleb128 0x20
 2341 0f47 A8060000 		.4byte	.LASF236
 2342 0f4b 01       		.byte	0x1
 2343 0f4c 28       		.byte	0x28
 2344 0f4d C40E0000 		.4byte	0xec4
 2345 0f51 00000000 		.4byte	.LLST0
 2346 0f55 21       		.uleb128 0x21
 2347 0f56 F4000000 		.4byte	.LASF237
 2348 0f5a 01       		.byte	0x1
 2349 0f5b 2B       		.byte	0x2b
 2350 0f5c F00E0000 		.4byte	0xef0
 2351 0f60 3A000000 		.4byte	.LLST1
 2352 0f64 22       		.uleb128 0x22
 2353 0f65 12000000 		.4byte	.LVL4
 2354 0f69 AA110000 		.4byte	0x11aa
 2355 0f6d 00       		.byte	0
 2356 0f6e 1F       		.uleb128 0x1f
 2357 0f6f 7C020000 		.4byte	.LASF235
 2358 0f73 01       		.byte	0x1
 2359 0f74 4A       		.byte	0x4a
 2360 0f75 F00E0000 		.4byte	0xef0
 2361 0f79 00000000 		.4byte	.LFB273
 2362 0f7d 28000000 		.4byte	.LFE273-.LFB273
 2363 0f81 01       		.uleb128 0x1
 2364 0f82 9C       		.byte	0x9c
 2365 0f83 AF0F0000 		.4byte	0xfaf
 2366 0f87 20       		.uleb128 0x20
 2367 0f88 A8060000 		.4byte	.LASF236
 2368 0f8c 01       		.byte	0x1
 2369 0f8d 4B       		.byte	0x4b
 2370 0f8e C40E0000 		.4byte	0xec4
 2371 0f92 59000000 		.4byte	.LLST2
 2372 0f96 21       		.uleb128 0x21
 2373 0f97 F4000000 		.4byte	.LASF237
 2374 0f9b 01       		.byte	0x1
 2375 0f9c 4E       		.byte	0x4e
 2376 0f9d F00E0000 		.4byte	0xef0
 2377 0fa1 93000000 		.4byte	.LLST3
 2378 0fa5 22       		.uleb128 0x22
 2379 0fa6 12000000 		.4byte	.LVL12
 2380 0faa AA110000 		.4byte	0x11aa
 2381 0fae 00       		.byte	0
 2382 0faf 1F       		.uleb128 0x1f
 2383 0fb0 11090000 		.4byte	.LASF238
 2384 0fb4 01       		.byte	0x1
 2385 0fb5 6D       		.byte	0x6d
 2386 0fb6 220F0000 		.4byte	0xf22
 2387 0fba 00000000 		.4byte	.LFB274
 2388 0fbe 58000000 		.4byte	.LFE274-.LFB274
 2389 0fc2 01       		.uleb128 0x1
ARM GAS  /tmp/ccrpaMoh.s 			page 43


 2390 0fc3 9C       		.byte	0x9c
 2391 0fc4 37100000 		.4byte	0x1037
 2392 0fc8 20       		.uleb128 0x20
 2393 0fc9 A8060000 		.4byte	.LASF236
 2394 0fcd 01       		.byte	0x1
 2395 0fce 6E       		.byte	0x6e
 2396 0fcf C40E0000 		.4byte	0xec4
 2397 0fd3 B2000000 		.4byte	.LLST4
 2398 0fd7 20       		.uleb128 0x20
 2399 0fd8 CE050000 		.4byte	.LASF239
 2400 0fdc 01       		.byte	0x1
 2401 0fdd 6F       		.byte	0x6f
 2402 0fde 37100000 		.4byte	0x1037
 2403 0fe2 EC000000 		.4byte	.LLST5
 2404 0fe6 20       		.uleb128 0x20
 2405 0fe7 21060000 		.4byte	.LASF240
 2406 0feb 01       		.byte	0x1
 2407 0fec 70       		.byte	0x70
 2408 0fed E50E0000 		.4byte	0xee5
 2409 0ff1 20010000 		.4byte	.LLST6
 2410 0ff5 20       		.uleb128 0x20
 2411 0ff6 04010000 		.4byte	.LASF241
 2412 0ffa 01       		.byte	0x1
 2413 0ffb 71       		.byte	0x71
 2414 0ffc DA0E0000 		.4byte	0xeda
 2415 1000 5A010000 		.4byte	.LLST7
 2416 1004 23       		.uleb128 0x23
 2417 1005 22000000 		.4byte	.LVL21
 2418 1009 C5110000 		.4byte	0x11c5
 2419 100d 19100000 		.4byte	0x1019
 2420 1011 24       		.uleb128 0x24
 2421 1012 01       		.uleb128 0x1
 2422 1013 51       		.byte	0x51
 2423 1014 03       		.uleb128 0x3
 2424 1015 F3       		.byte	0xf3
 2425 1016 01       		.uleb128 0x1
 2426 1017 52       		.byte	0x52
 2427 1018 00       		.byte	0
 2428 1019 23       		.uleb128 0x23
 2429 101a 38000000 		.4byte	.LVL26
 2430 101e DF110000 		.4byte	0x11df
 2431 1022 2D100000 		.4byte	0x102d
 2432 1026 24       		.uleb128 0x24
 2433 1027 01       		.uleb128 0x1
 2434 1028 51       		.byte	0x51
 2435 1029 02       		.uleb128 0x2
 2436 102a 74       		.byte	0x74
 2437 102b 00       		.sleb128 0
 2438 102c 00       		.byte	0
 2439 102d 25       		.uleb128 0x25
 2440 102e 52000000 		.4byte	.LVL30
 2441 1032 F9110000 		.4byte	0x11f9
 2442 1036 00       		.byte	0
 2443 1037 09       		.uleb128 0x9
 2444 1038 04       		.byte	0x4
 2445 1039 C40E0000 		.4byte	0xec4
 2446 103d 1F       		.uleb128 0x1f
ARM GAS  /tmp/ccrpaMoh.s 			page 44


 2447 103e 1A070000 		.4byte	.LASF242
 2448 1042 01       		.byte	0x1
 2449 1043 96       		.byte	0x96
 2450 1044 220F0000 		.4byte	0xf22
 2451 1048 00000000 		.4byte	.LFB275
 2452 104c 68000000 		.4byte	.LFE275-.LFB275
 2453 1050 01       		.uleb128 0x1
 2454 1051 9C       		.byte	0x9c
 2455 1052 DE100000 		.4byte	0x10de
 2456 1056 20       		.uleb128 0x20
 2457 1057 A8060000 		.4byte	.LASF236
 2458 105b 01       		.byte	0x1
 2459 105c 97       		.byte	0x97
 2460 105d C40E0000 		.4byte	0xec4
 2461 1061 C9010000 		.4byte	.LLST8
 2462 1065 20       		.uleb128 0x20
 2463 1066 CE050000 		.4byte	.LASF239
 2464 106a 01       		.byte	0x1
 2465 106b 98       		.byte	0x98
 2466 106c DE100000 		.4byte	0x10de
 2467 1070 03020000 		.4byte	.LLST9
 2468 1074 20       		.uleb128 0x20
 2469 1075 21060000 		.4byte	.LASF240
 2470 1079 01       		.byte	0x1
 2471 107a 99       		.byte	0x99
 2472 107b E50E0000 		.4byte	0xee5
 2473 107f 37020000 		.4byte	.LLST10
 2474 1083 20       		.uleb128 0x20
 2475 1084 04010000 		.4byte	.LASF241
 2476 1088 01       		.byte	0x1
 2477 1089 9A       		.byte	0x9a
 2478 108a DA0E0000 		.4byte	0xeda
 2479 108e 71020000 		.4byte	.LLST11
 2480 1092 23       		.uleb128 0x23
 2481 1093 24000000 		.4byte	.LVL36
 2482 1097 AA110000 		.4byte	0x11aa
 2483 109b A6100000 		.4byte	0x10a6
 2484 109f 24       		.uleb128 0x24
 2485 10a0 01       		.uleb128 0x1
 2486 10a1 50       		.byte	0x50
 2487 10a2 02       		.uleb128 0x2
 2488 10a3 75       		.byte	0x75
 2489 10a4 00       		.sleb128 0
 2490 10a5 00       		.byte	0
 2491 10a6 23       		.uleb128 0x23
 2492 10a7 34000000 		.4byte	.LVL37
 2493 10ab 0E120000 		.4byte	0x120e
 2494 10af BA100000 		.4byte	0x10ba
 2495 10b3 24       		.uleb128 0x24
 2496 10b4 01       		.uleb128 0x1
 2497 10b5 50       		.byte	0x50
 2498 10b6 02       		.uleb128 0x2
 2499 10b7 75       		.byte	0x75
 2500 10b8 00       		.sleb128 0
 2501 10b9 00       		.byte	0
 2502 10ba 23       		.uleb128 0x23
 2503 10bb 4A000000 		.4byte	.LVL42
ARM GAS  /tmp/ccrpaMoh.s 			page 45


 2504 10bf 28120000 		.4byte	0x1228
 2505 10c3 D4100000 		.4byte	0x10d4
 2506 10c7 24       		.uleb128 0x24
 2507 10c8 01       		.uleb128 0x1
 2508 10c9 51       		.byte	0x51
 2509 10ca 02       		.uleb128 0x2
 2510 10cb 74       		.byte	0x74
 2511 10cc 00       		.sleb128 0
 2512 10cd 24       		.uleb128 0x24
 2513 10ce 01       		.uleb128 0x1
 2514 10cf 50       		.byte	0x50
 2515 10d0 02       		.uleb128 0x2
 2516 10d1 75       		.byte	0x75
 2517 10d2 00       		.sleb128 0
 2518 10d3 00       		.byte	0
 2519 10d4 25       		.uleb128 0x25
 2520 10d5 64000000 		.4byte	.LVL46
 2521 10d9 42120000 		.4byte	0x1242
 2522 10dd 00       		.byte	0
 2523 10de 09       		.uleb128 0x9
 2524 10df 04       		.byte	0x4
 2525 10e0 E4100000 		.4byte	0x10e4
 2526 10e4 18       		.uleb128 0x18
 2527 10e5 C40E0000 		.4byte	0xec4
 2528 10e9 1F       		.uleb128 0x1f
 2529 10ea 58030000 		.4byte	.LASF243
 2530 10ee 01       		.byte	0x1
 2531 10ef C2       		.byte	0xc2
 2532 10f0 220F0000 		.4byte	0xf22
 2533 10f4 00000000 		.4byte	.LFB276
 2534 10f8 18000000 		.4byte	.LFE276-.LFB276
 2535 10fc 01       		.uleb128 0x1
 2536 10fd 9C       		.byte	0x9c
 2537 10fe 2C110000 		.4byte	0x112c
 2538 1102 20       		.uleb128 0x20
 2539 1103 A8060000 		.4byte	.LASF236
 2540 1107 01       		.byte	0x1
 2541 1108 C3       		.byte	0xc3
 2542 1109 C40E0000 		.4byte	0xec4
 2543 110d E0020000 		.4byte	.LLST12
 2544 1111 26       		.uleb128 0x26
 2545 1112 636D6400 		.ascii	"cmd\000"
 2546 1116 01       		.byte	0x1
 2547 1117 C4       		.byte	0xc4
 2548 1118 C40E0000 		.4byte	0xec4
 2549 111c 01       		.uleb128 0x1
 2550 111d 51       		.byte	0x51
 2551 111e 27       		.uleb128 0x27
 2552 111f CE050000 		.4byte	.LASF239
 2553 1123 01       		.byte	0x1
 2554 1124 C5       		.byte	0xc5
 2555 1125 1A030000 		.4byte	0x31a
 2556 1129 01       		.uleb128 0x1
 2557 112a 52       		.byte	0x52
 2558 112b 00       		.byte	0
 2559 112c 1F       		.uleb128 0x1f
 2560 112d 88020000 		.4byte	.LASF244
ARM GAS  /tmp/ccrpaMoh.s 			page 46


 2561 1131 01       		.byte	0x1
 2562 1132 F5       		.byte	0xf5
 2563 1133 E50E0000 		.4byte	0xee5
 2564 1137 00000000 		.4byte	.LFB277
 2565 113b 1C000000 		.4byte	.LFE277-.LFB277
 2566 113f 01       		.uleb128 0x1
 2567 1140 9C       		.byte	0x9c
 2568 1141 78110000 		.4byte	0x1178
 2569 1145 28       		.uleb128 0x28
 2570 1146 91070000 		.4byte	.LASF245
 2571 114a 01       		.byte	0x1
 2572 114b F7       		.byte	0xf7
 2573 114c 370C0000 		.4byte	0xc37
 2574 1150 02       		.uleb128 0x2
 2575 1151 91       		.byte	0x91
 2576 1152 70       		.sleb128 -16
 2577 1153 23       		.uleb128 0x23
 2578 1154 0C000000 		.4byte	.LVL51
 2579 1158 57120000 		.4byte	0x1257
 2580 115c 67110000 		.4byte	0x1167
 2581 1160 24       		.uleb128 0x24
 2582 1161 01       		.uleb128 0x1
 2583 1162 51       		.byte	0x51
 2584 1163 02       		.uleb128 0x2
 2585 1164 7D       		.byte	0x7d
 2586 1165 00       		.sleb128 0
 2587 1166 00       		.byte	0
 2588 1167 29       		.uleb128 0x29
 2589 1168 12000000 		.4byte	.LVL52
 2590 116c 79120000 		.4byte	0x1279
 2591 1170 24       		.uleb128 0x24
 2592 1171 01       		.uleb128 0x1
 2593 1172 50       		.byte	0x50
 2594 1173 02       		.uleb128 0x2
 2595 1174 7D       		.byte	0x7d
 2596 1175 00       		.sleb128 0
 2597 1176 00       		.byte	0
 2598 1177 00       		.byte	0
 2599 1178 2A       		.uleb128 0x2a
 2600 1179 6D090000 		.4byte	.LASF246
 2601 117d 18       		.byte	0x18
 2602 117e FA06     		.2byte	0x6fa
 2603 1180 84110000 		.4byte	0x1184
 2604 1184 0F       		.uleb128 0xf
 2605 1185 C3000000 		.4byte	0xc3
 2606 1189 2B       		.uleb128 0x2b
 2607 118a 636800   		.ascii	"ch\000"
 2608 118d 07       		.byte	0x7
 2609 118e 0B02     		.2byte	0x20b
 2610 1190 E9030000 		.4byte	0x3e9
 2611 1194 2C       		.uleb128 0x2c
 2612 1195 B3000000 		.4byte	.LASF247
 2613 1199 01       		.byte	0x1
 2614 119a 19       		.byte	0x19
 2615 119b B00B0000 		.4byte	0xbb0
 2616 119f 2C       		.uleb128 0x2c
 2617 11a0 1B030000 		.4byte	.LASF248
ARM GAS  /tmp/ccrpaMoh.s 			page 47


 2618 11a4 01       		.byte	0x1
 2619 11a5 11       		.byte	0x11
 2620 11a6 B90E0000 		.4byte	0xeb9
 2621 11aa 2D       		.uleb128 0x2d
 2622 11ab 63060000 		.4byte	.LASF249
 2623 11af 15       		.byte	0x15
 2624 11b0 BA       		.byte	0xba
 2625 11b1 450A0000 		.4byte	0xa45
 2626 11b5 BF110000 		.4byte	0x11bf
 2627 11b9 0C       		.uleb128 0xc
 2628 11ba BF110000 		.4byte	0x11bf
 2629 11be 00       		.byte	0
 2630 11bf 09       		.uleb128 0x9
 2631 11c0 04       		.byte	0x4
 2632 11c1 B90E0000 		.4byte	0xeb9
 2633 11c5 2D       		.uleb128 0x2d
 2634 11c6 03070000 		.4byte	.LASF250
 2635 11ca 15       		.byte	0x15
 2636 11cb B0       		.byte	0xb0
 2637 11cc 450A0000 		.4byte	0xa45
 2638 11d0 DF110000 		.4byte	0x11df
 2639 11d4 0C       		.uleb128 0xc
 2640 11d5 BF110000 		.4byte	0x11bf
 2641 11d9 0C       		.uleb128 0xc
 2642 11da CE000000 		.4byte	0xce
 2643 11de 00       		.byte	0
 2644 11df 2D       		.uleb128 0x2d
 2645 11e0 13000000 		.4byte	.LASF251
 2646 11e4 15       		.byte	0x15
 2647 11e5 B1       		.byte	0xb1
 2648 11e6 450A0000 		.4byte	0xa45
 2649 11ea F9110000 		.4byte	0x11f9
 2650 11ee 0C       		.uleb128 0xc
 2651 11ef BF110000 		.4byte	0x11bf
 2652 11f3 0C       		.uleb128 0xc
 2653 11f4 35090000 		.4byte	0x935
 2654 11f8 00       		.byte	0
 2655 11f9 2D       		.uleb128 0x2d
 2656 11fa 160A0000 		.4byte	.LASF252
 2657 11fe 15       		.byte	0x15
 2658 11ff B2       		.byte	0xb2
 2659 1200 450A0000 		.4byte	0xa45
 2660 1204 0E120000 		.4byte	0x120e
 2661 1208 0C       		.uleb128 0xc
 2662 1209 BF110000 		.4byte	0x11bf
 2663 120d 00       		.byte	0
 2664 120e 2D       		.uleb128 0x2d
 2665 120f B2060000 		.4byte	.LASF253
 2666 1213 15       		.byte	0x15
 2667 1214 B3       		.byte	0xb3
 2668 1215 450A0000 		.4byte	0xa45
 2669 1219 28120000 		.4byte	0x1228
 2670 121d 0C       		.uleb128 0xc
 2671 121e BF110000 		.4byte	0x11bf
 2672 1222 0C       		.uleb128 0xc
 2673 1223 CE000000 		.4byte	0xce
 2674 1227 00       		.byte	0
ARM GAS  /tmp/ccrpaMoh.s 			page 48


 2675 1228 2D       		.uleb128 0x2d
 2676 1229 51080000 		.4byte	.LASF254
 2677 122d 15       		.byte	0x15
 2678 122e B4       		.byte	0xb4
 2679 122f 450A0000 		.4byte	0xa45
 2680 1233 42120000 		.4byte	0x1242
 2681 1237 0C       		.uleb128 0xc
 2682 1238 BF110000 		.4byte	0x11bf
 2683 123c 0C       		.uleb128 0xc
 2684 123d 3B090000 		.4byte	0x93b
 2685 1241 00       		.byte	0
 2686 1242 2D       		.uleb128 0x2d
 2687 1243 55070000 		.4byte	.LASF255
 2688 1247 15       		.byte	0x15
 2689 1248 B5       		.byte	0xb5
 2690 1249 450A0000 		.4byte	0xa45
 2691 124d 57120000 		.4byte	0x1257
 2692 1251 0C       		.uleb128 0xc
 2693 1252 BF110000 		.4byte	0x11bf
 2694 1256 00       		.byte	0
 2695 1257 2E       		.uleb128 0x2e
 2696 1258 47030000 		.4byte	.LASF260
 2697 125c 11       		.byte	0x11
 2698 125d 78       		.byte	0x78
 2699 125e 6D120000 		.4byte	0x126d
 2700 1262 0C       		.uleb128 0xc
 2701 1263 6D120000 		.4byte	0x126d
 2702 1267 0C       		.uleb128 0xc
 2703 1268 73120000 		.4byte	0x1273
 2704 126c 00       		.byte	0
 2705 126d 09       		.uleb128 0x9
 2706 126e 04       		.byte	0x4
 2707 126f B00B0000 		.4byte	0xbb0
 2708 1273 09       		.uleb128 0x9
 2709 1274 04       		.byte	0x4
 2710 1275 370C0000 		.4byte	0xc37
 2711 1279 2D       		.uleb128 0x2d
 2712 127a F9010000 		.4byte	.LASF256
 2713 127e 11       		.byte	0x11
 2714 127f 88       		.byte	0x88
 2715 1280 CE000000 		.4byte	0xce
 2716 1284 8E120000 		.4byte	0x128e
 2717 1288 0C       		.uleb128 0xc
 2718 1289 8E120000 		.4byte	0x128e
 2719 128d 00       		.byte	0
 2720 128e 09       		.uleb128 0x9
 2721 128f 04       		.byte	0x4
 2722 1290 94120000 		.4byte	0x1294
 2723 1294 18       		.uleb128 0x18
 2724 1295 370C0000 		.4byte	0xc37
 2725 1299 00       		.byte	0
 2726              		.section	.debug_abbrev,"",%progbits
 2727              	.Ldebug_abbrev0:
 2728 0000 01       		.uleb128 0x1
 2729 0001 11       		.uleb128 0x11
 2730 0002 01       		.byte	0x1
 2731 0003 25       		.uleb128 0x25
ARM GAS  /tmp/ccrpaMoh.s 			page 49


 2732 0004 0E       		.uleb128 0xe
 2733 0005 13       		.uleb128 0x13
 2734 0006 0B       		.uleb128 0xb
 2735 0007 03       		.uleb128 0x3
 2736 0008 0E       		.uleb128 0xe
 2737 0009 1B       		.uleb128 0x1b
 2738 000a 0E       		.uleb128 0xe
 2739 000b 55       		.uleb128 0x55
 2740 000c 17       		.uleb128 0x17
 2741 000d 11       		.uleb128 0x11
 2742 000e 01       		.uleb128 0x1
 2743 000f 10       		.uleb128 0x10
 2744 0010 17       		.uleb128 0x17
 2745 0011 00       		.byte	0
 2746 0012 00       		.byte	0
 2747 0013 02       		.uleb128 0x2
 2748 0014 24       		.uleb128 0x24
 2749 0015 00       		.byte	0
 2750 0016 0B       		.uleb128 0xb
 2751 0017 0B       		.uleb128 0xb
 2752 0018 3E       		.uleb128 0x3e
 2753 0019 0B       		.uleb128 0xb
 2754 001a 03       		.uleb128 0x3
 2755 001b 08       		.uleb128 0x8
 2756 001c 00       		.byte	0
 2757 001d 00       		.byte	0
 2758 001e 03       		.uleb128 0x3
 2759 001f 16       		.uleb128 0x16
 2760 0020 00       		.byte	0
 2761 0021 03       		.uleb128 0x3
 2762 0022 0E       		.uleb128 0xe
 2763 0023 3A       		.uleb128 0x3a
 2764 0024 0B       		.uleb128 0xb
 2765 0025 3B       		.uleb128 0x3b
 2766 0026 0B       		.uleb128 0xb
 2767 0027 49       		.uleb128 0x49
 2768 0028 13       		.uleb128 0x13
 2769 0029 00       		.byte	0
 2770 002a 00       		.byte	0
 2771 002b 04       		.uleb128 0x4
 2772 002c 24       		.uleb128 0x24
 2773 002d 00       		.byte	0
 2774 002e 0B       		.uleb128 0xb
 2775 002f 0B       		.uleb128 0xb
 2776 0030 3E       		.uleb128 0x3e
 2777 0031 0B       		.uleb128 0xb
 2778 0032 03       		.uleb128 0x3
 2779 0033 0E       		.uleb128 0xe
 2780 0034 00       		.byte	0
 2781 0035 00       		.byte	0
 2782 0036 05       		.uleb128 0x5
 2783 0037 13       		.uleb128 0x13
 2784 0038 01       		.byte	0x1
 2785 0039 03       		.uleb128 0x3
 2786 003a 0E       		.uleb128 0xe
 2787 003b 0B       		.uleb128 0xb
 2788 003c 0B       		.uleb128 0xb
ARM GAS  /tmp/ccrpaMoh.s 			page 50


 2789 003d 3A       		.uleb128 0x3a
 2790 003e 0B       		.uleb128 0xb
 2791 003f 3B       		.uleb128 0x3b
 2792 0040 0B       		.uleb128 0xb
 2793 0041 01       		.uleb128 0x1
 2794 0042 13       		.uleb128 0x13
 2795 0043 00       		.byte	0
 2796 0044 00       		.byte	0
 2797 0045 06       		.uleb128 0x6
 2798 0046 0D       		.uleb128 0xd
 2799 0047 00       		.byte	0
 2800 0048 03       		.uleb128 0x3
 2801 0049 0E       		.uleb128 0xe
 2802 004a 3A       		.uleb128 0x3a
 2803 004b 0B       		.uleb128 0xb
 2804 004c 3B       		.uleb128 0x3b
 2805 004d 0B       		.uleb128 0xb
 2806 004e 49       		.uleb128 0x49
 2807 004f 13       		.uleb128 0x13
 2808 0050 38       		.uleb128 0x38
 2809 0051 0B       		.uleb128 0xb
 2810 0052 00       		.byte	0
 2811 0053 00       		.byte	0
 2812 0054 07       		.uleb128 0x7
 2813 0055 0D       		.uleb128 0xd
 2814 0056 00       		.byte	0
 2815 0057 03       		.uleb128 0x3
 2816 0058 08       		.uleb128 0x8
 2817 0059 3A       		.uleb128 0x3a
 2818 005a 0B       		.uleb128 0xb
 2819 005b 3B       		.uleb128 0x3b
 2820 005c 05       		.uleb128 0x5
 2821 005d 49       		.uleb128 0x49
 2822 005e 13       		.uleb128 0x13
 2823 005f 38       		.uleb128 0x38
 2824 0060 0B       		.uleb128 0xb
 2825 0061 00       		.byte	0
 2826 0062 00       		.byte	0
 2827 0063 08       		.uleb128 0x8
 2828 0064 0D       		.uleb128 0xd
 2829 0065 00       		.byte	0
 2830 0066 03       		.uleb128 0x3
 2831 0067 0E       		.uleb128 0xe
 2832 0068 3A       		.uleb128 0x3a
 2833 0069 0B       		.uleb128 0xb
 2834 006a 3B       		.uleb128 0x3b
 2835 006b 05       		.uleb128 0x5
 2836 006c 49       		.uleb128 0x49
 2837 006d 13       		.uleb128 0x13
 2838 006e 38       		.uleb128 0x38
 2839 006f 0B       		.uleb128 0xb
 2840 0070 00       		.byte	0
 2841 0071 00       		.byte	0
 2842 0072 09       		.uleb128 0x9
 2843 0073 0F       		.uleb128 0xf
 2844 0074 00       		.byte	0
 2845 0075 0B       		.uleb128 0xb
ARM GAS  /tmp/ccrpaMoh.s 			page 51


 2846 0076 0B       		.uleb128 0xb
 2847 0077 49       		.uleb128 0x49
 2848 0078 13       		.uleb128 0x13
 2849 0079 00       		.byte	0
 2850 007a 00       		.byte	0
 2851 007b 0A       		.uleb128 0xa
 2852 007c 13       		.uleb128 0x13
 2853 007d 01       		.byte	0x1
 2854 007e 03       		.uleb128 0x3
 2855 007f 0E       		.uleb128 0xe
 2856 0080 0B       		.uleb128 0xb
 2857 0081 0B       		.uleb128 0xb
 2858 0082 3A       		.uleb128 0x3a
 2859 0083 0B       		.uleb128 0xb
 2860 0084 3B       		.uleb128 0x3b
 2861 0085 05       		.uleb128 0x5
 2862 0086 01       		.uleb128 0x1
 2863 0087 13       		.uleb128 0x13
 2864 0088 00       		.byte	0
 2865 0089 00       		.byte	0
 2866 008a 0B       		.uleb128 0xb
 2867 008b 15       		.uleb128 0x15
 2868 008c 01       		.byte	0x1
 2869 008d 27       		.uleb128 0x27
 2870 008e 19       		.uleb128 0x19
 2871 008f 01       		.uleb128 0x1
 2872 0090 13       		.uleb128 0x13
 2873 0091 00       		.byte	0
 2874 0092 00       		.byte	0
 2875 0093 0C       		.uleb128 0xc
 2876 0094 05       		.uleb128 0x5
 2877 0095 00       		.byte	0
 2878 0096 49       		.uleb128 0x49
 2879 0097 13       		.uleb128 0x13
 2880 0098 00       		.byte	0
 2881 0099 00       		.byte	0
 2882 009a 0D       		.uleb128 0xd
 2883 009b 0F       		.uleb128 0xf
 2884 009c 00       		.byte	0
 2885 009d 0B       		.uleb128 0xb
 2886 009e 0B       		.uleb128 0xb
 2887 009f 00       		.byte	0
 2888 00a0 00       		.byte	0
 2889 00a1 0E       		.uleb128 0xe
 2890 00a2 13       		.uleb128 0x13
 2891 00a3 01       		.byte	0x1
 2892 00a4 03       		.uleb128 0x3
 2893 00a5 0E       		.uleb128 0xe
 2894 00a6 0B       		.uleb128 0xb
 2895 00a7 05       		.uleb128 0x5
 2896 00a8 3A       		.uleb128 0x3a
 2897 00a9 0B       		.uleb128 0xb
 2898 00aa 3B       		.uleb128 0x3b
 2899 00ab 05       		.uleb128 0x5
 2900 00ac 01       		.uleb128 0x1
 2901 00ad 13       		.uleb128 0x13
 2902 00ae 00       		.byte	0
ARM GAS  /tmp/ccrpaMoh.s 			page 52


 2903 00af 00       		.byte	0
 2904 00b0 0F       		.uleb128 0xf
 2905 00b1 35       		.uleb128 0x35
 2906 00b2 00       		.byte	0
 2907 00b3 49       		.uleb128 0x49
 2908 00b4 13       		.uleb128 0x13
 2909 00b5 00       		.byte	0
 2910 00b6 00       		.byte	0
 2911 00b7 10       		.uleb128 0x10
 2912 00b8 01       		.uleb128 0x1
 2913 00b9 01       		.byte	0x1
 2914 00ba 49       		.uleb128 0x49
 2915 00bb 13       		.uleb128 0x13
 2916 00bc 01       		.uleb128 0x1
 2917 00bd 13       		.uleb128 0x13
 2918 00be 00       		.byte	0
 2919 00bf 00       		.byte	0
 2920 00c0 11       		.uleb128 0x11
 2921 00c1 21       		.uleb128 0x21
 2922 00c2 00       		.byte	0
 2923 00c3 49       		.uleb128 0x49
 2924 00c4 13       		.uleb128 0x13
 2925 00c5 2F       		.uleb128 0x2f
 2926 00c6 0B       		.uleb128 0xb
 2927 00c7 00       		.byte	0
 2928 00c8 00       		.byte	0
 2929 00c9 12       		.uleb128 0x12
 2930 00ca 13       		.uleb128 0x13
 2931 00cb 01       		.byte	0x1
 2932 00cc 0B       		.uleb128 0xb
 2933 00cd 0B       		.uleb128 0xb
 2934 00ce 3A       		.uleb128 0x3a
 2935 00cf 0B       		.uleb128 0xb
 2936 00d0 3B       		.uleb128 0x3b
 2937 00d1 05       		.uleb128 0x5
 2938 00d2 01       		.uleb128 0x1
 2939 00d3 13       		.uleb128 0x13
 2940 00d4 00       		.byte	0
 2941 00d5 00       		.byte	0
 2942 00d6 13       		.uleb128 0x13
 2943 00d7 16       		.uleb128 0x16
 2944 00d8 00       		.byte	0
 2945 00d9 03       		.uleb128 0x3
 2946 00da 0E       		.uleb128 0xe
 2947 00db 3A       		.uleb128 0x3a
 2948 00dc 0B       		.uleb128 0xb
 2949 00dd 3B       		.uleb128 0x3b
 2950 00de 05       		.uleb128 0x5
 2951 00df 49       		.uleb128 0x49
 2952 00e0 13       		.uleb128 0x13
 2953 00e1 00       		.byte	0
 2954 00e2 00       		.byte	0
 2955 00e3 14       		.uleb128 0x14
 2956 00e4 0D       		.uleb128 0xd
 2957 00e5 00       		.byte	0
 2958 00e6 03       		.uleb128 0x3
 2959 00e7 08       		.uleb128 0x8
ARM GAS  /tmp/ccrpaMoh.s 			page 53


 2960 00e8 3A       		.uleb128 0x3a
 2961 00e9 0B       		.uleb128 0xb
 2962 00ea 3B       		.uleb128 0x3b
 2963 00eb 0B       		.uleb128 0xb
 2964 00ec 49       		.uleb128 0x49
 2965 00ed 13       		.uleb128 0x13
 2966 00ee 38       		.uleb128 0x38
 2967 00ef 0B       		.uleb128 0xb
 2968 00f0 00       		.byte	0
 2969 00f1 00       		.byte	0
 2970 00f2 15       		.uleb128 0x15
 2971 00f3 13       		.uleb128 0x13
 2972 00f4 01       		.byte	0x1
 2973 00f5 0B       		.uleb128 0xb
 2974 00f6 0B       		.uleb128 0xb
 2975 00f7 3A       		.uleb128 0x3a
 2976 00f8 0B       		.uleb128 0xb
 2977 00f9 3B       		.uleb128 0x3b
 2978 00fa 0B       		.uleb128 0xb
 2979 00fb 01       		.uleb128 0x1
 2980 00fc 13       		.uleb128 0x13
 2981 00fd 00       		.byte	0
 2982 00fe 00       		.byte	0
 2983 00ff 16       		.uleb128 0x16
 2984 0100 17       		.uleb128 0x17
 2985 0101 01       		.byte	0x1
 2986 0102 0B       		.uleb128 0xb
 2987 0103 0B       		.uleb128 0xb
 2988 0104 3A       		.uleb128 0x3a
 2989 0105 0B       		.uleb128 0xb
 2990 0106 3B       		.uleb128 0x3b
 2991 0107 0B       		.uleb128 0xb
 2992 0108 01       		.uleb128 0x1
 2993 0109 13       		.uleb128 0x13
 2994 010a 00       		.byte	0
 2995 010b 00       		.byte	0
 2996 010c 17       		.uleb128 0x17
 2997 010d 0D       		.uleb128 0xd
 2998 010e 00       		.byte	0
 2999 010f 03       		.uleb128 0x3
 3000 0110 0E       		.uleb128 0xe
 3001 0111 3A       		.uleb128 0x3a
 3002 0112 0B       		.uleb128 0xb
 3003 0113 3B       		.uleb128 0x3b
 3004 0114 05       		.uleb128 0x5
 3005 0115 49       		.uleb128 0x49
 3006 0116 13       		.uleb128 0x13
 3007 0117 00       		.byte	0
 3008 0118 00       		.byte	0
 3009 0119 18       		.uleb128 0x18
 3010 011a 26       		.uleb128 0x26
 3011 011b 00       		.byte	0
 3012 011c 49       		.uleb128 0x49
 3013 011d 13       		.uleb128 0x13
 3014 011e 00       		.byte	0
 3015 011f 00       		.byte	0
 3016 0120 19       		.uleb128 0x19
ARM GAS  /tmp/ccrpaMoh.s 			page 54


 3017 0121 04       		.uleb128 0x4
 3018 0122 01       		.byte	0x1
 3019 0123 0B       		.uleb128 0xb
 3020 0124 0B       		.uleb128 0xb
 3021 0125 3A       		.uleb128 0x3a
 3022 0126 0B       		.uleb128 0xb
 3023 0127 3B       		.uleb128 0x3b
 3024 0128 0B       		.uleb128 0xb
 3025 0129 01       		.uleb128 0x1
 3026 012a 13       		.uleb128 0x13
 3027 012b 00       		.byte	0
 3028 012c 00       		.byte	0
 3029 012d 1A       		.uleb128 0x1a
 3030 012e 28       		.uleb128 0x28
 3031 012f 00       		.byte	0
 3032 0130 03       		.uleb128 0x3
 3033 0131 0E       		.uleb128 0xe
 3034 0132 1C       		.uleb128 0x1c
 3035 0133 0D       		.uleb128 0xd
 3036 0134 00       		.byte	0
 3037 0135 00       		.byte	0
 3038 0136 1B       		.uleb128 0x1b
 3039 0137 15       		.uleb128 0x15
 3040 0138 01       		.byte	0x1
 3041 0139 27       		.uleb128 0x27
 3042 013a 19       		.uleb128 0x19
 3043 013b 49       		.uleb128 0x49
 3044 013c 13       		.uleb128 0x13
 3045 013d 01       		.uleb128 0x1
 3046 013e 13       		.uleb128 0x13
 3047 013f 00       		.byte	0
 3048 0140 00       		.byte	0
 3049 0141 1C       		.uleb128 0x1c
 3050 0142 0D       		.uleb128 0xd
 3051 0143 00       		.byte	0
 3052 0144 03       		.uleb128 0x3
 3053 0145 08       		.uleb128 0x8
 3054 0146 3A       		.uleb128 0x3a
 3055 0147 0B       		.uleb128 0xb
 3056 0148 3B       		.uleb128 0x3b
 3057 0149 0B       		.uleb128 0xb
 3058 014a 49       		.uleb128 0x49
 3059 014b 13       		.uleb128 0x13
 3060 014c 00       		.byte	0
 3061 014d 00       		.byte	0
 3062 014e 1D       		.uleb128 0x1d
 3063 014f 0D       		.uleb128 0xd
 3064 0150 00       		.byte	0
 3065 0151 03       		.uleb128 0x3
 3066 0152 0E       		.uleb128 0xe
 3067 0153 3A       		.uleb128 0x3a
 3068 0154 0B       		.uleb128 0xb
 3069 0155 3B       		.uleb128 0x3b
 3070 0156 0B       		.uleb128 0xb
 3071 0157 49       		.uleb128 0x49
 3072 0158 13       		.uleb128 0x13
 3073 0159 0B       		.uleb128 0xb
ARM GAS  /tmp/ccrpaMoh.s 			page 55


 3074 015a 0B       		.uleb128 0xb
 3075 015b 0D       		.uleb128 0xd
 3076 015c 0B       		.uleb128 0xb
 3077 015d 0C       		.uleb128 0xc
 3078 015e 0B       		.uleb128 0xb
 3079 015f 38       		.uleb128 0x38
 3080 0160 0B       		.uleb128 0xb
 3081 0161 00       		.byte	0
 3082 0162 00       		.byte	0
 3083 0163 1E       		.uleb128 0x1e
 3084 0164 0D       		.uleb128 0xd
 3085 0165 00       		.byte	0
 3086 0166 03       		.uleb128 0x3
 3087 0167 08       		.uleb128 0x8
 3088 0168 3A       		.uleb128 0x3a
 3089 0169 0B       		.uleb128 0xb
 3090 016a 3B       		.uleb128 0x3b
 3091 016b 0B       		.uleb128 0xb
 3092 016c 49       		.uleb128 0x49
 3093 016d 13       		.uleb128 0x13
 3094 016e 0B       		.uleb128 0xb
 3095 016f 0B       		.uleb128 0xb
 3096 0170 0D       		.uleb128 0xd
 3097 0171 0B       		.uleb128 0xb
 3098 0172 0C       		.uleb128 0xc
 3099 0173 0B       		.uleb128 0xb
 3100 0174 38       		.uleb128 0x38
 3101 0175 0B       		.uleb128 0xb
 3102 0176 00       		.byte	0
 3103 0177 00       		.byte	0
 3104 0178 1F       		.uleb128 0x1f
 3105 0179 2E       		.uleb128 0x2e
 3106 017a 01       		.byte	0x1
 3107 017b 3F       		.uleb128 0x3f
 3108 017c 19       		.uleb128 0x19
 3109 017d 03       		.uleb128 0x3
 3110 017e 0E       		.uleb128 0xe
 3111 017f 3A       		.uleb128 0x3a
 3112 0180 0B       		.uleb128 0xb
 3113 0181 3B       		.uleb128 0x3b
 3114 0182 0B       		.uleb128 0xb
 3115 0183 27       		.uleb128 0x27
 3116 0184 19       		.uleb128 0x19
 3117 0185 49       		.uleb128 0x49
 3118 0186 13       		.uleb128 0x13
 3119 0187 11       		.uleb128 0x11
 3120 0188 01       		.uleb128 0x1
 3121 0189 12       		.uleb128 0x12
 3122 018a 06       		.uleb128 0x6
 3123 018b 40       		.uleb128 0x40
 3124 018c 18       		.uleb128 0x18
 3125 018d 9742     		.uleb128 0x2117
 3126 018f 19       		.uleb128 0x19
 3127 0190 01       		.uleb128 0x1
 3128 0191 13       		.uleb128 0x13
 3129 0192 00       		.byte	0
 3130 0193 00       		.byte	0
ARM GAS  /tmp/ccrpaMoh.s 			page 56


 3131 0194 20       		.uleb128 0x20
 3132 0195 05       		.uleb128 0x5
 3133 0196 00       		.byte	0
 3134 0197 03       		.uleb128 0x3
 3135 0198 0E       		.uleb128 0xe
 3136 0199 3A       		.uleb128 0x3a
 3137 019a 0B       		.uleb128 0xb
 3138 019b 3B       		.uleb128 0x3b
 3139 019c 0B       		.uleb128 0xb
 3140 019d 49       		.uleb128 0x49
 3141 019e 13       		.uleb128 0x13
 3142 019f 02       		.uleb128 0x2
 3143 01a0 17       		.uleb128 0x17
 3144 01a1 00       		.byte	0
 3145 01a2 00       		.byte	0
 3146 01a3 21       		.uleb128 0x21
 3147 01a4 34       		.uleb128 0x34
 3148 01a5 00       		.byte	0
 3149 01a6 03       		.uleb128 0x3
 3150 01a7 0E       		.uleb128 0xe
 3151 01a8 3A       		.uleb128 0x3a
 3152 01a9 0B       		.uleb128 0xb
 3153 01aa 3B       		.uleb128 0x3b
 3154 01ab 0B       		.uleb128 0xb
 3155 01ac 49       		.uleb128 0x49
 3156 01ad 13       		.uleb128 0x13
 3157 01ae 02       		.uleb128 0x2
 3158 01af 17       		.uleb128 0x17
 3159 01b0 00       		.byte	0
 3160 01b1 00       		.byte	0
 3161 01b2 22       		.uleb128 0x22
 3162 01b3 898201   		.uleb128 0x4109
 3163 01b6 00       		.byte	0
 3164 01b7 11       		.uleb128 0x11
 3165 01b8 01       		.uleb128 0x1
 3166 01b9 31       		.uleb128 0x31
 3167 01ba 13       		.uleb128 0x13
 3168 01bb 00       		.byte	0
 3169 01bc 00       		.byte	0
 3170 01bd 23       		.uleb128 0x23
 3171 01be 898201   		.uleb128 0x4109
 3172 01c1 01       		.byte	0x1
 3173 01c2 11       		.uleb128 0x11
 3174 01c3 01       		.uleb128 0x1
 3175 01c4 31       		.uleb128 0x31
 3176 01c5 13       		.uleb128 0x13
 3177 01c6 01       		.uleb128 0x1
 3178 01c7 13       		.uleb128 0x13
 3179 01c8 00       		.byte	0
 3180 01c9 00       		.byte	0
 3181 01ca 24       		.uleb128 0x24
 3182 01cb 8A8201   		.uleb128 0x410a
 3183 01ce 00       		.byte	0
 3184 01cf 02       		.uleb128 0x2
 3185 01d0 18       		.uleb128 0x18
 3186 01d1 9142     		.uleb128 0x2111
 3187 01d3 18       		.uleb128 0x18
ARM GAS  /tmp/ccrpaMoh.s 			page 57


 3188 01d4 00       		.byte	0
 3189 01d5 00       		.byte	0
 3190 01d6 25       		.uleb128 0x25
 3191 01d7 898201   		.uleb128 0x4109
 3192 01da 00       		.byte	0
 3193 01db 11       		.uleb128 0x11
 3194 01dc 01       		.uleb128 0x1
 3195 01dd 9542     		.uleb128 0x2115
 3196 01df 19       		.uleb128 0x19
 3197 01e0 31       		.uleb128 0x31
 3198 01e1 13       		.uleb128 0x13
 3199 01e2 00       		.byte	0
 3200 01e3 00       		.byte	0
 3201 01e4 26       		.uleb128 0x26
 3202 01e5 05       		.uleb128 0x5
 3203 01e6 00       		.byte	0
 3204 01e7 03       		.uleb128 0x3
 3205 01e8 08       		.uleb128 0x8
 3206 01e9 3A       		.uleb128 0x3a
 3207 01ea 0B       		.uleb128 0xb
 3208 01eb 3B       		.uleb128 0x3b
 3209 01ec 0B       		.uleb128 0xb
 3210 01ed 49       		.uleb128 0x49
 3211 01ee 13       		.uleb128 0x13
 3212 01ef 02       		.uleb128 0x2
 3213 01f0 18       		.uleb128 0x18
 3214 01f1 00       		.byte	0
 3215 01f2 00       		.byte	0
 3216 01f3 27       		.uleb128 0x27
 3217 01f4 05       		.uleb128 0x5
 3218 01f5 00       		.byte	0
 3219 01f6 03       		.uleb128 0x3
 3220 01f7 0E       		.uleb128 0xe
 3221 01f8 3A       		.uleb128 0x3a
 3222 01f9 0B       		.uleb128 0xb
 3223 01fa 3B       		.uleb128 0x3b
 3224 01fb 0B       		.uleb128 0xb
 3225 01fc 49       		.uleb128 0x49
 3226 01fd 13       		.uleb128 0x13
 3227 01fe 02       		.uleb128 0x2
 3228 01ff 18       		.uleb128 0x18
 3229 0200 00       		.byte	0
 3230 0201 00       		.byte	0
 3231 0202 28       		.uleb128 0x28
 3232 0203 34       		.uleb128 0x34
 3233 0204 00       		.byte	0
 3234 0205 03       		.uleb128 0x3
 3235 0206 0E       		.uleb128 0xe
 3236 0207 3A       		.uleb128 0x3a
 3237 0208 0B       		.uleb128 0xb
 3238 0209 3B       		.uleb128 0x3b
 3239 020a 0B       		.uleb128 0xb
 3240 020b 49       		.uleb128 0x49
 3241 020c 13       		.uleb128 0x13
 3242 020d 02       		.uleb128 0x2
 3243 020e 18       		.uleb128 0x18
 3244 020f 00       		.byte	0
ARM GAS  /tmp/ccrpaMoh.s 			page 58


 3245 0210 00       		.byte	0
 3246 0211 29       		.uleb128 0x29
 3247 0212 898201   		.uleb128 0x4109
 3248 0215 01       		.byte	0x1
 3249 0216 11       		.uleb128 0x11
 3250 0217 01       		.uleb128 0x1
 3251 0218 31       		.uleb128 0x31
 3252 0219 13       		.uleb128 0x13
 3253 021a 00       		.byte	0
 3254 021b 00       		.byte	0
 3255 021c 2A       		.uleb128 0x2a
 3256 021d 34       		.uleb128 0x34
 3257 021e 00       		.byte	0
 3258 021f 03       		.uleb128 0x3
 3259 0220 0E       		.uleb128 0xe
 3260 0221 3A       		.uleb128 0x3a
 3261 0222 0B       		.uleb128 0xb
 3262 0223 3B       		.uleb128 0x3b
 3263 0224 05       		.uleb128 0x5
 3264 0225 49       		.uleb128 0x49
 3265 0226 13       		.uleb128 0x13
 3266 0227 3F       		.uleb128 0x3f
 3267 0228 19       		.uleb128 0x19
 3268 0229 3C       		.uleb128 0x3c
 3269 022a 19       		.uleb128 0x19
 3270 022b 00       		.byte	0
 3271 022c 00       		.byte	0
 3272 022d 2B       		.uleb128 0x2b
 3273 022e 34       		.uleb128 0x34
 3274 022f 00       		.byte	0
 3275 0230 03       		.uleb128 0x3
 3276 0231 08       		.uleb128 0x8
 3277 0232 3A       		.uleb128 0x3a
 3278 0233 0B       		.uleb128 0xb
 3279 0234 3B       		.uleb128 0x3b
 3280 0235 05       		.uleb128 0x5
 3281 0236 49       		.uleb128 0x49
 3282 0237 13       		.uleb128 0x13
 3283 0238 3F       		.uleb128 0x3f
 3284 0239 19       		.uleb128 0x19
 3285 023a 3C       		.uleb128 0x3c
 3286 023b 19       		.uleb128 0x19
 3287 023c 00       		.byte	0
 3288 023d 00       		.byte	0
 3289 023e 2C       		.uleb128 0x2c
 3290 023f 34       		.uleb128 0x34
 3291 0240 00       		.byte	0
 3292 0241 03       		.uleb128 0x3
 3293 0242 0E       		.uleb128 0xe
 3294 0243 3A       		.uleb128 0x3a
 3295 0244 0B       		.uleb128 0xb
 3296 0245 3B       		.uleb128 0x3b
 3297 0246 0B       		.uleb128 0xb
 3298 0247 49       		.uleb128 0x49
 3299 0248 13       		.uleb128 0x13
 3300 0249 3F       		.uleb128 0x3f
 3301 024a 19       		.uleb128 0x19
ARM GAS  /tmp/ccrpaMoh.s 			page 59


 3302 024b 3C       		.uleb128 0x3c
 3303 024c 19       		.uleb128 0x19
 3304 024d 00       		.byte	0
 3305 024e 00       		.byte	0
 3306 024f 2D       		.uleb128 0x2d
 3307 0250 2E       		.uleb128 0x2e
 3308 0251 01       		.byte	0x1
 3309 0252 3F       		.uleb128 0x3f
 3310 0253 19       		.uleb128 0x19
 3311 0254 03       		.uleb128 0x3
 3312 0255 0E       		.uleb128 0xe
 3313 0256 3A       		.uleb128 0x3a
 3314 0257 0B       		.uleb128 0xb
 3315 0258 3B       		.uleb128 0x3b
 3316 0259 0B       		.uleb128 0xb
 3317 025a 27       		.uleb128 0x27
 3318 025b 19       		.uleb128 0x19
 3319 025c 49       		.uleb128 0x49
 3320 025d 13       		.uleb128 0x13
 3321 025e 3C       		.uleb128 0x3c
 3322 025f 19       		.uleb128 0x19
 3323 0260 01       		.uleb128 0x1
 3324 0261 13       		.uleb128 0x13
 3325 0262 00       		.byte	0
 3326 0263 00       		.byte	0
 3327 0264 2E       		.uleb128 0x2e
 3328 0265 2E       		.uleb128 0x2e
 3329 0266 01       		.byte	0x1
 3330 0267 3F       		.uleb128 0x3f
 3331 0268 19       		.uleb128 0x19
 3332 0269 03       		.uleb128 0x3
 3333 026a 0E       		.uleb128 0xe
 3334 026b 3A       		.uleb128 0x3a
 3335 026c 0B       		.uleb128 0xb
 3336 026d 3B       		.uleb128 0x3b
 3337 026e 0B       		.uleb128 0xb
 3338 026f 27       		.uleb128 0x27
 3339 0270 19       		.uleb128 0x19
 3340 0271 3C       		.uleb128 0x3c
 3341 0272 19       		.uleb128 0x19
 3342 0273 01       		.uleb128 0x1
 3343 0274 13       		.uleb128 0x13
 3344 0275 00       		.byte	0
 3345 0276 00       		.byte	0
 3346 0277 00       		.byte	0
 3347              		.section	.debug_loc,"",%progbits
 3348              	.Ldebug_loc0:
 3349              	.LLST0:
 3350 0000 00000000 		.4byte	.LVL0
 3351 0004 06000000 		.4byte	.LVL2
 3352 0008 0100     		.2byte	0x1
 3353 000a 50       		.byte	0x50
 3354 000b 06000000 		.4byte	.LVL2
 3355 000f 1E000000 		.4byte	.LVL6
 3356 0013 0400     		.2byte	0x4
 3357 0015 F3       		.byte	0xf3
 3358 0016 01       		.uleb128 0x1
ARM GAS  /tmp/ccrpaMoh.s 			page 60


 3359 0017 50       		.byte	0x50
 3360 0018 9F       		.byte	0x9f
 3361 0019 1E000000 		.4byte	.LVL6
 3362 001d 22000000 		.4byte	.LVL7
 3363 0021 0100     		.2byte	0x1
 3364 0023 50       		.byte	0x50
 3365 0024 22000000 		.4byte	.LVL7
 3366 0028 28000000 		.4byte	.LFE272
 3367 002c 0400     		.2byte	0x4
 3368 002e F3       		.byte	0xf3
 3369 002f 01       		.uleb128 0x1
 3370 0030 50       		.byte	0x50
 3371 0031 9F       		.byte	0x9f
 3372 0032 00000000 		.4byte	0
 3373 0036 00000000 		.4byte	0
 3374              	.LLST1:
 3375 003a 04000000 		.4byte	.LVL1
 3376 003e 0E000000 		.4byte	.LVL3
 3377 0042 0200     		.2byte	0x2
 3378 0044 30       		.byte	0x30
 3379 0045 9F       		.byte	0x9f
 3380 0046 0E000000 		.4byte	.LVL3
 3381 004a 18000000 		.4byte	.LVL5
 3382 004e 0100     		.2byte	0x1
 3383 0050 54       		.byte	0x54
 3384 0051 00000000 		.4byte	0
 3385 0055 00000000 		.4byte	0
 3386              	.LLST2:
 3387 0059 00000000 		.4byte	.LVL8
 3388 005d 06000000 		.4byte	.LVL10
 3389 0061 0100     		.2byte	0x1
 3390 0063 50       		.byte	0x50
 3391 0064 06000000 		.4byte	.LVL10
 3392 0068 1E000000 		.4byte	.LVL14
 3393 006c 0400     		.2byte	0x4
 3394 006e F3       		.byte	0xf3
 3395 006f 01       		.uleb128 0x1
 3396 0070 50       		.byte	0x50
 3397 0071 9F       		.byte	0x9f
 3398 0072 1E000000 		.4byte	.LVL14
 3399 0076 22000000 		.4byte	.LVL15
 3400 007a 0100     		.2byte	0x1
 3401 007c 50       		.byte	0x50
 3402 007d 22000000 		.4byte	.LVL15
 3403 0081 28000000 		.4byte	.LFE273
 3404 0085 0400     		.2byte	0x4
 3405 0087 F3       		.byte	0xf3
 3406 0088 01       		.uleb128 0x1
 3407 0089 50       		.byte	0x50
 3408 008a 9F       		.byte	0x9f
 3409 008b 00000000 		.4byte	0
 3410 008f 00000000 		.4byte	0
 3411              	.LLST3:
 3412 0093 04000000 		.4byte	.LVL9
 3413 0097 0E000000 		.4byte	.LVL11
 3414 009b 0200     		.2byte	0x2
 3415 009d 30       		.byte	0x30
ARM GAS  /tmp/ccrpaMoh.s 			page 61


 3416 009e 9F       		.byte	0x9f
 3417 009f 0E000000 		.4byte	.LVL11
 3418 00a3 18000000 		.4byte	.LVL13
 3419 00a7 0100     		.2byte	0x1
 3420 00a9 54       		.byte	0x54
 3421 00aa 00000000 		.4byte	0
 3422 00ae 00000000 		.4byte	0
 3423              	.LLST4:
 3424 00b2 00000000 		.4byte	.LVL16
 3425 00b6 0A000000 		.4byte	.LVL17
 3426 00ba 0100     		.2byte	0x1
 3427 00bc 50       		.byte	0x50
 3428 00bd 0A000000 		.4byte	.LVL17
 3429 00c1 0E000000 		.4byte	.LVL18
 3430 00c5 0400     		.2byte	0x4
 3431 00c7 F3       		.byte	0xf3
 3432 00c8 01       		.uleb128 0x1
 3433 00c9 50       		.byte	0x50
 3434 00ca 9F       		.byte	0x9f
 3435 00cb 0E000000 		.4byte	.LVL18
 3436 00cf 10000000 		.4byte	.LVL19
 3437 00d3 0100     		.2byte	0x1
 3438 00d5 50       		.byte	0x50
 3439 00d6 10000000 		.4byte	.LVL19
 3440 00da 58000000 		.4byte	.LFE274
 3441 00de 0400     		.2byte	0x4
 3442 00e0 F3       		.byte	0xf3
 3443 00e1 01       		.uleb128 0x1
 3444 00e2 50       		.byte	0x50
 3445 00e3 9F       		.byte	0x9f
 3446 00e4 00000000 		.4byte	0
 3447 00e8 00000000 		.4byte	0
 3448              	.LLST5:
 3449 00ec 00000000 		.4byte	.LVL16
 3450 00f0 0A000000 		.4byte	.LVL17
 3451 00f4 0100     		.2byte	0x1
 3452 00f6 51       		.byte	0x51
 3453 00f7 0A000000 		.4byte	.LVL17
 3454 00fb 0E000000 		.4byte	.LVL18
 3455 00ff 0100     		.2byte	0x1
 3456 0101 54       		.byte	0x54
 3457 0102 0E000000 		.4byte	.LVL18
 3458 0106 12000000 		.4byte	.LVL20
 3459 010a 0100     		.2byte	0x1
 3460 010c 51       		.byte	0x51
 3461 010d 12000000 		.4byte	.LVL20
 3462 0111 4E000000 		.4byte	.LVL29
 3463 0115 0100     		.2byte	0x1
 3464 0117 54       		.byte	0x54
 3465 0118 00000000 		.4byte	0
 3466 011c 00000000 		.4byte	0
 3467              	.LLST6:
 3468 0120 00000000 		.4byte	.LVL16
 3469 0124 0A000000 		.4byte	.LVL17
 3470 0128 0100     		.2byte	0x1
 3471 012a 52       		.byte	0x52
 3472 012b 0A000000 		.4byte	.LVL17
ARM GAS  /tmp/ccrpaMoh.s 			page 62


 3473 012f 0E000000 		.4byte	.LVL18
 3474 0133 0400     		.2byte	0x4
 3475 0135 F3       		.byte	0xf3
 3476 0136 01       		.uleb128 0x1
 3477 0137 52       		.byte	0x52
 3478 0138 9F       		.byte	0x9f
 3479 0139 0E000000 		.4byte	.LVL18
 3480 013d 21000000 		.4byte	.LVL21-1
 3481 0141 0100     		.2byte	0x1
 3482 0143 52       		.byte	0x52
 3483 0144 21000000 		.4byte	.LVL21-1
 3484 0148 58000000 		.4byte	.LFE274
 3485 014c 0400     		.2byte	0x4
 3486 014e F3       		.byte	0xf3
 3487 014f 01       		.uleb128 0x1
 3488 0150 52       		.byte	0x52
 3489 0151 9F       		.byte	0x9f
 3490 0152 00000000 		.4byte	0
 3491 0156 00000000 		.4byte	0
 3492              	.LLST7:
 3493 015a 00000000 		.4byte	.LVL16
 3494 015e 0A000000 		.4byte	.LVL17
 3495 0162 0100     		.2byte	0x1
 3496 0164 53       		.byte	0x53
 3497 0165 0E000000 		.4byte	.LVL18
 3498 0169 21000000 		.4byte	.LVL21-1
 3499 016d 0100     		.2byte	0x1
 3500 016f 53       		.byte	0x53
 3501 0170 21000000 		.4byte	.LVL21-1
 3502 0174 26000000 		.4byte	.LVL22
 3503 0178 0400     		.2byte	0x4
 3504 017a F3       		.byte	0xf3
 3505 017b 01       		.uleb128 0x1
 3506 017c 53       		.byte	0x53
 3507 017d 9F       		.byte	0x9f
 3508 017e 26000000 		.4byte	.LVL22
 3509 0182 2A000000 		.4byte	.LVL23
 3510 0186 0100     		.2byte	0x1
 3511 0188 53       		.byte	0x53
 3512 0189 2A000000 		.4byte	.LVL23
 3513 018d 2C000000 		.4byte	.LVL24
 3514 0191 0300     		.2byte	0x3
 3515 0193 73       		.byte	0x73
 3516 0194 7F       		.sleb128 -1
 3517 0195 9F       		.byte	0x9f
 3518 0196 2C000000 		.4byte	.LVL24
 3519 019a 2E000000 		.4byte	.LVL25
 3520 019e 0600     		.2byte	0x6
 3521 01a0 91       		.byte	0x91
 3522 01a1 74       		.sleb128 -12
 3523 01a2 06       		.byte	0x6
 3524 01a3 31       		.byte	0x31
 3525 01a4 1C       		.byte	0x1c
 3526 01a5 9F       		.byte	0x9f
 3527 01a6 2E000000 		.4byte	.LVL25
 3528 01aa 37000000 		.4byte	.LVL26-1
 3529 01ae 0100     		.2byte	0x1
ARM GAS  /tmp/ccrpaMoh.s 			page 63


 3530 01b0 53       		.byte	0x53
 3531 01b1 3C000000 		.4byte	.LVL27
 3532 01b5 42000000 		.4byte	.LVL28
 3533 01b9 0600     		.2byte	0x6
 3534 01bb 91       		.byte	0x91
 3535 01bc 74       		.sleb128 -12
 3536 01bd 06       		.byte	0x6
 3537 01be 31       		.byte	0x31
 3538 01bf 1C       		.byte	0x1c
 3539 01c0 9F       		.byte	0x9f
 3540 01c1 00000000 		.4byte	0
 3541 01c5 00000000 		.4byte	0
 3542              	.LLST8:
 3543 01c9 00000000 		.4byte	.LVL31
 3544 01cd 0A000000 		.4byte	.LVL32
 3545 01d1 0100     		.2byte	0x1
 3546 01d3 50       		.byte	0x50
 3547 01d4 0A000000 		.4byte	.LVL32
 3548 01d8 0E000000 		.4byte	.LVL33
 3549 01dc 0400     		.2byte	0x4
 3550 01de F3       		.byte	0xf3
 3551 01df 01       		.uleb128 0x1
 3552 01e0 50       		.byte	0x50
 3553 01e1 9F       		.byte	0x9f
 3554 01e2 0E000000 		.4byte	.LVL33
 3555 01e6 18000000 		.4byte	.LVL35
 3556 01ea 0100     		.2byte	0x1
 3557 01ec 50       		.byte	0x50
 3558 01ed 18000000 		.4byte	.LVL35
 3559 01f1 68000000 		.4byte	.LFE275
 3560 01f5 0400     		.2byte	0x4
 3561 01f7 F3       		.byte	0xf3
 3562 01f8 01       		.uleb128 0x1
 3563 01f9 50       		.byte	0x50
 3564 01fa 9F       		.byte	0x9f
 3565 01fb 00000000 		.4byte	0
 3566 01ff 00000000 		.4byte	0
 3567              	.LLST9:
 3568 0203 00000000 		.4byte	.LVL31
 3569 0207 0A000000 		.4byte	.LVL32
 3570 020b 0100     		.2byte	0x1
 3571 020d 51       		.byte	0x51
 3572 020e 0A000000 		.4byte	.LVL32
 3573 0212 0E000000 		.4byte	.LVL33
 3574 0216 0100     		.2byte	0x1
 3575 0218 54       		.byte	0x54
 3576 0219 0E000000 		.4byte	.LVL33
 3577 021d 12000000 		.4byte	.LVL34
 3578 0221 0100     		.2byte	0x1
 3579 0223 51       		.byte	0x51
 3580 0224 12000000 		.4byte	.LVL34
 3581 0228 60000000 		.4byte	.LVL45
 3582 022c 0100     		.2byte	0x1
 3583 022e 54       		.byte	0x54
 3584 022f 00000000 		.4byte	0
 3585 0233 00000000 		.4byte	0
 3586              	.LLST10:
ARM GAS  /tmp/ccrpaMoh.s 			page 64


 3587 0237 00000000 		.4byte	.LVL31
 3588 023b 0A000000 		.4byte	.LVL32
 3589 023f 0100     		.2byte	0x1
 3590 0241 52       		.byte	0x52
 3591 0242 0A000000 		.4byte	.LVL32
 3592 0246 0E000000 		.4byte	.LVL33
 3593 024a 0400     		.2byte	0x4
 3594 024c F3       		.byte	0xf3
 3595 024d 01       		.uleb128 0x1
 3596 024e 52       		.byte	0x52
 3597 024f 9F       		.byte	0x9f
 3598 0250 0E000000 		.4byte	.LVL33
 3599 0254 23000000 		.4byte	.LVL36-1
 3600 0258 0100     		.2byte	0x1
 3601 025a 52       		.byte	0x52
 3602 025b 23000000 		.4byte	.LVL36-1
 3603 025f 68000000 		.4byte	.LFE275
 3604 0263 0400     		.2byte	0x4
 3605 0265 F3       		.byte	0xf3
 3606 0266 01       		.uleb128 0x1
 3607 0267 52       		.byte	0x52
 3608 0268 9F       		.byte	0x9f
 3609 0269 00000000 		.4byte	0
 3610 026d 00000000 		.4byte	0
 3611              	.LLST11:
 3612 0271 00000000 		.4byte	.LVL31
 3613 0275 0A000000 		.4byte	.LVL32
 3614 0279 0100     		.2byte	0x1
 3615 027b 53       		.byte	0x53
 3616 027c 0E000000 		.4byte	.LVL33
 3617 0280 23000000 		.4byte	.LVL36-1
 3618 0284 0100     		.2byte	0x1
 3619 0286 53       		.byte	0x53
 3620 0287 23000000 		.4byte	.LVL36-1
 3621 028b 38000000 		.4byte	.LVL38
 3622 028f 0400     		.2byte	0x4
 3623 0291 F3       		.byte	0xf3
 3624 0292 01       		.uleb128 0x1
 3625 0293 53       		.byte	0x53
 3626 0294 9F       		.byte	0x9f
 3627 0295 38000000 		.4byte	.LVL38
 3628 0299 3C000000 		.4byte	.LVL39
 3629 029d 0100     		.2byte	0x1
 3630 029f 53       		.byte	0x53
 3631 02a0 3C000000 		.4byte	.LVL39
 3632 02a4 3E000000 		.4byte	.LVL40
 3633 02a8 0300     		.2byte	0x3
 3634 02aa 73       		.byte	0x73
 3635 02ab 7F       		.sleb128 -1
 3636 02ac 9F       		.byte	0x9f
 3637 02ad 3E000000 		.4byte	.LVL40
 3638 02b1 40000000 		.4byte	.LVL41
 3639 02b5 0600     		.2byte	0x6
 3640 02b7 7D       		.byte	0x7d
 3641 02b8 00       		.sleb128 0
 3642 02b9 06       		.byte	0x6
 3643 02ba 31       		.byte	0x31
ARM GAS  /tmp/ccrpaMoh.s 			page 65


 3644 02bb 1C       		.byte	0x1c
 3645 02bc 9F       		.byte	0x9f
 3646 02bd 40000000 		.4byte	.LVL41
 3647 02c1 49000000 		.4byte	.LVL42-1
 3648 02c5 0100     		.2byte	0x1
 3649 02c7 53       		.byte	0x53
 3650 02c8 4E000000 		.4byte	.LVL43
 3651 02cc 54000000 		.4byte	.LVL44
 3652 02d0 0600     		.2byte	0x6
 3653 02d2 7D       		.byte	0x7d
 3654 02d3 00       		.sleb128 0
 3655 02d4 06       		.byte	0x6
 3656 02d5 31       		.byte	0x31
 3657 02d6 1C       		.byte	0x1c
 3658 02d7 9F       		.byte	0x9f
 3659 02d8 00000000 		.4byte	0
 3660 02dc 00000000 		.4byte	0
 3661              	.LLST12:
 3662 02e0 00000000 		.4byte	.LVL47
 3663 02e4 04000000 		.4byte	.LVL48
 3664 02e8 0100     		.2byte	0x1
 3665 02ea 50       		.byte	0x50
 3666 02eb 04000000 		.4byte	.LVL48
 3667 02ef 06000000 		.4byte	.LVL49
 3668 02f3 0400     		.2byte	0x4
 3669 02f5 F3       		.byte	0xf3
 3670 02f6 01       		.uleb128 0x1
 3671 02f7 50       		.byte	0x50
 3672 02f8 9F       		.byte	0x9f
 3673 02f9 06000000 		.4byte	.LVL49
 3674 02fd 16000000 		.4byte	.LVL50
 3675 0301 0100     		.2byte	0x1
 3676 0303 50       		.byte	0x50
 3677 0304 16000000 		.4byte	.LVL50
 3678 0308 18000000 		.4byte	.LFE276
 3679 030c 0400     		.2byte	0x4
 3680 030e F3       		.byte	0xf3
 3681 030f 01       		.uleb128 0x1
 3682 0310 50       		.byte	0x50
 3683 0311 9F       		.byte	0x9f
 3684 0312 00000000 		.4byte	0
 3685 0316 00000000 		.4byte	0
 3686              		.section	.debug_aranges,"",%progbits
 3687 0000 44000000 		.4byte	0x44
 3688 0004 0200     		.2byte	0x2
 3689 0006 00000000 		.4byte	.Ldebug_info0
 3690 000a 04       		.byte	0x4
 3691 000b 00       		.byte	0
 3692 000c 0000     		.2byte	0
 3693 000e 0000     		.2byte	0
 3694 0010 00000000 		.4byte	.LFB272
 3695 0014 28000000 		.4byte	.LFE272-.LFB272
 3696 0018 00000000 		.4byte	.LFB273
 3697 001c 28000000 		.4byte	.LFE273-.LFB273
 3698 0020 00000000 		.4byte	.LFB274
 3699 0024 58000000 		.4byte	.LFE274-.LFB274
 3700 0028 00000000 		.4byte	.LFB275
ARM GAS  /tmp/ccrpaMoh.s 			page 66


 3701 002c 68000000 		.4byte	.LFE275-.LFB275
 3702 0030 00000000 		.4byte	.LFB276
 3703 0034 18000000 		.4byte	.LFE276-.LFB276
 3704 0038 00000000 		.4byte	.LFB277
 3705 003c 1C000000 		.4byte	.LFE277-.LFB277
 3706 0040 00000000 		.4byte	0
 3707 0044 00000000 		.4byte	0
 3708              		.section	.debug_ranges,"",%progbits
 3709              	.Ldebug_ranges0:
 3710 0000 00000000 		.4byte	.LFB272
 3711 0004 28000000 		.4byte	.LFE272
 3712 0008 00000000 		.4byte	.LFB273
 3713 000c 28000000 		.4byte	.LFE273
 3714 0010 00000000 		.4byte	.LFB274
 3715 0014 58000000 		.4byte	.LFE274
 3716 0018 00000000 		.4byte	.LFB275
 3717 001c 68000000 		.4byte	.LFE275
 3718 0020 00000000 		.4byte	.LFB276
 3719 0024 18000000 		.4byte	.LFE276
 3720 0028 00000000 		.4byte	.LFB277
 3721 002c 1C000000 		.4byte	.LFE277
 3722 0030 00000000 		.4byte	0
 3723 0034 00000000 		.4byte	0
 3724              		.section	.debug_line,"",%progbits
 3725              	.Ldebug_line0:
 3726 0000 10050000 		.section	.debug_str,"MS",%progbits,1
 3726      02004904 
 3726      00000201 
 3726      FB0E0D00 
 3726      01010101 
 3727              	.LASF153:
 3728 0000 73746D33 		.ascii	"stm32_dma_stream_t\000"
 3728      325F646D 
 3728      615F7374 
 3728      7265616D 
 3728      5F7400
 3729              	.LASF251:
 3730 0013 6D6D6353 		.ascii	"mmcSequentialRead\000"
 3730      65717565 
 3730      6E746961 
 3730      6C526561 
 3730      6400
 3731              	.LASF2:
 3732 0025 73697A65 		.ascii	"size_t\000"
 3732      5F7400
 3733              	.LASF80:
 3734 002c 73697A65 		.ascii	"sizetype\000"
 3734      74797065 
 3734      00
 3735              	.LASF93:
 3736 0035 54535452 		.ascii	"TSTR\000"
 3736      00
 3737              	.LASF135:
 3738 003a 77747365 		.ascii	"wtsemp\000"
 3738      6D7000
 3739              	.LASF28:
 3740 0041 73797374 		.ascii	"systime_t\000"
ARM GAS  /tmp/ccrpaMoh.s 			page 67


 3740      696D655F 
 3740      7400
 3741              	.LASF33:
 3742 004b 705F6374 		.ascii	"p_ctx\000"
 3742      7800
 3743              	.LASF219:
 3744 0051 6765745F 		.ascii	"get_info\000"
 3744      696E666F 
 3744      00
 3745              	.LASF24:
 3746 005a 74707269 		.ascii	"tprio_t\000"
 3746      6F5F7400 
 3747              	.LASF103:
 3748 0062 424B5032 		.ascii	"BKP2R\000"
 3748      5200
 3749              	.LASF41:
 3750 0068 705F6D73 		.ascii	"p_msgqueue\000"
 3750      67717565 
 3750      756500
 3751              	.LASF56:
 3752 0073 725F6374 		.ascii	"r_ctx\000"
 3752      7800
 3753              	.LASF17:
 3754 0079 696E7433 		.ascii	"int32_t\000"
 3754      325F7400 
 3755              	.LASF163:
 3756 0081 626C6B73 		.ascii	"blkstate_t\000"
 3756      74617465 
 3756      5F7400
 3757              	.LASF60:
 3758 008c 76746675 		.ascii	"vtfunc_t\000"
 3758      6E635F74 
 3758      00
 3759              	.LASF69:
 3760 0095 63685F76 		.ascii	"ch_virtual_timers_list\000"
 3760      69727475 
 3760      616C5F74 
 3760      696D6572 
 3760      735F6C69 
 3761              	.LASF204:
 3762 00ac 7373706F 		.ascii	"ssport\000"
 3762      727400
 3763              	.LASF247:
 3764 00b3 52544344 		.ascii	"RTCD1\000"
 3764      3100
 3765              	.LASF217:
 3766 00b9 77726974 		.ascii	"write\000"
 3766      6500
 3767              	.LASF183:
 3768 00bf 6461796F 		.ascii	"dayofweek\000"
 3768      66776565 
 3768      6B00
 3769              	.LASF104:
 3770 00c9 424B5033 		.ascii	"BKP3R\000"
 3770      5200
 3771              	.LASF184:
 3772 00cf 6D696C6C 		.ascii	"millisecond\000"
ARM GAS  /tmp/ccrpaMoh.s 			page 68


 3772      69736563 
 3772      6F6E6400 
 3773              	.LASF201:
 3774 00db 6673697A 		.ascii	"fsize\000"
 3774      6500
 3775              	.LASF194:
 3776 00e1 636F6E66 		.ascii	"config\000"
 3776      696700
 3777              	.LASF193:
 3778 00e8 73746174 		.ascii	"state\000"
 3778      6500
 3779              	.LASF81:
 3780 00ee 434E4454 		.ascii	"CNDTR\000"
 3780      5200
 3781              	.LASF237:
 3782 00f4 73746174 		.ascii	"stat\000"
 3782      00
 3783              	.LASF105:
 3784 00f9 424B5034 		.ascii	"BKP4R\000"
 3784      5200
 3785              	.LASF180:
 3786 00ff 79656172 		.ascii	"year\000"
 3786      00
 3787              	.LASF241:
 3788 0104 636F756E 		.ascii	"count\000"
 3788      7400
 3789              	.LASF143:
 3790 010a 6D5F6F77 		.ascii	"m_owner\000"
 3790      6E657200 
 3791              	.LASF67:
 3792 0112 76745F70 		.ascii	"vt_par\000"
 3792      617200
 3793              	.LASF203:
 3794 0119 656E645F 		.ascii	"end_cb\000"
 3794      636200
 3795              	.LASF131:
 3796 0120 65786974 		.ascii	"exitcode\000"
 3796      636F6465 
 3796      00
 3797              	.LASF121:
 3798 0129 49325343 		.ascii	"I2SCFGR\000"
 3798      46475200 
 3799              	.LASF3:
 3800 0131 5F5F7569 		.ascii	"__uint8_t\000"
 3800      6E74385F 
 3800      7400
 3801              	.LASF223:
 3802 013b 42595445 		.ascii	"BYTE\000"
 3802      00
 3803              	.LASF106:
 3804 0140 424B5035 		.ascii	"BKP5R\000"
 3804      5200
 3805              	.LASF172:
 3806 0146 50555044 		.ascii	"PUPDR\000"
 3806      5200
 3807              	.LASF229:
 3808 014c 5245535F 		.ascii	"RES_ERROR\000"
ARM GAS  /tmp/ccrpaMoh.s 			page 69


 3808      4552524F 
 3808      5200
 3809              	.LASF34:
 3810 0156 705F6E65 		.ascii	"p_newer\000"
 3810      77657200 
 3811              	.LASF187:
 3812 015e 5350495F 		.ascii	"SPI_STOP\000"
 3812      53544F50 
 3812      00
 3813              	.LASF9:
 3814 0167 6C6F6E67 		.ascii	"long int\000"
 3814      20696E74 
 3814      00
 3815              	.LASF186:
 3816 0170 5350495F 		.ascii	"SPI_UNINIT\000"
 3816      554E494E 
 3816      495400
 3817              	.LASF30:
 3818 017b 705F6E65 		.ascii	"p_next\000"
 3818      787400
 3819              	.LASF31:
 3820 0182 705F7072 		.ascii	"p_prev\000"
 3820      657600
 3821              	.LASF107:
 3822 0189 424B5036 		.ascii	"BKP6R\000"
 3822      5200
 3823              	.LASF178:
 3824 018f 696F706F 		.ascii	"ioportid_t\000"
 3824      72746964 
 3824      5F7400
 3825              	.LASF22:
 3826 019a 74737461 		.ascii	"tstate_t\000"
 3826      74655F74 
 3826      00
 3827              	.LASF50:
 3828 01a3 74687265 		.ascii	"threads_queue_t\000"
 3828      6164735F 
 3828      71756575 
 3828      655F7400 
 3829              	.LASF43:
 3830 01b3 705F6D74 		.ascii	"p_mtxlist\000"
 3830      786C6973 
 3830      7400
 3831              	.LASF124:
 3832 01bd 72656761 		.ascii	"regarm_t\000"
 3832      726D5F74 
 3832      00
 3833              	.LASF108:
 3834 01c6 424B5037 		.ascii	"BKP7R\000"
 3834      5200
 3835              	.LASF82:
 3836 01cc 43504152 		.ascii	"CPAR\000"
 3836      00
 3837              	.LASF213:
 3838 01d1 69735F70 		.ascii	"is_protected\000"
 3838      726F7465 
 3838      63746564 
ARM GAS  /tmp/ccrpaMoh.s 			page 70


 3838      00
 3839              	.LASF1:
 3840 01de 7369676E 		.ascii	"signed char\000"
 3840      65642063 
 3840      68617200 
 3841              	.LASF137:
 3842 01ea 65776D61 		.ascii	"ewmask\000"
 3842      736B00
 3843              	.LASF15:
 3844 01f1 75696E74 		.ascii	"uint8_t\000"
 3844      385F7400 
 3845              	.LASF256:
 3846 01f9 72746343 		.ascii	"rtcConvertDateTimeToFAT\000"
 3846      6F6E7665 
 3846      72744461 
 3846      74655469 
 3846      6D65546F 
 3847              	.LASF26:
 3848 0211 6576656E 		.ascii	"eventmask_t\000"
 3848      746D6173 
 3848      6B5F7400 
 3849              	.LASF126:
 3850 021d 636F6E74 		.ascii	"context\000"
 3850      65787400 
 3851              	.LASF232:
 3852 0225 5245535F 		.ascii	"RES_PARERR\000"
 3852      50415245 
 3852      525200
 3853              	.LASF133:
 3854 0230 77747472 		.ascii	"wttrp\000"
 3854      7000
 3855              	.LASF89:
 3856 0236 52455345 		.ascii	"RESERVED0\000"
 3856      52564544 
 3856      3000
 3857              	.LASF4:
 3858 0240 756E7369 		.ascii	"unsigned char\000"
 3858      676E6564 
 3858      20636861 
 3858      7200
 3859              	.LASF100:
 3860 024e 52455345 		.ascii	"RESERVED7\000"
 3860      52564544 
 3860      3700
 3861              	.LASF202:
 3862 0258 73706963 		.ascii	"spicallback_t\000"
 3862      616C6C62 
 3862      61636B5F 
 3862      7400
 3863              	.LASF86:
 3864 0266 444D415F 		.ascii	"DMA_TypeDef\000"
 3864      54797065 
 3864      44656600 
 3865              	.LASF73:
 3866 0272 70616E69 		.ascii	"panic_msg\000"
 3866      635F6D73 
 3866      6700
ARM GAS  /tmp/ccrpaMoh.s 			page 71


 3867              	.LASF235:
 3868 027c 6469736B 		.ascii	"disk_status\000"
 3868      5F737461 
 3868      74757300 
 3869              	.LASF244:
 3870 0288 6765745F 		.ascii	"get_fattime\000"
 3870      66617474 
 3870      696D6500 
 3871              	.LASF57:
 3872 0294 725F6E65 		.ascii	"r_newer\000"
 3872      77657200 
 3873              	.LASF154:
 3874 029c 424C4B5F 		.ascii	"BLK_UNINIT\000"
 3874      554E494E 
 3874      495400
 3875              	.LASF71:
 3876 02a7 73797374 		.ascii	"system_debug_t\000"
 3876      656D5F64 
 3876      65627567 
 3876      5F7400
 3877              	.LASF233:
 3878 02b6 44524553 		.ascii	"DRESULT\000"
 3878      554C5400 
 3879              	.LASF167:
 3880 02be 5F426F6F 		.ascii	"_Bool\000"
 3880      6C00
 3881              	.LASF162:
 3882 02c4 424C4B5F 		.ascii	"BLK_SYNCING\000"
 3882      53594E43 
 3882      494E4700 
 3883              	.LASF110:
 3884 02d0 424B5039 		.ascii	"BKP9R\000"
 3884      5200
 3885              	.LASF145:
 3886 02d6 63686172 		.ascii	"char\000"
 3886      00
 3887              	.LASF208:
 3888 02db 6C736366 		.ascii	"lscfg\000"
 3888      6700
 3889              	.LASF149:
 3890 02e1 6373656C 		.ascii	"cselr\000"
 3890      7200
 3891              	.LASF85:
 3892 02e7 49464352 		.ascii	"IFCR\000"
 3892      00
 3893              	.LASF220:
 3894 02ec 63617061 		.ascii	"capacity\000"
 3894      63697479 
 3894      00
 3895              	.LASF32:
 3896 02f5 705F7072 		.ascii	"p_prio\000"
 3896      696F00
 3897              	.LASF192:
 3898 02fc 53504944 		.ascii	"SPIDriver\000"
 3898      72697665 
 3898      7200
 3899              	.LASF6:
ARM GAS  /tmp/ccrpaMoh.s 			page 72


 3900 0306 5F5F7569 		.ascii	"__uint16_t\000"
 3900      6E743136 
 3900      5F7400
 3901              	.LASF159:
 3902 0311 424C4B5F 		.ascii	"BLK_READY\000"
 3902      52454144 
 3902      5900
 3903              	.LASF248:
 3904 031b 4D4D4344 		.ascii	"MMCD1\000"
 3904      3100
 3905              	.LASF132:
 3906 0321 77746F62 		.ascii	"wtobjp\000"
 3906      6A7000
 3907              	.LASF87:
 3908 0328 50524552 		.ascii	"PRER\000"
 3908      00
 3909              	.LASF225:
 3910 032d 55494E54 		.ascii	"UINT\000"
 3910      00
 3911              	.LASF125:
 3912 0332 73746B61 		.ascii	"stkalign_t\000"
 3912      6C69676E 
 3912      5F7400
 3913              	.LASF179:
 3914 033d 52544344 		.ascii	"RTCDriver\000"
 3914      72697665 
 3914      7200
 3915              	.LASF260:
 3916 0347 72746347 		.ascii	"rtcGetTime\000"
 3916      65745469 
 3916      6D6500
 3917              	.LASF27:
 3918 0352 636E745F 		.ascii	"cnt_t\000"
 3918      7400
 3919              	.LASF243:
 3920 0358 6469736B 		.ascii	"disk_ioctl\000"
 3920      5F696F63 
 3920      746C00
 3921              	.LASF66:
 3922 0363 76745F66 		.ascii	"vt_func\000"
 3922      756E6300 
 3923              	.LASF200:
 3924 036b 7478646D 		.ascii	"txdmamode\000"
 3924      616D6F64 
 3924      6500
 3925              	.LASF42:
 3926 0375 705F6570 		.ascii	"p_epending\000"
 3926      656E6469 
 3926      6E6700
 3927              	.LASF136:
 3928 0380 77746D74 		.ascii	"wtmtxp\000"
 3928      787000
 3929              	.LASF53:
 3930 0387 63685F72 		.ascii	"ch_ready_list\000"
 3930      65616479 
 3930      5F6C6973 
 3930      7400
ARM GAS  /tmp/ccrpaMoh.s 			page 73


 3931              	.LASF164:
 3932 0395 626C6B5F 		.ascii	"blk_size\000"
 3932      73697A65 
 3932      00
 3933              	.LASF111:
 3934 039e 424B5031 		.ascii	"BKP10R\000"
 3934      305200
 3935              	.LASF168:
 3936 03a5 636C6561 		.ascii	"clear\000"
 3936      7200
 3937              	.LASF112:
 3938 03ab 424B5031 		.ascii	"BKP11R\000"
 3938      315200
 3939              	.LASF13:
 3940 03b2 5F5F7569 		.ascii	"__uint64_t\000"
 3940      6E743634 
 3940      5F7400
 3941              	.LASF11:
 3942 03bd 6C6F6E67 		.ascii	"long unsigned int\000"
 3942      20756E73 
 3942      69676E65 
 3942      6420696E 
 3942      7400
 3943              	.LASF119:
 3944 03cf 52584352 		.ascii	"RXCRCR\000"
 3944      435200
 3945              	.LASF117:
 3946 03d6 5254435F 		.ascii	"RTC_TypeDef\000"
 3946      54797065 
 3946      44656600 
 3947              	.LASF138:
 3948 03e2 63685F73 		.ascii	"ch_semaphore\000"
 3948      656D6170 
 3948      686F7265 
 3948      00
 3949              	.LASF150:
 3950 03ef 73686966 		.ascii	"shift\000"
 3950      7400
 3951              	.LASF147:
 3952 03f5 6368616E 		.ascii	"channel\000"
 3952      6E656C00 
 3953              	.LASF48:
 3954 03fd 63685F74 		.ascii	"ch_thread\000"
 3954      68726561 
 3954      6400
 3955              	.LASF68:
 3956 0407 76697274 		.ascii	"virtual_timers_list_t\000"
 3956      75616C5F 
 3956      74696D65 
 3956      72735F6C 
 3956      6973745F 
 3957              	.LASF113:
 3958 041d 424B5031 		.ascii	"BKP12R\000"
 3958      325200
 3959              	.LASF212:
 3960 0424 69735F69 		.ascii	"is_inserted\000"
 3960      6E736572 
ARM GAS  /tmp/ccrpaMoh.s 			page 74


 3960      74656400 
 3961              	.LASF61:
 3962 0430 76697274 		.ascii	"virtual_timer_t\000"
 3962      75616C5F 
 3962      74696D65 
 3962      725F7400 
 3963              	.LASF52:
 3964 0440 72656164 		.ascii	"ready_list_t\000"
 3964      795F6C69 
 3964      73745F74 
 3964      00
 3965              	.LASF174:
 3966 044d 4C434B52 		.ascii	"LCKR\000"
 3966      00
 3967              	.LASF49:
 3968 0452 63685F74 		.ascii	"ch_threads_list\000"
 3968      68726561 
 3968      64735F6C 
 3968      69737400 
 3969              	.LASF114:
 3970 0462 424B5031 		.ascii	"BKP13R\000"
 3970      335200
 3971              	.LASF171:
 3972 0469 4F535045 		.ascii	"OSPEEDR\000"
 3972      45445200 
 3973              	.LASF197:
 3974 0471 646D6172 		.ascii	"dmarx\000"
 3974      7800
 3975              	.LASF94:
 3976 0477 54534452 		.ascii	"TSDR\000"
 3976      00
 3977              	.LASF99:
 3978 047c 414C524D 		.ascii	"ALRMBSSR\000"
 3978      42535352 
 3978      00
 3979              	.LASF10:
 3980 0485 5F5F7569 		.ascii	"__uint32_t\000"
 3980      6E743332 
 3980      5F7400
 3981              	.LASF90:
 3982 0490 414C524D 		.ascii	"ALRMAR\000"
 3982      415200
 3983              	.LASF188:
 3984 0497 5350495F 		.ascii	"SPI_READY\000"
 3984      52454144 
 3984      5900
 3985              	.LASF12:
 3986 04a1 6C6F6E67 		.ascii	"long long int\000"
 3986      206C6F6E 
 3986      6720696E 
 3986      7400
 3987              	.LASF214:
 3988 04af 636F6E6E 		.ascii	"connect\000"
 3988      65637400 
 3989              	.LASF142:
 3990 04b7 6D5F7175 		.ascii	"m_queue\000"
 3990      65756500 
ARM GAS  /tmp/ccrpaMoh.s 			page 75


 3991              	.LASF115:
 3992 04bf 424B5031 		.ascii	"BKP14R\000"
 3992      345200
 3993              	.LASF63:
 3994 04c6 76745F6E 		.ascii	"vt_next\000"
 3994      65787400 
 3995              	.LASF64:
 3996 04ce 76745F70 		.ascii	"vt_prev\000"
 3996      72657600 
 3997              	.LASF218:
 3998 04d6 73796E63 		.ascii	"sync\000"
 3998      00
 3999              	.LASF257:
 4000 04db 474E5520 		.ascii	"GNU C 4.8.4 20140526 (release) [ARM/embedded-4_8-br"
 4000      4320342E 
 4000      382E3420 
 4000      32303134 
 4000      30353236 
 4001 050e 616E6368 		.ascii	"anch revision 211358] -mcpu=cortex-m4 -mno-thumb-in"
 4001      20726576 
 4001      6973696F 
 4001      6E203231 
 4001      31333538 
 4002 0541 74657277 		.ascii	"terwork -mthumb -ggdb -O2 -fomit-frame-pointer -fal"
 4002      6F726B20 
 4002      2D6D7468 
 4002      756D6220 
 4002      2D676764 
 4003 0574 69676E2D 		.ascii	"ign-functions=16 -ffunction-sections -fdata-section"
 4003      66756E63 
 4003      74696F6E 
 4003      733D3136 
 4003      202D6666 
 4004 05a7 73202D66 		.ascii	"s -fno-common\000"
 4004      6E6F2D63 
 4004      6F6D6D6F 
 4004      6E00
 4005              	.LASF91:
 4006 05b5 414C524D 		.ascii	"ALRMBR\000"
 4006      425200
 4007              	.LASF196:
 4008 05bc 6D757465 		.ascii	"mutex\000"
 4008      7800
 4009              	.LASF96:
 4010 05c2 43414C52 		.ascii	"CALR\000"
 4010      00
 4011              	.LASF116:
 4012 05c7 424B5031 		.ascii	"BKP15R\000"
 4012      355200
 4013              	.LASF239:
 4014 05ce 62756666 		.ascii	"buff\000"
 4014      00
 4015              	.LASF199:
 4016 05d3 7278646D 		.ascii	"rxdmamode\000"
 4016      616D6F64 
 4016      6500
 4017              	.LASF207:
ARM GAS  /tmp/ccrpaMoh.s 			page 76


 4018 05dd 73706970 		.ascii	"spip\000"
 4018      00
 4019              	.LASF40:
 4020 05e2 705F7761 		.ascii	"p_waiting\000"
 4020      6974696E 
 4020      6700
 4021              	.LASF198:
 4022 05ec 646D6174 		.ascii	"dmatx\000"
 4022      7800
 4023              	.LASF169:
 4024 05f2 4D4F4445 		.ascii	"MODER\000"
 4024      5200
 4025              	.LASF38:
 4026 05f8 705F666C 		.ascii	"p_flags\000"
 4026      61677300 
 4027              	.LASF216:
 4028 0600 72656164 		.ascii	"read\000"
 4028      00
 4029              	.LASF79:
 4030 0605 69646C65 		.ascii	"idle_thread_wa\000"
 4030      5F746872 
 4030      6561645F 
 4030      776100
 4031              	.LASF0:
 4032 0614 756E7369 		.ascii	"unsigned int\000"
 4032      676E6564 
 4032      20696E74 
 4032      00
 4033              	.LASF240:
 4034 0621 73656374 		.ascii	"sector\000"
 4034      6F7200
 4035              	.LASF206:
 4036 0628 53504943 		.ascii	"SPIConfig\000"
 4036      6F6E6669 
 4036      6700
 4037              	.LASF189:
 4038 0632 5350495F 		.ascii	"SPI_ACTIVE\000"
 4038      41435449 
 4038      564500
 4039              	.LASF165:
 4040 063d 626C6B5F 		.ascii	"blk_num\000"
 4040      6E756D00 
 4041              	.LASF20:
 4042 0645 7274636E 		.ascii	"rtcnt_t\000"
 4042      745F7400 
 4043              	.LASF45:
 4044 064d 705F6D70 		.ascii	"p_mpool\000"
 4044      6F6F6C00 
 4045              	.LASF228:
 4046 0655 5245535F 		.ascii	"RES_OK\000"
 4046      4F4B00
 4047              	.LASF39:
 4048 065c 705F7265 		.ascii	"p_refs\000"
 4048      667300
 4049              	.LASF249:
 4050 0663 6D6D635F 		.ascii	"mmc_lld_is_write_protected\000"
 4050      6C6C645F 
ARM GAS  /tmp/ccrpaMoh.s 			page 77


 4050      69735F77 
 4050      72697465 
 4050      5F70726F 
 4051              	.LASF259:
 4052 067e 2F752F63 		.ascii	"/u/cojthack/summerResearch2016/milestone2\000"
 4052      6F6A7468 
 4052      61636B2F 
 4052      73756D6D 
 4052      65725265 
 4053              	.LASF236:
 4054 06a8 70647276 		.ascii	"pdrv\000"
 4054      00
 4055              	.LASF83:
 4056 06ad 434D4152 		.ascii	"CMAR\000"
 4056      00
 4057              	.LASF253:
 4058 06b2 6D6D6353 		.ascii	"mmcStartSequentialWrite\000"
 4058      74617274 
 4058      53657175 
 4058      656E7469 
 4058      616C5772 
 4059              	.LASF128:
 4060 06ca 6F666673 		.ascii	"offset\000"
 4060      657400
 4061              	.LASF226:
 4062 06d1 44574F52 		.ascii	"DWORD\000"
 4062      4400
 4063              	.LASF166:
 4064 06d7 426C6F63 		.ascii	"BlockDeviceInfo\000"
 4064      6B446576 
 4064      69636549 
 4064      6E666F00 
 4065              	.LASF29:
 4066 06e7 74687265 		.ascii	"thread_t\000"
 4066      61645F74 
 4066      00
 4067              	.LASF46:
 4068 06f0 74687265 		.ascii	"thread_reference_t\000"
 4068      61645F72 
 4068      65666572 
 4068      656E6365 
 4068      5F7400
 4069              	.LASF250:
 4070 0703 6D6D6353 		.ascii	"mmcStartSequentialRead\000"
 4070      74617274 
 4070      53657175 
 4070      656E7469 
 4070      616C5265 
 4071              	.LASF242:
 4072 071a 6469736B 		.ascii	"disk_write\000"
 4072      5F777269 
 4072      746500
 4073              	.LASF224:
 4074 0725 574F5244 		.ascii	"WORD\000"
 4074      00
 4075              	.LASF44:
 4076 072a 705F7265 		.ascii	"p_realprio\000"
ARM GAS  /tmp/ccrpaMoh.s 			page 78


 4076      616C7072 
 4076      696F00
 4077              	.LASF134:
 4078 0735 73656E74 		.ascii	"sentmsg\000"
 4078      6D736700 
 4079              	.LASF127:
 4080 073d 706F7274 		.ascii	"port_intctx\000"
 4080      5F696E74 
 4080      63747800 
 4081              	.LASF161:
 4082 0749 424C4B5F 		.ascii	"BLK_WRITING\000"
 4082      57524954 
 4082      494E4700 
 4083              	.LASF255:
 4084 0755 6D6D6353 		.ascii	"mmcStopSequentialWrite\000"
 4084      746F7053 
 4084      65717565 
 4084      6E746961 
 4084      6C577269 
 4085              	.LASF156:
 4086 076c 424C4B5F 		.ascii	"BLK_ACTIVE\000"
 4086      41435449 
 4086      564500
 4087              	.LASF148:
 4088 0777 636D6173 		.ascii	"cmask\000"
 4088      6B00
 4089              	.LASF65:
 4090 077d 76745F64 		.ascii	"vt_delta\000"
 4090      656C7461 
 4090      00
 4091              	.LASF215:
 4092 0786 64697363 		.ascii	"disconnect\000"
 4092      6F6E6E65 
 4092      637400
 4093              	.LASF245:
 4094 0791 74696D65 		.ascii	"timespec\000"
 4094      73706563 
 4094      00
 4095              	.LASF157:
 4096 079a 424C4B5F 		.ascii	"BLK_CONNECTING\000"
 4096      434F4E4E 
 4096      45435449 
 4096      4E4700
 4097              	.LASF231:
 4098 07a9 5245535F 		.ascii	"RES_NOTRDY\000"
 4098      4E4F5452 
 4098      445900
 4099              	.LASF84:
 4100 07b4 444D415F 		.ascii	"DMA_Channel_TypeDef\000"
 4100      4368616E 
 4100      6E656C5F 
 4100      54797065 
 4100      44656600 
 4101              	.LASF62:
 4102 07c8 63685F76 		.ascii	"ch_virtual_timer\000"
 4102      69727475 
 4102      616C5F74 
ARM GAS  /tmp/ccrpaMoh.s 			page 79


 4102      696D6572 
 4102      00
 4103              	.LASF140:
 4104 07d9 735F636E 		.ascii	"s_cnt\000"
 4104      7400
 4105              	.LASF151:
 4106 07df 73656C66 		.ascii	"selfindex\000"
 4106      696E6465 
 4106      7800
 4107              	.LASF177:
 4108 07e9 73746D33 		.ascii	"stm32_gpio_t\000"
 4108      325F6770 
 4108      696F5F74 
 4108      00
 4109              	.LASF14:
 4110 07f6 6C6F6E67 		.ascii	"long long unsigned int\000"
 4110      206C6F6E 
 4110      6720756E 
 4110      7369676E 
 4110      65642069 
 4111              	.LASF35:
 4112 080d 705F6F6C 		.ascii	"p_older\000"
 4112      64657200 
 4113              	.LASF16:
 4114 0815 75696E74 		.ascii	"uint16_t\000"
 4114      31365F74 
 4114      00
 4115              	.LASF182:
 4116 081e 64737466 		.ascii	"dstflag\000"
 4116      6C616700 
 4117              	.LASF25:
 4118 0826 6D73675F 		.ascii	"msg_t\000"
 4118      7400
 4119              	.LASF51:
 4120 082c 63685F74 		.ascii	"ch_threads_queue\000"
 4120      68726561 
 4120      64735F71 
 4120      75657565 
 4120      00
 4121              	.LASF59:
 4122 083d 725F6375 		.ascii	"r_current\000"
 4122      7272656E 
 4122      7400
 4123              	.LASF176:
 4124 0847 41465248 		.ascii	"AFRH\000"
 4124      00
 4125              	.LASF175:
 4126 084c 4146524C 		.ascii	"AFRL\000"
 4126      00
 4127              	.LASF254:
 4128 0851 6D6D6353 		.ascii	"mmcSequentialWrite\000"
 4128      65717565 
 4128      6E746961 
 4128      6C577269 
 4128      746500
 4129              	.LASF152:
 4130 0864 76656374 		.ascii	"vector\000"
ARM GAS  /tmp/ccrpaMoh.s 			page 80


 4130      6F7200
 4131              	.LASF97:
 4132 086b 54414643 		.ascii	"TAFCR\000"
 4132      5200
 4133              	.LASF230:
 4134 0871 5245535F 		.ascii	"RES_WRPRT\000"
 4134      57525052 
 4134      5400
 4135              	.LASF222:
 4136 087b 4D4D4344 		.ascii	"MMCDriver\000"
 4136      72697665 
 4136      7200
 4137              	.LASF78:
 4138 0885 6D61696E 		.ascii	"mainthread\000"
 4138      74687265 
 4138      616400
 4139              	.LASF210:
 4140 0890 4D4D4343 		.ascii	"MMCConfig\000"
 4140      6F6E6669 
 4140      6700
 4141              	.LASF54:
 4142 089a 725F7175 		.ascii	"r_queue\000"
 4142      65756500 
 4143              	.LASF170:
 4144 08a2 4F545950 		.ascii	"OTYPER\000"
 4144      455200
 4145              	.LASF120:
 4146 08a9 54584352 		.ascii	"TXCRCR\000"
 4146      435200
 4147              	.LASF123:
 4148 08b0 5350495F 		.ascii	"SPI_TypeDef\000"
 4148      54797065 
 4148      44656600 
 4149              	.LASF76:
 4150 08bc 726C6973 		.ascii	"rlist\000"
 4150      7400
 4151              	.LASF21:
 4152 08c2 746D6F64 		.ascii	"tmode_t\000"
 4152      655F7400 
 4153              	.LASF118:
 4154 08ca 43524350 		.ascii	"CRCPR\000"
 4154      5200
 4155              	.LASF181:
 4156 08d0 6D6F6E74 		.ascii	"month\000"
 4156      6800
 4157              	.LASF185:
 4158 08d6 52544344 		.ascii	"RTCDateTime\000"
 4158      61746554 
 4158      696D6500 
 4159              	.LASF58:
 4160 08e2 725F6F6C 		.ascii	"r_older\000"
 4160      64657200 
 4161              	.LASF129:
 4162 08ea 746D5F63 		.ascii	"tm_calibration_t\000"
 4162      616C6962 
 4162      72617469 
 4162      6F6E5F74 
ARM GAS  /tmp/ccrpaMoh.s 			page 81


 4162      00
 4163              	.LASF195:
 4164 08fb 74687265 		.ascii	"thread\000"
 4164      616400
 4165              	.LASF139:
 4166 0902 735F7175 		.ascii	"s_queue\000"
 4166      65756500 
 4167              	.LASF92:
 4168 090a 53484946 		.ascii	"SHIFTR\000"
 4168      545200
 4169              	.LASF238:
 4170 0911 6469736B 		.ascii	"disk_read\000"
 4170      5F726561 
 4170      6400
 4171              	.LASF5:
 4172 091b 73686F72 		.ascii	"short int\000"
 4172      7420696E 
 4172      7400
 4173              	.LASF19:
 4174 0925 75696E74 		.ascii	"uint64_t\000"
 4174      36345F74 
 4174      00
 4175              	.LASF141:
 4176 092e 63685F6D 		.ascii	"ch_mutex\000"
 4176      75746578 
 4176      00
 4177              	.LASF158:
 4178 0937 424C4B5F 		.ascii	"BLK_DISCONNECTING\000"
 4178      44495343 
 4178      4F4E4E45 
 4178      4354494E 
 4178      4700
 4179              	.LASF55:
 4180 0949 725F7072 		.ascii	"r_prio\000"
 4180      696F00
 4181              	.LASF72:
 4182 0950 63685F73 		.ascii	"ch_system_debug\000"
 4182      79737465 
 4182      6D5F6465 
 4182      62756700 
 4183              	.LASF227:
 4184 0960 44535441 		.ascii	"DSTATUS\000"
 4184      54555300 
 4185              	.LASF173:
 4186 0968 42535252 		.ascii	"BSRR\000"
 4186      00
 4187              	.LASF246:
 4188 096d 49544D5F 		.ascii	"ITM_RxBuffer\000"
 4188      52784275 
 4188      66666572 
 4188      00
 4189              	.LASF77:
 4190 097a 76746C69 		.ascii	"vtlist\000"
 4190      737400
 4191              	.LASF221:
 4192 0981 626C6F63 		.ascii	"block_addresses\000"
 4192      6B5F6164 
ARM GAS  /tmp/ccrpaMoh.s 			page 82


 4192      64726573 
 4192      73657300 
 4193              	.LASF146:
 4194 0991 6D757465 		.ascii	"mutex_t\000"
 4194      785F7400 
 4195              	.LASF23:
 4196 0999 74726566 		.ascii	"trefs_t\000"
 4196      735F7400 
 4197              	.LASF211:
 4198 09a1 4D4D4344 		.ascii	"MMCDriverVMT\000"
 4198      72697665 
 4198      72564D54 
 4198      00
 4199              	.LASF47:
 4200 09ae 74687265 		.ascii	"threads_list_t\000"
 4200      6164735F 
 4200      6C697374 
 4200      5F7400
 4201              	.LASF75:
 4202 09bd 63685F73 		.ascii	"ch_system\000"
 4202      79737465 
 4202      6D00
 4203              	.LASF209:
 4204 09c7 68736366 		.ascii	"hscfg\000"
 4204      6700
 4205              	.LASF160:
 4206 09cd 424C4B5F 		.ascii	"BLK_READING\000"
 4206      52454144 
 4206      494E4700 
 4207              	.LASF258:
 4208 09d9 2E2E2F43 		.ascii	"../ChibiOS/os/various/fatfs_bindings/fatfs_diskio.c"
 4208      68696269 
 4208      4F532F6F 
 4208      732F7661 
 4208      72696F75 
 4209 0a0c 00       		.ascii	"\000"
 4210              	.LASF18:
 4211 0a0d 75696E74 		.ascii	"uint32_t\000"
 4211      33325F74 
 4211      00
 4212              	.LASF252:
 4213 0a16 6D6D6353 		.ascii	"mmcStopSequentialRead\000"
 4213      746F7053 
 4213      65717565 
 4213      6E746961 
 4213      6C526561 
 4214              	.LASF122:
 4215 0a2c 49325350 		.ascii	"I2SPR\000"
 4215      5200
 4216              	.LASF190:
 4217 0a32 5350495F 		.ascii	"SPI_COMPLETE\000"
 4217      434F4D50 
 4217      4C455445 
 4217      00
 4218              	.LASF130:
 4219 0a3f 7264796D 		.ascii	"rdymsg\000"
 4219      736700
ARM GAS  /tmp/ccrpaMoh.s 			page 83


 4220              	.LASF70:
 4221 0a46 76745F6C 		.ascii	"vt_lasttime\000"
 4221      61737474 
 4221      696D6500 
 4222              	.LASF7:
 4223 0a52 73686F72 		.ascii	"short unsigned int\000"
 4223      7420756E 
 4223      7369676E 
 4223      65642069 
 4223      6E7400
 4224              	.LASF88:
 4225 0a65 57555452 		.ascii	"WUTR\000"
 4225      00
 4226              	.LASF74:
 4227 0a6a 63685F73 		.ascii	"ch_system_t\000"
 4227      79737465 
 4227      6D5F7400 
 4228              	.LASF191:
 4229 0a76 73706973 		.ascii	"spistate_t\000"
 4229      74617465 
 4229      5F7400
 4230              	.LASF8:
 4231 0a81 5F5F696E 		.ascii	"__int32_t\000"
 4231      7433325F 
 4231      7400
 4232              	.LASF234:
 4233 0a8b 6469736B 		.ascii	"disk_initialize\000"
 4233      5F696E69 
 4233      7469616C 
 4233      697A6500 
 4234              	.LASF101:
 4235 0a9b 424B5030 		.ascii	"BKP0R\000"
 4235      5200
 4236              	.LASF205:
 4237 0aa1 73737061 		.ascii	"sspad\000"
 4237      6400
 4238              	.LASF109:
 4239 0aa7 424B5038 		.ascii	"BKP8R\000"
 4239      5200
 4240              	.LASF95:
 4241 0aad 54535353 		.ascii	"TSSSR\000"
 4241      5200
 4242              	.LASF36:
 4243 0ab3 705F6E61 		.ascii	"p_name\000"
 4243      6D6500
 4244              	.LASF144:
 4245 0aba 6D5F6E65 		.ascii	"m_next\000"
 4245      787400
 4246              	.LASF98:
 4247 0ac1 414C524D 		.ascii	"ALRMASSR\000"
 4247      41535352 
 4247      00
 4248              	.LASF155:
 4249 0aca 424C4B5F 		.ascii	"BLK_STOP\000"
 4249      53544F50 
 4249      00
 4250              	.LASF102:
ARM GAS  /tmp/ccrpaMoh.s 			page 84


 4251 0ad3 424B5031 		.ascii	"BKP1R\000"
 4251      5200
 4252              	.LASF37:
 4253 0ad9 705F7374 		.ascii	"p_state\000"
 4253      61746500 
 4254              		.ident	"GCC: (GNU Tools for ARM Embedded Processors) 4.8.4 20140526 (release) [ARM/embedded-4_8-br
ARM GAS  /tmp/ccrpaMoh.s 			page 85


DEFINED SYMBOLS
                            *ABS*:00000000 fatfs_diskio.c
     /tmp/ccrpaMoh.s:19     .text.disk_initialize:00000000 $t
     /tmp/ccrpaMoh.s:25     .text.disk_initialize:00000000 disk_initialize
     /tmp/ccrpaMoh.s:72     .text.disk_initialize:00000024 $d
     /tmp/ccrpaMoh.s:77     .text.disk_status:00000000 $t
     /tmp/ccrpaMoh.s:83     .text.disk_status:00000000 disk_status
     /tmp/ccrpaMoh.s:129    .text.disk_status:00000024 $d
     /tmp/ccrpaMoh.s:134    .text.disk_read:00000000 $t
     /tmp/ccrpaMoh.s:140    .text.disk_read:00000000 disk_read
     /tmp/ccrpaMoh.s:228    .text.disk_read:00000054 $d
     /tmp/ccrpaMoh.s:233    .text.disk_write:00000000 $t
     /tmp/ccrpaMoh.s:239    .text.disk_write:00000000 disk_write
     /tmp/ccrpaMoh.s:340    .text.disk_write:00000064 $d
     /tmp/ccrpaMoh.s:345    .text.disk_ioctl:00000000 $t
     /tmp/ccrpaMoh.s:351    .text.disk_ioctl:00000000 disk_ioctl
     /tmp/ccrpaMoh.s:387    .text.get_fattime:00000000 $t
     /tmp/ccrpaMoh.s:393    .text.get_fattime:00000000 get_fattime
     /tmp/ccrpaMoh.s:420    .text.get_fattime:00000018 $d
                     .debug_frame:00000010 $d
     /tmp/ccrpaMoh.s:76     .text.disk_initialize:00000028 $t
     /tmp/ccrpaMoh.s:133    .text.disk_status:00000028 $t
     /tmp/ccrpaMoh.s:232    .text.disk_read:00000058 $t
     /tmp/ccrpaMoh.s:344    .text.disk_write:00000068 $t
     /tmp/ccrpaMoh.s:424    .text.get_fattime:0000001c $t

UNDEFINED SYMBOLS
mmc_lld_is_write_protected
MMCD1
mmcStartSequentialRead
mmcSequentialRead
mmcStopSequentialRead
mmcStartSequentialWrite
mmcSequentialWrite
mmcStopSequentialWrite
rtcGetTime
rtcConvertDateTimeToFAT
RTCD1
