ARM GAS  /tmp/ccSTtryb.s 			page 1


   1              		.syntax unified
   2              		.cpu cortex-m4
   3              		.fpu softvfp
   4              		.eabi_attribute 20, 1
   5              		.eabi_attribute 21, 1
   6              		.eabi_attribute 23, 3
   7              		.eabi_attribute 24, 1
   8              		.eabi_attribute 25, 1
   9              		.eabi_attribute 26, 1
  10              		.eabi_attribute 30, 2
  11              		.eabi_attribute 34, 1
  12              		.eabi_attribute 18, 4
  13              		.thumb
  14              		.file	"gpt.c"
  15              		.text
  16              	.Ltext0:
  17              		.cfi_sections	.debug_frame
  18              		.section	.text.gptInit,"ax",%progbits
  19              		.align	2
  20              		.p2align 4,,15
  21              		.global	gptInit
  22              		.thumb
  23              		.thumb_func
  24              		.type	gptInit, %function
  25              	gptInit:
  26              	.LFB272:
  27              		.file 1 "../ChibiOS/os/hal/src/gpt.c"
  28              		.loc 1 56 0
  29              		.cfi_startproc
  30              		@ args = 0, pretend = 0, frame = 0
  31              		@ frame_needed = 0, uses_anonymous_args = 0
  32              		@ link register save eliminated.
  33              		.loc 1 58 0
  34 0000 FFF7FEBF 		b	gpt_lld_init
  35              	.LVL0:
  36              		.cfi_endproc
  37              	.LFE272:
  38              		.size	gptInit, .-gptInit
  39 0004 AFF30080 		.section	.text.gptObjectInit,"ax",%progbits
  39      AFF30080 
  39      AFF30080 
  40              		.align	2
  41              		.p2align 4,,15
  42              		.global	gptObjectInit
  43              		.thumb
  44              		.thumb_func
  45              		.type	gptObjectInit, %function
  46              	gptObjectInit:
  47              	.LFB273:
  48              		.loc 1 68 0
  49              		.cfi_startproc
  50              		@ args = 0, pretend = 0, frame = 0
  51              		@ frame_needed = 0, uses_anonymous_args = 0
  52              		@ link register save eliminated.
  53              	.LVL1:
  54              		.loc 1 70 0
  55 0000 0122     		movs	r2, #1
ARM GAS  /tmp/ccSTtryb.s 			page 2


  56              		.loc 1 71 0
  57 0002 0023     		movs	r3, #0
  58              		.loc 1 70 0
  59 0004 0270     		strb	r2, [r0]
  60              		.loc 1 71 0
  61 0006 4360     		str	r3, [r0, #4]
  62 0008 7047     		bx	lr
  63              		.cfi_endproc
  64              	.LFE273:
  65              		.size	gptObjectInit, .-gptObjectInit
  66 000a 00BFAFF3 		.section	.text.gptStart,"ax",%progbits
  66      0080
  67              		.align	2
  68              		.p2align 4,,15
  69              		.global	gptStart
  70              		.thumb
  71              		.thumb_func
  72              		.type	gptStart, %function
  73              	gptStart:
  74              	.LFB274:
  75              		.loc 1 82 0
  76              		.cfi_startproc
  77              		@ args = 0, pretend = 0, frame = 0
  78              		@ frame_needed = 0, uses_anonymous_args = 0
  79              	.LVL2:
  80 0000 10B5     		push	{r4, lr}
  81              		.cfi_def_cfa_offset 8
  82              		.cfi_offset 4, -8
  83              		.cfi_offset 14, -4
  84              	.LBB108:
  85              	.LBB109:
  86              	.LBB110:
  87              	.LBB111:
  88              	.LBB112:
  89              		.file 2 "../ChibiOS/os/ext/CMSIS/include/core_cmFunc.h"
  90              		.loc 2 548 0
  91 0002 2023     		movs	r3, #32
  92              	.LBE112:
  93              	.LBE111:
  94              	.LBE110:
  95              	.LBE109:
  96              	.LBE108:
  97              		.loc 1 82 0
  98 0004 0446     		mov	r4, r0
  99              	.LBB117:
 100              	.LBB116:
 101              	.LBB115:
 102              	.LBB114:
 103              	.LBB113:
 104              		.loc 2 548 0
 105              	@ 548 "../ChibiOS/os/ext/CMSIS/include/core_cmFunc.h" 1
 106 0006 83F31188 		MSR basepri, r3
 107              	@ 0 "" 2
 108              		.thumb
 109              	.LBE113:
 110              	.LBE114:
 111              	.LBE115:
ARM GAS  /tmp/ccSTtryb.s 			page 3


 112              	.LBE116:
 113              	.LBE117:
 114              		.loc 1 89 0
 115 000a 4160     		str	r1, [r0, #4]
 116              		.loc 1 90 0
 117 000c FFF7FEFF 		bl	gpt_lld_start
 118              	.LVL3:
 119              		.loc 1 91 0
 120 0010 0223     		movs	r3, #2
 121 0012 2370     		strb	r3, [r4]
 122              	.LVL4:
 123              	.LBB118:
 124              	.LBB119:
 125              	.LBB120:
 126              	.LBB121:
 127              	.LBB122:
 128              	.LBB123:
 129              		.loc 2 548 0
 130 0014 0023     		movs	r3, #0
 131              	@ 548 "../ChibiOS/os/ext/CMSIS/include/core_cmFunc.h" 1
 132 0016 83F31188 		MSR basepri, r3
 133              	@ 0 "" 2
 134              		.thumb
 135 001a 10BD     		pop	{r4, pc}
 136              	.LBE123:
 137              	.LBE122:
 138              	.LBE121:
 139              	.LBE120:
 140              	.LBE119:
 141              	.LBE118:
 142              		.cfi_endproc
 143              	.LFE274:
 144              		.size	gptStart, .-gptStart
 145 001c AFF30080 		.section	.text.gptStop,"ax",%progbits
 146              		.align	2
 147              		.p2align 4,,15
 148              		.global	gptStop
 149              		.thumb
 150              		.thumb_func
 151              		.type	gptStop, %function
 152              	gptStop:
 153              	.LFB275:
 154              		.loc 1 102 0
 155              		.cfi_startproc
 156              		@ args = 0, pretend = 0, frame = 0
 157              		@ frame_needed = 0, uses_anonymous_args = 0
 158              	.LVL5:
 159 0000 10B5     		push	{r4, lr}
 160              		.cfi_def_cfa_offset 8
 161              		.cfi_offset 4, -8
 162              		.cfi_offset 14, -4
 163              	.LBB124:
 164              	.LBB125:
 165              	.LBB126:
 166              	.LBB127:
 167              	.LBB128:
 168              		.loc 2 548 0
ARM GAS  /tmp/ccSTtryb.s 			page 4


 169 0002 2023     		movs	r3, #32
 170              	.LBE128:
 171              	.LBE127:
 172              	.LBE126:
 173              	.LBE125:
 174              	.LBE124:
 175              		.loc 1 102 0
 176 0004 0446     		mov	r4, r0
 177              	.LBB133:
 178              	.LBB132:
 179              	.LBB131:
 180              	.LBB130:
 181              	.LBB129:
 182              		.loc 2 548 0
 183              	@ 548 "../ChibiOS/os/ext/CMSIS/include/core_cmFunc.h" 1
 184 0006 83F31188 		MSR basepri, r3
 185              	@ 0 "" 2
 186              		.thumb
 187              	.LBE129:
 188              	.LBE130:
 189              	.LBE131:
 190              	.LBE132:
 191              	.LBE133:
 192              		.loc 1 109 0
 193 000a FFF7FEFF 		bl	gpt_lld_stop
 194              	.LVL6:
 195              		.loc 1 110 0
 196 000e 0123     		movs	r3, #1
 197 0010 2370     		strb	r3, [r4]
 198              	.LVL7:
 199              	.LBB134:
 200              	.LBB135:
 201              	.LBB136:
 202              	.LBB137:
 203              	.LBB138:
 204              	.LBB139:
 205              		.loc 2 548 0
 206 0012 0023     		movs	r3, #0
 207              	@ 548 "../ChibiOS/os/ext/CMSIS/include/core_cmFunc.h" 1
 208 0014 83F31188 		MSR basepri, r3
 209              	@ 0 "" 2
 210              		.thumb
 211 0018 10BD     		pop	{r4, pc}
 212              	.LBE139:
 213              	.LBE138:
 214              	.LBE137:
 215              	.LBE136:
 216              	.LBE135:
 217              	.LBE134:
 218              		.cfi_endproc
 219              	.LFE275:
 220              		.size	gptStop, .-gptStop
 221 001a 00BFAFF3 		.section	.text.gptChangeInterval,"ax",%progbits
 221      0080
 222              		.align	2
 223              		.p2align 4,,15
 224              		.global	gptChangeInterval
ARM GAS  /tmp/ccSTtryb.s 			page 5


 225              		.thumb
 226              		.thumb_func
 227              		.type	gptChangeInterval, %function
 228              	gptChangeInterval:
 229              	.LFB276:
 230              		.loc 1 125 0
 231              		.cfi_startproc
 232              		@ args = 0, pretend = 0, frame = 0
 233              		@ frame_needed = 0, uses_anonymous_args = 0
 234              		@ link register save eliminated.
 235              	.LVL8:
 236              	.LBB140:
 237              	.LBB141:
 238              	.LBB142:
 239              	.LBB143:
 240              	.LBB144:
 241              		.loc 2 548 0
 242 0000 2023     		movs	r3, #32
 243              	@ 548 "../ChibiOS/os/ext/CMSIS/include/core_cmFunc.h" 1
 244 0002 83F31188 		MSR basepri, r3
 245              	@ 0 "" 2
 246              		.thumb
 247              	.LBE144:
 248              	.LBE143:
 249              	.LBE142:
 250              	.LBE141:
 251              	.LBE140:
 252              		.loc 1 132 0
 253 0006 C368     		ldr	r3, [r0, #12]
 254 0008 0139     		subs	r1, r1, #1
 255              	.LVL9:
 256 000a D962     		str	r1, [r3, #44]
 257              	.LVL10:
 258              	.LBB145:
 259              	.LBB146:
 260              	.LBB147:
 261              	.LBB148:
 262              	.LBB149:
 263              	.LBB150:
 264              		.loc 2 548 0
 265 000c 0023     		movs	r3, #0
 266              	@ 548 "../ChibiOS/os/ext/CMSIS/include/core_cmFunc.h" 1
 267 000e 83F31188 		MSR basepri, r3
 268              	@ 0 "" 2
 269              		.thumb
 270 0012 7047     		bx	lr
 271              	.LBE150:
 272              	.LBE149:
 273              	.LBE148:
 274              	.LBE147:
 275              	.LBE146:
 276              	.LBE145:
 277              		.cfi_endproc
 278              	.LFE276:
 279              		.size	gptChangeInterval, .-gptChangeInterval
 280 0014 AFF30080 		.section	.text.gptStartContinuous,"ax",%progbits
 280      AFF30080 
ARM GAS  /tmp/ccSTtryb.s 			page 6


 280      AFF30080 
 281              		.align	2
 282              		.p2align 4,,15
 283              		.global	gptStartContinuous
 284              		.thumb
 285              		.thumb_func
 286              		.type	gptStartContinuous, %function
 287              	gptStartContinuous:
 288              	.LFB277:
 289              		.loc 1 144 0
 290              		.cfi_startproc
 291              		@ args = 0, pretend = 0, frame = 0
 292              		@ frame_needed = 0, uses_anonymous_args = 0
 293              	.LVL11:
 294 0000 08B5     		push	{r3, lr}
 295              		.cfi_def_cfa_offset 8
 296              		.cfi_offset 3, -8
 297              		.cfi_offset 14, -4
 298              	.LBB151:
 299              	.LBB152:
 300              	.LBB153:
 301              	.LBB154:
 302              	.LBB155:
 303              		.loc 2 548 0
 304 0002 2022     		movs	r2, #32
 305              	@ 548 "../ChibiOS/os/ext/CMSIS/include/core_cmFunc.h" 1
 306 0004 82F31188 		MSR basepri, r2
 307              	@ 0 "" 2
 308              	.LVL12:
 309              		.thumb
 310              	.LBE155:
 311              	.LBE154:
 312              	.LBE153:
 313              	.LBE152:
 314              	.LBE151:
 315              	.LBB156:
 316              	.LBB157:
 317              		.loc 1 166 0
 318 0008 0322     		movs	r2, #3
 319 000a 0270     		strb	r2, [r0]
 320              		.loc 1 167 0
 321 000c FFF7FEFF 		bl	gpt_lld_start_timer
 322              	.LVL13:
 323              	.LBE157:
 324              	.LBE156:
 325              	.LBB158:
 326              	.LBB159:
 327              	.LBB160:
 328              	.LBB161:
 329              	.LBB162:
 330              	.LBB163:
 331              		.loc 2 548 0
 332 0010 0023     		movs	r3, #0
 333              	@ 548 "../ChibiOS/os/ext/CMSIS/include/core_cmFunc.h" 1
 334 0012 83F31188 		MSR basepri, r3
 335              	@ 0 "" 2
 336              		.thumb
ARM GAS  /tmp/ccSTtryb.s 			page 7


 337 0016 08BD     		pop	{r3, pc}
 338              	.LBE163:
 339              	.LBE162:
 340              	.LBE161:
 341              	.LBE160:
 342              	.LBE159:
 343              	.LBE158:
 344              		.cfi_endproc
 345              	.LFE277:
 346              		.size	gptStartContinuous, .-gptStartContinuous
 347 0018 AFF30080 		.section	.text.gptStartContinuousI,"ax",%progbits
 347      AFF30080 
 348              		.align	2
 349              		.p2align 4,,15
 350              		.global	gptStartContinuousI
 351              		.thumb
 352              		.thumb_func
 353              		.type	gptStartContinuousI, %function
 354              	gptStartContinuousI:
 355              	.LFB278:
 356              		.loc 1 159 0
 357              		.cfi_startproc
 358              		@ args = 0, pretend = 0, frame = 0
 359              		@ frame_needed = 0, uses_anonymous_args = 0
 360              		@ link register save eliminated.
 361              	.LVL14:
 362              		.loc 1 166 0
 363 0000 0323     		movs	r3, #3
 364 0002 0370     		strb	r3, [r0]
 365              		.loc 1 167 0
 366 0004 FFF7FEBF 		b	gpt_lld_start_timer
 367              	.LVL15:
 368              		.cfi_endproc
 369              	.LFE278:
 370              		.size	gptStartContinuousI, .-gptStartContinuousI
 371 0008 AFF30080 		.section	.text.gptStartOneShot,"ax",%progbits
 371      AFF30080 
 372              		.align	2
 373              		.p2align 4,,15
 374              		.global	gptStartOneShot
 375              		.thumb
 376              		.thumb_func
 377              		.type	gptStartOneShot, %function
 378              	gptStartOneShot:
 379              	.LFB279:
 380              		.loc 1 178 0
 381              		.cfi_startproc
 382              		@ args = 0, pretend = 0, frame = 0
 383              		@ frame_needed = 0, uses_anonymous_args = 0
 384              	.LVL16:
 385 0000 08B5     		push	{r3, lr}
 386              		.cfi_def_cfa_offset 8
 387              		.cfi_offset 3, -8
 388              		.cfi_offset 14, -4
 389              	.LBB164:
 390              	.LBB165:
 391              	.LBB166:
ARM GAS  /tmp/ccSTtryb.s 			page 8


 392              	.LBB167:
 393              	.LBB168:
 394              		.loc 2 548 0
 395 0002 2022     		movs	r2, #32
 396              	@ 548 "../ChibiOS/os/ext/CMSIS/include/core_cmFunc.h" 1
 397 0004 82F31188 		MSR basepri, r2
 398              	@ 0 "" 2
 399              	.LVL17:
 400              		.thumb
 401              	.LBE168:
 402              	.LBE167:
 403              	.LBE166:
 404              	.LBE165:
 405              	.LBE164:
 406              	.LBB169:
 407              	.LBB170:
 408              		.loc 1 201 0
 409 0008 0422     		movs	r2, #4
 410 000a 0270     		strb	r2, [r0]
 411              		.loc 1 202 0
 412 000c FFF7FEFF 		bl	gpt_lld_start_timer
 413              	.LVL18:
 414              	.LBE170:
 415              	.LBE169:
 416              	.LBB171:
 417              	.LBB172:
 418              	.LBB173:
 419              	.LBB174:
 420              	.LBB175:
 421              	.LBB176:
 422              		.loc 2 548 0
 423 0010 0023     		movs	r3, #0
 424              	@ 548 "../ChibiOS/os/ext/CMSIS/include/core_cmFunc.h" 1
 425 0012 83F31188 		MSR basepri, r3
 426              	@ 0 "" 2
 427              		.thumb
 428 0016 08BD     		pop	{r3, pc}
 429              	.LBE176:
 430              	.LBE175:
 431              	.LBE174:
 432              	.LBE173:
 433              	.LBE172:
 434              	.LBE171:
 435              		.cfi_endproc
 436              	.LFE279:
 437              		.size	gptStartOneShot, .-gptStartOneShot
 438 0018 AFF30080 		.section	.text.gptStartOneShotI,"ax",%progbits
 438      AFF30080 
 439              		.align	2
 440              		.p2align 4,,15
 441              		.global	gptStartOneShotI
 442              		.thumb
 443              		.thumb_func
 444              		.type	gptStartOneShotI, %function
 445              	gptStartOneShotI:
 446              	.LFB280:
 447              		.loc 1 193 0
ARM GAS  /tmp/ccSTtryb.s 			page 9


 448              		.cfi_startproc
 449              		@ args = 0, pretend = 0, frame = 0
 450              		@ frame_needed = 0, uses_anonymous_args = 0
 451              		@ link register save eliminated.
 452              	.LVL19:
 453              		.loc 1 201 0
 454 0000 0423     		movs	r3, #4
 455 0002 0370     		strb	r3, [r0]
 456              		.loc 1 202 0
 457 0004 FFF7FEBF 		b	gpt_lld_start_timer
 458              	.LVL20:
 459              		.cfi_endproc
 460              	.LFE280:
 461              		.size	gptStartOneShotI, .-gptStartOneShotI
 462 0008 AFF30080 		.section	.text.gptStopTimer,"ax",%progbits
 462      AFF30080 
 463              		.align	2
 464              		.p2align 4,,15
 465              		.global	gptStopTimer
 466              		.thumb
 467              		.thumb_func
 468              		.type	gptStopTimer, %function
 469              	gptStopTimer:
 470              	.LFB281:
 471              		.loc 1 212 0
 472              		.cfi_startproc
 473              		@ args = 0, pretend = 0, frame = 0
 474              		@ frame_needed = 0, uses_anonymous_args = 0
 475              	.LVL21:
 476 0000 08B5     		push	{r3, lr}
 477              		.cfi_def_cfa_offset 8
 478              		.cfi_offset 3, -8
 479              		.cfi_offset 14, -4
 480              	.LBB177:
 481              	.LBB178:
 482              	.LBB179:
 483              	.LBB180:
 484              	.LBB181:
 485              		.loc 2 548 0
 486 0002 2022     		movs	r2, #32
 487              	@ 548 "../ChibiOS/os/ext/CMSIS/include/core_cmFunc.h" 1
 488 0004 82F31188 		MSR basepri, r2
 489              	@ 0 "" 2
 490              	.LVL22:
 491              		.thumb
 492              	.LBE181:
 493              	.LBE180:
 494              	.LBE179:
 495              	.LBE178:
 496              	.LBE177:
 497              	.LBB182:
 498              	.LBB183:
 499              		.loc 1 234 0
 500 0008 0222     		movs	r2, #2
 501 000a 0270     		strb	r2, [r0]
 502              		.loc 1 235 0
 503 000c FFF7FEFF 		bl	gpt_lld_stop_timer
ARM GAS  /tmp/ccSTtryb.s 			page 10


 504              	.LVL23:
 505              	.LBE183:
 506              	.LBE182:
 507              	.LBB184:
 508              	.LBB185:
 509              	.LBB186:
 510              	.LBB187:
 511              	.LBB188:
 512              	.LBB189:
 513              		.loc 2 548 0
 514 0010 0023     		movs	r3, #0
 515              	@ 548 "../ChibiOS/os/ext/CMSIS/include/core_cmFunc.h" 1
 516 0012 83F31188 		MSR basepri, r3
 517              	@ 0 "" 2
 518              		.thumb
 519 0016 08BD     		pop	{r3, pc}
 520              	.LBE189:
 521              	.LBE188:
 522              	.LBE187:
 523              	.LBE186:
 524              	.LBE185:
 525              	.LBE184:
 526              		.cfi_endproc
 527              	.LFE281:
 528              		.size	gptStopTimer, .-gptStopTimer
 529 0018 AFF30080 		.section	.text.gptStopTimerI,"ax",%progbits
 529      AFF30080 
 530              		.align	2
 531              		.p2align 4,,15
 532              		.global	gptStopTimerI
 533              		.thumb
 534              		.thumb_func
 535              		.type	gptStopTimerI, %function
 536              	gptStopTimerI:
 537              	.LFB282:
 538              		.loc 1 226 0
 539              		.cfi_startproc
 540              		@ args = 0, pretend = 0, frame = 0
 541              		@ frame_needed = 0, uses_anonymous_args = 0
 542              		@ link register save eliminated.
 543              	.LVL24:
 544              		.loc 1 234 0
 545 0000 0223     		movs	r3, #2
 546 0002 0370     		strb	r3, [r0]
 547              		.loc 1 235 0
 548 0004 FFF7FEBF 		b	gpt_lld_stop_timer
 549              	.LVL25:
 550              		.cfi_endproc
 551              	.LFE282:
 552              		.size	gptStopTimerI, .-gptStopTimerI
 553 0008 AFF30080 		.section	.text.gptPolledDelay,"ax",%progbits
 553      AFF30080 
 554              		.align	2
 555              		.p2align 4,,15
 556              		.global	gptPolledDelay
 557              		.thumb
 558              		.thumb_func
ARM GAS  /tmp/ccSTtryb.s 			page 11


 559              		.type	gptPolledDelay, %function
 560              	gptPolledDelay:
 561              	.LFB283:
 562              		.loc 1 250 0
 563              		.cfi_startproc
 564              		@ args = 0, pretend = 0, frame = 0
 565              		@ frame_needed = 0, uses_anonymous_args = 0
 566              	.LVL26:
 567 0000 10B5     		push	{r4, lr}
 568              		.cfi_def_cfa_offset 8
 569              		.cfi_offset 4, -8
 570              		.cfi_offset 14, -4
 571              		.loc 1 255 0
 572 0002 0423     		movs	r3, #4
 573              		.loc 1 250 0
 574 0004 0446     		mov	r4, r0
 575              		.loc 1 255 0
 576 0006 0370     		strb	r3, [r0]
 577              		.loc 1 256 0
 578 0008 FFF7FEFF 		bl	gpt_lld_polled_delay
 579              	.LVL27:
 580              		.loc 1 257 0
 581 000c 0223     		movs	r3, #2
 582 000e 2370     		strb	r3, [r4]
 583 0010 10BD     		pop	{r4, pc}
 584              		.cfi_endproc
 585              	.LFE283:
 586              		.size	gptPolledDelay, .-gptPolledDelay
 587 0012 00BFAFF3 		.text
 587      0080AFF3 
 587      0080AFF3 
 587      0080
 588              	.Letext0:
 589              		.file 3 "/nfs/nfs5/home/research/hardware/arm2/gcc-arm-embedded/gcc-arm-none-eabi-4_8-2014q2/arm-n
 590              		.file 4 "/nfs/nfs5/home/research/hardware/arm2/gcc-arm-embedded/gcc-arm-none-eabi-4_8-2014q2/arm-n
 591              		.file 5 "../ChibiOS/os/rt/ports/ARMCMx/compilers/GCC/chtypes.h"
 592              		.file 6 "../ChibiOS/os/rt/include/chsystypes.h"
 593              		.file 7 "../ChibiOS/os/rt/include/chschd.h"
 594              		.file 8 "../ChibiOS/os/rt/ports/ARMCMx/chcore.h"
 595              		.file 9 "../ChibiOS/os/rt/ports/ARMCMx/chcore_v7m.h"
 596              		.file 10 "../ChibiOS/os/hal/ports/STM32/LLD/TIMv1/stm32_tim.h"
 597              		.file 11 "../ChibiOS/os/rt/include/chtm.h"
 598              		.file 12 "../ChibiOS/os/rt/include/chsem.h"
 599              		.file 13 "../ChibiOS/os/rt/include/chmtx.h"
 600              		.file 14 "../ChibiOS/os/hal/include/gpt.h"
 601              		.file 15 "../ChibiOS/os/hal/ports/STM32/LLD/TIMv1/gpt_lld.h"
 602              		.file 16 "../ChibiOS/os/rt/include/chsys.h"
 603              		.file 17 "../ChibiOS/os/hal/osal/rt/osal.h"
 604              		.file 18 "../ChibiOS/os/ext/CMSIS/include/core_cm4.h"