ARM GAS  /tmp/cc7QDA8Y.s 			page 1


   1              		.syntax unified
   2              		.cpu cortex-m4
   3              		.fpu softvfp
   4              		.eabi_attribute 20, 1
   5              		.eabi_attribute 21, 1
   6              		.eabi_attribute 23, 3
   7              		.eabi_attribute 24, 1
   8              		.eabi_attribute 25, 1
   9              		.eabi_attribute 26, 1
  10              		.eabi_attribute 30, 2
  11              		.eabi_attribute 34, 1
  12              		.eabi_attribute 18, 4
  13              		.thumb
  14              		.file	"main.c"
  15              		.text
  16              	.Ltext0:
  17              		.cfi_sections	.debug_frame
  18              		.section	.text.cmd_data,"ax",%progbits
  19              		.align	2
  20              		.p2align 4,,15
  21              		.global	cmd_data
  22              		.thumb
  23              		.thumb_func
  24              		.type	cmd_data, %function
  25              	cmd_data:
  26              	.LFB282:
  27              		.file 1 "main.c"
  28              		.loc 1 433 0
  29              		.cfi_startproc
  30              		@ args = 0, pretend = 0, frame = 0
  31              		@ frame_needed = 0, uses_anonymous_args = 0
  32              	.LVL0:
  33 0000 70B5     		push	{r4, r5, r6, lr}
  34              		.cfi_def_cfa_offset 16
  35              		.cfi_offset 4, -16
  36              		.cfi_offset 5, -12
  37              		.cfi_offset 6, -8
  38              		.cfi_offset 14, -4
  39 0002 0E4C     		ldr	r4, .L10
  40 0004 82B0     		sub	sp, sp, #8
  41              		.cfi_def_cfa_offset 24
  42              		.loc 1 433 0
  43 0006 6FF02705 		mvn	r5, #39
  44 000a 04F52076 		add	r6, r4, #640
  45 000e 04E0     		b	.L4
  46              	.LVL1:
  47              	.L2:
  48 0010 0834     		adds	r4, r4, #8
  49              		.loc 1 438 0
  50 0012 B442     		cmp	r4, r6
  51 0014 05F10105 		add	r5, r5, #1
  52              	.LVL2:
  53 0018 0ED0     		beq	.L9
  54              	.LVL3:
  55              	.L4:
  56              		.loc 1 439 0
  57 001a 2368     		ldr	r3, [r4]
ARM GAS  /tmp/cc7QDA8Y.s 			page 2


  58 001c 002B     		cmp	r3, #0
  59 001e F7D0     		beq	.L2
  60              		.loc 1 440 0
  61 0020 6268     		ldr	r2, [r4, #4]
  62 0022 0092     		str	r2, [sp]
  63 0024 0648     		ldr	r0, .L10+4
  64 0026 0749     		ldr	r1, .L10+8
  65 0028 2A46     		mov	r2, r5
  66 002a 0834     		adds	r4, r4, #8
  67 002c FFF7FEFF 		bl	chprintf
  68              	.LVL4:
  69              		.loc 1 438 0
  70 0030 B442     		cmp	r4, r6
  71 0032 05F10105 		add	r5, r5, #1
  72              	.LVL5:
  73 0036 F0D1     		bne	.L4
  74              	.LVL6:
  75              	.L9:
  76              		.loc 1 443 0
  77 0038 02B0     		add	sp, sp, #8
  78              		@ sp needed
  79 003a 70BD     		pop	{r4, r5, r6, pc}
  80              	.L11:
  81              		.align	2
  82              	.L10:
  83 003c 00000000 		.word	.LANCHOR0
  84 0040 00000000 		.word	SD1
  85 0044 00000000 		.word	.LC0
  86              		.cfi_endproc
  87              	.LFE282:
  88              		.size	cmd_data, .-cmd_data
  89 0048 AFF30080 		.section	.text.cmd_rtcSet,"ax",%progbits
  89      AFF30080 
  90              		.align	2
  91              		.p2align 4,,15
  92              		.global	cmd_rtcSet
  93              		.thumb
  94              		.thumb_func
  95              		.type	cmd_rtcSet, %function
  96              	cmd_rtcSet:
  97              	.LFB281:
  98              		.loc 1 416 0
  99              		.cfi_startproc
 100              		@ args = 0, pretend = 0, frame = 16
 101              		@ frame_needed = 0, uses_anonymous_args = 0
 102              	.LVL7:
 103 0000 00B5     		push	{lr}
 104              		.cfi_def_cfa_offset 4
 105              		.cfi_offset 14, -4
 106              		.loc 1 424 0
 107 0002 1068     		ldr	r0, [r2]
 108              	.LVL8:
 109              		.loc 1 416 0
 110 0004 85B0     		sub	sp, sp, #20
 111              		.cfi_def_cfa_offset 24
 112              		.loc 1 424 0
 113 0006 FFF7FEFF 		bl	atoi
ARM GAS  /tmp/cc7QDA8Y.s 			page 3


 114              	.LVL9:
 115 000a 04AB     		add	r3, sp, #16
 116 000c 43F80C0D 		str	r0, [r3, #-12]!
 117              		.loc 1 426 0
 118 0010 1846     		mov	r0, r3
 119 0012 FFF7FEFF 		bl	localtime
 120              	.LVL10:
 121              		.loc 1 427 0
 122 0016 02AA     		add	r2, sp, #8
 123 0018 0021     		movs	r1, #0
 124 001a FFF7FEFF 		bl	rtcConvertStructTmToDateTime
 125              	.LVL11:
 126              		.loc 1 428 0
 127 001e 02A9     		add	r1, sp, #8
 128 0020 0248     		ldr	r0, .L13
 129 0022 FFF7FEFF 		bl	rtcSetTime
 130              	.LVL12:
 131              		.loc 1 429 0
 132 0026 05B0     		add	sp, sp, #20
 133              		@ sp needed
 134 0028 5DF804FB 		ldr	pc, [sp], #4
 135              	.L14:
 136              		.align	2
 137              	.L13:
 138 002c 00000000 		.word	RTCD1
 139              		.cfi_endproc
 140              	.LFE281:
 141              		.size	cmd_rtcSet, .-cmd_rtcSet
 142              		.section	.text.extcb,"ax",%progbits
 143              		.align	2
 144              		.p2align 4,,15
 145              		.thumb
 146              		.thumb_func
 147              		.type	extcb, %function
 148              	extcb:
 149              	.LFB283:
 150              		.loc 1 463 0
 151              		.cfi_startproc
 152              		@ args = 0, pretend = 0, frame = 0
 153              		@ frame_needed = 0, uses_anonymous_args = 0
 154              	.LVL13:
 155 0000 08B5     		push	{r3, lr}
 156              		.cfi_def_cfa_offset 8
 157              		.cfi_offset 3, -8
 158              		.cfi_offset 14, -4
 159              	.LBB61:
 160              	.LBB62:
 161              	.LBB63:
 162              	.LBB64:
 163              	.LBB65:
 164              		.file 2 "../ChibiOS/os/ext/CMSIS/include/core_cmFunc.h"
 165              		.loc 2 548 0
 166 0002 2023     		movs	r3, #32
 167              	@ 548 "../ChibiOS/os/ext/CMSIS/include/core_cmFunc.h" 1
 168 0004 83F31188 		MSR basepri, r3
 169              	@ 0 "" 2
 170              	.LVL14:
ARM GAS  /tmp/cc7QDA8Y.s 			page 4


 171              		.thumb
 172              	.LBE65:
 173              	.LBE64:
 174              	.LBE63:
 175              	.LBE62:
 176              	.LBE61:
 177              	.LBB66:
 178              	.LBB67:
 179              		.file 3 "../ChibiOS/os/rt/include/chbsem.h"
 180              		.loc 3 270 0
 181 0008 0648     		ldr	r0, .L18
 182              	.LVL15:
 183 000a 8368     		ldr	r3, [r0, #8]
 184 000c 002B     		cmp	r3, #0
 185 000e 03DD     		ble	.L17
 186              	.LVL16:
 187              	.LBE67:
 188              	.LBE66:
 189              	.LBB69:
 190              	.LBB70:
 191              	.LBB71:
 192              	.LBB72:
 193              	.LBB73:
 194              		.loc 2 548 0
 195 0010 0023     		movs	r3, #0
 196              	@ 548 "../ChibiOS/os/ext/CMSIS/include/core_cmFunc.h" 1
 197 0012 83F31188 		MSR basepri, r3
 198              	@ 0 "" 2
 199              		.thumb
 200 0016 08BD     		pop	{r3, pc}
 201              	.LVL17:
 202              	.L17:
 203              	.LBE73:
 204              	.LBE72:
 205              	.LBE71:
 206              	.LBE70:
 207              	.LBE69:
 208              	.LBB78:
 209              	.LBB68:
 210              		.loc 3 271 0
 211 0018 FFF7FEFF 		bl	chSemSignalI
 212              	.LVL18:
 213              	.LBE68:
 214              	.LBE78:
 215              	.LBB79:
 216              	.LBB77:
 217              	.LBB76:
 218              	.LBB75:
 219              	.LBB74:
 220              		.loc 2 548 0
 221 001c 0023     		movs	r3, #0
 222              	@ 548 "../ChibiOS/os/ext/CMSIS/include/core_cmFunc.h" 1
 223 001e 83F31188 		MSR basepri, r3
 224              	@ 0 "" 2
 225              		.thumb
 226 0022 08BD     		pop	{r3, pc}
 227              	.L19:
ARM GAS  /tmp/cc7QDA8Y.s 			page 5


 228              		.align	2
 229              	.L18:
 230 0024 00000000 		.word	.LANCHOR1
 231              	.LBE74:
 232              	.LBE75:
 233              	.LBE76:
 234              	.LBE77:
 235              	.LBE79:
 236              		.cfi_endproc
 237              	.LFE283:
 238              		.size	extcb, .-extcb
 239 0028 AFF30080 		.section	.text.termination_handler,"ax",%progbits
 239      AFF30080 
 240              		.align	2
 241              		.p2align 4,,15
 242              		.thumb
 243              		.thumb_func
 244              		.type	termination_handler, %function
 245              	termination_handler:
 246              	.LFB284:
 247              		.loc 1 504 0
 248              		.cfi_startproc
 249              		@ args = 0, pretend = 0, frame = 0
 250              		@ frame_needed = 0, uses_anonymous_args = 0
 251              	.LVL19:
 252 0000 10B5     		push	{r4, lr}
 253              		.cfi_def_cfa_offset 8
 254              		.cfi_offset 4, -8
 255              		.cfi_offset 14, -4
 256              		.loc 1 509 0
 257 0002 0E4C     		ldr	r4, .L26
 258              		.loc 1 507 0
 259 0004 0E48     		ldr	r0, .L26+4
 260              	.LVL20:
 261 0006 0F49     		ldr	r1, .L26+8
 262 0008 FFF7FEFF 		bl	chprintf
 263              	.LVL21:
 264              		.loc 1 509 0
 265 000c 2068     		ldr	r0, [r4]
 266 000e 10B1     		cbz	r0, .L20
 267              	.LVL22:
 268              		.loc 1 509 0 is_stmt 0 discriminator 1
 269 0010 037F     		ldrb	r3, [r0, #28]	@ zero_extendqisi2
 270 0012 0F2B     		cmp	r3, #15
 271 0014 00D0     		beq	.L25
 272              	.LVL23:
 273              	.L20:
 274 0016 10BD     		pop	{r4, pc}
 275              	.LVL24:
 276              	.L25:
 277              		.loc 1 510 0 is_stmt 1
 278 0018 FFF7FEFF 		bl	chThdWait
 279              	.LVL25:
 280              		.loc 1 511 0
 281 001c 0A49     		ldr	r1, .L26+12
 282 001e 0848     		ldr	r0, .L26+4
 283 0020 FFF7FEFF 		bl	chprintf
ARM GAS  /tmp/cc7QDA8Y.s 			page 6


 284              	.LVL26:
 285              		.loc 1 512 0
 286 0024 4FF47A70 		mov	r0, #1000
 287 0028 FFF7FEFF 		bl	chThdSleep
 288              	.LVL27:
 289              		.loc 1 513 0
 290 002c 0748     		ldr	r0, .L26+16
 291 002e 40F6C801 		movw	r1, #2248
 292 0032 4022     		movs	r2, #64
 293 0034 FFF7FEFF 		bl	shellCreate
 294              	.LVL28:
 295 0038 2060     		str	r0, [r4]
 296 003a 10BD     		pop	{r4, pc}
 297              	.L27:
 298              		.align	2
 299              	.L26:
 300 003c 00000000 		.word	.LANCHOR2
 301 0040 00000000 		.word	SD1
 302 0044 10000000 		.word	.LC1
 303 0048 20000000 		.word	.LC2
 304 004c 00000000 		.word	.LANCHOR3
 305              		.cfi_endproc
 306              	.LFE284:
 307              		.size	termination_handler, .-termination_handler
 308              		.section	.text.counterThread,"ax",%progbits
 309              		.align	2
 310              		.p2align 4,,15
 311              		.thumb
 312              		.thumb_func
 313              		.type	counterThread, %function
 314              	counterThread:
 315              	.LFB277:
 316              		.loc 1 268 0
 317              		.cfi_startproc
 318              		@ Volatile: function does not return.
 319              		@ args = 0, pretend = 0, frame = 0
 320              		@ frame_needed = 0, uses_anonymous_args = 0
 321              	.LVL29:
 322 0000 08B5     		push	{r3, lr}
 323              		.cfi_def_cfa_offset 8
 324              		.cfi_offset 3, -8
 325              		.cfi_offset 14, -4
 326 0002 0B4E     		ldr	r6, .L30
 327              		.loc 1 272 0
 328 0004 0B4D     		ldr	r5, .L30+4
 329 0006 0124     		movs	r4, #1
 330              	.LVL30:
 331              	.L29:
 332              		.loc 1 271 0 discriminator 1
 333 0008 40F6C410 		movw	r0, #2500
 334 000c FFF7FEFF 		bl	chThdSleep
 335              	.LVL31:
 336              		.loc 1 272 0 discriminator 1
 337 0010 3368     		ldr	r3, [r6]
 338 0012 04FA03F3 		lsl	r3, r4, r3
 339 0016 9BB2     		uxth	r3, r3
 340 0018 2B83     		strh	r3, [r5, #24]	@ movhi
ARM GAS  /tmp/cc7QDA8Y.s 			page 7


 341              		.loc 1 273 0 discriminator 1
 342 001a 40F6C410 		movw	r0, #2500
 343 001e FFF7FEFF 		bl	chThdSleep
 344              	.LVL32:
 345              		.loc 1 274 0 discriminator 1
 346 0022 3368     		ldr	r3, [r6]
 347 0024 04FA03F3 		lsl	r3, r4, r3
 348 0028 9BB2     		uxth	r3, r3
 349 002a 6B83     		strh	r3, [r5, #26]	@ movhi
 350 002c ECE7     		b	.L29
 351              	.L31:
 352 002e 00BF     		.align	2
 353              	.L30:
 354 0030 00000000 		.word	.LANCHOR4
 355 0034 00100048 		.word	1207963648
 356              		.cfi_endproc
 357              	.LFE277:
 358              		.size	counterThread, .-counterThread
 359 0038 AFF30080 		.section	.text.dataThread,"ax",%progbits
 359      AFF30080 
 360              		.align	2
 361              		.p2align 4,,15
 362              		.thumb
 363              		.thumb_func
 364              		.type	dataThread, %function
 365              	dataThread:
 366              	.LFB278:
 367              		.loc 1 280 0
 368              		.cfi_startproc
 369              		@ args = 0, pretend = 0, frame = 64
 370              		@ frame_needed = 0, uses_anonymous_args = 0
 371              	.LVL33:
 372 0000 2DE9F04F 		push	{r4, r5, r6, r7, r8, r9, r10, fp, lr}
 373              		.cfi_def_cfa_offset 36
 374              		.cfi_offset 4, -36
 375              		.cfi_offset 5, -32
 376              		.cfi_offset 6, -28
 377              		.cfi_offset 7, -24
 378              		.cfi_offset 8, -20
 379              		.cfi_offset 9, -16
 380              		.cfi_offset 10, -12
 381              		.cfi_offset 11, -8
 382              		.cfi_offset 14, -4
 383 0004 DFF8D890 		ldr	r9, .L41+16
 384              		.loc 1 292 0
 385 0008 3148     		ldr	r0, .L41
 386              	.LVL34:
 387 000a 324E     		ldr	r6, .L41+4
 388              	.LBB80:
 389              		.loc 1 295 0
 390 000c 324F     		ldr	r7, .L41+8
 391              	.LBB81:
 392              		.loc 1 310 0
 393 000e DFF8D480 		ldr	r8, .L41+20
 394              	.LBE81:
 395              	.LBE80:
 396              		.loc 1 280 0
ARM GAS  /tmp/cc7QDA8Y.s 			page 8


 397 0012 91B0     		sub	sp, sp, #68
 398              		.cfi_def_cfa_offset 104
 399              		.loc 1 292 0
 400 0014 4FF0FF33 		mov	r3, #-1
 401 0018 01A9     		add	r1, sp, #4
 402 001a 1E22     		movs	r2, #30
 403 001c FFF7FEFF 		bl	chIQReadTimeout
 404              	.LVL35:
 405 0020 D9F80430 		ldr	r3, [r9, #4]
 406 0024 0DF13F04 		add	r4, sp, #63
 407              	.L36:
 408              	.LBB83:
 409              		.loc 1 295 0
 410 0028 0122     		movs	r2, #1
 411 002a 02FA03F3 		lsl	r3, r2, r3
 412 002e 9BB2     		uxth	r3, r3
 413 0030 3B83     		strh	r3, [r7, #24]	@ movhi
 414              		.loc 1 296 0
 415 0032 0DF12201 		add	r1, sp, #34
 416 0036 1E22     		movs	r2, #30
 417 0038 4FF0FF33 		mov	r3, #-1
 418 003c 2448     		ldr	r0, .L41
 419 003e FFF7FEFF 		bl	chIQReadTimeout
 420              	.LVL36:
 421              		.loc 1 299 0
 422 0042 4FF0000A 		mov	r10, #0
 423              		.loc 1 301 0
 424 0046 01A8     		add	r0, sp, #4
 425 0048 2449     		ldr	r1, .L41+12
 426              		.loc 1 298 0
 427 004a 9DF836B0 		ldrb	fp, [sp, #54]	@ zero_extendqisi2
 428              	.LVL37:
 429              		.loc 1 299 0
 430 004e 8DF836A0 		strb	r10, [sp, #54]
 431              	.LVL38:
 432              		.loc 1 301 0
 433 0052 FFF7FEFF 		bl	strstr
 434              	.LVL39:
 435              		.loc 1 303 0
 436 0056 8DF836B0 		strb	fp, [sp, #54]
 437              		.loc 1 305 0
 438 005a 0546     		mov	r5, r0
 439 005c 40B3     		cbz	r0, .L33
 440              	.LBB82:
 441              		.loc 1 306 0
 442 005e 80F810A0 		strb	r10, [r0, #16]
 443              		.loc 1 307 0
 444 0062 0730     		adds	r0, r0, #7
 445              	.LVL40:
 446 0064 FFF7FEFF 		bl	atoi
 447              	.LVL41:
 448 0068 3060     		str	r0, [r6]
 449              		.loc 1 308 0
 450 006a 05F10E00 		add	r0, r5, #14
 451 006e FFF7FEFF 		bl	atoi
 452              	.LVL42:
 453              		.loc 1 309 0
ARM GAS  /tmp/cc7QDA8Y.s 			page 9


 454 0072 3168     		ldr	r1, [r6]
 455              	.LVL43:
 456              		.loc 1 316 0
 457 0074 85F816A0 		strb	r10, [r5, #22]
 458              		.loc 1 310 0
 459 0078 A8FB0123 		umull	r2, r3, r8, r1
 460 007c 5B09     		lsrs	r3, r3, #5
 461              	.LVL44:
 462              		.loc 1 311 0
 463 007e A8FB0325 		umull	r2, r5, r8, r3
 464              	.LVL45:
 465              		.loc 1 313 0
 466 0082 DFF864E0 		ldr	lr, .L41+24
 467              		.loc 1 311 0
 468 0086 6422     		movs	r2, #100
 469 0088 6D09     		lsrs	r5, r5, #5
 470              		.loc 1 313 0
 471 008a 0EFB05FE 		mul	lr, lr, r5
 472              		.loc 1 311 0
 473 008e 02FB1535 		mls	r5, r2, r5, r3
 474              		.loc 1 309 0
 475 0092 02FB1313 		mls	r3, r2, r3, r1
 476              	.LVL46:
 477              		.loc 1 311 0
 478 0096 4EF66022 		movw	r2, #60000
 479              		.loc 1 314 0
 480 009a 02FB05E5 		mla	r5, r2, r5, lr
 481              		.loc 1 309 0
 482 009e 4FF47A72 		mov	r2, #1000
 483              		.loc 1 308 0
 484 00a2 00EB8000 		add	r0, r0, r0, lsl #2
 485              	.LVL47:
 486              		.loc 1 314 0
 487 00a6 02FB0353 		mla	r3, r2, r3, r5
 488 00aa 03EB4003 		add	r3, r3, r0, lsl #1
 489 00ae 3360     		str	r3, [r6]
 490              	.LVL48:
 491              	.L33:
 492 00b0 0DF12103 		add	r3, sp, #33
 493              	.LVL49:
 494              	.L35:
 495              	.LBE82:
 496              		.loc 1 325 0 discriminator 2
 497 00b4 13F8012F 		ldrb	r2, [r3, #1]!	@ zero_extendqisi2
 498              	.LVL50:
 499 00b8 03F81E2C 		strb	r2, [r3, #-30]
 500              	.LVL51:
 501              		.loc 1 324 0 discriminator 2
 502 00bc A342     		cmp	r3, r4
 503 00be F9D1     		bne	.L35
 504              		.loc 1 330 0
 505 00c0 D9F80430 		ldr	r3, [r9, #4]
 506              	.LVL52:
 507 00c4 0122     		movs	r2, #1
 508 00c6 9A40     		lsls	r2, r2, r3
 509 00c8 92B2     		uxth	r2, r2
 510 00ca 7A83     		strh	r2, [r7, #26]	@ movhi
ARM GAS  /tmp/cc7QDA8Y.s 			page 10


 511              	.LBE83:
 512              		.loc 1 332 0
 513 00cc ACE7     		b	.L36
 514              	.L42:
 515 00ce 00BF     		.align	2
 516              	.L41:
 517 00d0 0C000000 		.word	SD2+12
 518 00d4 00000000 		.word	.LANCHOR5
 519 00d8 00100048 		.word	1207963648
 520 00dc 48000000 		.word	.LC3
 521 00e0 00000000 		.word	.LANCHOR4
 522 00e4 1F85EB51 		.word	1374389535
 523 00e8 80EE3600 		.word	3600000
 524              		.cfi_endproc
 525              	.LFE278:
 526              		.size	dataThread, .-dataThread
 527              		.global	__aeabi_i2d
 528              		.global	__aeabi_dmul
 529              		.global	__aeabi_dsub
 530              		.global	__aeabi_ddiv
 531              		.global	__aeabi_dadd
 532              		.global	__aeabi_d2iz
 533 00ec AFF30080 		.section	.text.cmd_time,"ax",%progbits
 534              		.align	2
 535              		.p2align 4,,15
 536              		.thumb
 537              		.thumb_func
 538              		.type	cmd_time, %function
 539              	cmd_time:
 540              	.LFB280:
 541              		.loc 1 392 0
 542              		.cfi_startproc
 543              		@ args = 0, pretend = 0, frame = 48
 544              		@ frame_needed = 0, uses_anonymous_args = 0
 545              	.LVL53:
 546 0000 2DE9D047 		push	{r4, r6, r7, r8, r9, r10, lr}
 547              		.cfi_def_cfa_offset 28
 548              		.cfi_offset 4, -28
 549              		.cfi_offset 6, -24
 550              		.cfi_offset 7, -20
 551              		.cfi_offset 8, -16
 552              		.cfi_offset 9, -12
 553              		.cfi_offset 10, -8
 554              		.cfi_offset 14, -4
 555 0004 8FB0     		sub	sp, sp, #60
 556              		.cfi_def_cfa_offset 88
 557              		.loc 1 392 0
 558 0006 8146     		mov	r9, r0
 559              		.loc 1 400 0
 560 0008 03A9     		add	r1, sp, #12
 561              	.LVL54:
 562 000a 3B48     		ldr	r0, .L44+24
 563              	.LVL55:
 564              		.loc 1 405 0
 565 000c 3B4C     		ldr	r4, .L44+28
 566              		.loc 1 408 0
 567 000e 3C4E     		ldr	r6, .L44+32
ARM GAS  /tmp/cc7QDA8Y.s 			page 11


 568              		.loc 1 409 0
 569 0010 3C4F     		ldr	r7, .L44+36
 570              		.loc 1 400 0
 571 0012 FFF7FEFF 		bl	rtcGetTime
 572              	.LVL56:
 573              		.loc 1 401 0
 574 0016 4846     		mov	r0, r9
 575 0018 3B49     		ldr	r1, .L44+40
 576 001a FFF7FEFF 		bl	chprintf
 577              	.LVL57:
 578              		.loc 1 402 0
 579 001e 05A9     		add	r1, sp, #20
 580 0020 03A8     		add	r0, sp, #12
 581 0022 0022     		movs	r2, #0
 582 0024 FFF7FEFF 		bl	rtcConvertDateTimeToStructTm
 583              	.LVL58:
 584              		.loc 1 403 0
 585 0028 05A8     		add	r0, sp, #20
 586 002a FFF7FEFF 		bl	asctime
 587              	.LVL59:
 588              		.loc 1 405 0
 589 002e 5523     		movs	r3, #85
 590              		.loc 1 406 0
 591 0030 2246     		mov	r2, r4
 592              		.loc 1 403 0
 593 0032 8046     		mov	r8, r0
 594              	.LVL60:
 595              		.loc 1 405 0
 596 0034 2380     		strh	r3, [r4]	@ movhi
 597              		.loc 1 406 0
 598 0036 3549     		ldr	r1, .L44+44
 599 0038 3548     		ldr	r0, .L44+48
 600              	.LVL61:
 601 003a 0123     		movs	r3, #1
 602 003c FFF7FEFF 		bl	adcStartConversion
 603              	.LVL62:
 604              		.loc 1 407 0
 605 0040 4FF47A70 		mov	r0, #1000
 606 0044 FFF7FEFF 		bl	chThdSleep
 607              	.LVL63:
 608              		.loc 1 408 0
 609 0048 B4F800A0 		ldrh	r10, [r4]
 610 004c 5046     		mov	r0, r10
 611 004e FFF7FEFF 		bl	__aeabi_i2d
 612              	.LVL64:
 613 0052 23A3     		adr	r3, .L44
 614 0054 D3E90023 		ldrd	r2, [r3]
 615 0058 FFF7FEFF 		bl	__aeabi_dmul
 616              	.LVL65:
 617 005c 0022     		movs	r2, #0
 618 005e 2D4B     		ldr	r3, .L44+52
 619 0060 FFF7FEFF 		bl	__aeabi_dmul
 620              	.LVL66:
 621 0064 0246     		mov	r2, r0
 622 0066 0B46     		mov	r3, r1
 623 0068 1FA1     		adr	r1, .L44+8
 624 006a D1E90001 		ldrd	r0, [r1]
ARM GAS  /tmp/cc7QDA8Y.s 			page 12


 625 006e FFF7FEFF 		bl	__aeabi_dsub
 626              	.LVL67:
 627 0072 1FA3     		adr	r3, .L44+16
 628 0074 D3E90023 		ldrd	r2, [r3]
 629 0078 FFF7FEFF 		bl	__aeabi_ddiv
 630              	.LVL68:
 631 007c 264B     		ldr	r3, .L44+56
 632 007e 0022     		movs	r2, #0
 633 0080 FFF7FEFF 		bl	__aeabi_dadd
 634              	.LVL69:
 635 0084 FFF7FEFF 		bl	__aeabi_d2iz
 636              	.LVL70:
 637              		.loc 1 409 0
 638 0088 5246     		mov	r2, r10
 639              		.loc 1 408 0
 640 008a 3060     		str	r0, [r6]
 641              		.loc 1 409 0
 642 008c 2349     		ldr	r1, .L44+60
 643 008e 3846     		mov	r0, r7
 644 0090 FFF7FEFF 		bl	chprintf
 645              	.LVL71:
 646              		.loc 1 410 0
 647 0094 3268     		ldr	r2, [r6]
 648 0096 2249     		ldr	r1, .L44+64
 649 0098 3846     		mov	r0, r7
 650 009a FFF7FEFF 		bl	chprintf
 651              	.LVL72:
 652              		.loc 1 411 0
 653 009e 214B     		ldr	r3, .L44+68
 654 00a0 2149     		ldr	r1, .L44+72
 655 00a2 1A68     		ldr	r2, [r3]
 656 00a4 3846     		mov	r0, r7
 657 00a6 FFF7FEFF 		bl	chprintf
 658              	.LVL73:
 659              		.loc 1 412 0
 660 00aa 4046     		mov	r0, r8
 661 00ac FFF7FEFF 		bl	strlen
 662              	.LVL74:
 663 00b0 0499     		ldr	r1, [sp, #16]
 664 00b2 1E4A     		ldr	r2, .L44+76
 665 00b4 3368     		ldr	r3, [r6]
 666 00b6 0193     		str	r3, [sp, #4]
 667 00b8 C1F31A01 		ubfx	r1, r1, #0, #27
 668 00bc 82FB0143 		smull	r4, r3, r2, r1
 669 00c0 0538     		subs	r0, r0, #5
 670 00c2 4044     		add	r0, r0, r8
 671 00c4 4FF47A74 		mov	r4, #1000
 672 00c8 9B09     		lsrs	r3, r3, #6
 673 00ca 0090     		str	r0, [sp]
 674 00cc 04FB1313 		mls	r3, r4, r3, r1
 675 00d0 4846     		mov	r0, r9
 676 00d2 4246     		mov	r2, r8
 677 00d4 1649     		ldr	r1, .L44+80
 678 00d6 FFF7FEFF 		bl	chprintf
 679              	.LVL75:
 680              		.loc 1 413 0
 681 00da 0FB0     		add	sp, sp, #60
ARM GAS  /tmp/cc7QDA8Y.s 			page 13


 682              		@ sp needed
 683 00dc BDE8D087 		pop	{r4, r6, r7, r8, r9, r10, pc}
 684              	.LVL76:
 685              	.L45:
 686              		.align	3
 687              	.L44:
 688 00e0 66666666 		.word	1717986918
 689 00e4 66660A40 		.word	1074423398
 690 00e8 00000020 		.word	536870912
 691 00ec 5C8FF63F 		.word	1073123164
 692 00f0 00000080 		.word	-2147483648
 693 00f4 E09C713F 		.word	1064410336
 694 00f8 00000000 		.word	RTCD1
 695 00fc 00000000 		.word	.LANCHOR6
 696 0100 00000000 		.word	.LANCHOR8
 697 0104 00000000 		.word	SD1
 698 0108 50000000 		.word	.LC4
 699 010c 00000000 		.word	.LANCHOR7
 700 0110 00000000 		.word	ADCD1
 701 0114 0000303F 		.word	1060110336
 702 0118 00003940 		.word	1077477376
 703 011c 54000000 		.word	.LC5
 704 0120 64000000 		.word	.LC6
 705 0124 00000000 		.word	.LANCHOR9
 706 0128 78000000 		.word	.LC7
 707 012c D34D6210 		.word	274877907
 708 0130 84000000 		.word	.LC8
 709              		.cfi_endproc
 710              	.LFE280:
 711              		.size	cmd_time, .-cmd_time
 712 0134 AFF30080 		.section	.text.init_mmc,"ax",%progbits
 712      AFF30080 
 712      AFF30080 
 713              		.align	2
 714              		.p2align 4,,15
 715              		.global	init_mmc
 716              		.thumb
 717              		.thumb_func
 718              		.type	init_mmc, %function
 719              	init_mmc:
 720              	.LFB272:
 721              		.loc 1 156 0
 722              		.cfi_startproc
 723              		@ args = 0, pretend = 0, frame = 0
 724              		@ frame_needed = 0, uses_anonymous_args = 0
 725              	.LVL77:
 726 0000 F8B5     		push	{r3, r4, r5, r6, r7, lr}
 727              		.cfi_def_cfa_offset 24
 728              		.cfi_offset 3, -24
 729              		.cfi_offset 4, -20
 730              		.cfi_offset 5, -16
 731              		.cfi_offset 6, -12
 732              		.cfi_offset 7, -8
 733              		.cfi_offset 14, -4
 734              		.loc 1 157 0
 735 0002 1A4C     		ldr	r4, .L47
 736              		.loc 1 162 0
ARM GAS  /tmp/cc7QDA8Y.s 			page 14


 737 0004 1A4F     		ldr	r7, .L47+4
 738              		.loc 1 166 0
 739 0006 1B4E     		ldr	r6, .L47+8
 740              		.loc 1 156 0
 741 0008 0546     		mov	r5, r0
 742              		.loc 1 157 0
 743 000a 4FF40051 		mov	r1, #8192
 744 000e 2046     		mov	r0, r4
 745              	.LVL78:
 746 0010 40F28222 		movw	r2, #642
 747 0014 FFF7FEFF 		bl	_pal_lld_setgroupmode
 748              	.LVL79:
 749              		.loc 1 158 0
 750 0018 2046     		mov	r0, r4
 751 001a 4FF48041 		mov	r1, #16384
 752 001e 40F28222 		movw	r2, #642
 753 0022 FFF7FEFF 		bl	_pal_lld_setgroupmode
 754              	.LVL80:
 755              		.loc 1 159 0
 756 0026 2046     		mov	r0, r4
 757 0028 4FF40041 		mov	r1, #32768
 758 002c 40F28222 		movw	r2, #642
 759 0030 FFF7FEFF 		bl	_pal_lld_setgroupmode
 760              	.LVL81:
 761              		.loc 1 162 0
 762 0034 0121     		movs	r1, #1
 763 0036 3846     		mov	r0, r7
 764 0038 0A46     		mov	r2, r1
 765 003a FFF7FEFF 		bl	_pal_lld_setgroupmode
 766              	.LVL82:
 767              		.loc 1 163 0
 768 003e 0123     		movs	r3, #1
 769 0040 3B83     		strh	r3, [r7, #24]	@ movhi
 770              		.loc 1 166 0
 771 0042 3046     		mov	r0, r6
 772 0044 4FF40071 		mov	r1, #512
 773 0048 2022     		movs	r2, #32
 774 004a FFF7FEFF 		bl	_pal_lld_setgroupmode
 775              	.LVL83:
 776              		.loc 1 167 0
 777 004e 4FF40073 		mov	r3, #512
 778 0052 7383     		strh	r3, [r6, #26]	@ movhi
 779              		.loc 1 170 0
 780 0054 2846     		mov	r0, r5
 781 0056 FFF7FEFF 		bl	mmcObjectInit
 782              	.LVL84:
 783              		.loc 1 171 0
 784 005a 2846     		mov	r0, r5
 785 005c 0649     		ldr	r1, .L47+12
 786 005e FFF7FEFF 		bl	mmcStart
 787              	.LVL85:
 788              		.loc 1 172 0
 789 0062 0648     		ldr	r0, .L47+16
 790              		.loc 1 173 0
 791 0064 BDE8F840 		pop	{r3, r4, r5, r6, r7, lr}
 792              	.LVL86:
 793              		.loc 1 172 0
ARM GAS  /tmp/cc7QDA8Y.s 			page 15


 794 0068 FFF7FEBF 		b	chMtxObjectInit
 795              	.LVL87:
 796              	.L48:
 797              		.align	2
 798              	.L47:
 799 006c 00040048 		.word	1207960576
 800 0070 00080048 		.word	1207961600
 801 0074 000C0048 		.word	1207962624
 802 0078 00000000 		.word	.LANCHOR10
 803 007c 00000000 		.word	.LANCHOR11
 804              		.cfi_endproc
 805              	.LFE272:
 806              		.size	init_mmc, .-init_mmc
 807              		.section	.text.appendToCard,"ax",%progbits
 808              		.align	2
 809              		.p2align 4,,15
 810              		.global	appendToCard
 811              		.thumb
 812              		.thumb_func
 813              		.type	appendToCard, %function
 814              	appendToCard:
 815              	.LFB273:
 816              		.loc 1 175 0
 817              		.cfi_startproc
 818              		@ args = 0, pretend = 0, frame = 8
 819              		@ frame_needed = 0, uses_anonymous_args = 0
 820              	.LVL88:
 821 0000 F0B5     		push	{r4, r5, r6, r7, lr}
 822              		.cfi_def_cfa_offset 20
 823              		.cfi_offset 4, -20
 824              		.cfi_offset 5, -16
 825              		.cfi_offset 6, -12
 826              		.cfi_offset 7, -8
 827              		.cfi_offset 14, -4
 828 0002 0D46     		mov	r5, r1
 829 0004 83B0     		sub	sp, sp, #12
 830              		.cfi_def_cfa_offset 32
 831              		.loc 1 175 0
 832 0006 0446     		mov	r4, r0
 833              		.loc 1 181 0
 834 0008 1F48     		ldr	r0, .L64
 835              	.LVL89:
 836              		.loc 1 175 0
 837 000a 1746     		mov	r7, r2
 838 000c 1E46     		mov	r6, r3
 839              		.loc 1 181 0
 840 000e FFF7FEFF 		bl	chMtxLock
 841              	.LVL90:
 842              		.loc 1 183 0
 843 0012 2946     		mov	r1, r5
 844 0014 2046     		mov	r0, r4
 845 0016 1222     		movs	r2, #18
 846 0018 FFF7FEFF 		bl	f_open
 847              	.LVL91:
 848              		.loc 1 185 0
 849 001c 0546     		mov	r5, r0
 850              	.LVL92:
ARM GAS  /tmp/cc7QDA8Y.s 			page 16


 851              		.loc 1 184 0
 852 001e 0028     		cmp	r0, #0
 853 0020 2BD1     		bne	.L62
 854              	.LVL93:
 855              	.L50:
 856              		.loc 1 190 0
 857 0022 2046     		mov	r0, r4
 858 0024 E168     		ldr	r1, [r4, #12]
 859 0026 FFF7FEFF 		bl	f_lseek
 860              	.LVL94:
 861              		.loc 1 191 0
 862 002a F8B9     		cbnz	r0, .L63
 863              	.LVL95:
 864              	.L51:
 865              		.loc 1 197 0
 866 002c 3946     		mov	r1, r7
 867 002e 3246     		mov	r2, r6
 868 0030 2046     		mov	r0, r4
 869 0032 01AB     		add	r3, sp, #4
 870 0034 FFF7FEFF 		bl	f_write
 871              	.LVL96:
 872              		.loc 1 199 0
 873 0038 88B9     		cbnz	r0, .L52
 874              		.loc 1 199 0 is_stmt 0 discriminator 1
 875 003a 019B     		ldr	r3, [sp, #4]
 876 003c 7BB1     		cbz	r3, .L52
 877              	.LVL97:
 878              	.L53:
 879              		.loc 1 204 0 is_stmt 1
 880 003e 2046     		mov	r0, r4
 881 0040 FFF7FEFF 		bl	f_close
 882              	.LVL98:
 883              		.loc 1 205 0
 884 0044 28B1     		cbz	r0, .L54
 885              		.loc 1 206 0
 886 0046 0546     		mov	r5, r0
 887              	.LVL99:
 888              	.LBB84:
 889              	.LBB85:
 890              		.loc 1 214 0
 891 0048 0246     		mov	r2, r0
 892 004a 1049     		ldr	r1, .L64+4
 893 004c 1048     		ldr	r0, .L64+8
 894              	.LVL100:
 895 004e FFF7FEFF 		bl	chprintf
 896              	.LVL101:
 897              	.L54:
 898              	.LBE85:
 899              	.LBE84:
 900              		.loc 1 209 0
 901 0052 0D48     		ldr	r0, .L64
 902 0054 FFF7FEFF 		bl	chMtxUnlock
 903              	.LVL102:
 904              		.loc 1 211 0
 905 0058 2846     		mov	r0, r5
 906 005a 03B0     		add	sp, sp, #12
 907              		@ sp needed
ARM GAS  /tmp/cc7QDA8Y.s 			page 17


 908 005c F0BD     		pop	{r4, r5, r6, r7, pc}
 909              	.LVL103:
 910              	.L52:
 911              		.loc 1 200 0
 912 005e 0546     		mov	r5, r0
 913              	.LVL104:
 914              	.LBB86:
 915              	.LBB87:
 916              		.loc 1 214 0
 917 0060 0246     		mov	r2, r0
 918 0062 0A49     		ldr	r1, .L64+4
 919 0064 0A48     		ldr	r0, .L64+8
 920              	.LVL105:
 921 0066 FFF7FEFF 		bl	chprintf
 922              	.LVL106:
 923 006a E8E7     		b	.L53
 924              	.LVL107:
 925              	.L63:
 926              	.LBE87:
 927              	.LBE86:
 928              		.loc 1 192 0
 929 006c 0546     		mov	r5, r0
 930              	.LVL108:
 931              	.LBB88:
 932              	.LBB89:
 933              		.loc 1 214 0
 934 006e 0246     		mov	r2, r0
 935 0070 0649     		ldr	r1, .L64+4
 936 0072 0748     		ldr	r0, .L64+8
 937              	.LVL109:
 938 0074 FFF7FEFF 		bl	chprintf
 939              	.LVL110:
 940 0078 D8E7     		b	.L51
 941              	.LVL111:
 942              	.L62:
 943              	.LBE89:
 944              	.LBE88:
 945              	.LBB90:
 946              	.LBB91:
 947 007a 0246     		mov	r2, r0
 948 007c 0349     		ldr	r1, .L64+4
 949 007e 0448     		ldr	r0, .L64+8
 950              	.LVL112:
 951 0080 FFF7FEFF 		bl	chprintf
 952              	.LVL113:
 953 0084 CDE7     		b	.L50
 954              	.L65:
 955 0086 00BF     		.align	2
 956              	.L64:
 957 0088 00000000 		.word	.LANCHOR11
 958 008c A4000000 		.word	.LC9
 959 0090 00000000 		.word	SD1
 960              	.LBE91:
 961              	.LBE90:
 962              		.cfi_endproc
 963              	.LFE273:
 964              		.size	appendToCard, .-appendToCard
ARM GAS  /tmp/cc7QDA8Y.s 			page 18


 965 0094 AFF30080 		.section	.text.buttonThread,"ax",%progbits
 965      AFF30080 
 965      AFF30080 
 966              		.align	2
 967              		.p2align 4,,15
 968              		.thumb
 969              		.thumb_func
 970              		.type	buttonThread, %function
 971              	buttonThread:
 972              	.LFB279:
 973              		.loc 1 337 0
 974              		.cfi_startproc
 975              		@ args = 0, pretend = 0, frame = 112
 976              		@ frame_needed = 0, uses_anonymous_args = 0
 977              	.LVL114:
 978 0000 2DE9F04F 		push	{r4, r5, r6, r7, r8, r9, r10, fp, lr}
 979              		.cfi_def_cfa_offset 36
 980              		.cfi_offset 4, -36
 981              		.cfi_offset 5, -32
 982              		.cfi_offset 6, -28
 983              		.cfi_offset 7, -24
 984              		.cfi_offset 8, -20
 985              		.cfi_offset 9, -16
 986              		.cfi_offset 10, -12
 987              		.cfi_offset 11, -8
 988              		.cfi_offset 14, -4
 989 0004 DFF87481 		ldr	r8, .L74+84
 990 0008 4D4F     		ldr	r7, .L74+24
 991 000a DFF874B1 		ldr	fp, .L74+88
 992 000e DFF87491 		ldr	r9, .L74+92
 993 0012 DFF874A1 		ldr	r10, .L74+96
 994 0016 4B4E     		ldr	r6, .L74+28
 995 0018 A1B0     		sub	sp, sp, #132
 996              		.cfi_def_cfa_offset 168
 997 001a 63E0     		b	.L72
 998              	.LVL115:
 999              	.L73:
 1000 001c D9F800E0 		ldr	lr, [r9]
 1001              	.L68:
 1002              	.LBB92:
 1003              		.loc 1 353 0
 1004 0020 069C     		ldr	r4, [sp, #24]
 1005 0022 DAF80030 		ldr	r3, [r10]
 1006              		.loc 1 354 0
 1007 0026 484A     		ldr	r2, .L74+32
 1008              		.loc 1 353 0
 1009 0028 C4F31A04 		ubfx	r4, r4, #0, #27
 1010 002c 9C42     		cmp	r4, r3
 1011 002e 74D3     		bcc	.L69
 1012 0030 D2F800C0 		ldr	ip, [r2]
 1013              	.L70:
 1014              		.loc 1 359 0
 1015 0034 F445     		cmp	ip, lr
 1016              		.loc 1 363 0
 1017 0036 454A     		ldr	r2, .L74+36
 1018 0038 4549     		ldr	r1, .L74+40
 1019 003a 4648     		ldr	r0, .L74+44
ARM GAS  /tmp/cc7QDA8Y.s 			page 19


 1020 003c 4FF00103 		mov	r3, #1
 1021              		.loc 1 357 0
 1022 0040 C5EB0404 		rsb	r4, r5, r4
 1023              	.LVL116:
 1024              		.loc 1 359 0
 1025 0044 05D2     		bcs	.L71
 1026              		.loc 1 360 0
 1027 0046 04F1A464 		add	r4, r4, #85983232
 1028              	.LVL117:
 1029 004a 04F5CB24 		add	r4, r4, #415744
 1030              	.LVL118:
 1031 004e 04F58064 		add	r4, r4, #1024
 1032              	.LVL119:
 1033              	.L71:
 1034              		.loc 1 363 0
 1035 0052 FFF7FEFF 		bl	adcStartConversion
 1036              	.LVL120:
 1037              		.loc 1 364 0
 1038 0056 4FF47A70 		mov	r0, #1000
 1039 005a FFF7FEFF 		bl	chThdSleep
 1040              	.LVL121:
 1041              		.loc 1 365 0
 1042 005e 3B4B     		ldr	r3, .L74+36
 1043 0060 1D88     		ldrh	r5, [r3]
 1044 0062 2846     		mov	r0, r5
 1045 0064 FFF7FEFF 		bl	__aeabi_i2d
 1046              	.LVL122:
 1047 0068 2FA3     		adr	r3, .L74
 1048 006a D3E90023 		ldrd	r2, [r3]
 1049 006e FFF7FEFF 		bl	__aeabi_dmul
 1050              	.LVL123:
 1051 0072 0022     		movs	r2, #0
 1052 0074 384B     		ldr	r3, .L74+48
 1053 0076 FFF7FEFF 		bl	__aeabi_dmul
 1054              	.LVL124:
 1055 007a 0246     		mov	r2, r0
 1056 007c 0B46     		mov	r3, r1
 1057 007e 2CA1     		adr	r1, .L74+8
 1058 0080 D1E90001 		ldrd	r0, [r1]
 1059 0084 FFF7FEFF 		bl	__aeabi_dsub
 1060              	.LVL125:
 1061 0088 2BA3     		adr	r3, .L74+16
 1062 008a D3E90023 		ldrd	r2, [r3]
 1063 008e FFF7FEFF 		bl	__aeabi_ddiv
 1064              	.LVL126:
 1065 0092 0022     		movs	r2, #0
 1066 0094 314B     		ldr	r3, .L74+52
 1067 0096 FFF7FEFF 		bl	__aeabi_dadd
 1068              	.LVL127:
 1069 009a FFF7FEFF 		bl	__aeabi_d2iz
 1070              	.LVL128:
 1071 009e 8646     		mov	lr, r0
 1072              		.loc 1 370 0
 1073 00a0 3B68     		ldr	r3, [r7]
 1074 00a2 069A     		ldr	r2, [sp, #24]
 1075 00a4 2E49     		ldr	r1, .L74+56
 1076 00a6 0295     		str	r5, [sp, #8]
ARM GAS  /tmp/cc7QDA8Y.s 			page 20


 1077 00a8 8DE81040 		stmia	sp, {r4, lr}
 1078              		.loc 1 365 0
 1079 00ac 2D4C     		ldr	r4, .L74+60
 1080              	.LVL129:
 1081              		.loc 1 370 0
 1082 00ae 22F07842 		bic	r2, r2, #-134217728
 1083              		.loc 1 365 0
 1084 00b2 C4F800E0 		str	lr, [r4]
 1085              		.loc 1 370 0
 1086 00b6 07A8     		add	r0, sp, #28
 1087 00b8 FFF7FEFF 		bl	sprintf
 1088              	.LVL130:
 1089              		.loc 1 375 0
 1090 00bc 07A8     		add	r0, sp, #28
 1091 00be FFF7FEFF 		bl	strlen
 1092              	.LVL131:
 1093 00c2 2949     		ldr	r1, .L74+64
 1094 00c4 0346     		mov	r3, r0
 1095 00c6 07AA     		add	r2, sp, #28
 1096 00c8 2848     		ldr	r0, .L74+68
 1097 00ca FFF7FEFF 		bl	appendToCard
 1098              	.LVL132:
 1099              		.loc 1 382 0
 1100 00ce D8F81030 		ldr	r3, [r8, #16]
 1101 00d2 274A     		ldr	r2, .L74+72
 1102 00d4 0121     		movs	r1, #1
 1103 00d6 01FA03F3 		lsl	r3, r1, r3
 1104 00da 9BB2     		uxth	r3, r3
 1105 00dc 5383     		strh	r3, [r2, #26]	@ movhi
 1106              		.loc 1 383 0
 1107 00de 3368     		ldr	r3, [r6]
 1108 00e0 0B44     		add	r3, r3, r1
 1109 00e2 3360     		str	r3, [r6]
 1110              	.LVL133:
 1111              	.L72:
 1112              	.LBB93:
 1113              	.LBB94:
 1114              		.loc 3 143 0
 1115 00e4 2348     		ldr	r0, .L74+76
 1116 00e6 FFF7FEFF 		bl	chSemWait
 1117              	.LVL134:
 1118              	.LBE94:
 1119              	.LBE93:
 1120              		.loc 1 346 0
 1121 00ea D8F81030 		ldr	r3, [r8, #16]
 1122 00ee 204A     		ldr	r2, .L74+72
 1123              		.loc 1 348 0
 1124 00f0 2148     		ldr	r0, .L74+80
 1125              		.loc 1 346 0
 1126 00f2 0121     		movs	r1, #1
 1127 00f4 01FA03F3 		lsl	r3, r1, r3
 1128 00f8 9BB2     		uxth	r3, r3
 1129 00fa 1383     		strh	r3, [r2, #24]	@ movhi
 1130              		.loc 1 348 0
 1131 00fc 05A9     		add	r1, sp, #20
 1132 00fe FFF7FEFF 		bl	rtcGetTime
 1133              	.LVL135:
ARM GAS  /tmp/cc7QDA8Y.s 			page 21


 1134              		.loc 1 350 0
 1135 0102 3D68     		ldr	r5, [r7]
 1136 0104 DBF80030 		ldr	r3, [fp]
 1137 0108 AB42     		cmp	r3, r5
 1138 010a 87D9     		bls	.L73
 1139              		.loc 1 351 0
 1140 010c D9F80030 		ldr	r3, [r9]
 1141 0110 0133     		adds	r3, r3, #1
 1142 0112 C9F80030 		str	r3, [r9]
 1143 0116 9E46     		mov	lr, r3
 1144 0118 82E7     		b	.L68
 1145              	.L69:
 1146              		.loc 1 354 0
 1147 011a 1368     		ldr	r3, [r2]
 1148 011c 0133     		adds	r3, r3, #1
 1149 011e 1360     		str	r3, [r2]
 1150 0120 9C46     		mov	ip, r3
 1151 0122 87E7     		b	.L70
 1152              	.L75:
 1153 0124 AFF30080 		.align	3
 1154              	.L74:
 1155 0128 66666666 		.word	1717986918
 1156 012c 66660A40 		.word	1074423398
 1157 0130 00000020 		.word	536870912
 1158 0134 5C8FF63F 		.word	1073123164
 1159 0138 00000080 		.word	-2147483648
 1160 013c E09C713F 		.word	1064410336
 1161 0140 00000000 		.word	.LANCHOR5
 1162 0144 00000000 		.word	.LANCHOR9
 1163 0148 00000000 		.word	.LANCHOR15
 1164 014c 00000000 		.word	.LANCHOR6
 1165 0150 00000000 		.word	.LANCHOR7
 1166 0154 00000000 		.word	ADCD1
 1167 0158 0000303F 		.word	1060110336
 1168 015c 00003940 		.word	1077477376
 1169 0160 BC000000 		.word	.LC10
 1170 0164 00000000 		.word	.LANCHOR8
 1171 0168 D8000000 		.word	.LC11
 1172 016c 00000000 		.word	.LANCHOR16
 1173 0170 00100048 		.word	1207963648
 1174 0174 00000000 		.word	.LANCHOR1
 1175 0178 00000000 		.word	RTCD1
 1176 017c 00000000 		.word	.LANCHOR4
 1177 0180 00000000 		.word	.LANCHOR12
 1178 0184 00000000 		.word	.LANCHOR13
 1179 0188 00000000 		.word	.LANCHOR14
 1180              	.LBE92:
 1181              		.cfi_endproc
 1182              	.LFE279:
 1183              		.size	buttonThread, .-buttonThread
 1184 018c AFF30080 		.section	.text.cmd_writeSD,"ax",%progbits
 1185              		.align	2
 1186              		.p2align 4,,15
 1187              		.thumb
 1188              		.thumb_func
 1189              		.type	cmd_writeSD, %function
 1190              	cmd_writeSD:
ARM GAS  /tmp/cc7QDA8Y.s 			page 22


 1191              	.LFB276:
 1192              		.loc 1 230 0
 1193              		.cfi_startproc
 1194              		@ args = 0, pretend = 0, frame = 104
 1195              		@ frame_needed = 0, uses_anonymous_args = 0
 1196              	.LVL136:
 1197 0000 10B5     		push	{r4, lr}
 1198              		.cfi_def_cfa_offset 8
 1199              		.cfi_offset 4, -8
 1200              		.cfi_offset 14, -4
 1201              		.loc 1 251 0
 1202 0002 074B     		ldr	r3, .L77
 1203 0004 93E80700 		ldmia	r3, {r0, r1, r2}
 1204              	.LVL137:
 1205              		.loc 1 230 0
 1206 0008 9AB0     		sub	sp, sp, #104
 1207              		.cfi_def_cfa_offset 112
 1208              		.loc 1 251 0
 1209 000a 01AC     		add	r4, sp, #4
 1210 000c 03C4     		stmia	r4!, {r0, r1}
 1211              		.loc 1 252 0
 1212 000e 0823     		movs	r3, #8
 1213              		.loc 1 251 0
 1214 0010 2270     		strb	r2, [r4]
 1215              		.loc 1 252 0
 1216 0012 0449     		ldr	r1, .L77+4
 1217 0014 0448     		ldr	r0, .L77+8
 1218 0016 01AA     		add	r2, sp, #4
 1219 0018 FFF7FEFF 		bl	appendToCard
 1220              	.LVL138:
 1221              		.loc 1 254 0
 1222 001c 1AB0     		add	sp, sp, #104
 1223              		@ sp needed
 1224 001e 10BD     		pop	{r4, pc}
 1225              	.L78:
 1226              		.align	2
 1227              	.L77:
 1228 0020 E8000000 		.word	.LC12
 1229 0024 D8000000 		.word	.LC11
 1230 0028 00000000 		.word	.LANCHOR16
 1231              		.cfi_endproc
 1232              	.LFE276:
 1233              		.size	cmd_writeSD, .-cmd_writeSD
 1234 002c AFF30080 		.section	.text.die,"ax",%progbits
 1235              		.align	2
 1236              		.p2align 4,,15
 1237              		.global	die
 1238              		.thumb
 1239              		.thumb_func
 1240              		.type	die, %function
 1241              	die:
 1242              	.LFB274:
 1243              		.loc 1 213 0
 1244              		.cfi_startproc
 1245              		@ args = 0, pretend = 0, frame = 0
 1246              		@ frame_needed = 0, uses_anonymous_args = 0
 1247              		@ link register save eliminated.
ARM GAS  /tmp/cc7QDA8Y.s 			page 23


 1248              	.LVL139:
 1249              		.loc 1 213 0
 1250 0000 0246     		mov	r2, r0
 1251              		.loc 1 214 0
 1252 0002 0249     		ldr	r1, .L80
 1253 0004 0248     		ldr	r0, .L80+4
 1254              	.LVL140:
 1255 0006 FFF7FEBF 		b	chprintf
 1256              	.LVL141:
 1257              	.L81:
 1258 000a 00BF     		.align	2
 1259              	.L80:
 1260 000c A4000000 		.word	.LC9
 1261 0010 00000000 		.word	SD1
 1262              		.cfi_endproc
 1263              	.LFE274:
 1264              		.size	die, .-die
 1265 0014 AFF30080 		.section	.text.initSDcard,"ax",%progbits
 1265      AFF30080 
 1265      AFF30080 
 1266              		.align	2
 1267              		.p2align 4,,15
 1268              		.global	initSDcard
 1269              		.thumb
 1270              		.thumb_func
 1271              		.type	initSDcard, %function
 1272              	initSDcard:
 1273              	.LFB275:
 1274              		.loc 1 217 0
 1275              		.cfi_startproc
 1276              		@ args = 0, pretend = 0, frame = 0
 1277              		@ frame_needed = 0, uses_anonymous_args = 0
 1278 0000 08B5     		push	{r3, lr}
 1279              		.cfi_def_cfa_offset 8
 1280              		.cfi_offset 3, -8
 1281              		.cfi_offset 14, -4
 1282              		.loc 1 218 0
 1283 0002 0C48     		ldr	r0, .L85
 1284 0004 FFF7FEFF 		bl	init_mmc
 1285              	.LVL142:
 1286              		.loc 1 219 0
 1287 0008 0B48     		ldr	r0, .L85+4
 1288 000a 0C49     		ldr	r1, .L85+8
 1289 000c FFF7FEFF 		bl	chprintf
 1290              	.LVL143:
 1291              		.loc 1 221 0
 1292 0010 0B4B     		ldr	r3, .L85+12
 1293              		.loc 1 222 0
 1294 0012 0948     		ldr	r0, .L85+4
 1295              		.loc 1 221 0
 1296 0014 1B69     		ldr	r3, [r3, #16]
 1297 0016 9B05     		lsls	r3, r3, #22
 1298 0018 04D4     		bmi	.L84
 1299              		.loc 1 225 0
 1300 001a 0A49     		ldr	r1, .L85+16
 1301              		.loc 1 228 0
 1302 001c BDE80840 		pop	{r3, lr}
ARM GAS  /tmp/cc7QDA8Y.s 			page 24


 1303              		.loc 1 225 0
 1304 0020 FFF7FEBF 		b	chprintf
 1305              	.LVL144:
 1306              	.L84:
 1307              		.loc 1 222 0
 1308 0024 0849     		ldr	r1, .L85+20
 1309 0026 FFF7FEFF 		bl	chprintf
 1310              	.LVL145:
 1311              		.loc 1 223 0
 1312 002a 0248     		ldr	r0, .L85
 1313              		.loc 1 228 0
 1314 002c BDE80840 		pop	{r3, lr}
 1315              		.loc 1 223 0
 1316 0030 FFF7FEBF 		b	mmcConnect
 1317              	.LVL146:
 1318              	.L86:
 1319              		.align	2
 1320              	.L85:
 1321 0034 00000000 		.word	.LANCHOR17
 1322 0038 00000000 		.word	SD1
 1323 003c F4000000 		.word	.LC13
 1324 0040 000C0048 		.word	1207962624
 1325 0044 20010000 		.word	.LC15
 1326 0048 0C010000 		.word	.LC14
 1327              		.cfi_endproc
 1328              	.LFE275:
 1329              		.size	initSDcard, .-initSDcard
 1330 004c AFF30080 		.section	.text.startup.main,"ax",%progbits
 1331              		.align	2
 1332              		.p2align 4,,15
 1333              		.global	main
 1334              		.thumb
 1335              		.thumb_func
 1336              		.type	main, %function
 1337              	main:
 1338              	.LFB285:
 1339              		.loc 1 525 0
 1340              		.cfi_startproc
 1341              		@ args = 0, pretend = 0, frame = 24
 1342              		@ frame_needed = 0, uses_anonymous_args = 0
 1343 0000 10B5     		push	{r4, lr}
 1344              		.cfi_def_cfa_offset 8
 1345              		.cfi_offset 4, -8
 1346              		.cfi_offset 14, -4
 1347 0002 88B0     		sub	sp, sp, #32
 1348              		.cfi_def_cfa_offset 40
 1349              		.loc 1 535 0
 1350 0004 FFF7FEFF 		bl	halInit
 1351              	.LVL147:
 1352              		.loc 1 536 0
 1353 0008 FFF7FEFF 		bl	chSysInit
 1354              	.LVL148:
 1355              	.LBB95:
 1356              	.LBB96:
 1357              		.loc 3 126 0
 1358 000c 5148     		ldr	r0, .L94
 1359 000e 0021     		movs	r1, #0
ARM GAS  /tmp/cc7QDA8Y.s 			page 25


 1360 0010 FFF7FEFF 		bl	chSemObjectInit
 1361              	.LVL149:
 1362              	.LBE96:
 1363              	.LBE95:
 1364              		.loc 1 539 0
 1365 0014 5048     		ldr	r0, .L94+4
 1366 0016 5149     		ldr	r1, .L94+8
 1367 0018 FFF7FEFF 		bl	extStart
 1368              	.LVL150:
 1369              		.loc 1 542 0
 1370 001c 5048     		ldr	r0, .L94+12
 1371 001e 5149     		ldr	r1, .L94+16
 1372 0020 FFF7FEFF 		bl	adcStart
 1373              	.LVL151:
 1374              		.loc 1 544 0
 1375 0024 0123     		movs	r3, #1
 1376 0026 504A     		ldr	r2, .L94+20
 1377 0028 4D48     		ldr	r0, .L94+12
 1378 002a 5049     		ldr	r1, .L94+24
 1379 002c FFF7FEFF 		bl	adcStartConversion
 1380              	.LVL152:
 1381              		.loc 1 551 0
 1382 0030 4F48     		ldr	r0, .L94+28
 1383 0032 5049     		ldr	r1, .L94+32
 1384 0034 FFF7FEFF 		bl	sdStart
 1385              	.LVL153:
 1386              		.loc 1 552 0
 1387 0038 4FF09040 		mov	r0, #1207959552
 1388 003c 0421     		movs	r1, #4
 1389 003e 40F28232 		movw	r2, #898
 1390 0042 FFF7FEFF 		bl	_pal_lld_setgroupmode
 1391              	.LVL154:
 1392              		.loc 1 553 0
 1393 0046 40F28232 		movw	r2, #898
 1394 004a 4FF09040 		mov	r0, #1207959552
 1395 004e 0821     		movs	r1, #8
 1396 0050 FFF7FEFF 		bl	_pal_lld_setgroupmode
 1397              	.LVL155:
 1398              		.loc 1 555 0
 1399 0054 4848     		ldr	r0, .L94+36
 1400 0056 0021     		movs	r1, #0
 1401 0058 FFF7FEFF 		bl	sdStart
 1402              	.LVL156:
 1403              		.loc 1 556 0
 1404 005c 4748     		ldr	r0, .L94+40
 1405 005e 1021     		movs	r1, #16
 1406 0060 40F28232 		movw	r2, #898
 1407 0064 FFF7FEFF 		bl	_pal_lld_setgroupmode
 1408              	.LVL157:
 1409              		.loc 1 557 0
 1410 0068 4448     		ldr	r0, .L94+40
 1411 006a 2021     		movs	r1, #32
 1412 006c 40F28232 		movw	r2, #898
 1413 0070 FFF7FEFF 		bl	_pal_lld_setgroupmode
 1414              	.LVL158:
 1415              		.loc 1 564 0
 1416 0074 4FF09040 		mov	r0, #1207959552
ARM GAS  /tmp/cc7QDA8Y.s 			page 26


 1417 0078 2021     		movs	r1, #32
 1418 007a 40F28222 		movw	r2, #642
 1419 007e FFF7FEFF 		bl	_pal_lld_setgroupmode
 1420              	.LVL159:
 1421              		.loc 1 565 0
 1422 0082 4FF09040 		mov	r0, #1207959552
 1423 0086 4021     		movs	r1, #64
 1424 0088 40F28222 		movw	r2, #642
 1425 008c FFF7FEFF 		bl	_pal_lld_setgroupmode
 1426              	.LVL160:
 1427              		.loc 1 566 0
 1428 0090 4FF09040 		mov	r0, #1207959552
 1429 0094 8021     		movs	r1, #128
 1430 0096 40F28222 		movw	r2, #642
 1431 009a FFF7FEFF 		bl	_pal_lld_setgroupmode
 1432              	.LVL161:
 1433              		.loc 1 567 0
 1434 009e 4FF09040 		mov	r0, #1207959552
 1435 00a2 4FF48071 		mov	r1, #256
 1436 00a6 0122     		movs	r2, #1
 1437 00a8 FFF7FEFF 		bl	_pal_lld_setgroupmode
 1438              	.LVL162:
 1439              		.loc 1 568 0
 1440 00ac 4FF09043 		mov	r3, #1207959552
 1441 00b0 4FF48072 		mov	r2, #256
 1442 00b4 1A83     		strh	r2, [r3, #24]	@ movhi
 1443              		.loc 1 570 0
 1444 00b6 3249     		ldr	r1, .L94+44
 1445 00b8 2F48     		ldr	r0, .L94+36
 1446 00ba FFF7FEFF 		bl	chprintf
 1447              	.LVL163:
 1448              		.loc 1 573 0
 1449 00be FFF7FEFF 		bl	shellInit
 1450              	.LVL164:
 1451              		.loc 1 576 0
 1452 00c2 FFF7FEFF 		bl	initSDcard
 1453              	.LVL165:
 1454              		.loc 1 577 0
 1455 00c6 0022     		movs	r2, #0
 1456 00c8 2E48     		ldr	r0, .L94+48
 1457 00ca 2F49     		ldr	r1, .L94+52
 1458 00cc FFF7FEFF 		bl	f_mount
 1459              	.LVL166:
 1460 00d0 2E4B     		ldr	r3, .L94+56
 1461 00d2 0246     		mov	r2, r0
 1462 00d4 1870     		strb	r0, [r3]
 1463              		.loc 1 579 0
 1464 00d6 0028     		cmp	r0, #0
 1465 00d8 36D1     		bne	.L93
 1466              	.L88:
 1467              	.LVL167:
 1468              	.LBB97:
 1469              	.LBB98:
 1470              	.LBB99:
 1471              		.file 4 "../ChibiOS/os/rt/include/chevents.h"
 1472              		.loc 4 193 0
 1473 00da 2D48     		ldr	r0, .L94+60
ARM GAS  /tmp/cc7QDA8Y.s 			page 27


 1474 00dc 03A9     		add	r1, sp, #12
 1475              	.LVL168:
 1476 00de 0122     		movs	r2, #1
 1477 00e0 4FF0FF33 		mov	r3, #-1
 1478 00e4 FFF7FEFF 		bl	chEvtRegisterMaskWithFlags
 1479              	.LVL169:
 1480              	.LBE99:
 1481              	.LBE98:
 1482              	.LBE97:
 1483              		.loc 1 588 0
 1484 00e8 0C23     		movs	r3, #12
 1485 00ea 2A49     		ldr	r1, .L94+64
 1486 00ec 1A68     		ldr	r2, [r3]
 1487 00ee 2248     		ldr	r0, .L94+36
 1488 00f0 FFF7FEFF 		bl	chprintf
 1489              	.LVL170:
 1490              		.loc 1 590 0
 1491 00f4 40F6C801 		movw	r1, #2248
 1492 00f8 4022     		movs	r2, #64
 1493 00fa 2748     		ldr	r0, .L94+68
 1494 00fc FFF7FEFF 		bl	shellCreate
 1495              	.LVL171:
 1496 0100 264A     		ldr	r2, .L94+72
 1497              		.loc 1 591 0
 1498 0102 274B     		ldr	r3, .L94+76
 1499              		.loc 1 590 0
 1500 0104 1060     		str	r0, [r2]
 1501              		.loc 1 591 0
 1502 0106 0024     		movs	r4, #0
 1503 0108 4FF4A471 		mov	r1, #328
 1504 010c 4122     		movs	r2, #65
 1505 010e 0094     		str	r4, [sp]
 1506 0110 2448     		ldr	r0, .L94+80
 1507 0112 FFF7FEFF 		bl	chThdCreateStatic
 1508              	.LVL172:
 1509              		.loc 1 592 0
 1510 0116 244B     		ldr	r3, .L94+84
 1511 0118 0094     		str	r4, [sp]
 1512 011a 4FF4A471 		mov	r1, #328
 1513 011e 4122     		movs	r2, #65
 1514 0120 2248     		ldr	r0, .L94+88
 1515 0122 FFF7FEFF 		bl	chThdCreateStatic
 1516              	.LVL173:
 1517              		.loc 1 593 0
 1518 0126 0094     		str	r4, [sp]
 1519 0128 2148     		ldr	r0, .L94+92
 1520 012a 224B     		ldr	r3, .L94+96
 1521 012c 40F6C801 		movw	r1, #2248
 1522 0130 4122     		movs	r2, #65
 1523 0132 FFF7FEFF 		bl	chThdCreateStatic
 1524              	.LVL174:
 1525              	.L89:
 1526              		.loc 1 596 0 discriminator 1
 1527 0136 4FF0FF30 		mov	r0, #-1
 1528 013a FFF7FEFF 		bl	chEvtWaitOne
 1529              	.LVL175:
 1530 013e 0146     		mov	r1, r0
ARM GAS  /tmp/cc7QDA8Y.s 			page 28


 1531 0140 1D48     		ldr	r0, .L94+100
 1532 0142 FFF7FEFF 		bl	chEvtDispatch
 1533              	.LVL176:
 1534 0146 F6E7     		b	.L89
 1535              	.LVL177:
 1536              	.L93:
 1537              	.LBB100:
 1538              	.LBB101:
 1539              		.loc 1 214 0 discriminator 1
 1540 0148 1C49     		ldr	r1, .L94+104
 1541 014a 0B48     		ldr	r0, .L94+36
 1542              	.LVL178:
 1543 014c FFF7FEFF 		bl	chprintf
 1544              	.LVL179:
 1545 0150 C3E7     		b	.L88
 1546              	.L95:
 1547 0152 00BF     		.align	2
 1548              	.L94:
 1549 0154 00000000 		.word	.LANCHOR1
 1550 0158 00000000 		.word	EXTD1
 1551 015c 00000000 		.word	.LANCHOR18
 1552 0160 00000000 		.word	ADCD1
 1553 0164 00000000 		.word	.LANCHOR19
 1554 0168 00000000 		.word	.LANCHOR6
 1555 016c 00000000 		.word	.LANCHOR7
 1556 0170 00000000 		.word	SD2
 1557 0174 00000000 		.word	.LANCHOR20
 1558 0178 00000000 		.word	SD1
 1559 017c 00080048 		.word	1207961600
 1560 0180 38010000 		.word	.LC16
 1561 0184 00000000 		.word	.LANCHOR21
 1562 0188 50010000 		.word	.LC17
 1563 018c 00000000 		.word	.LANCHOR22
 1564 0190 00000000 		.word	shell_terminated
 1565 0194 54010000 		.word	.LC18
 1566 0198 00000000 		.word	.LANCHOR3
 1567 019c 00000000 		.word	.LANCHOR2
 1568 01a0 00000000 		.word	counterThread
 1569 01a4 00000000 		.word	.LANCHOR23
 1570 01a8 00000000 		.word	dataThread
 1571 01ac 00000000 		.word	.LANCHOR24
 1572 01b0 00000000 		.word	.LANCHOR25
 1573 01b4 00000000 		.word	buttonThread
 1574 01b8 00000000 		.word	.LANCHOR26
 1575 01bc A4000000 		.word	.LC9
 1576              	.LBE101:
 1577              	.LBE100:
 1578              		.cfi_endproc
 1579              	.LFE285:
 1580              		.size	main, .-main
 1581              		.global	trailExtcfg
 1582              		.global	MMCD1
 1583              		.global	br
 1584              		.global	bw
 1585              		.global	fno
 1586              		.global	dir
 1587              		.global	rc
ARM GAS  /tmp/cc7QDA8Y.s 			page 29


 1588              		.global	fil
 1589              		.global	SDC_FS
 1590              		.global	leds
 1591              		.global	tempList
 1592              		.global	edgeTime
 1593              		.global	dayRTC
 1594              		.global	dayGPS
 1595              		.global	lastRTC
 1596              		.global	lastGPS
 1597              		.global	curGPS
 1598              		.global	bsem
 1599              		.global	total_count
 1600              		.global	temperature
 1601              		.global	Avg_Slope
 1602              		.global	V25
 1603              		.section	.bss.samples_buf,"aw",%nobits
 1604              		.align	2
 1605              		.set	.LANCHOR6,. + 0
 1606              		.type	samples_buf, %object
 1607              		.size	samples_buf, 2
 1608              	samples_buf:
 1609 0000 0000     		.space	2
 1610 0002 0000     		.section	.rodata.Avg_Slope,"a",%progbits
 1611              		.align	2
 1612              		.type	Avg_Slope, %object
 1613              		.size	Avg_Slope, 4
 1614              	Avg_Slope:
 1615 0000 04E78C3B 		.word	999089924
 1616              		.section	.bss.rc,"aw",%nobits
 1617              		.set	.LANCHOR22,. + 0
 1618              		.type	rc, %object
 1619              		.size	rc, 1
 1620              	rc:
 1621 0000 00       		.space	1
 1622              		.section	.rodata.adcgrpcfg,"a",%progbits
 1623              		.align	2
 1624              		.set	.LANCHOR7,. + 0
 1625              		.type	adcgrpcfg, %object
 1626              		.size	adcgrpcfg, 44
 1627              	adcgrpcfg:
 1628 0000 00       		.byte	0
 1629 0001 00       		.space	1
 1630 0002 0100     		.short	1
 1631 0004 00000000 		.word	0
 1632 0008 00000000 		.word	0
 1633 000c 00000000 		.word	0
 1634 0010 00000000 		.word	0
 1635 0014 0000C000 		.word	12582912
 1636 0018 00000000 		.word	0
 1637 001c 00040000 		.word	1024
 1638 0020 00000000 		.word	0
 1639 0024 00000000 		.word	0
 1640 0028 00000000 		.word	0
 1641              		.section	.bss.dayRTC,"aw",%nobits
 1642              		.align	2
 1643              		.set	.LANCHOR15,. + 0
 1644              		.type	dayRTC, %object
ARM GAS  /tmp/cc7QDA8Y.s 			page 30


 1645              		.size	dayRTC, 4
 1646              	dayRTC:
 1647 0000 00000000 		.space	4
 1648              		.section	.bss.tempList,"aw",%nobits
 1649              		.align	2
 1650              		.set	.LANCHOR0,. + 0
 1651              		.type	tempList, %object
 1652              		.size	tempList, 640
 1653              	tempList:
 1654 0000 00000000 		.space	640
 1654      00000000 
 1654      00000000 
 1654      00000000 
 1654      00000000 
 1655              		.section	.bss.curGPS,"aw",%nobits
 1656              		.align	2
 1657              		.set	.LANCHOR5,. + 0
 1658              		.type	curGPS, %object
 1659              		.size	curGPS, 4
 1660              	curGPS:
 1661 0000 00000000 		.space	4
 1662              		.section	.bss.br,"aw",%nobits
 1663              		.align	2
 1664              		.type	br, %object
 1665              		.size	br, 4
 1666              	br:
 1667 0000 00000000 		.space	4
 1668              		.section	.bss.total_count,"aw",%nobits
 1669              		.align	2
 1670              		.set	.LANCHOR9,. + 0
 1671              		.type	total_count, %object
 1672              		.size	total_count, 4
 1673              	total_count:
 1674 0000 00000000 		.space	4
 1675              		.section	.bss.dir,"aw",%nobits
 1676              		.align	2
 1677              		.type	dir, %object
 1678              		.size	dir, 28
 1679              	dir:
 1680 0000 00000000 		.space	28
 1680      00000000 
 1680      00000000 
 1680      00000000 
 1680      00000000 
 1681              		.section	.bss.adccfg,"aw",%nobits
 1682              		.align	2
 1683              		.set	.LANCHOR19,. + 0
 1684              		.type	adccfg, %object
 1685              		.size	adccfg, 4
 1686              	adccfg:
 1687 0000 00000000 		.space	4
 1688              		.section	.data.fhandlers,"aw",%progbits
 1689              		.align	2
 1690              		.set	.LANCHOR26,. + 0
 1691              		.type	fhandlers, %object
 1692              		.size	fhandlers, 4
 1693              	fhandlers:
ARM GAS  /tmp/cc7QDA8Y.s 			page 31


 1694 0000 00000000 		.word	termination_handler
 1695              		.section	.bss.lastGPS,"aw",%nobits
 1696              		.align	2
 1697              		.set	.LANCHOR12,. + 0
 1698              		.type	lastGPS, %object
 1699              		.size	lastGPS, 4
 1700              	lastGPS:
 1701 0000 00000000 		.space	4
 1702              		.section	.data.leds,"aw",%progbits
 1703              		.align	2
 1704              		.set	.LANCHOR4,. + 0
 1705              		.type	leds, %object
 1706              		.size	leds, 32
 1707              	leds:
 1708 0000 09000000 		.word	9
 1709 0004 0A000000 		.word	10
 1710 0008 0B000000 		.word	11
 1711 000c 0C000000 		.word	12
 1712 0010 0D000000 		.word	13
 1713 0014 0E000000 		.word	14
 1714 0018 0F000000 		.word	15
 1715 001c 08000000 		.word	8
 1716              		.section	.data.gpsCfg,"aw",%progbits
 1717              		.align	2
 1718              		.set	.LANCHOR20,. + 0
 1719              		.type	gpsCfg, %object
 1720              		.size	gpsCfg, 16
 1721              	gpsCfg:
 1722 0000 7CDD0000 		.word	56700
 1723 0004 00000000 		.space	12
 1723      00000000 
 1723      00000000 
 1724              		.section	.bss.fno,"aw",%nobits
 1725              		.align	2
 1726              		.type	fno, %object
 1727              		.size	fno, 24
 1728              	fno:
 1729 0000 00000000 		.space	24
 1729      00000000 
 1729      00000000 
 1729      00000000 
 1729      00000000 
 1730              		.section	.rodata.lowSdcSpiConfig,"a",%progbits
 1731              		.align	2
 1732              		.type	lowSdcSpiConfig, %object
 1733              		.size	lowSdcSpiConfig, 16
 1734              	lowSdcSpiConfig:
 1735 0000 00000000 		.word	0
 1736 0004 00080048 		.word	1207961600
 1737 0008 0000     		.short	0
 1738 000a 3000     		.short	48
 1739 000c 0000     		.short	0
 1740 000e 0000     		.space	2
 1741              		.section	.bss.dayGPS,"aw",%nobits
 1742              		.align	2
 1743              		.set	.LANCHOR13,. + 0
 1744              		.type	dayGPS, %object
ARM GAS  /tmp/cc7QDA8Y.s 			page 32


 1745              		.size	dayGPS, 4
 1746              	dayGPS:
 1747 0000 00000000 		.space	4
 1748              		.section	.bss.MMCD1,"aw",%nobits
 1749              		.align	2
 1750              		.set	.LANCHOR17,. + 0
 1751              		.type	MMCD1, %object
 1752              		.size	MMCD1, 52
 1753              	MMCD1:
 1754 0000 00000000 		.space	52
 1754      00000000 
 1754      00000000 
 1754      00000000 
 1754      00000000 
 1755              		.section	.rodata.str1.4,"aMS",%progbits,1
 1756              		.align	2
 1757              	.LC0:
 1758 0000 74656D70 		.ascii	"temp:%d %d %d\015\012\000"
 1758      3A256420 
 1758      25642025 
 1758      640D0A00 
 1759              	.LC1:
 1760 0010 5368656C 		.ascii	"Shell Died\012\015\000"
 1760      6C204469 
 1760      65640A0D 
 1760      00
 1761 001d 000000   		.space	3
 1762              	.LC2:
 1763 0020 52657374 		.ascii	"Restarting from termination handler\012\015\000"
 1763      61727469 
 1763      6E672066 
 1763      726F6D20 
 1763      7465726D 
 1764 0046 0000     		.space	2
 1765              	.LC3:
 1766 0048 24475047 		.ascii	"$GPGGA\000"
 1766      474100
 1767 004f 00       		.space	1
 1768              	.LC4:
 1769 0050 0A0D00   		.ascii	"\012\015\000"
 1770 0053 00       		.space	1
 1771              	.LC5:
 1772 0054 436F6E76 		.ascii	"Converter: %d\015\012\000"
 1772      65727465 
 1772      723A2025 
 1772      640D0A00 
 1773              	.LC6:
 1774 0064 54656D70 		.ascii	"Temperature: %d\015\012\000"
 1774      65726174 
 1774      7572653A 
 1774      2025640D 
 1774      0A00
 1775 0076 0000     		.space	2
 1776              	.LC7:
 1777 0078 436F756E 		.ascii	"Count: %d\015\012\000"
 1777      743A2025 
 1777      640D0A00 
ARM GAS  /tmp/cc7QDA8Y.s 			page 33


 1778              	.LC8:
 1779 0084 54696D65 		.ascii	"Time: %.19s:%d %s temp: %3d\012\015\000"
 1779      3A20252E 
 1779      3139733A 
 1779      25642025 
 1779      73207465 
 1780 00a2 0000     		.space	2
 1781              	.LC9:
 1782 00a4 6661696C 		.ascii	"failed with error: %d\012\015\000"
 1782      65642077 
 1782      69746820 
 1782      6572726F 
 1782      723A2025 
 1783              	.LC10:
 1784 00bc 252E3130 		.ascii	"%.10d,%.10d,%.10d,%.03d,%d\012\000"
 1784      642C252E 
 1784      3130642C 
 1784      252E3130 
 1784      642C252E 
 1785              	.LC11:
 1786 00d8 64617461 		.ascii	"dataTest.txt\000"
 1786      54657374 
 1786      2E747874 
 1786      00
 1787 00e5 000000   		.space	3
 1788              	.LC12:
 1789 00e8 68616C6C 		.ascii	"hallo \012\015\000"
 1789      6F200A0D 
 1789      00
 1790 00f1 000000   		.space	3
 1791              	.LC13:
 1792 00f4 496E6974 		.ascii	"Initialized SD card\012\015\000"
 1792      69616C69 
 1792      7A656420 
 1792      53442063 
 1792      6172640A 
 1793 010a 0000     		.space	2
 1794              	.LC14:
 1795 010c 41206361 		.ascii	"A card is there.\012\015\000"
 1795      72642069 
 1795      73207468 
 1795      6572652E 
 1795      0A0D00
 1796 011f 00       		.space	1
 1797              	.LC15:
 1798 0120 4E6F2063 		.ascii	"No card to be found.\012\015\000"
 1798      61726420 
 1798      746F2062 
 1798      6520666F 
 1798      756E642E 
 1799 0137 00       		.space	1
 1800              	.LC16:
 1801 0138 0A0D5570 		.ascii	"\012\015Up and Running SD1\012\015\000"
 1801      20616E64 
 1801      2052756E 
 1801      6E696E67 
 1801      20534431 
ARM GAS  /tmp/cc7QDA8Y.s 			page 34


 1802 014f 00       		.space	1
 1803              	.LC17:
 1804 0150 00       		.ascii	"\000"
 1805 0151 000000   		.space	3
 1806              	.LC18:
 1807 0154 0A0D2054 		.ascii	"\012\015 TEST VAL: 0x%x \012\015\000"
 1807      45535420 
 1807      56414C3A 
 1807      20307825 
 1807      78200A0D 
 1808 0169 000000   		.space	3
 1809              	.LC19:
 1810 016c 74696D65 		.ascii	"time\000"
 1810      00
 1811 0171 000000   		.space	3
 1812              	.LC20:
 1813 0174 73657474 		.ascii	"settime\000"
 1813      696D6500 
 1814              	.LC21:
 1815 017c 77726974 		.ascii	"writeSD\000"
 1815      65534400 
 1816              	.LC22:
 1817 0184 64617461 		.ascii	"datadump\000"
 1817      64756D70 
 1817      00
 1818 018d 000000   		.section	.bss.edgeTime,"aw",%nobits
 1819              		.align	2
 1820              		.type	edgeTime, %object
 1821              		.size	edgeTime, 4
 1822              	edgeTime:
 1823 0000 00000000 		.space	4
 1824              		.section	.rodata.V25,"a",%progbits
 1825              		.align	2
 1826              		.type	V25, %object
 1827              		.size	V25, 4
 1828              	V25:
 1829 0000 E17AB43F 		.word	1068792545
 1830              		.section	.bss.bw,"aw",%nobits
 1831              		.align	2
 1832              		.type	bw, %object
 1833              		.size	bw, 4
 1834              	bw:
 1835 0000 00000000 		.space	4
 1836              		.section	.bss.waCounterThread,"aw",%nobits
 1837              		.align	3
 1838              		.set	.LANCHOR23,. + 0
 1839              		.type	waCounterThread, %object
 1840              		.size	waCounterThread, 328
 1841              	waCounterThread:
 1842 0000 00000000 		.space	328
 1842      00000000 
 1842      00000000 
 1842      00000000 
 1842      00000000 
 1843              		.section	.bss.shelltp1,"aw",%nobits
 1844              		.align	2
 1845              		.set	.LANCHOR2,. + 0
ARM GAS  /tmp/cc7QDA8Y.s 			page 35


 1846              		.type	shelltp1, %object
 1847              		.size	shelltp1, 4
 1848              	shelltp1:
 1849 0000 00000000 		.space	4
 1850              		.section	.rodata.mmcConfig,"a",%progbits
 1851              		.align	2
 1852              		.set	.LANCHOR10,. + 0
 1853              		.type	mmcConfig, %object
 1854              		.size	mmcConfig, 12
 1855              	mmcConfig:
 1856 0000 00000000 		.word	SPID2
 1857 0004 00000000 		.word	lowSdcSpiConfig
 1858 0008 00000000 		.word	highSdcSpiConfig
 1859              		.section	.bss.waDataThread,"aw",%nobits
 1860              		.align	3
 1861              		.set	.LANCHOR24,. + 0
 1862              		.type	waDataThread, %object
 1863              		.size	waDataThread, 328
 1864              	waDataThread:
 1865 0000 00000000 		.space	328
 1865      00000000 
 1865      00000000 
 1865      00000000 
 1865      00000000 
 1866              		.section	.rodata.commands,"a",%progbits
 1867              		.align	2
 1868              		.type	commands, %object
 1869              		.size	commands, 40
 1870              	commands:
 1871 0000 6C010000 		.word	.LC19
 1872 0004 00000000 		.word	cmd_time
 1873 0008 74010000 		.word	.LC20
 1874 000c 00000000 		.word	cmd_rtcSet
 1875 0010 7C010000 		.word	.LC21
 1876 0014 00000000 		.word	cmd_writeSD
 1877 0018 84010000 		.word	.LC22
 1878 001c 00000000 		.word	cmd_data
 1879 0020 00000000 		.word	0
 1880 0024 00000000 		.word	0
 1881              		.section	.rodata.highSdcSpiConfig,"a",%progbits
 1882              		.align	2
 1883              		.type	highSdcSpiConfig, %object
 1884              		.size	highSdcSpiConfig, 16
 1885              	highSdcSpiConfig:
 1886 0000 00000000 		.word	0
 1887 0004 00080048 		.word	1207961600
 1888 0008 0000     		.short	0
 1889 000a 0000     		.short	0
 1890 000c 0000     		.short	0
 1891 000e 0000     		.space	2
 1892              		.section	.data.trailExtcfg,"aw",%progbits
 1893              		.align	2
 1894              		.set	.LANCHOR18,. + 0
 1895              		.type	trailExtcfg, %object
 1896              		.size	trailExtcfg, 272
 1897              	trailExtcfg:
 1898 0000 05000000 		.word	5
ARM GAS  /tmp/cc7QDA8Y.s 			page 36


 1899 0004 00000000 		.word	extcb
 1900 0008 00000000 		.word	0
 1901 000c 00000000 		.word	0
 1902 0010 00000000 		.word	0
 1903 0014 00000000 		.word	0
 1904 0018 00000000 		.word	0
 1905 001c 00000000 		.word	0
 1906 0020 00000000 		.word	0
 1907 0024 00000000 		.word	0
 1908 0028 00000000 		.word	0
 1909 002c 00000000 		.word	0
 1910 0030 00000000 		.word	0
 1911 0034 00000000 		.word	0
 1912 0038 00000000 		.word	0
 1913 003c 00000000 		.word	0
 1914 0040 00000000 		.word	0
 1915 0044 00000000 		.word	0
 1916 0048 00000000 		.word	0
 1917 004c 00000000 		.word	0
 1918 0050 00000000 		.word	0
 1919 0054 00000000 		.word	0
 1920 0058 00000000 		.word	0
 1921 005c 00000000 		.word	0
 1922 0060 00000000 		.word	0
 1923 0064 00000000 		.word	0
 1924 0068 00000000 		.word	0
 1925 006c 00000000 		.word	0
 1926 0070 00000000 		.word	0
 1927 0074 00000000 		.word	0
 1928 0078 00000000 		.word	0
 1929 007c 00000000 		.word	0
 1930 0080 00000000 		.word	0
 1931 0084 00000000 		.word	0
 1932 0088 00000000 		.word	0
 1933 008c 00000000 		.word	0
 1934 0090 00000000 		.word	0
 1935 0094 00000000 		.word	0
 1936 0098 00000000 		.word	0
 1937 009c 00000000 		.word	0
 1938 00a0 00000000 		.word	0
 1939 00a4 00000000 		.word	0
 1940 00a8 00000000 		.word	0
 1941 00ac 00000000 		.word	0
 1942 00b0 00000000 		.word	0
 1943 00b4 00000000 		.word	0
 1944 00b8 00000000 		.space	88
 1944      00000000 
 1944      00000000 
 1944      00000000 
 1944      00000000 
 1945              		.section	.bss.waButtonThread,"aw",%nobits
 1946              		.align	3
 1947              		.set	.LANCHOR25,. + 0
 1948              		.type	waButtonThread, %object
 1949              		.size	waButtonThread, 2248
 1950              	waButtonThread:
 1951 0000 00000000 		.space	2248
ARM GAS  /tmp/cc7QDA8Y.s 			page 37


 1951      00000000 
 1951      00000000 
 1951      00000000 
 1951      00000000 
 1952              		.section	.bss.SDC_FS,"aw",%nobits
 1953              		.align	2
 1954              		.set	.LANCHOR21,. + 0
 1955              		.type	SDC_FS, %object
 1956              		.size	SDC_FS, 560
 1957              	SDC_FS:
 1958 0000 00000000 		.space	560
 1958      00000000 
 1958      00000000 
 1958      00000000 
 1958      00000000 
 1959              		.section	.rodata.shell_cfg1,"a",%progbits
 1960              		.align	2
 1961              		.set	.LANCHOR3,. + 0
 1962              		.type	shell_cfg1, %object
 1963              		.size	shell_cfg1, 8
 1964              	shell_cfg1:
 1965 0000 00000000 		.word	SD1
 1966 0004 00000000 		.word	commands
 1967              		.section	.bss.bsem,"aw",%nobits
 1968              		.align	2
 1969              		.set	.LANCHOR1,. + 0
 1970              		.type	bsem, %object
 1971              		.size	bsem, 12
 1972              	bsem:
 1973 0000 00000000 		.space	12
 1973      00000000 
 1973      00000000 
 1974              		.section	.bss.sdMutex,"aw",%nobits
 1975              		.align	2
 1976              		.set	.LANCHOR11,. + 0
 1977              		.type	sdMutex, %object
 1978              		.size	sdMutex, 16
 1979              	sdMutex:
 1980 0000 00000000 		.space	16
 1980      00000000 
 1980      00000000 
 1980      00000000 
 1981              		.section	.bss.temperature,"aw",%nobits
 1982              		.align	2
 1983              		.set	.LANCHOR8,. + 0
 1984              		.type	temperature, %object
 1985              		.size	temperature, 4
 1986              	temperature:
 1987 0000 00000000 		.space	4
 1988              		.section	.bss.fil,"aw",%nobits
 1989              		.align	2
 1990              		.set	.LANCHOR16,. + 0
 1991              		.type	fil, %object
 1992              		.size	fil, 548
 1993              	fil:
 1994 0000 00000000 		.space	548
 1994      00000000 
ARM GAS  /tmp/cc7QDA8Y.s 			page 38


 1994      00000000 
 1994      00000000 
 1994      00000000 
 1995              		.section	.bss.lastRTC,"aw",%nobits
 1996              		.align	2
 1997              		.set	.LANCHOR14,. + 0
 1998              		.type	lastRTC, %object
 1999              		.size	lastRTC, 4
 2000              	lastRTC:
 2001 0000 00000000 		.space	4
 2002              		.text
 2003              	.Letext0:
 2004              		.file 5 "/nfs/nfs5/home/research/hardware/arm2/gcc-arm-embedded/gcc-arm-none-eabi-4_8-2014q2/lib/g
 2005              		.file 6 "/nfs/nfs5/home/research/hardware/arm2/gcc-arm-embedded/gcc-arm-none-eabi-4_8-2014q2/arm-n
 2006              		.file 7 "/nfs/nfs5/home/research/hardware/arm2/gcc-arm-embedded/gcc-arm-none-eabi-4_8-2014q2/arm-n
 2007              		.file 8 "../ChibiOS/os/rt/ports/ARMCMx/compilers/GCC/chtypes.h"
 2008              		.file 9 "../ChibiOS/os/rt/include/chsystypes.h"
 2009              		.file 10 "../ChibiOS/os/rt/include/chschd.h"
 2010              		.file 11 "../ChibiOS/os/ext/CMSIS/ST/STM32F3xx/stm32f303xc.h"
 2011              		.file 12 "../ChibiOS/os/rt/ports/ARMCMx/chcore.h"
 2012              		.file 13 "../ChibiOS/os/rt/ports/ARMCMx/chcore_v7m.h"
 2013              		.file 14 "../ChibiOS/os/rt/include/chtm.h"
 2014              		.file 15 "../ChibiOS/os/rt/include/chsem.h"
 2015              		.file 16 "../ChibiOS/os/rt/include/chmtx.h"
 2016              		.file 17 "../ChibiOS/os/rt/include/chthreads.h"
 2017              		.file 18 "../ChibiOS/os/rt/include/chqueues.h"
 2018              		.file 19 "../ChibiOS/os/rt/include/chstreams.h"
 2019              		.file 20 "../ChibiOS/os/hal/ports/STM32/LLD/DMAv1/stm32_dma.h"
 2020              		.file 21 "../ChibiOS/os/hal/include/hal_ioblock.h"
 2021              		.file 22 "../ChibiOS/os/hal/ports/STM32/LLD/GPIOv2/pal_lld.h"
 2022              		.file 23 "../ChibiOS/os/hal/include/adc.h"
 2023              		.file 24 "../ChibiOS/os/hal/ports/STM32/LLD/ADCv3/adc_lld.h"
 2024              		.file 25 "../ChibiOS/os/hal/include/ext.h"
 2025              		.file 26 "../ChibiOS/os/hal/ports/STM32/LLD/EXTIv1/ext_lld.h"
 2026              		.file 27 "/nfs/nfs5/home/research/hardware/arm2/gcc-arm-embedded/gcc-arm-none-eabi-4_8-2014q2/arm-
 2027              		.file 28 "/nfs/nfs5/home/research/hardware/arm2/gcc-arm-embedded/gcc-arm-none-eabi-4_8-2014q2/arm-
 2028              		.file 29 "../ChibiOS/os/hal/include/rtc.h"
 2029              		.file 30 "../ChibiOS/os/hal/ports/STM32/LLD/RTCv2/rtc_lld.h"
 2030              		.file 31 "../ChibiOS/os/hal/include/serial.h"
 2031              		.file 32 "../ChibiOS/os/hal/ports/STM32/LLD/USARTv2/serial_lld.h"
 2032              		.file 33 "../ChibiOS/os/hal/include/spi.h"
 2033              		.file 34 "../ChibiOS/os/hal/ports/STM32/LLD/SPIv2/spi_lld.h"
 2034              		.file 35 "../ChibiOS/os/hal/include/mmc_spi.h"
 2035              		.file 36 "../ChibiOS/os/various/shell.h"
 2036              		.file 37 "../ChibiOS/ext/fatfs/src/integer.h"
 2037              		.file 38 "../ChibiOS/ext/fatfs/src/ff.h"
 2038              		.file 39 "../ChibiOS/os/rt/include/chsys.h"
 2039              		.file 40 "../ChibiOS/os/ext/CMSIS/include/core_cm4.h"
 2040              		.file 41 "../ChibiOS/os/hal/lib/streams/chprintf.h"
 2041              		.file 42 "/nfs/nfs5/home/research/hardware/arm2/gcc-arm-embedded/gcc-arm-none-eabi-4_8-2014q2/arm-
 2042              		.file 43 "/nfs/nfs5/home/research/hardware/arm2/gcc-arm-embedded/gcc-arm-none-eabi-4_8-2014q2/arm-
 2043              		.file 44 "../ChibiOS/os/hal/include/hal.h"