ARM GAS  /tmp/ccM203Zg.s 			page 1


   1              		.syntax unified
   2              		.cpu cortex-m4
   3              		.fpu softvfp
   4              		.eabi_attribute 20, 1
   5              		.eabi_attribute 21, 1
   6              		.eabi_attribute 23, 3
   7              		.eabi_attribute 24, 1
   8              		.eabi_attribute 25, 1
   9              		.eabi_attribute 26, 1
  10              		.eabi_attribute 30, 2
  11              		.eabi_attribute 34, 1
  12              		.eabi_attribute 18, 4
  13              		.thumb
  14              		.file	"rtc.c"
  15              		.text
  16              	.Ltext0:
  17              		.cfi_sections	.debug_frame
  18              		.section	.text.rtcInit,"ax",%progbits
  19              		.align	2
  20              		.p2align 4,,15
  21              		.global	rtcInit
  22              		.thumb
  23              		.thumb_func
  24              		.type	rtcInit, %function
  25              	rtcInit:
  26              	.LFB272:
  27              		.file 1 "../ChibiOS/os/hal/src/rtc.c"
  28              		.loc 1 67 0
  29              		.cfi_startproc
  30              		@ args = 0, pretend = 0, frame = 0
  31              		@ frame_needed = 0, uses_anonymous_args = 0
  32              		@ link register save eliminated.
  33              		.loc 1 69 0
  34 0000 FFF7FEBF 		b	rtc_lld_init
  35              	.LVL0:
  36              		.cfi_endproc
  37              	.LFE272:
  38              		.size	rtcInit, .-rtcInit
  39 0004 AFF30080 		.section	.text.rtcObjectInit,"ax",%progbits
  39      AFF30080 
  39      AFF30080 
  40              		.align	2
  41              		.p2align 4,,15
  42              		.global	rtcObjectInit
  43              		.thumb
  44              		.thumb_func
  45              		.type	rtcObjectInit, %function
  46              	rtcObjectInit:
  47              	.LFB273:
  48              		.loc 1 81 0
  49              		.cfi_startproc
  50              		@ args = 0, pretend = 0, frame = 0
  51              		@ frame_needed = 0, uses_anonymous_args = 0
  52              		@ link register save eliminated.
  53              	.LVL1:
  54 0000 7047     		bx	lr
  55              		.cfi_endproc
ARM GAS  /tmp/ccM203Zg.s 			page 2


  56              	.LFE273:
  57              		.size	rtcObjectInit, .-rtcObjectInit
  58 0002 00BFAFF3 		.section	.text.rtcSetTime,"ax",%progbits
  58      0080AFF3 
  58      0080AFF3 
  58      0080
  59              		.align	2
  60              		.p2align 4,,15
  61              		.global	rtcSetTime
  62              		.thumb
  63              		.thumb_func
  64              		.type	rtcSetTime, %function
  65              	rtcSetTime:
  66              	.LFB274:
  67              		.loc 1 104 0
  68              		.cfi_startproc
  69              		@ args = 0, pretend = 0, frame = 0
  70              		@ frame_needed = 0, uses_anonymous_args = 0
  71              		@ link register save eliminated.
  72              	.LVL2:
  73              		.loc 1 108 0
  74 0000 FFF7FEBF 		b	rtc_lld_set_time
  75              	.LVL3:
  76              		.cfi_endproc
  77              	.LFE274:
  78              		.size	rtcSetTime, .-rtcSetTime
  79 0004 AFF30080 		.section	.text.rtcGetTime,"ax",%progbits
  79      AFF30080 
  79      AFF30080 
  80              		.align	2
  81              		.p2align 4,,15
  82              		.global	rtcGetTime
  83              		.thumb
  84              		.thumb_func
  85              		.type	rtcGetTime, %function
  86              	rtcGetTime:
  87              	.LFB275:
  88              		.loc 1 125 0
  89              		.cfi_startproc
  90              		@ args = 0, pretend = 0, frame = 0
  91              		@ frame_needed = 0, uses_anonymous_args = 0
  92              		@ link register save eliminated.
  93              	.LVL4:
  94              		.loc 1 129 0
  95 0000 FFF7FEBF 		b	rtc_lld_get_time
  96              	.LVL5:
  97              		.cfi_endproc
  98              	.LFE275:
  99              		.size	rtcGetTime, .-rtcGetTime
 100 0004 AFF30080 		.section	.text.rtcSetAlarm,"ax",%progbits
 100      AFF30080 
 100      AFF30080 
 101              		.align	2
 102              		.p2align 4,,15
 103              		.global	rtcSetAlarm
 104              		.thumb
 105              		.thumb_func
ARM GAS  /tmp/ccM203Zg.s 			page 3


 106              		.type	rtcSetAlarm, %function
 107              	rtcSetAlarm:
 108              	.LFB276:
 109              		.loc 1 150 0
 110              		.cfi_startproc
 111              		@ args = 0, pretend = 0, frame = 0
 112              		@ frame_needed = 0, uses_anonymous_args = 0
 113              		@ link register save eliminated.
 114              	.LVL6:
 115              		.loc 1 154 0
 116 0000 FFF7FEBF 		b	rtc_lld_set_alarm
 117              	.LVL7:
 118              		.cfi_endproc
 119              	.LFE276:
 120              		.size	rtcSetAlarm, .-rtcSetAlarm
 121 0004 AFF30080 		.section	.text.rtcGetAlarm,"ax",%progbits
 121      AFF30080 
 121      AFF30080 
 122              		.align	2
 123              		.p2align 4,,15
 124              		.global	rtcGetAlarm
 125              		.thumb
 126              		.thumb_func
 127              		.type	rtcGetAlarm, %function
 128              	rtcGetAlarm:
 129              	.LFB277:
 130              		.loc 1 176 0
 131              		.cfi_startproc
 132              		@ args = 0, pretend = 0, frame = 0
 133              		@ frame_needed = 0, uses_anonymous_args = 0
 134              		@ link register save eliminated.
 135              	.LVL8:
 136              		.loc 1 182 0
 137 0000 FFF7FEBF 		b	rtc_lld_get_alarm
 138              	.LVL9:
 139              		.cfi_endproc
 140              	.LFE277:
 141              		.size	rtcGetAlarm, .-rtcGetAlarm
 142 0004 AFF30080 		.section	.text.rtcConvertDateTimeToStructTm,"ax",%progbits
 142      AFF30080 
 142      AFF30080 
 143              		.align	2
 144              		.p2align 4,,15
 145              		.global	rtcConvertDateTimeToStructTm
 146              		.thumb
 147              		.thumb_func
 148              		.type	rtcConvertDateTimeToStructTm, %function
 149              	rtcConvertDateTimeToStructTm:
 150              	.LFB278:
 151              		.loc 1 222 0
 152              		.cfi_startproc
 153              		@ args = 0, pretend = 0, frame = 0
 154              		@ frame_needed = 0, uses_anonymous_args = 0
 155              		@ link register save eliminated.
 156              	.LVL10:
 157 0000 2DE9F00F 		push	{r4, r5, r6, r7, r8, r9, r10, fp}
 158              		.cfi_def_cfa_offset 32
ARM GAS  /tmp/ccM203Zg.s 			page 4


 159              		.cfi_offset 4, -32
 160              		.cfi_offset 5, -28
 161              		.cfi_offset 6, -24
 162              		.cfi_offset 7, -20
 163              		.cfi_offset 8, -16
 164              		.cfi_offset 9, -12
 165              		.cfi_offset 10, -8
 166              		.cfi_offset 11, -4
 167              		.loc 1 231 0
 168 0004 4468     		ldr	r4, [r0, #4]
 169 0006 244E     		ldr	r6, .L13
 170              		.loc 1 226 0
 171 0008 90F80190 		ldrb	r9, [r0, #1]	@ zero_extendqisi2
 172              		.loc 1 225 0
 173 000c 90F800C0 		ldrb	ip, [r0]	@ zero_extendqisi2
 174              		.loc 1 227 0
 175 0010 8778     		ldrb	r7, [r0, #2]	@ zero_extendqisi2
 176              		.loc 1 232 0
 177 0012 224D     		ldr	r5, .L13+4
 178              		.loc 1 234 0
 179 0014 DFF888B0 		ldr	fp, .L13+8
 180              		.loc 1 231 0
 181 0018 C4F31A04 		ubfx	r4, r4, #0, #27
 182 001c 86FB0403 		smull	r0, r3, r6, r4
 183              	.LVL11:
 184 0020 9B09     		lsrs	r3, r3, #6
 185              	.LVL12:
 186              		.loc 1 232 0
 187 0022 85FB0305 		smull	r0, r5, r5, r3
 188 0026 1D44     		add	r5, r5, r3
 189              		.loc 1 233 0
 190 0028 4FF46160 		mov	r0, #3600
 191              		.loc 1 232 0
 192 002c ED12     		asrs	r5, r5, #11
 193              		.loc 1 233 0
 194 002e 00FB1533 		mls	r3, r0, r5, r3
 195              	.LVL13:
 196              		.loc 1 234 0
 197 0032 8BFB030B 		smull	r0, fp, fp, r3
 198 0036 9B44     		add	fp, fp, r3
 199 0038 D817     		asrs	r0, r3, #31
 200              		.loc 1 229 0
 201 003a C846     		mov	r8, r9
 202              		.loc 1 234 0
 203 003c C0EB6B10 		rsb	r0, r0, fp, asr #5
 204              		.loc 1 228 0
 205 0040 CA46     		mov	r10, r9
 206              		.loc 1 229 0
 207 0042 4FEA5818 		lsr	r8, r8, #5
 208              		.loc 1 226 0
 209 0046 09F00F09 		and	r9, r9, #15
 210              		.loc 1 235 0
 211 004a C0EB001B 		rsb	fp, r0, r0, lsl #4
 212              		.loc 1 225 0
 213 004e 0CF1500C 		add	ip, ip, #80
 214              		.loc 1 226 0
 215 0052 09F1FF39 		add	r9, r9, #-1
ARM GAS  /tmp/ccM203Zg.s 			page 5


 216              		.loc 1 227 0
 217 0056 07F01F07 		and	r7, r7, #31
 218              		.loc 1 228 0
 219 005a CAF3001A 		ubfx	r10, r10, #4, #1
 220              		.loc 1 229 0
 221 005e 08F1FF38 		add	r8, r8, #-1
 222              		.loc 1 235 0
 223 0062 A3EB8B03 		sub	r3, r3, fp, lsl #2
 224              	.LVL14:
 225              		.loc 1 225 0
 226 0066 C1F814C0 		str	ip, [r1, #20]
 227              		.loc 1 226 0
 228 006a C1F81090 		str	r9, [r1, #16]
 229              		.loc 1 227 0
 230 006e CF60     		str	r7, [r1, #12]
 231              		.loc 1 228 0
 232 0070 C1F820A0 		str	r10, [r1, #32]
 233              		.loc 1 229 0
 234 0074 C1F81880 		str	r8, [r1, #24]
 235              		.loc 1 232 0
 236 0078 8D60     		str	r5, [r1, #8]
 237              		.loc 1 234 0
 238 007a 4860     		str	r0, [r1, #4]
 239              		.loc 1 235 0
 240 007c 0B60     		str	r3, [r1]
 241              		.loc 1 237 0
 242 007e 3AB1     		cbz	r2, .L7
 243              		.loc 1 238 0
 244 0080 A6FB0436 		umull	r3, r6, r6, r4
 245              	.LVL15:
 246 0084 B609     		lsrs	r6, r6, #6
 247 0086 4FF47A73 		mov	r3, #1000
 248 008a 03FB1644 		mls	r4, r3, r6, r4
 249              	.LVL16:
 250 008e 1460     		str	r4, [r2]
 251              	.L7:
 252              		.loc 1 240 0
 253 0090 BDE8F00F 		pop	{r4, r5, r6, r7, r8, r9, r10, fp}
 254              	.LVL17:
 255 0094 7047     		bx	lr
 256              	.L14:
 257 0096 00BF     		.align	2
 258              	.L13:
 259 0098 D34D6210 		.word	274877907
 260 009c C5B3A291 		.word	-1851608123
 261 00a0 89888888 		.word	-2004318071
 262              		.cfi_endproc
 263              	.LFE278:
 264              		.size	rtcConvertDateTimeToStructTm, .-rtcConvertDateTimeToStructTm
 265 00a4 AFF30080 		.section	.text.rtcConvertStructTmToDateTime,"ax",%progbits
 265      AFF30080 
 265      AFF30080 
 266              		.align	2
 267              		.p2align 4,,15
 268              		.global	rtcConvertStructTmToDateTime
 269              		.thumb
 270              		.thumb_func
ARM GAS  /tmp/ccM203Zg.s 			page 6


 271              		.type	rtcConvertStructTmToDateTime, %function
 272              	rtcConvertStructTmToDateTime:
 273              	.LFB279:
 274              		.loc 1 253 0
 275              		.cfi_startproc
 276              		@ args = 0, pretend = 0, frame = 0
 277              		@ frame_needed = 0, uses_anonymous_args = 0
 278              		@ link register save eliminated.
 279              	.LVL18:
 280 0000 2DE9F001 		push	{r4, r5, r6, r7, r8}
 281              		.cfi_def_cfa_offset 20
 282              		.cfi_offset 4, -20
 283              		.cfi_offset 5, -16
 284              		.cfi_offset 6, -12
 285              		.cfi_offset 7, -8
 286              		.cfi_offset 8, -4
 287              		.loc 1 257 0
 288 0004 0669     		ldr	r6, [r0, #16]
 289              		.loc 1 258 0
 290 0006 9478     		ldrb	r4, [r2, #2]	@ zero_extendqisi2
 291              		.loc 1 260 0
 292 0008 056A     		ldr	r5, [r0, #32]
 293              		.loc 1 259 0
 294 000a 8769     		ldr	r7, [r0, #24]
 295              		.loc 1 257 0
 296 000c 5378     		ldrb	r3, [r2, #1]	@ zero_extendqisi2
 297 000e 06F10108 		add	r8, r6, #1
 298              		.loc 1 256 0
 299 0012 4669     		ldr	r6, [r0, #20]
 300 0014 A6F1500C 		sub	ip, r6, #80
 301              		.loc 1 258 0
 302 0018 C668     		ldr	r6, [r0, #12]
 303              		.loc 1 256 0
 304 001a 82F800C0 		strb	ip, [r2]
 305              		.loc 1 258 0
 306 001e 66F30404 		bfi	r4, r6, #0, #5
 307              		.loc 1 257 0
 308 0022 68F30303 		bfi	r3, r8, #0, #4
 309              		.loc 1 259 0
 310 0026 0137     		adds	r7, r7, #1
 311              		.loc 1 258 0
 312 0028 9470     		strb	r4, [r2, #2]
 313              		.loc 1 260 0
 314 002a 6C1C     		adds	r4, r5, #1
 315              		.loc 1 269 0
 316 002c 51C8     		ldmia	r0, {r0, r4, r6}
 317              	.LVL19:
 318              		.loc 1 259 0
 319 002e 67F34713 		bfi	r3, r7, #5, #3
 320 0032 5370     		strb	r3, [r2, #1]
 321              		.loc 1 264 0
 322 0034 18BF     		it	ne
 323 0036 5378     		ldrbne	r3, [r2, #1]	@ zero_extendqisi2
 324              		.loc 1 269 0
 325 0038 C4EB0414 		rsb	r4, r4, r4, lsl #4
 326              		.loc 1 261 0
 327 003c 0CBF     		ite	eq
ARM GAS  /tmp/ccM203Zg.s 			page 7


 328 003e DBB2     		uxtbeq	r3, r3
 329              		.loc 1 264 0
 330 0040 65F30413 		bfine	r3, r5, #4, #1
 331              		.loc 1 269 0
 332 0044 4FEA8405 		lsl	r5, r4, #2
 333              		.loc 1 268 0
 334 0048 4FF46164 		mov	r4, #3600
 335              		.loc 1 261 0
 336 004c 08BF     		it	eq
 337 004e 6FF30413 		bfceq	r3, #4, #1
 338              		.loc 1 268 0
 339 0052 04FB0654 		mla	r4, r4, r6, r5
 340              		.loc 1 269 0
 341 0056 0444     		add	r4, r4, r0
 342              		.loc 1 264 0
 343 0058 5370     		strb	r3, [r2, #1]
 344              		.loc 1 270 0
 345 005a 4FF47A70 		mov	r0, #1000
 346              		.loc 1 268 0
 347 005e 5368     		ldr	r3, [r2, #4]
 348 0060 00FB0411 		mla	r1, r0, r4, r1
 349              	.LVL20:
 350 0064 61F31A03 		bfi	r3, r1, #0, #27
 351 0068 5360     		str	r3, [r2, #4]
 352              		.loc 1 272 0
 353 006a BDE8F001 		pop	{r4, r5, r6, r7, r8}
 354 006e 7047     		bx	lr
 355              		.cfi_endproc
 356              	.LFE279:
 357              		.size	rtcConvertStructTmToDateTime, .-rtcConvertStructTmToDateTime
 358              		.section	.text.rtcConvertDateTimeToFAT,"ax",%progbits
 359              		.align	2
 360              		.p2align 4,,15
 361              		.global	rtcConvertDateTimeToFAT
 362              		.thumb
 363              		.thumb_func
 364              		.type	rtcConvertDateTimeToFAT, %function
 365              	rtcConvertDateTimeToFAT:
 366              	.LFB280:
 367              		.loc 1 284 0
 368              		.cfi_startproc
 369              		@ args = 0, pretend = 0, frame = 0
 370              		@ frame_needed = 0, uses_anonymous_args = 0
 371              		@ link register save eliminated.
 372              	.LVL21:
 373 0000 F0B4     		push	{r4, r5, r6, r7}
 374              		.cfi_def_cfa_offset 16
 375              		.cfi_offset 4, -16
 376              		.cfi_offset 5, -12
 377              		.cfi_offset 6, -8
 378              		.cfi_offset 7, -4
 379              		.loc 1 288 0
 380 0002 4568     		ldr	r5, [r0, #4]
 381 0004 1E4F     		ldr	r7, .L24
 382              		.loc 1 289 0
 383 0006 1F4C     		ldr	r4, .L24+4
 384              		.loc 1 291 0
ARM GAS  /tmp/ccM203Zg.s 			page 8


 385 0008 1F4B     		ldr	r3, .L24+8
 386              		.loc 1 294 0
 387 000a 4278     		ldrb	r2, [r0, #1]	@ zero_extendqisi2
 388              		.loc 1 293 0
 389 000c 8678     		ldrb	r6, [r0, #2]	@ zero_extendqisi2
 390              		.loc 1 288 0
 391 000e C5F31A01 		ubfx	r1, r5, #0, #27
 392 0012 A7FB0151 		umull	r5, r1, r7, r1
 393 0016 8909     		lsrs	r1, r1, #6
 394              	.LVL22:
 395              		.loc 1 289 0
 396 0018 A4FB0154 		umull	r5, r4, r4, r1
 397 001c E40A     		lsrs	r4, r4, #11
 398              	.LVL23:
 399              		.loc 1 290 0
 400 001e 4FF46165 		mov	r5, #3600
 401 0022 05FB1411 		mls	r1, r5, r4, r1
 402              	.LVL24:
 403              		.loc 1 291 0
 404 0026 A3FB0153 		umull	r5, r3, r3, r1
 405 002a 5B09     		lsrs	r3, r3, #5
 406              	.LVL25:
 407              		.loc 1 292 0
 408 002c C3EB0315 		rsb	r5, r3, r3, lsl #4
 409 0030 A1EB8501 		sub	r1, r1, r5, lsl #2
 410              	.LVL26:
 411              		.loc 1 294 0
 412 0034 02F00F05 		and	r5, r2, #15
 413              		.loc 1 297 0
 414 0038 D206     		lsls	r2, r2, #27
 415              		.loc 1 293 0
 416 003a 06F01F06 		and	r6, r6, #31
 417              	.LVL27:
 418              		.loc 1 297 0
 419 003e 0ED4     		bmi	.L19
 420              	.L23:
 421 0040 E402     		lsls	r4, r4, #11
 422              	.LVL28:
 423 0042 3604     		lsls	r6, r6, #16
 424              	.LVL29:
 425              	.L20:
 426              		.loc 1 314 0
 427 0044 0278     		ldrb	r2, [r0]	@ zero_extendqisi2
 428              		.loc 1 310 0
 429 0046 5B01     		lsls	r3, r3, #5
 430              	.LVL30:
 431 0048 43EA5103 		orr	r3, r3, r1, lsr #1
 432              	.LVL31:
 433              		.loc 1 311 0
 434 004c 43EA4263 		orr	r3, r3, r2, lsl #25
 435              	.LVL32:
 436              		.loc 1 312 0
 437 0050 1C43     		orrs	r4, r4, r3
 438              	.LVL33:
 439              		.loc 1 313 0
 440 0052 44EA0600 		orr	r0, r4, r6
 441              	.LVL34:
ARM GAS  /tmp/ccM203Zg.s 			page 9


 442              		.loc 1 317 0
 443 0056 40EA4550 		orr	r0, r0, r5, lsl #21
 444              	.LVL35:
 445 005a F0BC     		pop	{r4, r5, r6, r7}
 446              	.LVL36:
 447 005c 7047     		bx	lr
 448              	.LVL37:
 449              	.L19:
 450              		.loc 1 298 0
 451 005e 0134     		adds	r4, r4, #1
 452              	.LVL38:
 453              		.loc 1 299 0
 454 0060 182C     		cmp	r4, #24
 455 0062 EDD1     		bne	.L23
 456              	.LVL39:
 457              		.loc 1 302 0
 458 0064 094A     		ldr	r2, .L24+12
 459 0066 2A44     		add	r2, r2, r5
 460              		.loc 1 301 0
 461 0068 0136     		adds	r6, r6, #1
 462              	.LVL40:
 463              		.loc 1 302 0
 464 006a 12F8012C 		ldrb	r2, [r2, #-1]	@ zero_extendqisi2
 465 006e 9642     		cmp	r6, r2
 466 0070 92BF     		itee	ls
 467 0072 3604     		lslls	r6, r6, #16
 468              	.LVL41:
 469              		.loc 1 304 0
 470 0074 0135     		addhi	r5, r5, #1
 471              	.LVL42:
 472 0076 4FF48036 		movhi	r6, #65536
 473 007a 0024     		movs	r4, #0
 474 007c E2E7     		b	.L20
 475              	.L25:
 476 007e 00BF     		.align	2
 477              	.L24:
 478 0080 D34D6210 		.word	274877907
 479 0084 C5B3A291 		.word	-1851608123
 480 0088 89888888 		.word	-2004318071
 481 008c 00000000 		.word	.LANCHOR0
 482              		.cfi_endproc
 483              	.LFE280:
 484              		.size	rtcConvertDateTimeToFAT, .-rtcConvertDateTimeToFAT
 485              		.section	.rodata.month_len,"a",%progbits
 486              		.align	2
 487              		.set	.LANCHOR0,. + 0
 488              		.type	month_len, %object
 489              		.size	month_len, 12
 490              	month_len:
 491 0000 1F       		.byte	31
 492 0001 1E       		.byte	30
 493 0002 1F       		.byte	31
 494 0003 1E       		.byte	30
 495 0004 1F       		.byte	31
 496 0005 1E       		.byte	30
 497 0006 1F       		.byte	31
 498 0007 1F       		.byte	31
ARM GAS  /tmp/ccM203Zg.s 			page 10


 499 0008 1E       		.byte	30
 500 0009 1F       		.byte	31
 501 000a 1E       		.byte	30
 502 000b 1F       		.byte	31
 503              		.text
 504              	.Letext0:
 505              		.file 2 "/nfs/nfs5/home/research/hardware/arm2/gcc-arm-embedded/gcc-arm-none-eabi-4_8-2014q2/lib/g
 506              		.file 3 "/nfs/nfs5/home/research/hardware/arm2/gcc-arm-embedded/gcc-arm-none-eabi-4_8-2014q2/arm-n
 507              		.file 4 "/nfs/nfs5/home/research/hardware/arm2/gcc-arm-embedded/gcc-arm-none-eabi-4_8-2014q2/arm-n
 508              		.file 5 "../ChibiOS/os/rt/ports/ARMCMx/compilers/GCC/chtypes.h"
 509              		.file 6 "../ChibiOS/os/rt/include/chsystypes.h"
 510              		.file 7 "../ChibiOS/os/rt/include/chschd.h"
 511              		.file 8 "../ChibiOS/os/ext/CMSIS/ST/STM32F3xx/stm32f303xc.h"
 512              		.file 9 "../ChibiOS/os/rt/ports/ARMCMx/chcore.h"
 513              		.file 10 "../ChibiOS/os/rt/ports/ARMCMx/chcore_v7m.h"
 514              		.file 11 "../ChibiOS/os/rt/include/chtm.h"
 515              		.file 12 "../ChibiOS/os/rt/include/chsem.h"
 516              		.file 13 "../ChibiOS/os/rt/include/chmtx.h"
 517              		.file 14 "/nfs/nfs5/home/research/hardware/arm2/gcc-arm-embedded/gcc-arm-none-eabi-4_8-2014q2/arm-
 518              		.file 15 "../ChibiOS/os/hal/include/rtc.h"
 519              		.file 16 "../ChibiOS/os/hal/ports/STM32/LLD/RTCv2/rtc_lld.h"
 520              		.file 17 "../ChibiOS/os/ext/CMSIS/include/core_cm4.h"
 521              		.section	.debug_info,"",%progbits
 522              	.Ldebug_info0:
 523 0000 3F0D0000 		.4byte	0xd3f
 524 0004 0400     		.2byte	0x4
 525 0006 00000000 		.4byte	.Ldebug_abbrev0
 526 000a 04       		.byte	0x4
 527 000b 01       		.uleb128 0x1
 528 000c D2050000 		.4byte	.LASF175
 529 0010 01       		.byte	0x1
 530 0011 E7030000 		.4byte	.LASF176
 531 0015 BD030000 		.4byte	.LASF177
 532 0019 00000000 		.4byte	.Ldebug_ranges0+0
 533 001d 00000000 		.4byte	0
 534 0021 00000000 		.4byte	.Ldebug_line0
 535 0025 02       		.uleb128 0x2
 536 0026 08       		.byte	0x8
 537 0027 07       		.byte	0x7
 538 0028 86000000 		.4byte	.LASF0
 539 002c 02       		.uleb128 0x2
 540 002d 04       		.byte	0x4
 541 002e 07       		.byte	0x7
 542 002f B4050000 		.4byte	.LASF1
 543 0033 03       		.uleb128 0x3
 544 0034 04       		.byte	0x4
 545 0035 05       		.byte	0x5
 546 0036 696E7400 		.ascii	"int\000"
 547 003a 04       		.uleb128 0x4
 548 003b 1D000000 		.4byte	.LASF3
 549 003f 02       		.byte	0x2
 550 0040 D4       		.byte	0xd4
 551 0041 2C000000 		.4byte	0x2c
 552 0045 02       		.uleb128 0x2
 553 0046 01       		.byte	0x1
 554 0047 06       		.byte	0x6
 555 0048 51010000 		.4byte	.LASF2
ARM GAS  /tmp/ccM203Zg.s 			page 11


 556 004c 04       		.uleb128 0x4
 557 004d 34000000 		.4byte	.LASF4
 558 0051 03       		.byte	0x3
 559 0052 1C       		.byte	0x1c
 560 0053 57000000 		.4byte	0x57
 561 0057 02       		.uleb128 0x2
 562 0058 01       		.byte	0x1
 563 0059 08       		.byte	0x8
 564 005a EA040000 		.4byte	.LASF5
 565 005e 02       		.uleb128 0x2
 566 005f 02       		.byte	0x2
 567 0060 05       		.byte	0x5
 568 0061 0C050000 		.4byte	.LASF6
 569 0065 02       		.uleb128 0x2
 570 0066 02       		.byte	0x2
 571 0067 07       		.byte	0x7
 572 0068 9D020000 		.4byte	.LASF7
 573 006c 04       		.uleb128 0x4
 574 006d 20030000 		.4byte	.LASF8
 575 0071 03       		.byte	0x3
 576 0072 37       		.byte	0x37
 577 0073 77000000 		.4byte	0x77
 578 0077 02       		.uleb128 0x2
 579 0078 04       		.byte	0x4
 580 0079 05       		.byte	0x5
 581 007a 9C010000 		.4byte	.LASF9
 582 007e 04       		.uleb128 0x4
 583 007f D1060000 		.4byte	.LASF10
 584 0083 03       		.byte	0x3
 585 0084 38       		.byte	0x38
 586 0085 89000000 		.4byte	0x89
 587 0089 02       		.uleb128 0x2
 588 008a 04       		.byte	0x4
 589 008b 07       		.byte	0x7
 590 008c 9D050000 		.4byte	.LASF11
 591 0090 02       		.uleb128 0x2
 592 0091 08       		.byte	0x8
 593 0092 05       		.byte	0x5
 594 0093 43010000 		.4byte	.LASF12
 595 0097 04       		.uleb128 0x4
 596 0098 53040000 		.4byte	.LASF13
 597 009c 03       		.byte	0x3
 598 009d 4E       		.byte	0x4e
 599 009e 25000000 		.4byte	0x25
 600 00a2 04       		.uleb128 0x4
 601 00a3 91070000 		.4byte	.LASF14
 602 00a7 04       		.byte	0x4
 603 00a8 2A       		.byte	0x2a
 604 00a9 4C000000 		.4byte	0x4c
 605 00ad 04       		.uleb128 0x4
 606 00ae E2040000 		.4byte	.LASF15
 607 00b2 04       		.byte	0x4
 608 00b3 41       		.byte	0x41
 609 00b4 6C000000 		.4byte	0x6c
 610 00b8 04       		.uleb128 0x4
 611 00b9 D5070000 		.4byte	.LASF16
 612 00bd 04       		.byte	0x4
ARM GAS  /tmp/ccM203Zg.s 			page 12


 613 00be 42       		.byte	0x42
 614 00bf 7E000000 		.4byte	0x7e
 615 00c3 04       		.uleb128 0x4
 616 00c4 2B000000 		.4byte	.LASF17
 617 00c8 04       		.byte	0x4
 618 00c9 4E       		.byte	0x4e
 619 00ca 97000000 		.4byte	0x97
 620 00ce 04       		.uleb128 0x4
 621 00cf 24070000 		.4byte	.LASF18
 622 00d3 05       		.byte	0x5
 623 00d4 39       		.byte	0x39
 624 00d5 B8000000 		.4byte	0xb8
 625 00d9 04       		.uleb128 0x4
 626 00da F9020000 		.4byte	.LASF19
 627 00de 05       		.byte	0x5
 628 00df 3C       		.byte	0x3c
 629 00e0 A2000000 		.4byte	0xa2
 630 00e4 04       		.uleb128 0x4
 631 00e5 AB010000 		.4byte	.LASF20
 632 00e9 05       		.byte	0x5
 633 00ea 3D       		.byte	0x3d
 634 00eb A2000000 		.4byte	0xa2
 635 00ef 04       		.uleb128 0x4
 636 00f0 83040000 		.4byte	.LASF21
 637 00f4 05       		.byte	0x5
 638 00f5 3E       		.byte	0x3e
 639 00f6 A2000000 		.4byte	0xa2
 640 00fa 04       		.uleb128 0x4
 641 00fb BE040000 		.4byte	.LASF22
 642 00ff 05       		.byte	0x5
 643 0100 40       		.byte	0x40
 644 0101 B8000000 		.4byte	0xb8
 645 0105 04       		.uleb128 0x4
 646 0106 E0020000 		.4byte	.LASF23
 647 010a 05       		.byte	0x5
 648 010b 41       		.byte	0x41
 649 010c AD000000 		.4byte	0xad
 650 0110 04       		.uleb128 0x4
 651 0111 14030000 		.4byte	.LASF24
 652 0115 05       		.byte	0x5
 653 0116 43       		.byte	0x43
 654 0117 B8000000 		.4byte	0xb8
 655 011b 04       		.uleb128 0x4
 656 011c 3A020000 		.4byte	.LASF25
 657 0120 05       		.byte	0x5
 658 0121 45       		.byte	0x45
 659 0122 AD000000 		.4byte	0xad
 660 0126 04       		.uleb128 0x4
 661 0127 B3060000 		.4byte	.LASF26
 662 012b 06       		.byte	0x6
 663 012c 33       		.byte	0x33
 664 012d B8000000 		.4byte	0xb8
 665 0131 04       		.uleb128 0x4
 666 0132 C1050000 		.4byte	.LASF27
 667 0136 06       		.byte	0x6
 668 0137 3F       		.byte	0x3f
 669 0138 3C010000 		.4byte	0x13c
ARM GAS  /tmp/ccM203Zg.s 			page 13


 670 013c 05       		.uleb128 0x5
 671 013d B9020000 		.4byte	.LASF46
 672 0141 40       		.byte	0x40
 673 0142 07       		.byte	0x7
 674 0143 C2       		.byte	0xc2
 675 0144 1C020000 		.4byte	0x21c
 676 0148 06       		.uleb128 0x6
 677 0149 2C050000 		.4byte	.LASF28
 678 014d 07       		.byte	0x7
 679 014e C3       		.byte	0xc3
 680 014f 27020000 		.4byte	0x227
 681 0153 00       		.byte	0
 682 0154 06       		.uleb128 0x6
 683 0155 AD040000 		.4byte	.LASF29
 684 0159 07       		.byte	0x7
 685 015a C5       		.byte	0xc5
 686 015b 27020000 		.4byte	0x227
 687 015f 04       		.byte	0x4
 688 0160 06       		.uleb128 0x6
 689 0161 30010000 		.4byte	.LASF30
 690 0165 07       		.byte	0x7
 691 0166 C7       		.byte	0xc7
 692 0167 FA000000 		.4byte	0xfa
 693 016b 08       		.byte	0x8
 694 016c 06       		.uleb128 0x6
 695 016d DE070000 		.4byte	.LASF31
 696 0171 07       		.byte	0x7
 697 0172 C8       		.byte	0xc8
 698 0173 53060000 		.4byte	0x653
 699 0177 0C       		.byte	0xc
 700 0178 06       		.uleb128 0x6
 701 0179 CA010000 		.4byte	.LASF32
 702 017d 07       		.byte	0x7
 703 017e CA       		.byte	0xca
 704 017f 27020000 		.4byte	0x227
 705 0183 10       		.byte	0x10
 706 0184 06       		.uleb128 0x6
 707 0185 0F040000 		.4byte	.LASF33
 708 0189 07       		.byte	0x7
 709 018a CB       		.byte	0xcb
 710 018b 27020000 		.4byte	0x227
 711 018f 14       		.byte	0x14
 712 0190 06       		.uleb128 0x6
 713 0191 A9070000 		.4byte	.LASF34
 714 0195 07       		.byte	0x7
 715 0196 D2       		.byte	0xd2
 716 0197 DE070000 		.4byte	0x7de
 717 019b 18       		.byte	0x18
 718 019c 06       		.uleb128 0x6
 719 019d 16050000 		.4byte	.LASF35
 720 01a1 07       		.byte	0x7
 721 01a2 DD       		.byte	0xdd
 722 01a3 E4000000 		.4byte	0xe4
 723 01a7 1C       		.byte	0x1c
 724 01a8 06       		.uleb128 0x6
 725 01a9 B6070000 		.4byte	.LASF36
 726 01ad 07       		.byte	0x7
ARM GAS  /tmp/ccM203Zg.s 			page 14


 727 01ae E1       		.byte	0xe1
 728 01af D9000000 		.4byte	0xd9
 729 01b3 1D       		.byte	0x1d
 730 01b4 06       		.uleb128 0x6
 731 01b5 76070000 		.4byte	.LASF37
 732 01b9 07       		.byte	0x7
 733 01ba E6       		.byte	0xe6
 734 01bb EF000000 		.4byte	0xef
 735 01bf 1E       		.byte	0x1e
 736 01c0 07       		.uleb128 0x7
 737 01c1 705F7500 		.ascii	"p_u\000"
 738 01c5 07       		.byte	0x7
 739 01c6 3701     		.2byte	0x137
 740 01c8 0D070000 		.4byte	0x70d
 741 01cc 20       		.byte	0x20
 742 01cd 08       		.uleb128 0x8
 743 01ce 66030000 		.4byte	.LASF38
 744 01d2 07       		.byte	0x7
 745 01d3 3C01     		.2byte	0x13c
 746 01d5 2D020000 		.4byte	0x22d
 747 01d9 24       		.byte	0x24
 748 01da 08       		.uleb128 0x8
 749 01db 69020000 		.4byte	.LASF39
 750 01df 07       		.byte	0x7
 751 01e0 4201     		.2byte	0x142
 752 01e2 51020000 		.4byte	0x251
 753 01e6 28       		.byte	0x28
 754 01e7 08       		.uleb128 0x8
 755 01e8 5D050000 		.4byte	.LASF40
 756 01ec 07       		.byte	0x7
 757 01ed 4801     		.2byte	0x148
 758 01ef 10010000 		.4byte	0x110
 759 01f3 30       		.byte	0x30
 760 01f4 08       		.uleb128 0x8
 761 01f5 02050000 		.4byte	.LASF41
 762 01f9 07       		.byte	0x7
 763 01fa 4F01     		.2byte	0x14f
 764 01fc D8070000 		.4byte	0x7d8
 765 0200 34       		.byte	0x34
 766 0201 08       		.uleb128 0x8
 767 0202 BD060000 		.4byte	.LASF42
 768 0206 07       		.byte	0x7
 769 0207 5301     		.2byte	0x153
 770 0209 FA000000 		.4byte	0xfa
 771 020d 38       		.byte	0x38
 772 020e 08       		.uleb128 0x8
 773 020f 5D010000 		.4byte	.LASF43
 774 0213 07       		.byte	0x7
 775 0214 5A01     		.2byte	0x15a
 776 0216 04030000 		.4byte	0x304
 777 021a 3C       		.byte	0x3c
 778 021b 00       		.byte	0
 779 021c 04       		.uleb128 0x4
 780 021d 80030000 		.4byte	.LASF44
 781 0221 06       		.byte	0x6
 782 0222 44       		.byte	0x44
 783 0223 27020000 		.4byte	0x227
ARM GAS  /tmp/ccM203Zg.s 			page 15


 784 0227 09       		.uleb128 0x9
 785 0228 04       		.byte	0x4
 786 0229 31010000 		.4byte	0x131
 787 022d 04       		.uleb128 0x4
 788 022e 45030000 		.4byte	.LASF45
 789 0232 06       		.byte	0x6
 790 0233 49       		.byte	0x49
 791 0234 38020000 		.4byte	0x238
 792 0238 05       		.uleb128 0x5
 793 0239 8D050000 		.4byte	.LASF47
 794 023d 04       		.byte	0x4
 795 023e 07       		.byte	0x7
 796 023f B0       		.byte	0xb0
 797 0240 51020000 		.4byte	0x251
 798 0244 06       		.uleb128 0x6
 799 0245 2C050000 		.4byte	.LASF28
 800 0249 07       		.byte	0x7
 801 024a B1       		.byte	0xb1
 802 024b 27020000 		.4byte	0x227
 803 024f 00       		.byte	0
 804 0250 00       		.byte	0
 805 0251 04       		.uleb128 0x4
 806 0252 5D070000 		.4byte	.LASF48
 807 0256 06       		.byte	0x6
 808 0257 50       		.byte	0x50
 809 0258 5C020000 		.4byte	0x25c
 810 025c 05       		.uleb128 0x5
 811 025d 4A000000 		.4byte	.LASF49
 812 0261 08       		.byte	0x8
 813 0262 07       		.byte	0x7
 814 0263 B7       		.byte	0xb7
 815 0264 81020000 		.4byte	0x281
 816 0268 06       		.uleb128 0x6
 817 0269 2C050000 		.4byte	.LASF28
 818 026d 07       		.byte	0x7
 819 026e B8       		.byte	0xb8
 820 026f 27020000 		.4byte	0x227
 821 0273 00       		.byte	0
 822 0274 06       		.uleb128 0x6
 823 0275 AD040000 		.4byte	.LASF29
 824 0279 07       		.byte	0x7
 825 027a B9       		.byte	0xb9
 826 027b 27020000 		.4byte	0x227
 827 027f 04       		.byte	0x4
 828 0280 00       		.byte	0
 829 0281 04       		.uleb128 0x4
 830 0282 08000000 		.4byte	.LASF50
 831 0286 06       		.byte	0x6
 832 0287 57       		.byte	0x57
 833 0288 8C020000 		.4byte	0x28c
 834 028c 0A       		.uleb128 0xa
 835 028d 06030000 		.4byte	.LASF51
 836 0291 1C       		.byte	0x1c
 837 0292 07       		.byte	0x7
 838 0293 9201     		.2byte	0x192
 839 0295 E8020000 		.4byte	0x2e8
 840 0299 08       		.uleb128 0x8
ARM GAS  /tmp/ccM203Zg.s 			page 16


 841 029a 7C050000 		.4byte	.LASF52
 842 029e 07       		.byte	0x7
 843 029f 9301     		.2byte	0x193
 844 02a1 51020000 		.4byte	0x251
 845 02a5 00       		.byte	0
 846 02a6 08       		.uleb128 0x8
 847 02a7 1E050000 		.4byte	.LASF53
 848 02ab 07       		.byte	0x7
 849 02ac 9401     		.2byte	0x194
 850 02ae FA000000 		.4byte	0xfa
 851 02b2 08       		.byte	0x8
 852 02b3 08       		.uleb128 0x8
 853 02b4 17040000 		.4byte	.LASF54
 854 02b8 07       		.byte	0x7
 855 02b9 9601     		.2byte	0x196
 856 02bb 53060000 		.4byte	0x653
 857 02bf 0C       		.byte	0xc
 858 02c0 08       		.uleb128 0x8
 859 02c1 DA010000 		.4byte	.LASF55
 860 02c5 07       		.byte	0x7
 861 02c6 9901     		.2byte	0x199
 862 02c8 27020000 		.4byte	0x227
 863 02cc 10       		.byte	0x10
 864 02cd 08       		.uleb128 0x8
 865 02ce 46040000 		.4byte	.LASF56
 866 02d2 07       		.byte	0x7
 867 02d3 9A01     		.2byte	0x19a
 868 02d5 27020000 		.4byte	0x227
 869 02d9 14       		.byte	0x14
 870 02da 08       		.uleb128 0x8
 871 02db 3C040000 		.4byte	.LASF57
 872 02df 07       		.byte	0x7
 873 02e0 9D01     		.2byte	0x19d
 874 02e2 27020000 		.4byte	0x227
 875 02e6 18       		.byte	0x18
 876 02e7 00       		.byte	0
 877 02e8 04       		.uleb128 0x4
 878 02e9 C8060000 		.4byte	.LASF58
 879 02ed 06       		.byte	0x6
 880 02ee 5C       		.byte	0x5c
 881 02ef F3020000 		.4byte	0x2f3
 882 02f3 09       		.uleb128 0x9
 883 02f4 04       		.byte	0x4
 884 02f5 F9020000 		.4byte	0x2f9
 885 02f9 0B       		.uleb128 0xb
 886 02fa 04030000 		.4byte	0x304
 887 02fe 0C       		.uleb128 0xc
 888 02ff 04030000 		.4byte	0x304
 889 0303 00       		.byte	0
 890 0304 0D       		.uleb128 0xd
 891 0305 04       		.byte	0x4
 892 0306 04       		.uleb128 0x4
 893 0307 9D040000 		.4byte	.LASF59
 894 030b 06       		.byte	0x6
 895 030c 61       		.byte	0x61
 896 030d 11030000 		.4byte	0x311
 897 0311 0A       		.uleb128 0xa
ARM GAS  /tmp/ccM203Zg.s 			page 17


 898 0312 0B070000 		.4byte	.LASF60
 899 0316 14       		.byte	0x14
 900 0317 07       		.byte	0x7
 901 0318 6D01     		.2byte	0x16d
 902 031a 60030000 		.4byte	0x360
 903 031e 08       		.uleb128 0x8
 904 031f 4B020000 		.4byte	.LASF61
 905 0323 07       		.byte	0x7
 906 0324 6E01     		.2byte	0x16e
 907 0326 F0070000 		.4byte	0x7f0
 908 032a 00       		.byte	0
 909 032b 08       		.uleb128 0x8
 910 032c EB010000 		.4byte	.LASF62
 911 0330 07       		.byte	0x7
 912 0331 6F01     		.2byte	0x16f
 913 0333 F0070000 		.4byte	0x7f0
 914 0337 04       		.byte	0x4
 915 0338 08       		.uleb128 0x8
 916 0339 84050000 		.4byte	.LASF63
 917 033d 07       		.byte	0x7
 918 033e 7001     		.2byte	0x170
 919 0340 26010000 		.4byte	0x126
 920 0344 08       		.byte	0x8
 921 0345 08       		.uleb128 0x8
 922 0346 E4070000 		.4byte	.LASF64
 923 034a 07       		.byte	0x7
 924 034b 7101     		.2byte	0x171
 925 034d E8020000 		.4byte	0x2e8
 926 0351 0C       		.byte	0xc
 927 0352 08       		.uleb128 0x8
 928 0353 2C070000 		.4byte	.LASF65
 929 0357 07       		.byte	0x7
 930 0358 7301     		.2byte	0x173
 931 035a 04030000 		.4byte	0x304
 932 035e 10       		.byte	0x10
 933 035f 00       		.byte	0
 934 0360 04       		.uleb128 0x4
 935 0361 E1000000 		.4byte	.LASF66
 936 0365 06       		.byte	0x6
 937 0366 66       		.byte	0x66
 938 0367 6B030000 		.4byte	0x36b
 939 036b 0A       		.uleb128 0xa
 940 036c 93030000 		.4byte	.LASF67
 941 0370 10       		.byte	0x10
 942 0371 07       		.byte	0x7
 943 0372 7D01     		.2byte	0x17d
 944 0374 AD030000 		.4byte	0x3ad
 945 0378 08       		.uleb128 0x8
 946 0379 4B020000 		.4byte	.LASF61
 947 037d 07       		.byte	0x7
 948 037e 7E01     		.2byte	0x17e
 949 0380 F0070000 		.4byte	0x7f0
 950 0384 00       		.byte	0
 951 0385 08       		.uleb128 0x8
 952 0386 EB010000 		.4byte	.LASF62
 953 038a 07       		.byte	0x7
 954 038b 8001     		.2byte	0x180
ARM GAS  /tmp/ccM203Zg.s 			page 18


 955 038d F0070000 		.4byte	0x7f0
 956 0391 04       		.byte	0x4
 957 0392 08       		.uleb128 0x8
 958 0393 84050000 		.4byte	.LASF63
 959 0397 07       		.byte	0x7
 960 0398 8201     		.2byte	0x182
 961 039a 26010000 		.4byte	0x126
 962 039e 08       		.byte	0x8
 963 039f 08       		.uleb128 0x8
 964 03a0 03040000 		.4byte	.LASF68
 965 03a4 07       		.byte	0x7
 966 03a5 8A01     		.2byte	0x18a
 967 03a7 26010000 		.4byte	0x126
 968 03ab 0C       		.byte	0xc
 969 03ac 00       		.byte	0
 970 03ad 04       		.uleb128 0x4
 971 03ae 5B000000 		.4byte	.LASF69
 972 03b2 06       		.byte	0x6
 973 03b3 6B       		.byte	0x6b
 974 03b4 B8030000 		.4byte	0x3b8
 975 03b8 0A       		.uleb128 0xa
 976 03b9 CC040000 		.4byte	.LASF70
 977 03bd 04       		.byte	0x4
 978 03be 07       		.byte	0x7
 979 03bf A401     		.2byte	0x1a4
 980 03c1 D3030000 		.4byte	0x3d3
 981 03c5 08       		.uleb128 0x8
 982 03c6 DC060000 		.4byte	.LASF71
 983 03ca 07       		.byte	0x7
 984 03cb AC01     		.2byte	0x1ac
 985 03cd F6070000 		.4byte	0x7f6
 986 03d1 00       		.byte	0
 987 03d2 00       		.byte	0
 988 03d3 04       		.uleb128 0x4
 989 03d4 E6020000 		.4byte	.LASF72
 990 03d8 06       		.byte	0x6
 991 03d9 70       		.byte	0x70
 992 03da DE030000 		.4byte	0x3de
 993 03de 0E       		.uleb128 0xe
 994 03df 92010000 		.4byte	.LASF73
 995 03e3 5001     		.2byte	0x150
 996 03e5 07       		.byte	0x7
 997 03e6 C401     		.2byte	0x1c4
 998 03e8 3A040000 		.4byte	0x43a
 999 03ec 08       		.uleb128 0x8
 1000 03ed 8B070000 		.4byte	.LASF74
 1001 03f1 07       		.byte	0x7
 1002 03f2 C801     		.2byte	0x1c8
 1003 03f4 81020000 		.4byte	0x281
 1004 03f8 00       		.byte	0
 1005 03f9 08       		.uleb128 0x8
 1006 03fa 7A010000 		.4byte	.LASF75
 1007 03fe 07       		.byte	0x7
 1008 03ff CC01     		.2byte	0x1cc
 1009 0401 60030000 		.4byte	0x360
 1010 0405 1C       		.byte	0x1c
 1011 0406 07       		.uleb128 0x7
ARM GAS  /tmp/ccM203Zg.s 			page 19


 1012 0407 64626700 		.ascii	"dbg\000"
 1013 040b 07       		.byte	0x7
 1014 040c D001     		.2byte	0x1d0
 1015 040e AD030000 		.4byte	0x3ad
 1016 0412 2C       		.byte	0x2c
 1017 0413 08       		.uleb128 0x8
 1018 0414 B1000000 		.4byte	.LASF76
 1019 0418 07       		.byte	0x7
 1020 0419 D401     		.2byte	0x1d4
 1021 041b 31010000 		.4byte	0x131
 1022 041f 30       		.byte	0x30
 1023 0420 07       		.uleb128 0x7
 1024 0421 746D00   		.ascii	"tm\000"
 1025 0424 07       		.byte	0x7
 1026 0425 D901     		.2byte	0x1d9
 1027 0427 02070000 		.4byte	0x702
 1028 042b 70       		.byte	0x70
 1029 042c 08       		.uleb128 0x8
 1030 042d 2B020000 		.4byte	.LASF77
 1031 0431 07       		.byte	0x7
 1032 0432 E501     		.2byte	0x1e5
 1033 0434 FB070000 		.4byte	0x7fb
 1034 0438 78       		.byte	0x78
 1035 0439 00       		.byte	0
 1036 043a 02       		.uleb128 0x2
 1037 043b 04       		.byte	0x4
 1038 043c 07       		.byte	0x7
 1039 043d 77030000 		.4byte	.LASF78
 1040 0441 0F       		.uleb128 0xf
 1041 0442 B8000000 		.4byte	0xb8
 1042 0446 10       		.uleb128 0x10
 1043 0447 A2000000 		.4byte	0xa2
 1044 044b 56040000 		.4byte	0x456
 1045 044f 11       		.uleb128 0x11
 1046 0450 3A040000 		.4byte	0x43a
 1047 0454 0B       		.byte	0xb
 1048 0455 00       		.byte	0
 1049 0456 12       		.uleb128 0x12
 1050 0457 90       		.byte	0x90
 1051 0458 08       		.byte	0x8
 1052 0459 1002     		.2byte	0x210
 1053 045b 31060000 		.4byte	0x631
 1054 045f 07       		.uleb128 0x7
 1055 0460 545200   		.ascii	"TR\000"
 1056 0463 08       		.byte	0x8
 1057 0464 1202     		.2byte	0x212
 1058 0466 41040000 		.4byte	0x441
 1059 046a 00       		.byte	0
 1060 046b 07       		.uleb128 0x7
 1061 046c 445200   		.ascii	"DR\000"
 1062 046f 08       		.byte	0x8
 1063 0470 1302     		.2byte	0x213
 1064 0472 41040000 		.4byte	0x441
 1065 0476 04       		.byte	0x4
 1066 0477 07       		.uleb128 0x7
 1067 0478 435200   		.ascii	"CR\000"
 1068 047b 08       		.byte	0x8
ARM GAS  /tmp/ccM203Zg.s 			page 20


 1069 047c 1402     		.2byte	0x214
 1070 047e 41040000 		.4byte	0x441
 1071 0482 08       		.byte	0x8
 1072 0483 07       		.uleb128 0x7
 1073 0484 49535200 		.ascii	"ISR\000"
 1074 0488 08       		.byte	0x8
 1075 0489 1502     		.2byte	0x215
 1076 048b 41040000 		.4byte	0x441
 1077 048f 0C       		.byte	0xc
 1078 0490 08       		.uleb128 0x8
 1079 0491 75000000 		.4byte	.LASF79
 1080 0495 08       		.byte	0x8
 1081 0496 1602     		.2byte	0x216
 1082 0498 41040000 		.4byte	0x441
 1083 049c 10       		.byte	0x10
 1084 049d 08       		.uleb128 0x8
 1085 049e 7A000000 		.4byte	.LASF80
 1086 04a2 08       		.byte	0x8
 1087 04a3 1702     		.2byte	0x217
 1088 04a5 41040000 		.4byte	0x441
 1089 04a9 14       		.byte	0x14
 1090 04aa 08       		.uleb128 0x8
 1091 04ab 8B040000 		.4byte	.LASF81
 1092 04af 08       		.byte	0x8
 1093 04b0 1802     		.2byte	0x218
 1094 04b2 B8000000 		.4byte	0xb8
 1095 04b6 18       		.byte	0x18
 1096 04b7 08       		.uleb128 0x8
 1097 04b8 5E040000 		.4byte	.LASF82
 1098 04bc 08       		.byte	0x8
 1099 04bd 1902     		.2byte	0x219
 1100 04bf 41040000 		.4byte	0x441
 1101 04c3 1C       		.byte	0x1c
 1102 04c4 08       		.uleb128 0x8
 1103 04c5 56050000 		.4byte	.LASF83
 1104 04c9 08       		.byte	0x8
 1105 04ca 1A02     		.2byte	0x21a
 1106 04cc 41040000 		.4byte	0x441
 1107 04d0 20       		.byte	0x20
 1108 04d1 07       		.uleb128 0x7
 1109 04d2 57505200 		.ascii	"WPR\000"
 1110 04d6 08       		.byte	0x8
 1111 04d7 1B02     		.2byte	0x21b
 1112 04d9 41040000 		.4byte	0x441
 1113 04dd 24       		.byte	0x24
 1114 04de 07       		.uleb128 0x7
 1115 04df 53535200 		.ascii	"SSR\000"
 1116 04e3 08       		.byte	0x8
 1117 04e4 1C02     		.2byte	0x21c
 1118 04e6 41040000 		.4byte	0x441
 1119 04ea 28       		.byte	0x28
 1120 04eb 08       		.uleb128 0x8
 1121 04ec 4C070000 		.4byte	.LASF84
 1122 04f0 08       		.byte	0x8
 1123 04f1 1D02     		.2byte	0x21d
 1124 04f3 41040000 		.4byte	0x441
 1125 04f7 2C       		.byte	0x2c
ARM GAS  /tmp/ccM203Zg.s 			page 21


 1126 04f8 08       		.uleb128 0x8
 1127 04f9 01030000 		.4byte	.LASF85
 1128 04fd 08       		.byte	0x8
 1129 04fe 1E02     		.2byte	0x21e
 1130 0500 41040000 		.4byte	0x441
 1131 0504 30       		.byte	0x30
 1132 0505 08       		.uleb128 0x8
 1133 0506 46020000 		.4byte	.LASF86
 1134 050a 08       		.byte	0x8
 1135 050b 1F02     		.2byte	0x21f
 1136 050d 41040000 		.4byte	0x441
 1137 0511 34       		.byte	0x34
 1138 0512 08       		.uleb128 0x8
 1139 0513 81010000 		.4byte	.LASF87
 1140 0517 08       		.byte	0x8
 1141 0518 2002     		.2byte	0x220
 1142 051a 41040000 		.4byte	0x441
 1143 051e 38       		.byte	0x38
 1144 051f 08       		.uleb128 0x8
 1145 0520 6A000000 		.4byte	.LASF88
 1146 0524 08       		.byte	0x8
 1147 0525 2102     		.2byte	0x221
 1148 0527 41040000 		.4byte	0x441
 1149 052b 3C       		.byte	0x3c
 1150 052c 08       		.uleb128 0x8
 1151 052d 7D040000 		.4byte	.LASF89
 1152 0531 08       		.byte	0x8
 1153 0532 2202     		.2byte	0x222
 1154 0534 41040000 		.4byte	0x441
 1155 0538 40       		.byte	0x40
 1156 0539 08       		.uleb128 0x8
 1157 053a 99070000 		.4byte	.LASF90
 1158 053e 08       		.byte	0x8
 1159 053f 2302     		.2byte	0x223
 1160 0541 41040000 		.4byte	0x441
 1161 0545 44       		.byte	0x44
 1162 0546 08       		.uleb128 0x8
 1163 0547 F3060000 		.4byte	.LASF91
 1164 054b 08       		.byte	0x8
 1165 054c 2402     		.2byte	0x224
 1166 054e 41040000 		.4byte	0x441
 1167 0552 48       		.byte	0x48
 1168 0553 08       		.uleb128 0x8
 1169 0554 B4040000 		.4byte	.LASF92
 1170 0558 08       		.byte	0x8
 1171 0559 2502     		.2byte	0x225
 1172 055b B8000000 		.4byte	0xb8
 1173 055f 4C       		.byte	0x4c
 1174 0560 08       		.uleb128 0x8
 1175 0561 43050000 		.4byte	.LASF93
 1176 0565 08       		.byte	0x8
 1177 0566 2602     		.2byte	0x226
 1178 0568 41040000 		.4byte	0x441
 1179 056c 50       		.byte	0x50
 1180 056d 08       		.uleb128 0x8
 1181 056e E6060000 		.4byte	.LASF94
 1182 0572 08       		.byte	0x8
ARM GAS  /tmp/ccM203Zg.s 			page 22


 1183 0573 2702     		.2byte	0x227
 1184 0575 41040000 		.4byte	0x441
 1185 0579 54       		.byte	0x54
 1186 057a 08       		.uleb128 0x8
 1187 057b B0070000 		.4byte	.LASF95
 1188 057f 08       		.byte	0x8
 1189 0580 2802     		.2byte	0x228
 1190 0582 41040000 		.4byte	0x441
 1191 0586 58       		.byte	0x58
 1192 0587 08       		.uleb128 0x8
 1193 0588 6F000000 		.4byte	.LASF96
 1194 058c 08       		.byte	0x8
 1195 058d 2902     		.2byte	0x229
 1196 058f 41040000 		.4byte	0x441
 1197 0593 5C       		.byte	0x5c
 1198 0594 08       		.uleb128 0x8
 1199 0595 A5010000 		.4byte	.LASF97
 1200 0599 08       		.byte	0x8
 1201 059a 2A02     		.2byte	0x22a
 1202 059c 41040000 		.4byte	0x441
 1203 05a0 60       		.byte	0x60
 1204 05a1 08       		.uleb128 0x8
 1205 05a2 53020000 		.4byte	.LASF98
 1206 05a6 08       		.byte	0x8
 1207 05a7 2B02     		.2byte	0x22b
 1208 05a9 41040000 		.4byte	0x441
 1209 05ad 64       		.byte	0x64
 1210 05ae 08       		.uleb128 0x8
 1211 05af 35030000 		.4byte	.LASF99
 1212 05b3 08       		.byte	0x8
 1213 05b4 2C02     		.2byte	0x22c
 1214 05b6 41040000 		.4byte	0x441
 1215 05ba 68       		.byte	0x68
 1216 05bb 08       		.uleb128 0x8
 1217 05bc 77040000 		.4byte	.LASF100
 1218 05c0 08       		.byte	0x8
 1219 05c1 2D02     		.2byte	0x22d
 1220 05c3 41040000 		.4byte	0x441
 1221 05c7 6C       		.byte	0x6c
 1222 05c8 08       		.uleb128 0x8
 1223 05c9 68050000 		.4byte	.LASF101
 1224 05cd 08       		.byte	0x8
 1225 05ce 2E02     		.2byte	0x22e
 1226 05d0 41040000 		.4byte	0x441
 1227 05d4 70       		.byte	0x70
 1228 05d5 08       		.uleb128 0x8
 1229 05d6 46070000 		.4byte	.LASF102
 1230 05da 08       		.byte	0x8
 1231 05db 2F02     		.2byte	0x22f
 1232 05dd 41040000 		.4byte	0x441
 1233 05e1 74       		.byte	0x74
 1234 05e2 08       		.uleb128 0x8
 1235 05e3 F2020000 		.4byte	.LASF103
 1236 05e7 08       		.byte	0x8
 1237 05e8 3002     		.2byte	0x230
 1238 05ea 41040000 		.4byte	0x441
 1239 05ee 78       		.byte	0x78
ARM GAS  /tmp/ccM203Zg.s 			page 23


 1240 05ef 08       		.uleb128 0x8
 1241 05f0 2E040000 		.4byte	.LASF104
 1242 05f4 08       		.byte	0x8
 1243 05f5 3102     		.2byte	0x231
 1244 05f7 41040000 		.4byte	0x441
 1245 05fb 7C       		.byte	0x7c
 1246 05fc 08       		.uleb128 0x8
 1247 05fd 33050000 		.4byte	.LASF105
 1248 0601 08       		.byte	0x8
 1249 0602 3202     		.2byte	0x232
 1250 0604 41040000 		.4byte	0x441
 1251 0608 80       		.byte	0x80
 1252 0609 08       		.uleb128 0x8
 1253 060a FC060000 		.4byte	.LASF106
 1254 060e 08       		.byte	0x8
 1255 060f 3302     		.2byte	0x233
 1256 0611 41040000 		.4byte	0x441
 1257 0615 84       		.byte	0x84
 1258 0616 08       		.uleb128 0x8
 1259 0617 BE070000 		.4byte	.LASF107
 1260 061b 08       		.byte	0x8
 1261 061c 3402     		.2byte	0x234
 1262 061e 41040000 		.4byte	0x441
 1263 0622 88       		.byte	0x88
 1264 0623 08       		.uleb128 0x8
 1265 0624 7F000000 		.4byte	.LASF108
 1266 0628 08       		.byte	0x8
 1267 0629 3502     		.2byte	0x235
 1268 062b 41040000 		.4byte	0x441
 1269 062f 8C       		.byte	0x8c
 1270 0630 00       		.byte	0
 1271 0631 13       		.uleb128 0x13
 1272 0632 0C010000 		.4byte	.LASF109
 1273 0636 08       		.byte	0x8
 1274 0637 3602     		.2byte	0x236
 1275 0639 56040000 		.4byte	0x456
 1276 063d 04       		.uleb128 0x4
 1277 063e E2010000 		.4byte	.LASF110
 1278 0642 09       		.byte	0x9
 1279 0643 65       		.byte	0x65
 1280 0644 04030000 		.4byte	0x304
 1281 0648 04       		.uleb128 0x4
 1282 0649 2A030000 		.4byte	.LASF111
 1283 064d 09       		.byte	0x9
 1284 064e 6D       		.byte	0x6d
 1285 064f C3000000 		.4byte	0xc3
 1286 0653 05       		.uleb128 0x5
 1287 0654 03070000 		.4byte	.LASF112
 1288 0658 04       		.byte	0x4
 1289 0659 09       		.byte	0x9
 1290 065a 89       		.byte	0x89
 1291 065b 6C060000 		.4byte	0x66c
 1292 065f 14       		.uleb128 0x14
 1293 0660 72313300 		.ascii	"r13\000"
 1294 0664 09       		.byte	0x9
 1295 0665 8A       		.byte	0x8a
 1296 0666 E7060000 		.4byte	0x6e7
ARM GAS  /tmp/ccM203Zg.s 			page 24


 1297 066a 00       		.byte	0
 1298 066b 00       		.byte	0
 1299 066c 05       		.uleb128 0x5
 1300 066d 3E000000 		.4byte	.LASF113
 1301 0671 24       		.byte	0x24
 1302 0672 0A       		.byte	0xa
 1303 0673 FD       		.byte	0xfd
 1304 0674 E7060000 		.4byte	0x6e7
 1305 0678 07       		.uleb128 0x7
 1306 0679 723400   		.ascii	"r4\000"
 1307 067c 0A       		.byte	0xa
 1308 067d 1001     		.2byte	0x110
 1309 067f 3D060000 		.4byte	0x63d
 1310 0683 00       		.byte	0
 1311 0684 07       		.uleb128 0x7
 1312 0685 723500   		.ascii	"r5\000"
 1313 0688 0A       		.byte	0xa
 1314 0689 1101     		.2byte	0x111
 1315 068b 3D060000 		.4byte	0x63d
 1316 068f 04       		.byte	0x4
 1317 0690 07       		.uleb128 0x7
 1318 0691 723600   		.ascii	"r6\000"
 1319 0694 0A       		.byte	0xa
 1320 0695 1201     		.2byte	0x112
 1321 0697 3D060000 		.4byte	0x63d
 1322 069b 08       		.byte	0x8
 1323 069c 07       		.uleb128 0x7
 1324 069d 723700   		.ascii	"r7\000"
 1325 06a0 0A       		.byte	0xa
 1326 06a1 1301     		.2byte	0x113
 1327 06a3 3D060000 		.4byte	0x63d
 1328 06a7 0C       		.byte	0xc
 1329 06a8 07       		.uleb128 0x7
 1330 06a9 723800   		.ascii	"r8\000"
 1331 06ac 0A       		.byte	0xa
 1332 06ad 1401     		.2byte	0x114
 1333 06af 3D060000 		.4byte	0x63d
 1334 06b3 10       		.byte	0x10
 1335 06b4 07       		.uleb128 0x7
 1336 06b5 723900   		.ascii	"r9\000"
 1337 06b8 0A       		.byte	0xa
 1338 06b9 1501     		.2byte	0x115
 1339 06bb 3D060000 		.4byte	0x63d
 1340 06bf 14       		.byte	0x14
 1341 06c0 07       		.uleb128 0x7
 1342 06c1 72313000 		.ascii	"r10\000"
 1343 06c5 0A       		.byte	0xa
 1344 06c6 1601     		.2byte	0x116
 1345 06c8 3D060000 		.4byte	0x63d
 1346 06cc 18       		.byte	0x18
 1347 06cd 07       		.uleb128 0x7
 1348 06ce 72313100 		.ascii	"r11\000"
 1349 06d2 0A       		.byte	0xa
 1350 06d3 1701     		.2byte	0x117
 1351 06d5 3D060000 		.4byte	0x63d
 1352 06d9 1C       		.byte	0x1c
 1353 06da 07       		.uleb128 0x7
ARM GAS  /tmp/ccM203Zg.s 			page 25


 1354 06db 6C7200   		.ascii	"lr\000"
 1355 06de 0A       		.byte	0xa
 1356 06df 1801     		.2byte	0x118
 1357 06e1 3D060000 		.4byte	0x63d
 1358 06e5 20       		.byte	0x20
 1359 06e6 00       		.byte	0
 1360 06e7 09       		.uleb128 0x9
 1361 06e8 04       		.byte	0x4
 1362 06e9 6C060000 		.4byte	0x66c
 1363 06ed 15       		.uleb128 0x15
 1364 06ee 04       		.byte	0x4
 1365 06ef 0B       		.byte	0xb
 1366 06f0 38       		.byte	0x38
 1367 06f1 02070000 		.4byte	0x702
 1368 06f5 06       		.uleb128 0x6
 1369 06f6 EC060000 		.4byte	.LASF114
 1370 06fa 0B       		.byte	0xb
 1371 06fb 3C       		.byte	0x3c
 1372 06fc CE000000 		.4byte	0xce
 1373 0700 00       		.byte	0
 1374 0701 00       		.byte	0
 1375 0702 04       		.uleb128 0x4
 1376 0703 1D040000 		.4byte	.LASF115
 1377 0707 0B       		.byte	0xb
 1378 0708 3D       		.byte	0x3d
 1379 0709 ED060000 		.4byte	0x6ed
 1380 070d 16       		.uleb128 0x16
 1381 070e 04       		.byte	0x4
 1382 070f 07       		.byte	0x7
 1383 0710 FA       		.byte	0xfa
 1384 0711 76070000 		.4byte	0x776
 1385 0715 17       		.uleb128 0x17
 1386 0716 24000000 		.4byte	.LASF116
 1387 071a 07       		.byte	0x7
 1388 071b 0101     		.2byte	0x101
 1389 071d 05010000 		.4byte	0x105
 1390 0721 17       		.uleb128 0x17
 1391 0722 A8000000 		.4byte	.LASF117
 1392 0726 07       		.byte	0x7
 1393 0727 0801     		.2byte	0x108
 1394 0729 05010000 		.4byte	0x105
 1395 072d 17       		.uleb128 0x17
 1396 072e A2070000 		.4byte	.LASF118
 1397 0732 07       		.byte	0x7
 1398 0733 0F01     		.2byte	0x10f
 1399 0735 04030000 		.4byte	0x304
 1400 0739 17       		.uleb128 0x17
 1401 073a 8C010000 		.4byte	.LASF119
 1402 073e 07       		.byte	0x7
 1403 073f 1601     		.2byte	0x116
 1404 0741 76070000 		.4byte	0x776
 1405 0745 17       		.uleb128 0x17
 1406 0746 BC000000 		.4byte	.LASF120
 1407 074a 07       		.byte	0x7
 1408 074b 1B01     		.2byte	0x11b
 1409 074d 05010000 		.4byte	0x105
 1410 0751 17       		.uleb128 0x17
ARM GAS  /tmp/ccM203Zg.s 			page 26


 1411 0752 59020000 		.4byte	.LASF121
 1412 0756 07       		.byte	0x7
 1413 0757 2401     		.2byte	0x124
 1414 0759 A1070000 		.4byte	0x7a1
 1415 075d 17       		.uleb128 0x17
 1416 075e 75050000 		.4byte	.LASF122
 1417 0762 07       		.byte	0x7
 1418 0763 2D01     		.2byte	0x12d
 1419 0765 D8070000 		.4byte	0x7d8
 1420 0769 17       		.uleb128 0x17
 1421 076a 25050000 		.4byte	.LASF123
 1422 076e 07       		.byte	0x7
 1423 076f 3501     		.2byte	0x135
 1424 0771 10010000 		.4byte	0x110
 1425 0775 00       		.byte	0
 1426 0776 09       		.uleb128 0x9
 1427 0777 04       		.byte	0x4
 1428 0778 1C020000 		.4byte	0x21c
 1429 077c 05       		.uleb128 0x5
 1430 077d 49050000 		.4byte	.LASF124
 1431 0781 0C       		.byte	0xc
 1432 0782 0C       		.byte	0xc
 1433 0783 34       		.byte	0x34
 1434 0784 A1070000 		.4byte	0x7a1
 1435 0788 06       		.uleb128 0x6
 1436 0789 D2010000 		.4byte	.LASF125
 1437 078d 0C       		.byte	0xc
 1438 078e 35       		.byte	0x35
 1439 078f 51020000 		.4byte	0x251
 1440 0793 00       		.byte	0
 1441 0794 06       		.uleb128 0x6
 1442 0795 85020000 		.4byte	.LASF126
 1443 0799 0C       		.byte	0xc
 1444 079a 37       		.byte	0x37
 1445 079b 1B010000 		.4byte	0x11b
 1446 079f 08       		.byte	0x8
 1447 07a0 00       		.byte	0
 1448 07a1 09       		.uleb128 0x9
 1449 07a2 04       		.byte	0x4
 1450 07a3 7C070000 		.4byte	0x77c
 1451 07a7 05       		.uleb128 0x5
 1452 07a8 6D070000 		.4byte	.LASF127
 1453 07ac 10       		.byte	0x10
 1454 07ad 0D       		.byte	0xd
 1455 07ae 39       		.byte	0x39
 1456 07af D8070000 		.4byte	0x7d8
 1457 07b3 06       		.uleb128 0x6
 1458 07b4 65010000 		.4byte	.LASF128
 1459 07b8 0D       		.byte	0xd
 1460 07b9 3A       		.byte	0x3a
 1461 07ba 51020000 		.4byte	0x251
 1462 07be 00       		.byte	0
 1463 07bf 06       		.uleb128 0x6
 1464 07c0 CD070000 		.4byte	.LASF129
 1465 07c4 0D       		.byte	0xd
 1466 07c5 3C       		.byte	0x3c
 1467 07c6 27020000 		.4byte	0x227
ARM GAS  /tmp/ccM203Zg.s 			page 27


 1468 07ca 08       		.byte	0x8
 1469 07cb 06       		.uleb128 0x6
 1470 07cc AC060000 		.4byte	.LASF130
 1471 07d0 0D       		.byte	0xd
 1472 07d1 3E       		.byte	0x3e
 1473 07d2 16080000 		.4byte	0x816
 1474 07d6 0C       		.byte	0xc
 1475 07d7 00       		.byte	0
 1476 07d8 09       		.uleb128 0x9
 1477 07d9 04       		.byte	0x4
 1478 07da A7070000 		.4byte	0x7a7
 1479 07de 09       		.uleb128 0x9
 1480 07df 04       		.byte	0x4
 1481 07e0 E4070000 		.4byte	0x7e4
 1482 07e4 18       		.uleb128 0x18
 1483 07e5 E9070000 		.4byte	0x7e9
 1484 07e9 02       		.uleb128 0x2
 1485 07ea 01       		.byte	0x1
 1486 07eb 08       		.byte	0x8
 1487 07ec AF050000 		.4byte	.LASF131
 1488 07f0 09       		.uleb128 0x9
 1489 07f1 04       		.byte	0x4
 1490 07f2 06030000 		.4byte	0x306
 1491 07f6 0F       		.uleb128 0xf
 1492 07f7 DE070000 		.4byte	0x7de
 1493 07fb 10       		.uleb128 0x10
 1494 07fc 48060000 		.4byte	0x648
 1495 0800 0B080000 		.4byte	0x80b
 1496 0804 11       		.uleb128 0x11
 1497 0805 3A040000 		.4byte	0x43a
 1498 0809 1A       		.byte	0x1a
 1499 080a 00       		.byte	0
 1500 080b 04       		.uleb128 0x4
 1501 080c 23020000 		.4byte	.LASF132
 1502 0810 0D       		.byte	0xd
 1503 0811 34       		.byte	0x34
 1504 0812 A7070000 		.4byte	0x7a7
 1505 0816 09       		.uleb128 0x9
 1506 0817 04       		.byte	0x4
 1507 0818 0B080000 		.4byte	0x80b
 1508 081c 02       		.uleb128 0x2
 1509 081d 01       		.byte	0x1
 1510 081e 02       		.byte	0x2
 1511 081f DC040000 		.4byte	.LASF133
 1512 0823 19       		.uleb128 0x19
 1513 0824 746D00   		.ascii	"tm\000"
 1514 0827 24       		.byte	0x24
 1515 0828 0E       		.byte	0xe
 1516 0829 1F       		.byte	0x1f
 1517 082a 9B080000 		.4byte	0x89b
 1518 082e 06       		.uleb128 0x6
 1519 082f 6E050000 		.4byte	.LASF134
 1520 0833 0E       		.byte	0xe
 1521 0834 21       		.byte	0x21
 1522 0835 33000000 		.4byte	0x33
 1523 0839 00       		.byte	0
 1524 083a 06       		.uleb128 0x6
ARM GAS  /tmp/ccM203Zg.s 			page 28


 1525 083b 70030000 		.4byte	.LASF135
 1526 083f 0E       		.byte	0xe
 1527 0840 22       		.byte	0x22
 1528 0841 33000000 		.4byte	0x33
 1529 0845 04       		.byte	0x4
 1530 0846 06       		.uleb128 0x6
 1531 0847 CA050000 		.4byte	.LASF136
 1532 084b 0E       		.byte	0xe
 1533 084c 23       		.byte	0x23
 1534 084d 33000000 		.4byte	0x33
 1535 0851 08       		.byte	0x8
 1536 0852 06       		.uleb128 0x6
 1537 0853 1C070000 		.4byte	.LASF137
 1538 0857 0E       		.byte	0xe
 1539 0858 24       		.byte	0x24
 1540 0859 33000000 		.4byte	0x33
 1541 085d 0C       		.byte	0xc
 1542 085e 06       		.uleb128 0x6
 1543 085f 35040000 		.4byte	.LASF138
 1544 0863 0E       		.byte	0xe
 1545 0864 25       		.byte	0x25
 1546 0865 33000000 		.4byte	0x33
 1547 0869 10       		.byte	0x10
 1548 086a 06       		.uleb128 0x6
 1549 086b 00000000 		.4byte	.LASF139
 1550 086f 0E       		.byte	0xe
 1551 0870 26       		.byte	0x26
 1552 0871 33000000 		.4byte	0x33
 1553 0875 14       		.byte	0x14
 1554 0876 06       		.uleb128 0x6
 1555 0877 3E070000 		.4byte	.LASF140
 1556 087b 0E       		.byte	0xe
 1557 087c 27       		.byte	0x27
 1558 087d 33000000 		.4byte	0x33
 1559 0881 18       		.byte	0x18
 1560 0882 06       		.uleb128 0x6
 1561 0883 AA030000 		.4byte	.LASF141
 1562 0887 0E       		.byte	0xe
 1563 0888 28       		.byte	0x28
 1564 0889 33000000 		.4byte	0x33
 1565 088d 1C       		.byte	0x1c
 1566 088e 06       		.uleb128 0x6
 1567 088f B0020000 		.4byte	.LASF142
 1568 0893 0E       		.byte	0xe
 1569 0894 29       		.byte	0x29
 1570 0895 33000000 		.4byte	0x33
 1571 0899 20       		.byte	0x20
 1572 089a 00       		.byte	0
 1573 089b 04       		.uleb128 0x4
 1574 089c F8040000 		.4byte	.LASF143
 1575 08a0 0F       		.byte	0xf
 1576 08a1 58       		.byte	0x58
 1577 08a2 A6080000 		.4byte	0x8a6
 1578 08a6 05       		.uleb128 0x5
 1579 08a7 F8040000 		.4byte	.LASF143
 1580 08ab 04       		.byte	0x4
 1581 08ac 10       		.byte	0x10
ARM GAS  /tmp/ccM203Zg.s 			page 29


 1582 08ad B6       		.byte	0xb6
 1583 08ae BF080000 		.4byte	0x8bf
 1584 08b2 14       		.uleb128 0x14
 1585 08b3 72746300 		.ascii	"rtc\000"
 1586 08b7 10       		.byte	0x10
 1587 08b8 C1       		.byte	0xc1
 1588 08b9 58090000 		.4byte	0x958
 1589 08bd 00       		.byte	0
 1590 08be 00       		.byte	0
 1591 08bf 15       		.uleb128 0x15
 1592 08c0 08       		.byte	0x8
 1593 08c1 0F       		.byte	0xf
 1594 08c2 5D       		.byte	0x5d
 1595 08c3 22090000 		.4byte	0x922
 1596 08c7 1A       		.uleb128 0x1a
 1597 08c8 87010000 		.4byte	.LASF144
 1598 08cc 0F       		.byte	0xf
 1599 08cd 5F       		.byte	0x5f
 1600 08ce B8000000 		.4byte	0xb8
 1601 08d2 04       		.byte	0x4
 1602 08d3 08       		.byte	0x8
 1603 08d4 18       		.byte	0x18
 1604 08d5 00       		.byte	0
 1605 08d6 1A       		.uleb128 0x1a
 1606 08d7 40020000 		.4byte	.LASF145
 1607 08db 0F       		.byte	0xf
 1608 08dc 60       		.byte	0x60
 1609 08dd B8000000 		.4byte	0xb8
 1610 08e1 04       		.byte	0x4
 1611 08e2 04       		.byte	0x4
 1612 08e3 14       		.byte	0x14
 1613 08e4 00       		.byte	0
 1614 08e5 1A       		.uleb128 0x1a
 1615 08e6 04010000 		.4byte	.LASF146
 1616 08ea 0F       		.byte	0xf
 1617 08eb 61       		.byte	0x61
 1618 08ec B8000000 		.4byte	0xb8
 1619 08f0 04       		.byte	0x4
 1620 08f1 01       		.byte	0x1
 1621 08f2 13       		.byte	0x13
 1622 08f3 00       		.byte	0
 1623 08f4 1A       		.uleb128 0x1a
 1624 08f5 53070000 		.4byte	.LASF147
 1625 08f9 0F       		.byte	0xf
 1626 08fa 62       		.byte	0x62
 1627 08fb B8000000 		.4byte	0xb8
 1628 08ff 04       		.byte	0x4
 1629 0900 03       		.byte	0x3
 1630 0901 10       		.byte	0x10
 1631 0902 00       		.byte	0
 1632 0903 1B       		.uleb128 0x1b
 1633 0904 64617900 		.ascii	"day\000"
 1634 0908 0F       		.byte	0xf
 1635 0909 63       		.byte	0x63
 1636 090a B8000000 		.4byte	0xb8
 1637 090e 04       		.byte	0x4
 1638 090f 05       		.byte	0x5
ARM GAS  /tmp/ccM203Zg.s 			page 30


 1639 0910 0B       		.byte	0xb
 1640 0911 00       		.byte	0
 1641 0912 1A       		.uleb128 0x1a
 1642 0913 C3020000 		.4byte	.LASF148
 1643 0917 0F       		.byte	0xf
 1644 0918 64       		.byte	0x64
 1645 0919 B8000000 		.4byte	0xb8
 1646 091d 04       		.byte	0x4
 1647 091e 1B       		.byte	0x1b
 1648 091f 05       		.byte	0x5
 1649 0920 04       		.byte	0x4
 1650 0921 00       		.byte	0
 1651 0922 04       		.uleb128 0x4
 1652 0923 5A030000 		.4byte	.LASF149
 1653 0927 0F       		.byte	0xf
 1654 0928 66       		.byte	0x66
 1655 0929 BF080000 		.4byte	0x8bf
 1656 092d 04       		.uleb128 0x4
 1657 092e B2030000 		.4byte	.LASF150
 1658 0932 10       		.byte	0x10
 1659 0933 8F       		.byte	0x8f
 1660 0934 B8000000 		.4byte	0xb8
 1661 0938 15       		.uleb128 0x15
 1662 0939 04       		.byte	0x4
 1663 093a 10       		.byte	0x10
 1664 093b 94       		.byte	0x94
 1665 093c 4D090000 		.4byte	0x94d
 1666 0940 06       		.uleb128 0x6
 1667 0941 54030000 		.4byte	.LASF151
 1668 0945 10       		.byte	0x10
 1669 0946 98       		.byte	0x98
 1670 0947 B8000000 		.4byte	0xb8
 1671 094b 00       		.byte	0
 1672 094c 00       		.byte	0
 1673 094d 04       		.uleb128 0x4
 1674 094e 7D070000 		.4byte	.LASF152
 1675 0952 10       		.byte	0x10
 1676 0953 99       		.byte	0x99
 1677 0954 38090000 		.4byte	0x938
 1678 0958 09       		.uleb128 0x9
 1679 0959 04       		.byte	0x4
 1680 095a 31060000 		.4byte	0x631
 1681 095e 1C       		.uleb128 0x1c
 1682 095f C5070000 		.4byte	.LASF153
 1683 0963 01       		.byte	0x1
 1684 0964 43       		.byte	0x43
 1685 0965 00000000 		.4byte	.LFB272
 1686 0969 04000000 		.4byte	.LFE272-.LFB272
 1687 096d 01       		.uleb128 0x1
 1688 096e 9C       		.byte	0x9c
 1689 096f 7D090000 		.4byte	0x97d
 1690 0973 1D       		.uleb128 0x1d
 1691 0974 04000000 		.4byte	.LVL0
 1692 0978 DD0C0000 		.4byte	0xcdd
 1693 097c 00       		.byte	0
 1694 097d 1C       		.uleb128 0x1c
 1695 097e F8010000 		.4byte	.LASF154
ARM GAS  /tmp/ccM203Zg.s 			page 31


 1696 0982 01       		.byte	0x1
 1697 0983 51       		.byte	0x51
 1698 0984 00000000 		.4byte	.LFB273
 1699 0988 02000000 		.4byte	.LFE273-.LFB273
 1700 098c 01       		.uleb128 0x1
 1701 098d 9C       		.byte	0x9c
 1702 098e A0090000 		.4byte	0x9a0
 1703 0992 1E       		.uleb128 0x1e
 1704 0993 F3010000 		.4byte	.LASF156
 1705 0997 01       		.byte	0x1
 1706 0998 51       		.byte	0x51
 1707 0999 A0090000 		.4byte	0x9a0
 1708 099d 01       		.uleb128 0x1
 1709 099e 50       		.byte	0x50
 1710 099f 00       		.byte	0
 1711 09a0 09       		.uleb128 0x9
 1712 09a1 04       		.byte	0x4
 1713 09a2 9B080000 		.4byte	0x89b
 1714 09a6 1C       		.uleb128 0x1c
 1715 09a7 9D000000 		.4byte	.LASF155
 1716 09ab 01       		.byte	0x1
 1717 09ac 68       		.byte	0x68
 1718 09ad 00000000 		.4byte	.LFB274
 1719 09b1 04000000 		.4byte	.LFE274-.LFB274
 1720 09b5 01       		.uleb128 0x1
 1721 09b6 9C       		.byte	0x9c
 1722 09b7 FB090000 		.4byte	0x9fb
 1723 09bb 1F       		.uleb128 0x1f
 1724 09bc F3010000 		.4byte	.LASF156
 1725 09c0 01       		.byte	0x1
 1726 09c1 68       		.byte	0x68
 1727 09c2 A0090000 		.4byte	0x9a0
 1728 09c6 00000000 		.4byte	.LLST0
 1729 09ca 1F       		.uleb128 0x1f
 1730 09cb 60020000 		.4byte	.LASF157
 1731 09cf 01       		.byte	0x1
 1732 09d0 68       		.byte	0x68
 1733 09d1 FB090000 		.4byte	0x9fb
 1734 09d5 21000000 		.4byte	.LLST1
 1735 09d9 20       		.uleb128 0x20
 1736 09da 3A050000 		.4byte	.LASF159
 1737 09de 160A0000 		.4byte	0xa16
 1738 09e2 21       		.uleb128 0x21
 1739 09e3 04000000 		.4byte	.LVL3
 1740 09e7 E40C0000 		.4byte	0xce4
 1741 09eb 22       		.uleb128 0x22
 1742 09ec 01       		.uleb128 0x1
 1743 09ed 51       		.byte	0x51
 1744 09ee 03       		.uleb128 0x3
 1745 09ef F3       		.byte	0xf3
 1746 09f0 01       		.uleb128 0x1
 1747 09f1 51       		.byte	0x51
 1748 09f2 22       		.uleb128 0x22
 1749 09f3 01       		.uleb128 0x1
 1750 09f4 50       		.byte	0x50
 1751 09f5 03       		.uleb128 0x3
 1752 09f6 F3       		.byte	0xf3
ARM GAS  /tmp/ccM203Zg.s 			page 32


 1753 09f7 01       		.uleb128 0x1
 1754 09f8 50       		.byte	0x50
 1755 09f9 00       		.byte	0
 1756 09fa 00       		.byte	0
 1757 09fb 09       		.uleb128 0x9
 1758 09fc 04       		.byte	0x4
 1759 09fd 010A0000 		.4byte	0xa01
 1760 0a01 18       		.uleb128 0x18
 1761 0a02 22090000 		.4byte	0x922
 1762 0a06 10       		.uleb128 0x10
 1763 0a07 E9070000 		.4byte	0x7e9
 1764 0a0b 160A0000 		.4byte	0xa16
 1765 0a0f 11       		.uleb128 0x11
 1766 0a10 3A040000 		.4byte	0x43a
 1767 0a14 0A       		.byte	0xa
 1768 0a15 00       		.byte	0
 1769 0a16 18       		.uleb128 0x18
 1770 0a17 060A0000 		.4byte	0xa06
 1771 0a1b 1C       		.uleb128 0x1c
 1772 0a1c 33070000 		.4byte	.LASF158
 1773 0a20 01       		.byte	0x1
 1774 0a21 7D       		.byte	0x7d
 1775 0a22 00000000 		.4byte	.LFB275
 1776 0a26 04000000 		.4byte	.LFE275-.LFB275
 1777 0a2a 01       		.uleb128 0x1
 1778 0a2b 9C       		.byte	0x9c
 1779 0a2c 700A0000 		.4byte	0xa70
 1780 0a30 1F       		.uleb128 0x1f
 1781 0a31 F3010000 		.4byte	.LASF156
 1782 0a35 01       		.byte	0x1
 1783 0a36 7D       		.byte	0x7d
 1784 0a37 A0090000 		.4byte	0x9a0
 1785 0a3b 42000000 		.4byte	.LLST2
 1786 0a3f 1F       		.uleb128 0x1f
 1787 0a40 60020000 		.4byte	.LASF157
 1788 0a44 01       		.byte	0x1
 1789 0a45 7D       		.byte	0x7d
 1790 0a46 700A0000 		.4byte	0xa70
 1791 0a4a 63000000 		.4byte	.LLST3
 1792 0a4e 20       		.uleb128 0x20
 1793 0a4f 3A050000 		.4byte	.LASF159
 1794 0a53 760A0000 		.4byte	0xa76
 1795 0a57 21       		.uleb128 0x21
 1796 0a58 04000000 		.4byte	.LVL5
 1797 0a5c FA0C0000 		.4byte	0xcfa
 1798 0a60 22       		.uleb128 0x22
 1799 0a61 01       		.uleb128 0x1
 1800 0a62 51       		.byte	0x51
 1801 0a63 03       		.uleb128 0x3
 1802 0a64 F3       		.byte	0xf3
 1803 0a65 01       		.uleb128 0x1
 1804 0a66 51       		.byte	0x51
 1805 0a67 22       		.uleb128 0x22
 1806 0a68 01       		.uleb128 0x1
 1807 0a69 50       		.byte	0x50
 1808 0a6a 03       		.uleb128 0x3
 1809 0a6b F3       		.byte	0xf3
ARM GAS  /tmp/ccM203Zg.s 			page 33


 1810 0a6c 01       		.uleb128 0x1
 1811 0a6d 50       		.byte	0x50
 1812 0a6e 00       		.byte	0
 1813 0a6f 00       		.byte	0
 1814 0a70 09       		.uleb128 0x9
 1815 0a71 04       		.byte	0x4
 1816 0a72 22090000 		.4byte	0x922
 1817 0a76 18       		.uleb128 0x18
 1818 0a77 060A0000 		.4byte	0xa06
 1819 0a7b 1C       		.uleb128 0x1c
 1820 0a7c B4010000 		.4byte	.LASF160
 1821 0a80 01       		.byte	0x1
 1822 0a81 94       		.byte	0x94
 1823 0a82 00000000 		.4byte	.LFB276
 1824 0a86 04000000 		.4byte	.LFE276-.LFB276
 1825 0a8a 01       		.uleb128 0x1
 1826 0a8b 9C       		.byte	0x9c
 1827 0a8c E60A0000 		.4byte	0xae6
 1828 0a90 1F       		.uleb128 0x1f
 1829 0a91 F3010000 		.4byte	.LASF156
 1830 0a95 01       		.byte	0x1
 1831 0a96 94       		.byte	0x94
 1832 0a97 A0090000 		.4byte	0x9a0
 1833 0a9b 84000000 		.4byte	.LLST4
 1834 0a9f 1F       		.uleb128 0x1f
 1835 0aa0 C6040000 		.4byte	.LASF161
 1836 0aa4 01       		.byte	0x1
 1837 0aa5 95       		.byte	0x95
 1838 0aa6 2D090000 		.4byte	0x92d
 1839 0aaa A5000000 		.4byte	.LLST5
 1840 0aae 1F       		.uleb128 0x1f
 1841 0aaf C0010000 		.4byte	.LASF162
 1842 0ab3 01       		.byte	0x1
 1843 0ab4 96       		.byte	0x96
 1844 0ab5 E60A0000 		.4byte	0xae6
 1845 0ab9 C6000000 		.4byte	.LLST6
 1846 0abd 20       		.uleb128 0x20
 1847 0abe 3A050000 		.4byte	.LASF159
 1848 0ac2 010B0000 		.4byte	0xb01
 1849 0ac6 21       		.uleb128 0x21
 1850 0ac7 04000000 		.4byte	.LVL7
 1851 0acb 100D0000 		.4byte	0xd10
 1852 0acf 22       		.uleb128 0x22
 1853 0ad0 01       		.uleb128 0x1
 1854 0ad1 52       		.byte	0x52
 1855 0ad2 03       		.uleb128 0x3
 1856 0ad3 F3       		.byte	0xf3
 1857 0ad4 01       		.uleb128 0x1
 1858 0ad5 52       		.byte	0x52
 1859 0ad6 22       		.uleb128 0x22
 1860 0ad7 01       		.uleb128 0x1
 1861 0ad8 51       		.byte	0x51
 1862 0ad9 03       		.uleb128 0x3
 1863 0ada F3       		.byte	0xf3
 1864 0adb 01       		.uleb128 0x1
 1865 0adc 51       		.byte	0x51
 1866 0add 22       		.uleb128 0x22
ARM GAS  /tmp/ccM203Zg.s 			page 34


 1867 0ade 01       		.uleb128 0x1
 1868 0adf 50       		.byte	0x50
 1869 0ae0 03       		.uleb128 0x3
 1870 0ae1 F3       		.byte	0xf3
 1871 0ae2 01       		.uleb128 0x1
 1872 0ae3 50       		.byte	0x50
 1873 0ae4 00       		.byte	0
 1874 0ae5 00       		.byte	0
 1875 0ae6 09       		.uleb128 0x9
 1876 0ae7 04       		.byte	0x4
 1877 0ae8 EC0A0000 		.4byte	0xaec
 1878 0aec 18       		.uleb128 0x18
 1879 0aed 4D090000 		.4byte	0x94d
 1880 0af1 10       		.uleb128 0x10
 1881 0af2 E9070000 		.4byte	0x7e9
 1882 0af6 010B0000 		.4byte	0xb01
 1883 0afa 11       		.uleb128 0x11
 1884 0afb 3A040000 		.4byte	0x43a
 1885 0aff 0B       		.byte	0xb
 1886 0b00 00       		.byte	0
 1887 0b01 18       		.uleb128 0x18
 1888 0b02 F10A0000 		.4byte	0xaf1
 1889 0b06 1C       		.uleb128 0x1c
 1890 0b07 37010000 		.4byte	.LASF163
 1891 0b0b 01       		.byte	0x1
 1892 0b0c AE       		.byte	0xae
 1893 0b0d 00000000 		.4byte	.LFB277
 1894 0b11 04000000 		.4byte	.LFE277-.LFB277
 1895 0b15 01       		.uleb128 0x1
 1896 0b16 9C       		.byte	0x9c
 1897 0b17 710B0000 		.4byte	0xb71
 1898 0b1b 1F       		.uleb128 0x1f
 1899 0b1c F3010000 		.4byte	.LASF156
 1900 0b20 01       		.byte	0x1
 1901 0b21 AE       		.byte	0xae
 1902 0b22 A0090000 		.4byte	0x9a0
 1903 0b26 E7000000 		.4byte	.LLST7
 1904 0b2a 1F       		.uleb128 0x1f
 1905 0b2b C6040000 		.4byte	.LASF161
 1906 0b2f 01       		.byte	0x1
 1907 0b30 AF       		.byte	0xaf
 1908 0b31 2D090000 		.4byte	0x92d
 1909 0b35 08010000 		.4byte	.LLST8
 1910 0b39 1F       		.uleb128 0x1f
 1911 0b3a C0010000 		.4byte	.LASF162
 1912 0b3e 01       		.byte	0x1
 1913 0b3f B0       		.byte	0xb0
 1914 0b40 710B0000 		.4byte	0xb71
 1915 0b44 29010000 		.4byte	.LLST9
 1916 0b48 20       		.uleb128 0x20
 1917 0b49 3A050000 		.4byte	.LASF159
 1918 0b4d 770B0000 		.4byte	0xb77
 1919 0b51 21       		.uleb128 0x21
 1920 0b52 04000000 		.4byte	.LVL9
 1921 0b56 2B0D0000 		.4byte	0xd2b
 1922 0b5a 22       		.uleb128 0x22
 1923 0b5b 01       		.uleb128 0x1
ARM GAS  /tmp/ccM203Zg.s 			page 35


 1924 0b5c 52       		.byte	0x52
 1925 0b5d 03       		.uleb128 0x3
 1926 0b5e F3       		.byte	0xf3
 1927 0b5f 01       		.uleb128 0x1
 1928 0b60 52       		.byte	0x52
 1929 0b61 22       		.uleb128 0x22
 1930 0b62 01       		.uleb128 0x1
 1931 0b63 51       		.byte	0x51
 1932 0b64 03       		.uleb128 0x3
 1933 0b65 F3       		.byte	0xf3
 1934 0b66 01       		.uleb128 0x1
 1935 0b67 51       		.byte	0x51
 1936 0b68 22       		.uleb128 0x22
 1937 0b69 01       		.uleb128 0x1
 1938 0b6a 50       		.byte	0x50
 1939 0b6b 03       		.uleb128 0x3
 1940 0b6c F3       		.byte	0xf3
 1941 0b6d 01       		.uleb128 0x1
 1942 0b6e 50       		.byte	0x50
 1943 0b6f 00       		.byte	0
 1944 0b70 00       		.byte	0
 1945 0b71 09       		.uleb128 0x9
 1946 0b72 04       		.byte	0x4
 1947 0b73 4D090000 		.4byte	0x94d
 1948 0b77 18       		.uleb128 0x18
 1949 0b78 F10A0000 		.4byte	0xaf1
 1950 0b7c 1C       		.uleb128 0x1c
 1951 0b7d C4000000 		.4byte	.LASF164
 1952 0b81 01       		.byte	0x1
 1953 0b82 DC       		.byte	0xdc
 1954 0b83 00000000 		.4byte	.LFB278
 1955 0b87 A4000000 		.4byte	.LFE278-.LFB278
 1956 0b8b 01       		.uleb128 0x1
 1957 0b8c 9C       		.byte	0x9c
 1958 0b8d CA0B0000 		.4byte	0xbca
 1959 0b91 1F       		.uleb128 0x1f
 1960 0b92 60020000 		.4byte	.LASF157
 1961 0b96 01       		.byte	0x1
 1962 0b97 DC       		.byte	0xdc
 1963 0b98 FB090000 		.4byte	0x9fb
 1964 0b9c 4A010000 		.4byte	.LLST10
 1965 0ba0 1E       		.uleb128 0x1e
 1966 0ba1 86070000 		.4byte	.LASF165
 1967 0ba5 01       		.byte	0x1
 1968 0ba6 DD       		.byte	0xdd
 1969 0ba7 CA0B0000 		.4byte	0xbca
 1970 0bab 01       		.uleb128 0x1
 1971 0bac 51       		.byte	0x51
 1972 0bad 1E       		.uleb128 0x1e
 1973 0bae 95040000 		.4byte	.LASF166
 1974 0bb2 01       		.byte	0x1
 1975 0bb3 DE       		.byte	0xde
 1976 0bb4 D00B0000 		.4byte	0xbd0
 1977 0bb8 01       		.uleb128 0x1
 1978 0bb9 52       		.byte	0x52
 1979 0bba 23       		.uleb128 0x23
 1980 0bbb 73656300 		.ascii	"sec\000"
ARM GAS  /tmp/ccM203Zg.s 			page 36


 1981 0bbf 01       		.byte	0x1
 1982 0bc0 DF       		.byte	0xdf
 1983 0bc1 33000000 		.4byte	0x33
 1984 0bc5 6B010000 		.4byte	.LLST11
 1985 0bc9 00       		.byte	0
 1986 0bca 09       		.uleb128 0x9
 1987 0bcb 04       		.byte	0x4
 1988 0bcc 23080000 		.4byte	0x823
 1989 0bd0 09       		.uleb128 0x9
 1990 0bd1 04       		.byte	0x4
 1991 0bd2 B8000000 		.4byte	0xb8
 1992 0bd6 1C       		.uleb128 0x1c
 1993 0bd7 06020000 		.4byte	.LASF167
 1994 0bdb 01       		.byte	0x1
 1995 0bdc FB       		.byte	0xfb
 1996 0bdd 00000000 		.4byte	.LFB279
 1997 0be1 70000000 		.4byte	.LFE279-.LFB279
 1998 0be5 01       		.uleb128 0x1
 1999 0be6 9C       		.byte	0x9c
 2000 0be7 170C0000 		.4byte	0xc17
 2001 0beb 1F       		.uleb128 0x1f
 2002 0bec 86070000 		.4byte	.LASF165
 2003 0bf0 01       		.byte	0x1
 2004 0bf1 FB       		.byte	0xfb
 2005 0bf2 170C0000 		.4byte	0xc17
 2006 0bf6 36020000 		.4byte	.LLST12
 2007 0bfa 1F       		.uleb128 0x1f
 2008 0bfb 95040000 		.4byte	.LASF166
 2009 0bff 01       		.byte	0x1
 2010 0c00 FC       		.byte	0xfc
 2011 0c01 B8000000 		.4byte	0xb8
 2012 0c05 57020000 		.4byte	.LLST13
 2013 0c09 1E       		.uleb128 0x1e
 2014 0c0a 60020000 		.4byte	.LASF157
 2015 0c0e 01       		.byte	0x1
 2016 0c0f FD       		.byte	0xfd
 2017 0c10 700A0000 		.4byte	0xa70
 2018 0c14 01       		.uleb128 0x1
 2019 0c15 52       		.byte	0x52
 2020 0c16 00       		.byte	0
 2021 0c17 09       		.uleb128 0x9
 2022 0c18 04       		.byte	0x4
 2023 0c19 1D0C0000 		.4byte	0xc1d
 2024 0c1d 18       		.uleb128 0x18
 2025 0c1e 23080000 		.4byte	0x823
 2026 0c22 24       		.uleb128 0x24
 2027 0c23 18010000 		.4byte	.LASF178
 2028 0c27 01       		.byte	0x1
 2029 0c28 1C01     		.2byte	0x11c
 2030 0c2a B8000000 		.4byte	0xb8
 2031 0c2e 00000000 		.4byte	.LFB280
 2032 0c32 90000000 		.4byte	.LFE280-.LFB280
 2033 0c36 01       		.uleb128 0x1
 2034 0c37 9C       		.byte	0x9c
 2035 0c38 AB0C0000 		.4byte	0xcab
 2036 0c3c 25       		.uleb128 0x25
 2037 0c3d 60020000 		.4byte	.LASF157
ARM GAS  /tmp/ccM203Zg.s 			page 37


 2038 0c41 01       		.byte	0x1
 2039 0c42 1C01     		.2byte	0x11c
 2040 0c44 FB090000 		.4byte	0x9fb
 2041 0c48 78020000 		.4byte	.LLST14
 2042 0c4c 26       		.uleb128 0x26
 2043 0c4d 15000000 		.4byte	.LASF168
 2044 0c51 01       		.byte	0x1
 2045 0c52 1D01     		.2byte	0x11d
 2046 0c54 B8000000 		.4byte	0xb8
 2047 0c58 A4020000 		.4byte	.LLST15
 2048 0c5c 27       		.uleb128 0x27
 2049 0c5d 73656300 		.ascii	"sec\000"
 2050 0c61 01       		.byte	0x1
 2051 0c62 1E01     		.2byte	0x11e
 2052 0c64 B8000000 		.4byte	0xb8
 2053 0c68 01       		.uleb128 0x1
 2054 0c69 51       		.byte	0x51
 2055 0c6a 28       		.uleb128 0x28
 2056 0c6b 6D696E00 		.ascii	"min\000"
 2057 0c6f 01       		.byte	0x1
 2058 0c70 1E01     		.2byte	0x11e
 2059 0c72 B8000000 		.4byte	0xb8
 2060 0c76 1C040000 		.4byte	.LLST16
 2061 0c7a 26       		.uleb128 0x26
 2062 0c7b 4E040000 		.4byte	.LASF169
 2063 0c7f 01       		.byte	0x1
 2064 0c80 1E01     		.2byte	0x11e
 2065 0c82 B8000000 		.4byte	0xb8
 2066 0c86 BC050000 		.4byte	.LLST17
 2067 0c8a 28       		.uleb128 0x28
 2068 0c8b 64617900 		.ascii	"day\000"
 2069 0c8f 01       		.byte	0x1
 2070 0c90 1E01     		.2byte	0x11e
 2071 0c92 B8000000 		.4byte	0xb8
 2072 0c96 E6050000 		.4byte	.LLST18
 2073 0c9a 26       		.uleb128 0x26
 2074 0c9b 40020000 		.4byte	.LASF145
 2075 0c9f 01       		.byte	0x1
 2076 0ca0 1E01     		.2byte	0x11e
 2077 0ca2 B8000000 		.4byte	0xb8
 2078 0ca6 10060000 		.4byte	.LLST19
 2079 0caa 00       		.byte	0
 2080 0cab 29       		.uleb128 0x29
 2081 0cac 3B030000 		.4byte	.LASF170
 2082 0cb0 01       		.byte	0x1
 2083 0cb1 30       		.byte	0x30
 2084 0cb2 BC0C0000 		.4byte	0xcbc
 2085 0cb6 05       		.uleb128 0x5
 2086 0cb7 03       		.byte	0x3
 2087 0cb8 00000000 		.4byte	month_len
 2088 0cbc 18       		.uleb128 0x18
 2089 0cbd 46040000 		.4byte	0x446
 2090 0cc1 2A       		.uleb128 0x2a
 2091 0cc2 F7000000 		.4byte	.LASF171
 2092 0cc6 11       		.byte	0x11
 2093 0cc7 FA06     		.2byte	0x6fa
 2094 0cc9 CD0C0000 		.4byte	0xccd
ARM GAS  /tmp/ccM203Zg.s 			page 38


 2095 0ccd 0F       		.uleb128 0xf
 2096 0cce AD000000 		.4byte	0xad
 2097 0cd2 2B       		.uleb128 0x2b
 2098 0cd3 636800   		.ascii	"ch\000"
 2099 0cd6 07       		.byte	0x7
 2100 0cd7 0B02     		.2byte	0x20b
 2101 0cd9 D3030000 		.4byte	0x3d3
 2102 0cdd 2C       		.uleb128 0x2c
 2103 0cde 6D010000 		.4byte	.LASF179
 2104 0ce2 10       		.byte	0x10
 2105 0ce3 D6       		.byte	0xd6
 2106 0ce4 2D       		.uleb128 0x2d
 2107 0ce5 74020000 		.4byte	.LASF172
 2108 0ce9 10       		.byte	0x10
 2109 0cea D7       		.byte	0xd7
 2110 0ceb FA0C0000 		.4byte	0xcfa
 2111 0cef 0C       		.uleb128 0xc
 2112 0cf0 A0090000 		.4byte	0x9a0
 2113 0cf4 0C       		.uleb128 0xc
 2114 0cf5 FB090000 		.4byte	0x9fb
 2115 0cf9 00       		.byte	0
 2116 0cfa 2D       		.uleb128 0x2d
 2117 0cfb CF020000 		.4byte	.LASF173
 2118 0cff 10       		.byte	0x10
 2119 0d00 D8       		.byte	0xd8
 2120 0d01 100D0000 		.4byte	0xd10
 2121 0d05 0C       		.uleb128 0xc
 2122 0d06 A0090000 		.4byte	0x9a0
 2123 0d0a 0C       		.uleb128 0xc
 2124 0d0b 700A0000 		.4byte	0xa70
 2125 0d0f 00       		.byte	0
 2126 0d10 2D       		.uleb128 0x2d
 2127 0d11 8B020000 		.4byte	.LASF174
 2128 0d15 10       		.byte	0x10
 2129 0d16 DA       		.byte	0xda
 2130 0d17 2B0D0000 		.4byte	0xd2b
 2131 0d1b 0C       		.uleb128 0xc
 2132 0d1c A0090000 		.4byte	0x9a0
 2133 0d20 0C       		.uleb128 0xc
 2134 0d21 2D090000 		.4byte	0x92d
 2135 0d25 0C       		.uleb128 0xc
 2136 0d26 E60A0000 		.4byte	0xae6
 2137 0d2a 00       		.byte	0
 2138 0d2b 2E       		.uleb128 0x2e
 2139 0d2c 65040000 		.4byte	.LASF180
 2140 0d30 10       		.byte	0x10
 2141 0d31 DD       		.byte	0xdd
 2142 0d32 0C       		.uleb128 0xc
 2143 0d33 A0090000 		.4byte	0x9a0
 2144 0d37 0C       		.uleb128 0xc
 2145 0d38 2D090000 		.4byte	0x92d
 2146 0d3c 0C       		.uleb128 0xc
 2147 0d3d 710B0000 		.4byte	0xb71
 2148 0d41 00       		.byte	0
 2149 0d42 00       		.byte	0
 2150              		.section	.debug_abbrev,"",%progbits
 2151              	.Ldebug_abbrev0:
ARM GAS  /tmp/ccM203Zg.s 			page 39


 2152 0000 01       		.uleb128 0x1
 2153 0001 11       		.uleb128 0x11
 2154 0002 01       		.byte	0x1
 2155 0003 25       		.uleb128 0x25
 2156 0004 0E       		.uleb128 0xe
 2157 0005 13       		.uleb128 0x13
 2158 0006 0B       		.uleb128 0xb
 2159 0007 03       		.uleb128 0x3
 2160 0008 0E       		.uleb128 0xe
 2161 0009 1B       		.uleb128 0x1b
 2162 000a 0E       		.uleb128 0xe
 2163 000b 55       		.uleb128 0x55
 2164 000c 17       		.uleb128 0x17
 2165 000d 11       		.uleb128 0x11
 2166 000e 01       		.uleb128 0x1
 2167 000f 10       		.uleb128 0x10
 2168 0010 17       		.uleb128 0x17
 2169 0011 00       		.byte	0
 2170 0012 00       		.byte	0
 2171 0013 02       		.uleb128 0x2
 2172 0014 24       		.uleb128 0x24
 2173 0015 00       		.byte	0
 2174 0016 0B       		.uleb128 0xb
 2175 0017 0B       		.uleb128 0xb
 2176 0018 3E       		.uleb128 0x3e
 2177 0019 0B       		.uleb128 0xb
 2178 001a 03       		.uleb128 0x3
 2179 001b 0E       		.uleb128 0xe
 2180 001c 00       		.byte	0
 2181 001d 00       		.byte	0
 2182 001e 03       		.uleb128 0x3
 2183 001f 24       		.uleb128 0x24
 2184 0020 00       		.byte	0
 2185 0021 0B       		.uleb128 0xb
 2186 0022 0B       		.uleb128 0xb
 2187 0023 3E       		.uleb128 0x3e
 2188 0024 0B       		.uleb128 0xb
 2189 0025 03       		.uleb128 0x3
 2190 0026 08       		.uleb128 0x8
 2191 0027 00       		.byte	0
 2192 0028 00       		.byte	0
 2193 0029 04       		.uleb128 0x4
 2194 002a 16       		.uleb128 0x16
 2195 002b 00       		.byte	0
 2196 002c 03       		.uleb128 0x3
 2197 002d 0E       		.uleb128 0xe
 2198 002e 3A       		.uleb128 0x3a
 2199 002f 0B       		.uleb128 0xb
 2200 0030 3B       		.uleb128 0x3b
 2201 0031 0B       		.uleb128 0xb
 2202 0032 49       		.uleb128 0x49
 2203 0033 13       		.uleb128 0x13
 2204 0034 00       		.byte	0
 2205 0035 00       		.byte	0
 2206 0036 05       		.uleb128 0x5
 2207 0037 13       		.uleb128 0x13
 2208 0038 01       		.byte	0x1
ARM GAS  /tmp/ccM203Zg.s 			page 40


 2209 0039 03       		.uleb128 0x3
 2210 003a 0E       		.uleb128 0xe
 2211 003b 0B       		.uleb128 0xb
 2212 003c 0B       		.uleb128 0xb
 2213 003d 3A       		.uleb128 0x3a
 2214 003e 0B       		.uleb128 0xb
 2215 003f 3B       		.uleb128 0x3b
 2216 0040 0B       		.uleb128 0xb
 2217 0041 01       		.uleb128 0x1
 2218 0042 13       		.uleb128 0x13
 2219 0043 00       		.byte	0
 2220 0044 00       		.byte	0
 2221 0045 06       		.uleb128 0x6
 2222 0046 0D       		.uleb128 0xd
 2223 0047 00       		.byte	0
 2224 0048 03       		.uleb128 0x3
 2225 0049 0E       		.uleb128 0xe
 2226 004a 3A       		.uleb128 0x3a
 2227 004b 0B       		.uleb128 0xb
 2228 004c 3B       		.uleb128 0x3b
 2229 004d 0B       		.uleb128 0xb
 2230 004e 49       		.uleb128 0x49
 2231 004f 13       		.uleb128 0x13
 2232 0050 38       		.uleb128 0x38
 2233 0051 0B       		.uleb128 0xb
 2234 0052 00       		.byte	0
 2235 0053 00       		.byte	0
 2236 0054 07       		.uleb128 0x7
 2237 0055 0D       		.uleb128 0xd
 2238 0056 00       		.byte	0
 2239 0057 03       		.uleb128 0x3
 2240 0058 08       		.uleb128 0x8
 2241 0059 3A       		.uleb128 0x3a
 2242 005a 0B       		.uleb128 0xb
 2243 005b 3B       		.uleb128 0x3b
 2244 005c 05       		.uleb128 0x5
 2245 005d 49       		.uleb128 0x49
 2246 005e 13       		.uleb128 0x13
 2247 005f 38       		.uleb128 0x38
 2248 0060 0B       		.uleb128 0xb
 2249 0061 00       		.byte	0
 2250 0062 00       		.byte	0
 2251 0063 08       		.uleb128 0x8
 2252 0064 0D       		.uleb128 0xd
 2253 0065 00       		.byte	0
 2254 0066 03       		.uleb128 0x3
 2255 0067 0E       		.uleb128 0xe
 2256 0068 3A       		.uleb128 0x3a
 2257 0069 0B       		.uleb128 0xb
 2258 006a 3B       		.uleb128 0x3b
 2259 006b 05       		.uleb128 0x5
 2260 006c 49       		.uleb128 0x49
 2261 006d 13       		.uleb128 0x13
 2262 006e 38       		.uleb128 0x38
 2263 006f 0B       		.uleb128 0xb
 2264 0070 00       		.byte	0
 2265 0071 00       		.byte	0
ARM GAS  /tmp/ccM203Zg.s 			page 41


 2266 0072 09       		.uleb128 0x9
 2267 0073 0F       		.uleb128 0xf
 2268 0074 00       		.byte	0
 2269 0075 0B       		.uleb128 0xb
 2270 0076 0B       		.uleb128 0xb
 2271 0077 49       		.uleb128 0x49
 2272 0078 13       		.uleb128 0x13
 2273 0079 00       		.byte	0
 2274 007a 00       		.byte	0
 2275 007b 0A       		.uleb128 0xa
 2276 007c 13       		.uleb128 0x13
 2277 007d 01       		.byte	0x1
 2278 007e 03       		.uleb128 0x3
 2279 007f 0E       		.uleb128 0xe
 2280 0080 0B       		.uleb128 0xb
 2281 0081 0B       		.uleb128 0xb
 2282 0082 3A       		.uleb128 0x3a
 2283 0083 0B       		.uleb128 0xb
 2284 0084 3B       		.uleb128 0x3b
 2285 0085 05       		.uleb128 0x5
 2286 0086 01       		.uleb128 0x1
 2287 0087 13       		.uleb128 0x13
 2288 0088 00       		.byte	0
 2289 0089 00       		.byte	0
 2290 008a 0B       		.uleb128 0xb
 2291 008b 15       		.uleb128 0x15
 2292 008c 01       		.byte	0x1
 2293 008d 27       		.uleb128 0x27
 2294 008e 19       		.uleb128 0x19
 2295 008f 01       		.uleb128 0x1
 2296 0090 13       		.uleb128 0x13
 2297 0091 00       		.byte	0
 2298 0092 00       		.byte	0
 2299 0093 0C       		.uleb128 0xc
 2300 0094 05       		.uleb128 0x5
 2301 0095 00       		.byte	0
 2302 0096 49       		.uleb128 0x49
 2303 0097 13       		.uleb128 0x13
 2304 0098 00       		.byte	0
 2305 0099 00       		.byte	0
 2306 009a 0D       		.uleb128 0xd
 2307 009b 0F       		.uleb128 0xf
 2308 009c 00       		.byte	0
 2309 009d 0B       		.uleb128 0xb
 2310 009e 0B       		.uleb128 0xb
 2311 009f 00       		.byte	0
 2312 00a0 00       		.byte	0
 2313 00a1 0E       		.uleb128 0xe
 2314 00a2 13       		.uleb128 0x13
 2315 00a3 01       		.byte	0x1
 2316 00a4 03       		.uleb128 0x3
 2317 00a5 0E       		.uleb128 0xe
 2318 00a6 0B       		.uleb128 0xb
 2319 00a7 05       		.uleb128 0x5
 2320 00a8 3A       		.uleb128 0x3a
 2321 00a9 0B       		.uleb128 0xb
 2322 00aa 3B       		.uleb128 0x3b
ARM GAS  /tmp/ccM203Zg.s 			page 42


 2323 00ab 05       		.uleb128 0x5
 2324 00ac 01       		.uleb128 0x1
 2325 00ad 13       		.uleb128 0x13
 2326 00ae 00       		.byte	0
 2327 00af 00       		.byte	0
 2328 00b0 0F       		.uleb128 0xf
 2329 00b1 35       		.uleb128 0x35
 2330 00b2 00       		.byte	0
 2331 00b3 49       		.uleb128 0x49
 2332 00b4 13       		.uleb128 0x13
 2333 00b5 00       		.byte	0
 2334 00b6 00       		.byte	0
 2335 00b7 10       		.uleb128 0x10
 2336 00b8 01       		.uleb128 0x1
 2337 00b9 01       		.byte	0x1
 2338 00ba 49       		.uleb128 0x49
 2339 00bb 13       		.uleb128 0x13
 2340 00bc 01       		.uleb128 0x1
 2341 00bd 13       		.uleb128 0x13
 2342 00be 00       		.byte	0
 2343 00bf 00       		.byte	0
 2344 00c0 11       		.uleb128 0x11
 2345 00c1 21       		.uleb128 0x21
 2346 00c2 00       		.byte	0
 2347 00c3 49       		.uleb128 0x49
 2348 00c4 13       		.uleb128 0x13
 2349 00c5 2F       		.uleb128 0x2f
 2350 00c6 0B       		.uleb128 0xb
 2351 00c7 00       		.byte	0
 2352 00c8 00       		.byte	0
 2353 00c9 12       		.uleb128 0x12
 2354 00ca 13       		.uleb128 0x13
 2355 00cb 01       		.byte	0x1
 2356 00cc 0B       		.uleb128 0xb
 2357 00cd 0B       		.uleb128 0xb
 2358 00ce 3A       		.uleb128 0x3a
 2359 00cf 0B       		.uleb128 0xb
 2360 00d0 3B       		.uleb128 0x3b
 2361 00d1 05       		.uleb128 0x5
 2362 00d2 01       		.uleb128 0x1
 2363 00d3 13       		.uleb128 0x13
 2364 00d4 00       		.byte	0
 2365 00d5 00       		.byte	0
 2366 00d6 13       		.uleb128 0x13
 2367 00d7 16       		.uleb128 0x16
 2368 00d8 00       		.byte	0
 2369 00d9 03       		.uleb128 0x3
 2370 00da 0E       		.uleb128 0xe
 2371 00db 3A       		.uleb128 0x3a
 2372 00dc 0B       		.uleb128 0xb
 2373 00dd 3B       		.uleb128 0x3b
 2374 00de 05       		.uleb128 0x5
 2375 00df 49       		.uleb128 0x49
 2376 00e0 13       		.uleb128 0x13
 2377 00e1 00       		.byte	0
 2378 00e2 00       		.byte	0
 2379 00e3 14       		.uleb128 0x14
ARM GAS  /tmp/ccM203Zg.s 			page 43


 2380 00e4 0D       		.uleb128 0xd
 2381 00e5 00       		.byte	0
 2382 00e6 03       		.uleb128 0x3
 2383 00e7 08       		.uleb128 0x8
 2384 00e8 3A       		.uleb128 0x3a
 2385 00e9 0B       		.uleb128 0xb
 2386 00ea 3B       		.uleb128 0x3b
 2387 00eb 0B       		.uleb128 0xb
 2388 00ec 49       		.uleb128 0x49
 2389 00ed 13       		.uleb128 0x13
 2390 00ee 38       		.uleb128 0x38
 2391 00ef 0B       		.uleb128 0xb
 2392 00f0 00       		.byte	0
 2393 00f1 00       		.byte	0
 2394 00f2 15       		.uleb128 0x15
 2395 00f3 13       		.uleb128 0x13
 2396 00f4 01       		.byte	0x1
 2397 00f5 0B       		.uleb128 0xb
 2398 00f6 0B       		.uleb128 0xb
 2399 00f7 3A       		.uleb128 0x3a
 2400 00f8 0B       		.uleb128 0xb
 2401 00f9 3B       		.uleb128 0x3b
 2402 00fa 0B       		.uleb128 0xb
 2403 00fb 01       		.uleb128 0x1
 2404 00fc 13       		.uleb128 0x13
 2405 00fd 00       		.byte	0
 2406 00fe 00       		.byte	0
 2407 00ff 16       		.uleb128 0x16
 2408 0100 17       		.uleb128 0x17
 2409 0101 01       		.byte	0x1
 2410 0102 0B       		.uleb128 0xb
 2411 0103 0B       		.uleb128 0xb
 2412 0104 3A       		.uleb128 0x3a
 2413 0105 0B       		.uleb128 0xb
 2414 0106 3B       		.uleb128 0x3b
 2415 0107 0B       		.uleb128 0xb
 2416 0108 01       		.uleb128 0x1
 2417 0109 13       		.uleb128 0x13
 2418 010a 00       		.byte	0
 2419 010b 00       		.byte	0
 2420 010c 17       		.uleb128 0x17
 2421 010d 0D       		.uleb128 0xd
 2422 010e 00       		.byte	0
 2423 010f 03       		.uleb128 0x3
 2424 0110 0E       		.uleb128 0xe
 2425 0111 3A       		.uleb128 0x3a
 2426 0112 0B       		.uleb128 0xb
 2427 0113 3B       		.uleb128 0x3b
 2428 0114 05       		.uleb128 0x5
 2429 0115 49       		.uleb128 0x49
 2430 0116 13       		.uleb128 0x13
 2431 0117 00       		.byte	0
 2432 0118 00       		.byte	0
 2433 0119 18       		.uleb128 0x18
 2434 011a 26       		.uleb128 0x26
 2435 011b 00       		.byte	0
 2436 011c 49       		.uleb128 0x49
ARM GAS  /tmp/ccM203Zg.s 			page 44


 2437 011d 13       		.uleb128 0x13
 2438 011e 00       		.byte	0
 2439 011f 00       		.byte	0
 2440 0120 19       		.uleb128 0x19
 2441 0121 13       		.uleb128 0x13
 2442 0122 01       		.byte	0x1
 2443 0123 03       		.uleb128 0x3
 2444 0124 08       		.uleb128 0x8
 2445 0125 0B       		.uleb128 0xb
 2446 0126 0B       		.uleb128 0xb
 2447 0127 3A       		.uleb128 0x3a
 2448 0128 0B       		.uleb128 0xb
 2449 0129 3B       		.uleb128 0x3b
 2450 012a 0B       		.uleb128 0xb
 2451 012b 01       		.uleb128 0x1
 2452 012c 13       		.uleb128 0x13
 2453 012d 00       		.byte	0
 2454 012e 00       		.byte	0
 2455 012f 1A       		.uleb128 0x1a
 2456 0130 0D       		.uleb128 0xd
 2457 0131 00       		.byte	0
 2458 0132 03       		.uleb128 0x3
 2459 0133 0E       		.uleb128 0xe
 2460 0134 3A       		.uleb128 0x3a
 2461 0135 0B       		.uleb128 0xb
 2462 0136 3B       		.uleb128 0x3b
 2463 0137 0B       		.uleb128 0xb
 2464 0138 49       		.uleb128 0x49
 2465 0139 13       		.uleb128 0x13
 2466 013a 0B       		.uleb128 0xb
 2467 013b 0B       		.uleb128 0xb
 2468 013c 0D       		.uleb128 0xd
 2469 013d 0B       		.uleb128 0xb
 2470 013e 0C       		.uleb128 0xc
 2471 013f 0B       		.uleb128 0xb
 2472 0140 38       		.uleb128 0x38
 2473 0141 0B       		.uleb128 0xb
 2474 0142 00       		.byte	0
 2475 0143 00       		.byte	0
 2476 0144 1B       		.uleb128 0x1b
 2477 0145 0D       		.uleb128 0xd
 2478 0146 00       		.byte	0
 2479 0147 03       		.uleb128 0x3
 2480 0148 08       		.uleb128 0x8
 2481 0149 3A       		.uleb128 0x3a
 2482 014a 0B       		.uleb128 0xb
 2483 014b 3B       		.uleb128 0x3b
 2484 014c 0B       		.uleb128 0xb
 2485 014d 49       		.uleb128 0x49
 2486 014e 13       		.uleb128 0x13
 2487 014f 0B       		.uleb128 0xb
 2488 0150 0B       		.uleb128 0xb
 2489 0151 0D       		.uleb128 0xd
 2490 0152 0B       		.uleb128 0xb
 2491 0153 0C       		.uleb128 0xc
 2492 0154 0B       		.uleb128 0xb
 2493 0155 38       		.uleb128 0x38
ARM GAS  /tmp/ccM203Zg.s 			page 45


 2494 0156 0B       		.uleb128 0xb
 2495 0157 00       		.byte	0
 2496 0158 00       		.byte	0
 2497 0159 1C       		.uleb128 0x1c
 2498 015a 2E       		.uleb128 0x2e
 2499 015b 01       		.byte	0x1
 2500 015c 3F       		.uleb128 0x3f
 2501 015d 19       		.uleb128 0x19
 2502 015e 03       		.uleb128 0x3
 2503 015f 0E       		.uleb128 0xe
 2504 0160 3A       		.uleb128 0x3a
 2505 0161 0B       		.uleb128 0xb
 2506 0162 3B       		.uleb128 0x3b
 2507 0163 0B       		.uleb128 0xb
 2508 0164 27       		.uleb128 0x27
 2509 0165 19       		.uleb128 0x19
 2510 0166 11       		.uleb128 0x11
 2511 0167 01       		.uleb128 0x1
 2512 0168 12       		.uleb128 0x12
 2513 0169 06       		.uleb128 0x6
 2514 016a 40       		.uleb128 0x40
 2515 016b 18       		.uleb128 0x18
 2516 016c 9742     		.uleb128 0x2117
 2517 016e 19       		.uleb128 0x19
 2518 016f 01       		.uleb128 0x1
 2519 0170 13       		.uleb128 0x13
 2520 0171 00       		.byte	0
 2521 0172 00       		.byte	0
 2522 0173 1D       		.uleb128 0x1d
 2523 0174 898201   		.uleb128 0x4109
 2524 0177 00       		.byte	0
 2525 0178 11       		.uleb128 0x11
 2526 0179 01       		.uleb128 0x1
 2527 017a 9542     		.uleb128 0x2115
 2528 017c 19       		.uleb128 0x19
 2529 017d 31       		.uleb128 0x31
 2530 017e 13       		.uleb128 0x13
 2531 017f 00       		.byte	0
 2532 0180 00       		.byte	0
 2533 0181 1E       		.uleb128 0x1e
 2534 0182 05       		.uleb128 0x5
 2535 0183 00       		.byte	0
 2536 0184 03       		.uleb128 0x3
 2537 0185 0E       		.uleb128 0xe
 2538 0186 3A       		.uleb128 0x3a
 2539 0187 0B       		.uleb128 0xb
 2540 0188 3B       		.uleb128 0x3b
 2541 0189 0B       		.uleb128 0xb
 2542 018a 49       		.uleb128 0x49
 2543 018b 13       		.uleb128 0x13
 2544 018c 02       		.uleb128 0x2
 2545 018d 18       		.uleb128 0x18
 2546 018e 00       		.byte	0
 2547 018f 00       		.byte	0
 2548 0190 1F       		.uleb128 0x1f
 2549 0191 05       		.uleb128 0x5
 2550 0192 00       		.byte	0
ARM GAS  /tmp/ccM203Zg.s 			page 46


 2551 0193 03       		.uleb128 0x3
 2552 0194 0E       		.uleb128 0xe
 2553 0195 3A       		.uleb128 0x3a
 2554 0196 0B       		.uleb128 0xb
 2555 0197 3B       		.uleb128 0x3b
 2556 0198 0B       		.uleb128 0xb
 2557 0199 49       		.uleb128 0x49
 2558 019a 13       		.uleb128 0x13
 2559 019b 02       		.uleb128 0x2
 2560 019c 17       		.uleb128 0x17
 2561 019d 00       		.byte	0
 2562 019e 00       		.byte	0
 2563 019f 20       		.uleb128 0x20
 2564 01a0 34       		.uleb128 0x34
 2565 01a1 00       		.byte	0
 2566 01a2 03       		.uleb128 0x3
 2567 01a3 0E       		.uleb128 0xe
 2568 01a4 49       		.uleb128 0x49
 2569 01a5 13       		.uleb128 0x13
 2570 01a6 34       		.uleb128 0x34
 2571 01a7 19       		.uleb128 0x19
 2572 01a8 00       		.byte	0
 2573 01a9 00       		.byte	0
 2574 01aa 21       		.uleb128 0x21
 2575 01ab 898201   		.uleb128 0x4109
 2576 01ae 01       		.byte	0x1
 2577 01af 11       		.uleb128 0x11
 2578 01b0 01       		.uleb128 0x1
 2579 01b1 9542     		.uleb128 0x2115
 2580 01b3 19       		.uleb128 0x19
 2581 01b4 31       		.uleb128 0x31
 2582 01b5 13       		.uleb128 0x13
 2583 01b6 00       		.byte	0
 2584 01b7 00       		.byte	0
 2585 01b8 22       		.uleb128 0x22
 2586 01b9 8A8201   		.uleb128 0x410a
 2587 01bc 00       		.byte	0
 2588 01bd 02       		.uleb128 0x2
 2589 01be 18       		.uleb128 0x18
 2590 01bf 9142     		.uleb128 0x2111
 2591 01c1 18       		.uleb128 0x18
 2592 01c2 00       		.byte	0
 2593 01c3 00       		.byte	0
 2594 01c4 23       		.uleb128 0x23
 2595 01c5 34       		.uleb128 0x34
 2596 01c6 00       		.byte	0
 2597 01c7 03       		.uleb128 0x3
 2598 01c8 08       		.uleb128 0x8
 2599 01c9 3A       		.uleb128 0x3a
 2600 01ca 0B       		.uleb128 0xb
 2601 01cb 3B       		.uleb128 0x3b
 2602 01cc 0B       		.uleb128 0xb
 2603 01cd 49       		.uleb128 0x49
 2604 01ce 13       		.uleb128 0x13
 2605 01cf 02       		.uleb128 0x2
 2606 01d0 17       		.uleb128 0x17
 2607 01d1 00       		.byte	0
ARM GAS  /tmp/ccM203Zg.s 			page 47


 2608 01d2 00       		.byte	0
 2609 01d3 24       		.uleb128 0x24
 2610 01d4 2E       		.uleb128 0x2e
 2611 01d5 01       		.byte	0x1
 2612 01d6 3F       		.uleb128 0x3f
 2613 01d7 19       		.uleb128 0x19
 2614 01d8 03       		.uleb128 0x3
 2615 01d9 0E       		.uleb128 0xe
 2616 01da 3A       		.uleb128 0x3a
 2617 01db 0B       		.uleb128 0xb
 2618 01dc 3B       		.uleb128 0x3b
 2619 01dd 05       		.uleb128 0x5
 2620 01de 27       		.uleb128 0x27
 2621 01df 19       		.uleb128 0x19
 2622 01e0 49       		.uleb128 0x49
 2623 01e1 13       		.uleb128 0x13
 2624 01e2 11       		.uleb128 0x11
 2625 01e3 01       		.uleb128 0x1
 2626 01e4 12       		.uleb128 0x12
 2627 01e5 06       		.uleb128 0x6
 2628 01e6 40       		.uleb128 0x40
 2629 01e7 18       		.uleb128 0x18
 2630 01e8 9742     		.uleb128 0x2117
 2631 01ea 19       		.uleb128 0x19
 2632 01eb 01       		.uleb128 0x1
 2633 01ec 13       		.uleb128 0x13
 2634 01ed 00       		.byte	0
 2635 01ee 00       		.byte	0
 2636 01ef 25       		.uleb128 0x25
 2637 01f0 05       		.uleb128 0x5
 2638 01f1 00       		.byte	0
 2639 01f2 03       		.uleb128 0x3
 2640 01f3 0E       		.uleb128 0xe
 2641 01f4 3A       		.uleb128 0x3a
 2642 01f5 0B       		.uleb128 0xb
 2643 01f6 3B       		.uleb128 0x3b
 2644 01f7 05       		.uleb128 0x5
 2645 01f8 49       		.uleb128 0x49
 2646 01f9 13       		.uleb128 0x13
 2647 01fa 02       		.uleb128 0x2
 2648 01fb 17       		.uleb128 0x17
 2649 01fc 00       		.byte	0
 2650 01fd 00       		.byte	0
 2651 01fe 26       		.uleb128 0x26
 2652 01ff 34       		.uleb128 0x34
 2653 0200 00       		.byte	0
 2654 0201 03       		.uleb128 0x3
 2655 0202 0E       		.uleb128 0xe
 2656 0203 3A       		.uleb128 0x3a
 2657 0204 0B       		.uleb128 0xb
 2658 0205 3B       		.uleb128 0x3b
 2659 0206 05       		.uleb128 0x5
 2660 0207 49       		.uleb128 0x49
 2661 0208 13       		.uleb128 0x13
 2662 0209 02       		.uleb128 0x2
 2663 020a 17       		.uleb128 0x17
 2664 020b 00       		.byte	0
ARM GAS  /tmp/ccM203Zg.s 			page 48


 2665 020c 00       		.byte	0
 2666 020d 27       		.uleb128 0x27
 2667 020e 34       		.uleb128 0x34
 2668 020f 00       		.byte	0
 2669 0210 03       		.uleb128 0x3
 2670 0211 08       		.uleb128 0x8
 2671 0212 3A       		.uleb128 0x3a
 2672 0213 0B       		.uleb128 0xb
 2673 0214 3B       		.uleb128 0x3b
 2674 0215 05       		.uleb128 0x5
 2675 0216 49       		.uleb128 0x49
 2676 0217 13       		.uleb128 0x13
 2677 0218 02       		.uleb128 0x2
 2678 0219 18       		.uleb128 0x18
 2679 021a 00       		.byte	0
 2680 021b 00       		.byte	0
 2681 021c 28       		.uleb128 0x28
 2682 021d 34       		.uleb128 0x34
 2683 021e 00       		.byte	0
 2684 021f 03       		.uleb128 0x3
 2685 0220 08       		.uleb128 0x8
 2686 0221 3A       		.uleb128 0x3a
 2687 0222 0B       		.uleb128 0xb
 2688 0223 3B       		.uleb128 0x3b
 2689 0224 05       		.uleb128 0x5
 2690 0225 49       		.uleb128 0x49
 2691 0226 13       		.uleb128 0x13
 2692 0227 02       		.uleb128 0x2
 2693 0228 17       		.uleb128 0x17
 2694 0229 00       		.byte	0
 2695 022a 00       		.byte	0
 2696 022b 29       		.uleb128 0x29
 2697 022c 34       		.uleb128 0x34
 2698 022d 00       		.byte	0
 2699 022e 03       		.uleb128 0x3
 2700 022f 0E       		.uleb128 0xe
 2701 0230 3A       		.uleb128 0x3a
 2702 0231 0B       		.uleb128 0xb
 2703 0232 3B       		.uleb128 0x3b
 2704 0233 0B       		.uleb128 0xb
 2705 0234 49       		.uleb128 0x49
 2706 0235 13       		.uleb128 0x13
 2707 0236 02       		.uleb128 0x2
 2708 0237 18       		.uleb128 0x18
 2709 0238 00       		.byte	0
 2710 0239 00       		.byte	0
 2711 023a 2A       		.uleb128 0x2a
 2712 023b 34       		.uleb128 0x34
 2713 023c 00       		.byte	0
 2714 023d 03       		.uleb128 0x3
 2715 023e 0E       		.uleb128 0xe
 2716 023f 3A       		.uleb128 0x3a
 2717 0240 0B       		.uleb128 0xb
 2718 0241 3B       		.uleb128 0x3b
 2719 0242 05       		.uleb128 0x5
 2720 0243 49       		.uleb128 0x49
 2721 0244 13       		.uleb128 0x13
ARM GAS  /tmp/ccM203Zg.s 			page 49


 2722 0245 3F       		.uleb128 0x3f
 2723 0246 19       		.uleb128 0x19
 2724 0247 3C       		.uleb128 0x3c
 2725 0248 19       		.uleb128 0x19
 2726 0249 00       		.byte	0
 2727 024a 00       		.byte	0
 2728 024b 2B       		.uleb128 0x2b
 2729 024c 34       		.uleb128 0x34
 2730 024d 00       		.byte	0
 2731 024e 03       		.uleb128 0x3
 2732 024f 08       		.uleb128 0x8
 2733 0250 3A       		.uleb128 0x3a
 2734 0251 0B       		.uleb128 0xb
 2735 0252 3B       		.uleb128 0x3b
 2736 0253 05       		.uleb128 0x5
 2737 0254 49       		.uleb128 0x49
 2738 0255 13       		.uleb128 0x13
 2739 0256 3F       		.uleb128 0x3f
 2740 0257 19       		.uleb128 0x19
 2741 0258 3C       		.uleb128 0x3c
 2742 0259 19       		.uleb128 0x19
 2743 025a 00       		.byte	0
 2744 025b 00       		.byte	0
 2745 025c 2C       		.uleb128 0x2c
 2746 025d 2E       		.uleb128 0x2e
 2747 025e 00       		.byte	0
 2748 025f 3F       		.uleb128 0x3f
 2749 0260 19       		.uleb128 0x19
 2750 0261 03       		.uleb128 0x3
 2751 0262 0E       		.uleb128 0xe
 2752 0263 3A       		.uleb128 0x3a
 2753 0264 0B       		.uleb128 0xb
 2754 0265 3B       		.uleb128 0x3b
 2755 0266 0B       		.uleb128 0xb
 2756 0267 27       		.uleb128 0x27
 2757 0268 19       		.uleb128 0x19
 2758 0269 3C       		.uleb128 0x3c
 2759 026a 19       		.uleb128 0x19
 2760 026b 00       		.byte	0
 2761 026c 00       		.byte	0
 2762 026d 2D       		.uleb128 0x2d
 2763 026e 2E       		.uleb128 0x2e
 2764 026f 01       		.byte	0x1
 2765 0270 3F       		.uleb128 0x3f
 2766 0271 19       		.uleb128 0x19
 2767 0272 03       		.uleb128 0x3
 2768 0273 0E       		.uleb128 0xe
 2769 0274 3A       		.uleb128 0x3a
 2770 0275 0B       		.uleb128 0xb
 2771 0276 3B       		.uleb128 0x3b
 2772 0277 0B       		.uleb128 0xb
 2773 0278 27       		.uleb128 0x27
 2774 0279 19       		.uleb128 0x19
 2775 027a 3C       		.uleb128 0x3c
 2776 027b 19       		.uleb128 0x19
 2777 027c 01       		.uleb128 0x1
 2778 027d 13       		.uleb128 0x13
ARM GAS  /tmp/ccM203Zg.s 			page 50


 2779 027e 00       		.byte	0
 2780 027f 00       		.byte	0
 2781 0280 2E       		.uleb128 0x2e
 2782 0281 2E       		.uleb128 0x2e
 2783 0282 01       		.byte	0x1
 2784 0283 3F       		.uleb128 0x3f
 2785 0284 19       		.uleb128 0x19
 2786 0285 03       		.uleb128 0x3
 2787 0286 0E       		.uleb128 0xe
 2788 0287 3A       		.uleb128 0x3a
 2789 0288 0B       		.uleb128 0xb
 2790 0289 3B       		.uleb128 0x3b
 2791 028a 0B       		.uleb128 0xb
 2792 028b 27       		.uleb128 0x27
 2793 028c 19       		.uleb128 0x19
 2794 028d 3C       		.uleb128 0x3c
 2795 028e 19       		.uleb128 0x19
 2796 028f 00       		.byte	0
 2797 0290 00       		.byte	0
 2798 0291 00       		.byte	0
 2799              		.section	.debug_loc,"",%progbits
 2800              	.Ldebug_loc0:
 2801              	.LLST0:
 2802 0000 00000000 		.4byte	.LVL2
 2803 0004 03000000 		.4byte	.LVL3-1
 2804 0008 0100     		.2byte	0x1
 2805 000a 50       		.byte	0x50
 2806 000b 03000000 		.4byte	.LVL3-1
 2807 000f 04000000 		.4byte	.LFE274
 2808 0013 0400     		.2byte	0x4
 2809 0015 F3       		.byte	0xf3
 2810 0016 01       		.uleb128 0x1
 2811 0017 50       		.byte	0x50
 2812 0018 9F       		.byte	0x9f
 2813 0019 00000000 		.4byte	0
 2814 001d 00000000 		.4byte	0
 2815              	.LLST1:
 2816 0021 00000000 		.4byte	.LVL2
 2817 0025 03000000 		.4byte	.LVL3-1
 2818 0029 0100     		.2byte	0x1
 2819 002b 51       		.byte	0x51
 2820 002c 03000000 		.4byte	.LVL3-1
 2821 0030 04000000 		.4byte	.LFE274
 2822 0034 0400     		.2byte	0x4
 2823 0036 F3       		.byte	0xf3
 2824 0037 01       		.uleb128 0x1
 2825 0038 51       		.byte	0x51
 2826 0039 9F       		.byte	0x9f
 2827 003a 00000000 		.4byte	0
 2828 003e 00000000 		.4byte	0
 2829              	.LLST2:
 2830 0042 00000000 		.4byte	.LVL4
 2831 0046 03000000 		.4byte	.LVL5-1
 2832 004a 0100     		.2byte	0x1
 2833 004c 50       		.byte	0x50
 2834 004d 03000000 		.4byte	.LVL5-1
 2835 0051 04000000 		.4byte	.LFE275
ARM GAS  /tmp/ccM203Zg.s 			page 51


 2836 0055 0400     		.2byte	0x4
 2837 0057 F3       		.byte	0xf3
 2838 0058 01       		.uleb128 0x1
 2839 0059 50       		.byte	0x50
 2840 005a 9F       		.byte	0x9f
 2841 005b 00000000 		.4byte	0
 2842 005f 00000000 		.4byte	0
 2843              	.LLST3:
 2844 0063 00000000 		.4byte	.LVL4
 2845 0067 03000000 		.4byte	.LVL5-1
 2846 006b 0100     		.2byte	0x1
 2847 006d 51       		.byte	0x51
 2848 006e 03000000 		.4byte	.LVL5-1
 2849 0072 04000000 		.4byte	.LFE275
 2850 0076 0400     		.2byte	0x4
 2851 0078 F3       		.byte	0xf3
 2852 0079 01       		.uleb128 0x1
 2853 007a 51       		.byte	0x51
 2854 007b 9F       		.byte	0x9f
 2855 007c 00000000 		.4byte	0
 2856 0080 00000000 		.4byte	0
 2857              	.LLST4:
 2858 0084 00000000 		.4byte	.LVL6
 2859 0088 03000000 		.4byte	.LVL7-1
 2860 008c 0100     		.2byte	0x1
 2861 008e 50       		.byte	0x50
 2862 008f 03000000 		.4byte	.LVL7-1
 2863 0093 04000000 		.4byte	.LFE276
 2864 0097 0400     		.2byte	0x4
 2865 0099 F3       		.byte	0xf3
 2866 009a 01       		.uleb128 0x1
 2867 009b 50       		.byte	0x50
 2868 009c 9F       		.byte	0x9f
 2869 009d 00000000 		.4byte	0
 2870 00a1 00000000 		.4byte	0
 2871              	.LLST5:
 2872 00a5 00000000 		.4byte	.LVL6
 2873 00a9 03000000 		.4byte	.LVL7-1
 2874 00ad 0100     		.2byte	0x1
 2875 00af 51       		.byte	0x51
 2876 00b0 03000000 		.4byte	.LVL7-1
 2877 00b4 04000000 		.4byte	.LFE276
 2878 00b8 0400     		.2byte	0x4
 2879 00ba F3       		.byte	0xf3
 2880 00bb 01       		.uleb128 0x1
 2881 00bc 51       		.byte	0x51
 2882 00bd 9F       		.byte	0x9f
 2883 00be 00000000 		.4byte	0
 2884 00c2 00000000 		.4byte	0
 2885              	.LLST6:
 2886 00c6 00000000 		.4byte	.LVL6
 2887 00ca 03000000 		.4byte	.LVL7-1
 2888 00ce 0100     		.2byte	0x1
 2889 00d0 52       		.byte	0x52
 2890 00d1 03000000 		.4byte	.LVL7-1
 2891 00d5 04000000 		.4byte	.LFE276
 2892 00d9 0400     		.2byte	0x4
ARM GAS  /tmp/ccM203Zg.s 			page 52


 2893 00db F3       		.byte	0xf3
 2894 00dc 01       		.uleb128 0x1
 2895 00dd 52       		.byte	0x52
 2896 00de 9F       		.byte	0x9f
 2897 00df 00000000 		.4byte	0
 2898 00e3 00000000 		.4byte	0
 2899              	.LLST7:
 2900 00e7 00000000 		.4byte	.LVL8
 2901 00eb 03000000 		.4byte	.LVL9-1
 2902 00ef 0100     		.2byte	0x1
 2903 00f1 50       		.byte	0x50
 2904 00f2 03000000 		.4byte	.LVL9-1
 2905 00f6 04000000 		.4byte	.LFE277
 2906 00fa 0400     		.2byte	0x4
 2907 00fc F3       		.byte	0xf3
 2908 00fd 01       		.uleb128 0x1
 2909 00fe 50       		.byte	0x50
 2910 00ff 9F       		.byte	0x9f
 2911 0100 00000000 		.4byte	0
 2912 0104 00000000 		.4byte	0
 2913              	.LLST8:
 2914 0108 00000000 		.4byte	.LVL8
 2915 010c 03000000 		.4byte	.LVL9-1
 2916 0110 0100     		.2byte	0x1
 2917 0112 51       		.byte	0x51
 2918 0113 03000000 		.4byte	.LVL9-1
 2919 0117 04000000 		.4byte	.LFE277
 2920 011b 0400     		.2byte	0x4
 2921 011d F3       		.byte	0xf3
 2922 011e 01       		.uleb128 0x1
 2923 011f 51       		.byte	0x51
 2924 0120 9F       		.byte	0x9f
 2925 0121 00000000 		.4byte	0
 2926 0125 00000000 		.4byte	0
 2927              	.LLST9:
 2928 0129 00000000 		.4byte	.LVL8
 2929 012d 03000000 		.4byte	.LVL9-1
 2930 0131 0100     		.2byte	0x1
 2931 0133 52       		.byte	0x52
 2932 0134 03000000 		.4byte	.LVL9-1
 2933 0138 04000000 		.4byte	.LFE277
 2934 013c 0400     		.2byte	0x4
 2935 013e F3       		.byte	0xf3
 2936 013f 01       		.uleb128 0x1
 2937 0140 52       		.byte	0x52
 2938 0141 9F       		.byte	0x9f
 2939 0142 00000000 		.4byte	0
 2940 0146 00000000 		.4byte	0
 2941              	.LLST10:
 2942 014a 00000000 		.4byte	.LVL10
 2943 014e 20000000 		.4byte	.LVL11
 2944 0152 0100     		.2byte	0x1
 2945 0154 50       		.byte	0x50
 2946 0155 20000000 		.4byte	.LVL11
 2947 0159 A4000000 		.4byte	.LFE278
 2948 015d 0400     		.2byte	0x4
 2949 015f F3       		.byte	0xf3
ARM GAS  /tmp/ccM203Zg.s 			page 53


 2950 0160 01       		.uleb128 0x1
 2951 0161 50       		.byte	0x50
 2952 0162 9F       		.byte	0x9f
 2953 0163 00000000 		.4byte	0
 2954 0167 00000000 		.4byte	0
 2955              	.LLST11:
 2956 016b 22000000 		.4byte	.LVL12
 2957 016f 66000000 		.4byte	.LVL14
 2958 0173 0100     		.2byte	0x1
 2959 0175 53       		.byte	0x53
 2960 0176 66000000 		.4byte	.LVL14
 2961 017a 84000000 		.4byte	.LVL15
 2962 017e 1E00     		.2byte	0x1e
 2963 0180 74       		.byte	0x74
 2964 0181 00       		.sleb128 0
 2965 0182 F7       		.byte	0xf7
 2966 0183 33       		.uleb128 0x33
 2967 0184 F7       		.byte	0xf7
 2968 0185 25       		.uleb128 0x25
 2969 0186 76       		.byte	0x76
 2970 0187 00       		.sleb128 0
 2971 0188 F7       		.byte	0xf7
 2972 0189 33       		.uleb128 0x33
 2973 018a F7       		.byte	0xf7
 2974 018b 25       		.uleb128 0x25
 2975 018c 1E       		.byte	0x1e
 2976 018d 08       		.byte	0x8
 2977 018e 20       		.byte	0x20
 2978 018f F7       		.byte	0xf7
 2979 0190 25       		.uleb128 0x25
 2980 0191 25       		.byte	0x25
 2981 0192 F7       		.byte	0xf7
 2982 0193 2C       		.uleb128 0x2c
 2983 0194 36       		.byte	0x36
 2984 0195 25       		.byte	0x25
 2985 0196 75       		.byte	0x75
 2986 0197 00       		.sleb128 0
 2987 0198 0A       		.byte	0xa
 2988 0199 100E     		.2byte	0xe10
 2989 019b 1E       		.byte	0x1e
 2990 019c 1C       		.byte	0x1c
 2991 019d 9F       		.byte	0x9f
 2992 019e 84000000 		.4byte	.LVL15
 2993 01a2 8E000000 		.4byte	.LVL16
 2994 01a6 1F00     		.2byte	0x1f
 2995 01a8 74       		.byte	0x74
 2996 01a9 00       		.sleb128 0
 2997 01aa F7       		.byte	0xf7
 2998 01ab 33       		.uleb128 0x33
 2999 01ac F7       		.byte	0xf7
 3000 01ad 25       		.uleb128 0x25
 3001 01ae 0C       		.byte	0xc
 3002 01af D34D6210 		.4byte	0x10624dd3
 3003 01b3 F7       		.byte	0xf7
 3004 01b4 25       		.uleb128 0x25
 3005 01b5 1E       		.byte	0x1e
 3006 01b6 08       		.byte	0x8
ARM GAS  /tmp/ccM203Zg.s 			page 54


 3007 01b7 20       		.byte	0x20
 3008 01b8 F7       		.byte	0xf7
 3009 01b9 25       		.uleb128 0x25
 3010 01ba 25       		.byte	0x25
 3011 01bb F7       		.byte	0xf7
 3012 01bc 2C       		.uleb128 0x2c
 3013 01bd 36       		.byte	0x36
 3014 01be 25       		.byte	0x25
 3015 01bf 75       		.byte	0x75
 3016 01c0 00       		.sleb128 0
 3017 01c1 0A       		.byte	0xa
 3018 01c2 100E     		.2byte	0xe10
 3019 01c4 1E       		.byte	0x1e
 3020 01c5 1C       		.byte	0x1c
 3021 01c6 9F       		.byte	0x9f
 3022 01c7 8E000000 		.4byte	.LVL16
 3023 01cb 94000000 		.4byte	.LVL17
 3024 01cf 2900     		.2byte	0x29
 3025 01d1 F3       		.byte	0xf3
 3026 01d2 01       		.uleb128 0x1
 3027 01d3 50       		.byte	0x50
 3028 01d4 23       		.byte	0x23
 3029 01d5 04       		.uleb128 0x4
 3030 01d6 06       		.byte	0x6
 3031 01d7 09       		.byte	0x9
 3032 01d8 E9       		.byte	0xe9
 3033 01d9 24       		.byte	0x24
 3034 01da 09       		.byte	0x9
 3035 01db E9       		.byte	0xe9
 3036 01dc 25       		.byte	0x25
 3037 01dd F7       		.byte	0xf7
 3038 01de 33       		.uleb128 0x33
 3039 01df F7       		.byte	0xf7
 3040 01e0 25       		.uleb128 0x25
 3041 01e1 0C       		.byte	0xc
 3042 01e2 D34D6210 		.4byte	0x10624dd3
 3043 01e6 F7       		.byte	0xf7
 3044 01e7 25       		.uleb128 0x25
 3045 01e8 1E       		.byte	0x1e
 3046 01e9 08       		.byte	0x8
 3047 01ea 20       		.byte	0x20
 3048 01eb F7       		.byte	0xf7
 3049 01ec 25       		.uleb128 0x25
 3050 01ed 25       		.byte	0x25
 3051 01ee F7       		.byte	0xf7
 3052 01ef 2C       		.uleb128 0x2c
 3053 01f0 36       		.byte	0x36
 3054 01f1 25       		.byte	0x25
 3055 01f2 75       		.byte	0x75
 3056 01f3 00       		.sleb128 0
 3057 01f4 0A       		.byte	0xa
 3058 01f5 100E     		.2byte	0xe10
 3059 01f7 1E       		.byte	0x1e
 3060 01f8 1C       		.byte	0x1c
 3061 01f9 9F       		.byte	0x9f
 3062 01fa 94000000 		.4byte	.LVL17
 3063 01fe A4000000 		.4byte	.LFE278
ARM GAS  /tmp/ccM203Zg.s 			page 55


 3064 0202 2A00     		.2byte	0x2a
 3065 0204 F3       		.byte	0xf3
 3066 0205 01       		.uleb128 0x1
 3067 0206 50       		.byte	0x50
 3068 0207 23       		.byte	0x23
 3069 0208 04       		.uleb128 0x4
 3070 0209 06       		.byte	0x6
 3071 020a 09       		.byte	0x9
 3072 020b E9       		.byte	0xe9
 3073 020c 24       		.byte	0x24
 3074 020d 09       		.byte	0x9
 3075 020e E9       		.byte	0xe9
 3076 020f 25       		.byte	0x25
 3077 0210 F7       		.byte	0xf7
 3078 0211 33       		.uleb128 0x33
 3079 0212 F7       		.byte	0xf7
 3080 0213 25       		.uleb128 0x25
 3081 0214 0C       		.byte	0xc
 3082 0215 D34D6210 		.4byte	0x10624dd3
 3083 0219 F7       		.byte	0xf7
 3084 021a 25       		.uleb128 0x25
 3085 021b 1E       		.byte	0x1e
 3086 021c 08       		.byte	0x8
 3087 021d 20       		.byte	0x20
 3088 021e F7       		.byte	0xf7
 3089 021f 25       		.uleb128 0x25
 3090 0220 25       		.byte	0x25
 3091 0221 F7       		.byte	0xf7
 3092 0222 2C       		.uleb128 0x2c
 3093 0223 36       		.byte	0x36
 3094 0224 25       		.byte	0x25
 3095 0225 71       		.byte	0x71
 3096 0226 08       		.sleb128 8
 3097 0227 06       		.byte	0x6
 3098 0228 0A       		.byte	0xa
 3099 0229 100E     		.2byte	0xe10
 3100 022b 1E       		.byte	0x1e
 3101 022c 1C       		.byte	0x1c
 3102 022d 9F       		.byte	0x9f
 3103 022e 00000000 		.4byte	0
 3104 0232 00000000 		.4byte	0
 3105              	.LLST12:
 3106 0236 00000000 		.4byte	.LVL18
 3107 023a 2E000000 		.4byte	.LVL19
 3108 023e 0100     		.2byte	0x1
 3109 0240 50       		.byte	0x50
 3110 0241 2E000000 		.4byte	.LVL19
 3111 0245 70000000 		.4byte	.LFE279
 3112 0249 0400     		.2byte	0x4
 3113 024b F3       		.byte	0xf3
 3114 024c 01       		.uleb128 0x1
 3115 024d 50       		.byte	0x50
 3116 024e 9F       		.byte	0x9f
 3117 024f 00000000 		.4byte	0
 3118 0253 00000000 		.4byte	0
 3119              	.LLST13:
 3120 0257 00000000 		.4byte	.LVL18
ARM GAS  /tmp/ccM203Zg.s 			page 56


 3121 025b 64000000 		.4byte	.LVL20
 3122 025f 0100     		.2byte	0x1
 3123 0261 51       		.byte	0x51
 3124 0262 64000000 		.4byte	.LVL20
 3125 0266 70000000 		.4byte	.LFE279
 3126 026a 0400     		.2byte	0x4
 3127 026c F3       		.byte	0xf3
 3128 026d 01       		.uleb128 0x1
 3129 026e 51       		.byte	0x51
 3130 026f 9F       		.byte	0x9f
 3131 0270 00000000 		.4byte	0
 3132 0274 00000000 		.4byte	0
 3133              	.LLST14:
 3134 0278 00000000 		.4byte	.LVL21
 3135 027c 56000000 		.4byte	.LVL34
 3136 0280 0100     		.2byte	0x1
 3137 0282 50       		.byte	0x50
 3138 0283 56000000 		.4byte	.LVL34
 3139 0287 5E000000 		.4byte	.LVL37
 3140 028b 0400     		.2byte	0x4
 3141 028d F3       		.byte	0xf3
 3142 028e 01       		.uleb128 0x1
 3143 028f 50       		.byte	0x50
 3144 0290 9F       		.byte	0x9f
 3145 0291 5E000000 		.4byte	.LVL37
 3146 0295 90000000 		.4byte	.LFE280
 3147 0299 0100     		.2byte	0x1
 3148 029b 50       		.byte	0x50
 3149 029c 00000000 		.4byte	0
 3150 02a0 00000000 		.4byte	0
 3151              	.LLST15:
 3152 02a4 44000000 		.4byte	.LVL29
 3153 02a8 48000000 		.4byte	.LVL30
 3154 02ac 1500     		.2byte	0x15
 3155 02ae 73       		.byte	0x73
 3156 02af 00       		.sleb128 0
 3157 02b0 35       		.byte	0x35
 3158 02b1 24       		.byte	0x24
 3159 02b2 71       		.byte	0x71
 3160 02b3 00       		.sleb128 0
 3161 02b4 31       		.byte	0x31
 3162 02b5 25       		.byte	0x25
 3163 02b6 21       		.byte	0x21
 3164 02b7 75       		.byte	0x75
 3165 02b8 00       		.sleb128 0
 3166 02b9 45       		.byte	0x45
 3167 02ba 24       		.byte	0x24
 3168 02bb 21       		.byte	0x21
 3169 02bc 74       		.byte	0x74
 3170 02bd 00       		.sleb128 0
 3171 02be 21       		.byte	0x21
 3172 02bf 76       		.byte	0x76
 3173 02c0 00       		.sleb128 0
 3174 02c1 21       		.byte	0x21
 3175 02c2 9F       		.byte	0x9f
 3176 02c3 48000000 		.4byte	.LVL30
 3177 02c7 4C000000 		.4byte	.LVL31
ARM GAS  /tmp/ccM203Zg.s 			page 57


 3178 02cb 8400     		.2byte	0x84
 3179 02cd 70       		.byte	0x70
 3180 02ce 04       		.sleb128 4
 3181 02cf 06       		.byte	0x6
 3182 02d0 09       		.byte	0x9
 3183 02d1 E9       		.byte	0xe9
 3184 02d2 24       		.byte	0x24
 3185 02d3 09       		.byte	0x9
 3186 02d4 E9       		.byte	0xe9
 3187 02d5 25       		.byte	0x25
 3188 02d6 F7       		.byte	0xf7
 3189 02d7 2C       		.uleb128 0x2c
 3190 02d8 F7       		.byte	0xf7
 3191 02d9 25       		.uleb128 0x25
 3192 02da 77       		.byte	0x77
 3193 02db 00       		.sleb128 0
 3194 02dc F7       		.byte	0xf7
 3195 02dd 2C       		.uleb128 0x2c
 3196 02de F7       		.byte	0xf7
 3197 02df 25       		.uleb128 0x25
 3198 02e0 1E       		.byte	0x1e
 3199 02e1 08       		.byte	0x8
 3200 02e2 20       		.byte	0x20
 3201 02e3 F7       		.byte	0xf7
 3202 02e4 25       		.uleb128 0x25
 3203 02e5 25       		.byte	0x25
 3204 02e6 F7       		.byte	0xf7
 3205 02e7 2C       		.uleb128 0x2c
 3206 02e8 36       		.byte	0x36
 3207 02e9 25       		.byte	0x25
 3208 02ea 70       		.byte	0x70
 3209 02eb 04       		.sleb128 4
 3210 02ec 06       		.byte	0x6
 3211 02ed 09       		.byte	0x9
 3212 02ee E9       		.byte	0xe9
 3213 02ef 24       		.byte	0x24
 3214 02f0 09       		.byte	0x9
 3215 02f1 E9       		.byte	0xe9
 3216 02f2 25       		.byte	0x25
 3217 02f3 F7       		.byte	0xf7
 3218 02f4 2C       		.uleb128 0x2c
 3219 02f5 F7       		.byte	0xf7
 3220 02f6 25       		.uleb128 0x25
 3221 02f7 77       		.byte	0x77
 3222 02f8 00       		.sleb128 0
 3223 02f9 F7       		.byte	0xf7
 3224 02fa 2C       		.uleb128 0x2c
 3225 02fb F7       		.byte	0xf7
 3226 02fc 25       		.uleb128 0x25
 3227 02fd 1E       		.byte	0x1e
 3228 02fe 08       		.byte	0x8
 3229 02ff 20       		.byte	0x20
 3230 0300 F7       		.byte	0xf7
 3231 0301 25       		.uleb128 0x25
 3232 0302 25       		.byte	0x25
 3233 0303 F7       		.byte	0xf7
 3234 0304 2C       		.uleb128 0x2c
ARM GAS  /tmp/ccM203Zg.s 			page 58


 3235 0305 36       		.byte	0x36
 3236 0306 25       		.byte	0x25
 3237 0307 F7       		.byte	0xf7
 3238 0308 2C       		.uleb128 0x2c
 3239 0309 F7       		.byte	0xf7
 3240 030a 25       		.uleb128 0x25
 3241 030b F4       		.byte	0xf4
 3242 030c 25       		.uleb128 0x25
 3243 030d 08       		.byte	0x8
 3244 030e C5B3A291 		.8byte	0x91a2b3c5
 3244      00000000 
 3245 0316 1E       		.byte	0x1e
 3246 0317 08       		.byte	0x8
 3247 0318 20       		.byte	0x20
 3248 0319 F7       		.byte	0xf7
 3249 031a 25       		.uleb128 0x25
 3250 031b 25       		.byte	0x25
 3251 031c F7       		.byte	0xf7
 3252 031d 2C       		.uleb128 0x2c
 3253 031e 3B       		.byte	0x3b
 3254 031f 25       		.byte	0x25
 3255 0320 0A       		.byte	0xa
 3256 0321 100E     		.2byte	0xe10
 3257 0323 1E       		.byte	0x1e
 3258 0324 1C       		.byte	0x1c
 3259 0325 F7       		.byte	0xf7
 3260 0326 2C       		.uleb128 0x2c
 3261 0327 F7       		.byte	0xf7
 3262 0328 25       		.uleb128 0x25
 3263 0329 F4       		.byte	0xf4
 3264 032a 25       		.uleb128 0x25
 3265 032b 08       		.byte	0x8
 3266 032c 89888888 		.8byte	0x88888889
 3266      00000000 
 3267 0334 1E       		.byte	0x1e
 3268 0335 08       		.byte	0x8
 3269 0336 20       		.byte	0x20
 3270 0337 F7       		.byte	0xf7
 3271 0338 25       		.uleb128 0x25
 3272 0339 25       		.byte	0x25
 3273 033a F7       		.byte	0xf7
 3274 033b 2C       		.uleb128 0x2c
 3275 033c 35       		.byte	0x35
 3276 033d 25       		.byte	0x25
 3277 033e 35       		.byte	0x35
 3278 033f 24       		.byte	0x24
 3279 0340 71       		.byte	0x71
 3280 0341 00       		.sleb128 0
 3281 0342 31       		.byte	0x31
 3282 0343 25       		.byte	0x25
 3283 0344 21       		.byte	0x21
 3284 0345 75       		.byte	0x75
 3285 0346 00       		.sleb128 0
 3286 0347 45       		.byte	0x45
 3287 0348 24       		.byte	0x24
 3288 0349 21       		.byte	0x21
 3289 034a 74       		.byte	0x74
ARM GAS  /tmp/ccM203Zg.s 			page 59


 3290 034b 00       		.sleb128 0
 3291 034c 21       		.byte	0x21
 3292 034d 76       		.byte	0x76
 3293 034e 00       		.sleb128 0
 3294 034f 21       		.byte	0x21
 3295 0350 9F       		.byte	0x9f
 3296 0351 4C000000 		.4byte	.LVL31
 3297 0355 50000000 		.4byte	.LVL32
 3298 0359 0E00     		.2byte	0xe
 3299 035b 75       		.byte	0x75
 3300 035c 00       		.sleb128 0
 3301 035d 45       		.byte	0x45
 3302 035e 24       		.byte	0x24
 3303 035f 73       		.byte	0x73
 3304 0360 00       		.sleb128 0
 3305 0361 21       		.byte	0x21
 3306 0362 74       		.byte	0x74
 3307 0363 00       		.sleb128 0
 3308 0364 21       		.byte	0x21
 3309 0365 76       		.byte	0x76
 3310 0366 00       		.sleb128 0
 3311 0367 21       		.byte	0x21
 3312 0368 9F       		.byte	0x9f
 3313 0369 50000000 		.4byte	.LVL32
 3314 036d 52000000 		.4byte	.LVL33
 3315 0371 8400     		.2byte	0x84
 3316 0373 70       		.byte	0x70
 3317 0374 04       		.sleb128 4
 3318 0375 06       		.byte	0x6
 3319 0376 09       		.byte	0x9
 3320 0377 E9       		.byte	0xe9
 3321 0378 24       		.byte	0x24
 3322 0379 09       		.byte	0x9
 3323 037a E9       		.byte	0xe9
 3324 037b 25       		.byte	0x25
 3325 037c F7       		.byte	0xf7
 3326 037d 2C       		.uleb128 0x2c
 3327 037e F7       		.byte	0xf7
 3328 037f 25       		.uleb128 0x25
 3329 0380 77       		.byte	0x77
 3330 0381 00       		.sleb128 0
 3331 0382 F7       		.byte	0xf7
 3332 0383 2C       		.uleb128 0x2c
 3333 0384 F7       		.byte	0xf7
 3334 0385 25       		.uleb128 0x25
 3335 0386 1E       		.byte	0x1e
 3336 0387 08       		.byte	0x8
 3337 0388 20       		.byte	0x20
 3338 0389 F7       		.byte	0xf7
 3339 038a 25       		.uleb128 0x25
 3340 038b 25       		.byte	0x25
 3341 038c F7       		.byte	0xf7
 3342 038d 2C       		.uleb128 0x2c
 3343 038e 36       		.byte	0x36
 3344 038f 25       		.byte	0x25
 3345 0390 70       		.byte	0x70
 3346 0391 04       		.sleb128 4
ARM GAS  /tmp/ccM203Zg.s 			page 60


 3347 0392 06       		.byte	0x6
 3348 0393 09       		.byte	0x9
 3349 0394 E9       		.byte	0xe9
 3350 0395 24       		.byte	0x24
 3351 0396 09       		.byte	0x9
 3352 0397 E9       		.byte	0xe9
 3353 0398 25       		.byte	0x25
 3354 0399 F7       		.byte	0xf7
 3355 039a 2C       		.uleb128 0x2c
 3356 039b F7       		.byte	0xf7
 3357 039c 25       		.uleb128 0x25
 3358 039d 77       		.byte	0x77
 3359 039e 00       		.sleb128 0
 3360 039f F7       		.byte	0xf7
 3361 03a0 2C       		.uleb128 0x2c
 3362 03a1 F7       		.byte	0xf7
 3363 03a2 25       		.uleb128 0x25
 3364 03a3 1E       		.byte	0x1e
 3365 03a4 08       		.byte	0x8
 3366 03a5 20       		.byte	0x20
 3367 03a6 F7       		.byte	0xf7
 3368 03a7 25       		.uleb128 0x25
 3369 03a8 25       		.byte	0x25
 3370 03a9 F7       		.byte	0xf7
 3371 03aa 2C       		.uleb128 0x2c
 3372 03ab 36       		.byte	0x36
 3373 03ac 25       		.byte	0x25
 3374 03ad F7       		.byte	0xf7
 3375 03ae 2C       		.uleb128 0x2c
 3376 03af F7       		.byte	0xf7
 3377 03b0 25       		.uleb128 0x25
 3378 03b1 F4       		.byte	0xf4
 3379 03b2 25       		.uleb128 0x25
 3380 03b3 08       		.byte	0x8
 3381 03b4 C5B3A291 		.8byte	0x91a2b3c5
 3381      00000000 
 3382 03bc 1E       		.byte	0x1e
 3383 03bd 08       		.byte	0x8
 3384 03be 20       		.byte	0x20
 3385 03bf F7       		.byte	0xf7
 3386 03c0 25       		.uleb128 0x25
 3387 03c1 25       		.byte	0x25
 3388 03c2 F7       		.byte	0xf7
 3389 03c3 2C       		.uleb128 0x2c
 3390 03c4 3B       		.byte	0x3b
 3391 03c5 25       		.byte	0x25
 3392 03c6 0A       		.byte	0xa
 3393 03c7 100E     		.2byte	0xe10
 3394 03c9 1E       		.byte	0x1e
 3395 03ca 1C       		.byte	0x1c
 3396 03cb F7       		.byte	0xf7
 3397 03cc 2C       		.uleb128 0x2c
 3398 03cd F7       		.byte	0xf7
 3399 03ce 25       		.uleb128 0x25
 3400 03cf F4       		.byte	0xf4
 3401 03d0 25       		.uleb128 0x25
 3402 03d1 08       		.byte	0x8
ARM GAS  /tmp/ccM203Zg.s 			page 61


 3403 03d2 89888888 		.8byte	0x88888889
 3403      00000000 
 3404 03da 1E       		.byte	0x1e
 3405 03db 08       		.byte	0x8
 3406 03dc 20       		.byte	0x20
 3407 03dd F7       		.byte	0xf7
 3408 03de 25       		.uleb128 0x25
 3409 03df 25       		.byte	0x25
 3410 03e0 F7       		.byte	0xf7
 3411 03e1 2C       		.uleb128 0x2c
 3412 03e2 35       		.byte	0x35
 3413 03e3 25       		.byte	0x25
 3414 03e4 35       		.byte	0x35
 3415 03e5 24       		.byte	0x24
 3416 03e6 71       		.byte	0x71
 3417 03e7 00       		.sleb128 0
 3418 03e8 31       		.byte	0x31
 3419 03e9 25       		.byte	0x25
 3420 03ea 21       		.byte	0x21
 3421 03eb 75       		.byte	0x75
 3422 03ec 00       		.sleb128 0
 3423 03ed 45       		.byte	0x45
 3424 03ee 24       		.byte	0x24
 3425 03ef 21       		.byte	0x21
 3426 03f0 74       		.byte	0x74
 3427 03f1 00       		.sleb128 0
 3428 03f2 21       		.byte	0x21
 3429 03f3 76       		.byte	0x76
 3430 03f4 00       		.sleb128 0
 3431 03f5 21       		.byte	0x21
 3432 03f6 9F       		.byte	0x9f
 3433 03f7 56000000 		.4byte	.LVL34
 3434 03fb 5A000000 		.4byte	.LVL35
 3435 03ff 0800     		.2byte	0x8
 3436 0401 75       		.byte	0x75
 3437 0402 00       		.sleb128 0
 3438 0403 45       		.byte	0x45
 3439 0404 24       		.byte	0x24
 3440 0405 70       		.byte	0x70
 3441 0406 00       		.sleb128 0
 3442 0407 21       		.byte	0x21
 3443 0408 9F       		.byte	0x9f
 3444 0409 5A000000 		.4byte	.LVL35
 3445 040d 5E000000 		.4byte	.LVL37
 3446 0411 0100     		.2byte	0x1
 3447 0413 50       		.byte	0x50
 3448 0414 00000000 		.4byte	0
 3449 0418 00000000 		.4byte	0
 3450              	.LLST16:
 3451 041c 2C000000 		.4byte	.LVL25
 3452 0420 48000000 		.4byte	.LVL30
 3453 0424 0100     		.2byte	0x1
 3454 0426 53       		.byte	0x53
 3455 0427 48000000 		.4byte	.LVL30
 3456 042b 56000000 		.4byte	.LVL34
 3457 042f 7200     		.2byte	0x72
 3458 0431 70       		.byte	0x70
ARM GAS  /tmp/ccM203Zg.s 			page 62


 3459 0432 04       		.sleb128 4
 3460 0433 06       		.byte	0x6
 3461 0434 09       		.byte	0x9
 3462 0435 E9       		.byte	0xe9
 3463 0436 24       		.byte	0x24
 3464 0437 09       		.byte	0x9
 3465 0438 E9       		.byte	0xe9
 3466 0439 25       		.byte	0x25
 3467 043a F7       		.byte	0xf7
 3468 043b 2C       		.uleb128 0x2c
 3469 043c F7       		.byte	0xf7
 3470 043d 25       		.uleb128 0x25
 3471 043e 77       		.byte	0x77
 3472 043f 00       		.sleb128 0
 3473 0440 F7       		.byte	0xf7
 3474 0441 2C       		.uleb128 0x2c
 3475 0442 F7       		.byte	0xf7
 3476 0443 25       		.uleb128 0x25
 3477 0444 1E       		.byte	0x1e
 3478 0445 08       		.byte	0x8
 3479 0446 20       		.byte	0x20
 3480 0447 F7       		.byte	0xf7
 3481 0448 25       		.uleb128 0x25
 3482 0449 25       		.byte	0x25
 3483 044a F7       		.byte	0xf7
 3484 044b 2C       		.uleb128 0x2c
 3485 044c 36       		.byte	0x36
 3486 044d 25       		.byte	0x25
 3487 044e 70       		.byte	0x70
 3488 044f 04       		.sleb128 4
 3489 0450 06       		.byte	0x6
 3490 0451 09       		.byte	0x9
 3491 0452 E9       		.byte	0xe9
 3492 0453 24       		.byte	0x24
 3493 0454 09       		.byte	0x9
 3494 0455 E9       		.byte	0xe9
 3495 0456 25       		.byte	0x25
 3496 0457 F7       		.byte	0xf7
 3497 0458 2C       		.uleb128 0x2c
 3498 0459 F7       		.byte	0xf7
 3499 045a 25       		.uleb128 0x25
 3500 045b 77       		.byte	0x77
 3501 045c 00       		.sleb128 0
 3502 045d F7       		.byte	0xf7
 3503 045e 2C       		.uleb128 0x2c
 3504 045f F7       		.byte	0xf7
 3505 0460 25       		.uleb128 0x25
 3506 0461 1E       		.byte	0x1e
 3507 0462 08       		.byte	0x8
 3508 0463 20       		.byte	0x20
 3509 0464 F7       		.byte	0xf7
 3510 0465 25       		.uleb128 0x25
 3511 0466 25       		.byte	0x25
 3512 0467 F7       		.byte	0xf7
 3513 0468 2C       		.uleb128 0x2c
 3514 0469 36       		.byte	0x36
 3515 046a 25       		.byte	0x25
ARM GAS  /tmp/ccM203Zg.s 			page 63


 3516 046b F7       		.byte	0xf7
 3517 046c 2C       		.uleb128 0x2c
 3518 046d F7       		.byte	0xf7
 3519 046e 25       		.uleb128 0x25
 3520 046f F4       		.byte	0xf4
 3521 0470 25       		.uleb128 0x25
 3522 0471 08       		.byte	0x8
 3523 0472 C5B3A291 		.8byte	0x91a2b3c5
 3523      00000000 
 3524 047a 1E       		.byte	0x1e
 3525 047b 08       		.byte	0x8
 3526 047c 20       		.byte	0x20
 3527 047d F7       		.byte	0xf7
 3528 047e 25       		.uleb128 0x25
 3529 047f 25       		.byte	0x25
 3530 0480 F7       		.byte	0xf7
 3531 0481 2C       		.uleb128 0x2c
 3532 0482 3B       		.byte	0x3b
 3533 0483 25       		.byte	0x25
 3534 0484 0A       		.byte	0xa
 3535 0485 100E     		.2byte	0xe10
 3536 0487 1E       		.byte	0x1e
 3537 0488 1C       		.byte	0x1c
 3538 0489 F7       		.byte	0xf7
 3539 048a 2C       		.uleb128 0x2c
 3540 048b F7       		.byte	0xf7
 3541 048c 25       		.uleb128 0x25
 3542 048d F4       		.byte	0xf4
 3543 048e 25       		.uleb128 0x25
 3544 048f 08       		.byte	0x8
 3545 0490 89888888 		.8byte	0x88888889
 3545      00000000 
 3546 0498 1E       		.byte	0x1e
 3547 0499 08       		.byte	0x8
 3548 049a 20       		.byte	0x20
 3549 049b F7       		.byte	0xf7
 3550 049c 25       		.uleb128 0x25
 3551 049d 25       		.byte	0x25
 3552 049e F7       		.byte	0xf7
 3553 049f 2C       		.uleb128 0x2c
 3554 04a0 35       		.byte	0x35
 3555 04a1 25       		.byte	0x25
 3556 04a2 9F       		.byte	0x9f
 3557 04a3 56000000 		.4byte	.LVL34
 3558 04a7 5C000000 		.4byte	.LVL36
 3559 04ab 7800     		.2byte	0x78
 3560 04ad F3       		.byte	0xf3
 3561 04ae 01       		.uleb128 0x1
 3562 04af 50       		.byte	0x50
 3563 04b0 23       		.byte	0x23
 3564 04b1 04       		.uleb128 0x4
 3565 04b2 06       		.byte	0x6
 3566 04b3 09       		.byte	0x9
 3567 04b4 E9       		.byte	0xe9
 3568 04b5 24       		.byte	0x24
 3569 04b6 09       		.byte	0x9
 3570 04b7 E9       		.byte	0xe9
ARM GAS  /tmp/ccM203Zg.s 			page 64


 3571 04b8 25       		.byte	0x25
 3572 04b9 F7       		.byte	0xf7
 3573 04ba 2C       		.uleb128 0x2c
 3574 04bb F7       		.byte	0xf7
 3575 04bc 25       		.uleb128 0x25
 3576 04bd 77       		.byte	0x77
 3577 04be 00       		.sleb128 0
 3578 04bf F7       		.byte	0xf7
 3579 04c0 2C       		.uleb128 0x2c
 3580 04c1 F7       		.byte	0xf7
 3581 04c2 25       		.uleb128 0x25
 3582 04c3 1E       		.byte	0x1e
 3583 04c4 08       		.byte	0x8
 3584 04c5 20       		.byte	0x20
 3585 04c6 F7       		.byte	0xf7
 3586 04c7 25       		.uleb128 0x25
 3587 04c8 25       		.byte	0x25
 3588 04c9 F7       		.byte	0xf7
 3589 04ca 2C       		.uleb128 0x2c
 3590 04cb 36       		.byte	0x36
 3591 04cc 25       		.byte	0x25
 3592 04cd F3       		.byte	0xf3
 3593 04ce 01       		.uleb128 0x1
 3594 04cf 50       		.byte	0x50
 3595 04d0 23       		.byte	0x23
 3596 04d1 04       		.uleb128 0x4
 3597 04d2 06       		.byte	0x6
 3598 04d3 09       		.byte	0x9
 3599 04d4 E9       		.byte	0xe9
 3600 04d5 24       		.byte	0x24
 3601 04d6 09       		.byte	0x9
 3602 04d7 E9       		.byte	0xe9
 3603 04d8 25       		.byte	0x25
 3604 04d9 F7       		.byte	0xf7
 3605 04da 2C       		.uleb128 0x2c
 3606 04db F7       		.byte	0xf7
 3607 04dc 25       		.uleb128 0x25
 3608 04dd 77       		.byte	0x77
 3609 04de 00       		.sleb128 0
 3610 04df F7       		.byte	0xf7
 3611 04e0 2C       		.uleb128 0x2c
 3612 04e1 F7       		.byte	0xf7
 3613 04e2 25       		.uleb128 0x25
 3614 04e3 1E       		.byte	0x1e
 3615 04e4 08       		.byte	0x8
 3616 04e5 20       		.byte	0x20
 3617 04e6 F7       		.byte	0xf7
 3618 04e7 25       		.uleb128 0x25
 3619 04e8 25       		.byte	0x25
 3620 04e9 F7       		.byte	0xf7
 3621 04ea 2C       		.uleb128 0x2c
 3622 04eb 36       		.byte	0x36
 3623 04ec 25       		.byte	0x25
 3624 04ed F7       		.byte	0xf7
 3625 04ee 2C       		.uleb128 0x2c
 3626 04ef F7       		.byte	0xf7
 3627 04f0 25       		.uleb128 0x25
ARM GAS  /tmp/ccM203Zg.s 			page 65


 3628 04f1 F4       		.byte	0xf4
 3629 04f2 25       		.uleb128 0x25
 3630 04f3 08       		.byte	0x8
 3631 04f4 C5B3A291 		.8byte	0x91a2b3c5
 3631      00000000 
 3632 04fc 1E       		.byte	0x1e
 3633 04fd 08       		.byte	0x8
 3634 04fe 20       		.byte	0x20
 3635 04ff F7       		.byte	0xf7
 3636 0500 25       		.uleb128 0x25
 3637 0501 25       		.byte	0x25
 3638 0502 F7       		.byte	0xf7
 3639 0503 2C       		.uleb128 0x2c
 3640 0504 3B       		.byte	0x3b
 3641 0505 25       		.byte	0x25
 3642 0506 0A       		.byte	0xa
 3643 0507 100E     		.2byte	0xe10
 3644 0509 1E       		.byte	0x1e
 3645 050a 1C       		.byte	0x1c
 3646 050b F7       		.byte	0xf7
 3647 050c 2C       		.uleb128 0x2c
 3648 050d F7       		.byte	0xf7
 3649 050e 25       		.uleb128 0x25
 3650 050f F4       		.byte	0xf4
 3651 0510 25       		.uleb128 0x25
 3652 0511 08       		.byte	0x8
 3653 0512 89888888 		.8byte	0x88888889
 3653      00000000 
 3654 051a 1E       		.byte	0x1e
 3655 051b 08       		.byte	0x8
 3656 051c 20       		.byte	0x20
 3657 051d F7       		.byte	0xf7
 3658 051e 25       		.uleb128 0x25
 3659 051f 25       		.byte	0x25
 3660 0520 F7       		.byte	0xf7
 3661 0521 2C       		.uleb128 0x2c
 3662 0522 35       		.byte	0x35
 3663 0523 25       		.byte	0x25
 3664 0524 9F       		.byte	0x9f
 3665 0525 5C000000 		.4byte	.LVL36
 3666 0529 5E000000 		.4byte	.LVL37
 3667 052d 7A00     		.2byte	0x7a
 3668 052f F3       		.byte	0xf3
 3669 0530 01       		.uleb128 0x1
 3670 0531 50       		.byte	0x50
 3671 0532 23       		.byte	0x23
 3672 0533 04       		.uleb128 0x4
 3673 0534 06       		.byte	0x6
 3674 0535 09       		.byte	0x9
 3675 0536 E9       		.byte	0xe9
 3676 0537 24       		.byte	0x24
 3677 0538 09       		.byte	0x9
 3678 0539 E9       		.byte	0xe9
 3679 053a 25       		.byte	0x25
 3680 053b F7       		.byte	0xf7
 3681 053c 2C       		.uleb128 0x2c
 3682 053d F7       		.byte	0xf7
ARM GAS  /tmp/ccM203Zg.s 			page 66


 3683 053e 25       		.uleb128 0x25
 3684 053f 0C       		.byte	0xc
 3685 0540 D34D6210 		.4byte	0x10624dd3
 3686 0544 F7       		.byte	0xf7
 3687 0545 25       		.uleb128 0x25
 3688 0546 1E       		.byte	0x1e
 3689 0547 08       		.byte	0x8
 3690 0548 20       		.byte	0x20
 3691 0549 F7       		.byte	0xf7
 3692 054a 25       		.uleb128 0x25
 3693 054b 25       		.byte	0x25
 3694 054c F7       		.byte	0xf7
 3695 054d 2C       		.uleb128 0x2c
 3696 054e 36       		.byte	0x36
 3697 054f 25       		.byte	0x25
 3698 0550 F3       		.byte	0xf3
 3699 0551 01       		.uleb128 0x1
 3700 0552 50       		.byte	0x50
 3701 0553 23       		.byte	0x23
 3702 0554 04       		.uleb128 0x4
 3703 0555 06       		.byte	0x6
 3704 0556 09       		.byte	0x9
 3705 0557 E9       		.byte	0xe9
 3706 0558 24       		.byte	0x24
 3707 0559 09       		.byte	0x9
 3708 055a E9       		.byte	0xe9
 3709 055b 25       		.byte	0x25
 3710 055c F7       		.byte	0xf7
 3711 055d 2C       		.uleb128 0x2c
 3712 055e F7       		.byte	0xf7
 3713 055f 25       		.uleb128 0x25
 3714 0560 0C       		.byte	0xc
 3715 0561 D34D6210 		.4byte	0x10624dd3
 3716 0565 F7       		.byte	0xf7
 3717 0566 25       		.uleb128 0x25
 3718 0567 1E       		.byte	0x1e
 3719 0568 08       		.byte	0x8
 3720 0569 20       		.byte	0x20
 3721 056a F7       		.byte	0xf7
 3722 056b 25       		.uleb128 0x25
 3723 056c 25       		.byte	0x25
 3724 056d F7       		.byte	0xf7
 3725 056e 2C       		.uleb128 0x2c
 3726 056f 36       		.byte	0x36
 3727 0570 25       		.byte	0x25
 3728 0571 F7       		.byte	0xf7
 3729 0572 2C       		.uleb128 0x2c
 3730 0573 F7       		.byte	0xf7
 3731 0574 25       		.uleb128 0x25
 3732 0575 F4       		.byte	0xf4
 3733 0576 25       		.uleb128 0x25
 3734 0577 08       		.byte	0x8
 3735 0578 C5B3A291 		.8byte	0x91a2b3c5
 3735      00000000 
 3736 0580 1E       		.byte	0x1e
 3737 0581 08       		.byte	0x8
 3738 0582 20       		.byte	0x20
ARM GAS  /tmp/ccM203Zg.s 			page 67


 3739 0583 F7       		.byte	0xf7
 3740 0584 25       		.uleb128 0x25
 3741 0585 25       		.byte	0x25
 3742 0586 F7       		.byte	0xf7
 3743 0587 2C       		.uleb128 0x2c
 3744 0588 3B       		.byte	0x3b
 3745 0589 25       		.byte	0x25
 3746 058a 0A       		.byte	0xa
 3747 058b 100E     		.2byte	0xe10
 3748 058d 1E       		.byte	0x1e
 3749 058e 1C       		.byte	0x1c
 3750 058f F7       		.byte	0xf7
 3751 0590 2C       		.uleb128 0x2c
 3752 0591 F7       		.byte	0xf7
 3753 0592 25       		.uleb128 0x25
 3754 0593 F4       		.byte	0xf4
 3755 0594 25       		.uleb128 0x25
 3756 0595 08       		.byte	0x8
 3757 0596 89888888 		.8byte	0x88888889
 3757      00000000 
 3758 059e 1E       		.byte	0x1e
 3759 059f 08       		.byte	0x8
 3760 05a0 20       		.byte	0x20
 3761 05a1 F7       		.byte	0xf7
 3762 05a2 25       		.uleb128 0x25
 3763 05a3 25       		.byte	0x25
 3764 05a4 F7       		.byte	0xf7
 3765 05a5 2C       		.uleb128 0x2c
 3766 05a6 35       		.byte	0x35
 3767 05a7 25       		.byte	0x25
 3768 05a8 9F       		.byte	0x9f
 3769 05a9 5E000000 		.4byte	.LVL37
 3770 05ad 90000000 		.4byte	.LFE280
 3771 05b1 0100     		.2byte	0x1
 3772 05b3 53       		.byte	0x53
 3773 05b4 00000000 		.4byte	0
 3774 05b8 00000000 		.4byte	0
 3775              	.LLST17:
 3776 05bc 1E000000 		.4byte	.LVL23
 3777 05c0 42000000 		.4byte	.LVL28
 3778 05c4 0100     		.2byte	0x1
 3779 05c6 54       		.byte	0x54
 3780 05c7 5E000000 		.4byte	.LVL37
 3781 05cb 64000000 		.4byte	.LVL39
 3782 05cf 0100     		.2byte	0x1
 3783 05d1 54       		.byte	0x54
 3784 05d2 64000000 		.4byte	.LVL39
 3785 05d6 90000000 		.4byte	.LFE280
 3786 05da 0200     		.2byte	0x2
 3787 05dc 30       		.byte	0x30
 3788 05dd 9F       		.byte	0x9f
 3789 05de 00000000 		.4byte	0
 3790 05e2 00000000 		.4byte	0
 3791              	.LLST18:
 3792 05e6 3E000000 		.4byte	.LVL27
 3793 05ea 44000000 		.4byte	.LVL29
 3794 05ee 0100     		.2byte	0x1
ARM GAS  /tmp/ccM203Zg.s 			page 68


 3795 05f0 56       		.byte	0x56
 3796 05f1 5E000000 		.4byte	.LVL37
 3797 05f5 74000000 		.4byte	.LVL41
 3798 05f9 0100     		.2byte	0x1
 3799 05fb 56       		.byte	0x56
 3800 05fc 74000000 		.4byte	.LVL41
 3801 0600 90000000 		.4byte	.LFE280
 3802 0604 0200     		.2byte	0x2
 3803 0606 31       		.byte	0x31
 3804 0607 9F       		.byte	0x9f
 3805 0608 00000000 		.4byte	0
 3806 060c 00000000 		.4byte	0
 3807              	.LLST19:
 3808 0610 3E000000 		.4byte	.LVL27
 3809 0614 5C000000 		.4byte	.LVL36
 3810 0618 0100     		.2byte	0x1
 3811 061a 55       		.byte	0x55
 3812 061b 5E000000 		.4byte	.LVL37
 3813 061f 90000000 		.4byte	.LFE280
 3814 0623 0100     		.2byte	0x1
 3815 0625 55       		.byte	0x55
 3816 0626 00000000 		.4byte	0
 3817 062a 00000000 		.4byte	0
 3818              		.section	.debug_aranges,"",%progbits
 3819 0000 5C000000 		.4byte	0x5c
 3820 0004 0200     		.2byte	0x2
 3821 0006 00000000 		.4byte	.Ldebug_info0
 3822 000a 04       		.byte	0x4
 3823 000b 00       		.byte	0
 3824 000c 0000     		.2byte	0
 3825 000e 0000     		.2byte	0
 3826 0010 00000000 		.4byte	.LFB272
 3827 0014 04000000 		.4byte	.LFE272-.LFB272
 3828 0018 00000000 		.4byte	.LFB273
 3829 001c 02000000 		.4byte	.LFE273-.LFB273
 3830 0020 00000000 		.4byte	.LFB274
 3831 0024 04000000 		.4byte	.LFE274-.LFB274
 3832 0028 00000000 		.4byte	.LFB275
 3833 002c 04000000 		.4byte	.LFE275-.LFB275
 3834 0030 00000000 		.4byte	.LFB276
 3835 0034 04000000 		.4byte	.LFE276-.LFB276
 3836 0038 00000000 		.4byte	.LFB277
 3837 003c 04000000 		.4byte	.LFE277-.LFB277
 3838 0040 00000000 		.4byte	.LFB278
 3839 0044 A4000000 		.4byte	.LFE278-.LFB278
 3840 0048 00000000 		.4byte	.LFB279
 3841 004c 70000000 		.4byte	.LFE279-.LFB279
 3842 0050 00000000 		.4byte	.LFB280
 3843 0054 90000000 		.4byte	.LFE280-.LFB280
 3844 0058 00000000 		.4byte	0
 3845 005c 00000000 		.4byte	0
 3846              		.section	.debug_ranges,"",%progbits
 3847              	.Ldebug_ranges0:
 3848 0000 00000000 		.4byte	.LFB272
 3849 0004 04000000 		.4byte	.LFE272
 3850 0008 00000000 		.4byte	.LFB273
 3851 000c 02000000 		.4byte	.LFE273
ARM GAS  /tmp/ccM203Zg.s 			page 69


 3852 0010 00000000 		.4byte	.LFB274
 3853 0014 04000000 		.4byte	.LFE274
 3854 0018 00000000 		.4byte	.LFB275
 3855 001c 04000000 		.4byte	.LFE275
 3856 0020 00000000 		.4byte	.LFB276
 3857 0024 04000000 		.4byte	.LFE276
 3858 0028 00000000 		.4byte	.LFB277
 3859 002c 04000000 		.4byte	.LFE277
 3860 0030 00000000 		.4byte	.LFB278
 3861 0034 A4000000 		.4byte	.LFE278
 3862 0038 00000000 		.4byte	.LFB279
 3863 003c 70000000 		.4byte	.LFE279
 3864 0040 00000000 		.4byte	.LFB280
 3865 0044 90000000 		.4byte	.LFE280
 3866 0048 00000000 		.4byte	0
 3867 004c 00000000 		.4byte	0
 3868              		.section	.debug_line,"",%progbits
 3869              	.Ldebug_line0:
 3870 0000 4A040000 		.section	.debug_str,"MS",%progbits,1
 3870      02004003 
 3870      00000201 
 3870      FB0E0D00 
 3870      01010101 
 3871              	.LASF139:
 3872 0000 746D5F79 		.ascii	"tm_year\000"
 3872      65617200 
 3873              	.LASF50:
 3874 0008 72656164 		.ascii	"ready_list_t\000"
 3874      795F6C69 
 3874      73745F74 
 3874      00
 3875              	.LASF168:
 3876 0015 66617474 		.ascii	"fattime\000"
 3876      696D6500 
 3877              	.LASF3:
 3878 001d 73697A65 		.ascii	"size_t\000"
 3878      5F7400
 3879              	.LASF116:
 3880 0024 7264796D 		.ascii	"rdymsg\000"
 3880      736700
 3881              	.LASF17:
 3882 002b 75696E74 		.ascii	"uint64_t\000"
 3882      36345F74 
 3882      00
 3883              	.LASF4:
 3884 0034 5F5F7569 		.ascii	"__uint8_t\000"
 3884      6E74385F 
 3884      7400
 3885              	.LASF113:
 3886 003e 706F7274 		.ascii	"port_intctx\000"
 3886      5F696E74 
 3886      63747800 
 3887              	.LASF49:
 3888 004a 63685F74 		.ascii	"ch_threads_queue\000"
 3888      68726561 
 3888      64735F71 
 3888      75657565 
ARM GAS  /tmp/ccM203Zg.s 			page 70


 3888      00
 3889              	.LASF69:
 3890 005b 73797374 		.ascii	"system_debug_t\000"
 3890      656D5F64 
 3890      65627567 
 3890      5F7400
 3891              	.LASF88:
 3892 006a 43414C52 		.ascii	"CALR\000"
 3892      00
 3893              	.LASF96:
 3894 006f 424B5033 		.ascii	"BKP3R\000"
 3894      5200
 3895              	.LASF79:
 3896 0075 50524552 		.ascii	"PRER\000"
 3896      00
 3897              	.LASF80:
 3898 007a 57555452 		.ascii	"WUTR\000"
 3898      00
 3899              	.LASF108:
 3900 007f 424B5031 		.ascii	"BKP15R\000"
 3900      355200
 3901              	.LASF0:
 3902 0086 6C6F6E67 		.ascii	"long long unsigned int\000"
 3902      206C6F6E 
 3902      6720756E 
 3902      7369676E 
 3902      65642069 
 3903              	.LASF155:
 3904 009d 72746353 		.ascii	"rtcSetTime\000"
 3904      65745469 
 3904      6D6500
 3905              	.LASF117:
 3906 00a8 65786974 		.ascii	"exitcode\000"
 3906      636F6465 
 3906      00
 3907              	.LASF76:
 3908 00b1 6D61696E 		.ascii	"mainthread\000"
 3908      74687265 
 3908      616400
 3909              	.LASF120:
 3910 00bc 73656E74 		.ascii	"sentmsg\000"
 3910      6D736700 
 3911              	.LASF164:
 3912 00c4 72746343 		.ascii	"rtcConvertDateTimeToStructTm\000"
 3912      6F6E7665 
 3912      72744461 
 3912      74655469 
 3912      6D65546F 
 3913              	.LASF66:
 3914 00e1 76697274 		.ascii	"virtual_timers_list_t\000"
 3914      75616C5F 
 3914      74696D65 
 3914      72735F6C 
 3914      6973745F 
 3915              	.LASF171:
 3916 00f7 49544D5F 		.ascii	"ITM_RxBuffer\000"
 3916      52784275 
ARM GAS  /tmp/ccM203Zg.s 			page 71


 3916      66666572 
 3916      00
 3917              	.LASF146:
 3918 0104 64737466 		.ascii	"dstflag\000"
 3918      6C616700 
 3919              	.LASF109:
 3920 010c 5254435F 		.ascii	"RTC_TypeDef\000"
 3920      54797065 
 3920      44656600 
 3921              	.LASF178:
 3922 0118 72746343 		.ascii	"rtcConvertDateTimeToFAT\000"
 3922      6F6E7665 
 3922      72744461 
 3922      74655469 
 3922      6D65546F 
 3923              	.LASF30:
 3924 0130 705F7072 		.ascii	"p_prio\000"
 3924      696F00
 3925              	.LASF163:
 3926 0137 72746347 		.ascii	"rtcGetAlarm\000"
 3926      6574416C 
 3926      61726D00 
 3927              	.LASF12:
 3928 0143 6C6F6E67 		.ascii	"long long int\000"
 3928      206C6F6E 
 3928      6720696E 
 3928      7400
 3929              	.LASF2:
 3930 0151 7369676E 		.ascii	"signed char\000"
 3930      65642063 
 3930      68617200 
 3931              	.LASF43:
 3932 015d 705F6D70 		.ascii	"p_mpool\000"
 3932      6F6F6C00 
 3933              	.LASF128:
 3934 0165 6D5F7175 		.ascii	"m_queue\000"
 3934      65756500 
 3935              	.LASF179:
 3936 016d 7274635F 		.ascii	"rtc_lld_init\000"
 3936      6C6C645F 
 3936      696E6974 
 3936      00
 3937              	.LASF75:
 3938 017a 76746C69 		.ascii	"vtlist\000"
 3938      737400
 3939              	.LASF87:
 3940 0181 54535353 		.ascii	"TSSSR\000"
 3940      5200
 3941              	.LASF144:
 3942 0187 79656172 		.ascii	"year\000"
 3942      00
 3943              	.LASF119:
 3944 018c 77747472 		.ascii	"wttrp\000"
 3944      7000
 3945              	.LASF73:
 3946 0192 63685F73 		.ascii	"ch_system\000"
 3946      79737465 
ARM GAS  /tmp/ccM203Zg.s 			page 72


 3946      6D00
 3947              	.LASF9:
 3948 019c 6C6F6E67 		.ascii	"long int\000"
 3948      20696E74 
 3948      00
 3949              	.LASF97:
 3950 01a5 424B5034 		.ascii	"BKP4R\000"
 3950      5200
 3951              	.LASF20:
 3952 01ab 74737461 		.ascii	"tstate_t\000"
 3952      74655F74 
 3952      00
 3953              	.LASF160:
 3954 01b4 72746353 		.ascii	"rtcSetAlarm\000"
 3954      6574416C 
 3954      61726D00 
 3955              	.LASF162:
 3956 01c0 616C6172 		.ascii	"alarmspec\000"
 3956      6D737065 
 3956      6300
 3957              	.LASF32:
 3958 01ca 705F6E65 		.ascii	"p_newer\000"
 3958      77657200 
 3959              	.LASF125:
 3960 01d2 735F7175 		.ascii	"s_queue\000"
 3960      65756500 
 3961              	.LASF55:
 3962 01da 725F6E65 		.ascii	"r_newer\000"
 3962      77657200 
 3963              	.LASF110:
 3964 01e2 72656761 		.ascii	"regarm_t\000"
 3964      726D5F74 
 3964      00
 3965              	.LASF62:
 3966 01eb 76745F70 		.ascii	"vt_prev\000"
 3966      72657600 
 3967              	.LASF156:
 3968 01f3 72746370 		.ascii	"rtcp\000"
 3968      00
 3969              	.LASF154:
 3970 01f8 7274634F 		.ascii	"rtcObjectInit\000"
 3970      626A6563 
 3970      74496E69 
 3970      7400
 3971              	.LASF167:
 3972 0206 72746343 		.ascii	"rtcConvertStructTmToDateTime\000"
 3972      6F6E7665 
 3972      72745374 
 3972      72756374 
 3972      546D546F 
 3973              	.LASF132:
 3974 0223 6D757465 		.ascii	"mutex_t\000"
 3974      785F7400 
 3975              	.LASF77:
 3976 022b 69646C65 		.ascii	"idle_thread_wa\000"
 3976      5F746872 
 3976      6561645F 
ARM GAS  /tmp/ccM203Zg.s 			page 73


 3976      776100
 3977              	.LASF25:
 3978 023a 636E745F 		.ascii	"cnt_t\000"
 3978      7400
 3979              	.LASF145:
 3980 0240 6D6F6E74 		.ascii	"month\000"
 3980      6800
 3981              	.LASF86:
 3982 0246 54534452 		.ascii	"TSDR\000"
 3982      00
 3983              	.LASF61:
 3984 024b 76745F6E 		.ascii	"vt_next\000"
 3984      65787400 
 3985              	.LASF98:
 3986 0253 424B5035 		.ascii	"BKP5R\000"
 3986      5200
 3987              	.LASF121:
 3988 0259 77747365 		.ascii	"wtsemp\000"
 3988      6D7000
 3989              	.LASF157:
 3990 0260 74696D65 		.ascii	"timespec\000"
 3990      73706563 
 3990      00
 3991              	.LASF39:
 3992 0269 705F6D73 		.ascii	"p_msgqueue\000"
 3992      67717565 
 3992      756500
 3993              	.LASF172:
 3994 0274 7274635F 		.ascii	"rtc_lld_set_time\000"
 3994      6C6C645F 
 3994      7365745F 
 3994      74696D65 
 3994      00
 3995              	.LASF126:
 3996 0285 735F636E 		.ascii	"s_cnt\000"
 3996      7400
 3997              	.LASF174:
 3998 028b 7274635F 		.ascii	"rtc_lld_set_alarm\000"
 3998      6C6C645F 
 3998      7365745F 
 3998      616C6172 
 3998      6D00
 3999              	.LASF7:
 4000 029d 73686F72 		.ascii	"short unsigned int\000"
 4000      7420756E 
 4000      7369676E 
 4000      65642069 
 4000      6E7400
 4001              	.LASF142:
 4002 02b0 746D5F69 		.ascii	"tm_isdst\000"
 4002      73647374 
 4002      00
 4003              	.LASF46:
 4004 02b9 63685F74 		.ascii	"ch_thread\000"
 4004      68726561 
 4004      6400
 4005              	.LASF148:
ARM GAS  /tmp/ccM203Zg.s 			page 74


 4006 02c3 6D696C6C 		.ascii	"millisecond\000"
 4006      69736563 
 4006      6F6E6400 
 4007              	.LASF173:
 4008 02cf 7274635F 		.ascii	"rtc_lld_get_time\000"
 4008      6C6C645F 
 4008      6765745F 
 4008      74696D65 
 4008      00
 4009              	.LASF23:
 4010 02e0 6D73675F 		.ascii	"msg_t\000"
 4010      7400
 4011              	.LASF72:
 4012 02e6 63685F73 		.ascii	"ch_system_t\000"
 4012      79737465 
 4012      6D5F7400 
 4013              	.LASF103:
 4014 02f2 424B5031 		.ascii	"BKP10R\000"
 4014      305200
 4015              	.LASF19:
 4016 02f9 746D6F64 		.ascii	"tmode_t\000"
 4016      655F7400 
 4017              	.LASF85:
 4018 0301 54535452 		.ascii	"TSTR\000"
 4018      00
 4019              	.LASF51:
 4020 0306 63685F72 		.ascii	"ch_ready_list\000"
 4020      65616479 
 4020      5F6C6973 
 4020      7400
 4021              	.LASF24:
 4022 0314 6576656E 		.ascii	"eventmask_t\000"
 4022      746D6173 
 4022      6B5F7400 
 4023              	.LASF8:
 4024 0320 5F5F696E 		.ascii	"__int32_t\000"
 4024      7433325F 
 4024      7400
 4025              	.LASF111:
 4026 032a 73746B61 		.ascii	"stkalign_t\000"
 4026      6C69676E 
 4026      5F7400
 4027              	.LASF99:
 4028 0335 424B5036 		.ascii	"BKP6R\000"
 4028      5200
 4029              	.LASF170:
 4030 033b 6D6F6E74 		.ascii	"month_len\000"
 4030      685F6C65 
 4030      6E00
 4031              	.LASF45:
 4032 0345 74687265 		.ascii	"threads_list_t\000"
 4032      6164735F 
 4032      6C697374 
 4032      5F7400
 4033              	.LASF151:
 4034 0354 616C726D 		.ascii	"alrmr\000"
 4034      7200
ARM GAS  /tmp/ccM203Zg.s 			page 75


 4035              	.LASF149:
 4036 035a 52544344 		.ascii	"RTCDateTime\000"
 4036      61746554 
 4036      696D6500 
 4037              	.LASF38:
 4038 0366 705F7761 		.ascii	"p_waiting\000"
 4038      6974696E 
 4038      6700
 4039              	.LASF135:
 4040 0370 746D5F6D 		.ascii	"tm_min\000"
 4040      696E00
 4041              	.LASF78:
 4042 0377 73697A65 		.ascii	"sizetype\000"
 4042      74797065 
 4042      00
 4043              	.LASF44:
 4044 0380 74687265 		.ascii	"thread_reference_t\000"
 4044      61645F72 
 4044      65666572 
 4044      656E6365 
 4044      5F7400
 4045              	.LASF67:
 4046 0393 63685F76 		.ascii	"ch_virtual_timers_list\000"
 4046      69727475 
 4046      616C5F74 
 4046      696D6572 
 4046      735F6C69 
 4047              	.LASF141:
 4048 03aa 746D5F79 		.ascii	"tm_yday\000"
 4048      64617900 
 4049              	.LASF150:
 4050 03b2 72746361 		.ascii	"rtcalarm_t\000"
 4050      6C61726D 
 4050      5F7400
 4051              	.LASF177:
 4052 03bd 2F752F63 		.ascii	"/u/cojthack/summerResearch2016/milestone2\000"
 4052      6F6A7468 
 4052      61636B2F 
 4052      73756D6D 
 4052      65725265 
 4053              	.LASF176:
 4054 03e7 2E2E2F43 		.ascii	"../ChibiOS/os/hal/src/rtc.c\000"
 4054      68696269 
 4054      4F532F6F 
 4054      732F6861 
 4054      6C2F7372 
 4055              	.LASF68:
 4056 0403 76745F6C 		.ascii	"vt_lasttime\000"
 4056      61737474 
 4056      696D6500 
 4057              	.LASF33:
 4058 040f 705F6F6C 		.ascii	"p_older\000"
 4058      64657200 
 4059              	.LASF54:
 4060 0417 725F6374 		.ascii	"r_ctx\000"
 4060      7800
 4061              	.LASF115:
ARM GAS  /tmp/ccM203Zg.s 			page 76


 4062 041d 746D5F63 		.ascii	"tm_calibration_t\000"
 4062      616C6962 
 4062      72617469 
 4062      6F6E5F74 
 4062      00
 4063              	.LASF104:
 4064 042e 424B5031 		.ascii	"BKP11R\000"
 4064      315200
 4065              	.LASF138:
 4066 0435 746D5F6D 		.ascii	"tm_mon\000"
 4066      6F6E00
 4067              	.LASF57:
 4068 043c 725F6375 		.ascii	"r_current\000"
 4068      7272656E 
 4068      7400
 4069              	.LASF56:
 4070 0446 725F6F6C 		.ascii	"r_older\000"
 4070      64657200 
 4071              	.LASF169:
 4072 044e 686F7572 		.ascii	"hour\000"
 4072      00
 4073              	.LASF13:
 4074 0453 5F5F7569 		.ascii	"__uint64_t\000"
 4074      6E743634 
 4074      5F7400
 4075              	.LASF82:
 4076 045e 414C524D 		.ascii	"ALRMAR\000"
 4076      415200
 4077              	.LASF180:
 4078 0465 7274635F 		.ascii	"rtc_lld_get_alarm\000"
 4078      6C6C645F 
 4078      6765745F 
 4078      616C6172 
 4078      6D00
 4079              	.LASF100:
 4080 0477 424B5037 		.ascii	"BKP7R\000"
 4080      5200
 4081              	.LASF89:
 4082 047d 54414643 		.ascii	"TAFCR\000"
 4082      5200
 4083              	.LASF21:
 4084 0483 74726566 		.ascii	"trefs_t\000"
 4084      735F7400 
 4085              	.LASF81:
 4086 048b 52455345 		.ascii	"RESERVED0\000"
 4086      52564544 
 4086      3000
 4087              	.LASF166:
 4088 0495 74765F6D 		.ascii	"tv_msec\000"
 4088      73656300 
 4089              	.LASF59:
 4090 049d 76697274 		.ascii	"virtual_timer_t\000"
 4090      75616C5F 
 4090      74696D65 
 4090      725F7400 
 4091              	.LASF29:
 4092 04ad 705F7072 		.ascii	"p_prev\000"
ARM GAS  /tmp/ccM203Zg.s 			page 77


 4092      657600
 4093              	.LASF92:
 4094 04b4 52455345 		.ascii	"RESERVED7\000"
 4094      52564544 
 4094      3700
 4095              	.LASF22:
 4096 04be 74707269 		.ascii	"tprio_t\000"
 4096      6F5F7400 
 4097              	.LASF161:
 4098 04c6 616C6172 		.ascii	"alarm\000"
 4098      6D00
 4099              	.LASF70:
 4100 04cc 63685F73 		.ascii	"ch_system_debug\000"
 4100      79737465 
 4100      6D5F6465 
 4100      62756700 
 4101              	.LASF133:
 4102 04dc 5F426F6F 		.ascii	"_Bool\000"
 4102      6C00
 4103              	.LASF15:
 4104 04e2 696E7433 		.ascii	"int32_t\000"
 4104      325F7400 
 4105              	.LASF5:
 4106 04ea 756E7369 		.ascii	"unsigned char\000"
 4106      676E6564 
 4106      20636861 
 4106      7200
 4107              	.LASF143:
 4108 04f8 52544344 		.ascii	"RTCDriver\000"
 4108      72697665 
 4108      7200
 4109              	.LASF41:
 4110 0502 705F6D74 		.ascii	"p_mtxlist\000"
 4110      786C6973 
 4110      7400
 4111              	.LASF6:
 4112 050c 73686F72 		.ascii	"short int\000"
 4112      7420696E 
 4112      7400
 4113              	.LASF35:
 4114 0516 705F7374 		.ascii	"p_state\000"
 4114      61746500 
 4115              	.LASF53:
 4116 051e 725F7072 		.ascii	"r_prio\000"
 4116      696F00
 4117              	.LASF123:
 4118 0525 65776D61 		.ascii	"ewmask\000"
 4118      736B00
 4119              	.LASF28:
 4120 052c 705F6E65 		.ascii	"p_next\000"
 4120      787400
 4121              	.LASF105:
 4122 0533 424B5031 		.ascii	"BKP12R\000"
 4122      325200
 4123              	.LASF159:
 4124 053a 5F5F6675 		.ascii	"__func__\000"
 4124      6E635F5F 
ARM GAS  /tmp/ccM203Zg.s 			page 78


 4124      00
 4125              	.LASF93:
 4126 0543 424B5030 		.ascii	"BKP0R\000"
 4126      5200
 4127              	.LASF124:
 4128 0549 63685F73 		.ascii	"ch_semaphore\000"
 4128      656D6170 
 4128      686F7265 
 4128      00
 4129              	.LASF83:
 4130 0556 414C524D 		.ascii	"ALRMBR\000"
 4130      425200
 4131              	.LASF40:
 4132 055d 705F6570 		.ascii	"p_epending\000"
 4132      656E6469 
 4132      6E6700
 4133              	.LASF101:
 4134 0568 424B5038 		.ascii	"BKP8R\000"
 4134      5200
 4135              	.LASF134:
 4136 056e 746D5F73 		.ascii	"tm_sec\000"
 4136      656300
 4137              	.LASF122:
 4138 0575 77746D74 		.ascii	"wtmtxp\000"
 4138      787000
 4139              	.LASF52:
 4140 057c 725F7175 		.ascii	"r_queue\000"
 4140      65756500 
 4141              	.LASF63:
 4142 0584 76745F64 		.ascii	"vt_delta\000"
 4142      656C7461 
 4142      00
 4143              	.LASF47:
 4144 058d 63685F74 		.ascii	"ch_threads_list\000"
 4144      68726561 
 4144      64735F6C 
 4144      69737400 
 4145              	.LASF11:
 4146 059d 6C6F6E67 		.ascii	"long unsigned int\000"
 4146      20756E73 
 4146      69676E65 
 4146      6420696E 
 4146      7400
 4147              	.LASF131:
 4148 05af 63686172 		.ascii	"char\000"
 4148      00
 4149              	.LASF1:
 4150 05b4 756E7369 		.ascii	"unsigned int\000"
 4150      676E6564 
 4150      20696E74 
 4150      00
 4151              	.LASF27:
 4152 05c1 74687265 		.ascii	"thread_t\000"
 4152      61645F74 
 4152      00
 4153              	.LASF136:
 4154 05ca 746D5F68 		.ascii	"tm_hour\000"
ARM GAS  /tmp/ccM203Zg.s 			page 79


 4154      6F757200 
 4155              	.LASF175:
 4156 05d2 474E5520 		.ascii	"GNU C 4.8.4 20140526 (release) [ARM/embedded-4_8-br"
 4156      4320342E 
 4156      382E3420 
 4156      32303134 
 4156      30353236 
 4157 0605 616E6368 		.ascii	"anch revision 211358] -mcpu=cortex-m4 -mno-thumb-in"
 4157      20726576 
 4157      6973696F 
 4157      6E203231 
 4157      31333538 
 4158 0638 74657277 		.ascii	"terwork -mthumb -ggdb -O2 -fomit-frame-pointer -fal"
 4158      6F726B20 
 4158      2D6D7468 
 4158      756D6220 
 4158      2D676764 
 4159 066b 69676E2D 		.ascii	"ign-functions=16 -ffunction-sections -fdata-section"
 4159      66756E63 
 4159      74696F6E 
 4159      733D3136 
 4159      202D6666 
 4160 069e 73202D66 		.ascii	"s -fno-common\000"
 4160      6E6F2D63 
 4160      6F6D6D6F 
 4160      6E00
 4161              	.LASF130:
 4162 06ac 6D5F6E65 		.ascii	"m_next\000"
 4162      787400
 4163              	.LASF26:
 4164 06b3 73797374 		.ascii	"systime_t\000"
 4164      696D655F 
 4164      7400
 4165              	.LASF42:
 4166 06bd 705F7265 		.ascii	"p_realprio\000"
 4166      616C7072 
 4166      696F00
 4167              	.LASF58:
 4168 06c8 76746675 		.ascii	"vtfunc_t\000"
 4168      6E635F74 
 4168      00
 4169              	.LASF10:
 4170 06d1 5F5F7569 		.ascii	"__uint32_t\000"
 4170      6E743332 
 4170      5F7400
 4171              	.LASF71:
 4172 06dc 70616E69 		.ascii	"panic_msg\000"
 4172      635F6D73 
 4172      6700
 4173              	.LASF94:
 4174 06e6 424B5031 		.ascii	"BKP1R\000"
 4174      5200
 4175              	.LASF114:
 4176 06ec 6F666673 		.ascii	"offset\000"
 4176      657400
 4177              	.LASF91:
 4178 06f3 414C524D 		.ascii	"ALRMBSSR\000"
ARM GAS  /tmp/ccM203Zg.s 			page 80


 4178      42535352 
 4178      00
 4179              	.LASF106:
 4180 06fc 424B5031 		.ascii	"BKP13R\000"
 4180      335200
 4181              	.LASF112:
 4182 0703 636F6E74 		.ascii	"context\000"
 4182      65787400 
 4183              	.LASF60:
 4184 070b 63685F76 		.ascii	"ch_virtual_timer\000"
 4184      69727475 
 4184      616C5F74 
 4184      696D6572 
 4184      00
 4185              	.LASF137:
 4186 071c 746D5F6D 		.ascii	"tm_mday\000"
 4186      64617900 
 4187              	.LASF18:
 4188 0724 7274636E 		.ascii	"rtcnt_t\000"
 4188      745F7400 
 4189              	.LASF65:
 4190 072c 76745F70 		.ascii	"vt_par\000"
 4190      617200
 4191              	.LASF158:
 4192 0733 72746347 		.ascii	"rtcGetTime\000"
 4192      65745469 
 4192      6D6500
 4193              	.LASF140:
 4194 073e 746D5F77 		.ascii	"tm_wday\000"
 4194      64617900 
 4195              	.LASF102:
 4196 0746 424B5039 		.ascii	"BKP9R\000"
 4196      5200
 4197              	.LASF84:
 4198 074c 53484946 		.ascii	"SHIFTR\000"
 4198      545200
 4199              	.LASF147:
 4200 0753 6461796F 		.ascii	"dayofweek\000"
 4200      66776565 
 4200      6B00
 4201              	.LASF48:
 4202 075d 74687265 		.ascii	"threads_queue_t\000"
 4202      6164735F 
 4202      71756575 
 4202      655F7400 
 4203              	.LASF127:
 4204 076d 63685F6D 		.ascii	"ch_mutex\000"
 4204      75746578 
 4204      00
 4205              	.LASF37:
 4206 0776 705F7265 		.ascii	"p_refs\000"
 4206      667300
 4207              	.LASF152:
 4208 077d 52544341 		.ascii	"RTCAlarm\000"
 4208      6C61726D 
 4208      00
 4209              	.LASF165:
ARM GAS  /tmp/ccM203Zg.s 			page 81


 4210 0786 74696D70 		.ascii	"timp\000"
 4210      00
 4211              	.LASF74:
 4212 078b 726C6973 		.ascii	"rlist\000"
 4212      7400
 4213              	.LASF14:
 4214 0791 75696E74 		.ascii	"uint8_t\000"
 4214      385F7400 
 4215              	.LASF90:
 4216 0799 414C524D 		.ascii	"ALRMASSR\000"
 4216      41535352 
 4216      00
 4217              	.LASF118:
 4218 07a2 77746F62 		.ascii	"wtobjp\000"
 4218      6A7000
 4219              	.LASF34:
 4220 07a9 705F6E61 		.ascii	"p_name\000"
 4220      6D6500
 4221              	.LASF95:
 4222 07b0 424B5032 		.ascii	"BKP2R\000"
 4222      5200
 4223              	.LASF36:
 4224 07b6 705F666C 		.ascii	"p_flags\000"
 4224      61677300 
 4225              	.LASF107:
 4226 07be 424B5031 		.ascii	"BKP14R\000"
 4226      345200
 4227              	.LASF153:
 4228 07c5 72746349 		.ascii	"rtcInit\000"
 4228      6E697400 
 4229              	.LASF129:
 4230 07cd 6D5F6F77 		.ascii	"m_owner\000"
 4230      6E657200 
 4231              	.LASF16:
 4232 07d5 75696E74 		.ascii	"uint32_t\000"
 4232      33325F74 
 4232      00
 4233              	.LASF31:
 4234 07de 705F6374 		.ascii	"p_ctx\000"
 4234      7800
 4235              	.LASF64:
 4236 07e4 76745F66 		.ascii	"vt_func\000"
 4236      756E6300 
 4237              		.ident	"GCC: (GNU Tools for ARM Embedded Processors) 4.8.4 20140526 (release) [ARM/embedded-4_8-br
ARM GAS  /tmp/ccM203Zg.s 			page 82


DEFINED SYMBOLS
                            *ABS*:00000000 rtc.c
     /tmp/ccM203Zg.s:19     .text.rtcInit:00000000 $t
     /tmp/ccM203Zg.s:25     .text.rtcInit:00000000 rtcInit
     /tmp/ccM203Zg.s:40     .text.rtcObjectInit:00000000 $t
     /tmp/ccM203Zg.s:46     .text.rtcObjectInit:00000000 rtcObjectInit
     /tmp/ccM203Zg.s:59     .text.rtcSetTime:00000000 $t
     /tmp/ccM203Zg.s:65     .text.rtcSetTime:00000000 rtcSetTime
     /tmp/ccM203Zg.s:80     .text.rtcGetTime:00000000 $t
     /tmp/ccM203Zg.s:86     .text.rtcGetTime:00000000 rtcGetTime
     /tmp/ccM203Zg.s:101    .text.rtcSetAlarm:00000000 $t
     /tmp/ccM203Zg.s:107    .text.rtcSetAlarm:00000000 rtcSetAlarm
     /tmp/ccM203Zg.s:122    .text.rtcGetAlarm:00000000 $t
     /tmp/ccM203Zg.s:128    .text.rtcGetAlarm:00000000 rtcGetAlarm
     /tmp/ccM203Zg.s:143    .text.rtcConvertDateTimeToStructTm:00000000 $t
     /tmp/ccM203Zg.s:149    .text.rtcConvertDateTimeToStructTm:00000000 rtcConvertDateTimeToStructTm
     /tmp/ccM203Zg.s:259    .text.rtcConvertDateTimeToStructTm:00000098 $d
     /tmp/ccM203Zg.s:266    .text.rtcConvertStructTmToDateTime:00000000 $t
     /tmp/ccM203Zg.s:272    .text.rtcConvertStructTmToDateTime:00000000 rtcConvertStructTmToDateTime
     /tmp/ccM203Zg.s:359    .text.rtcConvertDateTimeToFAT:00000000 $t
     /tmp/ccM203Zg.s:365    .text.rtcConvertDateTimeToFAT:00000000 rtcConvertDateTimeToFAT
     /tmp/ccM203Zg.s:478    .text.rtcConvertDateTimeToFAT:00000080 $d
     /tmp/ccM203Zg.s:486    .rodata.month_len:00000000 $d
     /tmp/ccM203Zg.s:490    .rodata.month_len:00000000 month_len
                     .debug_frame:00000010 $d
     /tmp/ccM203Zg.s:265    .text.rtcConvertDateTimeToStructTm:000000a4 $t

UNDEFINED SYMBOLS
rtc_lld_init
rtc_lld_set_time
rtc_lld_get_time
rtc_lld_set_alarm
rtc_lld_get_alarm
