ARM GAS  /tmp/ccM203Zg.s 			page 1


   1              		.syntax unified
   2              		.cpu cortex-m4
   3              		.fpu softvfp
   4              		.eabi_attribute 20, 1
   5              		.eabi_attribute 21, 1
   6              		.eabi_attribute 23, 3
   7              		.eabi_attribute 24, 1
   8              		.eabi_attribute 25, 1
   9              		.eabi_attribute 26, 1
  10              		.eabi_attribute 30, 2
  11              		.eabi_attribute 34, 1
  12              		.eabi_attribute 18, 4
  13              		.thumb
  14              		.file	"rtc.c"
  15              		.text
  16              	.Ltext0:
  17              		.cfi_sections	.debug_frame
  18              		.section	.text.rtcInit,"ax",%progbits
  19              		.align	2
  20              		.p2align 4,,15
  21              		.global	rtcInit
  22              		.thumb
  23              		.thumb_func
  24              		.type	rtcInit, %function
  25              	rtcInit:
  26              	.LFB272:
  27              		.file 1 "../ChibiOS/os/hal/src/rtc.c"
  28              		.loc 1 67 0
  29              		.cfi_startproc
  30              		@ args = 0, pretend = 0, frame = 0
  31              		@ frame_needed = 0, uses_anonymous_args = 0
  32              		@ link register save eliminated.
  33              		.loc 1 69 0
  34 0000 FFF7FEBF 		b	rtc_lld_init
  35              	.LVL0:
  36              		.cfi_endproc
  37              	.LFE272:
  38              		.size	rtcInit, .-rtcInit
  39 0004 AFF30080 		.section	.text.rtcObjectInit,"ax",%progbits
  39      AFF30080 
  39      AFF30080 
  40              		.align	2
  41              		.p2align 4,,15
  42              		.global	rtcObjectInit
  43              		.thumb
  44              		.thumb_func
  45              		.type	rtcObjectInit, %function
  46              	rtcObjectInit:
  47              	.LFB273:
  48              		.loc 1 81 0
  49              		.cfi_startproc
  50              		@ args = 0, pretend = 0, frame = 0
  51              		@ frame_needed = 0, uses_anonymous_args = 0
  52              		@ link register save eliminated.
  53              	.LVL1:
  54 0000 7047     		bx	lr
  55              		.cfi_endproc
ARM GAS  /tmp/ccM203Zg.s 			page 2


  56              	.LFE273:
  57              		.size	rtcObjectInit, .-rtcObjectInit
  58 0002 00BFAFF3 		.section	.text.rtcSetTime,"ax",%progbits
  58      0080AFF3 
  58      0080AFF3 
  58      0080
  59              		.align	2
  60              		.p2align 4,,15
  61              		.global	rtcSetTime
  62              		.thumb
  63              		.thumb_func
  64              		.type	rtcSetTime, %function
  65              	rtcSetTime:
  66              	.LFB274:
  67              		.loc 1 104 0
  68              		.cfi_startproc
  69              		@ args = 0, pretend = 0, frame = 0
  70              		@ frame_needed = 0, uses_anonymous_args = 0
  71              		@ link register save eliminated.
  72              	.LVL2:
  73              		.loc 1 108 0
  74 0000 FFF7FEBF 		b	rtc_lld_set_time
  75              	.LVL3:
  76              		.cfi_endproc
  77              	.LFE274:
  78              		.size	rtcSetTime, .-rtcSetTime
  79 0004 AFF30080 		.section	.text.rtcGetTime,"ax",%progbits
  79      AFF30080 
  79      AFF30080 
  80              		.align	2
  81              		.p2align 4,,15
  82              		.global	rtcGetTime
  83              		.thumb
  84              		.thumb_func
  85              		.type	rtcGetTime, %function
  86              	rtcGetTime:
  87              	.LFB275:
  88              		.loc 1 125 0
  89              		.cfi_startproc
  90              		@ args = 0, pretend = 0, frame = 0
  91              		@ frame_needed = 0, uses_anonymous_args = 0
  92              		@ link register save eliminated.
  93              	.LVL4:
  94              		.loc 1 129 0
  95 0000 FFF7FEBF 		b	rtc_lld_get_time
  96              	.LVL5:
  97              		.cfi_endproc
  98              	.LFE275:
  99              		.size	rtcGetTime, .-rtcGetTime
 100 0004 AFF30080 		.section	.text.rtcSetAlarm,"ax",%progbits
 100      AFF30080 
 100      AFF30080 
 101              		.align	2
 102              		.p2align 4,,15
 103              		.global	rtcSetAlarm
 104              		.thumb
 105              		.thumb_func
ARM GAS  /tmp/ccM203Zg.s 			page 3


 106              		.type	rtcSetAlarm, %function
 107              	rtcSetAlarm:
 108              	.LFB276:
 109              		.loc 1 150 0
 110              		.cfi_startproc
 111              		@ args = 0, pretend = 0, frame = 0
 112              		@ frame_needed = 0, uses_anonymous_args = 0
 113              		@ link register save eliminated.
 114              	.LVL6:
 115              		.loc 1 154 0
 116 0000 FFF7FEBF 		b	rtc_lld_set_alarm
 117              	.LVL7:
 118              		.cfi_endproc
 119              	.LFE276:
 120              		.size	rtcSetAlarm, .-rtcSetAlarm
 121 0004 AFF30080 		.section	.text.rtcGetAlarm,"ax",%progbits
 121      AFF30080 
 121      AFF30080 
 122              		.align	2
 123              		.p2align 4,,15
 124              		.global	rtcGetAlarm
 125              		.thumb
 126              		.thumb_func
 127              		.type	rtcGetAlarm, %function
 128              	rtcGetAlarm:
 129              	.LFB277:
 130              		.loc 1 176 0
 131              		.cfi_startproc
 132              		@ args = 0, pretend = 0, frame = 0
 133              		@ frame_needed = 0, uses_anonymous_args = 0
 134              		@ link register save eliminated.
 135              	.LVL8:
 136              		.loc 1 182 0
 137 0000 FFF7FEBF 		b	rtc_lld_get_alarm
 138              	.LVL9:
 139              		.cfi_endproc
 140              	.LFE277:
 141              		.size	rtcGetAlarm, .-rtcGetAlarm
 142 0004 AFF30080 		.section	.text.rtcConvertDateTimeToStructTm,"ax",%progbits
 142      AFF30080 
 142      AFF30080 
 143              		.align	2
 144              		.p2align 4,,15
 145              		.global	rtcConvertDateTimeToStructTm
 146              		.thumb
 147              		.thumb_func
 148              		.type	rtcConvertDateTimeToStructTm, %function
 149              	rtcConvertDateTimeToStructTm:
 150              	.LFB278:
 151              		.loc 1 222 0
 152              		.cfi_startproc
 153              		@ args = 0, pretend = 0, frame = 0
 154              		@ frame_needed = 0, uses_anonymous_args = 0
 155              		@ link register save eliminated.
 156              	.LVL10:
 157 0000 2DE9F00F 		push	{r4, r5, r6, r7, r8, r9, r10, fp}
 158              		.cfi_def_cfa_offset 32
ARM GAS  /tmp/ccM203Zg.s 			page 4


 159              		.cfi_offset 4, -32
 160              		.cfi_offset 5, -28
 161              		.cfi_offset 6, -24
 162              		.cfi_offset 7, -20
 163              		.cfi_offset 8, -16
 164              		.cfi_offset 9, -12
 165              		.cfi_offset 10, -8
 166              		.cfi_offset 11, -4
 167              		.loc 1 231 0
 168 0004 4468     		ldr	r4, [r0, #4]
 169 0006 244E     		ldr	r6, .L13
 170              		.loc 1 226 0
 171 0008 90F80190 		ldrb	r9, [r0, #1]	@ zero_extendqisi2
 172              		.loc 1 225 0
 173 000c 90F800C0 		ldrb	ip, [r0]	@ zero_extendqisi2
 174              		.loc 1 227 0
 175 0010 8778     		ldrb	r7, [r0, #2]	@ zero_extendqisi2
 176              		.loc 1 232 0
 177 0012 224D     		ldr	r5, .L13+4
 178              		.loc 1 234 0
 179 0014 DFF888B0 		ldr	fp, .L13+8
 180              		.loc 1 231 0
 181 0018 C4F31A04 		ubfx	r4, r4, #0, #27
 182 001c 86FB0403 		smull	r0, r3, r6, r4
 183              	.LVL11:
 184 0020 9B09     		lsrs	r3, r3, #6
 185              	.LVL12:
 186              		.loc 1 232 0
 187 0022 85FB0305 		smull	r0, r5, r5, r3
 188 0026 1D44     		add	r5, r5, r3
 189              		.loc 1 233 0
 190 0028 4FF46160 		mov	r0, #3600
 191              		.loc 1 232 0
 192 002c ED12     		asrs	r5, r5, #11
 193              		.loc 1 233 0
 194 002e 00FB1533 		mls	r3, r0, r5, r3
 195              	.LVL13:
 196              		.loc 1 234 0
 197 0032 8BFB030B 		smull	r0, fp, fp, r3
 198 0036 9B44     		add	fp, fp, r3
 199 0038 D817     		asrs	r0, r3, #31
 200              		.loc 1 229 0
 201 003a C846     		mov	r8, r9
 202              		.loc 1 234 0
 203 003c C0EB6B10 		rsb	r0, r0, fp, asr #5
 204              		.loc 1 228 0
 205 0040 CA46     		mov	r10, r9
 206              		.loc 1 229 0
 207 0042 4FEA5818 		lsr	r8, r8, #5
 208              		.loc 1 226 0
 209 0046 09F00F09 		and	r9, r9, #15
 210              		.loc 1 235 0
 211 004a C0EB001B 		rsb	fp, r0, r0, lsl #4
 212              		.loc 1 225 0
 213 004e 0CF1500C 		add	ip, ip, #80
 214              		.loc 1 226 0
 215 0052 09F1FF39 		add	r9, r9, #-1
ARM GAS  /tmp/ccM203Zg.s 			page 5


 216              		.loc 1 227 0
 217 0056 07F01F07 		and	r7, r7, #31
 218              		.loc 1 228 0
 219 005a CAF3001A 		ubfx	r10, r10, #4, #1
 220              		.loc 1 229 0
 221 005e 08F1FF38 		add	r8, r8, #-1
 222              		.loc 1 235 0
 223 0062 A3EB8B03 		sub	r3, r3, fp, lsl #2
 224              	.LVL14:
 225              		.loc 1 225 0
 226 0066 C1F814C0 		str	ip, [r1, #20]
 227              		.loc 1 226 0
 228 006a C1F81090 		str	r9, [r1, #16]
 229              		.loc 1 227 0
 230 006e CF60     		str	r7, [r1, #12]
 231              		.loc 1 228 0
 232 0070 C1F820A0 		str	r10, [r1, #32]
 233              		.loc 1 229 0
 234 0074 C1F81880 		str	r8, [r1, #24]
 235              		.loc 1 232 0
 236 0078 8D60     		str	r5, [r1, #8]
 237              		.loc 1 234 0
 238 007a 4860     		str	r0, [r1, #4]
 239              		.loc 1 235 0
 240 007c 0B60     		str	r3, [r1]
 241              		.loc 1 237 0
 242 007e 3AB1     		cbz	r2, .L7
 243              		.loc 1 238 0
 244 0080 A6FB0436 		umull	r3, r6, r6, r4
 245              	.LVL15:
 246 0084 B609     		lsrs	r6, r6, #6
 247 0086 4FF47A73 		mov	r3, #1000
 248 008a 03FB1644 		mls	r4, r3, r6, r4
 249              	.LVL16:
 250 008e 1460     		str	r4, [r2]
 251              	.L7:
 252              		.loc 1 240 0
 253 0090 BDE8F00F 		pop	{r4, r5, r6, r7, r8, r9, r10, fp}
 254              	.LVL17:
 255 0094 7047     		bx	lr
 256              	.L14:
 257 0096 00BF     		.align	2
 258              	.L13:
 259 0098 D34D6210 		.word	274877907
 260 009c C5B3A291 		.word	-1851608123
 261 00a0 89888888 		.word	-2004318071
 262              		.cfi_endproc
 263              	.LFE278:
 264              		.size	rtcConvertDateTimeToStructTm, .-rtcConvertDateTimeToStructTm
 265 00a4 AFF30080 		.section	.text.rtcConvertStructTmToDateTime,"ax",%progbits
 265      AFF30080 
 265      AFF30080 
 266              		.align	2
 267              		.p2align 4,,15
 268              		.global	rtcConvertStructTmToDateTime
 269              		.thumb
 270              		.thumb_func
ARM GAS  /tmp/ccM203Zg.s 			page 6


 271              		.type	rtcConvertStructTmToDateTime, %function
 272              	rtcConvertStructTmToDateTime:
 273              	.LFB279:
 274              		.loc 1 253 0
 275              		.cfi_startproc
 276              		@ args = 0, pretend = 0, frame = 0
 277              		@ frame_needed = 0, uses_anonymous_args = 0
 278              		@ link register save eliminated.
 279              	.LVL18:
 280 0000 2DE9F001 		push	{r4, r5, r6, r7, r8}
 281              		.cfi_def_cfa_offset 20
 282              		.cfi_offset 4, -20
 283              		.cfi_offset 5, -16
 284              		.cfi_offset 6, -12
 285              		.cfi_offset 7, -8
 286              		.cfi_offset 8, -4
 287              		.loc 1 257 0
 288 0004 0669     		ldr	r6, [r0, #16]
 289              		.loc 1 258 0
 290 0006 9478     		ldrb	r4, [r2, #2]	@ zero_extendqisi2
 291              		.loc 1 260 0
 292 0008 056A     		ldr	r5, [r0, #32]
 293              		.loc 1 259 0
 294 000a 8769     		ldr	r7, [r0, #24]
 295              		.loc 1 257 0
 296 000c 5378     		ldrb	r3, [r2, #1]	@ zero_extendqisi2
 297 000e 06F10108 		add	r8, r6, #1
 298              		.loc 1 256 0
 299 0012 4669     		ldr	r6, [r0, #20]
 300 0014 A6F1500C 		sub	ip, r6, #80
 301              		.loc 1 258 0
 302 0018 C668     		ldr	r6, [r0, #12]
 303              		.loc 1 256 0
 304 001a 82F800C0 		strb	ip, [r2]
 305              		.loc 1 258 0
 306 001e 66F30404 		bfi	r4, r6, #0, #5
 307              		.loc 1 257 0
 308 0022 68F30303 		bfi	r3, r8, #0, #4
 309              		.loc 1 259 0
 310 0026 0137     		adds	r7, r7, #1
 311              		.loc 1 258 0
 312 0028 9470     		strb	r4, [r2, #2]
 313              		.loc 1 260 0
 314 002a 6C1C     		adds	r4, r5, #1
 315              		.loc 1 269 0
 316 002c 51C8     		ldmia	r0, {r0, r4, r6}
 317              	.LVL19:
 318              		.loc 1 259 0
 319 002e 67F34713 		bfi	r3, r7, #5, #3
 320 0032 5370     		strb	r3, [r2, #1]
 321              		.loc 1 264 0
 322 0034 18BF     		it	ne
 323 0036 5378     		ldrbne	r3, [r2, #1]	@ zero_extendqisi2
 324              		.loc 1 269 0
 325 0038 C4EB0414 		rsb	r4, r4, r4, lsl #4
 326              		.loc 1 261 0
 327 003c 0CBF     		ite	eq
ARM GAS  /tmp/ccM203Zg.s 			page 7


 328 003e DBB2     		uxtbeq	r3, r3
 329              		.loc 1 264 0
 330 0040 65F30413 		bfine	r3, r5, #4, #1
 331              		.loc 1 269 0
 332 0044 4FEA8405 		lsl	r5, r4, #2
 333              		.loc 1 268 0
 334 0048 4FF46164 		mov	r4, #3600
 335              		.loc 1 261 0
 336 004c 08BF     		it	eq
 337 004e 6FF30413 		bfceq	r3, #4, #1
 338              		.loc 1 268 0
 339 0052 04FB0654 		mla	r4, r4, r6, r5
 340              		.loc 1 269 0
 341 0056 0444     		add	r4, r4, r0
 342              		.loc 1 264 0
 343 0058 5370     		strb	r3, [r2, #1]
 344              		.loc 1 270 0
 345 005a 4FF47A70 		mov	r0, #1000
 346              		.loc 1 268 0
 347 005e 5368     		ldr	r3, [r2, #4]
 348 0060 00FB0411 		mla	r1, r0, r4, r1
 349              	.LVL20:
 350 0064 61F31A03 		bfi	r3, r1, #0, #27
 351 0068 5360     		str	r3, [r2, #4]
 352              		.loc 1 272 0
 353 006a BDE8F001 		pop	{r4, r5, r6, r7, r8}
 354 006e 7047     		bx	lr
 355              		.cfi_endproc
 356              	.LFE279:
 357              		.size	rtcConvertStructTmToDateTime, .-rtcConvertStructTmToDateTime
 358              		.section	.text.rtcConvertDateTimeToFAT,"ax",%progbits
 359              		.align	2
 360              		.p2align 4,,15
 361              		.global	rtcConvertDateTimeToFAT
 362              		.thumb
 363              		.thumb_func
 364              		.type	rtcConvertDateTimeToFAT, %function
 365              	rtcConvertDateTimeToFAT:
 366              	.LFB280:
 367              		.loc 1 284 0
 368              		.cfi_startproc
 369              		@ args = 0, pretend = 0, frame = 0
 370              		@ frame_needed = 0, uses_anonymous_args = 0
 371              		@ link register save eliminated.
 372              	.LVL21:
 373 0000 F0B4     		push	{r4, r5, r6, r7}
 374              		.cfi_def_cfa_offset 16
 375              		.cfi_offset 4, -16
 376              		.cfi_offset 5, -12
 377              		.cfi_offset 6, -8
 378              		.cfi_offset 7, -4
 379              		.loc 1 288 0
 380 0002 4568     		ldr	r5, [r0, #4]
 381 0004 1E4F     		ldr	r7, .L24
 382              		.loc 1 289 0
 383 0006 1F4C     		ldr	r4, .L24+4
 384              		.loc 1 291 0
ARM GAS  /tmp/ccM203Zg.s 			page 8


 385 0008 1F4B     		ldr	r3, .L24+8
 386              		.loc 1 294 0
 387 000a 4278     		ldrb	r2, [r0, #1]	@ zero_extendqisi2
 388              		.loc 1 293 0
 389 000c 8678     		ldrb	r6, [r0, #2]	@ zero_extendqisi2
 390              		.loc 1 288 0
 391 000e C5F31A01 		ubfx	r1, r5, #0, #27
 392 0012 A7FB0151 		umull	r5, r1, r7, r1
 393 0016 8909     		lsrs	r1, r1, #6
 394              	.LVL22:
 395              		.loc 1 289 0
 396 0018 A4FB0154 		umull	r5, r4, r4, r1
 397 001c E40A     		lsrs	r4, r4, #11
 398              	.LVL23:
 399              		.loc 1 290 0
 400 001e 4FF46165 		mov	r5, #3600
 401 0022 05FB1411 		mls	r1, r5, r4, r1
 402              	.LVL24:
 403              		.loc 1 291 0
 404 0026 A3FB0153 		umull	r5, r3, r3, r1
 405 002a 5B09     		lsrs	r3, r3, #5
 406              	.LVL25:
 407              		.loc 1 292 0
 408 002c C3EB0315 		rsb	r5, r3, r3, lsl #4
 409 0030 A1EB8501 		sub	r1, r1, r5, lsl #2
 410              	.LVL26:
 411              		.loc 1 294 0
 412 0034 02F00F05 		and	r5, r2, #15
 413              		.loc 1 297 0
 414 0038 D206     		lsls	r2, r2, #27
 415              		.loc 1 293 0
 416 003a 06F01F06 		and	r6, r6, #31
 417              	.LVL27:
 418              		.loc 1 297 0
 419 003e 0ED4     		bmi	.L19
 420              	.L23:
 421 0040 E402     		lsls	r4, r4, #11
 422              	.LVL28:
 423 0042 3604     		lsls	r6, r6, #16
 424              	.LVL29:
 425              	.L20:
 426              		.loc 1 314 0
 427 0044 0278     		ldrb	r2, [r0]	@ zero_extendqisi2
 428              		.loc 1 310 0
 429 0046 5B01     		lsls	r3, r3, #5
 430              	.LVL30:
 431 0048 43EA5103 		orr	r3, r3, r1, lsr #1
 432              	.LVL31:
 433              		.loc 1 311 0
 434 004c 43EA4263 		orr	r3, r3, r2, lsl #25
 435              	.LVL32:
 436              		.loc 1 312 0
 437 0050 1C43     		orrs	r4, r4, r3
 438              	.LVL33:
 439              		.loc 1 313 0
 440 0052 44EA0600 		orr	r0, r4, r6
 441              	.LVL34:
ARM GAS  /tmp/ccM203Zg.s 			page 9


 442              		.loc 1 317 0
 443 0056 40EA4550 		orr	r0, r0, r5, lsl #21
 444              	.LVL35:
 445 005a F0BC     		pop	{r4, r5, r6, r7}
 446              	.LVL36:
 447 005c 7047     		bx	lr
 448              	.LVL37:
 449              	.L19:
 450              		.loc 1 298 0
 451 005e 0134     		adds	r4, r4, #1
 452              	.LVL38:
 453              		.loc 1 299 0
 454 0060 182C     		cmp	r4, #24
 455 0062 EDD1     		bne	.L23
 456              	.LVL39:
 457              		.loc 1 302 0
 458 0064 094A     		ldr	r2, .L24+12
 459 0066 2A44     		add	r2, r2, r5
 460              		.loc 1 301 0
 461 0068 0136     		adds	r6, r6, #1
 462              	.LVL40:
 463              		.loc 1 302 0
 464 006a 12F8012C 		ldrb	r2, [r2, #-1]	@ zero_extendqisi2
 465 006e 9642     		cmp	r6, r2
 466 0070 92BF     		itee	ls
 467 0072 3604     		lslls	r6, r6, #16
 468              	.LVL41:
 469              		.loc 1 304 0
 470 0074 0135     		addhi	r5, r5, #1
 471              	.LVL42:
 472 0076 4FF48036 		movhi	r6, #65536
 473 007a 0024     		movs	r4, #0
 474 007c E2E7     		b	.L20
 475              	.L25:
 476 007e 00BF     		.align	2
 477              	.L24:
 478 0080 D34D6210 		.word	274877907
 479 0084 C5B3A291 		.word	-1851608123
 480 0088 89888888 		.word	-2004318071
 481 008c 00000000 		.word	.LANCHOR0
 482              		.cfi_endproc
 483              	.LFE280:
 484              		.size	rtcConvertDateTimeToFAT, .-rtcConvertDateTimeToFAT
 485              		.section	.rodata.month_len,"a",%progbits
 486              		.align	2
 487              		.set	.LANCHOR0,. + 0
 488              		.type	month_len, %object
 489              		.size	month_len, 12
 490              	month_len:
 491 0000 1F       		.byte	31
 492 0001 1E       		.byte	30
 493 0002 1F       		.byte	31
 494 0003 1E       		.byte	30
 495 0004 1F       		.byte	31
 496 0005 1E       		.byte	30
 497 0006 1F       		.byte	31
 498 0007 1F       		.byte	31
ARM GAS  /tmp/ccM203Zg.s 			page 10


 499 0008 1E       		.byte	30
 500 0009 1F       		.byte	31
 501 000a 1E       		.byte	30
 502 000b 1F       		.byte	31
 503              		.text
 504              	.Letext0:
 505              		.file 2 "/nfs/nfs5/home/research/hardware/arm2/gcc-arm-embedded/gcc-arm-none-eabi-4_8-2014q2/lib/g
 506              		.file 3 "/nfs/nfs5/home/research/hardware/arm2/gcc-arm-embedded/gcc-arm-none-eabi-4_8-2014q2/arm-n
 507              		.file 4 "/nfs/nfs5/home/research/hardware/arm2/gcc-arm-embedded/gcc-arm-none-eabi-4_8-2014q2/arm-n
 508              		.file 5 "../ChibiOS/os/rt/ports/ARMCMx/compilers/GCC/chtypes.h"
 509              		.file 6 "../ChibiOS/os/rt/include/chsystypes.h"
 510              		.file 7 "../ChibiOS/os/rt/include/chschd.h"
 511              		.file 8 "../ChibiOS/os/ext/CMSIS/ST/STM32F3xx/stm32f303xc.h"
 512              		.file 9 "../ChibiOS/os/rt/ports/ARMCMx/chcore.h"
 513              		.file 10 "../ChibiOS/os/rt/ports/ARMCMx/chcore_v7m.h"
 514              		.file 11 "../ChibiOS/os/rt/include/chtm.h"
 515              		.file 12 "../ChibiOS/os/rt/include/chsem.h"
 516              		.file 13 "../ChibiOS/os/rt/include/chmtx.h"
 517              		.file 14 "/nfs/nfs5/home/research/hardware/arm2/gcc-arm-embedded/gcc-arm-none-eabi-4_8-2014q2/arm-
 518              		.file 15 "../ChibiOS/os/hal/include/rtc.h"
 519              		.file 16 "../ChibiOS/os/hal/ports/STM32/LLD/RTCv2/rtc_lld.h"
 520              		.file 17 "../ChibiOS/os/ext/CMSIS/include/core_cm4.h"