ARM GAS  /tmp/ccoY6B6t.s 			page 1


   1              		.syntax unified
   2              		.cpu cortex-m4
   3              		.fpu softvfp
   4              		.eabi_attribute 20, 1
   5              		.eabi_attribute 21, 1
   6              		.eabi_attribute 23, 3
   7              		.eabi_attribute 24, 1
   8              		.eabi_attribute 25, 1
   9              		.eabi_attribute 26, 1
  10              		.eabi_attribute 30, 2
  11              		.eabi_attribute 34, 1
  12              		.eabi_attribute 18, 4
  13              		.thumb
  14              		.file	"rtc_lld.c"
  15              		.text
  16              	.Ltext0:
  17              		.cfi_sections	.debug_frame
  18              		.section	.text.rtc_lld_init,"ax",%progbits
  19              		.align	2
  20              		.p2align 4,,15
  21              		.global	rtc_lld_init
  22              		.thumb
  23              		.thumb_func
  24              		.type	rtc_lld_init, %function
  25              	rtc_lld_init:
  26              	.LFB278:
  27              		.file 1 "../ChibiOS/os/hal/ports/STM32/LLD/RTCv2/rtc_lld.c"
  28              		.loc 1 294 0
  29              		.cfi_startproc
  30              		@ args = 0, pretend = 0, frame = 0
  31              		@ frame_needed = 0, uses_anonymous_args = 0
  32 0000 10B5     		push	{r4, lr}
  33              		.cfi_def_cfa_offset 8
  34              		.cfi_offset 4, -8
  35              		.cfi_offset 14, -4
  36              		.loc 1 297 0
  37 0002 134C     		ldr	r4, .L7
  38 0004 2046     		mov	r0, r4
  39 0006 FFF7FEFF 		bl	rtcObjectInit
  40              	.LVL0:
  41              		.loc 1 300 0
  42 000a 124B     		ldr	r3, .L7+4
  43 000c 2360     		str	r3, [r4]
  44              		.loc 1 304 0
  45 000e 5322     		movs	r2, #83
  46              		.loc 1 303 0
  47 0010 CA21     		movs	r1, #202
  48 0012 5962     		str	r1, [r3, #36]
  49              		.loc 1 304 0
  50 0014 5A62     		str	r2, [r3, #36]
  51              		.loc 1 308 0
  52 0016 DA68     		ldr	r2, [r3, #12]
  53 0018 12F0100F 		tst	r2, #16
  54              	.LBB30:
  55              	.LBB31:
  56              		.loc 1 77 0
  57 001c DA68     		ldr	r2, [r3, #12]
ARM GAS  /tmp/ccoY6B6t.s 			page 2


  58              	.LBE31:
  59              	.LBE30:
  60              		.loc 1 308 0
  61 001e 13D1     		bne	.L2
  62              	.LBB33:
  63              	.LBB32:
  64              		.loc 1 77 0
  65 0020 42F08002 		orr	r2, r2, #128
  66 0024 DA60     		str	r2, [r3, #12]
  67              		.loc 1 78 0
  68 0026 1946     		mov	r1, r3
  69              	.L4:
  70 0028 CB68     		ldr	r3, [r1, #12]
  71 002a 0A4A     		ldr	r2, .L7+4
  72 002c 5B06     		lsls	r3, r3, #25
  73 002e FBD5     		bpl	.L4
  74              	.LBE32:
  75              	.LBE33:
  76              		.loc 1 314 0
  77 0030 094B     		ldr	r3, .L7+8
  78              		.loc 1 312 0
  79 0032 0020     		movs	r0, #0
  80              		.loc 1 313 0
  81 0034 8021     		movs	r1, #128
  82              		.loc 1 312 0
  83 0036 9060     		str	r0, [r2, #8]
  84              		.loc 1 313 0
  85 0038 D160     		str	r1, [r2, #12]
  86              		.loc 1 314 0
  87 003a 1361     		str	r3, [r2, #16]
  88              		.loc 1 315 0
  89 003c 1361     		str	r3, [r2, #16]
  90              	.LBB34:
  91              	.LBB35:
  92              		.loc 1 89 0
  93 003e D368     		ldr	r3, [r2, #12]
  94 0040 23F08003 		bic	r3, r3, #128
  95 0044 D360     		str	r3, [r2, #12]
  96 0046 10BD     		pop	{r4, pc}
  97              	.L2:
  98              	.LBE35:
  99              	.LBE34:
 100              		.loc 1 320 0
 101 0048 22F02002 		bic	r2, r2, #32
 102 004c DA60     		str	r2, [r3, #12]
 103 004e 10BD     		pop	{r4, pc}
 104              	.L8:
 105              		.align	2
 106              	.L7:
 107 0050 00000000 		.word	.LANCHOR0
 108 0054 00280040 		.word	1073752064
 109 0058 FF031F00 		.word	2032639
 110              		.cfi_endproc
 111              	.LFE278:
 112              		.size	rtc_lld_init, .-rtc_lld_init
 113 005c AFF30080 		.section	.text.rtc_lld_set_time,"ax",%progbits
 114              		.align	2
ARM GAS  /tmp/ccoY6B6t.s 			page 3


 115              		.p2align 4,,15
 116              		.global	rtc_lld_set_time
 117              		.thumb
 118              		.thumb_func
 119              		.type	rtc_lld_set_time, %function
 120              	rtc_lld_set_time:
 121              	.LFB279:
 122              		.loc 1 334 0
 123              		.cfi_startproc
 124              		@ args = 0, pretend = 0, frame = 8
 125              		@ frame_needed = 0, uses_anonymous_args = 0
 126              	.LVL1:
 127 0000 2DE9F04F 		push	{r4, r5, r6, r7, r8, r9, r10, fp, lr}
 128              		.cfi_def_cfa_offset 36
 129              		.cfi_offset 4, -36
 130              		.cfi_offset 5, -32
 131              		.cfi_offset 6, -28
 132              		.cfi_offset 7, -24
 133              		.cfi_offset 8, -20
 134              		.cfi_offset 9, -16
 135              		.cfi_offset 10, -12
 136              		.cfi_offset 11, -8
 137              		.cfi_offset 14, -4
 138              	.LBB48:
 139              	.LBB49:
 140              		.loc 1 143 0
 141 0004 4D68     		ldr	r5, [r1, #4]
 142 0006 454C     		ldr	r4, .L12
 143              	.LBE49:
 144              	.LBE48:
 145              	.LBB70:
 146              	.LBB71:
 147              		.loc 1 183 0
 148 0008 4A78     		ldrb	r2, [r1, #1]	@ zero_extendqisi2
 149              	.LBE71:
 150              	.LBE70:
 151              	.LBB92:
 152              	.LBB50:
 153              		.loc 1 147 0
 154 000a 454B     		ldr	r3, .L12+4
 155              	.LBE50:
 156              	.LBE92:
 157              	.LBB93:
 158              	.LBB72:
 159              		.loc 1 177 0
 160 000c 91F80080 		ldrb	r8, [r1]	@ zero_extendqisi2
 161              		.loc 1 189 0
 162 0010 91F802C0 		ldrb	ip, [r1, #2]	@ zero_extendqisi2
 163              	.LBE72:
 164              	.LBE93:
 165              		.loc 1 334 0
 166 0014 83B0     		sub	sp, sp, #12
 167              		.cfi_def_cfa_offset 48
 168              	.LBB94:
 169              	.LBB51:
 170              		.loc 1 143 0
 171 0016 C5F31A09 		ubfx	r9, r5, #0, #27
ARM GAS  /tmp/ccoY6B6t.s 			page 4


 172              	.LBE51:
 173              	.LBE94:
 174              	.LBB95:
 175              	.LBB73:
 176              		.loc 1 183 0
 177 001a 0192     		str	r2, [sp, #4]
 178              	.LBE73:
 179              	.LBE95:
 180              	.LBB96:
 181              	.LBB52:
 182              		.loc 1 143 0
 183 001c 84FB0969 		smull	r6, r9, r4, r9
 184              	.LBE52:
 185              	.LBE96:
 186              	.LBB97:
 187              	.LBB74:
 188              		.loc 1 183 0
 189 0020 0199     		ldr	r1, [sp, #4]
 190              	.LVL2:
 191              	.LBE74:
 192              	.LBE97:
 193              	.LBB98:
 194              	.LBB53:
 195              		.loc 1 148 0
 196 0022 404A     		ldr	r2, .L12+8
 197              		.loc 1 143 0
 198 0024 4FEA9919 		lsr	r9, r9, #6
 199              	.LVL3:
 200              		.loc 1 147 0
 201 0028 A3FB09B6 		umull	fp, r6, r3, r9
 202              	.LBE53:
 203              	.LBE98:
 204              	.LBB99:
 205              	.LBB75:
 206              		.loc 1 183 0
 207 002c 01F00F07 		and	r7, r1, #15
 208              	.LBE75:
 209              	.LBE99:
 210              	.LBB100:
 211              	.LBB54:
 212              		.loc 1 147 0
 213 0030 F608     		lsrs	r6, r6, #3
 214              	.LVL4:
 215              		.loc 1 148 0
 216 0032 A2FB06B5 		umull	fp, r5, r2, r6
 217              	.LBE54:
 218              	.LBE100:
 219              	.LBB101:
 220              	.LBB76:
 221              		.loc 1 184 0
 222 0036 A3FB071E 		umull	r1, lr, r3, r7
 223              	.LBE76:
 224              	.LBE101:
 225              	.LBB102:
 226              	.LBB55:
 227              		.loc 1 148 0
 228 003a AD08     		lsrs	r5, r5, #2
ARM GAS  /tmp/ccoY6B6t.s 			page 5


 229              	.LBE55:
 230              	.LBE102:
 231              	.LBB103:
 232              	.LBB77:
 233              		.loc 1 184 0
 234 003c 4FEADE0E 		lsr	lr, lr, #3
 235              	.LBE77:
 236              	.LBE103:
 237              	.LBB104:
 238              	.LBB56:
 239              		.loc 1 152 0
 240 0040 A3FB05B4 		umull	fp, r4, r3, r5
 241              	.LBE56:
 242              	.LBE104:
 243              	.LBB105:
 244              	.LBB78:
 245              		.loc 1 184 0
 246 0044 4FEA8E0A 		lsl	r10, lr, #2
 247              	.LBE78:
 248              	.LBE105:
 249              	.LBB106:
 250              	.LBB57:
 251              		.loc 1 152 0
 252 0048 E408     		lsrs	r4, r4, #3
 253              	.LBE57:
 254              	.LBE106:
 255              	.LBB107:
 256              	.LBB79:
 257              		.loc 1 189 0
 258 004a 0CF01F0C 		and	ip, ip, #31
 259              		.loc 1 184 0
 260 004e F244     		add	r10, r10, lr
 261              		.loc 1 178 0
 262 0050 A3FB08B1 		umull	fp, r1, r3, r8
 263              	.LBE79:
 264              	.LBE107:
 265              	.LBB108:
 266              	.LBB58:
 267              		.loc 1 154 0
 268 0054 A2FB04B2 		umull	fp, r2, r2, r4
 269              	.LBE58:
 270              	.LBE108:
 271              	.LBB109:
 272              	.LBB80:
 273              		.loc 1 184 0
 274 0058 A7EB4A0A 		sub	r10, r7, r10, lsl #1
 275              		.loc 1 190 0
 276 005c A3FB0CB7 		umull	fp, r7, r3, ip
 277              	.LBE80:
 278              	.LBE109:
 279              	.LBB110:
 280              	.LBB59:
 281              		.loc 1 146 0
 282 0060 06EB860B 		add	fp, r6, r6, lsl #2
 283              	.LBE59:
 284              	.LBE110:
 285              	.LBB111:
ARM GAS  /tmp/ccoY6B6t.s 			page 6


 286              	.LBB81:
 287              		.loc 1 178 0
 288 0064 C908     		lsrs	r1, r1, #3
 289              	.LBE81:
 290              	.LBE111:
 291              	.LBB112:
 292              	.LBB60:
 293              		.loc 1 146 0
 294 0066 A9EB4B09 		sub	r9, r9, fp, lsl #1
 295              	.LVL5:
 296              		.loc 1 148 0
 297 006a 05EB450B 		add	fp, r5, r5, lsl #1
 298 006e A6EB4B06 		sub	r6, r6, fp, lsl #1
 299              	.LVL6:
 300              	.LBE60:
 301              	.LBE112:
 302              	.LBB113:
 303              	.LBB82:
 304              		.loc 1 178 0
 305 0072 01EB810B 		add	fp, r1, r1, lsl #2
 306 0076 A8EB4B08 		sub	r8, r8, fp, lsl #1
 307              		.loc 1 190 0
 308 007a FF08     		lsrs	r7, r7, #3
 309              		.loc 1 184 0
 310 007c 4FEA0A2A 		lsl	r10, r10, #8
 311              		.loc 1 180 0
 312 0080 4AEA084A 		orr	r10, r10, r8, lsl #16
 313              	.LBE82:
 314              	.LBE113:
 315              	.LBB114:
 316              	.LBB61:
 317              		.loc 1 148 0
 318 0084 49EA0619 		orr	r9, r9, r6, lsl #4
 319              	.LBE61:
 320              	.LBE114:
 321              	.LBB115:
 322              	.LBB83:
 323              		.loc 1 190 0
 324 0088 07EB8708 		add	r8, r7, r7, lsl #2
 325              	.LVL7:
 326              	.LBE83:
 327              	.LBE115:
 328              	.LBB116:
 329              	.LBB62:
 330              		.loc 1 152 0
 331 008c 04EB8406 		add	r6, r4, r4, lsl #2
 332              		.loc 1 154 0
 333 0090 9208     		lsrs	r2, r2, #2
 334              		.loc 1 152 0
 335 0092 A5EB4605 		sub	r5, r5, r6, lsl #1
 336              	.LVL8:
 337              	.LBE62:
 338              	.LBE116:
 339              	.LBB117:
 340              	.LBB84:
 341              		.loc 1 190 0
 342 0096 ACEB480C 		sub	ip, ip, r8, lsl #1
ARM GAS  /tmp/ccoY6B6t.s 			page 7


 343              		.loc 1 195 0
 344 009a 019E     		ldr	r6, [sp, #4]
 345              		.loc 1 180 0
 346 009c A3FB01B8 		umull	fp, r8, r3, r1
 347 00a0 4FEAD808 		lsr	r8, r8, #3
 348              	.LBE84:
 349              	.LBE117:
 350              	.LBB118:
 351              	.LBB63:
 352              		.loc 1 158 0
 353 00a4 A3FB02B3 		umull	fp, r3, r3, r2
 354              	.LVL9:
 355 00a8 DB08     		lsrs	r3, r3, #3
 356              	.LBE63:
 357              	.LBE118:
 358              	.LBB119:
 359              	.LBB85:
 360              		.loc 1 195 0
 361 00aa 4FEA561B 		lsr	fp, r6, #5
 362              		.loc 1 180 0
 363 00ae 08EB8808 		add	r8, r8, r8, lsl #2
 364              	.LBE85:
 365              	.LBE119:
 366              	.LBB120:
 367              	.LBB64:
 368              		.loc 1 154 0
 369 00b2 02EB4206 		add	r6, r2, r2, lsl #1
 370              	.LBE64:
 371              	.LBE120:
 372              	.LBB121:
 373              	.LBB86:
 374              		.loc 1 184 0
 375 00b6 4AEA0C0C 		orr	ip, r10, ip
 376              	.LBE86:
 377              	.LBE121:
 378              	.LBB122:
 379              	.LBB65:
 380              		.loc 1 152 0
 381 00ba 49EA0529 		orr	r9, r9, r5, lsl #8
 382              	.LVL10:
 383              		.loc 1 154 0
 384 00be A4EB4604 		sub	r4, r4, r6, lsl #1
 385              	.LVL11:
 386              	.LBE65:
 387              	.LBE122:
 388              	.LBB123:
 389              	.LBB87:
 390              		.loc 1 186 0
 391 00c2 4CEA4B3C 		orr	ip, ip, fp, lsl #13
 392              	.LBE87:
 393              	.LBE123:
 394              	.LBB124:
 395              	.LBB66:
 396              		.loc 1 158 0
 397 00c6 03EB8306 		add	r6, r3, r3, lsl #2
 398              	.LBE66:
 399              	.LBE124:
ARM GAS  /tmp/ccoY6B6t.s 			page 8


 400              	.LBB125:
 401              	.LBB88:
 402              		.loc 1 180 0
 403 00ca A1EB4801 		sub	r1, r1, r8, lsl #1
 404              	.LBE88:
 405              	.LBE125:
 406              	.LBB126:
 407              	.LBB67:
 408              		.loc 1 158 0
 409 00ce A2EB4605 		sub	r5, r2, r6, lsl #1
 410              		.loc 1 154 0
 411 00d2 49EA0434 		orr	r4, r9, r4, lsl #12
 412              	.LVL12:
 413              	.LBE67:
 414              	.LBE126:
 415              	.LBB127:
 416              	.LBB89:
 417              		.loc 1 190 0
 418 00d6 4CEA0151 		orr	r1, ip, r1, lsl #20
 419              	.LBE89:
 420              	.LBE127:
 421              	.LBB128:
 422              	.LBB68:
 423              		.loc 1 158 0
 424 00da 44EA0545 		orr	r5, r4, r5, lsl #16
 425              	.LBE68:
 426              	.LBE128:
 427              	.LBB129:
 428              	.LBB90:
 429              		.loc 1 192 0
 430 00de 41EA0E3E 		orr	lr, r1, lr, lsl #12
 431              	.LBE90:
 432              	.LBE129:
 433              	.LBB130:
 434              	.LBB69:
 435              		.loc 1 160 0
 436 00e2 45EA0355 		orr	r5, r5, r3, lsl #20
 437              	.LVL13:
 438              	.LBE69:
 439              	.LBE130:
 440              		.loc 1 334 0
 441 00e6 0646     		mov	r6, r0
 442              	.LBB131:
 443              	.LBB91:
 444              		.loc 1 195 0
 445 00e8 4EEA0717 		orr	r7, lr, r7, lsl #4
 446              	.LVL14:
 447              	.LBE91:
 448              	.LBE131:
 449              	.LBB132:
 450              	.LBB133:
 451              		.file 2 "../ChibiOS/os/hal/osal/rt/osal.h"
 452              		.loc 2 544 0
 453 00ec FFF7FEFF 		bl	chSysGetStatusAndLockX
 454              	.LVL15:
 455              	.LBE133:
 456              	.LBE132:
ARM GAS  /tmp/ccoY6B6t.s 			page 9


 457              	.LBB134:
 458              	.LBB135:
 459              		.loc 1 77 0
 460 00f0 0D4B     		ldr	r3, .L12+12
 461 00f2 1C68     		ldr	r4, [r3]
 462 00f4 E368     		ldr	r3, [r4, #12]
 463 00f6 43F08003 		orr	r3, r3, #128
 464 00fa E360     		str	r3, [r4, #12]
 465              	.L11:
 466              		.loc 1 78 0
 467 00fc E368     		ldr	r3, [r4, #12]
 468 00fe 5B06     		lsls	r3, r3, #25
 469 0100 FCD5     		bpl	.L11
 470              	.LBE135:
 471              	.LBE134:
 472              		.loc 1 346 0
 473 0102 3168     		ldr	r1, [r6]
 474 0104 0D60     		str	r5, [r1]
 475              		.loc 1 347 0
 476 0106 4F60     		str	r7, [r1, #4]
 477              	.LBB136:
 478              	.LBB137:
 479              		.loc 1 89 0
 480 0108 E368     		ldr	r3, [r4, #12]
 481 010a 23F08003 		bic	r3, r3, #128
 482 010e E360     		str	r3, [r4, #12]
 483              	.LVL16:
 484              	.LBE137:
 485              	.LBE136:
 486              		.loc 1 352 0
 487 0110 03B0     		add	sp, sp, #12
 488              		@ sp needed
 489 0112 BDE8F04F 		pop	{r4, r5, r6, r7, r8, r9, r10, fp, lr}
 490              	.LVL17:
 491              	.LBB138:
 492              	.LBB139:
 493              		.loc 2 558 0
 494 0116 FFF7FEBF 		b	chSysRestoreStatusX
 495              	.LVL18:
 496              	.L13:
 497 011a 00BF     		.align	2
 498              	.L12:
 499 011c D34D6210 		.word	274877907
 500 0120 CDCCCCCC 		.word	-858993459
 501 0124 ABAAAAAA 		.word	-1431655765
 502 0128 00000000 		.word	.LANCHOR0
 503              	.LBE139:
 504              	.LBE138:
 505              		.cfi_endproc
 506              	.LFE279:
 507              		.size	rtc_lld_set_time, .-rtc_lld_set_time
 508 012c AFF30080 		.section	.text.rtc_lld_get_time,"ax",%progbits
 509              		.align	2
 510              		.p2align 4,,15
 511              		.global	rtc_lld_get_time
 512              		.thumb
 513              		.thumb_func
ARM GAS  /tmp/ccoY6B6t.s 			page 10


 514              		.type	rtc_lld_get_time, %function
 515              	rtc_lld_get_time:
 516              	.LFB280:
 517              		.loc 1 363 0
 518              		.cfi_startproc
 519              		@ args = 0, pretend = 0, frame = 0
 520              		@ frame_needed = 0, uses_anonymous_args = 0
 521              	.LVL19:
 522 0000 2DE9F84F 		push	{r3, r4, r5, r6, r7, r8, r9, r10, fp, lr}
 523              		.cfi_def_cfa_offset 40
 524              		.cfi_offset 3, -40
 525              		.cfi_offset 4, -36
 526              		.cfi_offset 5, -32
 527              		.cfi_offset 6, -28
 528              		.cfi_offset 7, -24
 529              		.cfi_offset 8, -20
 530              		.cfi_offset 9, -16
 531              		.cfi_offset 10, -12
 532              		.cfi_offset 11, -8
 533              		.cfi_offset 14, -4
 534              		.loc 1 363 0
 535 0004 0546     		mov	r5, r0
 536 0006 0C46     		mov	r4, r1
 537              	.LBB148:
 538              	.LBB149:
 539              		.loc 2 544 0
 540 0008 FFF7FEFF 		bl	chSysGetStatusAndLockX
 541              	.LVL20:
 542 000c 2A68     		ldr	r2, [r5]
 543              	.L16:
 544              	.LBE149:
 545              	.LBE148:
 546              		.loc 1 376 0 discriminator 1
 547 000e D368     		ldr	r3, [r2, #12]
 548 0010 9B06     		lsls	r3, r3, #26
 549 0012 FCD5     		bpl	.L16
 550              		.loc 1 379 0
 551 0014 D2F82880 		ldr	r8, [r2, #40]
 552              	.LVL21:
 553              		.loc 1 381 0
 554 0018 1668     		ldr	r6, [r2]
 555              	.LVL22:
 556              		.loc 1 382 0
 557 001a 5568     		ldr	r5, [r2, #4]
 558              	.LVL23:
 559              		.loc 1 383 0
 560 001c D368     		ldr	r3, [r2, #12]
 561              	.LBB150:
 562              	.LBB151:
 563              		.loc 1 103 0
 564 001e DFF8C490 		ldr	r9, .L17+4
 565              		.loc 1 105 0
 566 0022 DFF8C4A0 		ldr	r10, .L17+8
 567              	.LBE151:
 568              	.LBE150:
 569              		.loc 1 383 0
 570 0026 23F02003 		bic	r3, r3, #32
ARM GAS  /tmp/ccoY6B6t.s 			page 11


 571 002a D360     		str	r3, [r2, #12]
 572              	.LVL24:
 573              	.LBB158:
 574              	.LBB159:
 575              		.loc 2 558 0
 576 002c FFF7FEFF 		bl	chSysRestoreStatusX
 577              	.LVL25:
 578              	.LBE159:
 579              	.LBE158:
 580              	.LBB160:
 581              	.LBB152:
 582              		.loc 1 104 0
 583 0030 DFF8B8C0 		ldr	ip, .L17+12
 584              	.LBE152:
 585              	.LBE160:
 586              		.loc 1 395 0
 587 0034 2A4B     		ldr	r3, .L17
 588              	.LBB161:
 589              	.LBB162:
 590              		.loc 1 124 0
 591 0036 6178     		ldrb	r1, [r4, #1]	@ zero_extendqisi2
 592              	.LBE162:
 593              	.LBE161:
 594              		.loc 1 399 0
 595 0038 6068     		ldr	r0, [r4, #4]
 596              	.LBB173:
 597              	.LBB163:
 598              		.loc 1 126 0
 599 003a A278     		ldrb	r2, [r4, #2]	@ zero_extendqisi2
 600              	.LBE163:
 601              	.LBE173:
 602              	.LBB174:
 603              	.LBB153:
 604              		.loc 1 104 0
 605 003c C6F30347 		ubfx	r7, r6, #16, #4
 606 0040 0CFB07FC 		mul	ip, ip, r7
 607              		.loc 1 103 0
 608 0044 C6F30157 		ubfx	r7, r6, #20, #2
 609              	.LVL26:
 610              		.loc 1 104 0
 611 0048 09FB07C7 		mla	r7, r9, r7, ip
 612              	.LVL27:
 613              		.loc 1 108 0
 614 004c 06F00F0C 		and	ip, r6, #15
 615 0050 4FF47A79 		mov	r9, #1000
 616              	.LVL28:
 617              		.loc 1 105 0
 618 0054 09FB0C79 		mla	r9, r9, ip, r7
 619 0058 C6F3023C 		ubfx	ip, r6, #12, #3
 620              	.LBE153:
 621              	.LBE174:
 622              	.LBB175:
 623              	.LBB164:
 624              		.loc 1 124 0
 625 005c C5F30037 		ubfx	r7, r5, #12, #1
 626              	.LBE164:
 627              	.LBE175:
ARM GAS  /tmp/ccoY6B6t.s 			page 12


 628              	.LBB176:
 629              	.LBB154:
 630              		.loc 1 106 0
 631 0060 0AFB0C9A 		mla	r10, r10, ip, r9
 632 0064 4EF6602B 		movw	fp, #60000
 633 0068 C6F3032C 		ubfx	ip, r6, #8, #4
 634              	.LBE154:
 635              	.LBE176:
 636              	.LBB177:
 637              	.LBB165:
 638              		.loc 1 124 0
 639 006c 4FEA8709 		lsl	r9, r7, #2
 640              	.LBE165:
 641              	.LBE177:
 642              		.loc 1 395 0
 643 0070 03FB08F3 		mul	r3, r3, r8
 644              	.LBB178:
 645              	.LBB155:
 646              		.loc 1 107 0
 647 0074 C6F30216 		ubfx	r6, r6, #4, #3
 648              	.LVL29:
 649 0078 0BFB0CAC 		mla	ip, fp, ip, r10
 650              	.LVL30:
 651              	.LBE155:
 652              	.LBE178:
 653              	.LBB179:
 654              	.LBB166:
 655              		.loc 1 124 0
 656 007c 4F44     		add	r7, r7, r9
 657 007e C5F30328 		ubfx	r8, r5, #8, #4
 658              	.LVL31:
 659              	.LBE166:
 660              	.LBE179:
 661              	.LBB180:
 662              	.LBB156:
 663              		.loc 1 107 0
 664 0082 42F2107A 		movw	r10, #10000
 665              	.LBE156:
 666              	.LBE180:
 667              	.LBB181:
 668              	.LBB167:
 669              		.loc 1 124 0
 670 0086 08EB4708 		add	r8, r8, r7, lsl #1
 671              	.LBE167:
 672              	.LBE181:
 673              	.LBB182:
 674              	.LBB157:
 675              		.loc 1 108 0
 676 008a 0AFB06CC 		mla	ip, r10, r6, ip
 677              	.LBE157:
 678              	.LBE182:
 679              	.LBB183:
 680              	.LBB168:
 681              		.loc 1 126 0
 682 008e C5F30117 		ubfx	r7, r5, #4, #2
 683              	.LBE168:
 684              	.LBE183:
ARM GAS  /tmp/ccoY6B6t.s 			page 13


 685              		.loc 1 395 0
 686 0092 03F57923 		add	r3, r3, #1019904
 687              		.loc 1 399 0
 688 0096 2CF0784C 		bic	ip, ip, #-134217728
 689              	.LBB184:
 690              	.LBB169:
 691              		.loc 1 124 0
 692 009a 68F30301 		bfi	r1, r8, #0, #4
 693              		.loc 1 126 0
 694 009e 07EB8706 		add	r6, r7, r7, lsl #2
 695 00a2 05F00F08 		and	r8, r5, #15
 696              		.loc 1 122 0
 697 00a6 C5F30357 		ubfx	r7, r5, #20, #4
 698              	.LBE169:
 699              	.LBE184:
 700              		.loc 1 395 0
 701 00aa 03F61843 		addw	r3, r3, #3096
 702              		.loc 1 399 0
 703 00ae 0CEB9323 		add	r3, ip, r3, lsr #10
 704              	.LBB185:
 705              	.LBB170:
 706              		.loc 1 126 0
 707 00b2 08EB4606 		add	r6, r8, r6, lsl #1
 708              		.loc 1 128 0
 709 00b6 4FEA553C 		lsr	ip, r5, #13
 710              		.loc 1 122 0
 711 00ba 07EB8707 		add	r7, r7, r7, lsl #2
 712 00be C5F30345 		ubfx	r5, r5, #16, #4
 713              	.LVL32:
 714              	.LBE170:
 715              	.LBE185:
 716              		.loc 1 399 0
 717 00c2 63F31A00 		bfi	r0, r3, #0, #27
 718              	.LBB186:
 719              	.LBB171:
 720              		.loc 1 128 0
 721 00c6 6CF34711 		bfi	r1, ip, #5, #3
 722              		.loc 1 126 0
 723 00ca 66F30402 		bfi	r2, r6, #0, #5
 724              		.loc 1 122 0
 725 00ce 05EB4705 		add	r5, r5, r7, lsl #1
 726              	.LBE171:
 727              	.LBE186:
 728              		.loc 1 399 0
 729 00d2 6060     		str	r0, [r4, #4]
 730              	.LVL33:
 731              	.LBB187:
 732              	.LBB172:
 733              		.loc 1 128 0
 734 00d4 6170     		strb	r1, [r4, #1]
 735              		.loc 1 126 0
 736 00d6 A270     		strb	r2, [r4, #2]
 737              		.loc 1 122 0
 738 00d8 2570     		strb	r5, [r4]
 739 00da BDE8F88F 		pop	{r3, r4, r5, r6, r7, r8, r9, r10, fp, pc}
 740              	.LVL34:
 741              	.L18:
ARM GAS  /tmp/ccoY6B6t.s 			page 14


 742 00de 00BF     		.align	2
 743              	.L17:
 744 00e0 18FCFFFF 		.word	-1000
 745 00e4 00512502 		.word	36000000
 746 00e8 C0270900 		.word	600000
 747 00ec 80EE3600 		.word	3600000
 748              	.LBE172:
 749              	.LBE187:
 750              		.cfi_endproc
 751              	.LFE280:
 752              		.size	rtc_lld_get_time, .-rtc_lld_get_time
 753              		.section	.text.rtc_lld_set_alarm,"ax",%progbits
 754              		.align	2
 755              		.p2align 4,,15
 756              		.global	rtc_lld_set_alarm
 757              		.thumb
 758              		.thumb_func
 759              		.type	rtc_lld_set_alarm, %function
 760              	rtc_lld_set_alarm:
 761              	.LFB281:
 762              		.loc 1 420 0
 763              		.cfi_startproc
 764              		@ args = 0, pretend = 0, frame = 0
 765              		@ frame_needed = 0, uses_anonymous_args = 0
 766              	.LVL35:
 767 0000 70B5     		push	{r4, r5, r6, lr}
 768              		.cfi_def_cfa_offset 16
 769              		.cfi_offset 4, -16
 770              		.cfi_offset 5, -12
 771              		.cfi_offset 6, -8
 772              		.cfi_offset 14, -4
 773              		.loc 1 420 0
 774 0002 0D46     		mov	r5, r1
 775 0004 0646     		mov	r6, r0
 776 0006 1446     		mov	r4, r2
 777              	.LBB188:
 778              	.LBB189:
 779              		.loc 2 544 0
 780 0008 FFF7FEFF 		bl	chSysGetStatusAndLockX
 781              	.LVL36:
 782              	.LBE189:
 783              	.LBE188:
 784              		.loc 1 426 0
 785 000c 95B9     		cbnz	r5, .L20
 786              		.loc 1 427 0
 787 000e ACB1     		cbz	r4, .L21
 788              		.loc 1 428 0
 789 0010 3168     		ldr	r1, [r6]
 790 0012 8B68     		ldr	r3, [r1, #8]
 791 0014 23F48073 		bic	r3, r3, #256
 792 0018 8B60     		str	r3, [r1, #8]
 793              	.L23:
 794              		.loc 1 429 0 discriminator 1
 795 001a CB68     		ldr	r3, [r1, #12]
 796 001c DB07     		lsls	r3, r3, #31
 797 001e FCD5     		bpl	.L23
 798              		.loc 1 431 0
ARM GAS  /tmp/ccoY6B6t.s 			page 15


 799 0020 2368     		ldr	r3, [r4]
 800 0022 CB61     		str	r3, [r1, #28]
 801              		.loc 1 432 0
 802 0024 8B68     		ldr	r3, [r1, #8]
 803 0026 43F48073 		orr	r3, r3, #256
 804 002a 8B60     		str	r3, [r1, #8]
 805              		.loc 1 433 0
 806 002c 8B68     		ldr	r3, [r1, #8]
 807 002e 43F48053 		orr	r3, r3, #4096
 808 0032 8B60     		str	r3, [r1, #8]
 809              	.L20:
 810              	.LVL37:
 811              		.loc 1 459 0
 812 0034 BDE87040 		pop	{r4, r5, r6, lr}
 813              	.LVL38:
 814              	.LBB190:
 815              	.LBB191:
 816              		.loc 2 558 0
 817 0038 FFF7FEBF 		b	chSysRestoreStatusX
 818              	.LVL39:
 819              	.L21:
 820              	.LBE191:
 821              	.LBE190:
 822              		.loc 1 436 0
 823 003c 3368     		ldr	r3, [r6]
 824 003e 9A68     		ldr	r2, [r3, #8]
 825 0040 22F48052 		bic	r2, r2, #4096
 826 0044 9A60     		str	r2, [r3, #8]
 827              		.loc 1 437 0
 828 0046 9A68     		ldr	r2, [r3, #8]
 829 0048 22F48072 		bic	r2, r2, #256
 830 004c 9A60     		str	r2, [r3, #8]
 831 004e F1E7     		b	.L20
 832              		.cfi_endproc
 833              	.LFE281:
 834              		.size	rtc_lld_set_alarm, .-rtc_lld_set_alarm
 835              		.section	.text.rtc_lld_get_alarm,"ax",%progbits
 836              		.align	2
 837              		.p2align 4,,15
 838              		.global	rtc_lld_get_alarm
 839              		.thumb
 840              		.thumb_func
 841              		.type	rtc_lld_get_alarm, %function
 842              	rtc_lld_get_alarm:
 843              	.LFB282:
 844              		.loc 1 473 0
 845              		.cfi_startproc
 846              		@ args = 0, pretend = 0, frame = 0
 847              		@ frame_needed = 0, uses_anonymous_args = 0
 848              		@ link register save eliminated.
 849              	.LVL40:
 850              		.loc 1 475 0
 851 0000 11B9     		cbnz	r1, .L24
 852              		.loc 1 476 0
 853 0002 0368     		ldr	r3, [r0]
 854 0004 DB69     		ldr	r3, [r3, #28]
 855 0006 1360     		str	r3, [r2]
ARM GAS  /tmp/ccoY6B6t.s 			page 16


 856              	.L24:
 857 0008 7047     		bx	lr
 858              		.cfi_endproc
 859              	.LFE282:
 860              		.size	rtc_lld_get_alarm, .-rtc_lld_get_alarm
 861 000a 00BFAFF3 		.section	.text.rtcSTM32SetPeriodicWakeup,"ax",%progbits
 861      0080
 862              		.align	2
 863              		.p2align 4,,15
 864              		.global	rtcSTM32SetPeriodicWakeup
 865              		.thumb
 866              		.thumb_func
 867              		.type	rtcSTM32SetPeriodicWakeup, %function
 868              	rtcSTM32SetPeriodicWakeup:
 869              	.LFB283:
 870              		.loc 1 495 0
 871              		.cfi_startproc
 872              		@ args = 0, pretend = 0, frame = 0
 873              		@ frame_needed = 0, uses_anonymous_args = 0
 874              	.LVL41:
 875 0000 38B5     		push	{r3, r4, r5, lr}
 876              		.cfi_def_cfa_offset 16
 877              		.cfi_offset 3, -16
 878              		.cfi_offset 4, -12
 879              		.cfi_offset 5, -8
 880              		.cfi_offset 14, -4
 881              		.loc 1 495 0
 882 0002 0C46     		mov	r4, r1
 883 0004 0546     		mov	r5, r0
 884              	.LBB192:
 885              	.LBB193:
 886              		.loc 2 544 0
 887 0006 FFF7FEFF 		bl	chSysGetStatusAndLockX
 888              	.LVL42:
 889              	.LBE193:
 890              	.LBE192:
 891              		.loc 1 501 0
 892 000a CCB1     		cbz	r4, .L27
 893              		.loc 1 504 0
 894 000c 2A68     		ldr	r2, [r5]
 895 000e 9368     		ldr	r3, [r2, #8]
 896 0010 23F48063 		bic	r3, r3, #1024
 897 0014 9360     		str	r3, [r2, #8]
 898              	.L29:
 899              		.loc 1 505 0 discriminator 1
 900 0016 D368     		ldr	r3, [r2, #12]
 901 0018 5B07     		lsls	r3, r3, #29
 902 001a FCD5     		bpl	.L29
 903              		.loc 1 507 0
 904 001c 2368     		ldr	r3, [r4]
 905 001e 99B2     		uxth	r1, r3
 906              		.loc 1 508 0
 907 0020 C3F30243 		ubfx	r3, r3, #16, #3
 908              		.loc 1 507 0
 909 0024 5161     		str	r1, [r2, #20]
 910              		.loc 1 508 0
 911 0026 9360     		str	r3, [r2, #8]
ARM GAS  /tmp/ccoY6B6t.s 			page 17


 912              		.loc 1 509 0
 913 0028 9368     		ldr	r3, [r2, #8]
 914 002a 43F48043 		orr	r3, r3, #16384
 915 002e 9360     		str	r3, [r2, #8]
 916              		.loc 1 510 0
 917 0030 9368     		ldr	r3, [r2, #8]
 918 0032 43F48063 		orr	r3, r3, #1024
 919 0036 9360     		str	r3, [r2, #8]
 920              	.LVL43:
 921              		.loc 1 519 0
 922 0038 BDE83840 		pop	{r3, r4, r5, lr}
 923              	.LVL44:
 924              	.LBB194:
 925              	.LBB195:
 926              		.loc 2 558 0
 927 003c FFF7FEBF 		b	chSysRestoreStatusX
 928              	.LVL45:
 929              	.L27:
 930              	.LBE195:
 931              	.LBE194:
 932              		.loc 1 513 0
 933 0040 2B68     		ldr	r3, [r5]
 934 0042 9A68     		ldr	r2, [r3, #8]
 935 0044 22F48042 		bic	r2, r2, #16384
 936 0048 9A60     		str	r2, [r3, #8]
 937              		.loc 1 514 0
 938 004a 9A68     		ldr	r2, [r3, #8]
 939 004c 22F48062 		bic	r2, r2, #1024
 940 0050 9A60     		str	r2, [r3, #8]
 941              	.LVL46:
 942              		.loc 1 519 0
 943 0052 BDE83840 		pop	{r3, r4, r5, lr}
 944              	.LVL47:
 945              	.LBB197:
 946              	.LBB196:
 947              		.loc 2 558 0
 948 0056 FFF7FEBF 		b	chSysRestoreStatusX
 949              	.LVL48:
 950              	.LBE196:
 951              	.LBE197:
 952              		.cfi_endproc
 953              	.LFE283:
 954              		.size	rtcSTM32SetPeriodicWakeup, .-rtcSTM32SetPeriodicWakeup
 955 005a 00BFAFF3 		.section	.text.rtcSTM32GetPeriodicWakeup,"ax",%progbits
 955      0080
 956              		.align	2
 957              		.p2align 4,,15
 958              		.global	rtcSTM32GetPeriodicWakeup
 959              		.thumb
 960              		.thumb_func
 961              		.type	rtcSTM32GetPeriodicWakeup, %function
 962              	rtcSTM32GetPeriodicWakeup:
 963              	.LFB284:
 964              		.loc 1 531 0
 965              		.cfi_startproc
 966              		@ args = 0, pretend = 0, frame = 0
 967              		@ frame_needed = 0, uses_anonymous_args = 0
ARM GAS  /tmp/ccoY6B6t.s 			page 18


 968              	.LVL49:
 969 0000 38B5     		push	{r3, r4, r5, lr}
 970              		.cfi_def_cfa_offset 16
 971              		.cfi_offset 3, -16
 972              		.cfi_offset 4, -12
 973              		.cfi_offset 5, -8
 974              		.cfi_offset 14, -4
 975              		.loc 1 531 0
 976 0002 0446     		mov	r4, r0
 977 0004 0D46     		mov	r5, r1
 978              	.LBB198:
 979              	.LBB199:
 980              		.loc 2 544 0
 981 0006 FFF7FEFF 		bl	chSysGetStatusAndLockX
 982              	.LVL50:
 983              	.LBE199:
 984              	.LBE198:
 985              		.loc 1 538 0
 986 000a 2368     		ldr	r3, [r4]
 987 000c 5A69     		ldr	r2, [r3, #20]
 988              		.loc 1 539 0
 989 000e 9B68     		ldr	r3, [r3, #8]
 990 0010 03F00703 		and	r3, r3, #7
 991 0014 42EA0343 		orr	r3, r2, r3, lsl #16
 992 0018 2B60     		str	r3, [r5]
 993              	.LVL51:
 994              		.loc 1 543 0
 995 001a BDE83840 		pop	{r3, r4, r5, lr}
 996              	.LVL52:
 997              	.LBB200:
 998              	.LBB201:
 999              		.loc 2 558 0
 1000 001e FFF7FEBF 		b	chSysRestoreStatusX
 1001              	.LVL53:
 1002              	.LBE201:
 1003              	.LBE200:
 1004              		.cfi_endproc
 1005              	.LFE284:
 1006              		.size	rtcSTM32GetPeriodicWakeup, .-rtcSTM32GetPeriodicWakeup
 1007              		.global	RTCD1
 1008 0022 00BFAFF3 		.section	.bss.RTCD1,"aw",%nobits
 1008      0080AFF3 
 1008      0080AFF3 
 1008      0080
 1009              		.align	2
 1010              		.set	.LANCHOR0,. + 0
 1011              		.type	RTCD1, %object
 1012              		.size	RTCD1, 4
 1013              	RTCD1:
 1014 0000 00000000 		.space	4
 1015              		.text
 1016              	.Letext0:
 1017              		.file 3 "/nfs/nfs5/home/research/hardware/arm2/gcc-arm-embedded/gcc-arm-none-eabi-4_8-2014q2/lib/g
 1018              		.file 4 "/nfs/nfs5/home/research/hardware/arm2/gcc-arm-embedded/gcc-arm-none-eabi-4_8-2014q2/arm-n
 1019              		.file 5 "/nfs/nfs5/home/research/hardware/arm2/gcc-arm-embedded/gcc-arm-none-eabi-4_8-2014q2/arm-n
 1020              		.file 6 "../ChibiOS/os/rt/ports/ARMCMx/compilers/GCC/chtypes.h"
 1021              		.file 7 "../ChibiOS/os/rt/include/chsystypes.h"
ARM GAS  /tmp/ccoY6B6t.s 			page 19


 1022              		.file 8 "../ChibiOS/os/rt/include/chschd.h"
 1023              		.file 9 "../ChibiOS/os/ext/CMSIS/ST/STM32F3xx/stm32f303xc.h"
 1024              		.file 10 "../ChibiOS/os/rt/ports/ARMCMx/chcore.h"
 1025              		.file 11 "../ChibiOS/os/rt/ports/ARMCMx/chcore_v7m.h"
 1026              		.file 12 "../ChibiOS/os/rt/include/chtm.h"
 1027              		.file 13 "../ChibiOS/os/rt/include/chsem.h"
 1028              		.file 14 "../ChibiOS/os/rt/include/chmtx.h"
 1029              		.file 15 "../ChibiOS/os/hal/include/rtc.h"
 1030              		.file 16 "../ChibiOS/os/hal/ports/STM32/LLD/RTCv2/rtc_lld.h"
 1031              		.file 17 "../ChibiOS/os/ext/CMSIS/include/core_cm4.h"
 1032              		.file 18 "../ChibiOS/os/rt/include/chsys.h"
 1033              		.section	.debug_info,"",%progbits
 1034              	.Ldebug_info0:
 1035 0000 020F0000 		.4byte	0xf02
 1036 0004 0400     		.2byte	0x4
 1037 0006 00000000 		.4byte	.Ldebug_abbrev0
 1038 000a 04       		.byte	0x4
 1039 000b 01       		.uleb128 0x1
 1040 000c FD050000 		.4byte	.LASF169
 1041 0010 01       		.byte	0x1
 1042 0011 ED040000 		.4byte	.LASF170
 1043 0015 1B000000 		.4byte	.LASF171
 1044 0019 30020000 		.4byte	.Ldebug_ranges0+0x230
 1045 001d 00000000 		.4byte	0
 1046 0021 00000000 		.4byte	.Ldebug_line0
 1047 0025 02       		.uleb128 0x2
 1048 0026 08       		.byte	0x8
 1049 0027 07       		.byte	0x7
 1050 0028 A5000000 		.4byte	.LASF0
 1051 002c 02       		.uleb128 0x2
 1052 002d 04       		.byte	0x4
 1053 002e 07       		.byte	0x7
 1054 002f E7050000 		.4byte	.LASF1
 1055 0033 03       		.uleb128 0x3
 1056 0034 04       		.byte	0x4
 1057 0035 05       		.byte	0x5
 1058 0036 696E7400 		.ascii	"int\000"
 1059 003a 04       		.uleb128 0x4
 1060 003b 0D000000 		.4byte	.LASF3
 1061 003f 03       		.byte	0x3
 1062 0040 D4       		.byte	0xd4
 1063 0041 2C000000 		.4byte	0x2c
 1064 0045 02       		.uleb128 0x2
 1065 0046 01       		.byte	0x1
 1066 0047 06       		.byte	0x6
 1067 0048 24010000 		.4byte	.LASF2
 1068 004c 04       		.uleb128 0x4
 1069 004d 45000000 		.4byte	.LASF4
 1070 0051 04       		.byte	0x4
 1071 0052 1C       		.byte	0x1c
 1072 0053 57000000 		.4byte	0x57
 1073 0057 02       		.uleb128 0x2
 1074 0058 01       		.byte	0x1
 1075 0059 08       		.byte	0x8
 1076 005a 36070000 		.4byte	.LASF5
 1077 005e 02       		.uleb128 0x2
 1078 005f 02       		.byte	0x2
ARM GAS  /tmp/ccoY6B6t.s 			page 20


 1079 0060 05       		.byte	0x5
 1080 0061 C6040000 		.4byte	.LASF6
 1081 0065 02       		.uleb128 0x2
 1082 0066 02       		.byte	0x2
 1083 0067 07       		.byte	0x7
 1084 0068 A1020000 		.4byte	.LASF7
 1085 006c 04       		.uleb128 0x4
 1086 006d 2F030000 		.4byte	.LASF8
 1087 0071 04       		.byte	0x4
 1088 0072 37       		.byte	0x37
 1089 0073 77000000 		.4byte	0x77
 1090 0077 02       		.uleb128 0x2
 1091 0078 04       		.byte	0x4
 1092 0079 05       		.byte	0x5
 1093 007a 85010000 		.4byte	.LASF9
 1094 007e 04       		.uleb128 0x4
 1095 007f FC060000 		.4byte	.LASF10
 1096 0083 04       		.byte	0x4
 1097 0084 38       		.byte	0x38
 1098 0085 89000000 		.4byte	0x89
 1099 0089 02       		.uleb128 0x2
 1100 008a 04       		.byte	0x4
 1101 008b 07       		.byte	0x7
 1102 008c D0050000 		.4byte	.LASF11
 1103 0090 02       		.uleb128 0x2
 1104 0091 08       		.byte	0x8
 1105 0092 05       		.byte	0x5
 1106 0093 16010000 		.4byte	.LASF12
 1107 0097 04       		.uleb128 0x4
 1108 0098 0D040000 		.4byte	.LASF13
 1109 009c 04       		.byte	0x4
 1110 009d 4E       		.byte	0x4e
 1111 009e 25000000 		.4byte	0x25
 1112 00a2 04       		.uleb128 0x4
 1113 00a3 D1070000 		.4byte	.LASF14
 1114 00a7 05       		.byte	0x5
 1115 00a8 2A       		.byte	0x2a
 1116 00a9 4C000000 		.4byte	0x4c
 1117 00ad 04       		.uleb128 0x4
 1118 00ae 94040000 		.4byte	.LASF15
 1119 00b2 05       		.byte	0x5
 1120 00b3 41       		.byte	0x41
 1121 00b4 6C000000 		.4byte	0x6c
 1122 00b8 04       		.uleb128 0x4
 1123 00b9 7D050000 		.4byte	.LASF16
 1124 00bd 05       		.byte	0x5
 1125 00be 42       		.byte	0x42
 1126 00bf 7E000000 		.4byte	0x7e
 1127 00c3 04       		.uleb128 0x4
 1128 00c4 C5030000 		.4byte	.LASF17
 1129 00c8 05       		.byte	0x5
 1130 00c9 4E       		.byte	0x4e
 1131 00ca 97000000 		.4byte	0x97
 1132 00ce 04       		.uleb128 0x4
 1133 00cf 55070000 		.4byte	.LASF18
 1134 00d3 06       		.byte	0x6
 1135 00d4 39       		.byte	0x39
ARM GAS  /tmp/ccoY6B6t.s 			page 21


 1136 00d5 B8000000 		.4byte	0xb8
 1137 00d9 04       		.uleb128 0x4
 1138 00da D1010000 		.4byte	.LASF19
 1139 00de 06       		.byte	0x6
 1140 00df 3B       		.byte	0x3b
 1141 00e0 B8000000 		.4byte	0xb8
 1142 00e4 04       		.uleb128 0x4
 1143 00e5 0C030000 		.4byte	.LASF20
 1144 00e9 06       		.byte	0x6
 1145 00ea 3C       		.byte	0x3c
 1146 00eb A2000000 		.4byte	0xa2
 1147 00ef 04       		.uleb128 0x4
 1148 00f0 94010000 		.4byte	.LASF21
 1149 00f4 06       		.byte	0x6
 1150 00f5 3D       		.byte	0x3d
 1151 00f6 A2000000 		.4byte	0xa2
 1152 00fa 04       		.uleb128 0x4
 1153 00fb 3D040000 		.4byte	.LASF22
 1154 00ff 06       		.byte	0x6
 1155 0100 3E       		.byte	0x3e
 1156 0101 A2000000 		.4byte	0xa2
 1157 0105 04       		.uleb128 0x4
 1158 0106 70040000 		.4byte	.LASF23
 1159 010a 06       		.byte	0x6
 1160 010b 40       		.byte	0x40
 1161 010c B8000000 		.4byte	0xb8
 1162 0110 04       		.uleb128 0x4
 1163 0111 4F000000 		.4byte	.LASF24
 1164 0115 06       		.byte	0x6
 1165 0116 41       		.byte	0x41
 1166 0117 AD000000 		.4byte	0xad
 1167 011b 04       		.uleb128 0x4
 1168 011c 23030000 		.4byte	.LASF25
 1169 0120 06       		.byte	0x6
 1170 0121 43       		.byte	0x43
 1171 0122 B8000000 		.4byte	0xb8
 1172 0126 04       		.uleb128 0x4
 1173 0127 B3030000 		.4byte	.LASF26
 1174 012b 06       		.byte	0x6
 1175 012c 45       		.byte	0x45
 1176 012d AD000000 		.4byte	0xad
 1177 0131 04       		.uleb128 0x4
 1178 0132 DE060000 		.4byte	.LASF27
 1179 0136 07       		.byte	0x7
 1180 0137 33       		.byte	0x33
 1181 0138 B8000000 		.4byte	0xb8
 1182 013c 04       		.uleb128 0x4
 1183 013d F4050000 		.4byte	.LASF28
 1184 0141 07       		.byte	0x7
 1185 0142 3F       		.byte	0x3f
 1186 0143 47010000 		.4byte	0x147
 1187 0147 05       		.uleb128 0x5
 1188 0148 6A020000 		.4byte	.LASF47
 1189 014c 40       		.byte	0x40
 1190 014d 08       		.byte	0x8
 1191 014e C2       		.byte	0xc2
 1192 014f 27020000 		.4byte	0x227
ARM GAS  /tmp/ccoY6B6t.s 			page 22


 1193 0153 06       		.uleb128 0x6
 1194 0154 E6040000 		.4byte	.LASF29
 1195 0158 08       		.byte	0x8
 1196 0159 C3       		.byte	0xc3
 1197 015a 32020000 		.4byte	0x232
 1198 015e 00       		.byte	0
 1199 015f 06       		.uleb128 0x6
 1200 0160 5F040000 		.4byte	.LASF30
 1201 0164 08       		.byte	0x8
 1202 0165 C5       		.byte	0xc5
 1203 0166 32020000 		.4byte	0x232
 1204 016a 04       		.byte	0x4
 1205 016b 06       		.uleb128 0x6
 1206 016c 0F010000 		.4byte	.LASF31
 1207 0170 08       		.byte	0x8
 1208 0171 C7       		.byte	0xc7
 1209 0172 05010000 		.4byte	0x105
 1210 0176 08       		.byte	0x8
 1211 0177 06       		.uleb128 0x6
 1212 0178 0D080000 		.4byte	.LASF32
 1213 017c 08       		.byte	0x8
 1214 017d C8       		.byte	0xc8
 1215 017e 4E060000 		.4byte	0x64e
 1216 0182 0C       		.byte	0xc
 1217 0183 06       		.uleb128 0x6
 1218 0184 C1010000 		.4byte	.LASF33
 1219 0188 08       		.byte	0x8
 1220 0189 CA       		.byte	0xca
 1221 018a 32020000 		.4byte	0x232
 1222 018e 10       		.byte	0x10
 1223 018f 06       		.uleb128 0x6
 1224 0190 CE030000 		.4byte	.LASF34
 1225 0194 08       		.byte	0x8
 1226 0195 CB       		.byte	0xcb
 1227 0196 32020000 		.4byte	0x232
 1228 019a 14       		.byte	0x14
 1229 019b 06       		.uleb128 0x6
 1230 019c E9070000 		.4byte	.LASF35
 1231 01a0 08       		.byte	0x8
 1232 01a1 D2       		.byte	0xd2
 1233 01a2 D9070000 		.4byte	0x7d9
 1234 01a6 18       		.byte	0x18
 1235 01a7 06       		.uleb128 0x6
 1236 01a8 D0040000 		.4byte	.LASF36
 1237 01ac 08       		.byte	0x8
 1238 01ad DD       		.byte	0xdd
 1239 01ae EF000000 		.4byte	0xef
 1240 01b2 1C       		.byte	0x1c
 1241 01b3 06       		.uleb128 0x6
 1242 01b4 F6070000 		.4byte	.LASF37
 1243 01b8 08       		.byte	0x8
 1244 01b9 E1       		.byte	0xe1
 1245 01ba E4000000 		.4byte	0xe4
 1246 01be 1D       		.byte	0x1d
 1247 01bf 06       		.uleb128 0x6
 1248 01c0 BB070000 		.4byte	.LASF38
 1249 01c4 08       		.byte	0x8
ARM GAS  /tmp/ccoY6B6t.s 			page 23


 1250 01c5 E6       		.byte	0xe6
 1251 01c6 FA000000 		.4byte	0xfa
 1252 01ca 1E       		.byte	0x1e
 1253 01cb 07       		.uleb128 0x7
 1254 01cc 705F7500 		.ascii	"p_u\000"
 1255 01d0 08       		.byte	0x8
 1256 01d1 3701     		.2byte	0x137
 1257 01d3 08070000 		.4byte	0x708
 1258 01d7 20       		.byte	0x20
 1259 01d8 08       		.uleb128 0x8
 1260 01d9 6B030000 		.4byte	.LASF39
 1261 01dd 08       		.byte	0x8
 1262 01de 3C01     		.2byte	0x13c
 1263 01e0 38020000 		.4byte	0x238
 1264 01e4 24       		.byte	0x24
 1265 01e5 08       		.uleb128 0x8
 1266 01e6 5A020000 		.4byte	.LASF40
 1267 01ea 08       		.byte	0x8
 1268 01eb 4201     		.2byte	0x142
 1269 01ed 5C020000 		.4byte	0x25c
 1270 01f1 28       		.byte	0x28
 1271 01f2 08       		.uleb128 0x8
 1272 01f3 6C050000 		.4byte	.LASF41
 1273 01f7 08       		.byte	0x8
 1274 01f8 4801     		.2byte	0x148
 1275 01fa 1B010000 		.4byte	0x11b
 1276 01fe 30       		.byte	0x30
 1277 01ff 08       		.uleb128 0x8
 1278 0200 19030000 		.4byte	.LASF42
 1279 0204 08       		.byte	0x8
 1280 0205 4F01     		.2byte	0x14f
 1281 0207 D3070000 		.4byte	0x7d3
 1282 020b 34       		.byte	0x34
 1283 020c 08       		.uleb128 0x8
 1284 020d E8060000 		.4byte	.LASF43
 1285 0211 08       		.byte	0x8
 1286 0212 5301     		.2byte	0x153
 1287 0214 05010000 		.4byte	0x105
 1288 0218 38       		.byte	0x38
 1289 0219 08       		.uleb128 0x8
 1290 021a 35010000 		.4byte	.LASF44
 1291 021e 08       		.byte	0x8
 1292 021f 5A01     		.2byte	0x15a
 1293 0221 0F030000 		.4byte	0x30f
 1294 0225 3C       		.byte	0x3c
 1295 0226 00       		.byte	0
 1296 0227 04       		.uleb128 0x4
 1297 0228 7E030000 		.4byte	.LASF45
 1298 022c 07       		.byte	0x7
 1299 022d 44       		.byte	0x44
 1300 022e 32020000 		.4byte	0x232
 1301 0232 09       		.uleb128 0x9
 1302 0233 04       		.byte	0x4
 1303 0234 3C010000 		.4byte	0x13c
 1304 0238 04       		.uleb128 0x4
 1305 0239 4A030000 		.4byte	.LASF46
 1306 023d 07       		.byte	0x7
ARM GAS  /tmp/ccoY6B6t.s 			page 24


 1307 023e 49       		.byte	0x49
 1308 023f 43020000 		.4byte	0x243
 1309 0243 05       		.uleb128 0x5
 1310 0244 A9050000 		.4byte	.LASF48
 1311 0248 04       		.byte	0x4
 1312 0249 08       		.byte	0x8
 1313 024a B0       		.byte	0xb0
 1314 024b 5C020000 		.4byte	0x25c
 1315 024f 06       		.uleb128 0x6
 1316 0250 E6040000 		.4byte	.LASF29
 1317 0254 08       		.byte	0x8
 1318 0255 B1       		.byte	0xb1
 1319 0256 32020000 		.4byte	0x232
 1320 025a 00       		.byte	0
 1321 025b 00       		.byte	0
 1322 025c 04       		.uleb128 0x4
 1323 025d A2070000 		.4byte	.LASF49
 1324 0261 07       		.byte	0x7
 1325 0262 50       		.byte	0x50
 1326 0263 67020000 		.4byte	0x267
 1327 0267 05       		.uleb128 0x5
 1328 0268 6B000000 		.4byte	.LASF50
 1329 026c 08       		.byte	0x8
 1330 026d 08       		.byte	0x8
 1331 026e B7       		.byte	0xb7
 1332 026f 8C020000 		.4byte	0x28c
 1333 0273 06       		.uleb128 0x6
 1334 0274 E6040000 		.4byte	.LASF29
 1335 0278 08       		.byte	0x8
 1336 0279 B8       		.byte	0xb8
 1337 027a 32020000 		.4byte	0x232
 1338 027e 00       		.byte	0
 1339 027f 06       		.uleb128 0x6
 1340 0280 5F040000 		.4byte	.LASF30
 1341 0284 08       		.byte	0x8
 1342 0285 B9       		.byte	0xb9
 1343 0286 32020000 		.4byte	0x232
 1344 028a 04       		.byte	0x4
 1345 028b 00       		.byte	0
 1346 028c 04       		.uleb128 0x4
 1347 028d 00000000 		.4byte	.LASF51
 1348 0291 07       		.byte	0x7
 1349 0292 57       		.byte	0x57
 1350 0293 97020000 		.4byte	0x297
 1351 0297 0A       		.uleb128 0xa
 1352 0298 74020000 		.4byte	.LASF52
 1353 029c 1C       		.byte	0x1c
 1354 029d 08       		.byte	0x8
 1355 029e 9201     		.2byte	0x192
 1356 02a0 F3020000 		.4byte	0x2f3
 1357 02a4 08       		.uleb128 0x8
 1358 02a5 8D050000 		.4byte	.LASF53
 1359 02a9 08       		.byte	0x8
 1360 02aa 9301     		.2byte	0x193
 1361 02ac 5C020000 		.4byte	0x25c
 1362 02b0 00       		.byte	0
 1363 02b1 08       		.uleb128 0x8
ARM GAS  /tmp/ccoY6B6t.s 			page 25


 1364 02b2 D8040000 		.4byte	.LASF54
 1365 02b6 08       		.byte	0x8
 1366 02b7 9401     		.2byte	0x194
 1367 02b9 05010000 		.4byte	0x105
 1368 02bd 08       		.byte	0x8
 1369 02be 08       		.uleb128 0x8
 1370 02bf D6030000 		.4byte	.LASF55
 1371 02c3 08       		.byte	0x8
 1372 02c4 9601     		.2byte	0x196
 1373 02c6 4E060000 		.4byte	0x64e
 1374 02ca 0C       		.byte	0xc
 1375 02cb 08       		.uleb128 0x8
 1376 02cc DA010000 		.4byte	.LASF56
 1377 02d0 08       		.byte	0x8
 1378 02d1 9901     		.2byte	0x199
 1379 02d3 32020000 		.4byte	0x232
 1380 02d7 10       		.byte	0x10
 1381 02d8 08       		.uleb128 0x8
 1382 02d9 FE030000 		.4byte	.LASF57
 1383 02dd 08       		.byte	0x8
 1384 02de 9A01     		.2byte	0x19a
 1385 02e0 32020000 		.4byte	0x232
 1386 02e4 14       		.byte	0x14
 1387 02e5 08       		.uleb128 0x8
 1388 02e6 F4030000 		.4byte	.LASF58
 1389 02ea 08       		.byte	0x8
 1390 02eb 9D01     		.2byte	0x19d
 1391 02ed 32020000 		.4byte	0x232
 1392 02f1 18       		.byte	0x18
 1393 02f2 00       		.byte	0
 1394 02f3 04       		.uleb128 0x4
 1395 02f4 F3060000 		.4byte	.LASF59
 1396 02f8 07       		.byte	0x7
 1397 02f9 5C       		.byte	0x5c
 1398 02fa FE020000 		.4byte	0x2fe
 1399 02fe 09       		.uleb128 0x9
 1400 02ff 04       		.byte	0x4
 1401 0300 04030000 		.4byte	0x304
 1402 0304 0B       		.uleb128 0xb
 1403 0305 0F030000 		.4byte	0x30f
 1404 0309 0C       		.uleb128 0xc
 1405 030a 0F030000 		.4byte	0x30f
 1406 030e 00       		.byte	0
 1407 030f 0D       		.uleb128 0xd
 1408 0310 04       		.byte	0x4
 1409 0311 04       		.uleb128 0x4
 1410 0312 4F040000 		.4byte	.LASF60
 1411 0316 07       		.byte	0x7
 1412 0317 61       		.byte	0x61
 1413 0318 1C030000 		.4byte	0x31c
 1414 031c 0A       		.uleb128 0xa
 1415 031d 44070000 		.4byte	.LASF61
 1416 0321 14       		.byte	0x14
 1417 0322 08       		.byte	0x8
 1418 0323 6D01     		.2byte	0x16d
 1419 0325 6B030000 		.4byte	0x36b
 1420 0329 08       		.uleb128 0x8
ARM GAS  /tmp/ccoY6B6t.s 			page 26


 1421 032a 33020000 		.4byte	.LASF62
 1422 032e 08       		.byte	0x8
 1423 032f 6E01     		.2byte	0x16e
 1424 0331 EB070000 		.4byte	0x7eb
 1425 0335 00       		.byte	0
 1426 0336 08       		.uleb128 0x8
 1427 0337 EB010000 		.4byte	.LASF63
 1428 033b 08       		.byte	0x8
 1429 033c 6F01     		.2byte	0x16f
 1430 033e EB070000 		.4byte	0x7eb
 1431 0342 04       		.byte	0x4
 1432 0343 08       		.uleb128 0x8
 1433 0344 48020000 		.4byte	.LASF64
 1434 0348 08       		.byte	0x8
 1435 0349 7001     		.2byte	0x170
 1436 034b 31010000 		.4byte	0x131
 1437 034f 08       		.byte	0x8
 1438 0350 08       		.uleb128 0x8
 1439 0351 13080000 		.4byte	.LASF65
 1440 0355 08       		.byte	0x8
 1441 0356 7101     		.2byte	0x171
 1442 0358 F3020000 		.4byte	0x2f3
 1443 035c 0C       		.byte	0xc
 1444 035d 08       		.uleb128 0x8
 1445 035e 5D070000 		.4byte	.LASF66
 1446 0362 08       		.byte	0x8
 1447 0363 7301     		.2byte	0x173
 1448 0365 0F030000 		.4byte	0x30f
 1449 0369 10       		.byte	0x10
 1450 036a 00       		.byte	0
 1451 036b 04       		.uleb128 0x4
 1452 036c D8000000 		.4byte	.LASF67
 1453 0370 07       		.byte	0x7
 1454 0371 66       		.byte	0x66
 1455 0372 76030000 		.4byte	0x376
 1456 0376 0A       		.uleb128 0xa
 1457 0377 91030000 		.4byte	.LASF68
 1458 037b 10       		.byte	0x10
 1459 037c 08       		.byte	0x8
 1460 037d 7D01     		.2byte	0x17d
 1461 037f B8030000 		.4byte	0x3b8
 1462 0383 08       		.uleb128 0x8
 1463 0384 33020000 		.4byte	.LASF62
 1464 0388 08       		.byte	0x8
 1465 0389 7E01     		.2byte	0x17e
 1466 038b EB070000 		.4byte	0x7eb
 1467 038f 00       		.byte	0
 1468 0390 08       		.uleb128 0x8
 1469 0391 EB010000 		.4byte	.LASF63
 1470 0395 08       		.byte	0x8
 1471 0396 8001     		.2byte	0x180
 1472 0398 EB070000 		.4byte	0x7eb
 1473 039c 04       		.byte	0x4
 1474 039d 08       		.uleb128 0x8
 1475 039e 48020000 		.4byte	.LASF64
 1476 03a2 08       		.byte	0x8
 1477 03a3 8201     		.2byte	0x182
ARM GAS  /tmp/ccoY6B6t.s 			page 27


 1478 03a5 31010000 		.4byte	0x131
 1479 03a9 08       		.byte	0x8
 1480 03aa 08       		.uleb128 0x8
 1481 03ab B9030000 		.4byte	.LASF69
 1482 03af 08       		.byte	0x8
 1483 03b0 8A01     		.2byte	0x18a
 1484 03b2 31010000 		.4byte	0x131
 1485 03b6 0C       		.byte	0xc
 1486 03b7 00       		.byte	0
 1487 03b8 04       		.uleb128 0x4
 1488 03b9 7C000000 		.4byte	.LASF70
 1489 03bd 07       		.byte	0x7
 1490 03be 6B       		.byte	0x6b
 1491 03bf C3030000 		.4byte	0x3c3
 1492 03c3 0A       		.uleb128 0xa
 1493 03c4 7E040000 		.4byte	.LASF71
 1494 03c8 04       		.byte	0x4
 1495 03c9 08       		.byte	0x8
 1496 03ca A401     		.2byte	0x1a4
 1497 03cc DE030000 		.4byte	0x3de
 1498 03d0 08       		.uleb128 0x8
 1499 03d1 07070000 		.4byte	.LASF72
 1500 03d5 08       		.byte	0x8
 1501 03d6 AC01     		.2byte	0x1ac
 1502 03d8 F1070000 		.4byte	0x7f1
 1503 03dc 00       		.byte	0
 1504 03dd 00       		.byte	0
 1505 03de 04       		.uleb128 0x4
 1506 03df E0020000 		.4byte	.LASF73
 1507 03e3 07       		.byte	0x7
 1508 03e4 70       		.byte	0x70
 1509 03e5 E9030000 		.4byte	0x3e9
 1510 03e9 0E       		.uleb128 0xe
 1511 03ea 28050000 		.4byte	.LASF74
 1512 03ee 5001     		.2byte	0x150
 1513 03f0 08       		.byte	0x8
 1514 03f1 C401     		.2byte	0x1c4
 1515 03f3 45040000 		.4byte	0x445
 1516 03f7 08       		.uleb128 0x8
 1517 03f8 CB070000 		.4byte	.LASF75
 1518 03fc 08       		.byte	0x8
 1519 03fd C801     		.2byte	0x1c8
 1520 03ff 8C020000 		.4byte	0x28c
 1521 0403 00       		.byte	0
 1522 0404 08       		.uleb128 0x8
 1523 0405 52010000 		.4byte	.LASF76
 1524 0409 08       		.byte	0x8
 1525 040a CC01     		.2byte	0x1cc
 1526 040c 6B030000 		.4byte	0x36b
 1527 0410 1C       		.byte	0x1c
 1528 0411 07       		.uleb128 0x7
 1529 0412 64626700 		.ascii	"dbg\000"
 1530 0416 08       		.byte	0x8
 1531 0417 D001     		.2byte	0x1d0
 1532 0419 B8030000 		.4byte	0x3b8
 1533 041d 2C       		.byte	0x2c
 1534 041e 08       		.uleb128 0x8
ARM GAS  /tmp/ccoY6B6t.s 			page 28


 1535 041f C5000000 		.4byte	.LASF77
 1536 0423 08       		.byte	0x8
 1537 0424 D401     		.2byte	0x1d4
 1538 0426 3C010000 		.4byte	0x13c
 1539 042a 30       		.byte	0x30
 1540 042b 07       		.uleb128 0x7
 1541 042c 746D00   		.ascii	"tm\000"
 1542 042f 08       		.byte	0x8
 1543 0430 D901     		.2byte	0x1d9
 1544 0432 FD060000 		.4byte	0x6fd
 1545 0436 70       		.byte	0x70
 1546 0437 08       		.uleb128 0x8
 1547 0438 09020000 		.4byte	.LASF78
 1548 043c 08       		.byte	0x8
 1549 043d E501     		.2byte	0x1e5
 1550 043f F6070000 		.4byte	0x7f6
 1551 0443 78       		.byte	0x78
 1552 0444 00       		.byte	0
 1553 0445 02       		.uleb128 0x2
 1554 0446 04       		.byte	0x4
 1555 0447 07       		.byte	0x7
 1556 0448 75030000 		.4byte	.LASF79
 1557 044c 0F       		.uleb128 0xf
 1558 044d B8000000 		.4byte	0xb8
 1559 0451 10       		.uleb128 0x10
 1560 0452 90       		.byte	0x90
 1561 0453 09       		.byte	0x9
 1562 0454 1002     		.2byte	0x210
 1563 0456 2C060000 		.4byte	0x62c
 1564 045a 07       		.uleb128 0x7
 1565 045b 545200   		.ascii	"TR\000"
 1566 045e 09       		.byte	0x9
 1567 045f 1202     		.2byte	0x212
 1568 0461 4C040000 		.4byte	0x44c
 1569 0465 00       		.byte	0
 1570 0466 07       		.uleb128 0x7
 1571 0467 445200   		.ascii	"DR\000"
 1572 046a 09       		.byte	0x9
 1573 046b 1302     		.2byte	0x213
 1574 046d 4C040000 		.4byte	0x44c
 1575 0471 04       		.byte	0x4
 1576 0472 07       		.uleb128 0x7
 1577 0473 435200   		.ascii	"CR\000"
 1578 0476 09       		.byte	0x9
 1579 0477 1402     		.2byte	0x214
 1580 0479 4C040000 		.4byte	0x44c
 1581 047d 08       		.byte	0x8
 1582 047e 07       		.uleb128 0x7
 1583 047f 49535200 		.ascii	"ISR\000"
 1584 0483 09       		.byte	0x9
 1585 0484 1502     		.2byte	0x215
 1586 0486 4C040000 		.4byte	0x44c
 1587 048a 0C       		.byte	0xc
 1588 048b 08       		.uleb128 0x8
 1589 048c 96000000 		.4byte	.LASF80
 1590 0490 09       		.byte	0x9
 1591 0491 1602     		.2byte	0x216
ARM GAS  /tmp/ccoY6B6t.s 			page 29


 1592 0493 4C040000 		.4byte	0x44c
 1593 0497 10       		.byte	0x10
 1594 0498 08       		.uleb128 0x8
 1595 0499 9B000000 		.4byte	.LASF81
 1596 049d 09       		.byte	0x9
 1597 049e 1702     		.2byte	0x217
 1598 04a0 4C040000 		.4byte	0x44c
 1599 04a4 14       		.byte	0x14
 1600 04a5 08       		.uleb128 0x8
 1601 04a6 45040000 		.4byte	.LASF82
 1602 04aa 09       		.byte	0x9
 1603 04ab 1802     		.2byte	0x218
 1604 04ad B8000000 		.4byte	0xb8
 1605 04b1 18       		.byte	0x18
 1606 04b2 08       		.uleb128 0x8
 1607 04b3 18040000 		.4byte	.LASF83
 1608 04b7 09       		.byte	0x9
 1609 04b8 1902     		.2byte	0x219
 1610 04ba 4C040000 		.4byte	0x44c
 1611 04be 1C       		.byte	0x1c
 1612 04bf 08       		.uleb128 0x8
 1613 04c0 65050000 		.4byte	.LASF84
 1614 04c4 09       		.byte	0x9
 1615 04c5 1A02     		.2byte	0x21a
 1616 04c7 4C040000 		.4byte	0x44c
 1617 04cb 20       		.byte	0x20
 1618 04cc 07       		.uleb128 0x7
 1619 04cd 57505200 		.ascii	"WPR\000"
 1620 04d1 09       		.byte	0x9
 1621 04d2 1B02     		.2byte	0x21b
 1622 04d4 4C040000 		.4byte	0x44c
 1623 04d8 24       		.byte	0x24
 1624 04d9 07       		.uleb128 0x7
 1625 04da 53535200 		.ascii	"SSR\000"
 1626 04de 09       		.byte	0x9
 1627 04df 1C02     		.2byte	0x21c
 1628 04e1 4C040000 		.4byte	0x44c
 1629 04e5 28       		.byte	0x28
 1630 04e6 08       		.uleb128 0x8
 1631 04e7 91070000 		.4byte	.LASF85
 1632 04eb 09       		.byte	0x9
 1633 04ec 1D02     		.2byte	0x21d
 1634 04ee 4C040000 		.4byte	0x44c
 1635 04f2 2C       		.byte	0x2c
 1636 04f3 08       		.uleb128 0x8
 1637 04f4 14030000 		.4byte	.LASF86
 1638 04f8 09       		.byte	0x9
 1639 04f9 1E02     		.2byte	0x21e
 1640 04fb 4C040000 		.4byte	0x44c
 1641 04ff 30       		.byte	0x30
 1642 0500 08       		.uleb128 0x8
 1643 0501 2E020000 		.4byte	.LASF87
 1644 0505 09       		.byte	0x9
 1645 0506 1F02     		.2byte	0x21f
 1646 0508 4C040000 		.4byte	0x44c
 1647 050c 34       		.byte	0x34
 1648 050d 08       		.uleb128 0x8
ARM GAS  /tmp/ccoY6B6t.s 			page 30


 1649 050e 59010000 		.4byte	.LASF88
 1650 0512 09       		.byte	0x9
 1651 0513 2002     		.2byte	0x220
 1652 0515 4C040000 		.4byte	0x44c
 1653 0519 38       		.byte	0x38
 1654 051a 08       		.uleb128 0x8
 1655 051b 8B000000 		.4byte	.LASF89
 1656 051f 09       		.byte	0x9
 1657 0520 2102     		.2byte	0x221
 1658 0522 4C040000 		.4byte	0x44c
 1659 0526 3C       		.byte	0x3c
 1660 0527 08       		.uleb128 0x8
 1661 0528 37040000 		.4byte	.LASF90
 1662 052c 09       		.byte	0x9
 1663 052d 2202     		.2byte	0x222
 1664 052f 4C040000 		.4byte	0x44c
 1665 0533 40       		.byte	0x40
 1666 0534 08       		.uleb128 0x8
 1667 0535 D9070000 		.4byte	.LASF91
 1668 0539 09       		.byte	0x9
 1669 053a 2302     		.2byte	0x223
 1670 053c 4C040000 		.4byte	0x44c
 1671 0540 44       		.byte	0x44
 1672 0541 08       		.uleb128 0x8
 1673 0542 1E070000 		.4byte	.LASF92
 1674 0546 09       		.byte	0x9
 1675 0547 2402     		.2byte	0x224
 1676 0549 4C040000 		.4byte	0x44c
 1677 054d 48       		.byte	0x48
 1678 054e 08       		.uleb128 0x8
 1679 054f 66040000 		.4byte	.LASF93
 1680 0553 09       		.byte	0x9
 1681 0554 2502     		.2byte	0x225
 1682 0556 B8000000 		.4byte	0xb8
 1683 055a 4C       		.byte	0x4c
 1684 055b 08       		.uleb128 0x8
 1685 055c 32050000 		.4byte	.LASF94
 1686 0560 09       		.byte	0x9
 1687 0561 2602     		.2byte	0x226
 1688 0563 4C040000 		.4byte	0x44c
 1689 0567 50       		.byte	0x50
 1690 0568 08       		.uleb128 0x8
 1691 0569 11070000 		.4byte	.LASF95
 1692 056d 09       		.byte	0x9
 1693 056e 2702     		.2byte	0x227
 1694 0570 4C040000 		.4byte	0x44c
 1695 0574 54       		.byte	0x54
 1696 0575 08       		.uleb128 0x8
 1697 0576 F0070000 		.4byte	.LASF96
 1698 057a 09       		.byte	0x9
 1699 057b 2802     		.2byte	0x228
 1700 057d 4C040000 		.4byte	0x44c
 1701 0581 58       		.byte	0x58
 1702 0582 08       		.uleb128 0x8
 1703 0583 90000000 		.4byte	.LASF97
 1704 0587 09       		.byte	0x9
 1705 0588 2902     		.2byte	0x229
ARM GAS  /tmp/ccoY6B6t.s 			page 31


 1706 058a 4C040000 		.4byte	0x44c
 1707 058e 5C       		.byte	0x5c
 1708 058f 08       		.uleb128 0x8
 1709 0590 8E010000 		.4byte	.LASF98
 1710 0594 09       		.byte	0x9
 1711 0595 2A02     		.2byte	0x22a
 1712 0597 4C040000 		.4byte	0x44c
 1713 059b 60       		.byte	0x60
 1714 059c 08       		.uleb128 0x8
 1715 059d 3B020000 		.4byte	.LASF99
 1716 05a1 09       		.byte	0x9
 1717 05a2 2B02     		.2byte	0x22b
 1718 05a4 4C040000 		.4byte	0x44c
 1719 05a8 64       		.byte	0x64
 1720 05a9 08       		.uleb128 0x8
 1721 05aa 44030000 		.4byte	.LASF100
 1722 05ae 09       		.byte	0x9
 1723 05af 2C02     		.2byte	0x22c
 1724 05b1 4C040000 		.4byte	0x44c
 1725 05b5 68       		.byte	0x68
 1726 05b6 08       		.uleb128 0x8
 1727 05b7 31040000 		.4byte	.LASF101
 1728 05bb 09       		.byte	0x9
 1729 05bc 2D02     		.2byte	0x22d
 1730 05be 4C040000 		.4byte	0x44c
 1731 05c2 6C       		.byte	0x6c
 1732 05c3 08       		.uleb128 0x8
 1733 05c4 77050000 		.4byte	.LASF102
 1734 05c8 09       		.byte	0x9
 1735 05c9 2E02     		.2byte	0x22e
 1736 05cb 4C040000 		.4byte	0x44c
 1737 05cf 70       		.byte	0x70
 1738 05d0 08       		.uleb128 0x8
 1739 05d1 8B070000 		.4byte	.LASF103
 1740 05d5 09       		.byte	0x9
 1741 05d6 2F02     		.2byte	0x22f
 1742 05d8 4C040000 		.4byte	0x44c
 1743 05dc 74       		.byte	0x74
 1744 05dd 08       		.uleb128 0x8
 1745 05de 05030000 		.4byte	.LASF104
 1746 05e2 09       		.byte	0x9
 1747 05e3 3002     		.2byte	0x230
 1748 05e5 4C040000 		.4byte	0x44c
 1749 05e9 78       		.byte	0x78
 1750 05ea 08       		.uleb128 0x8
 1751 05eb ED030000 		.4byte	.LASF105
 1752 05ef 09       		.byte	0x9
 1753 05f0 3102     		.2byte	0x231
 1754 05f2 4C040000 		.4byte	0x44c
 1755 05f6 7C       		.byte	0x7c
 1756 05f7 08       		.uleb128 0x8
 1757 05f8 06040000 		.4byte	.LASF106
 1758 05fc 09       		.byte	0x9
 1759 05fd 3202     		.2byte	0x232
 1760 05ff 4C040000 		.4byte	0x44c
 1761 0603 80       		.byte	0x80
 1762 0604 08       		.uleb128 0x8
ARM GAS  /tmp/ccoY6B6t.s 			page 32


 1763 0605 27070000 		.4byte	.LASF107
 1764 0609 09       		.byte	0x9
 1765 060a 3302     		.2byte	0x233
 1766 060c 4C040000 		.4byte	0x44c
 1767 0610 84       		.byte	0x84
 1768 0611 08       		.uleb128 0x8
 1769 0612 FE070000 		.4byte	.LASF108
 1770 0616 09       		.byte	0x9
 1771 0617 3402     		.2byte	0x234
 1772 0619 4C040000 		.4byte	0x44c
 1773 061d 88       		.byte	0x88
 1774 061e 08       		.uleb128 0x8
 1775 061f 82020000 		.4byte	.LASF109
 1776 0623 09       		.byte	0x9
 1777 0624 3502     		.2byte	0x235
 1778 0626 4C040000 		.4byte	0x44c
 1779 062a 8C       		.byte	0x8c
 1780 062b 00       		.byte	0
 1781 062c 11       		.uleb128 0x11
 1782 062d 03010000 		.4byte	.LASF110
 1783 0631 09       		.byte	0x9
 1784 0632 3602     		.2byte	0x236
 1785 0634 51040000 		.4byte	0x451
 1786 0638 04       		.uleb128 0x4
 1787 0639 E2010000 		.4byte	.LASF111
 1788 063d 0A       		.byte	0xa
 1789 063e 65       		.byte	0x65
 1790 063f 0F030000 		.4byte	0x30f
 1791 0643 04       		.uleb128 0x4
 1792 0644 39030000 		.4byte	.LASF112
 1793 0648 0A       		.byte	0xa
 1794 0649 6D       		.byte	0x6d
 1795 064a C3000000 		.4byte	0xc3
 1796 064e 05       		.uleb128 0x5
 1797 064f 2E070000 		.4byte	.LASF113
 1798 0653 04       		.byte	0x4
 1799 0654 0A       		.byte	0xa
 1800 0655 89       		.byte	0x89
 1801 0656 67060000 		.4byte	0x667
 1802 065a 12       		.uleb128 0x12
 1803 065b 72313300 		.ascii	"r13\000"
 1804 065f 0A       		.byte	0xa
 1805 0660 8A       		.byte	0x8a
 1806 0661 E2060000 		.4byte	0x6e2
 1807 0665 00       		.byte	0
 1808 0666 00       		.byte	0
 1809 0667 05       		.uleb128 0x5
 1810 0668 5F000000 		.4byte	.LASF114
 1811 066c 24       		.byte	0x24
 1812 066d 0B       		.byte	0xb
 1813 066e FD       		.byte	0xfd
 1814 066f E2060000 		.4byte	0x6e2
 1815 0673 07       		.uleb128 0x7
 1816 0674 723400   		.ascii	"r4\000"
 1817 0677 0B       		.byte	0xb
 1818 0678 1001     		.2byte	0x110
 1819 067a 38060000 		.4byte	0x638
ARM GAS  /tmp/ccoY6B6t.s 			page 33


 1820 067e 00       		.byte	0
 1821 067f 07       		.uleb128 0x7
 1822 0680 723500   		.ascii	"r5\000"
 1823 0683 0B       		.byte	0xb
 1824 0684 1101     		.2byte	0x111
 1825 0686 38060000 		.4byte	0x638
 1826 068a 04       		.byte	0x4
 1827 068b 07       		.uleb128 0x7
 1828 068c 723600   		.ascii	"r6\000"
 1829 068f 0B       		.byte	0xb
 1830 0690 1201     		.2byte	0x112
 1831 0692 38060000 		.4byte	0x638
 1832 0696 08       		.byte	0x8
 1833 0697 07       		.uleb128 0x7
 1834 0698 723700   		.ascii	"r7\000"
 1835 069b 0B       		.byte	0xb
 1836 069c 1301     		.2byte	0x113
 1837 069e 38060000 		.4byte	0x638
 1838 06a2 0C       		.byte	0xc
 1839 06a3 07       		.uleb128 0x7
 1840 06a4 723800   		.ascii	"r8\000"
 1841 06a7 0B       		.byte	0xb
 1842 06a8 1401     		.2byte	0x114
 1843 06aa 38060000 		.4byte	0x638
 1844 06ae 10       		.byte	0x10
 1845 06af 07       		.uleb128 0x7
 1846 06b0 723900   		.ascii	"r9\000"
 1847 06b3 0B       		.byte	0xb
 1848 06b4 1501     		.2byte	0x115
 1849 06b6 38060000 		.4byte	0x638
 1850 06ba 14       		.byte	0x14
 1851 06bb 07       		.uleb128 0x7
 1852 06bc 72313000 		.ascii	"r10\000"
 1853 06c0 0B       		.byte	0xb
 1854 06c1 1601     		.2byte	0x116
 1855 06c3 38060000 		.4byte	0x638
 1856 06c7 18       		.byte	0x18
 1857 06c8 07       		.uleb128 0x7
 1858 06c9 72313100 		.ascii	"r11\000"
 1859 06cd 0B       		.byte	0xb
 1860 06ce 1701     		.2byte	0x117
 1861 06d0 38060000 		.4byte	0x638
 1862 06d4 1C       		.byte	0x1c
 1863 06d5 07       		.uleb128 0x7
 1864 06d6 6C7200   		.ascii	"lr\000"
 1865 06d9 0B       		.byte	0xb
 1866 06da 1801     		.2byte	0x118
 1867 06dc 38060000 		.4byte	0x638
 1868 06e0 20       		.byte	0x20
 1869 06e1 00       		.byte	0
 1870 06e2 09       		.uleb128 0x9
 1871 06e3 04       		.byte	0x4
 1872 06e4 67060000 		.4byte	0x667
 1873 06e8 13       		.uleb128 0x13
 1874 06e9 04       		.byte	0x4
 1875 06ea 0C       		.byte	0xc
 1876 06eb 38       		.byte	0x38
ARM GAS  /tmp/ccoY6B6t.s 			page 34


 1877 06ec FD060000 		.4byte	0x6fd
 1878 06f0 06       		.uleb128 0x6
 1879 06f1 17070000 		.4byte	.LASF115
 1880 06f5 0C       		.byte	0xc
 1881 06f6 3C       		.byte	0x3c
 1882 06f7 CE000000 		.4byte	0xce
 1883 06fb 00       		.byte	0
 1884 06fc 00       		.byte	0
 1885 06fd 04       		.uleb128 0x4
 1886 06fe DC030000 		.4byte	.LASF116
 1887 0702 0C       		.byte	0xc
 1888 0703 3D       		.byte	0x3d
 1889 0704 E8060000 		.4byte	0x6e8
 1890 0708 14       		.uleb128 0x14
 1891 0709 04       		.byte	0x4
 1892 070a 08       		.byte	0x8
 1893 070b FA       		.byte	0xfa
 1894 070c 71070000 		.4byte	0x771
 1895 0710 15       		.uleb128 0x15
 1896 0711 14000000 		.4byte	.LASF117
 1897 0715 08       		.byte	0x8
 1898 0716 0101     		.2byte	0x101
 1899 0718 10010000 		.4byte	0x110
 1900 071c 15       		.uleb128 0x15
 1901 071d BC000000 		.4byte	.LASF118
 1902 0721 08       		.byte	0x8
 1903 0722 0801     		.2byte	0x108
 1904 0724 10010000 		.4byte	0x110
 1905 0728 15       		.uleb128 0x15
 1906 0729 E2070000 		.4byte	.LASF119
 1907 072d 08       		.byte	0x8
 1908 072e 0F01     		.2byte	0x10f
 1909 0730 0F030000 		.4byte	0x30f
 1910 0734 15       		.uleb128 0x15
 1911 0735 6F010000 		.4byte	.LASF120
 1912 0739 08       		.byte	0x8
 1913 073a 1601     		.2byte	0x116
 1914 073c 71070000 		.4byte	0x771
 1915 0740 15       		.uleb128 0x15
 1916 0741 D0000000 		.4byte	.LASF121
 1917 0745 08       		.byte	0x8
 1918 0746 1B01     		.2byte	0x11b
 1919 0748 10010000 		.4byte	0x110
 1920 074c 15       		.uleb128 0x15
 1921 074d 41020000 		.4byte	.LASF122
 1922 0751 08       		.byte	0x8
 1923 0752 2401     		.2byte	0x124
 1924 0754 9C070000 		.4byte	0x79c
 1925 0758 15       		.uleb128 0x15
 1926 0759 86050000 		.4byte	.LASF123
 1927 075d 08       		.byte	0x8
 1928 075e 2D01     		.2byte	0x12d
 1929 0760 D3070000 		.4byte	0x7d3
 1930 0764 15       		.uleb128 0x15
 1931 0765 DF040000 		.4byte	.LASF124
 1932 0769 08       		.byte	0x8
 1933 076a 3501     		.2byte	0x135
ARM GAS  /tmp/ccoY6B6t.s 			page 35


 1934 076c 1B010000 		.4byte	0x11b
 1935 0770 00       		.byte	0
 1936 0771 09       		.uleb128 0x9
 1937 0772 04       		.byte	0x4
 1938 0773 27020000 		.4byte	0x227
 1939 0777 05       		.uleb128 0x5
 1940 0778 58050000 		.4byte	.LASF125
 1941 077c 0C       		.byte	0xc
 1942 077d 0D       		.byte	0xd
 1943 077e 34       		.byte	0x34
 1944 077f 9C070000 		.4byte	0x79c
 1945 0783 06       		.uleb128 0x6
 1946 0784 C9010000 		.4byte	.LASF126
 1947 0788 0D       		.byte	0xd
 1948 0789 35       		.byte	0x35
 1949 078a 5C020000 		.4byte	0x25c
 1950 078e 00       		.byte	0
 1951 078f 06       		.uleb128 0x6
 1952 0790 89020000 		.4byte	.LASF127
 1953 0794 0D       		.byte	0xd
 1954 0795 37       		.byte	0x37
 1955 0796 26010000 		.4byte	0x126
 1956 079a 08       		.byte	0x8
 1957 079b 00       		.byte	0
 1958 079c 09       		.uleb128 0x9
 1959 079d 04       		.byte	0x4
 1960 079e 77070000 		.4byte	0x777
 1961 07a2 05       		.uleb128 0x5
 1962 07a3 B2070000 		.4byte	.LASF128
 1963 07a7 10       		.byte	0x10
 1964 07a8 0E       		.byte	0xe
 1965 07a9 39       		.byte	0x39
 1966 07aa D3070000 		.4byte	0x7d3
 1967 07ae 06       		.uleb128 0x6
 1968 07af 3D010000 		.4byte	.LASF129
 1969 07b3 0E       		.byte	0xe
 1970 07b4 3A       		.byte	0x3a
 1971 07b5 5C020000 		.4byte	0x25c
 1972 07b9 00       		.byte	0
 1973 07ba 06       		.uleb128 0x6
 1974 07bb 05080000 		.4byte	.LASF130
 1975 07bf 0E       		.byte	0xe
 1976 07c0 3C       		.byte	0x3c
 1977 07c1 32020000 		.4byte	0x232
 1978 07c5 08       		.byte	0x8
 1979 07c6 06       		.uleb128 0x6
 1980 07c7 D7060000 		.4byte	.LASF131
 1981 07cb 0E       		.byte	0xe
 1982 07cc 3E       		.byte	0x3e
 1983 07cd 11080000 		.4byte	0x811
 1984 07d1 0C       		.byte	0xc
 1985 07d2 00       		.byte	0
 1986 07d3 09       		.uleb128 0x9
 1987 07d4 04       		.byte	0x4
 1988 07d5 A2070000 		.4byte	0x7a2
 1989 07d9 09       		.uleb128 0x9
 1990 07da 04       		.byte	0x4
ARM GAS  /tmp/ccoY6B6t.s 			page 36


 1991 07db DF070000 		.4byte	0x7df
 1992 07df 16       		.uleb128 0x16
 1993 07e0 E4070000 		.4byte	0x7e4
 1994 07e4 02       		.uleb128 0x2
 1995 07e5 01       		.byte	0x1
 1996 07e6 08       		.byte	0x8
 1997 07e7 E2050000 		.4byte	.LASF132
 1998 07eb 09       		.uleb128 0x9
 1999 07ec 04       		.byte	0x4
 2000 07ed 11030000 		.4byte	0x311
 2001 07f1 0F       		.uleb128 0xf
 2002 07f2 D9070000 		.4byte	0x7d9
 2003 07f6 17       		.uleb128 0x17
 2004 07f7 43060000 		.4byte	0x643
 2005 07fb 06080000 		.4byte	0x806
 2006 07ff 18       		.uleb128 0x18
 2007 0800 45040000 		.4byte	0x445
 2008 0804 1A       		.byte	0x1a
 2009 0805 00       		.byte	0
 2010 0806 04       		.uleb128 0x4
 2011 0807 01020000 		.4byte	.LASF133
 2012 080b 0E       		.byte	0xe
 2013 080c 34       		.byte	0x34
 2014 080d A2070000 		.4byte	0x7a2
 2015 0811 09       		.uleb128 0x9
 2016 0812 04       		.byte	0x4
 2017 0813 06080000 		.4byte	0x806
 2018 0817 02       		.uleb128 0x2
 2019 0818 01       		.byte	0x1
 2020 0819 02       		.byte	0x2
 2021 081a 8E040000 		.4byte	.LASF134
 2022 081e 17       		.uleb128 0x17
 2023 081f E4070000 		.4byte	0x7e4
 2024 0823 2E080000 		.4byte	0x82e
 2025 0827 18       		.uleb128 0x18
 2026 0828 45040000 		.4byte	0x445
 2027 082c 19       		.byte	0x19
 2028 082d 00       		.byte	0
 2029 082e 04       		.uleb128 0x4
 2030 082f B6040000 		.4byte	.LASF135
 2031 0833 0F       		.byte	0xf
 2032 0834 58       		.byte	0x58
 2033 0835 39080000 		.4byte	0x839
 2034 0839 05       		.uleb128 0x5
 2035 083a B6040000 		.4byte	.LASF135
 2036 083e 04       		.byte	0x4
 2037 083f 10       		.byte	0x10
 2038 0840 B6       		.byte	0xb6
 2039 0841 52080000 		.4byte	0x852
 2040 0845 12       		.uleb128 0x12
 2041 0846 72746300 		.ascii	"rtc\000"
 2042 084a 10       		.byte	0x10
 2043 084b C1       		.byte	0xc1
 2044 084c 0B090000 		.4byte	0x90b
 2045 0850 00       		.byte	0
 2046 0851 00       		.byte	0
 2047 0852 13       		.uleb128 0x13
ARM GAS  /tmp/ccoY6B6t.s 			page 37


 2048 0853 08       		.byte	0x8
 2049 0854 0F       		.byte	0xf
 2050 0855 5D       		.byte	0x5d
 2051 0856 B5080000 		.4byte	0x8b5
 2052 085a 19       		.uleb128 0x19
 2053 085b 6A010000 		.4byte	.LASF136
 2054 085f 0F       		.byte	0xf
 2055 0860 5F       		.byte	0x5f
 2056 0861 B8000000 		.4byte	0xb8
 2057 0865 04       		.byte	0x4
 2058 0866 08       		.byte	0x8
 2059 0867 18       		.byte	0x18
 2060 0868 00       		.byte	0
 2061 0869 19       		.uleb128 0x19
 2062 086a 28020000 		.4byte	.LASF137
 2063 086e 0F       		.byte	0xf
 2064 086f 60       		.byte	0x60
 2065 0870 B8000000 		.4byte	0xb8
 2066 0874 04       		.byte	0x4
 2067 0875 04       		.byte	0x4
 2068 0876 14       		.byte	0x14
 2069 0877 00       		.byte	0
 2070 0878 19       		.uleb128 0x19
 2071 0879 FB000000 		.4byte	.LASF138
 2072 087d 0F       		.byte	0xf
 2073 087e 61       		.byte	0x61
 2074 087f B8000000 		.4byte	0xb8
 2075 0883 04       		.byte	0x4
 2076 0884 01       		.byte	0x1
 2077 0885 13       		.byte	0x13
 2078 0886 00       		.byte	0
 2079 0887 19       		.uleb128 0x19
 2080 0888 98070000 		.4byte	.LASF139
 2081 088c 0F       		.byte	0xf
 2082 088d 62       		.byte	0x62
 2083 088e B8000000 		.4byte	0xb8
 2084 0892 04       		.byte	0x4
 2085 0893 03       		.byte	0x3
 2086 0894 10       		.byte	0x10
 2087 0895 00       		.byte	0
 2088 0896 1A       		.uleb128 0x1a
 2089 0897 64617900 		.ascii	"day\000"
 2090 089b 0F       		.byte	0xf
 2091 089c 63       		.byte	0x63
 2092 089d B8000000 		.4byte	0xb8
 2093 08a1 04       		.byte	0x4
 2094 08a2 05       		.byte	0x5
 2095 08a3 0B       		.byte	0xb
 2096 08a4 00       		.byte	0
 2097 08a5 19       		.uleb128 0x19
 2098 08a6 B4020000 		.4byte	.LASF140
 2099 08aa 0F       		.byte	0xf
 2100 08ab 64       		.byte	0x64
 2101 08ac B8000000 		.4byte	0xb8
 2102 08b0 04       		.byte	0x4
 2103 08b1 1B       		.byte	0x1b
 2104 08b2 05       		.byte	0x5
ARM GAS  /tmp/ccoY6B6t.s 			page 38


 2105 08b3 04       		.byte	0x4
 2106 08b4 00       		.byte	0
 2107 08b5 04       		.uleb128 0x4
 2108 08b6 5F030000 		.4byte	.LASF141
 2109 08ba 0F       		.byte	0xf
 2110 08bb 66       		.byte	0x66
 2111 08bc 52080000 		.4byte	0x852
 2112 08c0 04       		.uleb128 0x4
 2113 08c1 A8030000 		.4byte	.LASF142
 2114 08c5 10       		.byte	0x10
 2115 08c6 8F       		.byte	0x8f
 2116 08c7 B8000000 		.4byte	0xb8
 2117 08cb 13       		.uleb128 0x13
 2118 08cc 04       		.byte	0x4
 2119 08cd 10       		.byte	0x10
 2120 08ce 94       		.byte	0x94
 2121 08cf E0080000 		.4byte	0x8e0
 2122 08d3 06       		.uleb128 0x6
 2123 08d4 59030000 		.4byte	.LASF143
 2124 08d8 10       		.byte	0x10
 2125 08d9 98       		.byte	0x98
 2126 08da B8000000 		.4byte	0xb8
 2127 08de 00       		.byte	0
 2128 08df 00       		.byte	0
 2129 08e0 04       		.uleb128 0x4
 2130 08e1 C2070000 		.4byte	.LASF144
 2131 08e5 10       		.byte	0x10
 2132 08e6 99       		.byte	0x99
 2133 08e7 CB080000 		.4byte	0x8cb
 2134 08eb 13       		.uleb128 0x13
 2135 08ec 04       		.byte	0x4
 2136 08ed 10       		.byte	0x10
 2137 08ee 9F       		.byte	0x9f
 2138 08ef 00090000 		.4byte	0x900
 2139 08f3 06       		.uleb128 0x6
 2140 08f4 30010000 		.4byte	.LASF145
 2141 08f8 10       		.byte	0x10
 2142 08f9 A4       		.byte	0xa4
 2143 08fa B8000000 		.4byte	0xb8
 2144 08fe 00       		.byte	0
 2145 08ff 00       		.byte	0
 2146 0900 04       		.uleb128 0x4
 2147 0901 55000000 		.4byte	.LASF146
 2148 0905 10       		.byte	0x10
 2149 0906 A5       		.byte	0xa5
 2150 0907 EB080000 		.4byte	0x8eb
 2151 090b 09       		.uleb128 0x9
 2152 090c 04       		.byte	0x4
 2153 090d 2C060000 		.4byte	0x62c
 2154 0911 1B       		.uleb128 0x1b
 2155 0912 D1020000 		.4byte	.LASF147
 2156 0916 01       		.byte	0x1
 2157 0917 4B       		.byte	0x4b
 2158 0918 01       		.byte	0x1
 2159 0919 1B       		.uleb128 0x1b
 2160 091a 1B080000 		.4byte	.LASF148
 2161 091e 01       		.byte	0x1
ARM GAS  /tmp/ccoY6B6t.s 			page 39


 2162 091f 57       		.byte	0x57
 2163 0920 03       		.byte	0x3
 2164 0921 1C       		.uleb128 0x1c
 2165 0922 EC020000 		.4byte	.LASF172
 2166 0926 02       		.byte	0x2
 2167 0927 1E02     		.2byte	0x21e
 2168 0929 D9000000 		.4byte	0xd9
 2169 092d 03       		.byte	0x3
 2170 092e 1D       		.uleb128 0x1d
 2171 092f 75070000 		.4byte	.LASF155
 2172 0933 02       		.byte	0x2
 2173 0934 2C02     		.2byte	0x22c
 2174 0936 03       		.byte	0x3
 2175 0937 48090000 		.4byte	0x948
 2176 093b 1E       		.uleb128 0x1e
 2177 093c 73747300 		.ascii	"sts\000"
 2178 0940 02       		.byte	0x2
 2179 0941 2C02     		.2byte	0x22c
 2180 0943 D9000000 		.4byte	0xd9
 2181 0947 00       		.byte	0
 2182 0948 1F       		.uleb128 0x1f
 2183 0949 45010000 		.4byte	.LASF152
 2184 094d 01       		.byte	0x1
 2185 094e 2601     		.2byte	0x126
 2186 0950 00000000 		.4byte	.LFB278
 2187 0954 5C000000 		.4byte	.LFE278-.LFB278
 2188 0958 01       		.uleb128 0x1
 2189 0959 9C       		.byte	0x9c
 2190 095a 8F090000 		.4byte	0x98f
 2191 095e 20       		.uleb128 0x20
 2192 095f 11090000 		.4byte	0x911
 2193 0963 1C000000 		.4byte	.LBB30
 2194 0967 00000000 		.4byte	.Ldebug_ranges0+0
 2195 096b 01       		.byte	0x1
 2196 096c 3601     		.2byte	0x136
 2197 096e 21       		.uleb128 0x21
 2198 096f 19090000 		.4byte	0x919
 2199 0973 3E000000 		.4byte	.LBB34
 2200 0977 0A000000 		.4byte	.LBE34-.LBB34
 2201 097b 01       		.byte	0x1
 2202 097c 3D01     		.2byte	0x13d
 2203 097e 22       		.uleb128 0x22
 2204 097f 0A000000 		.4byte	.LVL0
 2205 0983 DA0E0000 		.4byte	0xeda
 2206 0987 23       		.uleb128 0x23
 2207 0988 01       		.uleb128 0x1
 2208 0989 50       		.byte	0x50
 2209 098a 02       		.uleb128 0x2
 2210 098b 74       		.byte	0x74
 2211 098c 00       		.sleb128 0
 2212 098d 00       		.byte	0
 2213 098e 00       		.byte	0
 2214 098f 24       		.uleb128 0x24
 2215 0990 75010000 		.4byte	.LASF150
 2216 0994 01       		.byte	0x1
 2217 0995 8B       		.byte	0x8b
 2218 0996 B8000000 		.4byte	0xb8
ARM GAS  /tmp/ccoY6B6t.s 			page 40


 2219 099a 01       		.byte	0x1
 2220 099b BE090000 		.4byte	0x9be
 2221 099f 25       		.uleb128 0x25
 2222 09a0 51020000 		.4byte	.LASF149
 2223 09a4 01       		.byte	0x1
 2224 09a5 8B       		.byte	0x8b
 2225 09a6 BE090000 		.4byte	0x9be
 2226 09aa 26       		.uleb128 0x26
 2227 09ab 6E00     		.ascii	"n\000"
 2228 09ad 01       		.byte	0x1
 2229 09ae 8C       		.byte	0x8c
 2230 09af B8000000 		.4byte	0xb8
 2231 09b3 26       		.uleb128 0x26
 2232 09b4 747200   		.ascii	"tr\000"
 2233 09b7 01       		.byte	0x1
 2234 09b8 8C       		.byte	0x8c
 2235 09b9 B8000000 		.4byte	0xb8
 2236 09bd 00       		.byte	0
 2237 09be 09       		.uleb128 0x9
 2238 09bf 04       		.byte	0x4
 2239 09c0 C4090000 		.4byte	0x9c4
 2240 09c4 16       		.uleb128 0x16
 2241 09c5 B5080000 		.4byte	0x8b5
 2242 09c9 24       		.uleb128 0x24
 2243 09ca 18020000 		.4byte	.LASF151
 2244 09ce 01       		.byte	0x1
 2245 09cf AD       		.byte	0xad
 2246 09d0 B8000000 		.4byte	0xb8
 2247 09d4 01       		.byte	0x1
 2248 09d5 F8090000 		.4byte	0x9f8
 2249 09d9 25       		.uleb128 0x25
 2250 09da 51020000 		.4byte	.LASF149
 2251 09de 01       		.byte	0x1
 2252 09df AD       		.byte	0xad
 2253 09e0 BE090000 		.4byte	0x9be
 2254 09e4 26       		.uleb128 0x26
 2255 09e5 6E00     		.ascii	"n\000"
 2256 09e7 01       		.byte	0x1
 2257 09e8 AE       		.byte	0xae
 2258 09e9 B8000000 		.4byte	0xb8
 2259 09ed 26       		.uleb128 0x26
 2260 09ee 647200   		.ascii	"dr\000"
 2261 09f1 01       		.byte	0x1
 2262 09f2 AE       		.byte	0xae
 2263 09f3 B8000000 		.4byte	0xb8
 2264 09f7 00       		.byte	0
 2265 09f8 1F       		.uleb128 0x1f
 2266 09f9 64070000 		.4byte	.LASF153
 2267 09fd 01       		.byte	0x1
 2268 09fe 4E01     		.2byte	0x14e
 2269 0a00 00000000 		.4byte	.LFB279
 2270 0a04 2C010000 		.4byte	.LFE279-.LFB279
 2271 0a08 01       		.uleb128 0x1
 2272 0a09 9C       		.byte	0x9c
 2273 0a0a 230B0000 		.4byte	0xb23
 2274 0a0e 27       		.uleb128 0x27
 2275 0a0f 65020000 		.4byte	.LASF154
ARM GAS  /tmp/ccoY6B6t.s 			page 41


 2276 0a13 01       		.byte	0x1
 2277 0a14 4E01     		.2byte	0x14e
 2278 0a16 230B0000 		.4byte	0xb23
 2279 0a1a 00000000 		.4byte	.LLST0
 2280 0a1e 27       		.uleb128 0x27
 2281 0a1f 51020000 		.4byte	.LASF149
 2282 0a23 01       		.byte	0x1
 2283 0a24 4E01     		.2byte	0x14e
 2284 0a26 BE090000 		.4byte	0x9be
 2285 0a2a 2C000000 		.4byte	.LLST1
 2286 0a2e 28       		.uleb128 0x28
 2287 0a2f 647200   		.ascii	"dr\000"
 2288 0a32 01       		.byte	0x1
 2289 0a33 4F01     		.2byte	0x14f
 2290 0a35 B8000000 		.4byte	0xb8
 2291 0a39 01       		.uleb128 0x1
 2292 0a3a 57       		.byte	0x57
 2293 0a3b 28       		.uleb128 0x28
 2294 0a3c 747200   		.ascii	"tr\000"
 2295 0a3f 01       		.byte	0x1
 2296 0a40 4F01     		.2byte	0x14f
 2297 0a42 B8000000 		.4byte	0xb8
 2298 0a46 01       		.uleb128 0x1
 2299 0a47 55       		.byte	0x55
 2300 0a48 29       		.uleb128 0x29
 2301 0a49 73747300 		.ascii	"sts\000"
 2302 0a4d 01       		.byte	0x1
 2303 0a4e 5001     		.2byte	0x150
 2304 0a50 D9000000 		.4byte	0xd9
 2305 0a54 2A       		.uleb128 0x2a
 2306 0a55 8F090000 		.4byte	0x98f
 2307 0a59 04000000 		.4byte	.LBB48
 2308 0a5d 18000000 		.4byte	.Ldebug_ranges0+0x18
 2309 0a61 01       		.byte	0x1
 2310 0a62 5201     		.2byte	0x152
 2311 0a64 8A0A0000 		.4byte	0xa8a
 2312 0a68 2B       		.uleb128 0x2b
 2313 0a69 9F090000 		.4byte	0x99f
 2314 0a6d 2C000000 		.4byte	.LLST1
 2315 0a71 2C       		.uleb128 0x2c
 2316 0a72 18000000 		.4byte	.Ldebug_ranges0+0x18
 2317 0a76 2D       		.uleb128 0x2d
 2318 0a77 AA090000 		.4byte	0x9aa
 2319 0a7b 4D000000 		.4byte	.LLST3
 2320 0a7f 2D       		.uleb128 0x2d
 2321 0a80 B3090000 		.4byte	0x9b3
 2322 0a84 04020000 		.4byte	.LLST4
 2323 0a88 00       		.byte	0
 2324 0a89 00       		.byte	0
 2325 0a8a 2A       		.uleb128 0x2a
 2326 0a8b C9090000 		.4byte	0x9c9
 2327 0a8f 08000000 		.4byte	.LBB70
 2328 0a93 C8000000 		.4byte	.Ldebug_ranges0+0xc8
 2329 0a97 01       		.byte	0x1
 2330 0a98 5301     		.2byte	0x153
 2331 0a9a C10A0000 		.4byte	0xac1
 2332 0a9e 2E       		.uleb128 0x2e
ARM GAS  /tmp/ccoY6B6t.s 			page 42


 2333 0a9f D9090000 		.4byte	0x9d9
 2334 0aa3 04       		.uleb128 0x4
 2335 0aa4 F3       		.byte	0xf3
 2336 0aa5 01       		.uleb128 0x1
 2337 0aa6 51       		.byte	0x51
 2338 0aa7 9F       		.byte	0x9f
 2339 0aa8 2C       		.uleb128 0x2c
 2340 0aa9 C8000000 		.4byte	.Ldebug_ranges0+0xc8
 2341 0aad 2D       		.uleb128 0x2d
 2342 0aae E4090000 		.4byte	0x9e4
 2343 0ab2 7F020000 		.4byte	.LLST5
 2344 0ab6 2D       		.uleb128 0x2d
 2345 0ab7 ED090000 		.4byte	0x9ed
 2346 0abb A6020000 		.4byte	.LLST6
 2347 0abf 00       		.byte	0
 2348 0ac0 00       		.byte	0
 2349 0ac1 2F       		.uleb128 0x2f
 2350 0ac2 21090000 		.4byte	0x921
 2351 0ac6 EC000000 		.4byte	.LBB132
 2352 0aca 04000000 		.4byte	.LBE132-.LBB132
 2353 0ace 01       		.byte	0x1
 2354 0acf 5601     		.2byte	0x156
 2355 0ad1 DF0A0000 		.4byte	0xadf
 2356 0ad5 30       		.uleb128 0x30
 2357 0ad6 F0000000 		.4byte	.LVL15
 2358 0ada EB0E0000 		.4byte	0xeeb
 2359 0ade 00       		.byte	0
 2360 0adf 21       		.uleb128 0x21
 2361 0ae0 11090000 		.4byte	0x911
 2362 0ae4 F0000000 		.4byte	.LBB134
 2363 0ae8 12000000 		.4byte	.LBE134-.LBB134
 2364 0aec 01       		.byte	0x1
 2365 0aed 5901     		.2byte	0x159
 2366 0aef 21       		.uleb128 0x21
 2367 0af0 19090000 		.4byte	0x919
 2368 0af4 08010000 		.4byte	.LBB136
 2369 0af8 08000000 		.4byte	.LBE136-.LBB136
 2370 0afc 01       		.byte	0x1
 2371 0afd 5C01     		.2byte	0x15c
 2372 0aff 31       		.uleb128 0x31
 2373 0b00 2E090000 		.4byte	0x92e
 2374 0b04 16010000 		.4byte	.LBB138
 2375 0b08 16000000 		.4byte	.LBE138-.LBB138
 2376 0b0c 01       		.byte	0x1
 2377 0b0d 5F01     		.2byte	0x15f
 2378 0b0f 2B       		.uleb128 0x2b
 2379 0b10 3B090000 		.4byte	0x93b
 2380 0b14 29030000 		.4byte	.LLST7
 2381 0b18 32       		.uleb128 0x32
 2382 0b19 1A010000 		.4byte	.LVL18
 2383 0b1d F70E0000 		.4byte	0xef7
 2384 0b21 00       		.byte	0
 2385 0b22 00       		.byte	0
 2386 0b23 09       		.uleb128 0x9
 2387 0b24 04       		.byte	0x4
 2388 0b25 2E080000 		.4byte	0x82e
 2389 0b29 33       		.uleb128 0x33
ARM GAS  /tmp/ccoY6B6t.s 			page 43


 2390 0b2a 38050000 		.4byte	.LASF156
 2391 0b2e 01       		.byte	0x1
 2392 0b2f 64       		.byte	0x64
 2393 0b30 01       		.byte	0x1
 2394 0b31 540B0000 		.4byte	0xb54
 2395 0b35 34       		.uleb128 0x34
 2396 0b36 747200   		.ascii	"tr\000"
 2397 0b39 01       		.byte	0x1
 2398 0b3a 64       		.byte	0x64
 2399 0b3b B8000000 		.4byte	0xb8
 2400 0b3f 25       		.uleb128 0x25
 2401 0b40 51020000 		.4byte	.LASF149
 2402 0b44 01       		.byte	0x1
 2403 0b45 64       		.byte	0x64
 2404 0b46 540B0000 		.4byte	0xb54
 2405 0b4a 26       		.uleb128 0x26
 2406 0b4b 6E00     		.ascii	"n\000"
 2407 0b4d 01       		.byte	0x1
 2408 0b4e 65       		.byte	0x65
 2409 0b4f B8000000 		.4byte	0xb8
 2410 0b53 00       		.byte	0
 2411 0b54 09       		.uleb128 0x9
 2412 0b55 04       		.byte	0x4
 2413 0b56 B5080000 		.4byte	0x8b5
 2414 0b5a 33       		.uleb128 0x33
 2415 0b5b 48050000 		.4byte	.LASF157
 2416 0b5f 01       		.byte	0x1
 2417 0b60 78       		.byte	0x78
 2418 0b61 01       		.byte	0x1
 2419 0b62 7C0B0000 		.4byte	0xb7c
 2420 0b66 34       		.uleb128 0x34
 2421 0b67 647200   		.ascii	"dr\000"
 2422 0b6a 01       		.byte	0x1
 2423 0b6b 78       		.byte	0x78
 2424 0b6c B8000000 		.4byte	0xb8
 2425 0b70 25       		.uleb128 0x25
 2426 0b71 51020000 		.4byte	.LASF149
 2427 0b75 01       		.byte	0x1
 2428 0b76 78       		.byte	0x78
 2429 0b77 540B0000 		.4byte	0xb54
 2430 0b7b 00       		.byte	0
 2431 0b7c 1F       		.uleb128 0x1f
 2432 0b7d C0020000 		.4byte	.LASF158
 2433 0b81 01       		.byte	0x1
 2434 0b82 6B01     		.2byte	0x16b
 2435 0b84 00000000 		.4byte	.LFB280
 2436 0b88 F0000000 		.4byte	.LFE280-.LFB280
 2437 0b8c 01       		.uleb128 0x1
 2438 0b8d 9C       		.byte	0x9c
 2439 0b8e 970C0000 		.4byte	0xc97
 2440 0b92 27       		.uleb128 0x27
 2441 0b93 65020000 		.4byte	.LASF154
 2442 0b97 01       		.byte	0x1
 2443 0b98 6B01     		.2byte	0x16b
 2444 0b9a 230B0000 		.4byte	0xb23
 2445 0b9e 3C030000 		.4byte	.LLST8
 2446 0ba2 27       		.uleb128 0x27
ARM GAS  /tmp/ccoY6B6t.s 			page 44


 2447 0ba3 51020000 		.4byte	.LASF149
 2448 0ba7 01       		.byte	0x1
 2449 0ba8 6B01     		.2byte	0x16b
 2450 0baa 540B0000 		.4byte	0xb54
 2451 0bae 68030000 		.4byte	.LLST9
 2452 0bb2 35       		.uleb128 0x35
 2453 0bb3 647200   		.ascii	"dr\000"
 2454 0bb6 01       		.byte	0x1
 2455 0bb7 6C01     		.2byte	0x16c
 2456 0bb9 B8000000 		.4byte	0xb8
 2457 0bbd 94030000 		.4byte	.LLST10
 2458 0bc1 35       		.uleb128 0x35
 2459 0bc2 747200   		.ascii	"tr\000"
 2460 0bc5 01       		.byte	0x1
 2461 0bc6 6C01     		.2byte	0x16c
 2462 0bc8 B8000000 		.4byte	0xb8
 2463 0bcc A7030000 		.4byte	.LLST11
 2464 0bd0 36       		.uleb128 0x36
 2465 0bd1 A0000000 		.4byte	.LASF159
 2466 0bd5 01       		.byte	0x1
 2467 0bd6 6D01     		.2byte	0x16d
 2468 0bd8 B8000000 		.4byte	0xb8
 2469 0bdc BA030000 		.4byte	.LLST12
 2470 0be0 35       		.uleb128 0x35
 2471 0be1 73737200 		.ascii	"ssr\000"
 2472 0be5 01       		.byte	0x1
 2473 0be6 6F01     		.2byte	0x16f
 2474 0be8 B8000000 		.4byte	0xb8
 2475 0bec D9030000 		.4byte	.LLST13
 2476 0bf0 29       		.uleb128 0x29
 2477 0bf1 73747300 		.ascii	"sts\000"
 2478 0bf5 01       		.byte	0x1
 2479 0bf6 7101     		.2byte	0x171
 2480 0bf8 D9000000 		.4byte	0xd9
 2481 0bfc 2F       		.uleb128 0x2f
 2482 0bfd 21090000 		.4byte	0x921
 2483 0c01 08000000 		.4byte	.LBB148
 2484 0c05 06000000 		.4byte	.LBE148-.LBB148
 2485 0c09 01       		.byte	0x1
 2486 0c0a 7401     		.2byte	0x174
 2487 0c0c 1A0C0000 		.4byte	0xc1a
 2488 0c10 30       		.uleb128 0x30
 2489 0c11 0C000000 		.4byte	.LVL20
 2490 0c15 EB0E0000 		.4byte	0xeeb
 2491 0c19 00       		.byte	0
 2492 0c1a 2A       		.uleb128 0x2a
 2493 0c1b 290B0000 		.4byte	0xb29
 2494 0c1f 1E000000 		.4byte	.LBB150
 2495 0c23 78010000 		.4byte	.Ldebug_ranges0+0x178
 2496 0c27 01       		.byte	0x1
 2497 0c28 8601     		.2byte	0x186
 2498 0c2a 500C0000 		.4byte	0xc50
 2499 0c2e 2B       		.uleb128 0x2b
 2500 0c2f 3F0B0000 		.4byte	0xb3f
 2501 0c33 EC030000 		.4byte	.LLST14
 2502 0c37 2B       		.uleb128 0x2b
 2503 0c38 350B0000 		.4byte	0xb35
ARM GAS  /tmp/ccoY6B6t.s 			page 45


 2504 0c3c 0D040000 		.4byte	.LLST15
 2505 0c40 2C       		.uleb128 0x2c
 2506 0c41 78010000 		.4byte	.Ldebug_ranges0+0x178
 2507 0c45 2D       		.uleb128 0x2d
 2508 0c46 4A0B0000 		.4byte	0xb4a
 2509 0c4a 20040000 		.4byte	.LLST16
 2510 0c4e 00       		.byte	0
 2511 0c4f 00       		.byte	0
 2512 0c50 2F       		.uleb128 0x2f
 2513 0c51 2E090000 		.4byte	0x92e
 2514 0c55 2C000000 		.4byte	.LBB158
 2515 0c59 04000000 		.4byte	.LBE158-.LBB158
 2516 0c5d 01       		.byte	0x1
 2517 0c5e 8201     		.2byte	0x182
 2518 0c60 770C0000 		.4byte	0xc77
 2519 0c64 2B       		.uleb128 0x2b
 2520 0c65 3B090000 		.4byte	0x93b
 2521 0c69 F5040000 		.4byte	.LLST17
 2522 0c6d 30       		.uleb128 0x30
 2523 0c6e 30000000 		.4byte	.LVL25
 2524 0c72 F70E0000 		.4byte	0xef7
 2525 0c76 00       		.byte	0
 2526 0c77 37       		.uleb128 0x37
 2527 0c78 5A0B0000 		.4byte	0xb5a
 2528 0c7c 36000000 		.4byte	.LBB161
 2529 0c80 B8010000 		.4byte	.Ldebug_ranges0+0x1b8
 2530 0c84 01       		.byte	0x1
 2531 0c85 9201     		.2byte	0x192
 2532 0c87 2B       		.uleb128 0x2b
 2533 0c88 700B0000 		.4byte	0xb70
 2534 0c8c 08050000 		.4byte	.LLST18
 2535 0c90 38       		.uleb128 0x38
 2536 0c91 660B0000 		.4byte	0xb66
 2537 0c95 00       		.byte	0
 2538 0c96 00       		.byte	0
 2539 0c97 1F       		.uleb128 0x1f
 2540 0c98 8F020000 		.4byte	.LASF160
 2541 0c9c 01       		.byte	0x1
 2542 0c9d A201     		.2byte	0x1a2
 2543 0c9f 00000000 		.4byte	.LFB281
 2544 0ca3 50000000 		.4byte	.LFE281-.LFB281
 2545 0ca7 01       		.uleb128 0x1
 2546 0ca8 9C       		.byte	0x9c
 2547 0ca9 2B0D0000 		.4byte	0xd2b
 2548 0cad 27       		.uleb128 0x27
 2549 0cae 65020000 		.4byte	.LASF154
 2550 0cb2 01       		.byte	0x1
 2551 0cb3 A201     		.2byte	0x1a2
 2552 0cb5 230B0000 		.4byte	0xb23
 2553 0cb9 29050000 		.4byte	.LLST19
 2554 0cbd 27       		.uleb128 0x27
 2555 0cbe 78040000 		.4byte	.LASF161
 2556 0cc2 01       		.byte	0x1
 2557 0cc3 A301     		.2byte	0x1a3
 2558 0cc5 C0080000 		.4byte	0x8c0
 2559 0cc9 60050000 		.4byte	.LLST20
 2560 0ccd 27       		.uleb128 0x27
ARM GAS  /tmp/ccoY6B6t.s 			page 46


 2561 0cce B7010000 		.4byte	.LASF162
 2562 0cd2 01       		.byte	0x1
 2563 0cd3 A401     		.2byte	0x1a4
 2564 0cd5 2B0D0000 		.4byte	0xd2b
 2565 0cd9 97050000 		.4byte	.LLST21
 2566 0cdd 29       		.uleb128 0x29
 2567 0cde 73747300 		.ascii	"sts\000"
 2568 0ce2 01       		.byte	0x1
 2569 0ce3 A501     		.2byte	0x1a5
 2570 0ce5 D9000000 		.4byte	0xd9
 2571 0ce9 2F       		.uleb128 0x2f
 2572 0cea 21090000 		.4byte	0x921
 2573 0cee 08000000 		.4byte	.LBB188
 2574 0cf2 04000000 		.4byte	.LBE188-.LBB188
 2575 0cf6 01       		.byte	0x1
 2576 0cf7 A801     		.2byte	0x1a8
 2577 0cf9 070D0000 		.4byte	0xd07
 2578 0cfd 30       		.uleb128 0x30
 2579 0cfe 0C000000 		.4byte	.LVL36
 2580 0d02 EB0E0000 		.4byte	0xeeb
 2581 0d06 00       		.byte	0
 2582 0d07 31       		.uleb128 0x31
 2583 0d08 2E090000 		.4byte	0x92e
 2584 0d0c 38000000 		.4byte	.LBB190
 2585 0d10 04000000 		.4byte	.LBE190-.LBB190
 2586 0d14 01       		.byte	0x1
 2587 0d15 CA01     		.2byte	0x1ca
 2588 0d17 2B       		.uleb128 0x2b
 2589 0d18 3B090000 		.4byte	0x93b
 2590 0d1c CE050000 		.4byte	.LLST22
 2591 0d20 32       		.uleb128 0x32
 2592 0d21 3C000000 		.4byte	.LVL39
 2593 0d25 F70E0000 		.4byte	0xef7
 2594 0d29 00       		.byte	0
 2595 0d2a 00       		.byte	0
 2596 0d2b 09       		.uleb128 0x9
 2597 0d2c 04       		.byte	0x4
 2598 0d2d 310D0000 		.4byte	0xd31
 2599 0d31 16       		.uleb128 0x16
 2600 0d32 E0080000 		.4byte	0x8e0
 2601 0d36 1F       		.uleb128 0x1f
 2602 0d37 1F040000 		.4byte	.LASF163
 2603 0d3b 01       		.byte	0x1
 2604 0d3c D701     		.2byte	0x1d7
 2605 0d3e 00000000 		.4byte	.LFB282
 2606 0d42 0A000000 		.4byte	.LFE282-.LFB282
 2607 0d46 01       		.uleb128 0x1
 2608 0d47 9C       		.byte	0x9c
 2609 0d48 770D0000 		.4byte	0xd77
 2610 0d4c 39       		.uleb128 0x39
 2611 0d4d 65020000 		.4byte	.LASF154
 2612 0d51 01       		.byte	0x1
 2613 0d52 D701     		.2byte	0x1d7
 2614 0d54 230B0000 		.4byte	0xb23
 2615 0d58 01       		.uleb128 0x1
 2616 0d59 50       		.byte	0x50
 2617 0d5a 39       		.uleb128 0x39
ARM GAS  /tmp/ccoY6B6t.s 			page 47


 2618 0d5b 78040000 		.4byte	.LASF161
 2619 0d5f 01       		.byte	0x1
 2620 0d60 D801     		.2byte	0x1d8
 2621 0d62 C0080000 		.4byte	0x8c0
 2622 0d66 01       		.uleb128 0x1
 2623 0d67 51       		.byte	0x51
 2624 0d68 39       		.uleb128 0x39
 2625 0d69 B7010000 		.4byte	.LASF162
 2626 0d6d 01       		.byte	0x1
 2627 0d6e D901     		.2byte	0x1d9
 2628 0d70 770D0000 		.4byte	0xd77
 2629 0d74 01       		.uleb128 0x1
 2630 0d75 52       		.byte	0x52
 2631 0d76 00       		.byte	0
 2632 0d77 09       		.uleb128 0x9
 2633 0d78 04       		.byte	0x4
 2634 0d79 E0080000 		.4byte	0x8e0
 2635 0d7d 1F       		.uleb128 0x1f
 2636 0d7e 9C040000 		.4byte	.LASF164
 2637 0d82 01       		.byte	0x1
 2638 0d83 EF01     		.2byte	0x1ef
 2639 0d85 00000000 		.4byte	.LFB283
 2640 0d89 5A000000 		.4byte	.LFE283-.LFB283
 2641 0d8d 01       		.uleb128 0x1
 2642 0d8e 9C       		.byte	0x9c
 2643 0d8f 130E0000 		.4byte	0xe13
 2644 0d93 27       		.uleb128 0x27
 2645 0d94 65020000 		.4byte	.LASF154
 2646 0d98 01       		.byte	0x1
 2647 0d99 EF01     		.2byte	0x1ef
 2648 0d9b 230B0000 		.4byte	0xb23
 2649 0d9f E1050000 		.4byte	.LLST23
 2650 0da3 27       		.uleb128 0x27
 2651 0da4 5F010000 		.4byte	.LASF165
 2652 0da8 01       		.byte	0x1
 2653 0da9 EF01     		.2byte	0x1ef
 2654 0dab 130E0000 		.4byte	0xe13
 2655 0daf 26060000 		.4byte	.LLST24
 2656 0db3 29       		.uleb128 0x29
 2657 0db4 73747300 		.ascii	"sts\000"
 2658 0db8 01       		.byte	0x1
 2659 0db9 F001     		.2byte	0x1f0
 2660 0dbb D9000000 		.4byte	0xd9
 2661 0dbf 3A       		.uleb128 0x3a
 2662 0dc0 1F050000 		.4byte	.LASF173
 2663 0dc4 1E0E0000 		.4byte	0xe1e
 2664 0dc8 2F       		.uleb128 0x2f
 2665 0dc9 21090000 		.4byte	0x921
 2666 0dcd 06000000 		.4byte	.LBB192
 2667 0dd1 04000000 		.4byte	.LBE192-.LBB192
 2668 0dd5 01       		.byte	0x1
 2669 0dd6 F301     		.2byte	0x1f3
 2670 0dd8 E60D0000 		.4byte	0xde6
 2671 0ddc 30       		.uleb128 0x30
 2672 0ddd 0A000000 		.4byte	.LVL42
 2673 0de1 EB0E0000 		.4byte	0xeeb
 2674 0de5 00       		.byte	0
ARM GAS  /tmp/ccoY6B6t.s 			page 48


 2675 0de6 37       		.uleb128 0x37
 2676 0de7 2E090000 		.4byte	0x92e
 2677 0deb 3C000000 		.4byte	.LBB194
 2678 0def 18020000 		.4byte	.Ldebug_ranges0+0x218
 2679 0df3 01       		.byte	0x1
 2680 0df4 0602     		.2byte	0x206
 2681 0df6 2B       		.uleb128 0x2b
 2682 0df7 3B090000 		.4byte	0x93b
 2683 0dfb 6B060000 		.4byte	.LLST25
 2684 0dff 32       		.uleb128 0x32
 2685 0e00 40000000 		.4byte	.LVL45
 2686 0e04 F70E0000 		.4byte	0xef7
 2687 0e08 32       		.uleb128 0x32
 2688 0e09 5A000000 		.4byte	.LVL48
 2689 0e0d F70E0000 		.4byte	0xef7
 2690 0e11 00       		.byte	0
 2691 0e12 00       		.byte	0
 2692 0e13 09       		.uleb128 0x9
 2693 0e14 04       		.byte	0x4
 2694 0e15 190E0000 		.4byte	0xe19
 2695 0e19 16       		.uleb128 0x16
 2696 0e1a 00090000 		.4byte	0x900
 2697 0e1e 16       		.uleb128 0x16
 2698 0e1f 1E080000 		.4byte	0x81e
 2699 0e23 1F       		.uleb128 0x1f
 2700 0e24 9D010000 		.4byte	.LASF166
 2701 0e28 01       		.byte	0x1
 2702 0e29 1302     		.2byte	0x213
 2703 0e2b 00000000 		.4byte	.LFB284
 2704 0e2f 22000000 		.4byte	.LFE284-.LFB284
 2705 0e33 01       		.uleb128 0x1
 2706 0e34 9C       		.byte	0x9c
 2707 0e35 A70E0000 		.4byte	0xea7
 2708 0e39 27       		.uleb128 0x27
 2709 0e3a 65020000 		.4byte	.LASF154
 2710 0e3e 01       		.byte	0x1
 2711 0e3f 1302     		.2byte	0x213
 2712 0e41 230B0000 		.4byte	0xb23
 2713 0e45 89060000 		.4byte	.LLST26
 2714 0e49 27       		.uleb128 0x27
 2715 0e4a 5F010000 		.4byte	.LASF165
 2716 0e4e 01       		.byte	0x1
 2717 0e4f 1302     		.2byte	0x213
 2718 0e51 A70E0000 		.4byte	0xea7
 2719 0e55 B5060000 		.4byte	.LLST27
 2720 0e59 29       		.uleb128 0x29
 2721 0e5a 73747300 		.ascii	"sts\000"
 2722 0e5e 01       		.byte	0x1
 2723 0e5f 1402     		.2byte	0x214
 2724 0e61 D9000000 		.4byte	0xd9
 2725 0e65 2F       		.uleb128 0x2f
 2726 0e66 21090000 		.4byte	0x921
 2727 0e6a 06000000 		.4byte	.LBB198
 2728 0e6e 04000000 		.4byte	.LBE198-.LBB198
 2729 0e72 01       		.byte	0x1
 2730 0e73 1702     		.2byte	0x217
 2731 0e75 830E0000 		.4byte	0xe83
ARM GAS  /tmp/ccoY6B6t.s 			page 49


 2732 0e79 30       		.uleb128 0x30
 2733 0e7a 0A000000 		.4byte	.LVL50
 2734 0e7e EB0E0000 		.4byte	0xeeb
 2735 0e82 00       		.byte	0
 2736 0e83 31       		.uleb128 0x31
 2737 0e84 2E090000 		.4byte	0x92e
 2738 0e88 1E000000 		.4byte	.LBB200
 2739 0e8c 04000000 		.4byte	.LBE200-.LBB200
 2740 0e90 01       		.byte	0x1
 2741 0e91 1E02     		.2byte	0x21e
 2742 0e93 2B       		.uleb128 0x2b
 2743 0e94 3B090000 		.4byte	0x93b
 2744 0e98 E1060000 		.4byte	.LLST28
 2745 0e9c 32       		.uleb128 0x32
 2746 0e9d 22000000 		.4byte	.LVL53
 2747 0ea1 F70E0000 		.4byte	0xef7
 2748 0ea5 00       		.byte	0
 2749 0ea6 00       		.byte	0
 2750 0ea7 09       		.uleb128 0x9
 2751 0ea8 04       		.byte	0x4
 2752 0ea9 00090000 		.4byte	0x900
 2753 0ead 3B       		.uleb128 0x3b
 2754 0eae EE000000 		.4byte	.LASF167
 2755 0eb2 11       		.byte	0x11
 2756 0eb3 FA06     		.2byte	0x6fa
 2757 0eb5 B90E0000 		.4byte	0xeb9
 2758 0eb9 0F       		.uleb128 0xf
 2759 0eba AD000000 		.4byte	0xad
 2760 0ebe 3C       		.uleb128 0x3c
 2761 0ebf 636800   		.ascii	"ch\000"
 2762 0ec2 08       		.byte	0x8
 2763 0ec3 0B02     		.2byte	0x20b
 2764 0ec5 DE030000 		.4byte	0x3de
 2765 0ec9 3D       		.uleb128 0x3d
 2766 0eca C0040000 		.4byte	.LASF168
 2767 0ece 01       		.byte	0x1
 2768 0ecf 3C       		.byte	0x3c
 2769 0ed0 2E080000 		.4byte	0x82e
 2770 0ed4 05       		.uleb128 0x5
 2771 0ed5 03       		.byte	0x3
 2772 0ed6 00000000 		.4byte	RTCD1
 2773 0eda 3E       		.uleb128 0x3e
 2774 0edb F3010000 		.4byte	.LASF174
 2775 0edf 0F       		.byte	0xf
 2776 0ee0 76       		.byte	0x76
 2777 0ee1 EB0E0000 		.4byte	0xeeb
 2778 0ee5 0C       		.uleb128 0xc
 2779 0ee6 230B0000 		.4byte	0xb23
 2780 0eea 00       		.byte	0
 2781 0eeb 3F       		.uleb128 0x3f
 2782 0eec B9050000 		.4byte	.LASF175
 2783 0ef0 12       		.byte	0x12
 2784 0ef1 1901     		.2byte	0x119
 2785 0ef3 D9000000 		.4byte	0xd9
 2786 0ef7 40       		.uleb128 0x40
 2787 0ef8 95050000 		.4byte	.LASF176
 2788 0efc 12       		.byte	0x12
ARM GAS  /tmp/ccoY6B6t.s 			page 50


 2789 0efd 1A01     		.2byte	0x11a
 2790 0eff 0C       		.uleb128 0xc
 2791 0f00 D9000000 		.4byte	0xd9
 2792 0f04 00       		.byte	0
 2793 0f05 00       		.byte	0
 2794              		.section	.debug_abbrev,"",%progbits
 2795              	.Ldebug_abbrev0:
 2796 0000 01       		.uleb128 0x1
 2797 0001 11       		.uleb128 0x11
 2798 0002 01       		.byte	0x1
 2799 0003 25       		.uleb128 0x25
 2800 0004 0E       		.uleb128 0xe
 2801 0005 13       		.uleb128 0x13
 2802 0006 0B       		.uleb128 0xb
 2803 0007 03       		.uleb128 0x3
 2804 0008 0E       		.uleb128 0xe
 2805 0009 1B       		.uleb128 0x1b
 2806 000a 0E       		.uleb128 0xe
 2807 000b 55       		.uleb128 0x55
 2808 000c 17       		.uleb128 0x17
 2809 000d 11       		.uleb128 0x11
 2810 000e 01       		.uleb128 0x1
 2811 000f 10       		.uleb128 0x10
 2812 0010 17       		.uleb128 0x17
 2813 0011 00       		.byte	0
 2814 0012 00       		.byte	0
 2815 0013 02       		.uleb128 0x2
 2816 0014 24       		.uleb128 0x24
 2817 0015 00       		.byte	0
 2818 0016 0B       		.uleb128 0xb
 2819 0017 0B       		.uleb128 0xb
 2820 0018 3E       		.uleb128 0x3e
 2821 0019 0B       		.uleb128 0xb
 2822 001a 03       		.uleb128 0x3
 2823 001b 0E       		.uleb128 0xe
 2824 001c 00       		.byte	0
 2825 001d 00       		.byte	0
 2826 001e 03       		.uleb128 0x3
 2827 001f 24       		.uleb128 0x24
 2828 0020 00       		.byte	0
 2829 0021 0B       		.uleb128 0xb
 2830 0022 0B       		.uleb128 0xb
 2831 0023 3E       		.uleb128 0x3e
 2832 0024 0B       		.uleb128 0xb
 2833 0025 03       		.uleb128 0x3
 2834 0026 08       		.uleb128 0x8
 2835 0027 00       		.byte	0
 2836 0028 00       		.byte	0
 2837 0029 04       		.uleb128 0x4
 2838 002a 16       		.uleb128 0x16
 2839 002b 00       		.byte	0
 2840 002c 03       		.uleb128 0x3
 2841 002d 0E       		.uleb128 0xe
 2842 002e 3A       		.uleb128 0x3a
 2843 002f 0B       		.uleb128 0xb
 2844 0030 3B       		.uleb128 0x3b
 2845 0031 0B       		.uleb128 0xb
ARM GAS  /tmp/ccoY6B6t.s 			page 51


 2846 0032 49       		.uleb128 0x49
 2847 0033 13       		.uleb128 0x13
 2848 0034 00       		.byte	0
 2849 0035 00       		.byte	0
 2850 0036 05       		.uleb128 0x5
 2851 0037 13       		.uleb128 0x13
 2852 0038 01       		.byte	0x1
 2853 0039 03       		.uleb128 0x3
 2854 003a 0E       		.uleb128 0xe
 2855 003b 0B       		.uleb128 0xb
 2856 003c 0B       		.uleb128 0xb
 2857 003d 3A       		.uleb128 0x3a
 2858 003e 0B       		.uleb128 0xb
 2859 003f 3B       		.uleb128 0x3b
 2860 0040 0B       		.uleb128 0xb
 2861 0041 01       		.uleb128 0x1
 2862 0042 13       		.uleb128 0x13
 2863 0043 00       		.byte	0
 2864 0044 00       		.byte	0
 2865 0045 06       		.uleb128 0x6
 2866 0046 0D       		.uleb128 0xd
 2867 0047 00       		.byte	0
 2868 0048 03       		.uleb128 0x3
 2869 0049 0E       		.uleb128 0xe
 2870 004a 3A       		.uleb128 0x3a
 2871 004b 0B       		.uleb128 0xb
 2872 004c 3B       		.uleb128 0x3b
 2873 004d 0B       		.uleb128 0xb
 2874 004e 49       		.uleb128 0x49
 2875 004f 13       		.uleb128 0x13
 2876 0050 38       		.uleb128 0x38
 2877 0051 0B       		.uleb128 0xb
 2878 0052 00       		.byte	0
 2879 0053 00       		.byte	0
 2880 0054 07       		.uleb128 0x7
 2881 0055 0D       		.uleb128 0xd
 2882 0056 00       		.byte	0
 2883 0057 03       		.uleb128 0x3
 2884 0058 08       		.uleb128 0x8
 2885 0059 3A       		.uleb128 0x3a
 2886 005a 0B       		.uleb128 0xb
 2887 005b 3B       		.uleb128 0x3b
 2888 005c 05       		.uleb128 0x5
 2889 005d 49       		.uleb128 0x49
 2890 005e 13       		.uleb128 0x13
 2891 005f 38       		.uleb128 0x38
 2892 0060 0B       		.uleb128 0xb
 2893 0061 00       		.byte	0
 2894 0062 00       		.byte	0
 2895 0063 08       		.uleb128 0x8
 2896 0064 0D       		.uleb128 0xd
 2897 0065 00       		.byte	0
 2898 0066 03       		.uleb128 0x3
 2899 0067 0E       		.uleb128 0xe
 2900 0068 3A       		.uleb128 0x3a
 2901 0069 0B       		.uleb128 0xb
 2902 006a 3B       		.uleb128 0x3b
ARM GAS  /tmp/ccoY6B6t.s 			page 52


 2903 006b 05       		.uleb128 0x5
 2904 006c 49       		.uleb128 0x49
 2905 006d 13       		.uleb128 0x13
 2906 006e 38       		.uleb128 0x38
 2907 006f 0B       		.uleb128 0xb
 2908 0070 00       		.byte	0
 2909 0071 00       		.byte	0
 2910 0072 09       		.uleb128 0x9
 2911 0073 0F       		.uleb128 0xf
 2912 0074 00       		.byte	0
 2913 0075 0B       		.uleb128 0xb
 2914 0076 0B       		.uleb128 0xb
 2915 0077 49       		.uleb128 0x49
 2916 0078 13       		.uleb128 0x13
 2917 0079 00       		.byte	0
 2918 007a 00       		.byte	0
 2919 007b 0A       		.uleb128 0xa
 2920 007c 13       		.uleb128 0x13
 2921 007d 01       		.byte	0x1
 2922 007e 03       		.uleb128 0x3
 2923 007f 0E       		.uleb128 0xe
 2924 0080 0B       		.uleb128 0xb
 2925 0081 0B       		.uleb128 0xb
 2926 0082 3A       		.uleb128 0x3a
 2927 0083 0B       		.uleb128 0xb
 2928 0084 3B       		.uleb128 0x3b
 2929 0085 05       		.uleb128 0x5
 2930 0086 01       		.uleb128 0x1
 2931 0087 13       		.uleb128 0x13
 2932 0088 00       		.byte	0
 2933 0089 00       		.byte	0
 2934 008a 0B       		.uleb128 0xb
 2935 008b 15       		.uleb128 0x15
 2936 008c 01       		.byte	0x1
 2937 008d 27       		.uleb128 0x27
 2938 008e 19       		.uleb128 0x19
 2939 008f 01       		.uleb128 0x1
 2940 0090 13       		.uleb128 0x13
 2941 0091 00       		.byte	0
 2942 0092 00       		.byte	0
 2943 0093 0C       		.uleb128 0xc
 2944 0094 05       		.uleb128 0x5
 2945 0095 00       		.byte	0
 2946 0096 49       		.uleb128 0x49
 2947 0097 13       		.uleb128 0x13
 2948 0098 00       		.byte	0
 2949 0099 00       		.byte	0
 2950 009a 0D       		.uleb128 0xd
 2951 009b 0F       		.uleb128 0xf
 2952 009c 00       		.byte	0
 2953 009d 0B       		.uleb128 0xb
 2954 009e 0B       		.uleb128 0xb
 2955 009f 00       		.byte	0
 2956 00a0 00       		.byte	0
 2957 00a1 0E       		.uleb128 0xe
 2958 00a2 13       		.uleb128 0x13
 2959 00a3 01       		.byte	0x1
ARM GAS  /tmp/ccoY6B6t.s 			page 53


 2960 00a4 03       		.uleb128 0x3
 2961 00a5 0E       		.uleb128 0xe
 2962 00a6 0B       		.uleb128 0xb
 2963 00a7 05       		.uleb128 0x5
 2964 00a8 3A       		.uleb128 0x3a
 2965 00a9 0B       		.uleb128 0xb
 2966 00aa 3B       		.uleb128 0x3b
 2967 00ab 05       		.uleb128 0x5
 2968 00ac 01       		.uleb128 0x1
 2969 00ad 13       		.uleb128 0x13
 2970 00ae 00       		.byte	0
 2971 00af 00       		.byte	0
 2972 00b0 0F       		.uleb128 0xf
 2973 00b1 35       		.uleb128 0x35
 2974 00b2 00       		.byte	0
 2975 00b3 49       		.uleb128 0x49
 2976 00b4 13       		.uleb128 0x13
 2977 00b5 00       		.byte	0
 2978 00b6 00       		.byte	0
 2979 00b7 10       		.uleb128 0x10
 2980 00b8 13       		.uleb128 0x13
 2981 00b9 01       		.byte	0x1
 2982 00ba 0B       		.uleb128 0xb
 2983 00bb 0B       		.uleb128 0xb
 2984 00bc 3A       		.uleb128 0x3a
 2985 00bd 0B       		.uleb128 0xb
 2986 00be 3B       		.uleb128 0x3b
 2987 00bf 05       		.uleb128 0x5
 2988 00c0 01       		.uleb128 0x1
 2989 00c1 13       		.uleb128 0x13
 2990 00c2 00       		.byte	0
 2991 00c3 00       		.byte	0
 2992 00c4 11       		.uleb128 0x11
 2993 00c5 16       		.uleb128 0x16
 2994 00c6 00       		.byte	0
 2995 00c7 03       		.uleb128 0x3
 2996 00c8 0E       		.uleb128 0xe
 2997 00c9 3A       		.uleb128 0x3a
 2998 00ca 0B       		.uleb128 0xb
 2999 00cb 3B       		.uleb128 0x3b
 3000 00cc 05       		.uleb128 0x5
 3001 00cd 49       		.uleb128 0x49
 3002 00ce 13       		.uleb128 0x13
 3003 00cf 00       		.byte	0
 3004 00d0 00       		.byte	0
 3005 00d1 12       		.uleb128 0x12
 3006 00d2 0D       		.uleb128 0xd
 3007 00d3 00       		.byte	0
 3008 00d4 03       		.uleb128 0x3
 3009 00d5 08       		.uleb128 0x8
 3010 00d6 3A       		.uleb128 0x3a
 3011 00d7 0B       		.uleb128 0xb
 3012 00d8 3B       		.uleb128 0x3b
 3013 00d9 0B       		.uleb128 0xb
 3014 00da 49       		.uleb128 0x49
 3015 00db 13       		.uleb128 0x13
 3016 00dc 38       		.uleb128 0x38
ARM GAS  /tmp/ccoY6B6t.s 			page 54


 3017 00dd 0B       		.uleb128 0xb
 3018 00de 00       		.byte	0
 3019 00df 00       		.byte	0
 3020 00e0 13       		.uleb128 0x13
 3021 00e1 13       		.uleb128 0x13
 3022 00e2 01       		.byte	0x1
 3023 00e3 0B       		.uleb128 0xb
 3024 00e4 0B       		.uleb128 0xb
 3025 00e5 3A       		.uleb128 0x3a
 3026 00e6 0B       		.uleb128 0xb
 3027 00e7 3B       		.uleb128 0x3b
 3028 00e8 0B       		.uleb128 0xb
 3029 00e9 01       		.uleb128 0x1
 3030 00ea 13       		.uleb128 0x13
 3031 00eb 00       		.byte	0
 3032 00ec 00       		.byte	0
 3033 00ed 14       		.uleb128 0x14
 3034 00ee 17       		.uleb128 0x17
 3035 00ef 01       		.byte	0x1
 3036 00f0 0B       		.uleb128 0xb
 3037 00f1 0B       		.uleb128 0xb
 3038 00f2 3A       		.uleb128 0x3a
 3039 00f3 0B       		.uleb128 0xb
 3040 00f4 3B       		.uleb128 0x3b
 3041 00f5 0B       		.uleb128 0xb
 3042 00f6 01       		.uleb128 0x1
 3043 00f7 13       		.uleb128 0x13
 3044 00f8 00       		.byte	0
 3045 00f9 00       		.byte	0
 3046 00fa 15       		.uleb128 0x15
 3047 00fb 0D       		.uleb128 0xd
 3048 00fc 00       		.byte	0
 3049 00fd 03       		.uleb128 0x3
 3050 00fe 0E       		.uleb128 0xe
 3051 00ff 3A       		.uleb128 0x3a
 3052 0100 0B       		.uleb128 0xb
 3053 0101 3B       		.uleb128 0x3b
 3054 0102 05       		.uleb128 0x5
 3055 0103 49       		.uleb128 0x49
 3056 0104 13       		.uleb128 0x13
 3057 0105 00       		.byte	0
 3058 0106 00       		.byte	0
 3059 0107 16       		.uleb128 0x16
 3060 0108 26       		.uleb128 0x26
 3061 0109 00       		.byte	0
 3062 010a 49       		.uleb128 0x49
 3063 010b 13       		.uleb128 0x13
 3064 010c 00       		.byte	0
 3065 010d 00       		.byte	0
 3066 010e 17       		.uleb128 0x17
 3067 010f 01       		.uleb128 0x1
 3068 0110 01       		.byte	0x1
 3069 0111 49       		.uleb128 0x49
 3070 0112 13       		.uleb128 0x13
 3071 0113 01       		.uleb128 0x1
 3072 0114 13       		.uleb128 0x13
 3073 0115 00       		.byte	0
ARM GAS  /tmp/ccoY6B6t.s 			page 55


 3074 0116 00       		.byte	0
 3075 0117 18       		.uleb128 0x18
 3076 0118 21       		.uleb128 0x21
 3077 0119 00       		.byte	0
 3078 011a 49       		.uleb128 0x49
 3079 011b 13       		.uleb128 0x13
 3080 011c 2F       		.uleb128 0x2f
 3081 011d 0B       		.uleb128 0xb
 3082 011e 00       		.byte	0
 3083 011f 00       		.byte	0
 3084 0120 19       		.uleb128 0x19
 3085 0121 0D       		.uleb128 0xd
 3086 0122 00       		.byte	0
 3087 0123 03       		.uleb128 0x3
 3088 0124 0E       		.uleb128 0xe
 3089 0125 3A       		.uleb128 0x3a
 3090 0126 0B       		.uleb128 0xb
 3091 0127 3B       		.uleb128 0x3b
 3092 0128 0B       		.uleb128 0xb
 3093 0129 49       		.uleb128 0x49
 3094 012a 13       		.uleb128 0x13
 3095 012b 0B       		.uleb128 0xb
 3096 012c 0B       		.uleb128 0xb
 3097 012d 0D       		.uleb128 0xd
 3098 012e 0B       		.uleb128 0xb
 3099 012f 0C       		.uleb128 0xc
 3100 0130 0B       		.uleb128 0xb
 3101 0131 38       		.uleb128 0x38
 3102 0132 0B       		.uleb128 0xb
 3103 0133 00       		.byte	0
 3104 0134 00       		.byte	0
 3105 0135 1A       		.uleb128 0x1a
 3106 0136 0D       		.uleb128 0xd
 3107 0137 00       		.byte	0
 3108 0138 03       		.uleb128 0x3
 3109 0139 08       		.uleb128 0x8
 3110 013a 3A       		.uleb128 0x3a
 3111 013b 0B       		.uleb128 0xb
 3112 013c 3B       		.uleb128 0x3b
 3113 013d 0B       		.uleb128 0xb
 3114 013e 49       		.uleb128 0x49
 3115 013f 13       		.uleb128 0x13
 3116 0140 0B       		.uleb128 0xb
 3117 0141 0B       		.uleb128 0xb
 3118 0142 0D       		.uleb128 0xd
 3119 0143 0B       		.uleb128 0xb
 3120 0144 0C       		.uleb128 0xc
 3121 0145 0B       		.uleb128 0xb
 3122 0146 38       		.uleb128 0x38
 3123 0147 0B       		.uleb128 0xb
 3124 0148 00       		.byte	0
 3125 0149 00       		.byte	0
 3126 014a 1B       		.uleb128 0x1b
 3127 014b 2E       		.uleb128 0x2e
 3128 014c 00       		.byte	0
 3129 014d 03       		.uleb128 0x3
 3130 014e 0E       		.uleb128 0xe
ARM GAS  /tmp/ccoY6B6t.s 			page 56


 3131 014f 3A       		.uleb128 0x3a
 3132 0150 0B       		.uleb128 0xb
 3133 0151 3B       		.uleb128 0x3b
 3134 0152 0B       		.uleb128 0xb
 3135 0153 27       		.uleb128 0x27
 3136 0154 19       		.uleb128 0x19
 3137 0155 20       		.uleb128 0x20
 3138 0156 0B       		.uleb128 0xb
 3139 0157 00       		.byte	0
 3140 0158 00       		.byte	0
 3141 0159 1C       		.uleb128 0x1c
 3142 015a 2E       		.uleb128 0x2e
 3143 015b 00       		.byte	0
 3144 015c 03       		.uleb128 0x3
 3145 015d 0E       		.uleb128 0xe
 3146 015e 3A       		.uleb128 0x3a
 3147 015f 0B       		.uleb128 0xb
 3148 0160 3B       		.uleb128 0x3b
 3149 0161 05       		.uleb128 0x5
 3150 0162 27       		.uleb128 0x27
 3151 0163 19       		.uleb128 0x19
 3152 0164 49       		.uleb128 0x49
 3153 0165 13       		.uleb128 0x13
 3154 0166 20       		.uleb128 0x20
 3155 0167 0B       		.uleb128 0xb
 3156 0168 00       		.byte	0
 3157 0169 00       		.byte	0
 3158 016a 1D       		.uleb128 0x1d
 3159 016b 2E       		.uleb128 0x2e
 3160 016c 01       		.byte	0x1
 3161 016d 03       		.uleb128 0x3
 3162 016e 0E       		.uleb128 0xe
 3163 016f 3A       		.uleb128 0x3a
 3164 0170 0B       		.uleb128 0xb
 3165 0171 3B       		.uleb128 0x3b
 3166 0172 05       		.uleb128 0x5
 3167 0173 27       		.uleb128 0x27
 3168 0174 19       		.uleb128 0x19
 3169 0175 20       		.uleb128 0x20
 3170 0176 0B       		.uleb128 0xb
 3171 0177 01       		.uleb128 0x1
 3172 0178 13       		.uleb128 0x13
 3173 0179 00       		.byte	0
 3174 017a 00       		.byte	0
 3175 017b 1E       		.uleb128 0x1e
 3176 017c 05       		.uleb128 0x5
 3177 017d 00       		.byte	0
 3178 017e 03       		.uleb128 0x3
 3179 017f 08       		.uleb128 0x8
 3180 0180 3A       		.uleb128 0x3a
 3181 0181 0B       		.uleb128 0xb
 3182 0182 3B       		.uleb128 0x3b
 3183 0183 05       		.uleb128 0x5
 3184 0184 49       		.uleb128 0x49
 3185 0185 13       		.uleb128 0x13
 3186 0186 00       		.byte	0
 3187 0187 00       		.byte	0
ARM GAS  /tmp/ccoY6B6t.s 			page 57


 3188 0188 1F       		.uleb128 0x1f
 3189 0189 2E       		.uleb128 0x2e
 3190 018a 01       		.byte	0x1
 3191 018b 3F       		.uleb128 0x3f
 3192 018c 19       		.uleb128 0x19
 3193 018d 03       		.uleb128 0x3
 3194 018e 0E       		.uleb128 0xe
 3195 018f 3A       		.uleb128 0x3a
 3196 0190 0B       		.uleb128 0xb
 3197 0191 3B       		.uleb128 0x3b
 3198 0192 05       		.uleb128 0x5
 3199 0193 27       		.uleb128 0x27
 3200 0194 19       		.uleb128 0x19
 3201 0195 11       		.uleb128 0x11
 3202 0196 01       		.uleb128 0x1
 3203 0197 12       		.uleb128 0x12
 3204 0198 06       		.uleb128 0x6
 3205 0199 40       		.uleb128 0x40
 3206 019a 18       		.uleb128 0x18
 3207 019b 9742     		.uleb128 0x2117
 3208 019d 19       		.uleb128 0x19
 3209 019e 01       		.uleb128 0x1
 3210 019f 13       		.uleb128 0x13
 3211 01a0 00       		.byte	0
 3212 01a1 00       		.byte	0
 3213 01a2 20       		.uleb128 0x20
 3214 01a3 1D       		.uleb128 0x1d
 3215 01a4 00       		.byte	0
 3216 01a5 31       		.uleb128 0x31
 3217 01a6 13       		.uleb128 0x13
 3218 01a7 52       		.uleb128 0x52
 3219 01a8 01       		.uleb128 0x1
 3220 01a9 55       		.uleb128 0x55
 3221 01aa 17       		.uleb128 0x17
 3222 01ab 58       		.uleb128 0x58
 3223 01ac 0B       		.uleb128 0xb
 3224 01ad 59       		.uleb128 0x59
 3225 01ae 05       		.uleb128 0x5
 3226 01af 00       		.byte	0
 3227 01b0 00       		.byte	0
 3228 01b1 21       		.uleb128 0x21
 3229 01b2 1D       		.uleb128 0x1d
 3230 01b3 00       		.byte	0
 3231 01b4 31       		.uleb128 0x31
 3232 01b5 13       		.uleb128 0x13
 3233 01b6 11       		.uleb128 0x11
 3234 01b7 01       		.uleb128 0x1
 3235 01b8 12       		.uleb128 0x12
 3236 01b9 06       		.uleb128 0x6
 3237 01ba 58       		.uleb128 0x58
 3238 01bb 0B       		.uleb128 0xb
 3239 01bc 59       		.uleb128 0x59
 3240 01bd 05       		.uleb128 0x5
 3241 01be 00       		.byte	0
 3242 01bf 00       		.byte	0
 3243 01c0 22       		.uleb128 0x22
 3244 01c1 898201   		.uleb128 0x4109
ARM GAS  /tmp/ccoY6B6t.s 			page 58


 3245 01c4 01       		.byte	0x1
 3246 01c5 11       		.uleb128 0x11
 3247 01c6 01       		.uleb128 0x1
 3248 01c7 31       		.uleb128 0x31
 3249 01c8 13       		.uleb128 0x13
 3250 01c9 00       		.byte	0
 3251 01ca 00       		.byte	0
 3252 01cb 23       		.uleb128 0x23
 3253 01cc 8A8201   		.uleb128 0x410a
 3254 01cf 00       		.byte	0
 3255 01d0 02       		.uleb128 0x2
 3256 01d1 18       		.uleb128 0x18
 3257 01d2 9142     		.uleb128 0x2111
 3258 01d4 18       		.uleb128 0x18
 3259 01d5 00       		.byte	0
 3260 01d6 00       		.byte	0
 3261 01d7 24       		.uleb128 0x24
 3262 01d8 2E       		.uleb128 0x2e
 3263 01d9 01       		.byte	0x1
 3264 01da 03       		.uleb128 0x3
 3265 01db 0E       		.uleb128 0xe
 3266 01dc 3A       		.uleb128 0x3a
 3267 01dd 0B       		.uleb128 0xb
 3268 01de 3B       		.uleb128 0x3b
 3269 01df 0B       		.uleb128 0xb
 3270 01e0 27       		.uleb128 0x27
 3271 01e1 19       		.uleb128 0x19
 3272 01e2 49       		.uleb128 0x49
 3273 01e3 13       		.uleb128 0x13
 3274 01e4 20       		.uleb128 0x20
 3275 01e5 0B       		.uleb128 0xb
 3276 01e6 01       		.uleb128 0x1
 3277 01e7 13       		.uleb128 0x13
 3278 01e8 00       		.byte	0
 3279 01e9 00       		.byte	0
 3280 01ea 25       		.uleb128 0x25
 3281 01eb 05       		.uleb128 0x5
 3282 01ec 00       		.byte	0
 3283 01ed 03       		.uleb128 0x3
 3284 01ee 0E       		.uleb128 0xe
 3285 01ef 3A       		.uleb128 0x3a
 3286 01f0 0B       		.uleb128 0xb
 3287 01f1 3B       		.uleb128 0x3b
 3288 01f2 0B       		.uleb128 0xb
 3289 01f3 49       		.uleb128 0x49
 3290 01f4 13       		.uleb128 0x13
 3291 01f5 00       		.byte	0
 3292 01f6 00       		.byte	0
 3293 01f7 26       		.uleb128 0x26
 3294 01f8 34       		.uleb128 0x34
 3295 01f9 00       		.byte	0
 3296 01fa 03       		.uleb128 0x3
 3297 01fb 08       		.uleb128 0x8
 3298 01fc 3A       		.uleb128 0x3a
 3299 01fd 0B       		.uleb128 0xb
 3300 01fe 3B       		.uleb128 0x3b
 3301 01ff 0B       		.uleb128 0xb
ARM GAS  /tmp/ccoY6B6t.s 			page 59


 3302 0200 49       		.uleb128 0x49
 3303 0201 13       		.uleb128 0x13
 3304 0202 00       		.byte	0
 3305 0203 00       		.byte	0
 3306 0204 27       		.uleb128 0x27
 3307 0205 05       		.uleb128 0x5
 3308 0206 00       		.byte	0
 3309 0207 03       		.uleb128 0x3
 3310 0208 0E       		.uleb128 0xe
 3311 0209 3A       		.uleb128 0x3a
 3312 020a 0B       		.uleb128 0xb
 3313 020b 3B       		.uleb128 0x3b
 3314 020c 05       		.uleb128 0x5
 3315 020d 49       		.uleb128 0x49
 3316 020e 13       		.uleb128 0x13
 3317 020f 02       		.uleb128 0x2
 3318 0210 17       		.uleb128 0x17
 3319 0211 00       		.byte	0
 3320 0212 00       		.byte	0
 3321 0213 28       		.uleb128 0x28
 3322 0214 34       		.uleb128 0x34
 3323 0215 00       		.byte	0
 3324 0216 03       		.uleb128 0x3
 3325 0217 08       		.uleb128 0x8
 3326 0218 3A       		.uleb128 0x3a
 3327 0219 0B       		.uleb128 0xb
 3328 021a 3B       		.uleb128 0x3b
 3329 021b 05       		.uleb128 0x5
 3330 021c 49       		.uleb128 0x49
 3331 021d 13       		.uleb128 0x13
 3332 021e 02       		.uleb128 0x2
 3333 021f 18       		.uleb128 0x18
 3334 0220 00       		.byte	0
 3335 0221 00       		.byte	0
 3336 0222 29       		.uleb128 0x29
 3337 0223 34       		.uleb128 0x34
 3338 0224 00       		.byte	0
 3339 0225 03       		.uleb128 0x3
 3340 0226 08       		.uleb128 0x8
 3341 0227 3A       		.uleb128 0x3a
 3342 0228 0B       		.uleb128 0xb
 3343 0229 3B       		.uleb128 0x3b
 3344 022a 05       		.uleb128 0x5
 3345 022b 49       		.uleb128 0x49
 3346 022c 13       		.uleb128 0x13
 3347 022d 00       		.byte	0
 3348 022e 00       		.byte	0
 3349 022f 2A       		.uleb128 0x2a
 3350 0230 1D       		.uleb128 0x1d
 3351 0231 01       		.byte	0x1
 3352 0232 31       		.uleb128 0x31
 3353 0233 13       		.uleb128 0x13
 3354 0234 52       		.uleb128 0x52
 3355 0235 01       		.uleb128 0x1
 3356 0236 55       		.uleb128 0x55
 3357 0237 17       		.uleb128 0x17
 3358 0238 58       		.uleb128 0x58
ARM GAS  /tmp/ccoY6B6t.s 			page 60


 3359 0239 0B       		.uleb128 0xb
 3360 023a 59       		.uleb128 0x59
 3361 023b 05       		.uleb128 0x5
 3362 023c 01       		.uleb128 0x1
 3363 023d 13       		.uleb128 0x13
 3364 023e 00       		.byte	0
 3365 023f 00       		.byte	0
 3366 0240 2B       		.uleb128 0x2b
 3367 0241 05       		.uleb128 0x5
 3368 0242 00       		.byte	0
 3369 0243 31       		.uleb128 0x31
 3370 0244 13       		.uleb128 0x13
 3371 0245 02       		.uleb128 0x2
 3372 0246 17       		.uleb128 0x17
 3373 0247 00       		.byte	0
 3374 0248 00       		.byte	0
 3375 0249 2C       		.uleb128 0x2c
 3376 024a 0B       		.uleb128 0xb
 3377 024b 01       		.byte	0x1
 3378 024c 55       		.uleb128 0x55
 3379 024d 17       		.uleb128 0x17
 3380 024e 00       		.byte	0
 3381 024f 00       		.byte	0
 3382 0250 2D       		.uleb128 0x2d
 3383 0251 34       		.uleb128 0x34
 3384 0252 00       		.byte	0
 3385 0253 31       		.uleb128 0x31
 3386 0254 13       		.uleb128 0x13
 3387 0255 02       		.uleb128 0x2
 3388 0256 17       		.uleb128 0x17
 3389 0257 00       		.byte	0
 3390 0258 00       		.byte	0
 3391 0259 2E       		.uleb128 0x2e
 3392 025a 05       		.uleb128 0x5
 3393 025b 00       		.byte	0
 3394 025c 31       		.uleb128 0x31
 3395 025d 13       		.uleb128 0x13
 3396 025e 02       		.uleb128 0x2
 3397 025f 18       		.uleb128 0x18
 3398 0260 00       		.byte	0
 3399 0261 00       		.byte	0
 3400 0262 2F       		.uleb128 0x2f
 3401 0263 1D       		.uleb128 0x1d
 3402 0264 01       		.byte	0x1
 3403 0265 31       		.uleb128 0x31
 3404 0266 13       		.uleb128 0x13
 3405 0267 11       		.uleb128 0x11
 3406 0268 01       		.uleb128 0x1
 3407 0269 12       		.uleb128 0x12
 3408 026a 06       		.uleb128 0x6
 3409 026b 58       		.uleb128 0x58
 3410 026c 0B       		.uleb128 0xb
 3411 026d 59       		.uleb128 0x59
 3412 026e 05       		.uleb128 0x5
 3413 026f 01       		.uleb128 0x1
 3414 0270 13       		.uleb128 0x13
 3415 0271 00       		.byte	0
ARM GAS  /tmp/ccoY6B6t.s 			page 61


 3416 0272 00       		.byte	0
 3417 0273 30       		.uleb128 0x30
 3418 0274 898201   		.uleb128 0x4109
 3419 0277 00       		.byte	0
 3420 0278 11       		.uleb128 0x11
 3421 0279 01       		.uleb128 0x1
 3422 027a 31       		.uleb128 0x31
 3423 027b 13       		.uleb128 0x13
 3424 027c 00       		.byte	0
 3425 027d 00       		.byte	0
 3426 027e 31       		.uleb128 0x31
 3427 027f 1D       		.uleb128 0x1d
 3428 0280 01       		.byte	0x1
 3429 0281 31       		.uleb128 0x31
 3430 0282 13       		.uleb128 0x13
 3431 0283 11       		.uleb128 0x11
 3432 0284 01       		.uleb128 0x1
 3433 0285 12       		.uleb128 0x12
 3434 0286 06       		.uleb128 0x6
 3435 0287 58       		.uleb128 0x58
 3436 0288 0B       		.uleb128 0xb
 3437 0289 59       		.uleb128 0x59
 3438 028a 05       		.uleb128 0x5
 3439 028b 00       		.byte	0
 3440 028c 00       		.byte	0
 3441 028d 32       		.uleb128 0x32
 3442 028e 898201   		.uleb128 0x4109
 3443 0291 00       		.byte	0
 3444 0292 11       		.uleb128 0x11
 3445 0293 01       		.uleb128 0x1
 3446 0294 9542     		.uleb128 0x2115
 3447 0296 19       		.uleb128 0x19
 3448 0297 31       		.uleb128 0x31
 3449 0298 13       		.uleb128 0x13
 3450 0299 00       		.byte	0
 3451 029a 00       		.byte	0
 3452 029b 33       		.uleb128 0x33
 3453 029c 2E       		.uleb128 0x2e
 3454 029d 01       		.byte	0x1
 3455 029e 03       		.uleb128 0x3
 3456 029f 0E       		.uleb128 0xe
 3457 02a0 3A       		.uleb128 0x3a
 3458 02a1 0B       		.uleb128 0xb
 3459 02a2 3B       		.uleb128 0x3b
 3460 02a3 0B       		.uleb128 0xb
 3461 02a4 27       		.uleb128 0x27
 3462 02a5 19       		.uleb128 0x19
 3463 02a6 20       		.uleb128 0x20
 3464 02a7 0B       		.uleb128 0xb
 3465 02a8 01       		.uleb128 0x1
 3466 02a9 13       		.uleb128 0x13
 3467 02aa 00       		.byte	0
 3468 02ab 00       		.byte	0
 3469 02ac 34       		.uleb128 0x34
 3470 02ad 05       		.uleb128 0x5
 3471 02ae 00       		.byte	0
 3472 02af 03       		.uleb128 0x3
ARM GAS  /tmp/ccoY6B6t.s 			page 62


 3473 02b0 08       		.uleb128 0x8
 3474 02b1 3A       		.uleb128 0x3a
 3475 02b2 0B       		.uleb128 0xb
 3476 02b3 3B       		.uleb128 0x3b
 3477 02b4 0B       		.uleb128 0xb
 3478 02b5 49       		.uleb128 0x49
 3479 02b6 13       		.uleb128 0x13
 3480 02b7 00       		.byte	0
 3481 02b8 00       		.byte	0
 3482 02b9 35       		.uleb128 0x35
 3483 02ba 34       		.uleb128 0x34
 3484 02bb 00       		.byte	0
 3485 02bc 03       		.uleb128 0x3
 3486 02bd 08       		.uleb128 0x8
 3487 02be 3A       		.uleb128 0x3a
 3488 02bf 0B       		.uleb128 0xb
 3489 02c0 3B       		.uleb128 0x3b
 3490 02c1 05       		.uleb128 0x5
 3491 02c2 49       		.uleb128 0x49
 3492 02c3 13       		.uleb128 0x13
 3493 02c4 02       		.uleb128 0x2
 3494 02c5 17       		.uleb128 0x17
 3495 02c6 00       		.byte	0
 3496 02c7 00       		.byte	0
 3497 02c8 36       		.uleb128 0x36
 3498 02c9 34       		.uleb128 0x34
 3499 02ca 00       		.byte	0
 3500 02cb 03       		.uleb128 0x3
 3501 02cc 0E       		.uleb128 0xe
 3502 02cd 3A       		.uleb128 0x3a
 3503 02ce 0B       		.uleb128 0xb
 3504 02cf 3B       		.uleb128 0x3b
 3505 02d0 05       		.uleb128 0x5
 3506 02d1 49       		.uleb128 0x49
 3507 02d2 13       		.uleb128 0x13
 3508 02d3 02       		.uleb128 0x2
 3509 02d4 17       		.uleb128 0x17
 3510 02d5 00       		.byte	0
 3511 02d6 00       		.byte	0
 3512 02d7 37       		.uleb128 0x37
 3513 02d8 1D       		.uleb128 0x1d
 3514 02d9 01       		.byte	0x1
 3515 02da 31       		.uleb128 0x31
 3516 02db 13       		.uleb128 0x13
 3517 02dc 52       		.uleb128 0x52
 3518 02dd 01       		.uleb128 0x1
 3519 02de 55       		.uleb128 0x55
 3520 02df 17       		.uleb128 0x17
 3521 02e0 58       		.uleb128 0x58
 3522 02e1 0B       		.uleb128 0xb
 3523 02e2 59       		.uleb128 0x59
 3524 02e3 05       		.uleb128 0x5
 3525 02e4 00       		.byte	0
 3526 02e5 00       		.byte	0
 3527 02e6 38       		.uleb128 0x38
 3528 02e7 05       		.uleb128 0x5
 3529 02e8 00       		.byte	0
ARM GAS  /tmp/ccoY6B6t.s 			page 63


 3530 02e9 31       		.uleb128 0x31
 3531 02ea 13       		.uleb128 0x13
 3532 02eb 00       		.byte	0
 3533 02ec 00       		.byte	0
 3534 02ed 39       		.uleb128 0x39
 3535 02ee 05       		.uleb128 0x5
 3536 02ef 00       		.byte	0
 3537 02f0 03       		.uleb128 0x3
 3538 02f1 0E       		.uleb128 0xe
 3539 02f2 3A       		.uleb128 0x3a
 3540 02f3 0B       		.uleb128 0xb
 3541 02f4 3B       		.uleb128 0x3b
 3542 02f5 05       		.uleb128 0x5
 3543 02f6 49       		.uleb128 0x49
 3544 02f7 13       		.uleb128 0x13
 3545 02f8 02       		.uleb128 0x2
 3546 02f9 18       		.uleb128 0x18
 3547 02fa 00       		.byte	0
 3548 02fb 00       		.byte	0
 3549 02fc 3A       		.uleb128 0x3a
 3550 02fd 34       		.uleb128 0x34
 3551 02fe 00       		.byte	0
 3552 02ff 03       		.uleb128 0x3
 3553 0300 0E       		.uleb128 0xe
 3554 0301 49       		.uleb128 0x49
 3555 0302 13       		.uleb128 0x13
 3556 0303 34       		.uleb128 0x34
 3557 0304 19       		.uleb128 0x19
 3558 0305 00       		.byte	0
 3559 0306 00       		.byte	0
 3560 0307 3B       		.uleb128 0x3b
 3561 0308 34       		.uleb128 0x34
 3562 0309 00       		.byte	0
 3563 030a 03       		.uleb128 0x3
 3564 030b 0E       		.uleb128 0xe
 3565 030c 3A       		.uleb128 0x3a
 3566 030d 0B       		.uleb128 0xb
 3567 030e 3B       		.uleb128 0x3b
 3568 030f 05       		.uleb128 0x5
 3569 0310 49       		.uleb128 0x49
 3570 0311 13       		.uleb128 0x13
 3571 0312 3F       		.uleb128 0x3f
 3572 0313 19       		.uleb128 0x19
 3573 0314 3C       		.uleb128 0x3c
 3574 0315 19       		.uleb128 0x19
 3575 0316 00       		.byte	0
 3576 0317 00       		.byte	0
 3577 0318 3C       		.uleb128 0x3c
 3578 0319 34       		.uleb128 0x34
 3579 031a 00       		.byte	0
 3580 031b 03       		.uleb128 0x3
 3581 031c 08       		.uleb128 0x8
 3582 031d 3A       		.uleb128 0x3a
 3583 031e 0B       		.uleb128 0xb
 3584 031f 3B       		.uleb128 0x3b
 3585 0320 05       		.uleb128 0x5
 3586 0321 49       		.uleb128 0x49
ARM GAS  /tmp/ccoY6B6t.s 			page 64


 3587 0322 13       		.uleb128 0x13
 3588 0323 3F       		.uleb128 0x3f
 3589 0324 19       		.uleb128 0x19
 3590 0325 3C       		.uleb128 0x3c
 3591 0326 19       		.uleb128 0x19
 3592 0327 00       		.byte	0
 3593 0328 00       		.byte	0
 3594 0329 3D       		.uleb128 0x3d
 3595 032a 34       		.uleb128 0x34
 3596 032b 00       		.byte	0
 3597 032c 03       		.uleb128 0x3
 3598 032d 0E       		.uleb128 0xe
 3599 032e 3A       		.uleb128 0x3a
 3600 032f 0B       		.uleb128 0xb
 3601 0330 3B       		.uleb128 0x3b
 3602 0331 0B       		.uleb128 0xb
 3603 0332 49       		.uleb128 0x49
 3604 0333 13       		.uleb128 0x13
 3605 0334 3F       		.uleb128 0x3f
 3606 0335 19       		.uleb128 0x19
 3607 0336 02       		.uleb128 0x2
 3608 0337 18       		.uleb128 0x18
 3609 0338 00       		.byte	0
 3610 0339 00       		.byte	0
 3611 033a 3E       		.uleb128 0x3e
 3612 033b 2E       		.uleb128 0x2e
 3613 033c 01       		.byte	0x1
 3614 033d 3F       		.uleb128 0x3f
 3615 033e 19       		.uleb128 0x19
 3616 033f 03       		.uleb128 0x3
 3617 0340 0E       		.uleb128 0xe
 3618 0341 3A       		.uleb128 0x3a
 3619 0342 0B       		.uleb128 0xb
 3620 0343 3B       		.uleb128 0x3b
 3621 0344 0B       		.uleb128 0xb
 3622 0345 27       		.uleb128 0x27
 3623 0346 19       		.uleb128 0x19
 3624 0347 3C       		.uleb128 0x3c
 3625 0348 19       		.uleb128 0x19
 3626 0349 01       		.uleb128 0x1
 3627 034a 13       		.uleb128 0x13
 3628 034b 00       		.byte	0
 3629 034c 00       		.byte	0
 3630 034d 3F       		.uleb128 0x3f
 3631 034e 2E       		.uleb128 0x2e
 3632 034f 00       		.byte	0
 3633 0350 3F       		.uleb128 0x3f
 3634 0351 19       		.uleb128 0x19
 3635 0352 03       		.uleb128 0x3
 3636 0353 0E       		.uleb128 0xe
 3637 0354 3A       		.uleb128 0x3a
 3638 0355 0B       		.uleb128 0xb
 3639 0356 3B       		.uleb128 0x3b
 3640 0357 05       		.uleb128 0x5
 3641 0358 27       		.uleb128 0x27
 3642 0359 19       		.uleb128 0x19
 3643 035a 49       		.uleb128 0x49
ARM GAS  /tmp/ccoY6B6t.s 			page 65


 3644 035b 13       		.uleb128 0x13
 3645 035c 3C       		.uleb128 0x3c
 3646 035d 19       		.uleb128 0x19
 3647 035e 00       		.byte	0
 3648 035f 00       		.byte	0
 3649 0360 40       		.uleb128 0x40
 3650 0361 2E       		.uleb128 0x2e
 3651 0362 01       		.byte	0x1
 3652 0363 3F       		.uleb128 0x3f
 3653 0364 19       		.uleb128 0x19
 3654 0365 03       		.uleb128 0x3
 3655 0366 0E       		.uleb128 0xe
 3656 0367 3A       		.uleb128 0x3a
 3657 0368 0B       		.uleb128 0xb
 3658 0369 3B       		.uleb128 0x3b
 3659 036a 05       		.uleb128 0x5
 3660 036b 27       		.uleb128 0x27
 3661 036c 19       		.uleb128 0x19
 3662 036d 3C       		.uleb128 0x3c
 3663 036e 19       		.uleb128 0x19
 3664 036f 00       		.byte	0
 3665 0370 00       		.byte	0
 3666 0371 00       		.byte	0
 3667              		.section	.debug_loc,"",%progbits
 3668              	.Ldebug_loc0:
 3669              	.LLST0:
 3670 0000 00000000 		.4byte	.LVL1
 3671 0004 EF000000 		.4byte	.LVL15-1
 3672 0008 0100     		.2byte	0x1
 3673 000a 50       		.byte	0x50
 3674 000b EF000000 		.4byte	.LVL15-1
 3675 000f 16010000 		.4byte	.LVL17
 3676 0013 0100     		.2byte	0x1
 3677 0015 56       		.byte	0x56
 3678 0016 16010000 		.4byte	.LVL17
 3679 001a 2C010000 		.4byte	.LFE279
 3680 001e 0400     		.2byte	0x4
 3681 0020 F3       		.byte	0xf3
 3682 0021 01       		.uleb128 0x1
 3683 0022 50       		.byte	0x50
 3684 0023 9F       		.byte	0x9f
 3685 0024 00000000 		.4byte	0
 3686 0028 00000000 		.4byte	0
 3687              	.LLST1:
 3688 002c 00000000 		.4byte	.LVL1
 3689 0030 22000000 		.4byte	.LVL2
 3690 0034 0100     		.2byte	0x1
 3691 0036 51       		.byte	0x51
 3692 0037 22000000 		.4byte	.LVL2
 3693 003b 2C010000 		.4byte	.LFE279
 3694 003f 0400     		.2byte	0x4
 3695 0041 F3       		.byte	0xf3
 3696 0042 01       		.uleb128 0x1
 3697 0043 51       		.byte	0x51
 3698 0044 9F       		.byte	0x9f
 3699 0045 00000000 		.4byte	0
 3700 0049 00000000 		.4byte	0
ARM GAS  /tmp/ccoY6B6t.s 			page 66


 3701              	.LLST3:
 3702 004d 28000000 		.4byte	.LVL3
 3703 0051 32000000 		.4byte	.LVL4
 3704 0055 0100     		.2byte	0x1
 3705 0057 59       		.byte	0x59
 3706 0058 32000000 		.4byte	.LVL4
 3707 005c 72000000 		.4byte	.LVL6
 3708 0060 0100     		.2byte	0x1
 3709 0062 56       		.byte	0x56
 3710 0063 72000000 		.4byte	.LVL6
 3711 0067 8C000000 		.4byte	.LVL7
 3712 006b 3600     		.2byte	0x36
 3713 006d F3       		.byte	0xf3
 3714 006e 01       		.uleb128 0x1
 3715 006f 51       		.byte	0x51
 3716 0070 23       		.byte	0x23
 3717 0071 04       		.uleb128 0x4
 3718 0072 06       		.byte	0x6
 3719 0073 09       		.byte	0x9
 3720 0074 E9       		.byte	0xe9
 3721 0075 24       		.byte	0x24
 3722 0076 09       		.byte	0x9
 3723 0077 E9       		.byte	0xe9
 3724 0078 25       		.byte	0x25
 3725 0079 F7       		.byte	0xf7
 3726 007a 33       		.uleb128 0x33
 3727 007b F7       		.byte	0xf7
 3728 007c 25       		.uleb128 0x25
 3729 007d 0C       		.byte	0xc
 3730 007e D34D6210 		.4byte	0x10624dd3
 3731 0082 F7       		.byte	0xf7
 3732 0083 25       		.uleb128 0x25
 3733 0084 1E       		.byte	0x1e
 3734 0085 08       		.byte	0x8
 3735 0086 20       		.byte	0x20
 3736 0087 F7       		.byte	0xf7
 3737 0088 25       		.uleb128 0x25
 3738 0089 25       		.byte	0x25
 3739 008a F7       		.byte	0xf7
 3740 008b 2C       		.uleb128 0x2c
 3741 008c 36       		.byte	0x36
 3742 008d 25       		.byte	0x25
 3743 008e F7       		.byte	0xf7
 3744 008f 2C       		.uleb128 0x2c
 3745 0090 F7       		.byte	0xf7
 3746 0091 25       		.uleb128 0x25
 3747 0092 73       		.byte	0x73
 3748 0093 00       		.sleb128 0
 3749 0094 F7       		.byte	0xf7
 3750 0095 2C       		.uleb128 0x2c
 3751 0096 F7       		.byte	0xf7
 3752 0097 25       		.uleb128 0x25
 3753 0098 1E       		.byte	0x1e
 3754 0099 08       		.byte	0x8
 3755 009a 20       		.byte	0x20
 3756 009b F7       		.byte	0xf7
 3757 009c 25       		.uleb128 0x25
ARM GAS  /tmp/ccoY6B6t.s 			page 67


 3758 009d 25       		.byte	0x25
 3759 009e F7       		.byte	0xf7
 3760 009f 2C       		.uleb128 0x2c
 3761 00a0 33       		.byte	0x33
 3762 00a1 25       		.byte	0x25
 3763 00a2 9F       		.byte	0x9f
 3764 00a3 8C000000 		.4byte	.LVL7
 3765 00a7 96000000 		.4byte	.LVL8
 3766 00ab 0100     		.2byte	0x1
 3767 00ad 55       		.byte	0x55
 3768 00ae 96000000 		.4byte	.LVL8
 3769 00b2 A8000000 		.4byte	.LVL9
 3770 00b6 4F00     		.2byte	0x4f
 3771 00b8 F3       		.byte	0xf3
 3772 00b9 01       		.uleb128 0x1
 3773 00ba 51       		.byte	0x51
 3774 00bb 23       		.byte	0x23
 3775 00bc 04       		.uleb128 0x4
 3776 00bd 06       		.byte	0x6
 3777 00be 09       		.byte	0x9
 3778 00bf E9       		.byte	0xe9
 3779 00c0 24       		.byte	0x24
 3780 00c1 09       		.byte	0x9
 3781 00c2 E9       		.byte	0xe9
 3782 00c3 25       		.byte	0x25
 3783 00c4 F7       		.byte	0xf7
 3784 00c5 33       		.uleb128 0x33
 3785 00c6 F7       		.byte	0xf7
 3786 00c7 25       		.uleb128 0x25
 3787 00c8 0C       		.byte	0xc
 3788 00c9 D34D6210 		.4byte	0x10624dd3
 3789 00cd F7       		.byte	0xf7
 3790 00ce 25       		.uleb128 0x25
 3791 00cf 1E       		.byte	0x1e
 3792 00d0 08       		.byte	0x8
 3793 00d1 20       		.byte	0x20
 3794 00d2 F7       		.byte	0xf7
 3795 00d3 25       		.uleb128 0x25
 3796 00d4 25       		.byte	0x25
 3797 00d5 F7       		.byte	0xf7
 3798 00d6 2C       		.uleb128 0x2c
 3799 00d7 36       		.byte	0x36
 3800 00d8 25       		.byte	0x25
 3801 00d9 F7       		.byte	0xf7
 3802 00da 2C       		.uleb128 0x2c
 3803 00db F7       		.byte	0xf7
 3804 00dc 25       		.uleb128 0x25
 3805 00dd 73       		.byte	0x73
 3806 00de 00       		.sleb128 0
 3807 00df F7       		.byte	0xf7
 3808 00e0 2C       		.uleb128 0x2c
 3809 00e1 F7       		.byte	0xf7
 3810 00e2 25       		.uleb128 0x25
 3811 00e3 1E       		.byte	0x1e
 3812 00e4 08       		.byte	0x8
 3813 00e5 20       		.byte	0x20
 3814 00e6 F7       		.byte	0xf7
ARM GAS  /tmp/ccoY6B6t.s 			page 68


 3815 00e7 25       		.uleb128 0x25
 3816 00e8 25       		.byte	0x25
 3817 00e9 F7       		.byte	0xf7
 3818 00ea 2C       		.uleb128 0x2c
 3819 00eb 33       		.byte	0x33
 3820 00ec 25       		.byte	0x25
 3821 00ed F7       		.byte	0xf7
 3822 00ee 2C       		.uleb128 0x2c
 3823 00ef F7       		.byte	0xf7
 3824 00f0 25       		.uleb128 0x25
 3825 00f1 F4       		.byte	0xf4
 3826 00f2 25       		.uleb128 0x25
 3827 00f3 08       		.byte	0x8
 3828 00f4 ABAAAAAA 		.8byte	0xaaaaaaab
 3828      00000000 
 3829 00fc 1E       		.byte	0x1e
 3830 00fd 08       		.byte	0x8
 3831 00fe 20       		.byte	0x20
 3832 00ff F7       		.byte	0xf7
 3833 0100 25       		.uleb128 0x25
 3834 0101 25       		.byte	0x25
 3835 0102 F7       		.byte	0xf7
 3836 0103 2C       		.uleb128 0x2c
 3837 0104 32       		.byte	0x32
 3838 0105 25       		.byte	0x25
 3839 0106 9F       		.byte	0x9f
 3840 0107 A8000000 		.4byte	.LVL9
 3841 010b BE000000 		.4byte	.LVL10
 3842 010f 5400     		.2byte	0x54
 3843 0111 F3       		.byte	0xf3
 3844 0112 01       		.uleb128 0x1
 3845 0113 51       		.byte	0x51
 3846 0114 23       		.byte	0x23
 3847 0115 04       		.uleb128 0x4
 3848 0116 06       		.byte	0x6
 3849 0117 09       		.byte	0x9
 3850 0118 E9       		.byte	0xe9
 3851 0119 24       		.byte	0x24
 3852 011a 09       		.byte	0x9
 3853 011b E9       		.byte	0xe9
 3854 011c 25       		.byte	0x25
 3855 011d F7       		.byte	0xf7
 3856 011e 33       		.uleb128 0x33
 3857 011f F7       		.byte	0xf7
 3858 0120 25       		.uleb128 0x25
 3859 0121 0C       		.byte	0xc
 3860 0122 D34D6210 		.4byte	0x10624dd3
 3861 0126 F7       		.byte	0xf7
 3862 0127 25       		.uleb128 0x25
 3863 0128 1E       		.byte	0x1e
 3864 0129 08       		.byte	0x8
 3865 012a 20       		.byte	0x20
 3866 012b F7       		.byte	0xf7
 3867 012c 25       		.uleb128 0x25
 3868 012d 25       		.byte	0x25
 3869 012e F7       		.byte	0xf7
 3870 012f 2C       		.uleb128 0x2c
ARM GAS  /tmp/ccoY6B6t.s 			page 69


 3871 0130 36       		.byte	0x36
 3872 0131 25       		.byte	0x25
 3873 0132 F7       		.byte	0xf7
 3874 0133 2C       		.uleb128 0x2c
 3875 0134 F7       		.byte	0xf7
 3876 0135 25       		.uleb128 0x25
 3877 0136 F4       		.byte	0xf4
 3878 0137 25       		.uleb128 0x25
 3879 0138 08       		.byte	0x8
 3880 0139 CDCCCCCC 		.8byte	0xcccccccd
 3880      00000000 
 3881 0141 1E       		.byte	0x1e
 3882 0142 08       		.byte	0x8
 3883 0143 20       		.byte	0x20
 3884 0144 F7       		.byte	0xf7
 3885 0145 25       		.uleb128 0x25
 3886 0146 25       		.byte	0x25
 3887 0147 F7       		.byte	0xf7
 3888 0148 2C       		.uleb128 0x2c
 3889 0149 33       		.byte	0x33
 3890 014a 25       		.byte	0x25
 3891 014b F7       		.byte	0xf7
 3892 014c 2C       		.uleb128 0x2c
 3893 014d F7       		.byte	0xf7
 3894 014e 25       		.uleb128 0x25
 3895 014f F4       		.byte	0xf4
 3896 0150 25       		.uleb128 0x25
 3897 0151 08       		.byte	0x8
 3898 0152 ABAAAAAA 		.8byte	0xaaaaaaab
 3898      00000000 
 3899 015a 1E       		.byte	0x1e
 3900 015b 08       		.byte	0x8
 3901 015c 20       		.byte	0x20
 3902 015d F7       		.byte	0xf7
 3903 015e 25       		.uleb128 0x25
 3904 015f 25       		.byte	0x25
 3905 0160 F7       		.byte	0xf7
 3906 0161 2C       		.uleb128 0x2c
 3907 0162 32       		.byte	0x32
 3908 0163 25       		.byte	0x25
 3909 0164 9F       		.byte	0x9f
 3910 0165 BE000000 		.4byte	.LVL10
 3911 0169 C2000000 		.4byte	.LVL11
 3912 016d 0100     		.2byte	0x1
 3913 016f 54       		.byte	0x54
 3914 0170 C2000000 		.4byte	.LVL11
 3915 0174 D6000000 		.4byte	.LVL12
 3916 0178 6D00     		.2byte	0x6d
 3917 017a F3       		.byte	0xf3
 3918 017b 01       		.uleb128 0x1
 3919 017c 51       		.byte	0x51
 3920 017d 23       		.byte	0x23
 3921 017e 04       		.uleb128 0x4
 3922 017f 06       		.byte	0x6
 3923 0180 09       		.byte	0x9
 3924 0181 E9       		.byte	0xe9
 3925 0182 24       		.byte	0x24
ARM GAS  /tmp/ccoY6B6t.s 			page 70


 3926 0183 09       		.byte	0x9
 3927 0184 E9       		.byte	0xe9
 3928 0185 25       		.byte	0x25
 3929 0186 F7       		.byte	0xf7
 3930 0187 33       		.uleb128 0x33
 3931 0188 F7       		.byte	0xf7
 3932 0189 25       		.uleb128 0x25
 3933 018a 0C       		.byte	0xc
 3934 018b D34D6210 		.4byte	0x10624dd3
 3935 018f F7       		.byte	0xf7
 3936 0190 25       		.uleb128 0x25
 3937 0191 1E       		.byte	0x1e
 3938 0192 08       		.byte	0x8
 3939 0193 20       		.byte	0x20
 3940 0194 F7       		.byte	0xf7
 3941 0195 25       		.uleb128 0x25
 3942 0196 25       		.byte	0x25
 3943 0197 F7       		.byte	0xf7
 3944 0198 2C       		.uleb128 0x2c
 3945 0199 36       		.byte	0x36
 3946 019a 25       		.byte	0x25
 3947 019b F7       		.byte	0xf7
 3948 019c 2C       		.uleb128 0x2c
 3949 019d F7       		.byte	0xf7
 3950 019e 25       		.uleb128 0x25
 3951 019f F4       		.byte	0xf4
 3952 01a0 25       		.uleb128 0x25
 3953 01a1 08       		.byte	0x8
 3954 01a2 CDCCCCCC 		.8byte	0xcccccccd
 3954      00000000 
 3955 01aa 1E       		.byte	0x1e
 3956 01ab 08       		.byte	0x8
 3957 01ac 20       		.byte	0x20
 3958 01ad F7       		.byte	0xf7
 3959 01ae 25       		.uleb128 0x25
 3960 01af 25       		.byte	0x25
 3961 01b0 F7       		.byte	0xf7
 3962 01b1 2C       		.uleb128 0x2c
 3963 01b2 33       		.byte	0x33
 3964 01b3 25       		.byte	0x25
 3965 01b4 F7       		.byte	0xf7
 3966 01b5 2C       		.uleb128 0x2c
 3967 01b6 F7       		.byte	0xf7
 3968 01b7 25       		.uleb128 0x25
 3969 01b8 F4       		.byte	0xf4
 3970 01b9 25       		.uleb128 0x25
 3971 01ba 08       		.byte	0x8
 3972 01bb ABAAAAAA 		.8byte	0xaaaaaaab
 3972      00000000 
 3973 01c3 1E       		.byte	0x1e
 3974 01c4 08       		.byte	0x8
 3975 01c5 20       		.byte	0x20
 3976 01c6 F7       		.byte	0xf7
 3977 01c7 25       		.uleb128 0x25
 3978 01c8 25       		.byte	0x25
 3979 01c9 F7       		.byte	0xf7
 3980 01ca 2C       		.uleb128 0x2c
ARM GAS  /tmp/ccoY6B6t.s 			page 71


 3981 01cb 32       		.byte	0x32
 3982 01cc 25       		.byte	0x25
 3983 01cd F7       		.byte	0xf7
 3984 01ce 2C       		.uleb128 0x2c
 3985 01cf F7       		.byte	0xf7
 3986 01d0 25       		.uleb128 0x25
 3987 01d1 F4       		.byte	0xf4
 3988 01d2 25       		.uleb128 0x25
 3989 01d3 08       		.byte	0x8
 3990 01d4 CDCCCCCC 		.8byte	0xcccccccd
 3990      00000000 
 3991 01dc 1E       		.byte	0x1e
 3992 01dd 08       		.byte	0x8
 3993 01de 20       		.byte	0x20
 3994 01df F7       		.byte	0xf7
 3995 01e0 25       		.uleb128 0x25
 3996 01e1 25       		.byte	0x25
 3997 01e2 F7       		.byte	0xf7
 3998 01e3 2C       		.uleb128 0x2c
 3999 01e4 33       		.byte	0x33
 4000 01e5 25       		.byte	0x25
 4001 01e6 9F       		.byte	0x9f
 4002 01e7 D6000000 		.4byte	.LVL12
 4003 01eb EF000000 		.4byte	.LVL15-1
 4004 01ef 0B00     		.2byte	0xb
 4005 01f1 72       		.byte	0x72
 4006 01f2 00       		.sleb128 0
 4007 01f3 F7       		.byte	0xf7
 4008 01f4 2C       		.uleb128 0x2c
 4009 01f5 3A       		.byte	0x3a
 4010 01f6 F7       		.byte	0xf7
 4011 01f7 2C       		.uleb128 0x2c
 4012 01f8 1B       		.byte	0x1b
 4013 01f9 F7       		.byte	0xf7
 4014 01fa 00       		.uleb128 0
 4015 01fb 9F       		.byte	0x9f
 4016 01fc 00000000 		.4byte	0
 4017 0200 00000000 		.4byte	0
 4018              	.LLST4:
 4019 0204 00000000 		.4byte	.LVL1
 4020 0208 28000000 		.4byte	.LVL3
 4021 020c 0200     		.2byte	0x2
 4022 020e 30       		.byte	0x30
 4023 020f 9F       		.byte	0x9f
 4024 0210 28000000 		.4byte	.LVL3
 4025 0214 6A000000 		.4byte	.LVL5
 4026 0218 0500     		.2byte	0x5
 4027 021a 79       		.byte	0x79
 4028 021b 00       		.sleb128 0
 4029 021c 3A       		.byte	0x3a
 4030 021d 1D       		.byte	0x1d
 4031 021e 9F       		.byte	0x9f
 4032 021f 6A000000 		.4byte	.LVL5
 4033 0223 8C000000 		.4byte	.LVL7
 4034 0227 2400     		.2byte	0x24
 4035 0229 F3       		.byte	0xf3
 4036 022a 01       		.uleb128 0x1
ARM GAS  /tmp/ccoY6B6t.s 			page 72


 4037 022b 51       		.byte	0x51
 4038 022c 23       		.byte	0x23
 4039 022d 04       		.uleb128 0x4
 4040 022e 06       		.byte	0x6
 4041 022f 09       		.byte	0x9
 4042 0230 E9       		.byte	0xe9
 4043 0231 24       		.byte	0x24
 4044 0232 09       		.byte	0x9
 4045 0233 E9       		.byte	0xe9
 4046 0234 25       		.byte	0x25
 4047 0235 F7       		.byte	0xf7
 4048 0236 33       		.uleb128 0x33
 4049 0237 F7       		.byte	0xf7
 4050 0238 25       		.uleb128 0x25
 4051 0239 0C       		.byte	0xc
 4052 023a D34D6210 		.4byte	0x10624dd3
 4053 023e F7       		.byte	0xf7
 4054 023f 25       		.uleb128 0x25
 4055 0240 1E       		.byte	0x1e
 4056 0241 08       		.byte	0x8
 4057 0242 20       		.byte	0x20
 4058 0243 F7       		.byte	0xf7
 4059 0244 25       		.uleb128 0x25
 4060 0245 25       		.byte	0x25
 4061 0246 F7       		.byte	0xf7
 4062 0247 2C       		.uleb128 0x2c
 4063 0248 36       		.byte	0x36
 4064 0249 25       		.byte	0x25
 4065 024a 3A       		.byte	0x3a
 4066 024b 1D       		.byte	0x1d
 4067 024c 9F       		.byte	0x9f
 4068 024d 8C000000 		.4byte	.LVL7
 4069 0251 D6000000 		.4byte	.LVL12
 4070 0255 0100     		.2byte	0x1
 4071 0257 59       		.byte	0x59
 4072 0258 D6000000 		.4byte	.LVL12
 4073 025c E6000000 		.4byte	.LVL13
 4074 0260 0A00     		.2byte	0xa
 4075 0262 72       		.byte	0x72
 4076 0263 00       		.sleb128 0
 4077 0264 3A       		.byte	0x3a
 4078 0265 1D       		.byte	0x1d
 4079 0266 40       		.byte	0x40
 4080 0267 24       		.byte	0x24
 4081 0268 74       		.byte	0x74
 4082 0269 00       		.sleb128 0
 4083 026a 21       		.byte	0x21
 4084 026b 9F       		.byte	0x9f
 4085 026c E6000000 		.4byte	.LVL13
 4086 0270 16010000 		.4byte	.LVL17
 4087 0274 0100     		.2byte	0x1
 4088 0276 55       		.byte	0x55
 4089 0277 00000000 		.4byte	0
 4090 027b 00000000 		.4byte	0
 4091              	.LLST5:
 4092 027f E6000000 		.4byte	.LVL13
 4093 0283 EF000000 		.4byte	.LVL15-1
ARM GAS  /tmp/ccoY6B6t.s 			page 73


 4094 0287 1500     		.2byte	0x15
 4095 0289 F3       		.byte	0xf3
 4096 028a 01       		.uleb128 0x1
 4097 028b 51       		.byte	0x51
 4098 028c 23       		.byte	0x23
 4099 028d 02       		.uleb128 0x2
 4100 028e 94       		.byte	0x94
 4101 028f 01       		.byte	0x1
 4102 0290 4F       		.byte	0x4f
 4103 0291 1A       		.byte	0x1a
 4104 0292 08       		.byte	0x8
 4105 0293 FF       		.byte	0xff
 4106 0294 1A       		.byte	0x1a
 4107 0295 F7       		.byte	0xf7
 4108 0296 2C       		.uleb128 0x2c
 4109 0297 3A       		.byte	0x3a
 4110 0298 F7       		.byte	0xf7
 4111 0299 2C       		.uleb128 0x2c
 4112 029a 1B       		.byte	0x1b
 4113 029b F7       		.byte	0xf7
 4114 029c 00       		.uleb128 0
 4115 029d 9F       		.byte	0x9f
 4116 029e 00000000 		.4byte	0
 4117 02a2 00000000 		.4byte	0
 4118              	.LLST6:
 4119 02a6 E6000000 		.4byte	.LVL13
 4120 02aa EC000000 		.4byte	.LVL14
 4121 02ae 6600     		.2byte	0x66
 4122 02b0 F3       		.byte	0xf3
 4123 02b1 01       		.uleb128 0x1
 4124 02b2 51       		.byte	0x51
 4125 02b3 94       		.byte	0x94
 4126 02b4 01       		.byte	0x1
 4127 02b5 08       		.byte	0x8
 4128 02b6 FF       		.byte	0xff
 4129 02b7 1A       		.byte	0x1a
 4130 02b8 3A       		.byte	0x3a
 4131 02b9 1D       		.byte	0x1d
 4132 02ba 40       		.byte	0x40
 4133 02bb 24       		.byte	0x24
 4134 02bc F3       		.byte	0xf3
 4135 02bd 01       		.uleb128 0x1
 4136 02be 51       		.byte	0x51
 4137 02bf 94       		.byte	0x94
 4138 02c0 01       		.byte	0x1
 4139 02c1 08       		.byte	0x8
 4140 02c2 FF       		.byte	0xff
 4141 02c3 1A       		.byte	0x1a
 4142 02c4 F7       		.byte	0xf7
 4143 02c5 2C       		.uleb128 0x2c
 4144 02c6 3A       		.byte	0x3a
 4145 02c7 F7       		.byte	0xf7
 4146 02c8 2C       		.uleb128 0x2c
 4147 02c9 1B       		.byte	0x1b
 4148 02ca F7       		.byte	0xf7
 4149 02cb 00       		.uleb128 0
 4150 02cc 3A       		.byte	0x3a
ARM GAS  /tmp/ccoY6B6t.s 			page 74


 4151 02cd 1D       		.byte	0x1d
 4152 02ce 44       		.byte	0x44
 4153 02cf 24       		.byte	0x24
 4154 02d0 21       		.byte	0x21
 4155 02d1 91       		.byte	0x91
 4156 02d2 54       		.sleb128 -44
 4157 02d3 06       		.byte	0x6
 4158 02d4 3F       		.byte	0x3f
 4159 02d5 1A       		.byte	0x1a
 4160 02d6 3A       		.byte	0x3a
 4161 02d7 1D       		.byte	0x1d
 4162 02d8 38       		.byte	0x38
 4163 02d9 24       		.byte	0x24
 4164 02da 21       		.byte	0x21
 4165 02db 91       		.byte	0x91
 4166 02dc 54       		.sleb128 -44
 4167 02dd 06       		.byte	0x6
 4168 02de 3F       		.byte	0x3f
 4169 02df 1A       		.byte	0x1a
 4170 02e0 F7       		.byte	0xf7
 4171 02e1 2C       		.uleb128 0x2c
 4172 02e2 3A       		.byte	0x3a
 4173 02e3 F7       		.byte	0xf7
 4174 02e4 2C       		.uleb128 0x2c
 4175 02e5 1B       		.byte	0x1b
 4176 02e6 F7       		.byte	0xf7
 4177 02e7 00       		.uleb128 0
 4178 02e8 3A       		.byte	0x3a
 4179 02e9 1D       		.byte	0x1d
 4180 02ea 3C       		.byte	0x3c
 4181 02eb 24       		.byte	0x24
 4182 02ec 21       		.byte	0x21
 4183 02ed F3       		.byte	0xf3
 4184 02ee 01       		.uleb128 0x1
 4185 02ef 51       		.byte	0x51
 4186 02f0 23       		.byte	0x23
 4187 02f1 02       		.uleb128 0x2
 4188 02f2 94       		.byte	0x94
 4189 02f3 01       		.byte	0x1
 4190 02f4 4F       		.byte	0x4f
 4191 02f5 1A       		.byte	0x1a
 4192 02f6 08       		.byte	0x8
 4193 02f7 FF       		.byte	0xff
 4194 02f8 1A       		.byte	0x1a
 4195 02f9 3A       		.byte	0x3a
 4196 02fa 1D       		.byte	0x1d
 4197 02fb 21       		.byte	0x21
 4198 02fc F3       		.byte	0xf3
 4199 02fd 01       		.uleb128 0x1
 4200 02fe 51       		.byte	0x51
 4201 02ff 23       		.byte	0x23
 4202 0300 02       		.uleb128 0x2
 4203 0301 94       		.byte	0x94
 4204 0302 01       		.byte	0x1
 4205 0303 4F       		.byte	0x4f
 4206 0304 1A       		.byte	0x1a
 4207 0305 08       		.byte	0x8
ARM GAS  /tmp/ccoY6B6t.s 			page 75


 4208 0306 FF       		.byte	0xff
 4209 0307 1A       		.byte	0x1a
 4210 0308 F7       		.byte	0xf7
 4211 0309 2C       		.uleb128 0x2c
 4212 030a 3A       		.byte	0x3a
 4213 030b F7       		.byte	0xf7
 4214 030c 2C       		.uleb128 0x2c
 4215 030d 1B       		.byte	0x1b
 4216 030e F7       		.byte	0xf7
 4217 030f 00       		.uleb128 0
 4218 0310 3A       		.byte	0x3a
 4219 0311 1D       		.byte	0x1d
 4220 0312 34       		.byte	0x34
 4221 0313 24       		.byte	0x24
 4222 0314 21       		.byte	0x21
 4223 0315 9F       		.byte	0x9f
 4224 0316 EC000000 		.4byte	.LVL14
 4225 031a 16010000 		.4byte	.LVL17
 4226 031e 0100     		.2byte	0x1
 4227 0320 57       		.byte	0x57
 4228 0321 00000000 		.4byte	0
 4229 0325 00000000 		.4byte	0
 4230              	.LLST7:
 4231 0329 10010000 		.4byte	.LVL16
 4232 032d 19010000 		.4byte	.LVL18-1
 4233 0331 0100     		.2byte	0x1
 4234 0333 50       		.byte	0x50
 4235 0334 00000000 		.4byte	0
 4236 0338 00000000 		.4byte	0
 4237              	.LLST8:
 4238 033c 00000000 		.4byte	.LVL19
 4239 0340 0B000000 		.4byte	.LVL20-1
 4240 0344 0100     		.2byte	0x1
 4241 0346 50       		.byte	0x50
 4242 0347 0B000000 		.4byte	.LVL20-1
 4243 034b 1C000000 		.4byte	.LVL23
 4244 034f 0100     		.2byte	0x1
 4245 0351 55       		.byte	0x55
 4246 0352 1C000000 		.4byte	.LVL23
 4247 0356 F0000000 		.4byte	.LFE280
 4248 035a 0400     		.2byte	0x4
 4249 035c F3       		.byte	0xf3
 4250 035d 01       		.uleb128 0x1
 4251 035e 50       		.byte	0x50
 4252 035f 9F       		.byte	0x9f
 4253 0360 00000000 		.4byte	0
 4254 0364 00000000 		.4byte	0
 4255              	.LLST9:
 4256 0368 00000000 		.4byte	.LVL19
 4257 036c 0B000000 		.4byte	.LVL20-1
 4258 0370 0100     		.2byte	0x1
 4259 0372 51       		.byte	0x51
 4260 0373 0B000000 		.4byte	.LVL20-1
 4261 0377 DE000000 		.4byte	.LVL34
 4262 037b 0100     		.2byte	0x1
 4263 037d 54       		.byte	0x54
 4264 037e DE000000 		.4byte	.LVL34
ARM GAS  /tmp/ccoY6B6t.s 			page 76


 4265 0382 F0000000 		.4byte	.LFE280
 4266 0386 0400     		.2byte	0x4
 4267 0388 F3       		.byte	0xf3
 4268 0389 01       		.uleb128 0x1
 4269 038a 51       		.byte	0x51
 4270 038b 9F       		.byte	0x9f
 4271 038c 00000000 		.4byte	0
 4272 0390 00000000 		.4byte	0
 4273              	.LLST10:
 4274 0394 1C000000 		.4byte	.LVL23
 4275 0398 C2000000 		.4byte	.LVL32
 4276 039c 0100     		.2byte	0x1
 4277 039e 55       		.byte	0x55
 4278 039f 00000000 		.4byte	0
 4279 03a3 00000000 		.4byte	0
 4280              	.LLST11:
 4281 03a7 1A000000 		.4byte	.LVL22
 4282 03ab 78000000 		.4byte	.LVL29
 4283 03af 0100     		.2byte	0x1
 4284 03b1 56       		.byte	0x56
 4285 03b2 00000000 		.4byte	0
 4286 03b6 00000000 		.4byte	0
 4287              	.LLST12:
 4288 03ba 7C000000 		.4byte	.LVL30
 4289 03be 82000000 		.4byte	.LVL31
 4290 03c2 0D00     		.2byte	0xd
 4291 03c4 78       		.byte	0x78
 4292 03c5 00       		.sleb128 0
 4293 03c6 0B       		.byte	0xb
 4294 03c7 18FC     		.2byte	0xfc18
 4295 03c9 1E       		.byte	0x1e
 4296 03ca 23       		.byte	0x23
 4297 03cb 98B83E   		.uleb128 0xf9c18
 4298 03ce 3A       		.byte	0x3a
 4299 03cf 25       		.byte	0x25
 4300 03d0 9F       		.byte	0x9f
 4301 03d1 00000000 		.4byte	0
 4302 03d5 00000000 		.4byte	0
 4303              	.LLST13:
 4304 03d9 18000000 		.4byte	.LVL21
 4305 03dd 82000000 		.4byte	.LVL31
 4306 03e1 0100     		.2byte	0x1
 4307 03e3 58       		.byte	0x58
 4308 03e4 00000000 		.4byte	0
 4309 03e8 00000000 		.4byte	0
 4310              	.LLST14:
 4311 03ec 30000000 		.4byte	.LVL25
 4312 03f0 DE000000 		.4byte	.LVL34
 4313 03f4 0100     		.2byte	0x1
 4314 03f6 54       		.byte	0x54
 4315 03f7 DE000000 		.4byte	.LVL34
 4316 03fb F0000000 		.4byte	.LFE280
 4317 03ff 0400     		.2byte	0x4
 4318 0401 F3       		.byte	0xf3
 4319 0402 01       		.uleb128 0x1
 4320 0403 51       		.byte	0x51
 4321 0404 9F       		.byte	0x9f
ARM GAS  /tmp/ccoY6B6t.s 			page 77


 4322 0405 00000000 		.4byte	0
 4323 0409 00000000 		.4byte	0
 4324              	.LLST15:
 4325 040d 30000000 		.4byte	.LVL25
 4326 0411 78000000 		.4byte	.LVL29
 4327 0415 0100     		.2byte	0x1
 4328 0417 56       		.byte	0x56
 4329 0418 00000000 		.4byte	0
 4330 041c 00000000 		.4byte	0
 4331              	.LLST16:
 4332 0420 48000000 		.4byte	.LVL26
 4333 0424 4C000000 		.4byte	.LVL27
 4334 0428 3600     		.2byte	0x36
 4335 042a 76       		.byte	0x76
 4336 042b 00       		.sleb128 0
 4337 042c 34       		.byte	0x34
 4338 042d 25       		.byte	0x25
 4339 042e 37       		.byte	0x37
 4340 042f 1A       		.byte	0x1a
 4341 0430 0A       		.byte	0xa
 4342 0431 1027     		.2byte	0x2710
 4343 0433 1E       		.byte	0x1e
 4344 0434 76       		.byte	0x76
 4345 0435 00       		.sleb128 0
 4346 0436 38       		.byte	0x38
 4347 0437 25       		.byte	0x25
 4348 0438 3F       		.byte	0x3f
 4349 0439 1A       		.byte	0x1a
 4350 043a 0A       		.byte	0xa
 4351 043b 60EA     		.2byte	0xea60
 4352 043d 1E       		.byte	0x1e
 4353 043e 76       		.byte	0x76
 4354 043f 00       		.sleb128 0
 4355 0440 3C       		.byte	0x3c
 4356 0441 25       		.byte	0x25
 4357 0442 37       		.byte	0x37
 4358 0443 1A       		.byte	0x1a
 4359 0444 0C       		.byte	0xc
 4360 0445 C0270900 		.4byte	0x927c0
 4361 0449 1E       		.byte	0x1e
 4362 044a 76       		.byte	0x76
 4363 044b 00       		.sleb128 0
 4364 044c 40       		.byte	0x40
 4365 044d 25       		.byte	0x25
 4366 044e 3F       		.byte	0x3f
 4367 044f 1A       		.byte	0x1a
 4368 0450 0C       		.byte	0xc
 4369 0451 80EE3600 		.4byte	0x36ee80
 4370 0455 1E       		.byte	0x1e
 4371 0456 79       		.byte	0x79
 4372 0457 00       		.sleb128 0
 4373 0458 77       		.byte	0x77
 4374 0459 00       		.sleb128 0
 4375 045a 1E       		.byte	0x1e
 4376 045b 22       		.byte	0x22
 4377 045c 22       		.byte	0x22
 4378 045d 22       		.byte	0x22
ARM GAS  /tmp/ccoY6B6t.s 			page 78


 4379 045e 22       		.byte	0x22
 4380 045f 9F       		.byte	0x9f
 4381 0460 4C000000 		.4byte	.LVL27
 4382 0464 54000000 		.4byte	.LVL28
 4383 0468 3B00     		.2byte	0x3b
 4384 046a 76       		.byte	0x76
 4385 046b 00       		.sleb128 0
 4386 046c 34       		.byte	0x34
 4387 046d 25       		.byte	0x25
 4388 046e 37       		.byte	0x37
 4389 046f 1A       		.byte	0x1a
 4390 0470 0A       		.byte	0xa
 4391 0471 1027     		.2byte	0x2710
 4392 0473 1E       		.byte	0x1e
 4393 0474 76       		.byte	0x76
 4394 0475 00       		.sleb128 0
 4395 0476 38       		.byte	0x38
 4396 0477 25       		.byte	0x25
 4397 0478 3F       		.byte	0x3f
 4398 0479 1A       		.byte	0x1a
 4399 047a 0A       		.byte	0xa
 4400 047b 60EA     		.2byte	0xea60
 4401 047d 1E       		.byte	0x1e
 4402 047e 76       		.byte	0x76
 4403 047f 00       		.sleb128 0
 4404 0480 3C       		.byte	0x3c
 4405 0481 25       		.byte	0x25
 4406 0482 37       		.byte	0x37
 4407 0483 1A       		.byte	0x1a
 4408 0484 0C       		.byte	0xc
 4409 0485 C0270900 		.4byte	0x927c0
 4410 0489 1E       		.byte	0x1e
 4411 048a 76       		.byte	0x76
 4412 048b 00       		.sleb128 0
 4413 048c 40       		.byte	0x40
 4414 048d 25       		.byte	0x25
 4415 048e 3F       		.byte	0x3f
 4416 048f 1A       		.byte	0x1a
 4417 0490 0C       		.byte	0xc
 4418 0491 80EE3600 		.4byte	0x36ee80
 4419 0495 1E       		.byte	0x1e
 4420 0496 76       		.byte	0x76
 4421 0497 00       		.sleb128 0
 4422 0498 09       		.byte	0x9
 4423 0499 EE       		.byte	0xee
 4424 049a 24       		.byte	0x24
 4425 049b 32       		.byte	0x32
 4426 049c 25       		.byte	0x25
 4427 049d 79       		.byte	0x79
 4428 049e 00       		.sleb128 0
 4429 049f 1E       		.byte	0x1e
 4430 04a0 22       		.byte	0x22
 4431 04a1 22       		.byte	0x22
 4432 04a2 22       		.byte	0x22
 4433 04a3 22       		.byte	0x22
 4434 04a4 9F       		.byte	0x9f
 4435 04a5 54000000 		.4byte	.LVL28
ARM GAS  /tmp/ccoY6B6t.s 			page 79


 4436 04a9 78000000 		.4byte	.LVL29
 4437 04ad 3E00     		.2byte	0x3e
 4438 04af 76       		.byte	0x76
 4439 04b0 00       		.sleb128 0
 4440 04b1 34       		.byte	0x34
 4441 04b2 25       		.byte	0x25
 4442 04b3 37       		.byte	0x37
 4443 04b4 1A       		.byte	0x1a
 4444 04b5 0A       		.byte	0xa
 4445 04b6 1027     		.2byte	0x2710
 4446 04b8 1E       		.byte	0x1e
 4447 04b9 76       		.byte	0x76
 4448 04ba 00       		.sleb128 0
 4449 04bb 38       		.byte	0x38
 4450 04bc 25       		.byte	0x25
 4451 04bd 3F       		.byte	0x3f
 4452 04be 1A       		.byte	0x1a
 4453 04bf 0A       		.byte	0xa
 4454 04c0 60EA     		.2byte	0xea60
 4455 04c2 1E       		.byte	0x1e
 4456 04c3 76       		.byte	0x76
 4457 04c4 00       		.sleb128 0
 4458 04c5 3C       		.byte	0x3c
 4459 04c6 25       		.byte	0x25
 4460 04c7 37       		.byte	0x37
 4461 04c8 1A       		.byte	0x1a
 4462 04c9 0C       		.byte	0xc
 4463 04ca C0270900 		.4byte	0x927c0
 4464 04ce 1E       		.byte	0x1e
 4465 04cf 76       		.byte	0x76
 4466 04d0 00       		.sleb128 0
 4467 04d1 40       		.byte	0x40
 4468 04d2 25       		.byte	0x25
 4469 04d3 3F       		.byte	0x3f
 4470 04d4 1A       		.byte	0x1a
 4471 04d5 0C       		.byte	0xc
 4472 04d6 80EE3600 		.4byte	0x36ee80
 4473 04da 1E       		.byte	0x1e
 4474 04db 76       		.byte	0x76
 4475 04dc 00       		.sleb128 0
 4476 04dd 09       		.byte	0x9
 4477 04de EE       		.byte	0xee
 4478 04df 24       		.byte	0x24
 4479 04e0 32       		.byte	0x32
 4480 04e1 25       		.byte	0x25
 4481 04e2 0C       		.byte	0xc
 4482 04e3 00512502 		.4byte	0x2255100
 4483 04e7 1E       		.byte	0x1e
 4484 04e8 22       		.byte	0x22
 4485 04e9 22       		.byte	0x22
 4486 04ea 22       		.byte	0x22
 4487 04eb 22       		.byte	0x22
 4488 04ec 9F       		.byte	0x9f
 4489 04ed 00000000 		.4byte	0
 4490 04f1 00000000 		.4byte	0
 4491              	.LLST17:
 4492 04f5 2C000000 		.4byte	.LVL24
ARM GAS  /tmp/ccoY6B6t.s 			page 80


 4493 04f9 2F000000 		.4byte	.LVL25-1
 4494 04fd 0100     		.2byte	0x1
 4495 04ff 50       		.byte	0x50
 4496 0500 00000000 		.4byte	0
 4497 0504 00000000 		.4byte	0
 4498              	.LLST18:
 4499 0508 D4000000 		.4byte	.LVL33
 4500 050c DE000000 		.4byte	.LVL34
 4501 0510 0100     		.2byte	0x1
 4502 0512 54       		.byte	0x54
 4503 0513 DE000000 		.4byte	.LVL34
 4504 0517 F0000000 		.4byte	.LFE280
 4505 051b 0400     		.2byte	0x4
 4506 051d F3       		.byte	0xf3
 4507 051e 01       		.uleb128 0x1
 4508 051f 51       		.byte	0x51
 4509 0520 9F       		.byte	0x9f
 4510 0521 00000000 		.4byte	0
 4511 0525 00000000 		.4byte	0
 4512              	.LLST19:
 4513 0529 00000000 		.4byte	.LVL35
 4514 052d 0B000000 		.4byte	.LVL36-1
 4515 0531 0100     		.2byte	0x1
 4516 0533 50       		.byte	0x50
 4517 0534 0B000000 		.4byte	.LVL36-1
 4518 0538 38000000 		.4byte	.LVL38
 4519 053c 0100     		.2byte	0x1
 4520 053e 56       		.byte	0x56
 4521 053f 38000000 		.4byte	.LVL38
 4522 0543 3C000000 		.4byte	.LVL39
 4523 0547 0400     		.2byte	0x4
 4524 0549 F3       		.byte	0xf3
 4525 054a 01       		.uleb128 0x1
 4526 054b 50       		.byte	0x50
 4527 054c 9F       		.byte	0x9f
 4528 054d 3C000000 		.4byte	.LVL39
 4529 0551 50000000 		.4byte	.LFE281
 4530 0555 0100     		.2byte	0x1
 4531 0557 56       		.byte	0x56
 4532 0558 00000000 		.4byte	0
 4533 055c 00000000 		.4byte	0
 4534              	.LLST20:
 4535 0560 00000000 		.4byte	.LVL35
 4536 0564 0B000000 		.4byte	.LVL36-1
 4537 0568 0100     		.2byte	0x1
 4538 056a 51       		.byte	0x51
 4539 056b 0B000000 		.4byte	.LVL36-1
 4540 056f 38000000 		.4byte	.LVL38
 4541 0573 0100     		.2byte	0x1
 4542 0575 55       		.byte	0x55
 4543 0576 38000000 		.4byte	.LVL38
 4544 057a 3C000000 		.4byte	.LVL39
 4545 057e 0400     		.2byte	0x4
 4546 0580 F3       		.byte	0xf3
 4547 0581 01       		.uleb128 0x1
 4548 0582 51       		.byte	0x51
 4549 0583 9F       		.byte	0x9f
ARM GAS  /tmp/ccoY6B6t.s 			page 81


 4550 0584 3C000000 		.4byte	.LVL39
 4551 0588 50000000 		.4byte	.LFE281
 4552 058c 0100     		.2byte	0x1
 4553 058e 55       		.byte	0x55
 4554 058f 00000000 		.4byte	0
 4555 0593 00000000 		.4byte	0
 4556              	.LLST21:
 4557 0597 00000000 		.4byte	.LVL35
 4558 059b 0B000000 		.4byte	.LVL36-1
 4559 059f 0100     		.2byte	0x1
 4560 05a1 52       		.byte	0x52
 4561 05a2 0B000000 		.4byte	.LVL36-1
 4562 05a6 38000000 		.4byte	.LVL38
 4563 05aa 0100     		.2byte	0x1
 4564 05ac 54       		.byte	0x54
 4565 05ad 38000000 		.4byte	.LVL38
 4566 05b1 3C000000 		.4byte	.LVL39
 4567 05b5 0400     		.2byte	0x4
 4568 05b7 F3       		.byte	0xf3
 4569 05b8 01       		.uleb128 0x1
 4570 05b9 52       		.byte	0x52
 4571 05ba 9F       		.byte	0x9f
 4572 05bb 3C000000 		.4byte	.LVL39
 4573 05bf 50000000 		.4byte	.LFE281
 4574 05c3 0100     		.2byte	0x1
 4575 05c5 54       		.byte	0x54
 4576 05c6 00000000 		.4byte	0
 4577 05ca 00000000 		.4byte	0
 4578              	.LLST22:
 4579 05ce 34000000 		.4byte	.LVL37
 4580 05d2 3B000000 		.4byte	.LVL39-1
 4581 05d6 0100     		.2byte	0x1
 4582 05d8 50       		.byte	0x50
 4583 05d9 00000000 		.4byte	0
 4584 05dd 00000000 		.4byte	0
 4585              	.LLST23:
 4586 05e1 00000000 		.4byte	.LVL41
 4587 05e5 09000000 		.4byte	.LVL42-1
 4588 05e9 0100     		.2byte	0x1
 4589 05eb 50       		.byte	0x50
 4590 05ec 09000000 		.4byte	.LVL42-1
 4591 05f0 3C000000 		.4byte	.LVL44
 4592 05f4 0100     		.2byte	0x1
 4593 05f6 55       		.byte	0x55
 4594 05f7 3C000000 		.4byte	.LVL44
 4595 05fb 40000000 		.4byte	.LVL45
 4596 05ff 0400     		.2byte	0x4
 4597 0601 F3       		.byte	0xf3
 4598 0602 01       		.uleb128 0x1
 4599 0603 50       		.byte	0x50
 4600 0604 9F       		.byte	0x9f
 4601 0605 40000000 		.4byte	.LVL45
 4602 0609 56000000 		.4byte	.LVL47
 4603 060d 0100     		.2byte	0x1
 4604 060f 55       		.byte	0x55
 4605 0610 56000000 		.4byte	.LVL47
 4606 0614 5A000000 		.4byte	.LFE283
ARM GAS  /tmp/ccoY6B6t.s 			page 82


 4607 0618 0400     		.2byte	0x4
 4608 061a F3       		.byte	0xf3
 4609 061b 01       		.uleb128 0x1
 4610 061c 50       		.byte	0x50
 4611 061d 9F       		.byte	0x9f
 4612 061e 00000000 		.4byte	0
 4613 0622 00000000 		.4byte	0
 4614              	.LLST24:
 4615 0626 00000000 		.4byte	.LVL41
 4616 062a 09000000 		.4byte	.LVL42-1
 4617 062e 0100     		.2byte	0x1
 4618 0630 51       		.byte	0x51
 4619 0631 09000000 		.4byte	.LVL42-1
 4620 0635 3C000000 		.4byte	.LVL44
 4621 0639 0100     		.2byte	0x1
 4622 063b 54       		.byte	0x54
 4623 063c 3C000000 		.4byte	.LVL44
 4624 0640 40000000 		.4byte	.LVL45
 4625 0644 0400     		.2byte	0x4
 4626 0646 F3       		.byte	0xf3
 4627 0647 01       		.uleb128 0x1
 4628 0648 51       		.byte	0x51
 4629 0649 9F       		.byte	0x9f
 4630 064a 40000000 		.4byte	.LVL45
 4631 064e 56000000 		.4byte	.LVL47
 4632 0652 0100     		.2byte	0x1
 4633 0654 54       		.byte	0x54
 4634 0655 56000000 		.4byte	.LVL47
 4635 0659 5A000000 		.4byte	.LFE283
 4636 065d 0400     		.2byte	0x4
 4637 065f F3       		.byte	0xf3
 4638 0660 01       		.uleb128 0x1
 4639 0661 51       		.byte	0x51
 4640 0662 9F       		.byte	0x9f
 4641 0663 00000000 		.4byte	0
 4642 0667 00000000 		.4byte	0
 4643              	.LLST25:
 4644 066b 38000000 		.4byte	.LVL43
 4645 066f 3F000000 		.4byte	.LVL45-1
 4646 0673 0100     		.2byte	0x1
 4647 0675 50       		.byte	0x50
 4648 0676 52000000 		.4byte	.LVL46
 4649 067a 59000000 		.4byte	.LVL48-1
 4650 067e 0100     		.2byte	0x1
 4651 0680 50       		.byte	0x50
 4652 0681 00000000 		.4byte	0
 4653 0685 00000000 		.4byte	0
 4654              	.LLST26:
 4655 0689 00000000 		.4byte	.LVL49
 4656 068d 09000000 		.4byte	.LVL50-1
 4657 0691 0100     		.2byte	0x1
 4658 0693 50       		.byte	0x50
 4659 0694 09000000 		.4byte	.LVL50-1
 4660 0698 1E000000 		.4byte	.LVL52
 4661 069c 0100     		.2byte	0x1
 4662 069e 54       		.byte	0x54
 4663 069f 1E000000 		.4byte	.LVL52
ARM GAS  /tmp/ccoY6B6t.s 			page 83


 4664 06a3 22000000 		.4byte	.LFE284
 4665 06a7 0400     		.2byte	0x4
 4666 06a9 F3       		.byte	0xf3
 4667 06aa 01       		.uleb128 0x1
 4668 06ab 50       		.byte	0x50
 4669 06ac 9F       		.byte	0x9f
 4670 06ad 00000000 		.4byte	0
 4671 06b1 00000000 		.4byte	0
 4672              	.LLST27:
 4673 06b5 00000000 		.4byte	.LVL49
 4674 06b9 09000000 		.4byte	.LVL50-1
 4675 06bd 0100     		.2byte	0x1
 4676 06bf 51       		.byte	0x51
 4677 06c0 09000000 		.4byte	.LVL50-1
 4678 06c4 1E000000 		.4byte	.LVL52
 4679 06c8 0100     		.2byte	0x1
 4680 06ca 55       		.byte	0x55
 4681 06cb 1E000000 		.4byte	.LVL52
 4682 06cf 22000000 		.4byte	.LFE284
 4683 06d3 0400     		.2byte	0x4
 4684 06d5 F3       		.byte	0xf3
 4685 06d6 01       		.uleb128 0x1
 4686 06d7 51       		.byte	0x51
 4687 06d8 9F       		.byte	0x9f
 4688 06d9 00000000 		.4byte	0
 4689 06dd 00000000 		.4byte	0
 4690              	.LLST28:
 4691 06e1 1A000000 		.4byte	.LVL51
 4692 06e5 21000000 		.4byte	.LVL53-1
 4693 06e9 0100     		.2byte	0x1
 4694 06eb 50       		.byte	0x50
 4695 06ec 00000000 		.4byte	0
 4696 06f0 00000000 		.4byte	0
 4697              		.section	.debug_aranges,"",%progbits
 4698 0000 4C000000 		.4byte	0x4c
 4699 0004 0200     		.2byte	0x2
 4700 0006 00000000 		.4byte	.Ldebug_info0
 4701 000a 04       		.byte	0x4
 4702 000b 00       		.byte	0
 4703 000c 0000     		.2byte	0
 4704 000e 0000     		.2byte	0
 4705 0010 00000000 		.4byte	.LFB278
 4706 0014 5C000000 		.4byte	.LFE278-.LFB278
 4707 0018 00000000 		.4byte	.LFB279
 4708 001c 2C010000 		.4byte	.LFE279-.LFB279
 4709 0020 00000000 		.4byte	.LFB280
 4710 0024 F0000000 		.4byte	.LFE280-.LFB280
 4711 0028 00000000 		.4byte	.LFB281
 4712 002c 50000000 		.4byte	.LFE281-.LFB281
 4713 0030 00000000 		.4byte	.LFB282
 4714 0034 0A000000 		.4byte	.LFE282-.LFB282
 4715 0038 00000000 		.4byte	.LFB283
 4716 003c 5A000000 		.4byte	.LFE283-.LFB283
 4717 0040 00000000 		.4byte	.LFB284
 4718 0044 22000000 		.4byte	.LFE284-.LFB284
 4719 0048 00000000 		.4byte	0
 4720 004c 00000000 		.4byte	0
ARM GAS  /tmp/ccoY6B6t.s 			page 84


 4721              		.section	.debug_ranges,"",%progbits
 4722              	.Ldebug_ranges0:
 4723 0000 1C000000 		.4byte	.LBB30
 4724 0004 1E000000 		.4byte	.LBE30
 4725 0008 20000000 		.4byte	.LBB33
 4726 000c 30000000 		.4byte	.LBE33
 4727 0010 00000000 		.4byte	0
 4728 0014 00000000 		.4byte	0
 4729 0018 04000000 		.4byte	.LBB48
 4730 001c 08000000 		.4byte	.LBE48
 4731 0020 0A000000 		.4byte	.LBB92
 4732 0024 0C000000 		.4byte	.LBE92
 4733 0028 16000000 		.4byte	.LBB94
 4734 002c 1A000000 		.4byte	.LBE94
 4735 0030 1C000000 		.4byte	.LBB96
 4736 0034 20000000 		.4byte	.LBE96
 4737 0038 22000000 		.4byte	.LBB98
 4738 003c 2C000000 		.4byte	.LBE98
 4739 0040 30000000 		.4byte	.LBB100
 4740 0044 36000000 		.4byte	.LBE100
 4741 0048 3A000000 		.4byte	.LBB102
 4742 004c 3C000000 		.4byte	.LBE102
 4743 0050 40000000 		.4byte	.LBB104
 4744 0054 44000000 		.4byte	.LBE104
 4745 0058 48000000 		.4byte	.LBB106
 4746 005c 4A000000 		.4byte	.LBE106
 4747 0060 54000000 		.4byte	.LBB108
 4748 0064 58000000 		.4byte	.LBE108
 4749 0068 60000000 		.4byte	.LBB110
 4750 006c 64000000 		.4byte	.LBE110
 4751 0070 66000000 		.4byte	.LBB112
 4752 0074 72000000 		.4byte	.LBE112
 4753 0078 84000000 		.4byte	.LBB114
 4754 007c 88000000 		.4byte	.LBE114
 4755 0080 8C000000 		.4byte	.LBB116
 4756 0084 96000000 		.4byte	.LBE116
 4757 0088 A4000000 		.4byte	.LBB118
 4758 008c AA000000 		.4byte	.LBE118
 4759 0090 B2000000 		.4byte	.LBB120
 4760 0094 B6000000 		.4byte	.LBE120
 4761 0098 BA000000 		.4byte	.LBB122
 4762 009c C2000000 		.4byte	.LBE122
 4763 00a0 C6000000 		.4byte	.LBB124
 4764 00a4 CA000000 		.4byte	.LBE124
 4765 00a8 CE000000 		.4byte	.LBB126
 4766 00ac D6000000 		.4byte	.LBE126
 4767 00b0 DA000000 		.4byte	.LBB128
 4768 00b4 DE000000 		.4byte	.LBE128
 4769 00b8 E2000000 		.4byte	.LBB130
 4770 00bc E6000000 		.4byte	.LBE130
 4771 00c0 00000000 		.4byte	0
 4772 00c4 00000000 		.4byte	0
 4773 00c8 08000000 		.4byte	.LBB70
 4774 00cc 0A000000 		.4byte	.LBE70
 4775 00d0 0C000000 		.4byte	.LBB93
 4776 00d4 14000000 		.4byte	.LBE93
 4777 00d8 1A000000 		.4byte	.LBB95
ARM GAS  /tmp/ccoY6B6t.s 			page 85


 4778 00dc 1C000000 		.4byte	.LBE95
 4779 00e0 20000000 		.4byte	.LBB97
 4780 00e4 22000000 		.4byte	.LBE97
 4781 00e8 2C000000 		.4byte	.LBB99
 4782 00ec 30000000 		.4byte	.LBE99
 4783 00f0 36000000 		.4byte	.LBB101
 4784 00f4 3A000000 		.4byte	.LBE101
 4785 00f8 3C000000 		.4byte	.LBB103
 4786 00fc 40000000 		.4byte	.LBE103
 4787 0100 44000000 		.4byte	.LBB105
 4788 0104 48000000 		.4byte	.LBE105
 4789 0108 4A000000 		.4byte	.LBB107
 4790 010c 54000000 		.4byte	.LBE107
 4791 0110 58000000 		.4byte	.LBB109
 4792 0114 60000000 		.4byte	.LBE109
 4793 0118 64000000 		.4byte	.LBB111
 4794 011c 66000000 		.4byte	.LBE111
 4795 0120 72000000 		.4byte	.LBB113
 4796 0124 84000000 		.4byte	.LBE113
 4797 0128 88000000 		.4byte	.LBB115
 4798 012c 8C000000 		.4byte	.LBE115
 4799 0130 96000000 		.4byte	.LBB117
 4800 0134 A4000000 		.4byte	.LBE117
 4801 0138 AA000000 		.4byte	.LBB119
 4802 013c B2000000 		.4byte	.LBE119
 4803 0140 B6000000 		.4byte	.LBB121
 4804 0144 BA000000 		.4byte	.LBE121
 4805 0148 C2000000 		.4byte	.LBB123
 4806 014c C6000000 		.4byte	.LBE123
 4807 0150 CA000000 		.4byte	.LBB125
 4808 0154 CE000000 		.4byte	.LBE125
 4809 0158 D6000000 		.4byte	.LBB127
 4810 015c DA000000 		.4byte	.LBE127
 4811 0160 DE000000 		.4byte	.LBB129
 4812 0164 E2000000 		.4byte	.LBE129
 4813 0168 E8000000 		.4byte	.LBB131
 4814 016c EC000000 		.4byte	.LBE131
 4815 0170 00000000 		.4byte	0
 4816 0174 00000000 		.4byte	0
 4817 0178 1E000000 		.4byte	.LBB150
 4818 017c 26000000 		.4byte	.LBE150
 4819 0180 30000000 		.4byte	.LBB160
 4820 0184 34000000 		.4byte	.LBE160
 4821 0188 3C000000 		.4byte	.LBB174
 4822 018c 5C000000 		.4byte	.LBE174
 4823 0190 60000000 		.4byte	.LBB176
 4824 0194 6C000000 		.4byte	.LBE176
 4825 0198 74000000 		.4byte	.LBB178
 4826 019c 7C000000 		.4byte	.LBE178
 4827 01a0 82000000 		.4byte	.LBB180
 4828 01a4 86000000 		.4byte	.LBE180
 4829 01a8 8A000000 		.4byte	.LBB182
 4830 01ac 8E000000 		.4byte	.LBE182
 4831 01b0 00000000 		.4byte	0
 4832 01b4 00000000 		.4byte	0
 4833 01b8 36000000 		.4byte	.LBB161
 4834 01bc 38000000 		.4byte	.LBE161
ARM GAS  /tmp/ccoY6B6t.s 			page 86


 4835 01c0 3A000000 		.4byte	.LBB173
 4836 01c4 3C000000 		.4byte	.LBE173
 4837 01c8 5C000000 		.4byte	.LBB175
 4838 01cc 60000000 		.4byte	.LBE175
 4839 01d0 6C000000 		.4byte	.LBB177
 4840 01d4 70000000 		.4byte	.LBE177
 4841 01d8 7C000000 		.4byte	.LBB179
 4842 01dc 82000000 		.4byte	.LBE179
 4843 01e0 86000000 		.4byte	.LBB181
 4844 01e4 8A000000 		.4byte	.LBE181
 4845 01e8 8E000000 		.4byte	.LBB183
 4846 01ec 92000000 		.4byte	.LBE183
 4847 01f0 9A000000 		.4byte	.LBB184
 4848 01f4 AA000000 		.4byte	.LBE184
 4849 01f8 B2000000 		.4byte	.LBB185
 4850 01fc C2000000 		.4byte	.LBE185
 4851 0200 C6000000 		.4byte	.LBB186
 4852 0204 D2000000 		.4byte	.LBE186
 4853 0208 D4000000 		.4byte	.LBB187
 4854 020c F0000000 		.4byte	.LBE187
 4855 0210 00000000 		.4byte	0
 4856 0214 00000000 		.4byte	0
 4857 0218 3C000000 		.4byte	.LBB194
 4858 021c 40000000 		.4byte	.LBE194
 4859 0220 56000000 		.4byte	.LBB197
 4860 0224 5A000000 		.4byte	.LBE197
 4861 0228 00000000 		.4byte	0
 4862 022c 00000000 		.4byte	0
 4863 0230 00000000 		.4byte	.LFB278
 4864 0234 5C000000 		.4byte	.LFE278
 4865 0238 00000000 		.4byte	.LFB279
 4866 023c 2C010000 		.4byte	.LFE279
 4867 0240 00000000 		.4byte	.LFB280
 4868 0244 F0000000 		.4byte	.LFE280
 4869 0248 00000000 		.4byte	.LFB281
 4870 024c 50000000 		.4byte	.LFE281
 4871 0250 00000000 		.4byte	.LFB282
 4872 0254 0A000000 		.4byte	.LFE282
 4873 0258 00000000 		.4byte	.LFB283
 4874 025c 5A000000 		.4byte	.LFE283
 4875 0260 00000000 		.4byte	.LFB284
 4876 0264 22000000 		.4byte	.LFE284
 4877 0268 00000000 		.4byte	0
 4878 026c 00000000 		.4byte	0
 4879              		.section	.debug_line,"",%progbits
 4880              	.Ldebug_line0:
 4881 0000 A8050000 		.section	.debug_str,"MS",%progbits,1
 4881      02005303 
 4881      00000201 
 4881      FB0E0D00 
 4881      01010101 
 4882              	.LASF51:
 4883 0000 72656164 		.ascii	"ready_list_t\000"
 4883      795F6C69 
 4883      73745F74 
 4883      00
 4884              	.LASF3:
ARM GAS  /tmp/ccoY6B6t.s 			page 87


 4885 000d 73697A65 		.ascii	"size_t\000"
 4885      5F7400
 4886              	.LASF117:
 4887 0014 7264796D 		.ascii	"rdymsg\000"
 4887      736700
 4888              	.LASF171:
 4889 001b 2F752F63 		.ascii	"/u/cojthack/summerResearch2016/milestone2\000"
 4889      6F6A7468 
 4889      61636B2F 
 4889      73756D6D 
 4889      65725265 
 4890              	.LASF4:
 4891 0045 5F5F7569 		.ascii	"__uint8_t\000"
 4891      6E74385F 
 4891      7400
 4892              	.LASF24:
 4893 004f 6D73675F 		.ascii	"msg_t\000"
 4893      7400
 4894              	.LASF146:
 4895 0055 52544357 		.ascii	"RTCWakeup\000"
 4895      616B6575 
 4895      7000
 4896              	.LASF114:
 4897 005f 706F7274 		.ascii	"port_intctx\000"
 4897      5F696E74 
 4897      63747800 
 4898              	.LASF50:
 4899 006b 63685F74 		.ascii	"ch_threads_queue\000"
 4899      68726561 
 4899      64735F71 
 4899      75657565 
 4899      00
 4900              	.LASF70:
 4901 007c 73797374 		.ascii	"system_debug_t\000"
 4901      656D5F64 
 4901      65627567 
 4901      5F7400
 4902              	.LASF89:
 4903 008b 43414C52 		.ascii	"CALR\000"
 4903      00
 4904              	.LASF97:
 4905 0090 424B5033 		.ascii	"BKP3R\000"
 4905      5200
 4906              	.LASF80:
 4907 0096 50524552 		.ascii	"PRER\000"
 4907      00
 4908              	.LASF81:
 4909 009b 57555452 		.ascii	"WUTR\000"
 4909      00
 4910              	.LASF159:
 4911 00a0 73756273 		.ascii	"subs\000"
 4911      00
 4912              	.LASF0:
 4913 00a5 6C6F6E67 		.ascii	"long long unsigned int\000"
 4913      206C6F6E 
 4913      6720756E 
 4913      7369676E 
ARM GAS  /tmp/ccoY6B6t.s 			page 88


 4913      65642069 
 4914              	.LASF118:
 4915 00bc 65786974 		.ascii	"exitcode\000"
 4915      636F6465 
 4915      00
 4916              	.LASF77:
 4917 00c5 6D61696E 		.ascii	"mainthread\000"
 4917      74687265 
 4917      616400
 4918              	.LASF121:
 4919 00d0 73656E74 		.ascii	"sentmsg\000"
 4919      6D736700 
 4920              	.LASF67:
 4921 00d8 76697274 		.ascii	"virtual_timers_list_t\000"
 4921      75616C5F 
 4921      74696D65 
 4921      72735F6C 
 4921      6973745F 
 4922              	.LASF167:
 4923 00ee 49544D5F 		.ascii	"ITM_RxBuffer\000"
 4923      52784275 
 4923      66666572 
 4923      00
 4924              	.LASF138:
 4925 00fb 64737466 		.ascii	"dstflag\000"
 4925      6C616700 
 4926              	.LASF110:
 4927 0103 5254435F 		.ascii	"RTC_TypeDef\000"
 4927      54797065 
 4927      44656600 
 4928              	.LASF31:
 4929 010f 705F7072 		.ascii	"p_prio\000"
 4929      696F00
 4930              	.LASF12:
 4931 0116 6C6F6E67 		.ascii	"long long int\000"
 4931      206C6F6E 
 4931      6720696E 
 4931      7400
 4932              	.LASF2:
 4933 0124 7369676E 		.ascii	"signed char\000"
 4933      65642063 
 4933      68617200 
 4934              	.LASF145:
 4935 0130 77757472 		.ascii	"wutr\000"
 4935      00
 4936              	.LASF44:
 4937 0135 705F6D70 		.ascii	"p_mpool\000"
 4937      6F6F6C00 
 4938              	.LASF129:
 4939 013d 6D5F7175 		.ascii	"m_queue\000"
 4939      65756500 
 4940              	.LASF152:
 4941 0145 7274635F 		.ascii	"rtc_lld_init\000"
 4941      6C6C645F 
 4941      696E6974 
 4941      00
 4942              	.LASF76:
ARM GAS  /tmp/ccoY6B6t.s 			page 89


 4943 0152 76746C69 		.ascii	"vtlist\000"
 4943      737400
 4944              	.LASF88:
 4945 0159 54535353 		.ascii	"TSSSR\000"
 4945      5200
 4946              	.LASF165:
 4947 015f 77616B65 		.ascii	"wakeupspec\000"
 4947      75707370 
 4947      656300
 4948              	.LASF136:
 4949 016a 79656172 		.ascii	"year\000"
 4949      00
 4950              	.LASF120:
 4951 016f 77747472 		.ascii	"wttrp\000"
 4951      7000
 4952              	.LASF150:
 4953 0175 7274635F 		.ascii	"rtc_encode_time\000"
 4953      656E636F 
 4953      64655F74 
 4953      696D6500 
 4954              	.LASF9:
 4955 0185 6C6F6E67 		.ascii	"long int\000"
 4955      20696E74 
 4955      00
 4956              	.LASF98:
 4957 018e 424B5034 		.ascii	"BKP4R\000"
 4957      5200
 4958              	.LASF21:
 4959 0194 74737461 		.ascii	"tstate_t\000"
 4959      74655F74 
 4959      00
 4960              	.LASF166:
 4961 019d 72746353 		.ascii	"rtcSTM32GetPeriodicWakeup\000"
 4961      544D3332 
 4961      47657450 
 4961      6572696F 
 4961      64696357 
 4962              	.LASF162:
 4963 01b7 616C6172 		.ascii	"alarmspec\000"
 4963      6D737065 
 4963      6300
 4964              	.LASF33:
 4965 01c1 705F6E65 		.ascii	"p_newer\000"
 4965      77657200 
 4966              	.LASF126:
 4967 01c9 735F7175 		.ascii	"s_queue\000"
 4967      65756500 
 4968              	.LASF19:
 4969 01d1 73797373 		.ascii	"syssts_t\000"
 4969      74735F74 
 4969      00
 4970              	.LASF56:
 4971 01da 725F6E65 		.ascii	"r_newer\000"
 4971      77657200 
 4972              	.LASF111:
 4973 01e2 72656761 		.ascii	"regarm_t\000"
 4973      726D5F74 
ARM GAS  /tmp/ccoY6B6t.s 			page 90


 4973      00
 4974              	.LASF63:
 4975 01eb 76745F70 		.ascii	"vt_prev\000"
 4975      72657600 
 4976              	.LASF174:
 4977 01f3 7274634F 		.ascii	"rtcObjectInit\000"
 4977      626A6563 
 4977      74496E69 
 4977      7400
 4978              	.LASF133:
 4979 0201 6D757465 		.ascii	"mutex_t\000"
 4979      785F7400 
 4980              	.LASF78:
 4981 0209 69646C65 		.ascii	"idle_thread_wa\000"
 4981      5F746872 
 4981      6561645F 
 4981      776100
 4982              	.LASF151:
 4983 0218 7274635F 		.ascii	"rtc_encode_date\000"
 4983      656E636F 
 4983      64655F64 
 4983      61746500 
 4984              	.LASF137:
 4985 0228 6D6F6E74 		.ascii	"month\000"
 4985      6800
 4986              	.LASF87:
 4987 022e 54534452 		.ascii	"TSDR\000"
 4987      00
 4988              	.LASF62:
 4989 0233 76745F6E 		.ascii	"vt_next\000"
 4989      65787400 
 4990              	.LASF99:
 4991 023b 424B5035 		.ascii	"BKP5R\000"
 4991      5200
 4992              	.LASF122:
 4993 0241 77747365 		.ascii	"wtsemp\000"
 4993      6D7000
 4994              	.LASF64:
 4995 0248 76745F64 		.ascii	"vt_delta\000"
 4995      656C7461 
 4995      00
 4996              	.LASF149:
 4997 0251 74696D65 		.ascii	"timespec\000"
 4997      73706563 
 4997      00
 4998              	.LASF40:
 4999 025a 705F6D73 		.ascii	"p_msgqueue\000"
 4999      67717565 
 4999      756500
 5000              	.LASF154:
 5001 0265 72746370 		.ascii	"rtcp\000"
 5001      00
 5002              	.LASF47:
 5003 026a 63685F74 		.ascii	"ch_thread\000"
 5003      68726561 
 5003      6400
 5004              	.LASF52:
ARM GAS  /tmp/ccoY6B6t.s 			page 91


 5005 0274 63685F72 		.ascii	"ch_ready_list\000"
 5005      65616479 
 5005      5F6C6973 
 5005      7400
 5006              	.LASF109:
 5007 0282 424B5031 		.ascii	"BKP15R\000"
 5007      355200
 5008              	.LASF127:
 5009 0289 735F636E 		.ascii	"s_cnt\000"
 5009      7400
 5010              	.LASF160:
 5011 028f 7274635F 		.ascii	"rtc_lld_set_alarm\000"
 5011      6C6C645F 
 5011      7365745F 
 5011      616C6172 
 5011      6D00
 5012              	.LASF7:
 5013 02a1 73686F72 		.ascii	"short unsigned int\000"
 5013      7420756E 
 5013      7369676E 
 5013      65642069 
 5013      6E7400
 5014              	.LASF140:
 5015 02b4 6D696C6C 		.ascii	"millisecond\000"
 5015      69736563 
 5015      6F6E6400 
 5016              	.LASF158:
 5017 02c0 7274635F 		.ascii	"rtc_lld_get_time\000"
 5017      6C6C645F 
 5017      6765745F 
 5017      74696D65 
 5017      00
 5018              	.LASF147:
 5019 02d1 7274635F 		.ascii	"rtc_enter_init\000"
 5019      656E7465 
 5019      725F696E 
 5019      697400
 5020              	.LASF73:
 5021 02e0 63685F73 		.ascii	"ch_system_t\000"
 5021      79737465 
 5021      6D5F7400 
 5022              	.LASF172:
 5023 02ec 6F73616C 		.ascii	"osalSysGetStatusAndLockX\000"
 5023      53797347 
 5023      65745374 
 5023      61747573 
 5023      416E644C 
 5024              	.LASF104:
 5025 0305 424B5031 		.ascii	"BKP10R\000"
 5025      305200
 5026              	.LASF20:
 5027 030c 746D6F64 		.ascii	"tmode_t\000"
 5027      655F7400 
 5028              	.LASF86:
 5029 0314 54535452 		.ascii	"TSTR\000"
 5029      00
 5030              	.LASF42:
ARM GAS  /tmp/ccoY6B6t.s 			page 92


 5031 0319 705F6D74 		.ascii	"p_mtxlist\000"
 5031      786C6973 
 5031      7400
 5032              	.LASF25:
 5033 0323 6576656E 		.ascii	"eventmask_t\000"
 5033      746D6173 
 5033      6B5F7400 
 5034              	.LASF8:
 5035 032f 5F5F696E 		.ascii	"__int32_t\000"
 5035      7433325F 
 5035      7400
 5036              	.LASF112:
 5037 0339 73746B61 		.ascii	"stkalign_t\000"
 5037      6C69676E 
 5037      5F7400
 5038              	.LASF100:
 5039 0344 424B5036 		.ascii	"BKP6R\000"
 5039      5200
 5040              	.LASF46:
 5041 034a 74687265 		.ascii	"threads_list_t\000"
 5041      6164735F 
 5041      6C697374 
 5041      5F7400
 5042              	.LASF143:
 5043 0359 616C726D 		.ascii	"alrmr\000"
 5043      7200
 5044              	.LASF141:
 5045 035f 52544344 		.ascii	"RTCDateTime\000"
 5045      61746554 
 5045      696D6500 
 5046              	.LASF39:
 5047 036b 705F7761 		.ascii	"p_waiting\000"
 5047      6974696E 
 5047      6700
 5048              	.LASF79:
 5049 0375 73697A65 		.ascii	"sizetype\000"
 5049      74797065 
 5049      00
 5050              	.LASF45:
 5051 037e 74687265 		.ascii	"thread_reference_t\000"
 5051      61645F72 
 5051      65666572 
 5051      656E6365 
 5051      5F7400
 5052              	.LASF68:
 5053 0391 63685F76 		.ascii	"ch_virtual_timers_list\000"
 5053      69727475 
 5053      616C5F74 
 5053      696D6572 
 5053      735F6C69 
 5054              	.LASF142:
 5055 03a8 72746361 		.ascii	"rtcalarm_t\000"
 5055      6C61726D 
 5055      5F7400
 5056              	.LASF26:
 5057 03b3 636E745F 		.ascii	"cnt_t\000"
 5057      7400
ARM GAS  /tmp/ccoY6B6t.s 			page 93


 5058              	.LASF69:
 5059 03b9 76745F6C 		.ascii	"vt_lasttime\000"
 5059      61737474 
 5059      696D6500 
 5060              	.LASF17:
 5061 03c5 75696E74 		.ascii	"uint64_t\000"
 5061      36345F74 
 5061      00
 5062              	.LASF34:
 5063 03ce 705F6F6C 		.ascii	"p_older\000"
 5063      64657200 
 5064              	.LASF55:
 5065 03d6 725F6374 		.ascii	"r_ctx\000"
 5065      7800
 5066              	.LASF116:
 5067 03dc 746D5F63 		.ascii	"tm_calibration_t\000"
 5067      616C6962 
 5067      72617469 
 5067      6F6E5F74 
 5067      00
 5068              	.LASF105:
 5069 03ed 424B5031 		.ascii	"BKP11R\000"
 5069      315200
 5070              	.LASF58:
 5071 03f4 725F6375 		.ascii	"r_current\000"
 5071      7272656E 
 5071      7400
 5072              	.LASF57:
 5073 03fe 725F6F6C 		.ascii	"r_older\000"
 5073      64657200 
 5074              	.LASF106:
 5075 0406 424B5031 		.ascii	"BKP12R\000"
 5075      325200
 5076              	.LASF13:
 5077 040d 5F5F7569 		.ascii	"__uint64_t\000"
 5077      6E743634 
 5077      5F7400
 5078              	.LASF83:
 5079 0418 414C524D 		.ascii	"ALRMAR\000"
 5079      415200
 5080              	.LASF163:
 5081 041f 7274635F 		.ascii	"rtc_lld_get_alarm\000"
 5081      6C6C645F 
 5081      6765745F 
 5081      616C6172 
 5081      6D00
 5082              	.LASF101:
 5083 0431 424B5037 		.ascii	"BKP7R\000"
 5083      5200
 5084              	.LASF90:
 5085 0437 54414643 		.ascii	"TAFCR\000"
 5085      5200
 5086              	.LASF22:
 5087 043d 74726566 		.ascii	"trefs_t\000"
 5087      735F7400 
 5088              	.LASF82:
 5089 0445 52455345 		.ascii	"RESERVED0\000"
ARM GAS  /tmp/ccoY6B6t.s 			page 94


 5089      52564544 
 5089      3000
 5090              	.LASF60:
 5091 044f 76697274 		.ascii	"virtual_timer_t\000"
 5091      75616C5F 
 5091      74696D65 
 5091      725F7400 
 5092              	.LASF30:
 5093 045f 705F7072 		.ascii	"p_prev\000"
 5093      657600
 5094              	.LASF93:
 5095 0466 52455345 		.ascii	"RESERVED7\000"
 5095      52564544 
 5095      3700
 5096              	.LASF23:
 5097 0470 74707269 		.ascii	"tprio_t\000"
 5097      6F5F7400 
 5098              	.LASF161:
 5099 0478 616C6172 		.ascii	"alarm\000"
 5099      6D00
 5100              	.LASF71:
 5101 047e 63685F73 		.ascii	"ch_system_debug\000"
 5101      79737465 
 5101      6D5F6465 
 5101      62756700 
 5102              	.LASF134:
 5103 048e 5F426F6F 		.ascii	"_Bool\000"
 5103      6C00
 5104              	.LASF15:
 5105 0494 696E7433 		.ascii	"int32_t\000"
 5105      325F7400 
 5106              	.LASF164:
 5107 049c 72746353 		.ascii	"rtcSTM32SetPeriodicWakeup\000"
 5107      544D3332 
 5107      53657450 
 5107      6572696F 
 5107      64696357 
 5108              	.LASF135:
 5109 04b6 52544344 		.ascii	"RTCDriver\000"
 5109      72697665 
 5109      7200
 5110              	.LASF168:
 5111 04c0 52544344 		.ascii	"RTCD1\000"
 5111      3100
 5112              	.LASF6:
 5113 04c6 73686F72 		.ascii	"short int\000"
 5113      7420696E 
 5113      7400
 5114              	.LASF36:
 5115 04d0 705F7374 		.ascii	"p_state\000"
 5115      61746500 
 5116              	.LASF54:
 5117 04d8 725F7072 		.ascii	"r_prio\000"
 5117      696F00
 5118              	.LASF124:
 5119 04df 65776D61 		.ascii	"ewmask\000"
 5119      736B00
ARM GAS  /tmp/ccoY6B6t.s 			page 95


 5120              	.LASF29:
 5121 04e6 705F6E65 		.ascii	"p_next\000"
 5121      787400
 5122              	.LASF170:
 5123 04ed 2E2E2F43 		.ascii	"../ChibiOS/os/hal/ports/STM32/LLD/RTCv2/rtc_lld.c\000"
 5123      68696269 
 5123      4F532F6F 
 5123      732F6861 
 5123      6C2F706F 
 5124              	.LASF173:
 5125 051f 5F5F6675 		.ascii	"__func__\000"
 5125      6E635F5F 
 5125      00
 5126              	.LASF74:
 5127 0528 63685F73 		.ascii	"ch_system\000"
 5127      79737465 
 5127      6D00
 5128              	.LASF94:
 5129 0532 424B5030 		.ascii	"BKP0R\000"
 5129      5200
 5130              	.LASF156:
 5131 0538 7274635F 		.ascii	"rtc_decode_time\000"
 5131      6465636F 
 5131      64655F74 
 5131      696D6500 
 5132              	.LASF157:
 5133 0548 7274635F 		.ascii	"rtc_decode_date\000"
 5133      6465636F 
 5133      64655F64 
 5133      61746500 
 5134              	.LASF125:
 5135 0558 63685F73 		.ascii	"ch_semaphore\000"
 5135      656D6170 
 5135      686F7265 
 5135      00
 5136              	.LASF84:
 5137 0565 414C524D 		.ascii	"ALRMBR\000"
 5137      425200
 5138              	.LASF41:
 5139 056c 705F6570 		.ascii	"p_epending\000"
 5139      656E6469 
 5139      6E6700
 5140              	.LASF102:
 5141 0577 424B5038 		.ascii	"BKP8R\000"
 5141      5200
 5142              	.LASF16:
 5143 057d 75696E74 		.ascii	"uint32_t\000"
 5143      33325F74 
 5143      00
 5144              	.LASF123:
 5145 0586 77746D74 		.ascii	"wtmtxp\000"
 5145      787000
 5146              	.LASF53:
 5147 058d 725F7175 		.ascii	"r_queue\000"
 5147      65756500 
 5148              	.LASF176:
 5149 0595 63685379 		.ascii	"chSysRestoreStatusX\000"
ARM GAS  /tmp/ccoY6B6t.s 			page 96


 5149      73526573 
 5149      746F7265 
 5149      53746174 
 5149      75735800 
 5150              	.LASF48:
 5151 05a9 63685F74 		.ascii	"ch_threads_list\000"
 5151      68726561 
 5151      64735F6C 
 5151      69737400 
 5152              	.LASF175:
 5153 05b9 63685379 		.ascii	"chSysGetStatusAndLockX\000"
 5153      73476574 
 5153      53746174 
 5153      7573416E 
 5153      644C6F63 
 5154              	.LASF11:
 5155 05d0 6C6F6E67 		.ascii	"long unsigned int\000"
 5155      20756E73 
 5155      69676E65 
 5155      6420696E 
 5155      7400
 5156              	.LASF132:
 5157 05e2 63686172 		.ascii	"char\000"
 5157      00
 5158              	.LASF1:
 5159 05e7 756E7369 		.ascii	"unsigned int\000"
 5159      676E6564 
 5159      20696E74 
 5159      00
 5160              	.LASF28:
 5161 05f4 74687265 		.ascii	"thread_t\000"
 5161      61645F74 
 5161      00
 5162              	.LASF169:
 5163 05fd 474E5520 		.ascii	"GNU C 4.8.4 20140526 (release) [ARM/embedded-4_8-br"
 5163      4320342E 
 5163      382E3420 
 5163      32303134 
 5163      30353236 
 5164 0630 616E6368 		.ascii	"anch revision 211358] -mcpu=cortex-m4 -mno-thumb-in"
 5164      20726576 
 5164      6973696F 
 5164      6E203231 
 5164      31333538 
 5165 0663 74657277 		.ascii	"terwork -mthumb -ggdb -O2 -fomit-frame-pointer -fal"
 5165      6F726B20 
 5165      2D6D7468 
 5165      756D6220 
 5165      2D676764 
 5166 0696 69676E2D 		.ascii	"ign-functions=16 -ffunction-sections -fdata-section"
 5166      66756E63 
 5166      74696F6E 
 5166      733D3136 
 5166      202D6666 
 5167 06c9 73202D66 		.ascii	"s -fno-common\000"
 5167      6E6F2D63 
 5167      6F6D6D6F 
ARM GAS  /tmp/ccoY6B6t.s 			page 97


 5167      6E00
 5168              	.LASF131:
 5169 06d7 6D5F6E65 		.ascii	"m_next\000"
 5169      787400
 5170              	.LASF27:
 5171 06de 73797374 		.ascii	"systime_t\000"
 5171      696D655F 
 5171      7400
 5172              	.LASF43:
 5173 06e8 705F7265 		.ascii	"p_realprio\000"
 5173      616C7072 
 5173      696F00
 5174              	.LASF59:
 5175 06f3 76746675 		.ascii	"vtfunc_t\000"
 5175      6E635F74 
 5175      00
 5176              	.LASF10:
 5177 06fc 5F5F7569 		.ascii	"__uint32_t\000"
 5177      6E743332 
 5177      5F7400
 5178              	.LASF72:
 5179 0707 70616E69 		.ascii	"panic_msg\000"
 5179      635F6D73 
 5179      6700
 5180              	.LASF95:
 5181 0711 424B5031 		.ascii	"BKP1R\000"
 5181      5200
 5182              	.LASF115:
 5183 0717 6F666673 		.ascii	"offset\000"
 5183      657400
 5184              	.LASF92:
 5185 071e 414C524D 		.ascii	"ALRMBSSR\000"
 5185      42535352 
 5185      00
 5186              	.LASF107:
 5187 0727 424B5031 		.ascii	"BKP13R\000"
 5187      335200
 5188              	.LASF113:
 5189 072e 636F6E74 		.ascii	"context\000"
 5189      65787400 
 5190              	.LASF5:
 5191 0736 756E7369 		.ascii	"unsigned char\000"
 5191      676E6564 
 5191      20636861 
 5191      7200
 5192              	.LASF61:
 5193 0744 63685F76 		.ascii	"ch_virtual_timer\000"
 5193      69727475 
 5193      616C5F74 
 5193      696D6572 
 5193      00
 5194              	.LASF18:
 5195 0755 7274636E 		.ascii	"rtcnt_t\000"
 5195      745F7400 
 5196              	.LASF66:
 5197 075d 76745F70 		.ascii	"vt_par\000"
 5197      617200
ARM GAS  /tmp/ccoY6B6t.s 			page 98


 5198              	.LASF153:
 5199 0764 7274635F 		.ascii	"rtc_lld_set_time\000"
 5199      6C6C645F 
 5199      7365745F 
 5199      74696D65 
 5199      00
 5200              	.LASF155:
 5201 0775 6F73616C 		.ascii	"osalSysRestoreStatusX\000"
 5201      53797352 
 5201      6573746F 
 5201      72655374 
 5201      61747573 
 5202              	.LASF103:
 5203 078b 424B5039 		.ascii	"BKP9R\000"
 5203      5200
 5204              	.LASF85:
 5205 0791 53484946 		.ascii	"SHIFTR\000"
 5205      545200
 5206              	.LASF139:
 5207 0798 6461796F 		.ascii	"dayofweek\000"
 5207      66776565 
 5207      6B00
 5208              	.LASF49:
 5209 07a2 74687265 		.ascii	"threads_queue_t\000"
 5209      6164735F 
 5209      71756575 
 5209      655F7400 
 5210              	.LASF128:
 5211 07b2 63685F6D 		.ascii	"ch_mutex\000"
 5211      75746578 
 5211      00
 5212              	.LASF38:
 5213 07bb 705F7265 		.ascii	"p_refs\000"
 5213      667300
 5214              	.LASF144:
 5215 07c2 52544341 		.ascii	"RTCAlarm\000"
 5215      6C61726D 
 5215      00
 5216              	.LASF75:
 5217 07cb 726C6973 		.ascii	"rlist\000"
 5217      7400
 5218              	.LASF14:
 5219 07d1 75696E74 		.ascii	"uint8_t\000"
 5219      385F7400 
 5220              	.LASF91:
 5221 07d9 414C524D 		.ascii	"ALRMASSR\000"
 5221      41535352 
 5221      00
 5222              	.LASF119:
 5223 07e2 77746F62 		.ascii	"wtobjp\000"
 5223      6A7000
 5224              	.LASF35:
 5225 07e9 705F6E61 		.ascii	"p_name\000"
 5225      6D6500
 5226              	.LASF96:
 5227 07f0 424B5032 		.ascii	"BKP2R\000"
 5227      5200
ARM GAS  /tmp/ccoY6B6t.s 			page 99


 5228              	.LASF37:
 5229 07f6 705F666C 		.ascii	"p_flags\000"
 5229      61677300 
 5230              	.LASF108:
 5231 07fe 424B5031 		.ascii	"BKP14R\000"
 5231      345200
 5232              	.LASF130:
 5233 0805 6D5F6F77 		.ascii	"m_owner\000"
 5233      6E657200 
 5234              	.LASF32:
 5235 080d 705F6374 		.ascii	"p_ctx\000"
 5235      7800
 5236              	.LASF65:
 5237 0813 76745F66 		.ascii	"vt_func\000"
 5237      756E6300 
 5238              	.LASF148:
 5239 081b 7274635F 		.ascii	"rtc_exit_init\000"
 5239      65786974 
 5239      5F696E69 
 5239      7400
 5240              		.ident	"GCC: (GNU Tools for ARM Embedded Processors) 4.8.4 20140526 (release) [ARM/embedded-4_8-br
ARM GAS  /tmp/ccoY6B6t.s 			page 100


DEFINED SYMBOLS
                            *ABS*:00000000 rtc_lld.c
     /tmp/ccoY6B6t.s:19     .text.rtc_lld_init:00000000 $t
     /tmp/ccoY6B6t.s:25     .text.rtc_lld_init:00000000 rtc_lld_init
     /tmp/ccoY6B6t.s:107    .text.rtc_lld_init:00000050 $d
     /tmp/ccoY6B6t.s:114    .text.rtc_lld_set_time:00000000 $t
     /tmp/ccoY6B6t.s:120    .text.rtc_lld_set_time:00000000 rtc_lld_set_time
     /tmp/ccoY6B6t.s:499    .text.rtc_lld_set_time:0000011c $d
     /tmp/ccoY6B6t.s:509    .text.rtc_lld_get_time:00000000 $t
     /tmp/ccoY6B6t.s:515    .text.rtc_lld_get_time:00000000 rtc_lld_get_time
     /tmp/ccoY6B6t.s:744    .text.rtc_lld_get_time:000000e0 $d
     /tmp/ccoY6B6t.s:754    .text.rtc_lld_set_alarm:00000000 $t
     /tmp/ccoY6B6t.s:760    .text.rtc_lld_set_alarm:00000000 rtc_lld_set_alarm
     /tmp/ccoY6B6t.s:836    .text.rtc_lld_get_alarm:00000000 $t
     /tmp/ccoY6B6t.s:842    .text.rtc_lld_get_alarm:00000000 rtc_lld_get_alarm
     /tmp/ccoY6B6t.s:862    .text.rtcSTM32SetPeriodicWakeup:00000000 $t
     /tmp/ccoY6B6t.s:868    .text.rtcSTM32SetPeriodicWakeup:00000000 rtcSTM32SetPeriodicWakeup
     /tmp/ccoY6B6t.s:956    .text.rtcSTM32GetPeriodicWakeup:00000000 $t
     /tmp/ccoY6B6t.s:962    .text.rtcSTM32GetPeriodicWakeup:00000000 rtcSTM32GetPeriodicWakeup
     /tmp/ccoY6B6t.s:1013   .bss.RTCD1:00000000 RTCD1
     /tmp/ccoY6B6t.s:1009   .bss.RTCD1:00000000 $d
                     .debug_frame:00000010 $d
     /tmp/ccoY6B6t.s:113    .text.rtc_lld_init:0000005c $t
     /tmp/ccoY6B6t.s:508    .text.rtc_lld_set_time:0000012c $t

UNDEFINED SYMBOLS
rtcObjectInit
chSysGetStatusAndLockX
chSysRestoreStatusX
