ARM GAS  /tmp/ccoY6B6t.s 			page 1


   1              		.syntax unified
   2              		.cpu cortex-m4
   3              		.fpu softvfp
   4              		.eabi_attribute 20, 1
   5              		.eabi_attribute 21, 1
   6              		.eabi_attribute 23, 3
   7              		.eabi_attribute 24, 1
   8              		.eabi_attribute 25, 1
   9              		.eabi_attribute 26, 1
  10              		.eabi_attribute 30, 2
  11              		.eabi_attribute 34, 1
  12              		.eabi_attribute 18, 4
  13              		.thumb
  14              		.file	"rtc_lld.c"
  15              		.text
  16              	.Ltext0:
  17              		.cfi_sections	.debug_frame
  18              		.section	.text.rtc_lld_init,"ax",%progbits
  19              		.align	2
  20              		.p2align 4,,15
  21              		.global	rtc_lld_init
  22              		.thumb
  23              		.thumb_func
  24              		.type	rtc_lld_init, %function
  25              	rtc_lld_init:
  26              	.LFB278:
  27              		.file 1 "../ChibiOS/os/hal/ports/STM32/LLD/RTCv2/rtc_lld.c"
  28              		.loc 1 294 0
  29              		.cfi_startproc
  30              		@ args = 0, pretend = 0, frame = 0
  31              		@ frame_needed = 0, uses_anonymous_args = 0
  32 0000 10B5     		push	{r4, lr}
  33              		.cfi_def_cfa_offset 8
  34              		.cfi_offset 4, -8
  35              		.cfi_offset 14, -4
  36              		.loc 1 297 0
  37 0002 134C     		ldr	r4, .L7
  38 0004 2046     		mov	r0, r4
  39 0006 FFF7FEFF 		bl	rtcObjectInit
  40              	.LVL0:
  41              		.loc 1 300 0
  42 000a 124B     		ldr	r3, .L7+4
  43 000c 2360     		str	r3, [r4]
  44              		.loc 1 304 0
  45 000e 5322     		movs	r2, #83
  46              		.loc 1 303 0
  47 0010 CA21     		movs	r1, #202
  48 0012 5962     		str	r1, [r3, #36]
  49              		.loc 1 304 0
  50 0014 5A62     		str	r2, [r3, #36]
  51              		.loc 1 308 0
  52 0016 DA68     		ldr	r2, [r3, #12]
  53 0018 12F0100F 		tst	r2, #16
  54              	.LBB30:
  55              	.LBB31:
  56              		.loc 1 77 0
  57 001c DA68     		ldr	r2, [r3, #12]
ARM GAS  /tmp/ccoY6B6t.s 			page 2


  58              	.LBE31:
  59              	.LBE30:
  60              		.loc 1 308 0
  61 001e 13D1     		bne	.L2
  62              	.LBB33:
  63              	.LBB32:
  64              		.loc 1 77 0
  65 0020 42F08002 		orr	r2, r2, #128
  66 0024 DA60     		str	r2, [r3, #12]
  67              		.loc 1 78 0
  68 0026 1946     		mov	r1, r3
  69              	.L4:
  70 0028 CB68     		ldr	r3, [r1, #12]
  71 002a 0A4A     		ldr	r2, .L7+4
  72 002c 5B06     		lsls	r3, r3, #25
  73 002e FBD5     		bpl	.L4
  74              	.LBE32:
  75              	.LBE33:
  76              		.loc 1 314 0
  77 0030 094B     		ldr	r3, .L7+8
  78              		.loc 1 312 0
  79 0032 0020     		movs	r0, #0
  80              		.loc 1 313 0
  81 0034 8021     		movs	r1, #128
  82              		.loc 1 312 0
  83 0036 9060     		str	r0, [r2, #8]
  84              		.loc 1 313 0
  85 0038 D160     		str	r1, [r2, #12]
  86              		.loc 1 314 0
  87 003a 1361     		str	r3, [r2, #16]
  88              		.loc 1 315 0
  89 003c 1361     		str	r3, [r2, #16]
  90              	.LBB34:
  91              	.LBB35:
  92              		.loc 1 89 0
  93 003e D368     		ldr	r3, [r2, #12]
  94 0040 23F08003 		bic	r3, r3, #128
  95 0044 D360     		str	r3, [r2, #12]
  96 0046 10BD     		pop	{r4, pc}
  97              	.L2:
  98              	.LBE35:
  99              	.LBE34:
 100              		.loc 1 320 0
 101 0048 22F02002 		bic	r2, r2, #32
 102 004c DA60     		str	r2, [r3, #12]
 103 004e 10BD     		pop	{r4, pc}
 104              	.L8:
 105              		.align	2
 106              	.L7:
 107 0050 00000000 		.word	.LANCHOR0
 108 0054 00280040 		.word	1073752064
 109 0058 FF031F00 		.word	2032639
 110              		.cfi_endproc
 111              	.LFE278:
 112              		.size	rtc_lld_init, .-rtc_lld_init
 113 005c AFF30080 		.section	.text.rtc_lld_set_time,"ax",%progbits
 114              		.align	2
ARM GAS  /tmp/ccoY6B6t.s 			page 3


 115              		.p2align 4,,15
 116              		.global	rtc_lld_set_time
 117              		.thumb
 118              		.thumb_func
 119              		.type	rtc_lld_set_time, %function
 120              	rtc_lld_set_time:
 121              	.LFB279:
 122              		.loc 1 334 0
 123              		.cfi_startproc
 124              		@ args = 0, pretend = 0, frame = 8
 125              		@ frame_needed = 0, uses_anonymous_args = 0
 126              	.LVL1:
 127 0000 2DE9F04F 		push	{r4, r5, r6, r7, r8, r9, r10, fp, lr}
 128              		.cfi_def_cfa_offset 36
 129              		.cfi_offset 4, -36
 130              		.cfi_offset 5, -32
 131              		.cfi_offset 6, -28
 132              		.cfi_offset 7, -24
 133              		.cfi_offset 8, -20
 134              		.cfi_offset 9, -16
 135              		.cfi_offset 10, -12
 136              		.cfi_offset 11, -8
 137              		.cfi_offset 14, -4
 138              	.LBB48:
 139              	.LBB49:
 140              		.loc 1 143 0
 141 0004 4D68     		ldr	r5, [r1, #4]
 142 0006 454C     		ldr	r4, .L12
 143              	.LBE49:
 144              	.LBE48:
 145              	.LBB70:
 146              	.LBB71:
 147              		.loc 1 183 0
 148 0008 4A78     		ldrb	r2, [r1, #1]	@ zero_extendqisi2
 149              	.LBE71:
 150              	.LBE70:
 151              	.LBB92:
 152              	.LBB50:
 153              		.loc 1 147 0
 154 000a 454B     		ldr	r3, .L12+4
 155              	.LBE50:
 156              	.LBE92:
 157              	.LBB93:
 158              	.LBB72:
 159              		.loc 1 177 0
 160 000c 91F80080 		ldrb	r8, [r1]	@ zero_extendqisi2
 161              		.loc 1 189 0
 162 0010 91F802C0 		ldrb	ip, [r1, #2]	@ zero_extendqisi2
 163              	.LBE72:
 164              	.LBE93:
 165              		.loc 1 334 0
 166 0014 83B0     		sub	sp, sp, #12
 167              		.cfi_def_cfa_offset 48
 168              	.LBB94:
 169              	.LBB51:
 170              		.loc 1 143 0
 171 0016 C5F31A09 		ubfx	r9, r5, #0, #27
ARM GAS  /tmp/ccoY6B6t.s 			page 4


 172              	.LBE51:
 173              	.LBE94:
 174              	.LBB95:
 175              	.LBB73:
 176              		.loc 1 183 0
 177 001a 0192     		str	r2, [sp, #4]
 178              	.LBE73:
 179              	.LBE95:
 180              	.LBB96:
 181              	.LBB52:
 182              		.loc 1 143 0
 183 001c 84FB0969 		smull	r6, r9, r4, r9
 184              	.LBE52:
 185              	.LBE96:
 186              	.LBB97:
 187              	.LBB74:
 188              		.loc 1 183 0
 189 0020 0199     		ldr	r1, [sp, #4]
 190              	.LVL2:
 191              	.LBE74:
 192              	.LBE97:
 193              	.LBB98:
 194              	.LBB53:
 195              		.loc 1 148 0
 196 0022 404A     		ldr	r2, .L12+8
 197              		.loc 1 143 0
 198 0024 4FEA9919 		lsr	r9, r9, #6
 199              	.LVL3:
 200              		.loc 1 147 0
 201 0028 A3FB09B6 		umull	fp, r6, r3, r9
 202              	.LBE53:
 203              	.LBE98:
 204              	.LBB99:
 205              	.LBB75:
 206              		.loc 1 183 0
 207 002c 01F00F07 		and	r7, r1, #15
 208              	.LBE75:
 209              	.LBE99:
 210              	.LBB100:
 211              	.LBB54:
 212              		.loc 1 147 0
 213 0030 F608     		lsrs	r6, r6, #3
 214              	.LVL4:
 215              		.loc 1 148 0
 216 0032 A2FB06B5 		umull	fp, r5, r2, r6
 217              	.LBE54:
 218              	.LBE100:
 219              	.LBB101:
 220              	.LBB76:
 221              		.loc 1 184 0
 222 0036 A3FB071E 		umull	r1, lr, r3, r7
 223              	.LBE76:
 224              	.LBE101:
 225              	.LBB102:
 226              	.LBB55:
 227              		.loc 1 148 0
 228 003a AD08     		lsrs	r5, r5, #2
ARM GAS  /tmp/ccoY6B6t.s 			page 5


 229              	.LBE55:
 230              	.LBE102:
 231              	.LBB103:
 232              	.LBB77:
 233              		.loc 1 184 0
 234 003c 4FEADE0E 		lsr	lr, lr, #3
 235              	.LBE77:
 236              	.LBE103:
 237              	.LBB104:
 238              	.LBB56:
 239              		.loc 1 152 0
 240 0040 A3FB05B4 		umull	fp, r4, r3, r5
 241              	.LBE56:
 242              	.LBE104:
 243              	.LBB105:
 244              	.LBB78:
 245              		.loc 1 184 0
 246 0044 4FEA8E0A 		lsl	r10, lr, #2
 247              	.LBE78:
 248              	.LBE105:
 249              	.LBB106:
 250              	.LBB57:
 251              		.loc 1 152 0
 252 0048 E408     		lsrs	r4, r4, #3
 253              	.LBE57:
 254              	.LBE106:
 255              	.LBB107:
 256              	.LBB79:
 257              		.loc 1 189 0
 258 004a 0CF01F0C 		and	ip, ip, #31
 259              		.loc 1 184 0
 260 004e F244     		add	r10, r10, lr
 261              		.loc 1 178 0
 262 0050 A3FB08B1 		umull	fp, r1, r3, r8
 263              	.LBE79:
 264              	.LBE107:
 265              	.LBB108:
 266              	.LBB58:
 267              		.loc 1 154 0
 268 0054 A2FB04B2 		umull	fp, r2, r2, r4
 269              	.LBE58:
 270              	.LBE108:
 271              	.LBB109:
 272              	.LBB80:
 273              		.loc 1 184 0
 274 0058 A7EB4A0A 		sub	r10, r7, r10, lsl #1
 275              		.loc 1 190 0
 276 005c A3FB0CB7 		umull	fp, r7, r3, ip
 277              	.LBE80:
 278              	.LBE109:
 279              	.LBB110:
 280              	.LBB59:
 281              		.loc 1 146 0
 282 0060 06EB860B 		add	fp, r6, r6, lsl #2
 283              	.LBE59:
 284              	.LBE110:
 285              	.LBB111:
ARM GAS  /tmp/ccoY6B6t.s 			page 6


 286              	.LBB81:
 287              		.loc 1 178 0
 288 0064 C908     		lsrs	r1, r1, #3
 289              	.LBE81:
 290              	.LBE111:
 291              	.LBB112:
 292              	.LBB60:
 293              		.loc 1 146 0
 294 0066 A9EB4B09 		sub	r9, r9, fp, lsl #1
 295              	.LVL5:
 296              		.loc 1 148 0
 297 006a 05EB450B 		add	fp, r5, r5, lsl #1
 298 006e A6EB4B06 		sub	r6, r6, fp, lsl #1
 299              	.LVL6:
 300              	.LBE60:
 301              	.LBE112:
 302              	.LBB113:
 303              	.LBB82:
 304              		.loc 1 178 0
 305 0072 01EB810B 		add	fp, r1, r1, lsl #2
 306 0076 A8EB4B08 		sub	r8, r8, fp, lsl #1
 307              		.loc 1 190 0
 308 007a FF08     		lsrs	r7, r7, #3
 309              		.loc 1 184 0
 310 007c 4FEA0A2A 		lsl	r10, r10, #8
 311              		.loc 1 180 0
 312 0080 4AEA084A 		orr	r10, r10, r8, lsl #16
 313              	.LBE82:
 314              	.LBE113:
 315              	.LBB114:
 316              	.LBB61:
 317              		.loc 1 148 0
 318 0084 49EA0619 		orr	r9, r9, r6, lsl #4
 319              	.LBE61:
 320              	.LBE114:
 321              	.LBB115:
 322              	.LBB83:
 323              		.loc 1 190 0
 324 0088 07EB8708 		add	r8, r7, r7, lsl #2
 325              	.LVL7:
 326              	.LBE83:
 327              	.LBE115:
 328              	.LBB116:
 329              	.LBB62:
 330              		.loc 1 152 0
 331 008c 04EB8406 		add	r6, r4, r4, lsl #2
 332              		.loc 1 154 0
 333 0090 9208     		lsrs	r2, r2, #2
 334              		.loc 1 152 0
 335 0092 A5EB4605 		sub	r5, r5, r6, lsl #1
 336              	.LVL8:
 337              	.LBE62:
 338              	.LBE116:
 339              	.LBB117:
 340              	.LBB84:
 341              		.loc 1 190 0
 342 0096 ACEB480C 		sub	ip, ip, r8, lsl #1
ARM GAS  /tmp/ccoY6B6t.s 			page 7


 343              		.loc 1 195 0
 344 009a 019E     		ldr	r6, [sp, #4]
 345              		.loc 1 180 0
 346 009c A3FB01B8 		umull	fp, r8, r3, r1
 347 00a0 4FEAD808 		lsr	r8, r8, #3
 348              	.LBE84:
 349              	.LBE117:
 350              	.LBB118:
 351              	.LBB63:
 352              		.loc 1 158 0
 353 00a4 A3FB02B3 		umull	fp, r3, r3, r2
 354              	.LVL9:
 355 00a8 DB08     		lsrs	r3, r3, #3
 356              	.LBE63:
 357              	.LBE118:
 358              	.LBB119:
 359              	.LBB85:
 360              		.loc 1 195 0
 361 00aa 4FEA561B 		lsr	fp, r6, #5
 362              		.loc 1 180 0
 363 00ae 08EB8808 		add	r8, r8, r8, lsl #2
 364              	.LBE85:
 365              	.LBE119:
 366              	.LBB120:
 367              	.LBB64:
 368              		.loc 1 154 0
 369 00b2 02EB4206 		add	r6, r2, r2, lsl #1
 370              	.LBE64:
 371              	.LBE120:
 372              	.LBB121:
 373              	.LBB86:
 374              		.loc 1 184 0
 375 00b6 4AEA0C0C 		orr	ip, r10, ip
 376              	.LBE86:
 377              	.LBE121:
 378              	.LBB122:
 379              	.LBB65:
 380              		.loc 1 152 0
 381 00ba 49EA0529 		orr	r9, r9, r5, lsl #8
 382              	.LVL10:
 383              		.loc 1 154 0
 384 00be A4EB4604 		sub	r4, r4, r6, lsl #1
 385              	.LVL11:
 386              	.LBE65:
 387              	.LBE122:
 388              	.LBB123:
 389              	.LBB87:
 390              		.loc 1 186 0
 391 00c2 4CEA4B3C 		orr	ip, ip, fp, lsl #13
 392              	.LBE87:
 393              	.LBE123:
 394              	.LBB124:
 395              	.LBB66:
 396              		.loc 1 158 0
 397 00c6 03EB8306 		add	r6, r3, r3, lsl #2
 398              	.LBE66:
 399              	.LBE124:
ARM GAS  /tmp/ccoY6B6t.s 			page 8


 400              	.LBB125:
 401              	.LBB88:
 402              		.loc 1 180 0
 403 00ca A1EB4801 		sub	r1, r1, r8, lsl #1
 404              	.LBE88:
 405              	.LBE125:
 406              	.LBB126:
 407              	.LBB67:
 408              		.loc 1 158 0
 409 00ce A2EB4605 		sub	r5, r2, r6, lsl #1
 410              		.loc 1 154 0
 411 00d2 49EA0434 		orr	r4, r9, r4, lsl #12
 412              	.LVL12:
 413              	.LBE67:
 414              	.LBE126:
 415              	.LBB127:
 416              	.LBB89:
 417              		.loc 1 190 0
 418 00d6 4CEA0151 		orr	r1, ip, r1, lsl #20
 419              	.LBE89:
 420              	.LBE127:
 421              	.LBB128:
 422              	.LBB68:
 423              		.loc 1 158 0
 424 00da 44EA0545 		orr	r5, r4, r5, lsl #16
 425              	.LBE68:
 426              	.LBE128:
 427              	.LBB129:
 428              	.LBB90:
 429              		.loc 1 192 0
 430 00de 41EA0E3E 		orr	lr, r1, lr, lsl #12
 431              	.LBE90:
 432              	.LBE129:
 433              	.LBB130:
 434              	.LBB69:
 435              		.loc 1 160 0
 436 00e2 45EA0355 		orr	r5, r5, r3, lsl #20
 437              	.LVL13:
 438              	.LBE69:
 439              	.LBE130:
 440              		.loc 1 334 0
 441 00e6 0646     		mov	r6, r0
 442              	.LBB131:
 443              	.LBB91:
 444              		.loc 1 195 0
 445 00e8 4EEA0717 		orr	r7, lr, r7, lsl #4
 446              	.LVL14:
 447              	.LBE91:
 448              	.LBE131:
 449              	.LBB132:
 450              	.LBB133:
 451              		.file 2 "../ChibiOS/os/hal/osal/rt/osal.h"
 452              		.loc 2 544 0
 453 00ec FFF7FEFF 		bl	chSysGetStatusAndLockX
 454              	.LVL15:
 455              	.LBE133:
 456              	.LBE132:
ARM GAS  /tmp/ccoY6B6t.s 			page 9


 457              	.LBB134:
 458              	.LBB135:
 459              		.loc 1 77 0
 460 00f0 0D4B     		ldr	r3, .L12+12
 461 00f2 1C68     		ldr	r4, [r3]
 462 00f4 E368     		ldr	r3, [r4, #12]
 463 00f6 43F08003 		orr	r3, r3, #128
 464 00fa E360     		str	r3, [r4, #12]
 465              	.L11:
 466              		.loc 1 78 0
 467 00fc E368     		ldr	r3, [r4, #12]
 468 00fe 5B06     		lsls	r3, r3, #25
 469 0100 FCD5     		bpl	.L11
 470              	.LBE135:
 471              	.LBE134:
 472              		.loc 1 346 0
 473 0102 3168     		ldr	r1, [r6]
 474 0104 0D60     		str	r5, [r1]
 475              		.loc 1 347 0
 476 0106 4F60     		str	r7, [r1, #4]
 477              	.LBB136:
 478              	.LBB137:
 479              		.loc 1 89 0
 480 0108 E368     		ldr	r3, [r4, #12]
 481 010a 23F08003 		bic	r3, r3, #128
 482 010e E360     		str	r3, [r4, #12]
 483              	.LVL16:
 484              	.LBE137:
 485              	.LBE136:
 486              		.loc 1 352 0
 487 0110 03B0     		add	sp, sp, #12
 488              		@ sp needed
 489 0112 BDE8F04F 		pop	{r4, r5, r6, r7, r8, r9, r10, fp, lr}
 490              	.LVL17:
 491              	.LBB138:
 492              	.LBB139:
 493              		.loc 2 558 0
 494 0116 FFF7FEBF 		b	chSysRestoreStatusX
 495              	.LVL18:
 496              	.L13:
 497 011a 00BF     		.align	2
 498              	.L12:
 499 011c D34D6210 		.word	274877907
 500 0120 CDCCCCCC 		.word	-858993459
 501 0124 ABAAAAAA 		.word	-1431655765
 502 0128 00000000 		.word	.LANCHOR0
 503              	.LBE139:
 504              	.LBE138:
 505              		.cfi_endproc
 506              	.LFE279:
 507              		.size	rtc_lld_set_time, .-rtc_lld_set_time
 508 012c AFF30080 		.section	.text.rtc_lld_get_time,"ax",%progbits
 509              		.align	2
 510              		.p2align 4,,15
 511              		.global	rtc_lld_get_time
 512              		.thumb
 513              		.thumb_func
ARM GAS  /tmp/ccoY6B6t.s 			page 10


 514              		.type	rtc_lld_get_time, %function
 515              	rtc_lld_get_time:
 516              	.LFB280:
 517              		.loc 1 363 0
 518              		.cfi_startproc
 519              		@ args = 0, pretend = 0, frame = 0
 520              		@ frame_needed = 0, uses_anonymous_args = 0
 521              	.LVL19:
 522 0000 2DE9F84F 		push	{r3, r4, r5, r6, r7, r8, r9, r10, fp, lr}
 523              		.cfi_def_cfa_offset 40
 524              		.cfi_offset 3, -40
 525              		.cfi_offset 4, -36
 526              		.cfi_offset 5, -32
 527              		.cfi_offset 6, -28
 528              		.cfi_offset 7, -24
 529              		.cfi_offset 8, -20
 530              		.cfi_offset 9, -16
 531              		.cfi_offset 10, -12
 532              		.cfi_offset 11, -8
 533              		.cfi_offset 14, -4
 534              		.loc 1 363 0
 535 0004 0546     		mov	r5, r0
 536 0006 0C46     		mov	r4, r1
 537              	.LBB148:
 538              	.LBB149:
 539              		.loc 2 544 0
 540 0008 FFF7FEFF 		bl	chSysGetStatusAndLockX
 541              	.LVL20:
 542 000c 2A68     		ldr	r2, [r5]
 543              	.L16:
 544              	.LBE149:
 545              	.LBE148:
 546              		.loc 1 376 0 discriminator 1
 547 000e D368     		ldr	r3, [r2, #12]
 548 0010 9B06     		lsls	r3, r3, #26
 549 0012 FCD5     		bpl	.L16
 550              		.loc 1 379 0
 551 0014 D2F82880 		ldr	r8, [r2, #40]
 552              	.LVL21:
 553              		.loc 1 381 0
 554 0018 1668     		ldr	r6, [r2]
 555              	.LVL22:
 556              		.loc 1 382 0
 557 001a 5568     		ldr	r5, [r2, #4]
 558              	.LVL23:
 559              		.loc 1 383 0
 560 001c D368     		ldr	r3, [r2, #12]
 561              	.LBB150:
 562              	.LBB151:
 563              		.loc 1 103 0
 564 001e DFF8C490 		ldr	r9, .L17+4
 565              		.loc 1 105 0
 566 0022 DFF8C4A0 		ldr	r10, .L17+8
 567              	.LBE151:
 568              	.LBE150:
 569              		.loc 1 383 0
 570 0026 23F02003 		bic	r3, r3, #32
ARM GAS  /tmp/ccoY6B6t.s 			page 11


 571 002a D360     		str	r3, [r2, #12]
 572              	.LVL24:
 573              	.LBB158:
 574              	.LBB159:
 575              		.loc 2 558 0
 576 002c FFF7FEFF 		bl	chSysRestoreStatusX
 577              	.LVL25:
 578              	.LBE159:
 579              	.LBE158:
 580              	.LBB160:
 581              	.LBB152:
 582              		.loc 1 104 0
 583 0030 DFF8B8C0 		ldr	ip, .L17+12
 584              	.LBE152:
 585              	.LBE160:
 586              		.loc 1 395 0
 587 0034 2A4B     		ldr	r3, .L17
 588              	.LBB161:
 589              	.LBB162:
 590              		.loc 1 124 0
 591 0036 6178     		ldrb	r1, [r4, #1]	@ zero_extendqisi2
 592              	.LBE162:
 593              	.LBE161:
 594              		.loc 1 399 0
 595 0038 6068     		ldr	r0, [r4, #4]
 596              	.LBB173:
 597              	.LBB163:
 598              		.loc 1 126 0
 599 003a A278     		ldrb	r2, [r4, #2]	@ zero_extendqisi2
 600              	.LBE163:
 601              	.LBE173:
 602              	.LBB174:
 603              	.LBB153:
 604              		.loc 1 104 0
 605 003c C6F30347 		ubfx	r7, r6, #16, #4
 606 0040 0CFB07FC 		mul	ip, ip, r7
 607              		.loc 1 103 0
 608 0044 C6F30157 		ubfx	r7, r6, #20, #2
 609              	.LVL26:
 610              		.loc 1 104 0
 611 0048 09FB07C7 		mla	r7, r9, r7, ip
 612              	.LVL27:
 613              		.loc 1 108 0
 614 004c 06F00F0C 		and	ip, r6, #15
 615 0050 4FF47A79 		mov	r9, #1000
 616              	.LVL28:
 617              		.loc 1 105 0
 618 0054 09FB0C79 		mla	r9, r9, ip, r7
 619 0058 C6F3023C 		ubfx	ip, r6, #12, #3
 620              	.LBE153:
 621              	.LBE174:
 622              	.LBB175:
 623              	.LBB164:
 624              		.loc 1 124 0
 625 005c C5F30037 		ubfx	r7, r5, #12, #1
 626              	.LBE164:
 627              	.LBE175:
ARM GAS  /tmp/ccoY6B6t.s 			page 12


 628              	.LBB176:
 629              	.LBB154:
 630              		.loc 1 106 0
 631 0060 0AFB0C9A 		mla	r10, r10, ip, r9
 632 0064 4EF6602B 		movw	fp, #60000
 633 0068 C6F3032C 		ubfx	ip, r6, #8, #4
 634              	.LBE154:
 635              	.LBE176:
 636              	.LBB177:
 637              	.LBB165:
 638              		.loc 1 124 0
 639 006c 4FEA8709 		lsl	r9, r7, #2
 640              	.LBE165:
 641              	.LBE177:
 642              		.loc 1 395 0
 643 0070 03FB08F3 		mul	r3, r3, r8
 644              	.LBB178:
 645              	.LBB155:
 646              		.loc 1 107 0
 647 0074 C6F30216 		ubfx	r6, r6, #4, #3
 648              	.LVL29:
 649 0078 0BFB0CAC 		mla	ip, fp, ip, r10
 650              	.LVL30:
 651              	.LBE155:
 652              	.LBE178:
 653              	.LBB179:
 654              	.LBB166:
 655              		.loc 1 124 0
 656 007c 4F44     		add	r7, r7, r9
 657 007e C5F30328 		ubfx	r8, r5, #8, #4
 658              	.LVL31:
 659              	.LBE166:
 660              	.LBE179:
 661              	.LBB180:
 662              	.LBB156:
 663              		.loc 1 107 0
 664 0082 42F2107A 		movw	r10, #10000
 665              	.LBE156:
 666              	.LBE180:
 667              	.LBB181:
 668              	.LBB167:
 669              		.loc 1 124 0
 670 0086 08EB4708 		add	r8, r8, r7, lsl #1
 671              	.LBE167:
 672              	.LBE181:
 673              	.LBB182:
 674              	.LBB157:
 675              		.loc 1 108 0
 676 008a 0AFB06CC 		mla	ip, r10, r6, ip
 677              	.LBE157:
 678              	.LBE182:
 679              	.LBB183:
 680              	.LBB168:
 681              		.loc 1 126 0
 682 008e C5F30117 		ubfx	r7, r5, #4, #2
 683              	.LBE168:
 684              	.LBE183:
ARM GAS  /tmp/ccoY6B6t.s 			page 13


 685              		.loc 1 395 0
 686 0092 03F57923 		add	r3, r3, #1019904
 687              		.loc 1 399 0
 688 0096 2CF0784C 		bic	ip, ip, #-134217728
 689              	.LBB184:
 690              	.LBB169:
 691              		.loc 1 124 0
 692 009a 68F30301 		bfi	r1, r8, #0, #4
 693              		.loc 1 126 0
 694 009e 07EB8706 		add	r6, r7, r7, lsl #2
 695 00a2 05F00F08 		and	r8, r5, #15
 696              		.loc 1 122 0
 697 00a6 C5F30357 		ubfx	r7, r5, #20, #4
 698              	.LBE169:
 699              	.LBE184:
 700              		.loc 1 395 0
 701 00aa 03F61843 		addw	r3, r3, #3096
 702              		.loc 1 399 0
 703 00ae 0CEB9323 		add	r3, ip, r3, lsr #10
 704              	.LBB185:
 705              	.LBB170:
 706              		.loc 1 126 0
 707 00b2 08EB4606 		add	r6, r8, r6, lsl #1
 708              		.loc 1 128 0
 709 00b6 4FEA553C 		lsr	ip, r5, #13
 710              		.loc 1 122 0
 711 00ba 07EB8707 		add	r7, r7, r7, lsl #2
 712 00be C5F30345 		ubfx	r5, r5, #16, #4
 713              	.LVL32:
 714              	.LBE170:
 715              	.LBE185:
 716              		.loc 1 399 0
 717 00c2 63F31A00 		bfi	r0, r3, #0, #27
 718              	.LBB186:
 719              	.LBB171:
 720              		.loc 1 128 0
 721 00c6 6CF34711 		bfi	r1, ip, #5, #3
 722              		.loc 1 126 0
 723 00ca 66F30402 		bfi	r2, r6, #0, #5
 724              		.loc 1 122 0
 725 00ce 05EB4705 		add	r5, r5, r7, lsl #1
 726              	.LBE171:
 727              	.LBE186:
 728              		.loc 1 399 0
 729 00d2 6060     		str	r0, [r4, #4]
 730              	.LVL33:
 731              	.LBB187:
 732              	.LBB172:
 733              		.loc 1 128 0
 734 00d4 6170     		strb	r1, [r4, #1]
 735              		.loc 1 126 0
 736 00d6 A270     		strb	r2, [r4, #2]
 737              		.loc 1 122 0
 738 00d8 2570     		strb	r5, [r4]
 739 00da BDE8F88F 		pop	{r3, r4, r5, r6, r7, r8, r9, r10, fp, pc}
 740              	.LVL34:
 741              	.L18:
ARM GAS  /tmp/ccoY6B6t.s 			page 14


 742 00de 00BF     		.align	2
 743              	.L17:
 744 00e0 18FCFFFF 		.word	-1000
 745 00e4 00512502 		.word	36000000
 746 00e8 C0270900 		.word	600000
 747 00ec 80EE3600 		.word	3600000
 748              	.LBE172:
 749              	.LBE187:
 750              		.cfi_endproc
 751              	.LFE280:
 752              		.size	rtc_lld_get_time, .-rtc_lld_get_time
 753              		.section	.text.rtc_lld_set_alarm,"ax",%progbits
 754              		.align	2
 755              		.p2align 4,,15
 756              		.global	rtc_lld_set_alarm
 757              		.thumb
 758              		.thumb_func
 759              		.type	rtc_lld_set_alarm, %function
 760              	rtc_lld_set_alarm:
 761              	.LFB281:
 762              		.loc 1 420 0
 763              		.cfi_startproc
 764              		@ args = 0, pretend = 0, frame = 0
 765              		@ frame_needed = 0, uses_anonymous_args = 0
 766              	.LVL35:
 767 0000 70B5     		push	{r4, r5, r6, lr}
 768              		.cfi_def_cfa_offset 16
 769              		.cfi_offset 4, -16
 770              		.cfi_offset 5, -12
 771              		.cfi_offset 6, -8
 772              		.cfi_offset 14, -4
 773              		.loc 1 420 0
 774 0002 0D46     		mov	r5, r1
 775 0004 0646     		mov	r6, r0
 776 0006 1446     		mov	r4, r2
 777              	.LBB188:
 778              	.LBB189:
 779              		.loc 2 544 0
 780 0008 FFF7FEFF 		bl	chSysGetStatusAndLockX
 781              	.LVL36:
 782              	.LBE189:
 783              	.LBE188:
 784              		.loc 1 426 0
 785 000c 95B9     		cbnz	r5, .L20
 786              		.loc 1 427 0
 787 000e ACB1     		cbz	r4, .L21
 788              		.loc 1 428 0
 789 0010 3168     		ldr	r1, [r6]
 790 0012 8B68     		ldr	r3, [r1, #8]
 791 0014 23F48073 		bic	r3, r3, #256
 792 0018 8B60     		str	r3, [r1, #8]
 793              	.L23:
 794              		.loc 1 429 0 discriminator 1
 795 001a CB68     		ldr	r3, [r1, #12]
 796 001c DB07     		lsls	r3, r3, #31
 797 001e FCD5     		bpl	.L23
 798              		.loc 1 431 0
ARM GAS  /tmp/ccoY6B6t.s 			page 15


 799 0020 2368     		ldr	r3, [r4]
 800 0022 CB61     		str	r3, [r1, #28]
 801              		.loc 1 432 0
 802 0024 8B68     		ldr	r3, [r1, #8]
 803 0026 43F48073 		orr	r3, r3, #256
 804 002a 8B60     		str	r3, [r1, #8]
 805              		.loc 1 433 0
 806 002c 8B68     		ldr	r3, [r1, #8]
 807 002e 43F48053 		orr	r3, r3, #4096
 808 0032 8B60     		str	r3, [r1, #8]
 809              	.L20:
 810              	.LVL37:
 811              		.loc 1 459 0
 812 0034 BDE87040 		pop	{r4, r5, r6, lr}
 813              	.LVL38:
 814              	.LBB190:
 815              	.LBB191:
 816              		.loc 2 558 0
 817 0038 FFF7FEBF 		b	chSysRestoreStatusX
 818              	.LVL39:
 819              	.L21:
 820              	.LBE191:
 821              	.LBE190:
 822              		.loc 1 436 0
 823 003c 3368     		ldr	r3, [r6]
 824 003e 9A68     		ldr	r2, [r3, #8]
 825 0040 22F48052 		bic	r2, r2, #4096
 826 0044 9A60     		str	r2, [r3, #8]
 827              		.loc 1 437 0
 828 0046 9A68     		ldr	r2, [r3, #8]
 829 0048 22F48072 		bic	r2, r2, #256
 830 004c 9A60     		str	r2, [r3, #8]
 831 004e F1E7     		b	.L20
 832              		.cfi_endproc
 833              	.LFE281:
 834              		.size	rtc_lld_set_alarm, .-rtc_lld_set_alarm
 835              		.section	.text.rtc_lld_get_alarm,"ax",%progbits
 836              		.align	2
 837              		.p2align 4,,15
 838              		.global	rtc_lld_get_alarm
 839              		.thumb
 840              		.thumb_func
 841              		.type	rtc_lld_get_alarm, %function
 842              	rtc_lld_get_alarm:
 843              	.LFB282:
 844              		.loc 1 473 0
 845              		.cfi_startproc
 846              		@ args = 0, pretend = 0, frame = 0
 847              		@ frame_needed = 0, uses_anonymous_args = 0
 848              		@ link register save eliminated.
 849              	.LVL40:
 850              		.loc 1 475 0
 851 0000 11B9     		cbnz	r1, .L24
 852              		.loc 1 476 0
 853 0002 0368     		ldr	r3, [r0]
 854 0004 DB69     		ldr	r3, [r3, #28]
 855 0006 1360     		str	r3, [r2]
ARM GAS  /tmp/ccoY6B6t.s 			page 16


 856              	.L24:
 857 0008 7047     		bx	lr
 858              		.cfi_endproc
 859              	.LFE282:
 860              		.size	rtc_lld_get_alarm, .-rtc_lld_get_alarm
 861 000a 00BFAFF3 		.section	.text.rtcSTM32SetPeriodicWakeup,"ax",%progbits
 861      0080
 862              		.align	2
 863              		.p2align 4,,15
 864              		.global	rtcSTM32SetPeriodicWakeup
 865              		.thumb
 866              		.thumb_func
 867              		.type	rtcSTM32SetPeriodicWakeup, %function
 868              	rtcSTM32SetPeriodicWakeup:
 869              	.LFB283:
 870              		.loc 1 495 0
 871              		.cfi_startproc
 872              		@ args = 0, pretend = 0, frame = 0
 873              		@ frame_needed = 0, uses_anonymous_args = 0
 874              	.LVL41:
 875 0000 38B5     		push	{r3, r4, r5, lr}
 876              		.cfi_def_cfa_offset 16
 877              		.cfi_offset 3, -16
 878              		.cfi_offset 4, -12
 879              		.cfi_offset 5, -8
 880              		.cfi_offset 14, -4
 881              		.loc 1 495 0
 882 0002 0C46     		mov	r4, r1
 883 0004 0546     		mov	r5, r0
 884              	.LBB192:
 885              	.LBB193:
 886              		.loc 2 544 0
 887 0006 FFF7FEFF 		bl	chSysGetStatusAndLockX
 888              	.LVL42:
 889              	.LBE193:
 890              	.LBE192:
 891              		.loc 1 501 0
 892 000a CCB1     		cbz	r4, .L27
 893              		.loc 1 504 0
 894 000c 2A68     		ldr	r2, [r5]
 895 000e 9368     		ldr	r3, [r2, #8]
 896 0010 23F48063 		bic	r3, r3, #1024
 897 0014 9360     		str	r3, [r2, #8]
 898              	.L29:
 899              		.loc 1 505 0 discriminator 1
 900 0016 D368     		ldr	r3, [r2, #12]
 901 0018 5B07     		lsls	r3, r3, #29
 902 001a FCD5     		bpl	.L29
 903              		.loc 1 507 0
 904 001c 2368     		ldr	r3, [r4]
 905 001e 99B2     		uxth	r1, r3
 906              		.loc 1 508 0
 907 0020 C3F30243 		ubfx	r3, r3, #16, #3
 908              		.loc 1 507 0
 909 0024 5161     		str	r1, [r2, #20]
 910              		.loc 1 508 0
 911 0026 9360     		str	r3, [r2, #8]
ARM GAS  /tmp/ccoY6B6t.s 			page 17


 912              		.loc 1 509 0
 913 0028 9368     		ldr	r3, [r2, #8]
 914 002a 43F48043 		orr	r3, r3, #16384
 915 002e 9360     		str	r3, [r2, #8]
 916              		.loc 1 510 0
 917 0030 9368     		ldr	r3, [r2, #8]
 918 0032 43F48063 		orr	r3, r3, #1024
 919 0036 9360     		str	r3, [r2, #8]
 920              	.LVL43:
 921              		.loc 1 519 0
 922 0038 BDE83840 		pop	{r3, r4, r5, lr}
 923              	.LVL44:
 924              	.LBB194:
 925              	.LBB195:
 926              		.loc 2 558 0
 927 003c FFF7FEBF 		b	chSysRestoreStatusX
 928              	.LVL45:
 929              	.L27:
 930              	.LBE195:
 931              	.LBE194:
 932              		.loc 1 513 0
 933 0040 2B68     		ldr	r3, [r5]
 934 0042 9A68     		ldr	r2, [r3, #8]
 935 0044 22F48042 		bic	r2, r2, #16384
 936 0048 9A60     		str	r2, [r3, #8]
 937              		.loc 1 514 0
 938 004a 9A68     		ldr	r2, [r3, #8]
 939 004c 22F48062 		bic	r2, r2, #1024
 940 0050 9A60     		str	r2, [r3, #8]
 941              	.LVL46:
 942              		.loc 1 519 0
 943 0052 BDE83840 		pop	{r3, r4, r5, lr}
 944              	.LVL47:
 945              	.LBB197:
 946              	.LBB196:
 947              		.loc 2 558 0
 948 0056 FFF7FEBF 		b	chSysRestoreStatusX
 949              	.LVL48:
 950              	.LBE196:
 951              	.LBE197:
 952              		.cfi_endproc
 953              	.LFE283:
 954              		.size	rtcSTM32SetPeriodicWakeup, .-rtcSTM32SetPeriodicWakeup
 955 005a 00BFAFF3 		.section	.text.rtcSTM32GetPeriodicWakeup,"ax",%progbits
 955      0080
 956              		.align	2
 957              		.p2align 4,,15
 958              		.global	rtcSTM32GetPeriodicWakeup
 959              		.thumb
 960              		.thumb_func
 961              		.type	rtcSTM32GetPeriodicWakeup, %function
 962              	rtcSTM32GetPeriodicWakeup:
 963              	.LFB284:
 964              		.loc 1 531 0
 965              		.cfi_startproc
 966              		@ args = 0, pretend = 0, frame = 0
 967              		@ frame_needed = 0, uses_anonymous_args = 0
ARM GAS  /tmp/ccoY6B6t.s 			page 18


 968              	.LVL49:
 969 0000 38B5     		push	{r3, r4, r5, lr}
 970              		.cfi_def_cfa_offset 16
 971              		.cfi_offset 3, -16
 972              		.cfi_offset 4, -12
 973              		.cfi_offset 5, -8
 974              		.cfi_offset 14, -4
 975              		.loc 1 531 0
 976 0002 0446     		mov	r4, r0
 977 0004 0D46     		mov	r5, r1
 978              	.LBB198:
 979              	.LBB199:
 980              		.loc 2 544 0
 981 0006 FFF7FEFF 		bl	chSysGetStatusAndLockX
 982              	.LVL50:
 983              	.LBE199:
 984              	.LBE198:
 985              		.loc 1 538 0
 986 000a 2368     		ldr	r3, [r4]
 987 000c 5A69     		ldr	r2, [r3, #20]
 988              		.loc 1 539 0
 989 000e 9B68     		ldr	r3, [r3, #8]
 990 0010 03F00703 		and	r3, r3, #7
 991 0014 42EA0343 		orr	r3, r2, r3, lsl #16
 992 0018 2B60     		str	r3, [r5]
 993              	.LVL51:
 994              		.loc 1 543 0
 995 001a BDE83840 		pop	{r3, r4, r5, lr}
 996              	.LVL52:
 997              	.LBB200:
 998              	.LBB201:
 999              		.loc 2 558 0
 1000 001e FFF7FEBF 		b	chSysRestoreStatusX
 1001              	.LVL53:
 1002              	.LBE201:
 1003              	.LBE200:
 1004              		.cfi_endproc
 1005              	.LFE284:
 1006              		.size	rtcSTM32GetPeriodicWakeup, .-rtcSTM32GetPeriodicWakeup
 1007              		.global	RTCD1
 1008 0022 00BFAFF3 		.section	.bss.RTCD1,"aw",%nobits
 1008      0080AFF3 
 1008      0080AFF3 
 1008      0080
 1009              		.align	2
 1010              		.set	.LANCHOR0,. + 0
 1011              		.type	RTCD1, %object
 1012              		.size	RTCD1, 4
 1013              	RTCD1:
 1014 0000 00000000 		.space	4
 1015              		.text
 1016              	.Letext0:
 1017              		.file 3 "/nfs/nfs5/home/research/hardware/arm2/gcc-arm-embedded/gcc-arm-none-eabi-4_8-2014q2/lib/g
 1018              		.file 4 "/nfs/nfs5/home/research/hardware/arm2/gcc-arm-embedded/gcc-arm-none-eabi-4_8-2014q2/arm-n
 1019              		.file 5 "/nfs/nfs5/home/research/hardware/arm2/gcc-arm-embedded/gcc-arm-none-eabi-4_8-2014q2/arm-n
 1020              		.file 6 "../ChibiOS/os/rt/ports/ARMCMx/compilers/GCC/chtypes.h"
 1021              		.file 7 "../ChibiOS/os/rt/include/chsystypes.h"
ARM GAS  /tmp/ccoY6B6t.s 			page 19


 1022              		.file 8 "../ChibiOS/os/rt/include/chschd.h"
 1023              		.file 9 "../ChibiOS/os/ext/CMSIS/ST/STM32F3xx/stm32f303xc.h"
 1024              		.file 10 "../ChibiOS/os/rt/ports/ARMCMx/chcore.h"
 1025              		.file 11 "../ChibiOS/os/rt/ports/ARMCMx/chcore_v7m.h"
 1026              		.file 12 "../ChibiOS/os/rt/include/chtm.h"
 1027              		.file 13 "../ChibiOS/os/rt/include/chsem.h"
 1028              		.file 14 "../ChibiOS/os/rt/include/chmtx.h"
 1029              		.file 15 "../ChibiOS/os/hal/include/rtc.h"
 1030              		.file 16 "../ChibiOS/os/hal/ports/STM32/LLD/RTCv2/rtc_lld.h"
 1031              		.file 17 "../ChibiOS/os/ext/CMSIS/include/core_cm4.h"
 1032              		.file 18 "../ChibiOS/os/rt/include/chsys.h"