ARM GAS  /tmp/ccTKho2v.s 			page 1


   1              		.syntax unified
   2              		.cpu cortex-m4
   3              		.fpu softvfp
   4              		.eabi_attribute 20, 1
   5              		.eabi_attribute 21, 1
   6              		.eabi_attribute 23, 3
   7              		.eabi_attribute 24, 1
   8              		.eabi_attribute 25, 1
   9              		.eabi_attribute 26, 1
  10              		.eabi_attribute 30, 2
  11              		.eabi_attribute 34, 1
  12              		.eabi_attribute 18, 4
  13              		.thumb
  14              		.file	"serial_lld.c"
  15              		.text
  16              	.Ltext0:
  17              		.cfi_sections	.debug_frame
  18              		.section	.text.notify1,"ax",%progbits
  19              		.align	2
  20              		.p2align 4,,15
  21              		.thumb
  22              		.thumb_func
  23              		.type	notify1, %function
  24              	notify1:
  25              	.LFB276:
  26              		.file 1 "../ChibiOS/os/hal/ports/STM32/LLD/USARTv2/serial_lld.c"
  27              		.loc 1 244 0
  28              		.cfi_startproc
  29              		@ args = 0, pretend = 0, frame = 0
  30              		@ frame_needed = 0, uses_anonymous_args = 0
  31              		@ link register save eliminated.
  32              	.LVL0:
  33              		.loc 1 247 0
  34 0000 024B     		ldr	r3, .L2
  35 0002 1A68     		ldr	r2, [r3]
  36 0004 42F08002 		orr	r2, r2, #128
  37 0008 1A60     		str	r2, [r3]
  38 000a 7047     		bx	lr
  39              	.L3:
  40              		.align	2
  41              	.L2:
  42 000c 00380140 		.word	1073821696
  43              		.cfi_endproc
  44              	.LFE276:
  45              		.size	notify1, .-notify1
  46              		.section	.text.notify2,"ax",%progbits
  47              		.align	2
  48              		.p2align 4,,15
  49              		.thumb
  50              		.thumb_func
  51              		.type	notify2, %function
  52              	notify2:
  53              	.LFB277:
  54              		.loc 1 252 0
  55              		.cfi_startproc
  56              		@ args = 0, pretend = 0, frame = 0
  57              		@ frame_needed = 0, uses_anonymous_args = 0
ARM GAS  /tmp/ccTKho2v.s 			page 2


  58              		@ link register save eliminated.
  59              	.LVL1:
  60              		.loc 1 255 0
  61 0000 024B     		ldr	r3, .L5
  62 0002 1A68     		ldr	r2, [r3]
  63 0004 42F08002 		orr	r2, r2, #128
  64 0008 1A60     		str	r2, [r3]
  65 000a 7047     		bx	lr
  66              	.L6:
  67              		.align	2
  68              	.L5:
  69 000c 00440040 		.word	1073759232
  70              		.cfi_endproc
  71              	.LFE277:
  72              		.size	notify2, .-notify2
  73              		.section	.text.serve_interrupt,"ax",%progbits
  74              		.align	2
  75              		.p2align 4,,15
  76              		.thumb
  77              		.thumb_func
  78              		.type	serve_interrupt, %function
  79              	serve_interrupt:
  80              	.LFB275:
  81              		.loc 1 192 0
  82              		.cfi_startproc
  83              		@ args = 0, pretend = 0, frame = 0
  84              		@ frame_needed = 0, uses_anonymous_args = 0
  85              	.LVL2:
  86 0000 F8B5     		push	{r3, r4, r5, r6, r7, lr}
  87              		.cfi_def_cfa_offset 24
  88              		.cfi_offset 3, -24
  89              		.cfi_offset 4, -20
  90              		.cfi_offset 5, -16
  91              		.cfi_offset 6, -12
  92              		.cfi_offset 7, -8
  93              		.cfi_offset 14, -4
  94              		.loc 1 193 0
  95 0002 D0F85452 		ldr	r5, [r0, #596]
  96              	.LVL3:
  97              		.loc 1 194 0
  98 0006 2F68     		ldr	r7, [r5]
  99              	.LVL4:
 100              		.loc 1 198 0
 101 0008 EC69     		ldr	r4, [r5, #28]
 102              	.LVL5:
 103              		.loc 1 199 0
 104 000a 2C62     		str	r4, [r5, #32]
 105              		.loc 1 202 0
 106 000c 2207     		lsls	r2, r4, #28
 107              		.loc 1 192 0
 108 000e 0646     		mov	r6, r0
 109              		.loc 1 202 0
 110 0010 30D1     		bne	.L50
 111              	.LVL6:
 112              	.L8:
 113              		.loc 1 206 0
 114 0012 E305     		lsls	r3, r4, #23
ARM GAS  /tmp/ccTKho2v.s 			page 3


 115 0014 22D4     		bmi	.L51
 116              	.L13:
 117              		.loc 1 213 0
 118 0016 A006     		lsls	r0, r4, #26
 119 0018 14D4     		bmi	.L52
 120              	.L14:
 121              		.loc 1 220 0
 122 001a 3906     		lsls	r1, r7, #24
 123 001c 01D5     		bpl	.L15
 124              		.loc 1 220 0 is_stmt 0 discriminator 1
 125 001e 2206     		lsls	r2, r4, #24
 126 0020 43D4     		bmi	.L53
 127              	.L15:
 128              		.loc 1 234 0 is_stmt 1
 129 0022 6306     		lsls	r3, r4, #25
 130 0024 0DD5     		bpl	.L7
 131              	.LVL7:
 132              	.LBB194:
 133              	.LBB195:
 134              	.LBB196:
 135              	.LBB197:
 136              	.LBB198:
 137              	.LBB199:
 138              		.file 2 "../ChibiOS/os/ext/CMSIS/include/core_cmFunc.h"
 139              		.loc 2 548 0
 140 0026 2023     		movs	r3, #32
 141              	@ 548 "../ChibiOS/os/ext/CMSIS/include/core_cmFunc.h" 1
 142 0028 83F31188 		MSR basepri, r3
 143              	@ 0 "" 2
 144              	.LVL8:
 145              		.thumb
 146              	.LBE199:
 147              	.LBE198:
 148              	.LBE197:
 149              	.LBE196:
 150              	.LBE195:
 151              	.LBE194:
 152              	.LBB200:
 153              	.LBB201:
 154              		.file 3 "../ChibiOS/os/rt/include/chqueues.h"
 155              		.loc 3 393 0
 156 002c 726C     		ldr	r2, [r6, #68]
 157 002e B36C     		ldr	r3, [r6, #72]
 158 0030 9A42     		cmp	r2, r3
 159 0032 49D0     		beq	.L54
 160              	.L19:
 161              	.LBE201:
 162              	.LBE200:
 163              		.loc 1 238 0
 164 0034 27F04007 		bic	r7, r7, #64
 165              	.LVL9:
 166 0038 2F60     		str	r7, [r5]
 167              	.LVL10:
 168              	.LBB203:
 169              	.LBB204:
 170              	.LBB205:
 171              	.LBB206:
ARM GAS  /tmp/ccTKho2v.s 			page 4


 172              	.LBB207:
 173              	.LBB208:
 174              		.loc 2 548 0
 175 003a 0023     		movs	r3, #0
 176              	@ 548 "../ChibiOS/os/ext/CMSIS/include/core_cmFunc.h" 1
 177 003c 83F31188 		MSR basepri, r3
 178              	@ 0 "" 2
 179              		.thumb
 180 0040 F8BD     		pop	{r3, r4, r5, r6, r7, pc}
 181              	.LVL11:
 182              	.L7:
 183 0042 F8BD     		pop	{r3, r4, r5, r6, r7, pc}
 184              	.LVL12:
 185              	.L52:
 186              	.LBE208:
 187              	.LBE207:
 188              	.LBE206:
 189              	.LBE205:
 190              	.LBE204:
 191              	.LBE203:
 192              	.LBB209:
 193              	.LBB210:
 194              	.LBB211:
 195              	.LBB212:
 196              	.LBB213:
 197              	.LBB214:
 198 0044 2023     		movs	r3, #32
 199              	@ 548 "../ChibiOS/os/ext/CMSIS/include/core_cmFunc.h" 1
 200 0046 83F31188 		MSR basepri, r3
 201              	@ 0 "" 2
 202              		.thumb
 203              	.LBE214:
 204              	.LBE213:
 205              	.LBE212:
 206              	.LBE211:
 207              	.LBE210:
 208              	.LBE209:
 209              		.loc 1 215 0
 210 004a A98C     		ldrh	r1, [r5, #36]
 211 004c 3046     		mov	r0, r6
 212 004e C9B2     		uxtb	r1, r1
 213 0050 FFF7FEFF 		bl	sdIncomingDataI
 214              	.LVL13:
 215              	.LBB215:
 216              	.LBB216:
 217              	.LBB217:
 218              	.LBB218:
 219              	.LBB219:
 220              	.LBB220:
 221              		.loc 2 548 0
 222 0054 0023     		movs	r3, #0
 223              	@ 548 "../ChibiOS/os/ext/CMSIS/include/core_cmFunc.h" 1
 224 0056 83F31188 		MSR basepri, r3
 225              	@ 0 "" 2
 226              		.thumb
 227 005a DEE7     		b	.L14
 228              	.LVL14:
ARM GAS  /tmp/ccTKho2v.s 			page 5


 229              	.L51:
 230              	.LBE220:
 231              	.LBE219:
 232              	.LBE218:
 233              	.LBE217:
 234              	.LBE216:
 235              	.LBE215:
 236              	.LBB221:
 237              	.LBB222:
 238              	.LBB223:
 239              	.LBB224:
 240              	.LBB225:
 241              	.LBB226:
 242 005c 2023     		movs	r3, #32
 243              	@ 548 "../ChibiOS/os/ext/CMSIS/include/core_cmFunc.h" 1
 244 005e 83F31188 		MSR basepri, r3
 245              	@ 0 "" 2
 246              	.LVL15:
 247              		.thumb
 248              	.LBE226:
 249              	.LBE225:
 250              	.LBE224:
 251              	.LBE223:
 252              	.LBE222:
 253              	.LBE221:
 254              	.LBB227:
 255              	.LBB228:
 256              		.file 4 "../ChibiOS/os/hal/osal/rt/osal.h"
 257              		.loc 4 844 0
 258 0062 4FF40071 		mov	r1, #512
 259 0066 301D     		adds	r0, r6, #4
 260              	.LVL16:
 261 0068 FFF7FEFF 		bl	chEvtBroadcastFlagsI
 262              	.LVL17:
 263              	.LBE228:
 264              	.LBE227:
 265              	.LBB229:
 266              	.LBB230:
 267              	.LBB231:
 268              	.LBB232:
 269              	.LBB233:
 270              	.LBB234:
 271              		.loc 2 548 0
 272 006c 0023     		movs	r3, #0
 273              	@ 548 "../ChibiOS/os/ext/CMSIS/include/core_cmFunc.h" 1
 274 006e 83F31188 		MSR basepri, r3
 275              	@ 0 "" 2
 276              		.thumb
 277 0072 D0E7     		b	.L13
 278              	.LVL18:
 279              	.L50:
 280              	.LBE234:
 281              	.LBE233:
 282              	.LBE232:
 283              	.LBE231:
 284              	.LBE230:
 285              	.LBE229:
ARM GAS  /tmp/ccTKho2v.s 			page 6


 286              	.LBB235:
 287              	.LBB236:
 288              		.loc 1 172 0
 289 0074 14F0080F 		tst	r4, #8
 290 0078 14BF     		ite	ne
 291 007a 8021     		movne	r1, #128
 292 007c 0021     		moveq	r1, #0
 293              	.LVL19:
 294              		.loc 1 176 0
 295 007e E307     		lsls	r3, r4, #31
 296              		.loc 1 177 0
 297 0080 48BF     		it	mi
 298 0082 41F02001 		orrmi	r1, r1, #32
 299              	.LVL20:
 300              		.loc 1 178 0
 301 0086 A007     		lsls	r0, r4, #30
 302              	.LVL21:
 303              		.loc 1 179 0
 304 0088 48BF     		it	mi
 305 008a 41F04001 		orrmi	r1, r1, #64
 306              	.LVL22:
 307              		.loc 1 180 0
 308 008e 6207     		lsls	r2, r4, #29
 309              		.loc 1 181 0
 310 0090 48BF     		it	mi
 311 0092 41F48071 		orrmi	r1, r1, #256
 312              	.LVL23:
 313              	.LBB237:
 314              	.LBB238:
 315              	.LBB239:
 316              	.LBB240:
 317              	.LBB241:
 318              	.LBB242:
 319              		.loc 2 548 0
 320 0096 2023     		movs	r3, #32
 321              	@ 548 "../ChibiOS/os/ext/CMSIS/include/core_cmFunc.h" 1
 322 0098 83F31188 		MSR basepri, r3
 323              	@ 0 "" 2
 324              	.LVL24:
 325              		.thumb
 326              	.LBE242:
 327              	.LBE241:
 328              	.LBE240:
 329              	.LBE239:
 330              	.LBE238:
 331              	.LBE237:
 332              	.LBB243:
 333              	.LBB244:
 334              		.loc 4 844 0
 335 009c 301D     		adds	r0, r6, #4
 336              	.LVL25:
 337 009e FFF7FEFF 		bl	chEvtBroadcastFlagsI
 338              	.LVL26:
 339              	.LBE244:
 340              	.LBE243:
 341              	.LBB245:
 342              	.LBB246:
ARM GAS  /tmp/ccTKho2v.s 			page 7


 343              	.LBB247:
 344              	.LBB248:
 345              	.LBB249:
 346              	.LBB250:
 347              		.loc 2 548 0
 348 00a2 0023     		movs	r3, #0
 349              	@ 548 "../ChibiOS/os/ext/CMSIS/include/core_cmFunc.h" 1
 350 00a4 83F31188 		MSR basepri, r3
 351              	@ 0 "" 2
 352              		.thumb
 353 00a8 B3E7     		b	.L8
 354              	.LVL27:
 355              	.L53:
 356              	.LBE250:
 357              	.LBE249:
 358              	.LBE248:
 359              	.LBE247:
 360              	.LBE246:
 361              	.LBE245:
 362              	.LBE236:
 363              	.LBE235:
 364              	.LBB251:
 365              	.LBB252:
 366              	.LBB253:
 367              	.LBB254:
 368              	.LBB255:
 369              	.LBB256:
 370              	.LBB257:
 371 00aa 2023     		movs	r3, #32
 372              	@ 548 "../ChibiOS/os/ext/CMSIS/include/core_cmFunc.h" 1
 373 00ac 83F31188 		MSR basepri, r3
 374              	@ 0 "" 2
 375              		.thumb
 376              	.LBE257:
 377              	.LBE256:
 378              	.LBE255:
 379              	.LBE254:
 380              	.LBE253:
 381              	.LBE252:
 382              		.loc 1 223 0
 383 00b0 06F13000 		add	r0, r6, #48
 384 00b4 FFF7FEFF 		bl	chOQGetI
 385              	.LVL28:
 386              		.loc 1 224 0
 387 00b8 0028     		cmp	r0, #0
 388 00ba 0DDB     		blt	.L55
 389              		.loc 1 229 0
 390 00bc 80B2     		uxth	r0, r0
 391              	.LVL29:
 392 00be 2885     		strh	r0, [r5, #40]	@ movhi
 393              	.L17:
 394              	.LVL30:
 395              	.LBB258:
 396              	.LBB259:
 397              	.LBB260:
 398              	.LBB261:
 399              	.LBB262:
ARM GAS  /tmp/ccTKho2v.s 			page 8


 400              	.LBB263:
 401              		.loc 2 548 0
 402 00c0 0023     		movs	r3, #0
 403              	@ 548 "../ChibiOS/os/ext/CMSIS/include/core_cmFunc.h" 1
 404 00c2 83F31188 		MSR basepri, r3
 405              	@ 0 "" 2
 406              		.thumb
 407 00c6 ACE7     		b	.L15
 408              	.LVL31:
 409              	.L54:
 410              	.LBE263:
 411              	.LBE262:
 412              	.LBE261:
 413              	.LBE260:
 414              	.LBE259:
 415              	.LBE258:
 416              	.LBE251:
 417              	.LBB266:
 418              	.LBB202:
 419              		.loc 3 393 0
 420 00c8 B36B     		ldr	r3, [r6, #56]
 421 00ca 002B     		cmp	r3, #0
 422 00cc B2D0     		beq	.L19
 423              	.LVL32:
 424              	.LBE202:
 425              	.LBE266:
 426              	.LBB267:
 427              	.LBB268:
 428              		.loc 4 844 0
 429 00ce 301D     		adds	r0, r6, #4
 430              	.LVL33:
 431 00d0 1021     		movs	r1, #16
 432 00d2 FFF7FEFF 		bl	chEvtBroadcastFlagsI
 433              	.LVL34:
 434 00d6 ADE7     		b	.L19
 435              	.LVL35:
 436              	.L55:
 437              	.LBE268:
 438              	.LBE267:
 439              	.LBB269:
 440              	.LBB264:
 441              	.LBB265:
 442 00d8 301D     		adds	r0, r6, #4
 443              	.LVL36:
 444 00da 0821     		movs	r1, #8
 445 00dc FFF7FEFF 		bl	chEvtBroadcastFlagsI
 446              	.LVL37:
 447              	.LBE265:
 448              	.LBE264:
 449              		.loc 1 226 0
 450 00e0 27F0C003 		bic	r3, r7, #192
 451 00e4 43F04003 		orr	r3, r3, #64
 452 00e8 2B60     		str	r3, [r5]
 453 00ea E9E7     		b	.L17
 454              	.LBE269:
 455              		.cfi_endproc
 456              	.LFE275:
ARM GAS  /tmp/ccTKho2v.s 			page 9


 457              		.size	serve_interrupt, .-serve_interrupt
 458 00ec AFF30080 		.section	.text.VectorD4,"ax",%progbits
 459              		.align	2
 460              		.p2align 4,,15
 461              		.global	VectorD4
 462              		.thumb
 463              		.thumb_func
 464              		.type	VectorD4, %function
 465              	VectorD4:
 466              	.LFB278:
 467              		.loc 1 328 0
 468              		.cfi_startproc
 469              		@ args = 0, pretend = 0, frame = 0
 470              		@ frame_needed = 0, uses_anonymous_args = 0
 471 0000 08B5     		push	{r3, lr}
 472              		.cfi_def_cfa_offset 8
 473              		.cfi_offset 3, -8
 474              		.cfi_offset 14, -4
 475              		.loc 1 332 0
 476 0002 0348     		ldr	r0, .L57
 477 0004 FFF7FEFF 		bl	serve_interrupt
 478              	.LVL38:
 479              		.loc 1 335 0
 480 0008 BDE80840 		pop	{r3, lr}
 481              		.loc 1 334 0
 482 000c FFF7FEBF 		b	_port_irq_epilogue
 483              	.LVL39:
 484              	.L58:
 485              		.align	2
 486              	.L57:
 487 0010 00000000 		.word	.LANCHOR0
 488              		.cfi_endproc
 489              	.LFE278:
 490              		.size	VectorD4, .-VectorD4
 491 0014 AFF30080 		.section	.text.VectorD8,"ax",%progbits
 491      AFF30080 
 491      AFF30080 
 492              		.align	2
 493              		.p2align 4,,15
 494              		.global	VectorD8
 495              		.thumb
 496              		.thumb_func
 497              		.type	VectorD8, %function
 498              	VectorD8:
 499              	.LFB279:
 500              		.loc 1 347 0
 501              		.cfi_startproc
 502              		@ args = 0, pretend = 0, frame = 0
 503              		@ frame_needed = 0, uses_anonymous_args = 0
 504 0000 08B5     		push	{r3, lr}
 505              		.cfi_def_cfa_offset 8
 506              		.cfi_offset 3, -8
 507              		.cfi_offset 14, -4
 508              		.loc 1 351 0
 509 0002 0348     		ldr	r0, .L60
 510 0004 FFF7FEFF 		bl	serve_interrupt
 511              	.LVL40:
ARM GAS  /tmp/ccTKho2v.s 			page 10


 512              		.loc 1 354 0
 513 0008 BDE80840 		pop	{r3, lr}
 514              		.loc 1 353 0
 515 000c FFF7FEBF 		b	_port_irq_epilogue
 516              	.LVL41:
 517              	.L61:
 518              		.align	2
 519              	.L60:
 520 0010 00000000 		.word	.LANCHOR1
 521              		.cfi_endproc
 522              	.LFE279:
 523              		.size	VectorD8, .-VectorD8
 524 0014 AFF30080 		.section	.text.sd_lld_init,"ax",%progbits
 524      AFF30080 
 524      AFF30080 
 525              		.align	2
 526              		.p2align 4,,15
 527              		.global	sd_lld_init
 528              		.thumb
 529              		.thumb_func
 530              		.type	sd_lld_init, %function
 531              	sd_lld_init:
 532              	.LFB280:
 533              		.loc 1 533 0
 534              		.cfi_startproc
 535              		@ args = 0, pretend = 0, frame = 0
 536              		@ frame_needed = 0, uses_anonymous_args = 0
 537 0000 70B5     		push	{r4, r5, r6, lr}
 538              		.cfi_def_cfa_offset 16
 539              		.cfi_offset 4, -16
 540              		.cfi_offset 5, -12
 541              		.cfi_offset 6, -8
 542              		.cfi_offset 14, -4
 543              		.loc 1 536 0
 544 0002 104D     		ldr	r5, .L63
 545              		.loc 1 545 0
 546 0004 104C     		ldr	r4, .L63+4
 547              		.loc 1 536 0
 548 0006 114A     		ldr	r2, .L63+8
 549              		.loc 1 538 0
 550 0008 114E     		ldr	r6, .L63+12
 551              		.loc 1 536 0
 552 000a 2846     		mov	r0, r5
 553 000c 0021     		movs	r1, #0
 554 000e FFF7FEFF 		bl	sdObjectInit
 555              	.LVL42:
 556              		.loc 1 537 0
 557 0012 104B     		ldr	r3, .L63+16
 558 0014 C5F85432 		str	r3, [r5, #596]
 559              		.loc 1 540 0
 560 0018 2520     		movs	r0, #37
 561 001a 0C21     		movs	r1, #12
 562              		.loc 1 538 0
 563 001c C5F85862 		str	r6, [r5, #600]
 564              		.loc 1 540 0
 565 0020 FFF7FEFF 		bl	nvicEnableVector
 566              	.LVL43:
ARM GAS  /tmp/ccTKho2v.s 			page 11


 567              		.loc 1 545 0
 568 0024 2046     		mov	r0, r4
 569 0026 0021     		movs	r1, #0
 570 0028 0B4A     		ldr	r2, .L63+20
 571 002a FFF7FEFF 		bl	sdObjectInit
 572              	.LVL44:
 573              		.loc 1 546 0
 574 002e 0B4B     		ldr	r3, .L63+24
 575              		.loc 1 547 0
 576 0030 C4F85862 		str	r6, [r4, #600]
 577              		.loc 1 546 0
 578 0034 C4F85432 		str	r3, [r4, #596]
 579              		.loc 1 549 0
 580 0038 2620     		movs	r0, #38
 581 003a 0C21     		movs	r1, #12
 582              		.loc 1 623 0
 583 003c BDE87040 		pop	{r4, r5, r6, lr}
 584              		.loc 1 549 0
 585 0040 FFF7FEBF 		b	nvicEnableVector
 586              	.LVL45:
 587              	.L64:
 588              		.align	2
 589              	.L63:
 590 0044 00000000 		.word	.LANCHOR0
 591 0048 00000000 		.word	.LANCHOR1
 592 004c 00000000 		.word	notify1
 593 0050 00512502 		.word	36000000
 594 0054 00380140 		.word	1073821696
 595 0058 00000000 		.word	notify2
 596 005c 00440040 		.word	1073759232
 597              		.cfi_endproc
 598              	.LFE280:
 599              		.size	sd_lld_init, .-sd_lld_init
 600              		.section	.text.sd_lld_start,"ax",%progbits
 601              		.align	2
 602              		.p2align 4,,15
 603              		.global	sd_lld_start
 604              		.thumb
 605              		.thumb_func
 606              		.type	sd_lld_start, %function
 607              	sd_lld_start:
 608              	.LFB281:
 609              		.loc 1 635 0
 610              		.cfi_startproc
 611              		@ args = 0, pretend = 0, frame = 0
 612              		@ frame_needed = 0, uses_anonymous_args = 0
 613              		@ link register save eliminated.
 614              	.LVL46:
 615              		.loc 1 638 0
 616 0000 1A4A     		ldr	r2, .L72
 617              		.loc 1 640 0
 618 0002 037A     		ldrb	r3, [r0, #8]	@ zero_extendqisi2
 619              		.loc 1 638 0
 620 0004 0029     		cmp	r1, #0
 621 0006 08BF     		it	eq
 622 0008 1146     		moveq	r1, r2
 623              	.LVL47:
ARM GAS  /tmp/ccTKho2v.s 			page 12


 624              		.loc 1 640 0
 625 000a 012B     		cmp	r3, #1
 626              		.loc 1 635 0
 627 000c 70B4     		push	{r4, r5, r6}
 628              		.cfi_def_cfa_offset 12
 629              		.cfi_offset 4, -12
 630              		.cfi_offset 5, -8
 631              		.cfi_offset 6, -4
 632              		.loc 1 640 0
 633 000e 1AD0     		beq	.L70
 634              	.L67:
 635              	.LVL48:
 636              	.LBB270:
 637              	.LBB271:
 638              		.loc 1 147 0
 639 0010 4A68     		ldr	r2, [r1, #4]
 640              		.loc 1 141 0
 641 0012 D0F85862 		ldr	r6, [r0, #600]
 642 0016 0D68     		ldr	r5, [r1]
 643              		.loc 1 144 0
 644 0018 8C68     		ldr	r4, [r1, #8]
 645              		.loc 1 145 0
 646 001a C968     		ldr	r1, [r1, #12]
 647              	.LVL49:
 648              		.loc 1 131 0
 649 001c D0F85432 		ldr	r3, [r0, #596]
 650              	.LVL50:
 651              		.loc 1 147 0
 652 0020 42F49672 		orr	r2, r2, #300
 653              		.loc 1 141 0
 654 0024 B6FBF5F5 		udiv	r5, r6, r5
 655              		.loc 1 144 0
 656 0028 44F04004 		orr	r4, r4, #64
 657              		.loc 1 145 0
 658 002c 41F00100 		orr	r0, r1, #1
 659              	.LVL51:
 660              		.loc 1 147 0
 661 0030 42F00102 		orr	r2, r2, #1
 662              		.loc 1 149 0
 663 0034 4FF0FF31 		mov	r1, #-1
 664              		.loc 1 141 0
 665 0038 DD60     		str	r5, [r3, #12]
 666              		.loc 1 144 0
 667 003a 5C60     		str	r4, [r3, #4]
 668              		.loc 1 145 0
 669 003c 9860     		str	r0, [r3, #8]
 670              	.LBE271:
 671              	.LBE270:
 672              		.loc 1 688 0
 673 003e 70BC     		pop	{r4, r5, r6}
 674              	.LBB273:
 675              	.LBB272:
 676              		.loc 1 146 0
 677 0040 1A60     		str	r2, [r3]
 678              		.loc 1 149 0
 679 0042 1962     		str	r1, [r3, #32]
 680              	.LBE272:
ARM GAS  /tmp/ccTKho2v.s 			page 13


 681              	.LBE273:
 682              		.loc 1 688 0
 683 0044 7047     		bx	lr
 684              	.LVL52:
 685              	.L70:
 686              		.loc 1 642 0
 687 0046 0A4B     		ldr	r3, .L72+4
 688 0048 9842     		cmp	r0, r3
 689 004a 08D0     		beq	.L71
 690              		.loc 1 647 0
 691 004c 094B     		ldr	r3, .L72+8
 692 004e 9842     		cmp	r0, r3
 693 0050 DED1     		bne	.L67
 694              		.loc 1 648 0
 695 0052 094B     		ldr	r3, .L72+12
 696 0054 DA69     		ldr	r2, [r3, #28]
 697 0056 42F40032 		orr	r2, r2, #131072
 698 005a DA61     		str	r2, [r3, #28]
 699 005c D8E7     		b	.L67
 700              	.L71:
 701              		.loc 1 643 0
 702 005e 064B     		ldr	r3, .L72+12
 703 0060 9A69     		ldr	r2, [r3, #24]
 704 0062 42F48042 		orr	r2, r2, #16384
 705 0066 9A61     		str	r2, [r3, #24]
 706 0068 D2E7     		b	.L67
 707              	.L73:
 708 006a 00BF     		.align	2
 709              	.L72:
 710 006c 00000000 		.word	.LANCHOR2
 711 0070 00000000 		.word	.LANCHOR0
 712 0074 00000000 		.word	.LANCHOR1
 713 0078 00100240 		.word	1073876992
 714              		.cfi_endproc
 715              	.LFE281:
 716              		.size	sd_lld_start, .-sd_lld_start
 717 007c AFF30080 		.section	.text.sd_lld_stop,"ax",%progbits
 718              		.align	2
 719              		.p2align 4,,15
 720              		.global	sd_lld_stop
 721              		.thumb
 722              		.thumb_func
 723              		.type	sd_lld_stop, %function
 724              	sd_lld_stop:
 725              	.LFB282:
 726              		.loc 1 699 0
 727              		.cfi_startproc
 728              		@ args = 0, pretend = 0, frame = 0
 729              		@ frame_needed = 0, uses_anonymous_args = 0
 730              		@ link register save eliminated.
 731              	.LVL53:
 732              		.loc 1 701 0
 733 0000 037A     		ldrb	r3, [r0, #8]	@ zero_extendqisi2
 734 0002 022B     		cmp	r3, #2
 735 0004 00D0     		beq	.L79
 736              	.L74:
 737 0006 7047     		bx	lr
ARM GAS  /tmp/ccTKho2v.s 			page 14


 738              	.L79:
 739              		.loc 1 706 0
 740 0008 0B49     		ldr	r1, .L81
 741              		.loc 1 703 0
 742 000a D0F85432 		ldr	r3, [r0, #596]
 743              	.LVL54:
 744              	.LBB274:
 745              	.LBB275:
 746              		.loc 1 160 0
 747 000e 0022     		movs	r2, #0
 748              	.LBE275:
 749              	.LBE274:
 750              		.loc 1 706 0
 751 0010 8842     		cmp	r0, r1
 752              	.LBB277:
 753              	.LBB276:
 754              		.loc 1 160 0
 755 0012 1A60     		str	r2, [r3]
 756              		.loc 1 161 0
 757 0014 5A60     		str	r2, [r3, #4]
 758              		.loc 1 162 0
 759 0016 9A60     		str	r2, [r3, #8]
 760              	.LBE276:
 761              	.LBE277:
 762              		.loc 1 706 0
 763 0018 08D0     		beq	.L80
 764              		.loc 1 712 0
 765 001a 084B     		ldr	r3, .L81+4
 766              	.LVL55:
 767 001c 9842     		cmp	r0, r3
 768 001e F2D1     		bne	.L74
 769              		.loc 1 713 0
 770 0020 074B     		ldr	r3, .L81+8
 771 0022 DA69     		ldr	r2, [r3, #28]
 772 0024 22F40032 		bic	r2, r2, #131072
 773 0028 DA61     		str	r2, [r3, #28]
 774              		.loc 1 714 0
 775 002a ECE7     		b	.L74
 776              	.LVL56:
 777              	.L80:
 778              		.loc 1 707 0
 779 002c 044B     		ldr	r3, .L81+8
 780              	.LVL57:
 781 002e 9A69     		ldr	r2, [r3, #24]
 782 0030 22F48042 		bic	r2, r2, #16384
 783 0034 9A61     		str	r2, [r3, #24]
 784              		.loc 1 708 0
 785 0036 7047     		bx	lr
 786              	.L82:
 787              		.align	2
 788              	.L81:
 789 0038 00000000 		.word	.LANCHOR0
 790 003c 00000000 		.word	.LANCHOR1
 791 0040 00100240 		.word	1073876992
 792              		.cfi_endproc
 793              	.LFE282:
 794              		.size	sd_lld_stop, .-sd_lld_stop
ARM GAS  /tmp/ccTKho2v.s 			page 15


 795              		.global	SD2
 796              		.global	SD1
 797 0044 AFF30080 		.section	.rodata.default_config,"a",%progbits
 797      AFF30080 
 797      AFF30080 
 798              		.align	2
 799              		.set	.LANCHOR2,. + 0
 800              		.type	default_config, %object
 801              		.size	default_config, 16
 802              	default_config:
 803 0000 00960000 		.word	38400
 804 0004 00000000 		.word	0
 805 0008 00400000 		.word	16384
 806 000c 00000000 		.word	0
 807              		.section	.bss.SD1,"aw",%nobits
 808              		.align	2
 809              		.set	.LANCHOR0,. + 0
 810              		.type	SD1, %object
 811              		.size	SD1, 604
 812              	SD1:
 813 0000 00000000 		.space	604
 813      00000000 
 813      00000000 
 813      00000000 
 813      00000000 
 814              		.section	.bss.SD2,"aw",%nobits
 815              		.align	2
 816              		.set	.LANCHOR1,. + 0
 817              		.type	SD2, %object
 818              		.size	SD2, 604
 819              	SD2:
 820 0000 00000000 		.space	604
 820      00000000 
 820      00000000 
 820      00000000 
 820      00000000 
 821              		.text
 822              	.Letext0:
 823              		.file 5 "/nfs/nfs5/home/research/hardware/arm2/gcc-arm-embedded/gcc-arm-none-eabi-4_8-2014q2/lib/g
 824              		.file 6 "/nfs/nfs5/home/research/hardware/arm2/gcc-arm-embedded/gcc-arm-none-eabi-4_8-2014q2/arm-n
 825              		.file 7 "/nfs/nfs5/home/research/hardware/arm2/gcc-arm-embedded/gcc-arm-none-eabi-4_8-2014q2/arm-n
 826              		.file 8 "../ChibiOS/os/rt/ports/ARMCMx/compilers/GCC/chtypes.h"
 827              		.file 9 "../ChibiOS/os/rt/include/chsystypes.h"
 828              		.file 10 "../ChibiOS/os/rt/include/chschd.h"
 829              		.file 11 "../ChibiOS/os/ext/CMSIS/ST/STM32F3xx/stm32f303xc.h"
 830              		.file 12 "../ChibiOS/os/rt/ports/ARMCMx/chcore.h"
 831              		.file 13 "../ChibiOS/os/rt/ports/ARMCMx/chcore_v7m.h"
 832              		.file 14 "../ChibiOS/os/rt/include/chtm.h"
 833              		.file 15 "../ChibiOS/os/rt/include/chsem.h"
 834              		.file 16 "../ChibiOS/os/rt/include/chmtx.h"
 835              		.file 17 "../ChibiOS/os/rt/include/chevents.h"
 836              		.file 18 "../ChibiOS/os/hal/include/serial.h"
 837              		.file 19 "../ChibiOS/os/hal/ports/STM32/LLD/USARTv2/serial_lld.h"
 838              		.file 20 "../ChibiOS/os/rt/include/chsys.h"
 839              		.file 21 "../ChibiOS/os/ext/CMSIS/include/core_cm4.h"
 840              		.file 22 "../ChibiOS/os/hal/ports/common/ARMCMx/nvic.h"