ARM GAS  /tmp/cc5mEdkz.s 			page 1


   1              		.syntax unified
   2              		.cpu cortex-m4
   3              		.fpu softvfp
   4              		.eabi_attribute 20, 1
   5              		.eabi_attribute 21, 1
   6              		.eabi_attribute 23, 3
   7              		.eabi_attribute 24, 1
   8              		.eabi_attribute 25, 1
   9              		.eabi_attribute 26, 1
  10              		.eabi_attribute 30, 2
  11              		.eabi_attribute 34, 1
  12              		.eabi_attribute 18, 4
  13              		.thumb
  14              		.file	"serial.c"
  15              		.text
  16              	.Ltext0:
  17              		.cfi_sections	.debug_frame
  18              		.section	.text.readt,"ax",%progbits
  19              		.align	2
  20              		.p2align 4,,15
  21              		.thumb
  22              		.thumb_func
  23              		.type	readt, %function
  24              	readt:
  25              	.LFB279:
  26              		.file 1 "../ChibiOS/os/hal/src/serial.c"
  27              		.loc 1 87 0
  28              		.cfi_startproc
  29              		@ args = 0, pretend = 0, frame = 0
  30              		@ frame_needed = 0, uses_anonymous_args = 0
  31              		@ link register save eliminated.
  32              	.LVL0:
  33              		.loc 1 89 0
  34 0000 0C30     		adds	r0, r0, #12
  35              	.LVL1:
  36 0002 FFF7FEBF 		b	chIQReadTimeout
  37              	.LVL2:
  38              		.cfi_endproc
  39              	.LFE279:
  40              		.size	readt, .-readt
  41 0006 00BFAFF3 		.section	.text.read,"ax",%progbits
  41      0080AFF3 
  41      0080
  42              		.align	2
  43              		.p2align 4,,15
  44              		.thumb
  45              		.thumb_func
  46              		.type	read, %function
  47              	read:
  48              	.LFB273:
  49              		.loc 1 56 0
  50              		.cfi_startproc
  51              		@ args = 0, pretend = 0, frame = 0
  52              		@ frame_needed = 0, uses_anonymous_args = 0
  53              		@ link register save eliminated.
  54              	.LVL3:
  55              		.loc 1 58 0
ARM GAS  /tmp/cc5mEdkz.s 			page 2


  56 0000 0C30     		adds	r0, r0, #12
  57              	.LVL4:
  58 0002 4FF0FF33 		mov	r3, #-1
  59 0006 FFF7FEBF 		b	chIQReadTimeout
  60              	.LVL5:
  61              		.cfi_endproc
  62              	.LFE273:
  63              		.size	read, .-read
  64 000a 00BFAFF3 		.section	.text.writet,"ax",%progbits
  64      0080
  65              		.align	2
  66              		.p2align 4,,15
  67              		.thumb
  68              		.thumb_func
  69              		.type	writet, %function
  70              	writet:
  71              	.LFB278:
  72              		.loc 1 82 0
  73              		.cfi_startproc
  74              		@ args = 0, pretend = 0, frame = 0
  75              		@ frame_needed = 0, uses_anonymous_args = 0
  76              		@ link register save eliminated.
  77              	.LVL6:
  78              		.loc 1 84 0
  79 0000 3030     		adds	r0, r0, #48
  80              	.LVL7:
  81 0002 FFF7FEBF 		b	chOQWriteTimeout
  82              	.LVL8:
  83              		.cfi_endproc
  84              	.LFE278:
  85              		.size	writet, .-writet
  86 0006 00BFAFF3 		.section	.text.write,"ax",%progbits
  86      0080AFF3 
  86      0080
  87              		.align	2
  88              		.p2align 4,,15
  89              		.thumb
  90              		.thumb_func
  91              		.type	write, %function
  92              	write:
  93              	.LFB272:
  94              		.loc 1 50 0
  95              		.cfi_startproc
  96              		@ args = 0, pretend = 0, frame = 0
  97              		@ frame_needed = 0, uses_anonymous_args = 0
  98              		@ link register save eliminated.
  99              	.LVL9:
 100              		.loc 1 52 0
 101 0000 3030     		adds	r0, r0, #48
 102              	.LVL10:
 103 0002 4FF0FF33 		mov	r3, #-1
 104 0006 FFF7FEBF 		b	chOQWriteTimeout
 105              	.LVL11:
 106              		.cfi_endproc
 107              	.LFE272:
 108              		.size	write, .-write
 109 000a 00BFAFF3 		.section	.text.gett,"ax",%progbits
ARM GAS  /tmp/cc5mEdkz.s 			page 3


 109      0080
 110              		.align	2
 111              		.p2align 4,,15
 112              		.thumb
 113              		.thumb_func
 114              		.type	gett, %function
 115              	gett:
 116              	.LFB277:
 117              		.loc 1 77 0
 118              		.cfi_startproc
 119              		@ args = 0, pretend = 0, frame = 0
 120              		@ frame_needed = 0, uses_anonymous_args = 0
 121              		@ link register save eliminated.
 122              	.LVL12:
 123              		.loc 1 79 0
 124 0000 0C30     		adds	r0, r0, #12
 125              	.LVL13:
 126 0002 FFF7FEBF 		b	chIQGetTimeout
 127              	.LVL14:
 128              		.cfi_endproc
 129              	.LFE277:
 130              		.size	gett, .-gett
 131 0006 00BFAFF3 		.section	.text.get,"ax",%progbits
 131      0080AFF3 
 131      0080
 132              		.align	2
 133              		.p2align 4,,15
 134              		.thumb
 135              		.thumb_func
 136              		.type	get, %function
 137              	get:
 138              	.LFB275:
 139              		.loc 1 67 0
 140              		.cfi_startproc
 141              		@ args = 0, pretend = 0, frame = 0
 142              		@ frame_needed = 0, uses_anonymous_args = 0
 143              		@ link register save eliminated.
 144              	.LVL15:
 145              		.loc 1 69 0
 146 0000 0C30     		adds	r0, r0, #12
 147              	.LVL16:
 148 0002 4FF0FF31 		mov	r1, #-1
 149 0006 FFF7FEBF 		b	chIQGetTimeout
 150              	.LVL17:
 151              		.cfi_endproc
 152              	.LFE275:
 153              		.size	get, .-get
 154 000a 00BFAFF3 		.section	.text.putt,"ax",%progbits
 154      0080
 155              		.align	2
 156              		.p2align 4,,15
 157              		.thumb
 158              		.thumb_func
 159              		.type	putt, %function
 160              	putt:
 161              	.LFB276:
 162              		.loc 1 72 0
ARM GAS  /tmp/cc5mEdkz.s 			page 4


 163              		.cfi_startproc
 164              		@ args = 0, pretend = 0, frame = 0
 165              		@ frame_needed = 0, uses_anonymous_args = 0
 166              		@ link register save eliminated.
 167              	.LVL18:
 168              		.loc 1 74 0
 169 0000 3030     		adds	r0, r0, #48
 170              	.LVL19:
 171 0002 FFF7FEBF 		b	chOQPutTimeout
 172              	.LVL20:
 173              		.cfi_endproc
 174              	.LFE276:
 175              		.size	putt, .-putt
 176 0006 00BFAFF3 		.section	.text.put,"ax",%progbits
 176      0080AFF3 
 176      0080
 177              		.align	2
 178              		.p2align 4,,15
 179              		.thumb
 180              		.thumb_func
 181              		.type	put, %function
 182              	put:
 183              	.LFB274:
 184              		.loc 1 62 0
 185              		.cfi_startproc
 186              		@ args = 0, pretend = 0, frame = 0
 187              		@ frame_needed = 0, uses_anonymous_args = 0
 188              		@ link register save eliminated.
 189              	.LVL21:
 190              		.loc 1 64 0
 191 0000 3030     		adds	r0, r0, #48
 192              	.LVL22:
 193 0002 4FF0FF32 		mov	r2, #-1
 194 0006 FFF7FEBF 		b	chOQPutTimeout
 195              	.LVL23:
 196              		.cfi_endproc
 197              	.LFE274:
 198              		.size	put, .-put
 199 000a 00BFAFF3 		.section	.text.sdInit,"ax",%progbits
 199      0080
 200              		.align	2
 201              		.p2align 4,,15
 202              		.global	sdInit
 203              		.thumb
 204              		.thumb_func
 205              		.type	sdInit, %function
 206              	sdInit:
 207              	.LFB280:
 208              		.loc 1 108 0
 209              		.cfi_startproc
 210              		@ args = 0, pretend = 0, frame = 0
 211              		@ frame_needed = 0, uses_anonymous_args = 0
 212              		@ link register save eliminated.
 213              		.loc 1 110 0
 214 0000 FFF7FEBF 		b	sd_lld_init
 215              	.LVL24:
 216              		.cfi_endproc
ARM GAS  /tmp/cc5mEdkz.s 			page 5


 217              	.LFE280:
 218              		.size	sdInit, .-sdInit
 219 0004 AFF30080 		.section	.text.sdObjectInit,"ax",%progbits
 219      AFF30080 
 219      AFF30080 
 220              		.align	2
 221              		.p2align 4,,15
 222              		.global	sdObjectInit
 223              		.thumb
 224              		.thumb_func
 225              		.type	sdObjectInit, %function
 226              	sdObjectInit:
 227              	.LFB281:
 228              		.loc 1 128 0
 229              		.cfi_startproc
 230              		@ args = 0, pretend = 0, frame = 0
 231              		@ frame_needed = 0, uses_anonymous_args = 0
 232              	.LVL25:
 233 0000 70B5     		push	{r4, r5, r6, lr}
 234              		.cfi_def_cfa_offset 16
 235              		.cfi_offset 4, -16
 236              		.cfi_offset 5, -12
 237              		.cfi_offset 6, -8
 238              		.cfi_offset 14, -4
 239              		.loc 1 130 0
 240 0002 0F4B     		ldr	r3, .L11
 241              		.loc 1 128 0
 242 0004 0446     		mov	r4, r0
 243 0006 82B0     		sub	sp, sp, #8
 244              		.cfi_def_cfa_offset 24
 245              		.loc 1 130 0
 246 0008 40F8043B 		str	r3, [r0], #4
 247              	.LVL26:
 248              		.loc 1 132 0
 249 000c 0126     		movs	r6, #1
 250              		.loc 1 133 0
 251 000e 0094     		str	r4, [sp]
 252              		.loc 1 128 0
 253 0010 0B46     		mov	r3, r1
 254 0012 1546     		mov	r5, r2
 255              	.LBB96:
 256              	.LBB97:
 257              	.LBB98:
 258              		.file 2 "../ChibiOS/os/rt/include/chevents.h"
 259              		.loc 2 172 0
 260 0014 6060     		str	r0, [r4, #4]
 261              	.LBE98:
 262              	.LBE97:
 263              	.LBE96:
 264              		.loc 1 133 0
 265 0016 04F15401 		add	r1, r4, #84
 266              	.LVL27:
 267 001a 04F10C00 		add	r0, r4, #12
 268              	.LVL28:
 269              		.loc 1 132 0
 270 001e 2672     		strb	r6, [r4, #8]
 271              		.loc 1 133 0
ARM GAS  /tmp/cc5mEdkz.s 			page 6


 272 0020 4FF48072 		mov	r2, #256
 273              	.LVL29:
 274 0024 FFF7FEFF 		bl	chIQObjectInit
 275              	.LVL30:
 276              		.loc 1 134 0
 277 0028 0094     		str	r4, [sp]
 278 002a 2B46     		mov	r3, r5
 279 002c 04F13000 		add	r0, r4, #48
 280 0030 04F5AA71 		add	r1, r4, #340
 281 0034 4FF48072 		mov	r2, #256
 282 0038 FFF7FEFF 		bl	chOQObjectInit
 283              	.LVL31:
 284              		.loc 1 135 0
 285 003c 02B0     		add	sp, sp, #8
 286              		@ sp needed
 287 003e 70BD     		pop	{r4, r5, r6, pc}
 288              	.LVL32:
 289              	.L12:
 290              		.align	2
 291              	.L11:
 292 0040 00000000 		.word	.LANCHOR0
 293              		.cfi_endproc
 294              	.LFE281:
 295              		.size	sdObjectInit, .-sdObjectInit
 296 0044 AFF30080 		.section	.text.sdStart,"ax",%progbits
 296      AFF30080 
 296      AFF30080 
 297              		.align	2
 298              		.p2align 4,,15
 299              		.global	sdStart
 300              		.thumb
 301              		.thumb_func
 302              		.type	sdStart, %function
 303              	sdStart:
 304              	.LFB282:
 305              		.loc 1 147 0
 306              		.cfi_startproc
 307              		@ args = 0, pretend = 0, frame = 0
 308              		@ frame_needed = 0, uses_anonymous_args = 0
 309              	.LVL33:
 310 0000 10B5     		push	{r4, lr}
 311              		.cfi_def_cfa_offset 8
 312              		.cfi_offset 4, -8
 313              		.cfi_offset 14, -4
 314              	.LBB99:
 315              	.LBB100:
 316              	.LBB101:
 317              	.LBB102:
 318              	.LBB103:
 319              		.file 3 "../ChibiOS/os/ext/CMSIS/include/core_cmFunc.h"
 320              		.loc 3 548 0
 321 0002 2023     		movs	r3, #32
 322              	.LBE103:
 323              	.LBE102:
 324              	.LBE101:
 325              	.LBE100:
 326              	.LBE99:
ARM GAS  /tmp/cc5mEdkz.s 			page 7


 327              		.loc 1 147 0
 328 0004 0446     		mov	r4, r0
 329              	.LBB108:
 330              	.LBB107:
 331              	.LBB106:
 332              	.LBB105:
 333              	.LBB104:
 334              		.loc 3 548 0
 335              	@ 548 "../ChibiOS/os/ext/CMSIS/include/core_cmFunc.h" 1
 336 0006 83F31188 		MSR basepri, r3
 337              	@ 0 "" 2
 338              		.thumb
 339              	.LBE104:
 340              	.LBE105:
 341              	.LBE106:
 342              	.LBE107:
 343              	.LBE108:
 344              		.loc 1 154 0
 345 000a FFF7FEFF 		bl	sd_lld_start
 346              	.LVL34:
 347              		.loc 1 155 0
 348 000e 0223     		movs	r3, #2
 349 0010 2372     		strb	r3, [r4, #8]
 350              	.LVL35:
 351              	.LBB109:
 352              	.LBB110:
 353              	.LBB111:
 354              	.LBB112:
 355              	.LBB113:
 356              	.LBB114:
 357              		.loc 3 548 0
 358 0012 0023     		movs	r3, #0
 359              	@ 548 "../ChibiOS/os/ext/CMSIS/include/core_cmFunc.h" 1
 360 0014 83F31188 		MSR basepri, r3
 361              	@ 0 "" 2
 362              		.thumb
 363 0018 10BD     		pop	{r4, pc}
 364              	.LBE114:
 365              	.LBE113:
 366              	.LBE112:
 367              	.LBE111:
 368              	.LBE110:
 369              	.LBE109:
 370              		.cfi_endproc
 371              	.LFE282:
 372              		.size	sdStart, .-sdStart
 373              		.section	.text.sdStop,"ax",%progbits
 374              		.align	2
 375              		.p2align 4,,15
 376              		.global	sdStop
 377              		.thumb
 378              		.thumb_func
 379              		.type	sdStop, %function
 380              	sdStop:
 381              	.LFB283:
 382              		.loc 1 168 0
 383              		.cfi_startproc
ARM GAS  /tmp/cc5mEdkz.s 			page 8


 384              		@ args = 0, pretend = 0, frame = 0
 385              		@ frame_needed = 0, uses_anonymous_args = 0
 386              	.LVL36:
 387 0000 10B5     		push	{r4, lr}
 388              		.cfi_def_cfa_offset 8
 389              		.cfi_offset 4, -8
 390              		.cfi_offset 14, -4
 391              	.LBB115:
 392              	.LBB116:
 393              	.LBB117:
 394              	.LBB118:
 395              	.LBB119:
 396              		.loc 3 548 0
 397 0002 2023     		movs	r3, #32
 398              	.LBE119:
 399              	.LBE118:
 400              	.LBE117:
 401              	.LBE116:
 402              	.LBE115:
 403              		.loc 1 168 0
 404 0004 0446     		mov	r4, r0
 405              	.LBB124:
 406              	.LBB123:
 407              	.LBB122:
 408              	.LBB121:
 409              	.LBB120:
 410              		.loc 3 548 0
 411              	@ 548 "../ChibiOS/os/ext/CMSIS/include/core_cmFunc.h" 1
 412 0006 83F31188 		MSR basepri, r3
 413              	@ 0 "" 2
 414              		.thumb
 415              	.LBE120:
 416              	.LBE121:
 417              	.LBE122:
 418              	.LBE123:
 419              	.LBE124:
 420              		.loc 1 175 0
 421 000a FFF7FEFF 		bl	sd_lld_stop
 422              	.LVL37:
 423              		.loc 1 176 0
 424 000e 0123     		movs	r3, #1
 425 0010 2372     		strb	r3, [r4, #8]
 426              		.loc 1 177 0
 427 0012 04F13000 		add	r0, r4, #48
 428 0016 FFF7FEFF 		bl	chOQResetI
 429              	.LVL38:
 430              		.loc 1 178 0
 431 001a 04F10C00 		add	r0, r4, #12
 432 001e FFF7FEFF 		bl	chIQResetI
 433              	.LVL39:
 434              	.LBB125:
 435              	.LBB126:
 436              		.file 4 "../ChibiOS/os/hal/osal/rt/osal.h"
 437              		.loc 4 600 0
 438 0022 FFF7FEFF 		bl	chSchRescheduleS
 439              	.LVL40:
 440              	.LBE126:
ARM GAS  /tmp/cc5mEdkz.s 			page 9


 441              	.LBE125:
 442              	.LBB127:
 443              	.LBB128:
 444              	.LBB129:
 445              	.LBB130:
 446              	.LBB131:
 447              	.LBB132:
 448              		.loc 3 548 0
 449 0026 0023     		movs	r3, #0
 450              	@ 548 "../ChibiOS/os/ext/CMSIS/include/core_cmFunc.h" 1
 451 0028 83F31188 		MSR basepri, r3
 452              	@ 0 "" 2
 453              		.thumb
 454 002c 10BD     		pop	{r4, pc}
 455              	.LBE132:
 456              	.LBE131:
 457              	.LBE130:
 458              	.LBE129:
 459              	.LBE128:
 460              	.LBE127:
 461              		.cfi_endproc
 462              	.LFE283:
 463              		.size	sdStop, .-sdStop
 464 002e 00BF     		.section	.text.sdIncomingDataI,"ax",%progbits
 465              		.align	2
 466              		.p2align 4,,15
 467              		.global	sdIncomingDataI
 468              		.thumb
 469              		.thumb_func
 470              		.type	sdIncomingDataI, %function
 471              	sdIncomingDataI:
 472              	.LFB284:
 473              		.loc 1 199 0
 474              		.cfi_startproc
 475              		@ args = 0, pretend = 0, frame = 0
 476              		@ frame_needed = 0, uses_anonymous_args = 0
 477              	.LVL41:
 478 0000 38B5     		push	{r3, r4, r5, lr}
 479              		.cfi_def_cfa_offset 16
 480              		.cfi_offset 3, -16
 481              		.cfi_offset 4, -12
 482              		.cfi_offset 5, -8
 483              		.cfi_offset 14, -4
 484              	.LBB133:
 485              	.LBB134:
 486              		.file 5 "../ChibiOS/os/rt/include/chqueues.h"
 487              		.loc 5 307 0
 488 0002 4369     		ldr	r3, [r0, #20]
 489              	.LBE134:
 490              	.LBE133:
 491              		.loc 1 199 0
 492 0004 0446     		mov	r4, r0
 493              	.LVL42:
 494 0006 0D46     		mov	r5, r1
 495              		.loc 1 204 0
 496 0008 3BB1     		cbz	r3, .L19
 497              		.loc 1 206 0
ARM GAS  /tmp/cc5mEdkz.s 			page 10


 498 000a 2946     		mov	r1, r5
 499              	.LVL43:
 500 000c 04F10C00 		add	r0, r4, #12
 501              	.LVL44:
 502 0010 FFF7FEFF 		bl	chIQPutI
 503              	.LVL45:
 504 0014 0028     		cmp	r0, #0
 505 0016 0BDB     		blt	.L20
 506              	.L15:
 507 0018 38BD     		pop	{r3, r4, r5, pc}
 508              	.LVL46:
 509              	.L19:
 510              	.LBB135:
 511              	.LBB136:
 512              		.loc 4 844 0
 513 001a 0430     		adds	r0, r0, #4
 514              	.LVL47:
 515 001c 0421     		movs	r1, #4
 516              	.LVL48:
 517 001e FFF7FEFF 		bl	chEvtBroadcastFlagsI
 518              	.LVL49:
 519              	.LBE136:
 520              	.LBE135:
 521              		.loc 1 206 0
 522 0022 2946     		mov	r1, r5
 523 0024 04F10C00 		add	r0, r4, #12
 524 0028 FFF7FEFF 		bl	chIQPutI
 525              	.LVL50:
 526 002c 0028     		cmp	r0, #0
 527 002e F3DA     		bge	.L15
 528              	.LVL51:
 529              	.L20:
 530              	.LBB137:
 531              	.LBB138:
 532              		.loc 4 844 0
 533 0030 201D     		adds	r0, r4, #4
 534              	.LVL52:
 535 0032 8021     		movs	r1, #128
 536              	.LBE138:
 537              	.LBE137:
 538              		.loc 1 208 0
 539 0034 BDE83840 		pop	{r3, r4, r5, lr}
 540              	.LVL53:
 541              	.LBB140:
 542              	.LBB139:
 543              		.loc 4 844 0
 544 0038 FFF7FEBF 		b	chEvtBroadcastFlagsI
 545              	.LVL54:
 546              	.LBE139:
 547              	.LBE140:
 548              		.cfi_endproc
 549              	.LFE284:
 550              		.size	sdIncomingDataI, .-sdIncomingDataI
 551 003c AFF30080 		.section	.text.sdRequestDataI,"ax",%progbits
 552              		.align	2
 553              		.p2align 4,,15
 554              		.global	sdRequestDataI
ARM GAS  /tmp/cc5mEdkz.s 			page 11


 555              		.thumb
 556              		.thumb_func
 557              		.type	sdRequestDataI, %function
 558              	sdRequestDataI:
 559              	.LFB285:
 560              		.loc 1 225 0
 561              		.cfi_startproc
 562              		@ args = 0, pretend = 0, frame = 0
 563              		@ frame_needed = 0, uses_anonymous_args = 0
 564              	.LVL55:
 565 0000 38B5     		push	{r3, r4, r5, lr}
 566              		.cfi_def_cfa_offset 16
 567              		.cfi_offset 3, -16
 568              		.cfi_offset 4, -12
 569              		.cfi_offset 5, -8
 570              		.cfi_offset 14, -4
 571              		.loc 1 225 0
 572 0002 0446     		mov	r4, r0
 573              		.loc 1 231 0
 574 0004 3030     		adds	r0, r0, #48
 575              	.LVL56:
 576 0006 FFF7FEFF 		bl	chOQGetI
 577              	.LVL57:
 578              		.loc 1 232 0
 579 000a 051E     		subs	r5, r0, #0
 580 000c 01DB     		blt	.L23
 581              		.loc 1 235 0
 582 000e 2846     		mov	r0, r5
 583 0010 38BD     		pop	{r3, r4, r5, pc}
 584              	.LVL58:
 585              	.L23:
 586              	.LBB141:
 587              	.LBB142:
 588              		.loc 4 844 0
 589 0012 201D     		adds	r0, r4, #4
 590              	.LVL59:
 591 0014 0821     		movs	r1, #8
 592 0016 FFF7FEFF 		bl	chEvtBroadcastFlagsI
 593              	.LVL60:
 594              	.LBE142:
 595              	.LBE141:
 596              		.loc 1 235 0
 597 001a 2846     		mov	r0, r5
 598 001c 38BD     		pop	{r3, r4, r5, pc}
 599              		.cfi_endproc
 600              	.LFE285:
 601              		.size	sdRequestDataI, .-sdRequestDataI
 602 001e 00BF     		.section	.text.sdPutWouldBlock,"ax",%progbits
 603              		.align	2
 604              		.p2align 4,,15
 605              		.global	sdPutWouldBlock
 606              		.thumb
 607              		.thumb_func
 608              		.type	sdPutWouldBlock, %function
 609              	sdPutWouldBlock:
 610              	.LFB286:
 611              		.loc 1 252 0
ARM GAS  /tmp/cc5mEdkz.s 			page 12


 612              		.cfi_startproc
 613              		@ args = 0, pretend = 0, frame = 0
 614              		@ frame_needed = 0, uses_anonymous_args = 0
 615              		@ link register save eliminated.
 616              	.LVL61:
 617              	.LBB143:
 618              	.LBB144:
 619              	.LBB145:
 620              	.LBB146:
 621              	.LBB147:
 622              		.loc 3 548 0
 623 0000 2023     		movs	r3, #32
 624              	@ 548 "../ChibiOS/os/ext/CMSIS/include/core_cmFunc.h" 1
 625 0002 83F31188 		MSR basepri, r3
 626              	@ 0 "" 2
 627              	.LVL62:
 628              		.thumb
 629              	.LBE147:
 630              	.LBE146:
 631              	.LBE145:
 632              	.LBE144:
 633              	.LBE143:
 634              	.LBB148:
 635              	.LBB149:
 636              	.LBB150:
 637              	.LBB151:
 638              	.LBB152:
 639              	.LBB153:
 640 0006 0023     		movs	r3, #0
 641              	.LBE153:
 642              	.LBE152:
 643              	.LBE151:
 644              	.LBE150:
 645              	.LBE149:
 646              	.LBE148:
 647              	.LBB159:
 648              	.LBB160:
 649              		.loc 5 411 0
 650 0008 806B     		ldr	r0, [r0, #56]
 651              	.LVL63:
 652              	.LBE160:
 653              	.LBE159:
 654              	.LBB161:
 655              	.LBB158:
 656              	.LBB157:
 657              	.LBB156:
 658              	.LBB155:
 659              	.LBB154:
 660              		.loc 3 548 0
 661              	@ 548 "../ChibiOS/os/ext/CMSIS/include/core_cmFunc.h" 1
 662 000a 83F31188 		MSR basepri, r3
 663              	@ 0 "" 2
 664              		.thumb
 665              	.LBE154:
 666              	.LBE155:
 667              	.LBE156:
 668              	.LBE157:
ARM GAS  /tmp/cc5mEdkz.s 			page 13


 669              	.LBE158:
 670              	.LBE161:
 671              		.loc 1 260 0
 672 000e C31A     		subs	r3, r0, r3
 673 0010 5842     		rsbs	r0, r3, #0
 674 0012 5841     		adcs	r0, r0, r3
 675 0014 7047     		bx	lr
 676              		.cfi_endproc
 677              	.LFE286:
 678              		.size	sdPutWouldBlock, .-sdPutWouldBlock
 679 0016 00BFAFF3 		.section	.text.sdGetWouldBlock,"ax",%progbits
 679      0080AFF3 
 679      0080
 680              		.align	2
 681              		.p2align 4,,15
 682              		.global	sdGetWouldBlock
 683              		.thumb
 684              		.thumb_func
 685              		.type	sdGetWouldBlock, %function
 686              	sdGetWouldBlock:
 687              	.LFB287:
 688              		.loc 1 277 0
 689              		.cfi_startproc
 690              		@ args = 0, pretend = 0, frame = 0
 691              		@ frame_needed = 0, uses_anonymous_args = 0
 692              		@ link register save eliminated.
 693              	.LVL64:
 694              	.LBB162:
 695              	.LBB163:
 696              	.LBB164:
 697              	.LBB165:
 698              	.LBB166:
 699              		.loc 3 548 0
 700 0000 2023     		movs	r3, #32
 701              	@ 548 "../ChibiOS/os/ext/CMSIS/include/core_cmFunc.h" 1
 702 0002 83F31188 		MSR basepri, r3
 703              	@ 0 "" 2
 704              	.LVL65:
 705              		.thumb
 706              	.LBE166:
 707              	.LBE165:
 708              	.LBE164:
 709              	.LBE163:
 710              	.LBE162:
 711              	.LBB167:
 712              	.LBB168:
 713              	.LBB169:
 714              	.LBB170:
 715              	.LBB171:
 716              	.LBB172:
 717 0006 0023     		movs	r3, #0
 718              	.LBE172:
 719              	.LBE171:
 720              	.LBE170:
 721              	.LBE169:
 722              	.LBE168:
 723              	.LBE167:
ARM GAS  /tmp/cc5mEdkz.s 			page 14


 724              	.LBB178:
 725              	.LBB179:
 726              		.loc 5 307 0
 727 0008 4069     		ldr	r0, [r0, #20]
 728              	.LVL66:
 729              	.LBE179:
 730              	.LBE178:
 731              	.LBB180:
 732              	.LBB177:
 733              	.LBB176:
 734              	.LBB175:
 735              	.LBB174:
 736              	.LBB173:
 737              		.loc 3 548 0
 738              	@ 548 "../ChibiOS/os/ext/CMSIS/include/core_cmFunc.h" 1
 739 000a 83F31188 		MSR basepri, r3
 740              	@ 0 "" 2
 741              		.thumb
 742              	.LBE173:
 743              	.LBE174:
 744              	.LBE175:
 745              	.LBE176:
 746              	.LBE177:
 747              	.LBE180:
 748              		.loc 1 285 0
 749 000e C31A     		subs	r3, r0, r3
 750 0010 5842     		rsbs	r0, r3, #0
 751 0012 5841     		adcs	r0, r0, r3
 752 0014 7047     		bx	lr
 753              		.cfi_endproc
 754              	.LFE287:
 755              		.size	sdGetWouldBlock, .-sdGetWouldBlock
 756 0016 00BFAFF3 		.section	.rodata.vmt,"a",%progbits
 756      0080AFF3 
 756      0080
 757              		.align	2
 758              		.set	.LANCHOR0,. + 0
 759              		.type	vmt, %object
 760              		.size	vmt, 32
 761              	vmt:
 762 0000 00000000 		.word	write
 763 0004 00000000 		.word	read
 764 0008 00000000 		.word	put
 765 000c 00000000 		.word	get
 766 0010 00000000 		.word	putt
 767 0014 00000000 		.word	gett
 768 0018 00000000 		.word	writet
 769 001c 00000000 		.word	readt
 770              		.text
 771              	.Letext0:
 772              		.file 6 "/nfs/nfs5/home/research/hardware/arm2/gcc-arm-embedded/gcc-arm-none-eabi-4_8-2014q2/lib/g
 773              		.file 7 "/nfs/nfs5/home/research/hardware/arm2/gcc-arm-embedded/gcc-arm-none-eabi-4_8-2014q2/arm-n
 774              		.file 8 "/nfs/nfs5/home/research/hardware/arm2/gcc-arm-embedded/gcc-arm-none-eabi-4_8-2014q2/arm-n
 775              		.file 9 "../ChibiOS/os/rt/ports/ARMCMx/compilers/GCC/chtypes.h"
 776              		.file 10 "../ChibiOS/os/rt/include/chsystypes.h"
 777              		.file 11 "../ChibiOS/os/rt/include/chschd.h"
 778              		.file 12 "../ChibiOS/os/ext/CMSIS/ST/STM32F3xx/stm32f303xc.h"
ARM GAS  /tmp/cc5mEdkz.s 			page 15


 779              		.file 13 "../ChibiOS/os/rt/ports/ARMCMx/chcore.h"
 780              		.file 14 "../ChibiOS/os/rt/ports/ARMCMx/chcore_v7m.h"
 781              		.file 15 "../ChibiOS/os/rt/include/chtm.h"
 782              		.file 16 "../ChibiOS/os/rt/include/chsem.h"
 783              		.file 17 "../ChibiOS/os/rt/include/chmtx.h"
 784              		.file 18 "../ChibiOS/os/hal/include/serial.h"
 785              		.file 19 "../ChibiOS/os/hal/ports/STM32/LLD/USARTv2/serial_lld.h"
 786              		.file 20 "../ChibiOS/os/rt/include/chsys.h"
 787              		.file 21 "../ChibiOS/os/ext/CMSIS/include/core_cm4.h"