ARM GAS  /tmp/cci54am4.s 			page 1


   1              		.syntax unified
   2              		.cpu cortex-m4
   3              		.fpu softvfp
   4              		.eabi_attribute 20, 1
   5              		.eabi_attribute 21, 1
   6              		.eabi_attribute 23, 3
   7              		.eabi_attribute 24, 1
   8              		.eabi_attribute 25, 1
   9              		.eabi_attribute 26, 1
  10              		.eabi_attribute 30, 2
  11              		.eabi_attribute 34, 1
  12              		.eabi_attribute 18, 4
  13              		.thumb
  14              		.file	"spi_lld.c"
  15              		.text
  16              	.Ltext0:
  17              		.cfi_sections	.debug_frame
  18              		.section	.text.spi_lld_serve_tx_interrupt,"ax",%progbits
  19              		.align	2
  20              		.p2align 4,,15
  21              		.thumb
  22              		.thumb_func
  23              		.type	spi_lld_serve_tx_interrupt, %function
  24              	spi_lld_serve_tx_interrupt:
  25              	.LFB273:
  26              		.file 1 "../ChibiOS/os/hal/ports/STM32/LLD/SPIv2/spi_lld.c"
  27              		.loc 1 158 0
  28              		.cfi_startproc
  29              		@ args = 0, pretend = 0, frame = 0
  30              		@ frame_needed = 0, uses_anonymous_args = 0
  31              		@ link register save eliminated.
  32              	.LVL0:
  33              		.loc 1 163 0
  34 0000 0B07     		lsls	r3, r1, #28
  35 0002 00D4     		bmi	.L4
  36 0004 7047     		bx	lr
  37              	.L4:
  38              	.LVL1:
  39              	.LBB56:
  40              	.LBB57:
  41              		.file 2 "../ChibiOS/os/hal/osal/rt/osal.h"
  42              		.loc 2 462 0
  43 0006 0148     		ldr	r0, .L5
  44              	.LVL2:
  45 0008 FFF7FEBF 		b	chSysHalt
  46              	.LVL3:
  47              	.L6:
  48              		.align	2
  49              	.L5:
  50 000c 00000000 		.word	.LC0
  51              	.LBE57:
  52              	.LBE56:
  53              		.cfi_endproc
  54              	.LFE273:
  55              		.size	spi_lld_serve_tx_interrupt, .-spi_lld_serve_tx_interrupt
  56              		.section	.text.spi_lld_serve_rx_interrupt,"ax",%progbits
  57              		.align	2
ARM GAS  /tmp/cci54am4.s 			page 2


  58              		.p2align 4,,15
  59              		.thumb
  60              		.thumb_func
  61              		.type	spi_lld_serve_rx_interrupt, %function
  62              	spi_lld_serve_rx_interrupt:
  63              	.LFB272:
  64              		.loc 1 132 0
  65              		.cfi_startproc
  66              		@ args = 0, pretend = 0, frame = 0
  67              		@ frame_needed = 0, uses_anonymous_args = 0
  68              	.LVL4:
  69 0000 F8B5     		push	{r3, r4, r5, r6, r7, lr}
  70              		.cfi_def_cfa_offset 24
  71              		.cfi_offset 3, -24
  72              		.cfi_offset 4, -20
  73              		.cfi_offset 5, -16
  74              		.cfi_offset 6, -12
  75              		.cfi_offset 7, -8
  76              		.cfi_offset 14, -4
  77              		.loc 1 136 0
  78 0002 0B07     		lsls	r3, r1, #28
  79              		.loc 1 132 0
  80 0004 0446     		mov	r4, r0
  81              		.loc 1 136 0
  82 0006 30D4     		bmi	.L14
  83              	.LVL5:
  84              	.L8:
  85              		.loc 1 144 0
  86 0008 626A     		ldr	r2, [r4, #36]
  87              		.loc 1 145 0
  88 000a 236A     		ldr	r3, [r4, #32]
  89              		.loc 1 144 0
  90 000c 5068     		ldr	r0, [r2, #4]
  91              		.loc 1 149 0
  92 000e 6568     		ldr	r5, [r4, #4]
  93              		.loc 1 144 0
  94 0010 D0F800E0 		ldr	lr, [r0]
  95              		.loc 1 145 0
  96 0014 5968     		ldr	r1, [r3, #4]
  97              		.loc 1 144 0
  98 0016 1768     		ldr	r7, [r2]
  99              		.loc 1 145 0
 100 0018 1E68     		ldr	r6, [r3]
 101              		.loc 1 149 0
 102 001a 2D68     		ldr	r5, [r5]
 103              		.loc 1 144 0
 104 001c 2EF00F0E 		bic	lr, lr, #15
 105 0020 C0F800E0 		str	lr, [r0]
 106 0024 107C     		ldrb	r0, [r2, #16]	@ zero_extendqisi2
 107 0026 0F22     		movs	r2, #15
 108 0028 02FA00F0 		lsl	r0, r2, r0
 109 002c 7860     		str	r0, [r7, #4]
 110              		.loc 1 145 0
 111 002e 0868     		ldr	r0, [r1]
 112 0030 20F00F00 		bic	r0, r0, #15
 113 0034 0860     		str	r0, [r1]
 114 0036 1B7C     		ldrb	r3, [r3, #16]	@ zero_extendqisi2
ARM GAS  /tmp/cci54am4.s 			page 3


 115 0038 9A40     		lsls	r2, r2, r3
 116 003a 7260     		str	r2, [r6, #4]
 117              		.loc 1 149 0
 118 003c 95B1     		cbz	r5, .L9
 119              		.loc 1 149 0 is_stmt 0 discriminator 1
 120 003e 0423     		movs	r3, #4
 121 0040 2370     		strb	r3, [r4]
 122 0042 2046     		mov	r0, r4
 123 0044 A847     		blx	r5
 124              	.LVL6:
 125 0046 2378     		ldrb	r3, [r4]	@ zero_extendqisi2
 126 0048 042B     		cmp	r3, #4
 127 004a 0BD0     		beq	.L9
 128              	.L10:
 129              	.LVL7:
 130              	.LBB58:
 131              	.LBB59:
 132              	.LBB60:
 133              	.LBB61:
 134              	.LBB62:
 135              	.LBB63:
 136              		.file 3 "../ChibiOS/os/ext/CMSIS/include/core_cmFunc.h"
 137              		.loc 3 548 0 is_stmt 1 discriminator 1
 138 004c 2023     		movs	r3, #32
 139              	@ 548 "../ChibiOS/os/ext/CMSIS/include/core_cmFunc.h" 1
 140 004e 83F31188 		MSR basepri, r3
 141              	@ 0 "" 2
 142              	.LVL8:
 143              		.thumb
 144              	.LBE63:
 145              	.LBE62:
 146              	.LBE61:
 147              	.LBE60:
 148              	.LBE59:
 149              	.LBE58:
 150              	.LBB64:
 151              	.LBB65:
 152              		.loc 2 728 0 discriminator 1
 153 0052 0021     		movs	r1, #0
 154 0054 04F10800 		add	r0, r4, #8
 155              	.LVL9:
 156 0058 FFF7FEFF 		bl	chThdResumeI
 157              	.LVL10:
 158              	.LBE65:
 159              	.LBE64:
 160              	.LBB66:
 161              	.LBB67:
 162              	.LBB68:
 163              	.LBB69:
 164              	.LBB70:
 165              	.LBB71:
 166              		.loc 3 548 0 discriminator 1
 167 005c 0023     		movs	r3, #0
 168              	@ 548 "../ChibiOS/os/ext/CMSIS/include/core_cmFunc.h" 1
 169 005e 83F31188 		MSR basepri, r3
 170              	@ 0 "" 2
 171              		.thumb
ARM GAS  /tmp/cci54am4.s 			page 4


 172 0062 F8BD     		pop	{r3, r4, r5, r6, r7, pc}
 173              	.LVL11:
 174              	.L9:
 175              	.LBE71:
 176              	.LBE70:
 177              	.LBE69:
 178              	.LBE68:
 179              	.LBE67:
 180              	.LBE66:
 181              		.loc 1 149 0 discriminator 2
 182 0064 0223     		movs	r3, #2
 183 0066 2370     		strb	r3, [r4]
 184 0068 F0E7     		b	.L10
 185              	.LVL12:
 186              	.L14:
 187              	.LBB72:
 188              	.LBB73:
 189              		.loc 2 462 0
 190 006a 0248     		ldr	r0, .L15
 191              	.LVL13:
 192 006c FFF7FEFF 		bl	chSysHalt
 193              	.LVL14:
 194 0070 CAE7     		b	.L8
 195              	.L16:
 196 0072 00BF     		.align	2
 197              	.L15:
 198 0074 00000000 		.word	.LC0
 199              	.LBE73:
 200              	.LBE72:
 201              		.cfi_endproc
 202              	.LFE272:
 203              		.size	spi_lld_serve_rx_interrupt, .-spi_lld_serve_rx_interrupt
 204 0078 AFF30080 		.section	.text.spi_lld_init,"ax",%progbits
 204      AFF30080 
 205              		.align	2
 206              		.p2align 4,,15
 207              		.global	spi_lld_init
 208              		.thumb
 209              		.thumb_func
 210              		.type	spi_lld_init, %function
 211              	spi_lld_init:
 212              	.LFB274:
 213              		.loc 1 185 0
 214              		.cfi_startproc
 215              		@ args = 0, pretend = 0, frame = 0
 216              		@ frame_needed = 0, uses_anonymous_args = 0
 217 0000 10B5     		push	{r4, lr}
 218              		.cfi_def_cfa_offset 8
 219              		.cfi_offset 4, -8
 220              		.cfi_offset 14, -4
 221              		.loc 1 206 0
 222 0002 094C     		ldr	r4, .L18
 223 0004 2046     		mov	r0, r4
 224 0006 FFF7FEFF 		bl	spiObjectInit
 225              	.LVL15:
 226              		.loc 1 208 0
 227 000a 084B     		ldr	r3, .L18+4
ARM GAS  /tmp/cci54am4.s 			page 5


 228              		.loc 1 207 0
 229 000c 084A     		ldr	r2, .L18+8
 230 000e E261     		str	r2, [r4, #28]
 231              		.loc 1 209 0
 232 0010 03F11400 		add	r0, r3, #20
 233              		.loc 1 210 0
 234 0014 41F20A01 		movw	r1, #4106
 235              		.loc 1 216 0
 236 0018 41F21802 		movw	r2, #4120
 237              		.loc 1 208 0
 238 001c 2362     		str	r3, [r4, #32]
 239              		.loc 1 209 0
 240 001e 6062     		str	r0, [r4, #36]
 241              		.loc 1 210 0
 242 0020 A162     		str	r1, [r4, #40]
 243              		.loc 1 216 0
 244 0022 E262     		str	r2, [r4, #44]
 245 0024 10BD     		pop	{r4, pc}
 246              	.L19:
 247 0026 00BF     		.align	2
 248              	.L18:
 249 0028 00000000 		.word	.LANCHOR0
 250 002c 3C000000 		.word	_stm32_dma_streams+60
 251 0030 00380040 		.word	1073756160
 252              		.cfi_endproc
 253              	.LFE274:
 254              		.size	spi_lld_init, .-spi_lld_init
 255 0034 AFF30080 		.section	.text.spi_lld_start,"ax",%progbits
 255      AFF30080 
 255      AFF30080 
 256              		.align	2
 257              		.p2align 4,,15
 258              		.global	spi_lld_start
 259              		.thumb
 260              		.thumb_func
 261              		.type	spi_lld_start, %function
 262              	spi_lld_start:
 263              	.LFB275:
 264              		.loc 1 303 0
 265              		.cfi_startproc
 266              		@ args = 0, pretend = 0, frame = 0
 267              		@ frame_needed = 0, uses_anonymous_args = 0
 268              	.LVL16:
 269              		.loc 1 307 0
 270 0000 0378     		ldrb	r3, [r0]	@ zero_extendqisi2
 271 0002 012B     		cmp	r3, #1
 272              		.loc 1 303 0
 273 0004 70B5     		push	{r4, r5, r6, lr}
 274              		.cfi_def_cfa_offset 16
 275              		.cfi_offset 4, -16
 276              		.cfi_offset 5, -12
 277              		.cfi_offset 6, -8
 278              		.cfi_offset 14, -4
 279              		.loc 1 303 0
 280 0006 0446     		mov	r4, r0
 281              		.loc 1 307 0
 282 0008 28D0     		beq	.L26
ARM GAS  /tmp/cci54am4.s 			page 6


 283 000a C369     		ldr	r3, [r0, #28]
 284              	.LVL17:
 285              	.L21:
 286              		.loc 1 411 0
 287 000c 6168     		ldr	r1, [r4, #4]
 288              		.loc 1 415 0
 289 000e A56A     		ldr	r5, [r4, #40]
 290              		.loc 1 411 0
 291 0010 8A89     		ldrh	r2, [r1, #12]
 292              	.LVL18:
 293              		.loc 1 431 0
 294 0012 4989     		ldrh	r1, [r1, #10]
 295              		.loc 1 412 0
 296 0014 02F47060 		and	r0, r2, #3840
 297 0018 B0F5E06F 		cmp	r0, #1792
 298              		.loc 1 417 0
 299 001c E06A     		ldr	r0, [r4, #44]
 300 001e 20F47060 		bic	r0, r0, #3840
 301              		.loc 1 415 0
 302 0022 25F47065 		bic	r5, r5, #3840
 303              		.loc 1 425 0
 304 0026 88BF     		it	hi
 305 0028 40F4A060 		orrhi	r0, r0, #1280
 306              		.loc 1 433 0
 307 002c 42F48052 		orr	r2, r2, #4096
 308              	.LVL19:
 309              		.loc 1 431 0
 310 0030 41F00401 		orr	r1, r1, #4
 311              		.loc 1 424 0
 312 0034 E062     		str	r0, [r4, #44]
 313              		.loc 1 433 0
 314 0036 42F00702 		orr	r2, r2, #7
 315              		.loc 1 418 0
 316 003a 92BF     		itee	ls
 317 003c 0126     		movls	r6, #1
 318              		.loc 1 423 0
 319 003e 45F4A065 		orrhi	r5, r5, #1280
 320              		.loc 1 426 0
 321 0042 0226     		movhi	r6, #2
 322              		.loc 1 431 0
 323 0044 89B2     		uxth	r1, r1
 324              		.loc 1 430 0
 325 0046 0020     		movs	r0, #0
 326              		.loc 1 422 0
 327 0048 A562     		str	r5, [r4, #40]
 328              		.loc 1 426 0
 329 004a 2663     		str	r6, [r4, #48]
 330              		.loc 1 430 0
 331 004c 1860     		str	r0, [r3]
 332              		.loc 1 431 0
 333 004e 1960     		str	r1, [r3]
 334              		.loc 1 432 0
 335 0050 5A60     		str	r2, [r3, #4]
 336              		.loc 1 434 0
 337 0052 1A68     		ldr	r2, [r3]
 338 0054 42F04002 		orr	r2, r2, #64
 339 0058 1A60     		str	r2, [r3]
ARM GAS  /tmp/cci54am4.s 			page 7


 340 005a 70BD     		pop	{r4, r5, r6, pc}
 341              	.LVL20:
 342              	.L26:
 343              		.loc 1 325 0
 344 005c 0F4B     		ldr	r3, .L28
 345 005e 9842     		cmp	r0, r3
 346 0060 09D0     		beq	.L27
 347              	.LVL21:
 348              	.L22:
 349              		.loc 1 406 0
 350 0062 216A     		ldr	r1, [r4, #32]
 351              		.loc 1 407 0
 352 0064 626A     		ldr	r2, [r4, #36]
 353              		.loc 1 406 0
 354 0066 E369     		ldr	r3, [r4, #28]
 355 0068 4868     		ldr	r0, [r1, #4]
 356              		.loc 1 407 0
 357 006a 5168     		ldr	r1, [r2, #4]
 358              		.loc 1 406 0
 359 006c 03F10C02 		add	r2, r3, #12
 360 0070 8260     		str	r2, [r0, #8]
 361              		.loc 1 407 0
 362 0072 8A60     		str	r2, [r1, #8]
 363 0074 CAE7     		b	.L21
 364              	.LVL22:
 365              	.L27:
 366              	.LBB74:
 367              		.loc 1 327 0
 368 0076 0A4A     		ldr	r2, .L28+4
 369 0078 006A     		ldr	r0, [r0, #32]
 370              	.LVL23:
 371 007a 0A21     		movs	r1, #10
 372 007c 2346     		mov	r3, r4
 373 007e FFF7FEFF 		bl	dmaStreamAllocate
 374              	.LVL24:
 375              		.loc 1 332 0
 376 0082 084A     		ldr	r2, .L28+8
 377 0084 606A     		ldr	r0, [r4, #36]
 378 0086 2346     		mov	r3, r4
 379 0088 0A21     		movs	r1, #10
 380 008a FFF7FEFF 		bl	dmaStreamAllocate
 381              	.LVL25:
 382              		.loc 1 337 0
 383 008e 064B     		ldr	r3, .L28+12
 384 0090 DA69     		ldr	r2, [r3, #28]
 385 0092 42F48042 		orr	r2, r2, #16384
 386 0096 DA61     		str	r2, [r3, #28]
 387 0098 E3E7     		b	.L22
 388              	.L29:
 389 009a 00BF     		.align	2
 390              	.L28:
 391 009c 00000000 		.word	.LANCHOR0
 392 00a0 00000000 		.word	spi_lld_serve_rx_interrupt
 393 00a4 00000000 		.word	spi_lld_serve_tx_interrupt
 394 00a8 00100240 		.word	1073876992
 395              	.LBE74:
 396              		.cfi_endproc
ARM GAS  /tmp/cci54am4.s 			page 8


 397              	.LFE275:
 398              		.size	spi_lld_start, .-spi_lld_start
 399 00ac AFF30080 		.section	.text.spi_lld_stop,"ax",%progbits
 400              		.align	2
 401              		.p2align 4,,15
 402              		.global	spi_lld_stop
 403              		.thumb
 404              		.thumb_func
 405              		.type	spi_lld_stop, %function
 406              	spi_lld_stop:
 407              	.LFB276:
 408              		.loc 1 444 0
 409              		.cfi_startproc
 410              		@ args = 0, pretend = 0, frame = 0
 411              		@ frame_needed = 0, uses_anonymous_args = 0
 412              	.LVL26:
 413              		.loc 1 447 0
 414 0000 0378     		ldrb	r3, [r0]	@ zero_extendqisi2
 415 0002 022B     		cmp	r3, #2
 416              		.loc 1 444 0
 417 0004 10B5     		push	{r4, lr}
 418              		.cfi_def_cfa_offset 8
 419              		.cfi_offset 4, -8
 420              		.cfi_offset 14, -4
 421              		.loc 1 444 0
 422 0006 0446     		mov	r4, r0
 423              		.loc 1 447 0
 424 0008 00D0     		beq	.L34
 425              	.LVL27:
 426              	.L30:
 427 000a 10BD     		pop	{r4, pc}
 428              	.LVL28:
 429              	.L34:
 430              		.loc 1 450 0
 431 000c C369     		ldr	r3, [r0, #28]
 432              		.loc 1 452 0
 433 000e 006A     		ldr	r0, [r0, #32]
 434              	.LVL29:
 435              		.loc 1 450 0
 436 0010 0022     		movs	r2, #0
 437 0012 1A60     		str	r2, [r3]
 438              		.loc 1 451 0
 439 0014 5A60     		str	r2, [r3, #4]
 440              		.loc 1 452 0
 441 0016 FFF7FEFF 		bl	dmaStreamRelease
 442              	.LVL30:
 443              		.loc 1 453 0
 444 001a 606A     		ldr	r0, [r4, #36]
 445 001c FFF7FEFF 		bl	dmaStreamRelease
 446              	.LVL31:
 447              		.loc 1 460 0
 448 0020 044B     		ldr	r3, .L35
 449 0022 9C42     		cmp	r4, r3
 450 0024 F1D1     		bne	.L30
 451              		.loc 1 461 0
 452 0026 044B     		ldr	r3, .L35+4
 453 0028 DA69     		ldr	r2, [r3, #28]
ARM GAS  /tmp/cci54am4.s 			page 9


 454 002a 22F48042 		bic	r2, r2, #16384
 455 002e DA61     		str	r2, [r3, #28]
 456 0030 EBE7     		b	.L30
 457              	.L36:
 458 0032 00BF     		.align	2
 459              	.L35:
 460 0034 00000000 		.word	.LANCHOR0
 461 0038 00100240 		.word	1073876992
 462              		.cfi_endproc
 463              	.LFE276:
 464              		.size	spi_lld_stop, .-spi_lld_stop
 465 003c AFF30080 		.section	.text.spi_lld_select,"ax",%progbits
 466              		.align	2
 467              		.p2align 4,,15
 468              		.global	spi_lld_select
 469              		.thumb
 470              		.thumb_func
 471              		.type	spi_lld_select, %function
 472              	spi_lld_select:
 473              	.LFB277:
 474              		.loc 1 489 0
 475              		.cfi_startproc
 476              		@ args = 0, pretend = 0, frame = 0
 477              		@ frame_needed = 0, uses_anonymous_args = 0
 478              		@ link register save eliminated.
 479              	.LVL32:
 480              		.loc 1 491 0
 481 0000 4368     		ldr	r3, [r0, #4]
 482 0002 1A89     		ldrh	r2, [r3, #8]
 483 0004 5B68     		ldr	r3, [r3, #4]
 484 0006 0121     		movs	r1, #1
 485 0008 01FA02F2 		lsl	r2, r1, r2
 486 000c 92B2     		uxth	r2, r2
 487 000e 5A83     		strh	r2, [r3, #26]	@ movhi
 488 0010 7047     		bx	lr
 489              		.cfi_endproc
 490              	.LFE277:
 491              		.size	spi_lld_select, .-spi_lld_select
 492 0012 00BFAFF3 		.section	.text.spi_lld_unselect,"ax",%progbits
 492      0080AFF3 
 492      0080AFF3 
 492      0080
 493              		.align	2
 494              		.p2align 4,,15
 495              		.global	spi_lld_unselect
 496              		.thumb
 497              		.thumb_func
 498              		.type	spi_lld_unselect, %function
 499              	spi_lld_unselect:
 500              	.LFB278:
 501              		.loc 1 502 0
 502              		.cfi_startproc
 503              		@ args = 0, pretend = 0, frame = 0
 504              		@ frame_needed = 0, uses_anonymous_args = 0
 505              		@ link register save eliminated.
 506              	.LVL33:
 507              		.loc 1 504 0
ARM GAS  /tmp/cci54am4.s 			page 10


 508 0000 4368     		ldr	r3, [r0, #4]
 509 0002 1A89     		ldrh	r2, [r3, #8]
 510 0004 5B68     		ldr	r3, [r3, #4]
 511 0006 0121     		movs	r1, #1
 512 0008 01FA02F2 		lsl	r2, r1, r2
 513 000c 92B2     		uxth	r2, r2
 514 000e 1A83     		strh	r2, [r3, #24]	@ movhi
 515 0010 7047     		bx	lr
 516              		.cfi_endproc
 517              	.LFE278:
 518              		.size	spi_lld_unselect, .-spi_lld_unselect
 519 0012 00BFAFF3 		.section	.text.spi_lld_ignore,"ax",%progbits
 519      0080AFF3 
 519      0080AFF3 
 519      0080
 520              		.align	2
 521              		.p2align 4,,15
 522              		.global	spi_lld_ignore
 523              		.thumb
 524              		.thumb_func
 525              		.type	spi_lld_ignore, %function
 526              	spi_lld_ignore:
 527              	.LFB279:
 528              		.loc 1 518 0
 529              		.cfi_startproc
 530              		@ args = 0, pretend = 0, frame = 0
 531              		@ frame_needed = 0, uses_anonymous_args = 0
 532              		@ link register save eliminated.
 533              	.LVL34:
 534              		.loc 1 520 0
 535 0000 026A     		ldr	r2, [r0, #32]
 536              		.loc 1 524 0
 537 0002 436A     		ldr	r3, [r0, #36]
 538              		.loc 1 520 0
 539 0004 5268     		ldr	r2, [r2, #4]
 540              		.loc 1 524 0
 541 0006 5B68     		ldr	r3, [r3, #4]
 542              		.loc 1 518 0
 543 0008 70B4     		push	{r4, r5, r6}
 544              		.cfi_def_cfa_offset 12
 545              		.cfi_offset 4, -12
 546              		.cfi_offset 5, -8
 547              		.cfi_offset 6, -4
 548              		.loc 1 522 0
 549 000a 856A     		ldr	r5, [r0, #40]
 550              		.loc 1 520 0
 551 000c 094E     		ldr	r6, .L40
 552              		.loc 1 526 0
 553 000e C06A     		ldr	r0, [r0, #44]
 554              	.LVL35:
 555              		.loc 1 524 0
 556 0010 094C     		ldr	r4, .L40+4
 557              		.loc 1 520 0
 558 0012 D660     		str	r6, [r2, #12]
 559              		.loc 1 521 0
 560 0014 5160     		str	r1, [r2, #4]
 561              		.loc 1 522 0
ARM GAS  /tmp/cci54am4.s 			page 11


 562 0016 1560     		str	r5, [r2]
 563              		.loc 1 524 0
 564 0018 DC60     		str	r4, [r3, #12]
 565              		.loc 1 525 0
 566 001a 5960     		str	r1, [r3, #4]
 567              		.loc 1 526 0
 568 001c 1860     		str	r0, [r3]
 569              		.loc 1 528 0
 570 001e 1168     		ldr	r1, [r2]
 571              	.LVL36:
 572 0020 41F00101 		orr	r1, r1, #1
 573 0024 1160     		str	r1, [r2]
 574              		.loc 1 529 0
 575 0026 1A68     		ldr	r2, [r3]
 576 0028 42F00102 		orr	r2, r2, #1
 577 002c 1A60     		str	r2, [r3]
 578              		.loc 1 530 0
 579 002e 70BC     		pop	{r4, r5, r6}
 580 0030 7047     		bx	lr
 581              	.L41:
 582 0032 00BF     		.align	2
 583              	.L40:
 584 0034 00000000 		.word	.LANCHOR1
 585 0038 00000000 		.word	.LANCHOR2
 586              		.cfi_endproc
 587              	.LFE279:
 588              		.size	spi_lld_ignore, .-spi_lld_ignore
 589 003c AFF30080 		.section	.text.spi_lld_exchange,"ax",%progbits
 590              		.align	2
 591              		.p2align 4,,15
 592              		.global	spi_lld_exchange
 593              		.thumb
 594              		.thumb_func
 595              		.type	spi_lld_exchange, %function
 596              	spi_lld_exchange:
 597              	.LFB280:
 598              		.loc 1 548 0
 599              		.cfi_startproc
 600              		@ args = 0, pretend = 0, frame = 0
 601              		@ frame_needed = 0, uses_anonymous_args = 0
 602              		@ link register save eliminated.
 603              	.LVL37:
 604 0000 F0B4     		push	{r4, r5, r6, r7}
 605              		.cfi_def_cfa_offset 16
 606              		.cfi_offset 4, -16
 607              		.cfi_offset 5, -12
 608              		.cfi_offset 6, -8
 609              		.cfi_offset 7, -4
 610              		.loc 1 550 0
 611 0002 046A     		ldr	r4, [r0, #32]
 612              		.loc 1 554 0
 613 0004 476A     		ldr	r7, [r0, #36]
 614              		.loc 1 552 0
 615 0006 866A     		ldr	r6, [r0, #40]
 616              		.loc 1 556 0
 617 0008 C56A     		ldr	r5, [r0, #44]
 618              		.loc 1 550 0
ARM GAS  /tmp/cci54am4.s 			page 12


 619 000a 6468     		ldr	r4, [r4, #4]
 620              		.loc 1 554 0
 621 000c 7868     		ldr	r0, [r7, #4]
 622              	.LVL38:
 623              		.loc 1 550 0
 624 000e E360     		str	r3, [r4, #12]
 625              		.loc 1 552 0
 626 0010 46F08006 		orr	r6, r6, #128
 627              		.loc 1 556 0
 628 0014 45F08005 		orr	r5, r5, #128
 629              		.loc 1 551 0
 630 0018 6160     		str	r1, [r4, #4]
 631              		.loc 1 552 0
 632 001a 2660     		str	r6, [r4]
 633              		.loc 1 554 0
 634 001c C260     		str	r2, [r0, #12]
 635              		.loc 1 555 0
 636 001e 4160     		str	r1, [r0, #4]
 637              		.loc 1 556 0
 638 0020 0560     		str	r5, [r0]
 639              		.loc 1 558 0
 640 0022 2368     		ldr	r3, [r4]
 641              	.LVL39:
 642 0024 43F00103 		orr	r3, r3, #1
 643 0028 2360     		str	r3, [r4]
 644              		.loc 1 559 0
 645 002a 0368     		ldr	r3, [r0]
 646 002c 43F00103 		orr	r3, r3, #1
 647 0030 0360     		str	r3, [r0]
 648              		.loc 1 560 0
 649 0032 F0BC     		pop	{r4, r5, r6, r7}
 650 0034 7047     		bx	lr
 651              		.cfi_endproc
 652              	.LFE280:
 653              		.size	spi_lld_exchange, .-spi_lld_exchange
 654 0036 00BFAFF3 		.section	.text.spi_lld_send,"ax",%progbits
 654      0080AFF3 
 654      0080
 655              		.align	2
 656              		.p2align 4,,15
 657              		.global	spi_lld_send
 658              		.thumb
 659              		.thumb_func
 660              		.type	spi_lld_send, %function
 661              	spi_lld_send:
 662              	.LFB281:
 663              		.loc 1 575 0
 664              		.cfi_startproc
 665              		@ args = 0, pretend = 0, frame = 0
 666              		@ frame_needed = 0, uses_anonymous_args = 0
 667              		@ link register save eliminated.
 668              	.LVL40:
 669 0000 70B4     		push	{r4, r5, r6}
 670              		.cfi_def_cfa_offset 12
 671              		.cfi_offset 4, -12
 672              		.cfi_offset 5, -8
 673              		.cfi_offset 6, -4
ARM GAS  /tmp/cci54am4.s 			page 13


 674              		.loc 1 581 0
 675 0002 436A     		ldr	r3, [r0, #36]
 676              		.loc 1 577 0
 677 0004 046A     		ldr	r4, [r0, #32]
 678              		.loc 1 583 0
 679 0006 C56A     		ldr	r5, [r0, #44]
 680              		.loc 1 577 0
 681 0008 6468     		ldr	r4, [r4, #4]
 682              		.loc 1 581 0
 683 000a 5B68     		ldr	r3, [r3, #4]
 684              		.loc 1 579 0
 685 000c 806A     		ldr	r0, [r0, #40]
 686              	.LVL41:
 687              		.loc 1 577 0
 688 000e 094E     		ldr	r6, .L44
 689 0010 E660     		str	r6, [r4, #12]
 690              		.loc 1 583 0
 691 0012 45F08005 		orr	r5, r5, #128
 692              		.loc 1 578 0
 693 0016 6160     		str	r1, [r4, #4]
 694              		.loc 1 579 0
 695 0018 2060     		str	r0, [r4]
 696              		.loc 1 581 0
 697 001a DA60     		str	r2, [r3, #12]
 698              		.loc 1 582 0
 699 001c 5960     		str	r1, [r3, #4]
 700              		.loc 1 583 0
 701 001e 1D60     		str	r5, [r3]
 702              		.loc 1 585 0
 703 0020 2268     		ldr	r2, [r4]
 704              	.LVL42:
 705 0022 42F00102 		orr	r2, r2, #1
 706 0026 2260     		str	r2, [r4]
 707              		.loc 1 586 0
 708 0028 1A68     		ldr	r2, [r3]
 709 002a 42F00102 		orr	r2, r2, #1
 710 002e 1A60     		str	r2, [r3]
 711              		.loc 1 587 0
 712 0030 70BC     		pop	{r4, r5, r6}
 713 0032 7047     		bx	lr
 714              	.L45:
 715              		.align	2
 716              	.L44:
 717 0034 00000000 		.word	.LANCHOR1
 718              		.cfi_endproc
 719              	.LFE281:
 720              		.size	spi_lld_send, .-spi_lld_send
 721 0038 AFF30080 		.section	.text.spi_lld_receive,"ax",%progbits
 721      AFF30080 
 722              		.align	2
 723              		.p2align 4,,15
 724              		.global	spi_lld_receive
 725              		.thumb
 726              		.thumb_func
 727              		.type	spi_lld_receive, %function
 728              	spi_lld_receive:
 729              	.LFB282:
ARM GAS  /tmp/cci54am4.s 			page 14


 730              		.loc 1 602 0
 731              		.cfi_startproc
 732              		@ args = 0, pretend = 0, frame = 0
 733              		@ frame_needed = 0, uses_anonymous_args = 0
 734              		@ link register save eliminated.
 735              	.LVL43:
 736 0000 70B4     		push	{r4, r5, r6}
 737              		.cfi_def_cfa_offset 12
 738              		.cfi_offset 4, -12
 739              		.cfi_offset 5, -8
 740              		.cfi_offset 6, -4
 741              		.loc 1 608 0
 742 0002 436A     		ldr	r3, [r0, #36]
 743              		.loc 1 604 0
 744 0004 046A     		ldr	r4, [r0, #32]
 745              		.loc 1 606 0
 746 0006 866A     		ldr	r6, [r0, #40]
 747              		.loc 1 604 0
 748 0008 6468     		ldr	r4, [r4, #4]
 749              		.loc 1 608 0
 750 000a 5B68     		ldr	r3, [r3, #4]
 751              		.loc 1 610 0
 752 000c C06A     		ldr	r0, [r0, #44]
 753              	.LVL44:
 754              		.loc 1 608 0
 755 000e 094D     		ldr	r5, .L47
 756              		.loc 1 604 0
 757 0010 E260     		str	r2, [r4, #12]
 758              		.loc 1 606 0
 759 0012 46F08006 		orr	r6, r6, #128
 760              		.loc 1 605 0
 761 0016 6160     		str	r1, [r4, #4]
 762              		.loc 1 606 0
 763 0018 2660     		str	r6, [r4]
 764              		.loc 1 608 0
 765 001a DD60     		str	r5, [r3, #12]
 766              		.loc 1 609 0
 767 001c 5960     		str	r1, [r3, #4]
 768              		.loc 1 610 0
 769 001e 1860     		str	r0, [r3]
 770              		.loc 1 612 0
 771 0020 2268     		ldr	r2, [r4]
 772              	.LVL45:
 773 0022 42F00102 		orr	r2, r2, #1
 774 0026 2260     		str	r2, [r4]
 775              		.loc 1 613 0
 776 0028 1A68     		ldr	r2, [r3]
 777 002a 42F00102 		orr	r2, r2, #1
 778 002e 1A60     		str	r2, [r3]
 779              		.loc 1 614 0
 780 0030 70BC     		pop	{r4, r5, r6}
 781 0032 7047     		bx	lr
 782              	.L48:
 783              		.align	2
 784              	.L47:
 785 0034 00000000 		.word	.LANCHOR2
 786              		.cfi_endproc
ARM GAS  /tmp/cci54am4.s 			page 15


 787              	.LFE282:
 788              		.size	spi_lld_receive, .-spi_lld_receive
 789 0038 AFF30080 		.section	.text.spi_lld_polled_exchange,"ax",%progbits
 789      AFF30080 
 790              		.align	2
 791              		.p2align 4,,15
 792              		.global	spi_lld_polled_exchange
 793              		.thumb
 794              		.thumb_func
 795              		.type	spi_lld_polled_exchange, %function
 796              	spi_lld_polled_exchange:
 797              	.LFB283:
 798              		.loc 1 628 0
 799              		.cfi_startproc
 800              		@ args = 0, pretend = 0, frame = 0
 801              		@ frame_needed = 0, uses_anonymous_args = 0
 802              		@ link register save eliminated.
 803              	.LVL46:
 804              		.loc 1 635 0
 805 0000 4368     		ldr	r3, [r0, #4]
 806 0002 9B89     		ldrh	r3, [r3, #12]
 807 0004 03F47063 		and	r3, r3, #3840
 808 0008 B3F5E06F 		cmp	r3, #1792
 809              		.loc 1 628 0
 810 000c 10B4     		push	{r4}
 811              		.cfi_def_cfa_offset 4
 812              		.cfi_offset 4, -4
 813              		.loc 1 635 0
 814 000e 0BD8     		bhi	.L50
 815              	.LBB75:
 816              		.loc 1 638 0
 817 0010 C469     		ldr	r4, [r0, #28]
 818              	.LVL47:
 819              		.loc 1 639 0
 820 0012 C9B2     		uxtb	r1, r1
 821              	.LVL48:
 822 0014 2173     		strb	r1, [r4, #12]
 823 0016 C269     		ldr	r2, [r0, #28]
 824              	.L52:
 825              		.loc 1 640 0 discriminator 1
 826 0018 9368     		ldr	r3, [r2, #8]
 827 001a D907     		lsls	r1, r3, #31
 828 001c FCD5     		bpl	.L52
 829              		.loc 1 642 0
 830 001e 207B     		ldrb	r0, [r4, #12]	@ zero_extendqisi2
 831              	.LVL49:
 832              	.LBE75:
 833              		.loc 1 650 0
 834 0020 5DF8044B 		ldr	r4, [sp], #4
 835              	.LVL50:
 836              	.LBB76:
 837              		.loc 1 642 0
 838 0024 C0B2     		uxtb	r0, r0
 839              	.LBE76:
 840              		.loc 1 650 0
 841 0026 7047     		bx	lr
 842              	.LVL51:
ARM GAS  /tmp/cci54am4.s 			page 16


 843              	.L50:
 844              		.loc 1 645 0
 845 0028 C269     		ldr	r2, [r0, #28]
 846 002a D160     		str	r1, [r2, #12]
 847              	.L55:
 848              		.loc 1 646 0 discriminator 1
 849 002c 9368     		ldr	r3, [r2, #8]
 850 002e DB07     		lsls	r3, r3, #31
 851 0030 FCD5     		bpl	.L55
 852              		.loc 1 648 0
 853 0032 D068     		ldr	r0, [r2, #12]
 854              	.LVL52:
 855              		.loc 1 650 0
 856 0034 5DF8044B 		ldr	r4, [sp], #4
 857              		.loc 1 648 0
 858 0038 80B2     		uxth	r0, r0
 859              		.loc 1 650 0
 860 003a 7047     		bx	lr
 861              		.cfi_endproc
 862              	.LFE283:
 863              		.size	spi_lld_polled_exchange, .-spi_lld_polled_exchange
 864              		.global	SPID2
 865 003c AFF30080 		.section	.bss.SPID2,"aw",%nobits
 866              		.align	2
 867              		.set	.LANCHOR0,. + 0
 868              		.type	SPID2, %object
 869              		.size	SPID2, 52
 870              	SPID2:
 871 0000 00000000 		.space	52
 871      00000000 
 871      00000000 
 871      00000000 
 871      00000000 
 872              		.section	.rodata.dummytx,"a",%progbits
 873              		.align	1
 874              		.set	.LANCHOR2,. + 0
 875              		.type	dummytx, %object
 876              		.size	dummytx, 2
 877              	dummytx:
 878 0000 FFFF     		.short	-1
 879              		.section	.rodata.str1.4,"aMS",%progbits,1
 880              		.align	2
 881              	.LC0:
 882 0000 444D4120 		.ascii	"DMA failure\000"
 882      6661696C 
 882      75726500 
 883              		.section	.bss.dummyrx,"aw",%nobits
 884              		.align	1
 885              		.set	.LANCHOR1,. + 0
 886              		.type	dummyrx, %object
 887              		.size	dummyrx, 2
 888              	dummyrx:
 889 0000 0000     		.space	2
 890              		.text
 891              	.Letext0:
 892              		.file 4 "/nfs/nfs5/home/research/hardware/arm2/gcc-arm-embedded/gcc-arm-none-eabi-4_8-2014q2/lib/g
 893              		.file 5 "/nfs/nfs5/home/research/hardware/arm2/gcc-arm-embedded/gcc-arm-none-eabi-4_8-2014q2/arm-n
ARM GAS  /tmp/cci54am4.s 			page 17


 894              		.file 6 "/nfs/nfs5/home/research/hardware/arm2/gcc-arm-embedded/gcc-arm-none-eabi-4_8-2014q2/arm-n
 895              		.file 7 "../ChibiOS/os/rt/ports/ARMCMx/compilers/GCC/chtypes.h"
 896              		.file 8 "../ChibiOS/os/rt/include/chsystypes.h"
 897              		.file 9 "../ChibiOS/os/rt/include/chschd.h"
 898              		.file 10 "../ChibiOS/os/ext/CMSIS/ST/STM32F3xx/stm32f303xc.h"
 899              		.file 11 "../ChibiOS/os/rt/ports/ARMCMx/chcore.h"
 900              		.file 12 "../ChibiOS/os/rt/ports/ARMCMx/chcore_v7m.h"
 901              		.file 13 "../ChibiOS/os/rt/include/chtm.h"
 902              		.file 14 "../ChibiOS/os/rt/include/chsem.h"
 903              		.file 15 "../ChibiOS/os/rt/include/chmtx.h"
 904              		.file 16 "../ChibiOS/os/hal/ports/STM32/LLD/DMAv1/stm32_dma.h"
 905              		.file 17 "../ChibiOS/os/hal/ports/STM32/LLD/GPIOv2/pal_lld.h"
 906              		.file 18 "../ChibiOS/os/hal/include/spi.h"
 907              		.file 19 "../ChibiOS/os/hal/ports/STM32/LLD/SPIv2/spi_lld.h"
 908              		.file 20 "../ChibiOS/os/rt/include/chsys.h"
 909              		.file 21 "../ChibiOS/os/ext/CMSIS/include/core_cm4.h"
 910              		.file 22 "../ChibiOS/os/rt/include/chthreads.h"