ARM GAS  /tmp/cckfHlI5.s 			page 1


   1              		.syntax unified
   2              		.cpu cortex-m4
   3              		.fpu softvfp
   4              		.eabi_attribute 20, 1
   5              		.eabi_attribute 21, 1
   6              		.eabi_attribute 23, 3
   7              		.eabi_attribute 24, 1
   8              		.eabi_attribute 25, 1
   9              		.eabi_attribute 26, 1
  10              		.eabi_attribute 30, 2
  11              		.eabi_attribute 34, 1
  12              		.eabi_attribute 18, 4
  13              		.thumb
  14              		.file	"st_lld.c"
  15              		.text
  16              	.Ltext0:
  17              		.cfi_sections	.debug_frame
  18              		.section	.text.VectorB0,"ax",%progbits
  19              		.align	2
  20              		.p2align 4,,15
  21              		.global	VectorB0
  22              		.thumb
  23              		.thumb_func
  24              		.type	VectorB0, %function
  25              	VectorB0:
  26              	.LFB272:
  27              		.file 1 "../ChibiOS/os/hal/ports/STM32/LLD/TIMv1/st_lld.c"
  28              		.loc 1 239 0
  29              		.cfi_startproc
  30              		@ args = 0, pretend = 0, frame = 0
  31              		@ frame_needed = 0, uses_anonymous_args = 0
  32              		.loc 1 246 0
  33 0000 4FF08043 		mov	r3, #1073741824
  34              		.loc 1 239 0
  35 0004 10B5     		push	{r4, lr}
  36              		.cfi_def_cfa_offset 8
  37              		.cfi_offset 4, -8
  38              		.cfi_offset 14, -4
  39              		.loc 1 246 0
  40 0006 1A69     		ldr	r2, [r3, #16]
  41 0008 9207     		lsls	r2, r2, #30
  42 000a 08D5     		bpl	.L2
  43              		.loc 1 247 0
  44 000c 0024     		movs	r4, #0
  45 000e 1C61     		str	r4, [r3, #16]
  46              	.LVL0:
  47              	.LBB52:
  48              	.LBB53:
  49              	.LBB54:
  50              	.LBB55:
  51              	.LBB56:
  52              	.LBB57:
  53              		.file 2 "../ChibiOS/os/ext/CMSIS/include/core_cmFunc.h"
  54              		.loc 2 548 0
  55 0010 2023     		movs	r3, #32
  56              	@ 548 "../ChibiOS/os/ext/CMSIS/include/core_cmFunc.h" 1
  57 0012 83F31188 		MSR basepri, r3
ARM GAS  /tmp/cckfHlI5.s 			page 2


  58              	@ 0 "" 2
  59              		.thumb
  60              	.LBE57:
  61              	.LBE56:
  62              	.LBE55:
  63              	.LBE54:
  64              	.LBE53:
  65              	.LBE52:
  66              	.LBB58:
  67              	.LBB59:
  68              		.file 3 "../ChibiOS/os/hal/osal/rt/osal.h"
  69              		.loc 3 585 0
  70 0016 FFF7FEFF 		bl	chSysTimerHandlerI
  71              	.LVL1:
  72              	.LBE59:
  73              	.LBE58:
  74              	.LBB60:
  75              	.LBB61:
  76              	.LBB62:
  77              	.LBB63:
  78              	.LBB64:
  79              	.LBB65:
  80              		.loc 2 548 0
  81              	@ 548 "../ChibiOS/os/ext/CMSIS/include/core_cmFunc.h" 1
  82 001a 84F31188 		MSR basepri, r4
  83              	@ 0 "" 2
  84              	.LVL2:
  85              		.thumb
  86              	.L2:
  87              	.LBE65:
  88              	.LBE64:
  89              	.LBE63:
  90              	.LBE62:
  91              	.LBE61:
  92              	.LBE60:
  93              		.loc 1 255 0
  94 001e BDE81040 		pop	{r4, lr}
  95              		.loc 1 254 0
  96 0022 FFF7FEBF 		b	_port_irq_epilogue
  97              	.LVL3:
  98              		.cfi_endproc
  99              	.LFE272:
 100              		.size	VectorB0, .-VectorB0
 101 0026 00BFAFF3 		.section	.text.st_lld_init,"ax",%progbits
 101      0080AFF3 
 101      0080
 102              		.align	2
 103              		.p2align 4,,15
 104              		.global	st_lld_init
 105              		.thumb
 106              		.thumb_func
 107              		.type	st_lld_init, %function
 108              	st_lld_init:
 109              	.LFB273:
 110              		.loc 1 267 0
 111              		.cfi_startproc
 112              		@ args = 0, pretend = 0, frame = 0
ARM GAS  /tmp/cckfHlI5.s 			page 3


 113              		@ frame_needed = 0, uses_anonymous_args = 0
 114              		@ link register save eliminated.
 115              		.loc 1 273 0
 116 0000 0F4B     		ldr	r3, .L8
 117              		.loc 1 276 0
 118 0002 1049     		ldr	r1, .L8+4
 119              		.loc 1 273 0
 120 0004 DA69     		ldr	r2, [r3, #28]
 121              		.loc 1 267 0
 122 0006 70B4     		push	{r4, r5, r6}
 123              		.cfi_def_cfa_offset 12
 124              		.cfi_offset 4, -12
 125              		.cfi_offset 5, -8
 126              		.cfi_offset 6, -4
 127              		.loc 1 273 0
 128 0008 42F00102 		orr	r2, r2, #1
 129 000c DA61     		str	r2, [r3, #28]
 130              		.loc 1 276 0
 131 000e 8868     		ldr	r0, [r1, #8]
 132              		.loc 1 279 0
 133 0010 4FF08043 		mov	r3, #1073741824
 134              		.loc 1 281 0
 135 0014 0022     		movs	r2, #0
 136              		.loc 1 285 0
 137 0016 0124     		movs	r4, #1
 138              		.loc 1 276 0
 139 0018 40F00100 		orr	r0, r0, #1
 140              		.loc 1 279 0
 141 001c 41F61F46 		movw	r6, #7199
 142              		.loc 1 280 0
 143 0020 4FF0FF35 		mov	r5, #-1
 144              		.loc 1 276 0
 145 0024 8860     		str	r0, [r1, #8]
 146              		.loc 1 279 0
 147 0026 9E62     		str	r6, [r3, #40]
 148              		.loc 1 289 0
 149 0028 1C20     		movs	r0, #28
 150              		.loc 1 280 0
 151 002a DD62     		str	r5, [r3, #44]
 152              		.loc 1 289 0
 153 002c 0821     		movs	r1, #8
 154              		.loc 1 281 0
 155 002e 9A61     		str	r2, [r3, #24]
 156              		.loc 1 282 0
 157 0030 5A63     		str	r2, [r3, #52]
 158              		.loc 1 283 0
 159 0032 DA60     		str	r2, [r3, #12]
 160              		.loc 1 284 0
 161 0034 5A60     		str	r2, [r3, #4]
 162              		.loc 1 285 0
 163 0036 5C61     		str	r4, [r3, #20]
 164              		.loc 1 286 0
 165 0038 1C60     		str	r4, [r3]
 166              		.loc 1 304 0
 167 003a 70BC     		pop	{r4, r5, r6}
 168              		.loc 1 289 0
 169 003c FFF7FEBF 		b	nvicEnableVector
ARM GAS  /tmp/cckfHlI5.s 			page 4


 170              	.LVL4:
 171              	.L9:
 172              		.align	2
 173              	.L8:
 174 0040 00100240 		.word	1073876992
 175 0044 002004E0 		.word	-536600576
 176              		.cfi_endproc
 177              	.LFE273:
 178              		.size	st_lld_init, .-st_lld_init
 179 0048 AFF30080 		.text
 179      AFF30080 
 180              	.Letext0:
 181              		.file 4 "/nfs/nfs5/home/research/hardware/arm2/gcc-arm-embedded/gcc-arm-none-eabi-4_8-2014q2/arm-n
 182              		.file 5 "/nfs/nfs5/home/research/hardware/arm2/gcc-arm-embedded/gcc-arm-none-eabi-4_8-2014q2/arm-n
 183              		.file 6 "../ChibiOS/os/rt/ports/ARMCMx/compilers/GCC/chtypes.h"
 184              		.file 7 "../ChibiOS/os/rt/include/chsystypes.h"
 185              		.file 8 "../ChibiOS/os/rt/include/chschd.h"
 186              		.file 9 "../ChibiOS/os/ext/CMSIS/ST/STM32F3xx/stm32f303xc.h"
 187              		.file 10 "../ChibiOS/os/rt/ports/ARMCMx/chcore.h"
 188              		.file 11 "../ChibiOS/os/rt/ports/ARMCMx/chcore_v7m.h"
 189              		.file 12 "../ChibiOS/os/hal/ports/STM32/LLD/TIMv1/stm32_tim.h"
 190              		.file 13 "../ChibiOS/os/rt/include/chtm.h"
 191              		.file 14 "../ChibiOS/os/rt/include/chsem.h"
 192              		.file 15 "../ChibiOS/os/rt/include/chmtx.h"
 193              		.file 16 "../ChibiOS/os/rt/include/chsys.h"
 194              		.file 17 "../ChibiOS/os/ext/CMSIS/include/core_cm4.h"
 195              		.file 18 "../ChibiOS/os/hal/ports/common/ARMCMx/nvic.h"