ARM GAS  /tmp/ccaEJKiH.s 			page 1


   1              		.syntax unified
   2              		.cpu cortex-m4
   3              		.fpu softvfp
   4              		.eabi_attribute 20, 1
   5              		.eabi_attribute 21, 1
   6              		.eabi_attribute 23, 3
   7              		.eabi_attribute 24, 1
   8              		.eabi_attribute 25, 1
   9              		.eabi_attribute 26, 1
  10              		.eabi_attribute 30, 2
  11              		.eabi_attribute 34, 1
  12              		.eabi_attribute 18, 4
  13              		.thumb
  14              		.file	"stm32_dma.c"
  15              		.text
  16              	.Ltext0:
  17              		.cfi_sections	.debug_frame
  18              		.section	.text.Vector6C,"ax",%progbits
  19              		.align	2
  20              		.p2align 4,,15
  21              		.global	Vector6C
  22              		.thumb
  23              		.thumb_func
  24              		.type	Vector6C, %function
  25              	Vector6C:
  26              	.LFB272:
  27              		.file 1 "../ChibiOS/os/hal/ports/STM32/LLD/DMAv1/stm32_dma.c"
  28              		.loc 1 204 0
  29              		.cfi_startproc
  30              		@ args = 0, pretend = 0, frame = 0
  31              		@ frame_needed = 0, uses_anonymous_args = 0
  32              	.LVL0:
  33 0000 08B5     		push	{r3, lr}
  34              		.cfi_def_cfa_offset 8
  35              		.cfi_offset 3, -8
  36              		.cfi_offset 14, -4
  37              	.LBB2:
  38              		.loc 1 208 0
  39 0002 074B     		ldr	r3, .L9
  40 0004 1968     		ldr	r1, [r3]
  41              	.LVL1:
  42 0006 11F00F01 		ands	r1, r1, #15
  43              	.LVL2:
  44 000a 05D0     		beq	.L3
  45              		.loc 1 208 0 is_stmt 0 discriminator 1
  46 000c 054A     		ldr	r2, .L9+4
  47 000e 5960     		str	r1, [r3, #4]
  48 0010 1368     		ldr	r3, [r2]
  49 0012 0BB1     		cbz	r3, .L3
  50 0014 5068     		ldr	r0, [r2, #4]
  51 0016 9847     		blx	r3
  52              	.LVL3:
  53              	.L3:
  54              	.LBE2:
  55              		.loc 1 211 0 is_stmt 1
  56 0018 BDE80840 		pop	{r3, lr}
  57              		.loc 1 210 0
ARM GAS  /tmp/ccaEJKiH.s 			page 2


  58 001c FFF7FEBF 		b	_port_irq_epilogue
  59              	.LVL4:
  60              	.L10:
  61              		.align	2
  62              	.L9:
  63 0020 00000240 		.word	1073872896
  64 0024 00000000 		.word	.LANCHOR0
  65              		.cfi_endproc
  66              	.LFE272:
  67              		.size	Vector6C, .-Vector6C
  68 0028 AFF30080 		.section	.text.Vector70,"ax",%progbits
  68      AFF30080 
  69              		.align	2
  70              		.p2align 4,,15
  71              		.global	Vector70
  72              		.thumb
  73              		.thumb_func
  74              		.type	Vector70, %function
  75              	Vector70:
  76              	.LFB273:
  77              		.loc 1 220 0
  78              		.cfi_startproc
  79              		@ args = 0, pretend = 0, frame = 0
  80              		@ frame_needed = 0, uses_anonymous_args = 0
  81              	.LVL5:
  82              	.LBB3:
  83              		.loc 1 224 0
  84 0000 084B     		ldr	r3, .L18
  85 0002 1968     		ldr	r1, [r3]
  86 0004 C1F30311 		ubfx	r1, r1, #4, #4
  87              	.LVL6:
  88              	.LBE3:
  89              		.loc 1 220 0
  90 0008 10B5     		push	{r4, lr}
  91              		.cfi_def_cfa_offset 8
  92              		.cfi_offset 4, -8
  93              		.cfi_offset 14, -4
  94              	.LBB4:
  95              		.loc 1 224 0
  96 000a 31B1     		cbz	r1, .L13
  97              		.loc 1 224 0 is_stmt 0 discriminator 1
  98 000c 0648     		ldr	r0, .L18+4
  99 000e 8268     		ldr	r2, [r0, #8]
 100 0010 0C01     		lsls	r4, r1, #4
 101 0012 5C60     		str	r4, [r3, #4]
 102 0014 0AB1     		cbz	r2, .L13
 103 0016 C068     		ldr	r0, [r0, #12]
 104 0018 9047     		blx	r2
 105              	.LVL7:
 106              	.L13:
 107              	.LBE4:
 108              		.loc 1 227 0 is_stmt 1
 109 001a BDE81040 		pop	{r4, lr}
 110              		.loc 1 226 0
 111 001e FFF7FEBF 		b	_port_irq_epilogue
 112              	.LVL8:
 113              	.L19:
ARM GAS  /tmp/ccaEJKiH.s 			page 3


 114 0022 00BF     		.align	2
 115              	.L18:
 116 0024 00000240 		.word	1073872896
 117 0028 00000000 		.word	.LANCHOR0
 118              		.cfi_endproc
 119              	.LFE273:
 120              		.size	Vector70, .-Vector70
 121 002c AFF30080 		.section	.text.Vector74,"ax",%progbits
 122              		.align	2
 123              		.p2align 4,,15
 124              		.global	Vector74
 125              		.thumb
 126              		.thumb_func
 127              		.type	Vector74, %function
 128              	Vector74:
 129              	.LFB274:
 130              		.loc 1 236 0
 131              		.cfi_startproc
 132              		@ args = 0, pretend = 0, frame = 0
 133              		@ frame_needed = 0, uses_anonymous_args = 0
 134              	.LVL9:
 135              	.LBB5:
 136              		.loc 1 240 0
 137 0000 084B     		ldr	r3, .L27
 138 0002 1968     		ldr	r1, [r3]
 139 0004 C1F30321 		ubfx	r1, r1, #8, #4
 140              	.LVL10:
 141              	.LBE5:
 142              		.loc 1 236 0
 143 0008 10B5     		push	{r4, lr}
 144              		.cfi_def_cfa_offset 8
 145              		.cfi_offset 4, -8
 146              		.cfi_offset 14, -4
 147              	.LBB6:
 148              		.loc 1 240 0
 149 000a 31B1     		cbz	r1, .L22
 150              		.loc 1 240 0 is_stmt 0 discriminator 1
 151 000c 0648     		ldr	r0, .L27+4
 152 000e 0269     		ldr	r2, [r0, #16]
 153 0010 0C02     		lsls	r4, r1, #8
 154 0012 5C60     		str	r4, [r3, #4]
 155 0014 0AB1     		cbz	r2, .L22
 156 0016 4069     		ldr	r0, [r0, #20]
 157 0018 9047     		blx	r2
 158              	.LVL11:
 159              	.L22:
 160              	.LBE6:
 161              		.loc 1 243 0 is_stmt 1
 162 001a BDE81040 		pop	{r4, lr}
 163              		.loc 1 242 0
 164 001e FFF7FEBF 		b	_port_irq_epilogue
 165              	.LVL12:
 166              	.L28:
 167 0022 00BF     		.align	2
 168              	.L27:
 169 0024 00000240 		.word	1073872896
 170 0028 00000000 		.word	.LANCHOR0
ARM GAS  /tmp/ccaEJKiH.s 			page 4


 171              		.cfi_endproc
 172              	.LFE274:
 173              		.size	Vector74, .-Vector74
 174 002c AFF30080 		.section	.text.Vector78,"ax",%progbits
 175              		.align	2
 176              		.p2align 4,,15
 177              		.global	Vector78
 178              		.thumb
 179              		.thumb_func
 180              		.type	Vector78, %function
 181              	Vector78:
 182              	.LFB275:
 183              		.loc 1 252 0
 184              		.cfi_startproc
 185              		@ args = 0, pretend = 0, frame = 0
 186              		@ frame_needed = 0, uses_anonymous_args = 0
 187              	.LVL13:
 188              	.LBB7:
 189              		.loc 1 256 0
 190 0000 084B     		ldr	r3, .L36
 191 0002 1968     		ldr	r1, [r3]
 192 0004 C1F30331 		ubfx	r1, r1, #12, #4
 193              	.LVL14:
 194              	.LBE7:
 195              		.loc 1 252 0
 196 0008 10B5     		push	{r4, lr}
 197              		.cfi_def_cfa_offset 8
 198              		.cfi_offset 4, -8
 199              		.cfi_offset 14, -4
 200              	.LBB8:
 201              		.loc 1 256 0
 202 000a 31B1     		cbz	r1, .L31
 203              		.loc 1 256 0 is_stmt 0 discriminator 1
 204 000c 0648     		ldr	r0, .L36+4
 205 000e 8269     		ldr	r2, [r0, #24]
 206 0010 0C03     		lsls	r4, r1, #12
 207 0012 5C60     		str	r4, [r3, #4]
 208 0014 0AB1     		cbz	r2, .L31
 209 0016 C069     		ldr	r0, [r0, #28]
 210 0018 9047     		blx	r2
 211              	.LVL15:
 212              	.L31:
 213              	.LBE8:
 214              		.loc 1 259 0 is_stmt 1
 215 001a BDE81040 		pop	{r4, lr}
 216              		.loc 1 258 0
 217 001e FFF7FEBF 		b	_port_irq_epilogue
 218              	.LVL16:
 219              	.L37:
 220 0022 00BF     		.align	2
 221              	.L36:
 222 0024 00000240 		.word	1073872896
 223 0028 00000000 		.word	.LANCHOR0
 224              		.cfi_endproc
 225              	.LFE275:
 226              		.size	Vector78, .-Vector78
 227 002c AFF30080 		.section	.text.Vector7C,"ax",%progbits
ARM GAS  /tmp/ccaEJKiH.s 			page 5


 228              		.align	2
 229              		.p2align 4,,15
 230              		.global	Vector7C
 231              		.thumb
 232              		.thumb_func
 233              		.type	Vector7C, %function
 234              	Vector7C:
 235              	.LFB276:
 236              		.loc 1 268 0
 237              		.cfi_startproc
 238              		@ args = 0, pretend = 0, frame = 0
 239              		@ frame_needed = 0, uses_anonymous_args = 0
 240              	.LVL17:
 241              	.LBB9:
 242              		.loc 1 272 0
 243 0000 084B     		ldr	r3, .L45
 244 0002 1968     		ldr	r1, [r3]
 245 0004 C1F30341 		ubfx	r1, r1, #16, #4
 246              	.LVL18:
 247              	.LBE9:
 248              		.loc 1 268 0
 249 0008 10B5     		push	{r4, lr}
 250              		.cfi_def_cfa_offset 8
 251              		.cfi_offset 4, -8
 252              		.cfi_offset 14, -4
 253              	.LBB10:
 254              		.loc 1 272 0
 255 000a 31B1     		cbz	r1, .L40
 256              		.loc 1 272 0 is_stmt 0 discriminator 1
 257 000c 0648     		ldr	r0, .L45+4
 258 000e 026A     		ldr	r2, [r0, #32]
 259 0010 0C04     		lsls	r4, r1, #16
 260 0012 5C60     		str	r4, [r3, #4]
 261 0014 0AB1     		cbz	r2, .L40
 262 0016 406A     		ldr	r0, [r0, #36]
 263 0018 9047     		blx	r2
 264              	.LVL19:
 265              	.L40:
 266              	.LBE10:
 267              		.loc 1 275 0 is_stmt 1
 268 001a BDE81040 		pop	{r4, lr}
 269              		.loc 1 274 0
 270 001e FFF7FEBF 		b	_port_irq_epilogue
 271              	.LVL20:
 272              	.L46:
 273 0022 00BF     		.align	2
 274              	.L45:
 275 0024 00000240 		.word	1073872896
 276 0028 00000000 		.word	.LANCHOR0
 277              		.cfi_endproc
 278              	.LFE276:
 279              		.size	Vector7C, .-Vector7C
 280 002c AFF30080 		.section	.text.Vector80,"ax",%progbits
 281              		.align	2
 282              		.p2align 4,,15
 283              		.global	Vector80
 284              		.thumb
ARM GAS  /tmp/ccaEJKiH.s 			page 6


 285              		.thumb_func
 286              		.type	Vector80, %function
 287              	Vector80:
 288              	.LFB277:
 289              		.loc 1 284 0
 290              		.cfi_startproc
 291              		@ args = 0, pretend = 0, frame = 0
 292              		@ frame_needed = 0, uses_anonymous_args = 0
 293              	.LVL21:
 294              	.LBB11:
 295              		.loc 1 288 0
 296 0000 084B     		ldr	r3, .L54
 297 0002 1968     		ldr	r1, [r3]
 298 0004 C1F30351 		ubfx	r1, r1, #20, #4
 299              	.LVL22:
 300              	.LBE11:
 301              		.loc 1 284 0
 302 0008 10B5     		push	{r4, lr}
 303              		.cfi_def_cfa_offset 8
 304              		.cfi_offset 4, -8
 305              		.cfi_offset 14, -4
 306              	.LBB12:
 307              		.loc 1 288 0
 308 000a 31B1     		cbz	r1, .L49
 309              		.loc 1 288 0 is_stmt 0 discriminator 1
 310 000c 0648     		ldr	r0, .L54+4
 311 000e 826A     		ldr	r2, [r0, #40]
 312 0010 0C05     		lsls	r4, r1, #20
 313 0012 5C60     		str	r4, [r3, #4]
 314 0014 0AB1     		cbz	r2, .L49
 315 0016 C06A     		ldr	r0, [r0, #44]
 316 0018 9047     		blx	r2
 317              	.LVL23:
 318              	.L49:
 319              	.LBE12:
 320              		.loc 1 291 0 is_stmt 1
 321 001a BDE81040 		pop	{r4, lr}
 322              		.loc 1 290 0
 323 001e FFF7FEBF 		b	_port_irq_epilogue
 324              	.LVL24:
 325              	.L55:
 326 0022 00BF     		.align	2
 327              	.L54:
 328 0024 00000240 		.word	1073872896
 329 0028 00000000 		.word	.LANCHOR0
 330              		.cfi_endproc
 331              	.LFE277:
 332              		.size	Vector80, .-Vector80
 333 002c AFF30080 		.section	.text.Vector84,"ax",%progbits
 334              		.align	2
 335              		.p2align 4,,15
 336              		.global	Vector84
 337              		.thumb
 338              		.thumb_func
 339              		.type	Vector84, %function
 340              	Vector84:
 341              	.LFB278:
ARM GAS  /tmp/ccaEJKiH.s 			page 7


 342              		.loc 1 300 0
 343              		.cfi_startproc
 344              		@ args = 0, pretend = 0, frame = 0
 345              		@ frame_needed = 0, uses_anonymous_args = 0
 346              	.LVL25:
 347              	.LBB13:
 348              		.loc 1 304 0
 349 0000 084B     		ldr	r3, .L63
 350 0002 1968     		ldr	r1, [r3]
 351 0004 C1F30361 		ubfx	r1, r1, #24, #4
 352              	.LVL26:
 353              	.LBE13:
 354              		.loc 1 300 0
 355 0008 10B5     		push	{r4, lr}
 356              		.cfi_def_cfa_offset 8
 357              		.cfi_offset 4, -8
 358              		.cfi_offset 14, -4
 359              	.LBB14:
 360              		.loc 1 304 0
 361 000a 31B1     		cbz	r1, .L58
 362              		.loc 1 304 0 is_stmt 0 discriminator 1
 363 000c 0648     		ldr	r0, .L63+4
 364 000e 026B     		ldr	r2, [r0, #48]
 365 0010 0C06     		lsls	r4, r1, #24
 366 0012 5C60     		str	r4, [r3, #4]
 367 0014 0AB1     		cbz	r2, .L58
 368 0016 406B     		ldr	r0, [r0, #52]
 369 0018 9047     		blx	r2
 370              	.LVL27:
 371              	.L58:
 372              	.LBE14:
 373              		.loc 1 307 0 is_stmt 1
 374 001a BDE81040 		pop	{r4, lr}
 375              		.loc 1 306 0
 376 001e FFF7FEBF 		b	_port_irq_epilogue
 377              	.LVL28:
 378              	.L64:
 379 0022 00BF     		.align	2
 380              	.L63:
 381 0024 00000240 		.word	1073872896
 382 0028 00000000 		.word	.LANCHOR0
 383              		.cfi_endproc
 384              	.LFE278:
 385              		.size	Vector84, .-Vector84
 386 002c AFF30080 		.section	.text.Vector120,"ax",%progbits
 387              		.align	2
 388              		.p2align 4,,15
 389              		.global	Vector120
 390              		.thumb
 391              		.thumb_func
 392              		.type	Vector120, %function
 393              	Vector120:
 394              	.LFB279:
 395              		.loc 1 316 0
 396              		.cfi_startproc
 397              		@ args = 0, pretend = 0, frame = 0
 398              		@ frame_needed = 0, uses_anonymous_args = 0
ARM GAS  /tmp/ccaEJKiH.s 			page 8


 399              	.LVL29:
 400 0000 08B5     		push	{r3, lr}
 401              		.cfi_def_cfa_offset 8
 402              		.cfi_offset 3, -8
 403              		.cfi_offset 14, -4
 404              	.LBB15:
 405              		.loc 1 320 0
 406 0002 074B     		ldr	r3, .L72
 407 0004 1968     		ldr	r1, [r3]
 408              	.LVL30:
 409 0006 11F00F01 		ands	r1, r1, #15
 410              	.LVL31:
 411 000a 05D0     		beq	.L67
 412              		.loc 1 320 0 is_stmt 0 discriminator 1
 413 000c 054A     		ldr	r2, .L72+4
 414 000e 5960     		str	r1, [r3, #4]
 415 0010 936B     		ldr	r3, [r2, #56]
 416 0012 0BB1     		cbz	r3, .L67
 417 0014 D06B     		ldr	r0, [r2, #60]
 418 0016 9847     		blx	r3
 419              	.LVL32:
 420              	.L67:
 421              	.LBE15:
 422              		.loc 1 323 0 is_stmt 1
 423 0018 BDE80840 		pop	{r3, lr}
 424              		.loc 1 322 0
 425 001c FFF7FEBF 		b	_port_irq_epilogue
 426              	.LVL33:
 427              	.L73:
 428              		.align	2
 429              	.L72:
 430 0020 00040240 		.word	1073873920
 431 0024 00000000 		.word	.LANCHOR0
 432              		.cfi_endproc
 433              	.LFE279:
 434              		.size	Vector120, .-Vector120
 435 0028 AFF30080 		.section	.text.Vector124,"ax",%progbits
 435      AFF30080 
 436              		.align	2
 437              		.p2align 4,,15
 438              		.global	Vector124
 439              		.thumb
 440              		.thumb_func
 441              		.type	Vector124, %function
 442              	Vector124:
 443              	.LFB280:
 444              		.loc 1 332 0
 445              		.cfi_startproc
 446              		@ args = 0, pretend = 0, frame = 0
 447              		@ frame_needed = 0, uses_anonymous_args = 0
 448              	.LVL34:
 449              	.LBB16:
 450              		.loc 1 336 0
 451 0000 084B     		ldr	r3, .L81
 452 0002 1968     		ldr	r1, [r3]
 453 0004 C1F30311 		ubfx	r1, r1, #4, #4
 454              	.LVL35:
ARM GAS  /tmp/ccaEJKiH.s 			page 9


 455              	.LBE16:
 456              		.loc 1 332 0
 457 0008 10B5     		push	{r4, lr}
 458              		.cfi_def_cfa_offset 8
 459              		.cfi_offset 4, -8
 460              		.cfi_offset 14, -4
 461              	.LBB17:
 462              		.loc 1 336 0
 463 000a 31B1     		cbz	r1, .L76
 464              		.loc 1 336 0 is_stmt 0 discriminator 1
 465 000c 0648     		ldr	r0, .L81+4
 466 000e 026C     		ldr	r2, [r0, #64]
 467 0010 0C01     		lsls	r4, r1, #4
 468 0012 5C60     		str	r4, [r3, #4]
 469 0014 0AB1     		cbz	r2, .L76
 470 0016 406C     		ldr	r0, [r0, #68]
 471 0018 9047     		blx	r2
 472              	.LVL36:
 473              	.L76:
 474              	.LBE17:
 475              		.loc 1 339 0 is_stmt 1
 476 001a BDE81040 		pop	{r4, lr}
 477              		.loc 1 338 0
 478 001e FFF7FEBF 		b	_port_irq_epilogue
 479              	.LVL37:
 480              	.L82:
 481 0022 00BF     		.align	2
 482              	.L81:
 483 0024 00040240 		.word	1073873920
 484 0028 00000000 		.word	.LANCHOR0
 485              		.cfi_endproc
 486              	.LFE280:
 487              		.size	Vector124, .-Vector124
 488 002c AFF30080 		.section	.text.Vector128,"ax",%progbits
 489              		.align	2
 490              		.p2align 4,,15
 491              		.global	Vector128
 492              		.thumb
 493              		.thumb_func
 494              		.type	Vector128, %function
 495              	Vector128:
 496              	.LFB281:
 497              		.loc 1 348 0
 498              		.cfi_startproc
 499              		@ args = 0, pretend = 0, frame = 0
 500              		@ frame_needed = 0, uses_anonymous_args = 0
 501              	.LVL38:
 502              	.LBB18:
 503              		.loc 1 352 0
 504 0000 084B     		ldr	r3, .L90
 505 0002 1968     		ldr	r1, [r3]
 506 0004 C1F30321 		ubfx	r1, r1, #8, #4
 507              	.LVL39:
 508              	.LBE18:
 509              		.loc 1 348 0
 510 0008 10B5     		push	{r4, lr}
 511              		.cfi_def_cfa_offset 8
ARM GAS  /tmp/ccaEJKiH.s 			page 10


 512              		.cfi_offset 4, -8
 513              		.cfi_offset 14, -4
 514              	.LBB19:
 515              		.loc 1 352 0
 516 000a 31B1     		cbz	r1, .L85
 517              		.loc 1 352 0 is_stmt 0 discriminator 1
 518 000c 0648     		ldr	r0, .L90+4
 519 000e 826C     		ldr	r2, [r0, #72]
 520 0010 0C02     		lsls	r4, r1, #8
 521 0012 5C60     		str	r4, [r3, #4]
 522 0014 0AB1     		cbz	r2, .L85
 523 0016 C06C     		ldr	r0, [r0, #76]
 524 0018 9047     		blx	r2
 525              	.LVL40:
 526              	.L85:
 527              	.LBE19:
 528              		.loc 1 355 0 is_stmt 1
 529 001a BDE81040 		pop	{r4, lr}
 530              		.loc 1 354 0
 531 001e FFF7FEBF 		b	_port_irq_epilogue
 532              	.LVL41:
 533              	.L91:
 534 0022 00BF     		.align	2
 535              	.L90:
 536 0024 00040240 		.word	1073873920
 537 0028 00000000 		.word	.LANCHOR0
 538              		.cfi_endproc
 539              	.LFE281:
 540              		.size	Vector128, .-Vector128
 541 002c AFF30080 		.section	.text.Vector12C,"ax",%progbits
 542              		.align	2
 543              		.p2align 4,,15
 544              		.global	Vector12C
 545              		.thumb
 546              		.thumb_func
 547              		.type	Vector12C, %function
 548              	Vector12C:
 549              	.LFB282:
 550              		.loc 1 364 0
 551              		.cfi_startproc
 552              		@ args = 0, pretend = 0, frame = 0
 553              		@ frame_needed = 0, uses_anonymous_args = 0
 554              	.LVL42:
 555              	.LBB20:
 556              		.loc 1 368 0
 557 0000 084B     		ldr	r3, .L99
 558 0002 1968     		ldr	r1, [r3]
 559 0004 C1F30331 		ubfx	r1, r1, #12, #4
 560              	.LVL43:
 561              	.LBE20:
 562              		.loc 1 364 0
 563 0008 10B5     		push	{r4, lr}
 564              		.cfi_def_cfa_offset 8
 565              		.cfi_offset 4, -8
 566              		.cfi_offset 14, -4
 567              	.LBB21:
 568              		.loc 1 368 0
ARM GAS  /tmp/ccaEJKiH.s 			page 11


 569 000a 31B1     		cbz	r1, .L94
 570              		.loc 1 368 0 is_stmt 0 discriminator 1
 571 000c 0648     		ldr	r0, .L99+4
 572 000e 026D     		ldr	r2, [r0, #80]
 573 0010 0C03     		lsls	r4, r1, #12
 574 0012 5C60     		str	r4, [r3, #4]
 575 0014 0AB1     		cbz	r2, .L94
 576 0016 406D     		ldr	r0, [r0, #84]
 577 0018 9047     		blx	r2
 578              	.LVL44:
 579              	.L94:
 580              	.LBE21:
 581              		.loc 1 371 0 is_stmt 1
 582 001a BDE81040 		pop	{r4, lr}
 583              		.loc 1 370 0
 584 001e FFF7FEBF 		b	_port_irq_epilogue
 585              	.LVL45:
 586              	.L100:
 587 0022 00BF     		.align	2
 588              	.L99:
 589 0024 00040240 		.word	1073873920
 590 0028 00000000 		.word	.LANCHOR0
 591              		.cfi_endproc
 592              	.LFE282:
 593              		.size	Vector12C, .-Vector12C
 594 002c AFF30080 		.section	.text.Vector130,"ax",%progbits
 595              		.align	2
 596              		.p2align 4,,15
 597              		.global	Vector130
 598              		.thumb
 599              		.thumb_func
 600              		.type	Vector130, %function
 601              	Vector130:
 602              	.LFB283:
 603              		.loc 1 380 0
 604              		.cfi_startproc
 605              		@ args = 0, pretend = 0, frame = 0
 606              		@ frame_needed = 0, uses_anonymous_args = 0
 607              	.LVL46:
 608              	.LBB22:
 609              		.loc 1 384 0
 610 0000 084B     		ldr	r3, .L108
 611 0002 1968     		ldr	r1, [r3]
 612 0004 C1F30341 		ubfx	r1, r1, #16, #4
 613              	.LVL47:
 614              	.LBE22:
 615              		.loc 1 380 0
 616 0008 10B5     		push	{r4, lr}
 617              		.cfi_def_cfa_offset 8
 618              		.cfi_offset 4, -8
 619              		.cfi_offset 14, -4
 620              	.LBB23:
 621              		.loc 1 384 0
 622 000a 31B1     		cbz	r1, .L103
 623              		.loc 1 384 0 is_stmt 0 discriminator 1
 624 000c 0648     		ldr	r0, .L108+4
 625 000e 826D     		ldr	r2, [r0, #88]
ARM GAS  /tmp/ccaEJKiH.s 			page 12


 626 0010 0C04     		lsls	r4, r1, #16
 627 0012 5C60     		str	r4, [r3, #4]
 628 0014 0AB1     		cbz	r2, .L103
 629 0016 C06D     		ldr	r0, [r0, #92]
 630 0018 9047     		blx	r2
 631              	.LVL48:
 632              	.L103:
 633              	.LBE23:
 634              		.loc 1 387 0 is_stmt 1
 635 001a BDE81040 		pop	{r4, lr}
 636              		.loc 1 386 0
 637 001e FFF7FEBF 		b	_port_irq_epilogue
 638              	.LVL49:
 639              	.L109:
 640 0022 00BF     		.align	2
 641              	.L108:
 642 0024 00040240 		.word	1073873920
 643 0028 00000000 		.word	.LANCHOR0
 644              		.cfi_endproc
 645              	.LFE283:
 646              		.size	Vector130, .-Vector130
 647 002c AFF30080 		.section	.text.dmaInit,"ax",%progbits
 648              		.align	2
 649              		.p2align 4,,15
 650              		.global	dmaInit
 651              		.thumb
 652              		.thumb_func
 653              		.type	dmaInit, %function
 654              	dmaInit:
 655              	.LFB284:
 656              		.loc 1 431 0
 657              		.cfi_startproc
 658              		@ args = 0, pretend = 0, frame = 0
 659              		@ frame_needed = 0, uses_anonymous_args = 0
 660              		@ link register save eliminated.
 661              		.loc 1 434 0
 662 0000 0C4B     		ldr	r3, .L114
 663              		.loc 1 431 0
 664 0002 30B4     		push	{r4, r5}
 665              		.cfi_def_cfa_offset 8
 666              		.cfi_offset 4, -8
 667              		.cfi_offset 5, -4
 668              		.loc 1 434 0
 669 0004 0022     		movs	r2, #0
 670 0006 0C4D     		ldr	r5, .L114+4
 671 0008 0C4C     		ldr	r4, .L114+8
 672 000a 1A60     		str	r2, [r3]
 673              	.LVL50:
 674              		.loc 1 436 0
 675 000c 1146     		mov	r1, r2
 676              		.loc 1 434 0
 677 000e 1346     		mov	r3, r2
 678              	.LVL51:
 679              	.L112:
 680 0010 E818     		adds	r0, r5, r3
 681 0012 1433     		adds	r3, r3, #20
 682              		.loc 1 436 0 discriminator 2
ARM GAS  /tmp/ccaEJKiH.s 			page 13


 683 0014 4068     		ldr	r0, [r0, #4]
 684              		.loc 1 435 0 discriminator 2
 685 0016 F02B     		cmp	r3, #240
 686              		.loc 1 436 0 discriminator 2
 687 0018 0160     		str	r1, [r0]
 688              		.loc 1 437 0 discriminator 2
 689 001a A150     		str	r1, [r4, r2]
 690 001c 02F10802 		add	r2, r2, #8
 691              		.loc 1 435 0 discriminator 2
 692 0020 F6D1     		bne	.L112
 693              		.loc 1 439 0
 694 0022 0749     		ldr	r1, .L114+12
 695              		.loc 1 441 0
 696 0024 074A     		ldr	r2, .L114+16
 697              		.loc 1 439 0
 698 0026 4FF0FF33 		mov	r3, #-1
 699 002a 4B60     		str	r3, [r1, #4]
 700              		.loc 1 443 0
 701 002c 30BC     		pop	{r4, r5}
 702              		.loc 1 441 0
 703 002e 5360     		str	r3, [r2, #4]
 704              		.loc 1 443 0
 705 0030 7047     		bx	lr
 706              	.L115:
 707 0032 00BF     		.align	2
 708              	.L114:
 709 0034 00000000 		.word	.LANCHOR1
 710 0038 00000000 		.word	.LANCHOR2
 711 003c 00000000 		.word	.LANCHOR0
 712 0040 00000240 		.word	1073872896
 713 0044 00040240 		.word	1073873920
 714              		.cfi_endproc
 715              	.LFE284:
 716              		.size	dmaInit, .-dmaInit
 717 0048 AFF30080 		.section	.text.dmaStreamAllocate,"ax",%progbits
 717      AFF30080 
 718              		.align	2
 719              		.p2align 4,,15
 720              		.global	dmaStreamAllocate
 721              		.thumb
 722              		.thumb_func
 723              		.type	dmaStreamAllocate, %function
 724              	dmaStreamAllocate:
 725              	.LFB285:
 726              		.loc 1 472 0
 727              		.cfi_startproc
 728              		@ args = 0, pretend = 0, frame = 0
 729              		@ frame_needed = 0, uses_anonymous_args = 0
 730              	.LVL52:
 731 0000 2DE9F041 		push	{r4, r5, r6, r7, r8, lr}
 732              		.cfi_def_cfa_offset 24
 733              		.cfi_offset 4, -24
 734              		.cfi_offset 5, -20
 735              		.cfi_offset 6, -16
 736              		.cfi_offset 7, -12
 737              		.cfi_offset 8, -8
 738              		.cfi_offset 14, -4
ARM GAS  /tmp/ccaEJKiH.s 			page 14


 739              		.loc 1 477 0
 740 0004 204F     		ldr	r7, .L124
 741 0006 467C     		ldrb	r6, [r0, #17]	@ zero_extendqisi2
 742 0008 3D68     		ldr	r5, [r7]
 743              		.loc 1 472 0
 744 000a 0446     		mov	r4, r0
 745              		.loc 1 477 0
 746 000c 0120     		movs	r0, #1
 747              	.LVL53:
 748 000e 00FA06FC 		lsl	ip, r0, r6
 749 0012 1CEA050F 		tst	ip, r5
 750 0016 35D1     		bne	.L117
 751              		.loc 1 481 0
 752 0018 1C48     		ldr	r0, .L124+4
 753              		.loc 1 482 0
 754 001a 00EBC60C 		add	ip, r0, r6, lsl #3
 755              		.loc 1 481 0
 756 001e 40F83620 		str	r2, [r0, r6, lsl #3]
 757              		.loc 1 482 0
 758 0022 CCF80430 		str	r3, [ip, #4]
 759              		.loc 1 485 0
 760 0026 6B06     		lsls	r3, r5, #25
 761              	.LVL54:
 762 0028 04D1     		bne	.L118
 763              		.loc 1 486 0
 764 002a 194B     		ldr	r3, .L124+8
 765 002c 5869     		ldr	r0, [r3, #20]
 766 002e 40F00100 		orr	r0, r0, #1
 767 0032 5861     		str	r0, [r3, #20]
 768              	.L118:
 769              		.loc 1 489 0
 770 0034 15F4786F 		tst	r5, #3968
 771 0038 04D1     		bne	.L119
 772              		.loc 1 490 0
 773 003a 154B     		ldr	r3, .L124+8
 774 003c 5869     		ldr	r0, [r3, #20]
 775 003e 40F00200 		orr	r0, r0, #2
 776 0042 5861     		str	r0, [r3, #20]
 777              	.L119:
 778              		.loc 1 495 0
 779 0044 6368     		ldr	r3, [r4, #4]
 780              		.loc 1 500 0
 781 0046 A068     		ldr	r0, [r4, #8]
 782              		.loc 1 495 0
 783 0048 1E68     		ldr	r6, [r3]
 784 004a D4F800C0 		ldr	ip, [r4]
 785              	.LVL55:
 786 004e 26F00F06 		bic	r6, r6, #15
 787 0052 1E60     		str	r6, [r3]
 788 0054 267C     		ldrb	r6, [r4, #16]	@ zero_extendqisi2
 789 0056 4FF00F08 		mov	r8, #15
 790 005a 08FA06F8 		lsl	r8, r8, r6
 791              		.loc 1 500 0
 792 005e 0542     		tst	r5, r0
 793              		.loc 1 496 0
 794 0060 4FF00006 		mov	r6, #0
 795              		.loc 1 495 0
ARM GAS  /tmp/ccaEJKiH.s 			page 15


 796 0064 CCF80480 		str	r8, [ip, #4]
 797              		.loc 1 496 0
 798 0068 1E60     		str	r6, [r3]
 799              		.loc 1 500 0
 800 006a 04D1     		bne	.L120
 801              		.loc 1 500 0 is_stmt 0 discriminator 1
 802 006c 1AB1     		cbz	r2, .L120
 803              		.loc 1 502 0 is_stmt 1
 804 006e A07C     		ldrb	r0, [r4, #18]	@ zero_extendqisi2
 805 0070 FFF7FEFF 		bl	nvicEnableVector
 806              	.LVL56:
 807 0074 3D68     		ldr	r5, [r7]
 808              	.L120:
 809              		.loc 1 506 0
 810 0076 637C     		ldrb	r3, [r4, #17]	@ zero_extendqisi2
 811 0078 0122     		movs	r2, #1
 812 007a 02FA03F3 		lsl	r3, r2, r3
 813 007e 1D43     		orrs	r5, r5, r3
 814 0080 3D60     		str	r5, [r7]
 815              		.loc 1 508 0
 816 0082 0020     		movs	r0, #0
 817              	.L117:
 818              		.loc 1 509 0
 819 0084 BDE8F081 		pop	{r4, r5, r6, r7, r8, pc}
 820              	.LVL57:
 821              	.L125:
 822              		.align	2
 823              	.L124:
 824 0088 00000000 		.word	.LANCHOR1
 825 008c 00000000 		.word	.LANCHOR0
 826 0090 00100240 		.word	1073876992
 827              		.cfi_endproc
 828              	.LFE285:
 829              		.size	dmaStreamAllocate, .-dmaStreamAllocate
 830 0094 AFF30080 		.section	.text.dmaStreamRelease,"ax",%progbits
 830      AFF30080 
 830      AFF30080 
 831              		.align	2
 832              		.p2align 4,,15
 833              		.global	dmaStreamRelease
 834              		.thumb
 835              		.thumb_func
 836              		.type	dmaStreamRelease, %function
 837              	dmaStreamRelease:
 838              	.LFB286:
 839              		.loc 1 524 0
 840              		.cfi_startproc
 841              		@ args = 0, pretend = 0, frame = 0
 842              		@ frame_needed = 0, uses_anonymous_args = 0
 843              	.LVL58:
 844 0000 38B5     		push	{r3, r4, r5, lr}
 845              		.cfi_def_cfa_offset 16
 846              		.cfi_offset 3, -16
 847              		.cfi_offset 4, -12
 848              		.cfi_offset 5, -8
 849              		.cfi_offset 14, -4
 850              		.loc 1 533 0
ARM GAS  /tmp/ccaEJKiH.s 			page 16


 851 0002 144D     		ldr	r5, .L132
 852 0004 437C     		ldrb	r3, [r0, #17]	@ zero_extendqisi2
 853              		.loc 1 524 0
 854 0006 0446     		mov	r4, r0
 855              		.loc 1 533 0
 856 0008 0122     		movs	r2, #1
 857 000a 2868     		ldr	r0, [r5]
 858              	.LVL59:
 859              		.loc 1 536 0
 860 000c A168     		ldr	r1, [r4, #8]
 861              		.loc 1 533 0
 862 000e 9A40     		lsls	r2, r2, r3
 863 0010 20EA0202 		bic	r2, r0, r2
 864              		.loc 1 536 0
 865 0014 0A42     		tst	r2, r1
 866              		.loc 1 533 0
 867 0016 2A60     		str	r2, [r5]
 868              		.loc 1 536 0
 869 0018 16D0     		beq	.L131
 870              	.L127:
 871              		.loc 1 541 0
 872 001a 0F48     		ldr	r0, .L132+4
 873 001c 0021     		movs	r1, #0
 874              		.loc 1 542 0
 875 001e 00EBC304 		add	r4, r0, r3, lsl #3
 876              	.LVL60:
 877              		.loc 1 541 0
 878 0022 40F83310 		str	r1, [r0, r3, lsl #3]
 879              		.loc 1 545 0
 880 0026 5306     		lsls	r3, r2, #25
 881              		.loc 1 542 0
 882 0028 6160     		str	r1, [r4, #4]
 883              		.loc 1 545 0
 884 002a 04D1     		bne	.L128
 885              		.loc 1 546 0
 886 002c 0B4B     		ldr	r3, .L132+8
 887 002e 5969     		ldr	r1, [r3, #20]
 888 0030 21F00101 		bic	r1, r1, #1
 889 0034 5961     		str	r1, [r3, #20]
 890              	.L128:
 891              		.loc 1 549 0
 892 0036 12F4786F 		tst	r2, #3968
 893 003a 04D1     		bne	.L126
 894              		.loc 1 550 0
 895 003c 074B     		ldr	r3, .L132+8
 896 003e 5A69     		ldr	r2, [r3, #20]
 897 0040 22F00202 		bic	r2, r2, #2
 898 0044 5A61     		str	r2, [r3, #20]
 899              	.L126:
 900 0046 38BD     		pop	{r3, r4, r5, pc}
 901              	.LVL61:
 902              	.L131:
 903              		.loc 1 537 0
 904 0048 A07C     		ldrb	r0, [r4, #18]	@ zero_extendqisi2
 905 004a FFF7FEFF 		bl	nvicDisableVector
 906              	.LVL62:
 907 004e 637C     		ldrb	r3, [r4, #17]	@ zero_extendqisi2
ARM GAS  /tmp/ccaEJKiH.s 			page 17


 908 0050 2A68     		ldr	r2, [r5]
 909 0052 E2E7     		b	.L127
 910              	.L133:
 911              		.align	2
 912              	.L132:
 913 0054 00000000 		.word	.LANCHOR1
 914 0058 00000000 		.word	.LANCHOR0
 915 005c 00100240 		.word	1073876992
 916              		.cfi_endproc
 917              	.LFE286:
 918              		.size	dmaStreamRelease, .-dmaStreamRelease
 919              		.global	_stm32_dma_isr_redir
 920              		.global	_stm32_dma_streams
 921              		.section	.bss._stm32_dma_isr_redir,"aw",%nobits
 922              		.align	2
 923              		.set	.LANCHOR0,. + 0
 924              		.type	_stm32_dma_isr_redir, %object
 925              		.size	_stm32_dma_isr_redir, 96
 926              	_stm32_dma_isr_redir:
 927 0000 00000000 		.space	96
 927      00000000 
 927      00000000 
 927      00000000 
 927      00000000 
 928              		.section	.rodata._stm32_dma_streams,"a",%progbits
 929              		.align	2
 930              		.set	.LANCHOR2,. + 0
 931              		.type	_stm32_dma_streams, %object
 932              		.size	_stm32_dma_streams, 240
 933              	_stm32_dma_streams:
 934 0000 00000240 		.word	1073872896
 935 0004 08000240 		.word	1073872904
 936 0008 01000000 		.word	1
 937 000c 00000000 		.word	0
 938 0010 00       		.byte	0
 939 0011 00       		.byte	0
 940 0012 0B       		.byte	11
 941 0013 00       		.space	1
 942 0014 00000240 		.word	1073872896
 943 0018 1C000240 		.word	1073872924
 944 001c 02000000 		.word	2
 945 0020 00000000 		.word	0
 946 0024 04       		.byte	4
 947 0025 01       		.byte	1
 948 0026 0C       		.byte	12
 949 0027 00       		.space	1
 950 0028 00000240 		.word	1073872896
 951 002c 30000240 		.word	1073872944
 952 0030 04000000 		.word	4
 953 0034 00000000 		.word	0
 954 0038 08       		.byte	8
 955 0039 02       		.byte	2
 956 003a 0D       		.byte	13
 957 003b 00       		.space	1
 958 003c 00000240 		.word	1073872896
 959 0040 44000240 		.word	1073872964
 960 0044 08000000 		.word	8
ARM GAS  /tmp/ccaEJKiH.s 			page 18


 961 0048 00000000 		.word	0
 962 004c 0C       		.byte	12
 963 004d 03       		.byte	3
 964 004e 0E       		.byte	14
 965 004f 00       		.space	1
 966 0050 00000240 		.word	1073872896
 967 0054 58000240 		.word	1073872984
 968 0058 10000000 		.word	16
 969 005c 00000000 		.word	0
 970 0060 10       		.byte	16
 971 0061 04       		.byte	4
 972 0062 0F       		.byte	15
 973 0063 00       		.space	1
 974 0064 00000240 		.word	1073872896
 975 0068 6C000240 		.word	1073873004
 976 006c 20000000 		.word	32
 977 0070 00000000 		.word	0
 978 0074 14       		.byte	20
 979 0075 05       		.byte	5
 980 0076 10       		.byte	16
 981 0077 00       		.space	1
 982 0078 00000240 		.word	1073872896
 983 007c 80000240 		.word	1073873024
 984 0080 40000000 		.word	64
 985 0084 00000000 		.word	0
 986 0088 18       		.byte	24
 987 0089 06       		.byte	6
 988 008a 11       		.byte	17
 989 008b 00       		.space	1
 990 008c 00040240 		.word	1073873920
 991 0090 08040240 		.word	1073873928
 992 0094 80000000 		.word	128
 993 0098 00000000 		.word	0
 994 009c 00       		.byte	0
 995 009d 07       		.byte	7
 996 009e 38       		.byte	56
 997 009f 00       		.space	1
 998 00a0 00040240 		.word	1073873920
 999 00a4 1C040240 		.word	1073873948
 1000 00a8 00010000 		.word	256
 1001 00ac 00000000 		.word	0
 1002 00b0 04       		.byte	4
 1003 00b1 08       		.byte	8
 1004 00b2 39       		.byte	57
 1005 00b3 00       		.space	1
 1006 00b4 00040240 		.word	1073873920
 1007 00b8 30040240 		.word	1073873968
 1008 00bc 00020000 		.word	512
 1009 00c0 00000000 		.word	0
 1010 00c4 08       		.byte	8
 1011 00c5 09       		.byte	9
 1012 00c6 3A       		.byte	58
 1013 00c7 00       		.space	1
 1014 00c8 00040240 		.word	1073873920
 1015 00cc 44040240 		.word	1073873988
 1016 00d0 00040000 		.word	1024
 1017 00d4 00000000 		.word	0
ARM GAS  /tmp/ccaEJKiH.s 			page 19


 1018 00d8 0C       		.byte	12
 1019 00d9 0A       		.byte	10
 1020 00da 3B       		.byte	59
 1021 00db 00       		.space	1
 1022 00dc 00040240 		.word	1073873920
 1023 00e0 58040240 		.word	1073874008
 1024 00e4 00080000 		.word	2048
 1025 00e8 00000000 		.word	0
 1026 00ec 10       		.byte	16
 1027 00ed 0B       		.byte	11
 1028 00ee 3C       		.byte	60
 1029 00ef 00       		.space	1
 1030              		.section	.bss.dma_streams_mask,"aw",%nobits
 1031              		.align	2
 1032              		.set	.LANCHOR1,. + 0
 1033              		.type	dma_streams_mask, %object
 1034              		.size	dma_streams_mask, 4
 1035              	dma_streams_mask:
 1036 0000 00000000 		.space	4
 1037              		.text
 1038              	.Letext0:
 1039              		.file 2 "/nfs/nfs5/home/research/hardware/arm2/gcc-arm-embedded/gcc-arm-none-eabi-4_8-2014q2/lib/g
 1040              		.file 3 "/nfs/nfs5/home/research/hardware/arm2/gcc-arm-embedded/gcc-arm-none-eabi-4_8-2014q2/arm-n
 1041              		.file 4 "/nfs/nfs5/home/research/hardware/arm2/gcc-arm-embedded/gcc-arm-none-eabi-4_8-2014q2/arm-n
 1042              		.file 5 "../ChibiOS/os/rt/ports/ARMCMx/compilers/GCC/chtypes.h"
 1043              		.file 6 "../ChibiOS/os/rt/include/chsystypes.h"
 1044              		.file 7 "../ChibiOS/os/rt/include/chschd.h"
 1045              		.file 8 "../ChibiOS/os/ext/CMSIS/ST/STM32F3xx/stm32f303xc.h"
 1046              		.file 9 "../ChibiOS/os/rt/ports/ARMCMx/chcore.h"
 1047              		.file 10 "../ChibiOS/os/rt/ports/ARMCMx/chcore_v7m.h"
 1048              		.file 11 "../ChibiOS/os/rt/include/chtm.h"
 1049              		.file 12 "../ChibiOS/os/rt/include/chsem.h"
 1050              		.file 13 "../ChibiOS/os/rt/include/chmtx.h"
 1051              		.file 14 "../ChibiOS/os/hal/ports/STM32/LLD/DMAv1/stm32_dma.h"
 1052              		.file 15 "../ChibiOS/os/ext/CMSIS/include/core_cm4.h"
 1053              		.file 16 "../ChibiOS/os/hal/ports/common/ARMCMx/nvic.h"