ARM GAS  /tmp/ccaUkCPv.s 			page 1


   1              		.syntax unified
   2              		.cpu cortex-m4
   3              		.fpu softvfp
   4              		.eabi_attribute 20, 1
   5              		.eabi_attribute 21, 1
   6              		.eabi_attribute 23, 3
   7              		.eabi_attribute 24, 1
   8              		.eabi_attribute 25, 1
   9              		.eabi_attribute 26, 1
  10              		.eabi_attribute 30, 2
  11              		.eabi_attribute 34, 1
  12              		.eabi_attribute 18, 4
  13              		.thumb
  14              		.file	"testthd.c"
  15              		.text
  16              	.Ltext0:
  17              		.cfi_sections	.debug_frame
  18              		.section	.text.thd1_execute,"ax",%progbits
  19              		.align	2
  20              		.p2align 4,,15
  21              		.thumb
  22              		.thumb_func
  23              		.type	thd1_execute, %function
  24              	thd1_execute:
  25              	.LFB242:
  26              		.file 1 "../ChibiOS/test/rt/testthd.c"
  27              		.loc 1 65 0
  28              		.cfi_startproc
  29              		@ args = 0, pretend = 0, frame = 0
  30              		@ frame_needed = 0, uses_anonymous_args = 0
  31 0000 F0B5     		push	{r4, r5, r6, r7, lr}
  32              		.cfi_def_cfa_offset 20
  33              		.cfi_offset 4, -20
  34              		.cfi_offset 5, -16
  35              		.cfi_offset 6, -12
  36              		.cfi_offset 7, -8
  37              		.cfi_offset 14, -4
  38              	.LBB257:
  39              	.LBB258:
  40              	.LBB259:
  41              	.LBB260:
  42              		.file 2 "../ChibiOS/os/rt/include/chthreads.h"
  43              		.loc 2 176 0
  44 0002 274F     		ldr	r7, .L2
  45              	.LBE260:
  46              	.LBE259:
  47              	.LBE258:
  48              	.LBE257:
  49              		.loc 1 67 0
  50 0004 274E     		ldr	r6, .L2+4
  51              	.LBB262:
  52              	.LBB261:
  53              		.loc 2 189 0
  54 0006 BB69     		ldr	r3, [r7, #24]
  55              	.LBE261:
  56              	.LBE262:
  57              		.loc 1 67 0
ARM GAS  /tmp/ccaUkCPv.s 			page 2


  58 0008 274D     		ldr	r5, .L2+8
  59 000a 9A68     		ldr	r2, [r3, #8]
  60 000c 274B     		ldr	r3, .L2+12
  61 000e 3068     		ldr	r0, [r6]
  62 0010 274C     		ldr	r4, .L2+16
  63              		.loc 1 65 0
  64 0012 83B0     		sub	sp, sp, #12
  65              		.cfi_def_cfa_offset 32
  66              		.loc 1 67 0
  67 0014 053A     		subs	r2, r2, #5
  68 0016 0093     		str	r3, [sp]
  69 0018 4FF4A471 		mov	r1, #328
  70 001c 2B46     		mov	r3, r5
  71 001e FFF7FEFF 		bl	chThdCreateStatic
  72              	.LVL0:
  73              	.LBB263:
  74              	.LBB264:
  75              		.loc 2 189 0
  76 0022 BB69     		ldr	r3, [r7, #24]
  77              	.LBE264:
  78              	.LBE263:
  79              		.loc 1 68 0
  80 0024 2349     		ldr	r1, .L2+20
  81 0026 9A68     		ldr	r2, [r3, #8]
  82 0028 7368     		ldr	r3, [r6, #4]
  83              		.loc 1 67 0
  84 002a 2060     		str	r0, [r4]
  85              		.loc 1 68 0
  86 002c 0091     		str	r1, [sp]
  87 002e 043A     		subs	r2, r2, #4
  88 0030 1846     		mov	r0, r3
  89 0032 4FF4A471 		mov	r1, #328
  90 0036 2B46     		mov	r3, r5
  91 0038 FFF7FEFF 		bl	chThdCreateStatic
  92              	.LVL1:
  93              	.LBB265:
  94              	.LBB266:
  95              		.loc 2 189 0
  96 003c BA69     		ldr	r2, [r7, #24]
  97              	.LBE266:
  98              	.LBE265:
  99              		.loc 1 69 0
 100 003e B368     		ldr	r3, [r6, #8]
 101 0040 9268     		ldr	r2, [r2, #8]
 102 0042 1D49     		ldr	r1, .L2+24
 103              		.loc 1 68 0
 104 0044 6060     		str	r0, [r4, #4]
 105              		.loc 1 69 0
 106 0046 0091     		str	r1, [sp]
 107 0048 033A     		subs	r2, r2, #3
 108 004a 1846     		mov	r0, r3
 109 004c 4FF4A471 		mov	r1, #328
 110 0050 2B46     		mov	r3, r5
 111 0052 FFF7FEFF 		bl	chThdCreateStatic
 112              	.LVL2:
 113              	.LBB267:
 114              	.LBB268:
ARM GAS  /tmp/ccaUkCPv.s 			page 3


 115              		.loc 2 189 0
 116 0056 BA69     		ldr	r2, [r7, #24]
 117              	.LBE268:
 118              	.LBE267:
 119              		.loc 1 70 0
 120 0058 F368     		ldr	r3, [r6, #12]
 121 005a 9268     		ldr	r2, [r2, #8]
 122 005c 1749     		ldr	r1, .L2+28
 123              		.loc 1 69 0
 124 005e A060     		str	r0, [r4, #8]
 125              		.loc 1 70 0
 126 0060 0091     		str	r1, [sp]
 127 0062 023A     		subs	r2, r2, #2
 128 0064 1846     		mov	r0, r3
 129 0066 4FF4A471 		mov	r1, #328
 130 006a 2B46     		mov	r3, r5
 131 006c FFF7FEFF 		bl	chThdCreateStatic
 132              	.LVL3:
 133              	.LBB269:
 134              	.LBB270:
 135              		.loc 2 189 0
 136 0070 BA69     		ldr	r2, [r7, #24]
 137              	.LBE270:
 138              	.LBE269:
 139              		.loc 1 71 0
 140 0072 3369     		ldr	r3, [r6, #16]
 141 0074 9268     		ldr	r2, [r2, #8]
 142 0076 1249     		ldr	r1, .L2+32
 143              		.loc 1 70 0
 144 0078 E060     		str	r0, [r4, #12]
 145              		.loc 1 71 0
 146 007a 013A     		subs	r2, r2, #1
 147 007c 0091     		str	r1, [sp]
 148 007e 1846     		mov	r0, r3
 149 0080 4FF4A471 		mov	r1, #328
 150 0084 2B46     		mov	r3, r5
 151 0086 FFF7FEFF 		bl	chThdCreateStatic
 152              	.LVL4:
 153 008a 2061     		str	r0, [r4, #16]
 154              		.loc 1 72 0
 155 008c FFF7FEFF 		bl	test_wait_threads
 156              	.LVL5:
 157              		.loc 1 73 0
 158 0090 0C49     		ldr	r1, .L2+36
 159 0092 0120     		movs	r0, #1
 160              		.loc 1 74 0
 161 0094 03B0     		add	sp, sp, #12
 162              		@ sp needed
 163 0096 BDE8F040 		pop	{r4, r5, r6, r7, lr}
 164              		.loc 1 73 0
 165 009a FFF7FEBF 		b	_test_assert_sequence
 166              	.LVL6:
 167              	.L3:
 168 009e 00BF     		.align	2
 169              	.L2:
 170 00a0 00000000 		.word	ch
 171 00a4 00000000 		.word	wa
ARM GAS  /tmp/ccaUkCPv.s 			page 4


 172 00a8 00000000 		.word	thread
 173 00ac 00000000 		.word	.LC0
 174 00b0 00000000 		.word	threads
 175 00b4 04000000 		.word	.LC1
 176 00b8 08000000 		.word	.LC2
 177 00bc 0C000000 		.word	.LC3
 178 00c0 10000000 		.word	.LC4
 179 00c4 14000000 		.word	.LC5
 180              		.cfi_endproc
 181              	.LFE242:
 182              		.size	thd1_execute, .-thd1_execute
 183 00c8 AFF30080 		.section	.text.thread,"ax",%progbits
 183      AFF30080 
 184              		.align	2
 185              		.p2align 4,,15
 186              		.thumb
 187              		.thumb_func
 188              		.type	thread, %function
 189              	thread:
 190              	.LFB241:
 191              		.loc 1 60 0
 192              		.cfi_startproc
 193              		@ args = 0, pretend = 0, frame = 0
 194              		@ frame_needed = 0, uses_anonymous_args = 0
 195              		@ link register save eliminated.
 196              	.LVL7:
 197              		.loc 1 62 0
 198 0000 0078     		ldrb	r0, [r0]	@ zero_extendqisi2
 199              	.LVL8:
 200 0002 FFF7FEBF 		b	test_emit_token
 201              	.LVL9:
 202              		.cfi_endproc
 203              	.LFE241:
 204              		.size	thread, .-thread
 205 0006 00BFAFF3 		.section	.text.thd2_execute,"ax",%progbits
 205      0080AFF3 
 205      0080
 206              		.align	2
 207              		.p2align 4,,15
 208              		.thumb
 209              		.thumb_func
 210              		.type	thd2_execute, %function
 211              	thd2_execute:
 212              	.LFB243:
 213              		.loc 1 93 0
 214              		.cfi_startproc
 215              		@ args = 0, pretend = 0, frame = 0
 216              		@ frame_needed = 0, uses_anonymous_args = 0
 217 0000 F0B5     		push	{r4, r5, r6, r7, lr}
 218              		.cfi_def_cfa_offset 20
 219              		.cfi_offset 4, -20
 220              		.cfi_offset 5, -16
 221              		.cfi_offset 6, -12
 222              		.cfi_offset 7, -8
 223              		.cfi_offset 14, -4
 224              	.LBB271:
 225              	.LBB272:
ARM GAS  /tmp/ccaUkCPv.s 			page 5


 226              	.LBB273:
 227              	.LBB274:
 228              		.loc 2 176 0
 229 0002 2B4F     		ldr	r7, .L6
 230              	.LBE274:
 231              	.LBE273:
 232              	.LBE272:
 233              	.LBE271:
 234              		.loc 1 95 0
 235 0004 2B4E     		ldr	r6, .L6+4
 236              	.LBB276:
 237              	.LBB275:
 238              		.loc 2 189 0
 239 0006 BB69     		ldr	r3, [r7, #24]
 240              	.LBE275:
 241              	.LBE276:
 242              		.loc 1 95 0
 243 0008 2B4D     		ldr	r5, .L6+8
 244 000a 9A68     		ldr	r2, [r3, #8]
 245 000c 2B4B     		ldr	r3, .L6+12
 246 000e 7068     		ldr	r0, [r6, #4]
 247 0010 2B4C     		ldr	r4, .L6+16
 248              		.loc 1 93 0
 249 0012 83B0     		sub	sp, sp, #12
 250              		.cfi_def_cfa_offset 32
 251              		.loc 1 95 0
 252 0014 043A     		subs	r2, r2, #4
 253 0016 0093     		str	r3, [sp]
 254 0018 4FF4A471 		mov	r1, #328
 255 001c 2B46     		mov	r3, r5
 256 001e FFF7FEFF 		bl	chThdCreateStatic
 257              	.LVL10:
 258              	.LBB277:
 259              	.LBB278:
 260              		.loc 2 189 0
 261 0022 BB69     		ldr	r3, [r7, #24]
 262              	.LBE278:
 263              	.LBE277:
 264              		.loc 1 96 0
 265 0024 2749     		ldr	r1, .L6+20
 266 0026 9A68     		ldr	r2, [r3, #8]
 267 0028 3368     		ldr	r3, [r6]
 268              		.loc 1 95 0
 269 002a 6060     		str	r0, [r4, #4]
 270              		.loc 1 96 0
 271 002c 0091     		str	r1, [sp]
 272 002e 053A     		subs	r2, r2, #5
 273 0030 1846     		mov	r0, r3
 274 0032 4FF4A471 		mov	r1, #328
 275 0036 2B46     		mov	r3, r5
 276 0038 FFF7FEFF 		bl	chThdCreateStatic
 277              	.LVL11:
 278              	.LBB279:
 279              	.LBB280:
 280              		.loc 2 189 0
 281 003c BA69     		ldr	r2, [r7, #24]
 282              	.LBE280:
ARM GAS  /tmp/ccaUkCPv.s 			page 6


 283              	.LBE279:
 284              		.loc 1 97 0
 285 003e 3369     		ldr	r3, [r6, #16]
 286 0040 9268     		ldr	r2, [r2, #8]
 287 0042 2149     		ldr	r1, .L6+24
 288              		.loc 1 96 0
 289 0044 2060     		str	r0, [r4]
 290              		.loc 1 97 0
 291 0046 0091     		str	r1, [sp]
 292 0048 013A     		subs	r2, r2, #1
 293 004a 1846     		mov	r0, r3
 294 004c 4FF4A471 		mov	r1, #328
 295 0050 2B46     		mov	r3, r5
 296 0052 FFF7FEFF 		bl	chThdCreateStatic
 297              	.LVL12:
 298              	.LBB281:
 299              	.LBB282:
 300              		.loc 2 189 0
 301 0056 BA69     		ldr	r2, [r7, #24]
 302              	.LBE282:
 303              	.LBE281:
 304              		.loc 1 98 0
 305 0058 F368     		ldr	r3, [r6, #12]
 306 005a 9268     		ldr	r2, [r2, #8]
 307 005c 1B49     		ldr	r1, .L6+28
 308              		.loc 1 97 0
 309 005e 2061     		str	r0, [r4, #16]
 310              		.loc 1 98 0
 311 0060 0091     		str	r1, [sp]
 312 0062 023A     		subs	r2, r2, #2
 313 0064 1846     		mov	r0, r3
 314 0066 4FF4A471 		mov	r1, #328
 315 006a 2B46     		mov	r3, r5
 316 006c FFF7FEFF 		bl	chThdCreateStatic
 317              	.LVL13:
 318              	.LBB283:
 319              	.LBB284:
 320              	.LBB285:
 321              	.LBB286:
 322              		.file 3 "../ChibiOS/os/ext/CMSIS/include/core_cmFunc.h"
 323              		.loc 3 548 0
 324 0070 2023     		movs	r3, #32
 325              	.LBE286:
 326              	.LBE285:
 327              	.LBE284:
 328              	.LBE283:
 329              		.loc 1 98 0
 330 0072 E060     		str	r0, [r4, #12]
 331              	.LVL14:
 332              	.LBB290:
 333              	.LBB289:
 334              	.LBB288:
 335              	.LBB287:
 336              		.loc 3 548 0
 337              	@ 548 "../ChibiOS/os/ext/CMSIS/include/core_cmFunc.h" 1
 338 0074 83F31188 		MSR basepri, r3
 339              	@ 0 "" 2
ARM GAS  /tmp/ccaUkCPv.s 			page 7


 340              		.thumb
 341              	.LBE287:
 342              	.LBE288:
 343              	.LBE289:
 344              	.LBE290:
 345              	.LBB291:
 346              	.LBB292:
 347              		.loc 2 189 0
 348 0078 BB69     		ldr	r3, [r7, #24]
 349              	.LBE292:
 350              	.LBE291:
 351              		.loc 1 101 0
 352 007a B068     		ldr	r0, [r6, #8]
 353 007c 9A68     		ldr	r2, [r3, #8]
 354 007e 144B     		ldr	r3, .L6+32
 355 0080 0093     		str	r3, [sp]
 356 0082 033A     		subs	r2, r2, #3
 357 0084 2B46     		mov	r3, r5
 358 0086 4FF4A471 		mov	r1, #328
 359 008a FFF7FEFF 		bl	chThdCreateI
 360              	.LVL15:
 361              	.LBB293:
 362              	.LBB294:
 363              	.LBB295:
 364              	.LBB296:
 365              	.LBB297:
 366              		.loc 3 548 0
 367 008e 0023     		movs	r3, #0
 368              	.LBE297:
 369              	.LBE296:
 370              	.LBE295:
 371              	.LBE294:
 372              	.LBE293:
 373              		.loc 1 101 0
 374 0090 A060     		str	r0, [r4, #8]
 375              	.LVL16:
 376              	.LBB302:
 377              	.LBB301:
 378              	.LBB300:
 379              	.LBB299:
 380              	.LBB298:
 381              		.loc 3 548 0
 382              	@ 548 "../ChibiOS/os/ext/CMSIS/include/core_cmFunc.h" 1
 383 0092 83F31188 		MSR basepri, r3
 384              	@ 0 "" 2
 385              		.thumb
 386              	.LBE298:
 387              	.LBE299:
 388              	.LBE300:
 389              	.LBE301:
 390              	.LBE302:
 391              		.loc 1 103 0
 392 0096 A068     		ldr	r0, [r4, #8]
 393 0098 FFF7FEFF 		bl	chThdStart
 394              	.LVL17:
 395              		.loc 1 104 0
 396 009c FFF7FEFF 		bl	test_wait_threads
ARM GAS  /tmp/ccaUkCPv.s 			page 8


 397              	.LVL18:
 398              		.loc 1 105 0
 399 00a0 0C49     		ldr	r1, .L6+36
 400 00a2 0120     		movs	r0, #1
 401              		.loc 1 106 0
 402 00a4 03B0     		add	sp, sp, #12
 403              		@ sp needed
 404 00a6 BDE8F040 		pop	{r4, r5, r6, r7, lr}
 405              		.loc 1 105 0
 406 00aa FFF7FEBF 		b	_test_assert_sequence
 407              	.LVL19:
 408              	.L7:
 409 00ae 00BF     		.align	2
 410              	.L6:
 411 00b0 00000000 		.word	ch
 412 00b4 00000000 		.word	wa
 413 00b8 00000000 		.word	thread
 414 00bc 04000000 		.word	.LC1
 415 00c0 00000000 		.word	threads
 416 00c4 00000000 		.word	.LC0
 417 00c8 10000000 		.word	.LC4
 418 00cc 0C000000 		.word	.LC3
 419 00d0 08000000 		.word	.LC2
 420 00d4 14000000 		.word	.LC5
 421              		.cfi_endproc
 422              	.LFE243:
 423              		.size	thd2_execute, .-thd2_execute
 424 00d8 AFF30080 		.section	.text.thd3_execute,"ax",%progbits
 424      AFF30080 
 425              		.align	2
 426              		.p2align 4,,15
 427              		.thumb
 428              		.thumb_func
 429              		.type	thd3_execute, %function
 430              	thd3_execute:
 431              	.LFB244:
 432              		.loc 1 125 0
 433              		.cfi_startproc
 434              		@ args = 0, pretend = 0, frame = 0
 435              		@ frame_needed = 0, uses_anonymous_args = 0
 436 0000 F8B5     		push	{r3, r4, r5, r6, r7, lr}
 437              		.cfi_def_cfa_offset 24
 438              		.cfi_offset 3, -24
 439              		.cfi_offset 4, -20
 440              		.cfi_offset 5, -16
 441              		.cfi_offset 6, -12
 442              		.cfi_offset 7, -8
 443              		.cfi_offset 14, -4
 444              	.LBB303:
 445              	.LBB304:
 446              	.LBB305:
 447              	.LBB306:
 448              		.loc 2 176 0
 449 0002 4B4E     		ldr	r6, .L14
 450              	.LBE306:
 451              	.LBE305:
 452              		.loc 2 189 0
ARM GAS  /tmp/ccaUkCPv.s 			page 9


 453 0004 B369     		ldr	r3, [r6, #24]
 454 0006 9C68     		ldr	r4, [r3, #8]
 455              	.LBE304:
 456              	.LBE303:
 457              		.loc 1 129 0
 458 0008 651C     		adds	r5, r4, #1
 459 000a 2846     		mov	r0, r5
 460 000c FFF7FEFF 		bl	chThdSetPriority
 461              	.LVL20:
 462              		.loc 1 130 0
 463 0010 B0EB040C 		subs	ip, r0, r4
 464 0014 DCF10001 		rsbs	r1, ip, #0
 465              		.loc 1 129 0
 466 0018 0746     		mov	r7, r0
 467              	.LVL21:
 468              		.loc 1 130 0
 469 001a 51EB0C01 		adcs	r1, r1, ip
 470 001e 0120     		movs	r0, #1
 471              	.LVL22:
 472 0020 FFF7FEFF 		bl	_test_assert
 473              	.LVL23:
 474 0024 00B1     		cbz	r0, .L13
 475              	.LVL24:
 476              	.L8:
 477 0026 F8BD     		pop	{r3, r4, r5, r6, r7, pc}
 478              	.LVL25:
 479              	.L13:
 480              	.LBB307:
 481              	.LBB308:
 482              		.loc 2 189 0
 483 0028 B369     		ldr	r3, [r6, #24]
 484              	.LBE308:
 485              	.LBE307:
 486              		.loc 1 132 0
 487 002a 9968     		ldr	r1, [r3, #8]
 488 002c B5EB010E 		subs	lr, r5, r1
 489 0030 DEF10001 		rsbs	r1, lr, #0
 490 0034 51EB0E01 		adcs	r1, r1, lr
 491 0038 0220     		movs	r0, #2
 492 003a FFF7FEFF 		bl	_test_assert
 493              	.LVL26:
 494 003e 0028     		cmp	r0, #0
 495 0040 F1D1     		bne	.L8
 496              		.loc 1 134 0
 497 0042 3846     		mov	r0, r7
 498 0044 FFF7FEFF 		bl	chThdSetPriority
 499              	.LVL27:
 500              		.loc 1 135 0
 501 0048 281A     		subs	r0, r5, r0
 502              	.LVL28:
 503 004a 4142     		rsbs	r1, r0, #0
 504 004c 4141     		adcs	r1, r1, r0
 505 004e 0320     		movs	r0, #3
 506 0050 FFF7FEFF 		bl	_test_assert
 507              	.LVL29:
 508 0054 0028     		cmp	r0, #0
 509 0056 E6D1     		bne	.L8
ARM GAS  /tmp/ccaUkCPv.s 			page 10


 510              	.LBB309:
 511              	.LBB310:
 512              		.loc 2 189 0
 513 0058 B369     		ldr	r3, [r6, #24]
 514              	.LBE310:
 515              	.LBE309:
 516              		.loc 1 137 0
 517 005a 9968     		ldr	r1, [r3, #8]
 518 005c 621A     		subs	r2, r4, r1
 519 005e 5142     		rsbs	r1, r2, #0
 520 0060 5141     		adcs	r1, r1, r2
 521 0062 0420     		movs	r0, #4
 522 0064 FFF7FEFF 		bl	_test_assert
 523              	.LVL30:
 524 0068 0028     		cmp	r0, #0
 525 006a DCD1     		bne	.L8
 526              	.LVL31:
 527              	.LBB311:
 528              	.LBB312:
 529              	.LBB313:
 530              	.LBB314:
 531              		.loc 3 548 0
 532 006c 2023     		movs	r3, #32
 533              	@ 548 "../ChibiOS/os/ext/CMSIS/include/core_cmFunc.h" 1
 534 006e 83F31188 		MSR basepri, r3
 535              	@ 0 "" 2
 536              		.thumb
 537              	.LBE314:
 538              	.LBE313:
 539              	.LBE312:
 540              	.LBE311:
 541              	.LBB315:
 542              	.LBB316:
 543              		.loc 2 176 0
 544 0072 B369     		ldr	r3, [r6, #24]
 545              	.LBE316:
 546              	.LBE315:
 547              		.loc 1 143 0
 548 0074 9A68     		ldr	r2, [r3, #8]
 549 0076 0232     		adds	r2, r2, #2
 550 0078 9A60     		str	r2, [r3, #8]
 551              	.LVL32:
 552              	.LBB317:
 553              	.LBB318:
 554              	.LBB319:
 555              	.LBB320:
 556              	.LBB321:
 557              		.loc 3 548 0
 558              	@ 548 "../ChibiOS/os/ext/CMSIS/include/core_cmFunc.h" 1
 559 007a 80F31188 		MSR basepri, r0
 560              	@ 0 "" 2
 561              		.thumb
 562              	.LBE321:
 563              	.LBE320:
 564              	.LBE319:
 565              	.LBE318:
 566              	.LBE317:
ARM GAS  /tmp/ccaUkCPv.s 			page 11


 567              	.LBB322:
 568              	.LBB323:
 569              		.loc 2 189 0
 570 007e B369     		ldr	r3, [r6, #24]
 571              	.LBE323:
 572              	.LBE322:
 573              		.loc 1 145 0
 574 0080 9968     		ldr	r1, [r3, #8]
 575 0082 A71C     		adds	r7, r4, #2
 576 0084 7B1A     		subs	r3, r7, r1
 577 0086 5942     		rsbs	r1, r3, #0
 578 0088 5941     		adcs	r1, r1, r3
 579 008a 0520     		movs	r0, #5
 580 008c FFF7FEFF 		bl	_test_assert
 581              	.LVL33:
 582 0090 0028     		cmp	r0, #0
 583 0092 C8D1     		bne	.L8
 584              		.loc 1 149 0
 585 0094 2846     		mov	r0, r5
 586 0096 FFF7FEFF 		bl	chThdSetPriority
 587              	.LVL34:
 588              		.loc 1 150 0
 589 009a B0EB040C 		subs	ip, r0, r4
 590 009e DCF10001 		rsbs	r1, ip, #0
 591 00a2 51EB0C01 		adcs	r1, r1, ip
 592 00a6 0620     		movs	r0, #6
 593              	.LVL35:
 594 00a8 FFF7FEFF 		bl	_test_assert
 595              	.LVL36:
 596 00ac 0028     		cmp	r0, #0
 597 00ae BAD1     		bne	.L8
 598              		.loc 1 152 0
 599 00b0 B369     		ldr	r3, [r6, #24]
 600 00b2 9968     		ldr	r1, [r3, #8]
 601 00b4 B7EB010E 		subs	lr, r7, r1
 602 00b8 DEF10001 		rsbs	r1, lr, #0
 603 00bc 51EB0E01 		adcs	r1, r1, lr
 604 00c0 0720     		movs	r0, #7
 605 00c2 FFF7FEFF 		bl	_test_assert
 606              	.LVL37:
 607 00c6 0028     		cmp	r0, #0
 608 00c8 ADD1     		bne	.L8
 609              		.loc 1 154 0
 610 00ca B369     		ldr	r3, [r6, #24]
 611 00cc 996B     		ldr	r1, [r3, #56]
 612 00ce 6F1A     		subs	r7, r5, r1
 613 00d0 7942     		rsbs	r1, r7, #0
 614 00d2 7941     		adcs	r1, r1, r7
 615 00d4 0820     		movs	r0, #8
 616 00d6 FFF7FEFF 		bl	_test_assert
 617              	.LVL38:
 618 00da 0028     		cmp	r0, #0
 619 00dc A3D1     		bne	.L8
 620              		.loc 1 158 0
 621 00de E71C     		adds	r7, r4, #3
 622 00e0 3846     		mov	r0, r7
 623 00e2 FFF7FEFF 		bl	chThdSetPriority
ARM GAS  /tmp/ccaUkCPv.s 			page 12


 624              	.LVL39:
 625              		.loc 1 159 0
 626 00e6 281A     		subs	r0, r5, r0
 627              	.LVL40:
 628 00e8 4142     		rsbs	r1, r0, #0
 629 00ea 4141     		adcs	r1, r1, r0
 630 00ec 0920     		movs	r0, #9
 631 00ee FFF7FEFF 		bl	_test_assert
 632              	.LVL41:
 633 00f2 0028     		cmp	r0, #0
 634 00f4 97D1     		bne	.L8
 635              		.loc 1 161 0
 636 00f6 B369     		ldr	r3, [r6, #24]
 637 00f8 9968     		ldr	r1, [r3, #8]
 638 00fa 7A1A     		subs	r2, r7, r1
 639 00fc 5142     		rsbs	r1, r2, #0
 640 00fe 5141     		adcs	r1, r1, r2
 641 0100 0A20     		movs	r0, #10
 642 0102 FFF7FEFF 		bl	_test_assert
 643              	.LVL42:
 644 0106 0028     		cmp	r0, #0
 645 0108 8DD1     		bne	.L8
 646              		.loc 1 163 0
 647 010a B369     		ldr	r3, [r6, #24]
 648 010c 996B     		ldr	r1, [r3, #56]
 649 010e 7B1A     		subs	r3, r7, r1
 650 0110 5942     		rsbs	r1, r3, #0
 651 0112 5941     		adcs	r1, r1, r3
 652 0114 0B20     		movs	r0, #11
 653 0116 FFF7FEFF 		bl	_test_assert
 654              	.LVL43:
 655 011a 0028     		cmp	r0, #0
 656 011c 83D1     		bne	.L8
 657              	.LVL44:
 658              	.LBB324:
 659              	.LBB325:
 660              	.LBB326:
 661              	.LBB327:
 662              		.loc 3 548 0
 663 011e 2023     		movs	r3, #32
 664              	@ 548 "../ChibiOS/os/ext/CMSIS/include/core_cmFunc.h" 1
 665 0120 83F31188 		MSR basepri, r3
 666              	@ 0 "" 2
 667              		.thumb
 668              	.LBE327:
 669              	.LBE326:
 670              	.LBE325:
 671              	.LBE324:
 672              	.LBB328:
 673              	.LBB329:
 674              		.loc 2 176 0
 675 0124 B369     		ldr	r3, [r6, #24]
 676              	.LBE329:
 677              	.LBE328:
 678              		.loc 1 167 0
 679 0126 9C60     		str	r4, [r3, #8]
 680              		.loc 1 168 0
ARM GAS  /tmp/ccaUkCPv.s 			page 13


 681 0128 9C63     		str	r4, [r3, #56]
 682              	.LVL45:
 683              	.LBB330:
 684              	.LBB331:
 685              	.LBB332:
 686              	.LBB333:
 687              	.LBB334:
 688              		.loc 3 548 0
 689              	@ 548 "../ChibiOS/os/ext/CMSIS/include/core_cmFunc.h" 1
 690 012a 80F31188 		MSR basepri, r0
 691              	@ 0 "" 2
 692              		.thumb
 693 012e 7AE7     		b	.L8
 694              	.L15:
 695              		.align	2
 696              	.L14:
 697 0130 00000000 		.word	ch
 698              	.LBE334:
 699              	.LBE333:
 700              	.LBE332:
 701              	.LBE331:
 702              	.LBE330:
 703              		.cfi_endproc
 704              	.LFE244:
 705              		.size	thd3_execute, .-thd3_execute
 706 0134 AFF30080 		.section	.text.thd4_execute,"ax",%progbits
 706      AFF30080 
 706      AFF30080 
 707              		.align	2
 708              		.p2align 4,,15
 709              		.thumb
 710              		.thumb_func
 711              		.type	thd4_execute, %function
 712              	thd4_execute:
 713              	.LFB245:
 714              		.loc 1 188 0
 715              		.cfi_startproc
 716              		@ args = 0, pretend = 0, frame = 0
 717              		@ frame_needed = 0, uses_anonymous_args = 0
 718 0000 70B5     		push	{r4, r5, r6, lr}
 719              		.cfi_def_cfa_offset 16
 720              		.cfi_offset 4, -16
 721              		.cfi_offset 5, -12
 722              		.cfi_offset 6, -8
 723              		.cfi_offset 14, -4
 724              		.loc 1 191 0
 725 0002 FFF7FEFF 		bl	test_wait_tick
 726              	.LVL46:
 727              	.LBB427:
 728              	.LBB428:
 729              	.LBB429:
 730              	.LBB430:
 731              	.LBB431:
 732              	.LBB432:
 733              		.loc 3 548 0
 734 0006 2026     		movs	r6, #32
 735              	@ 548 "../ChibiOS/os/ext/CMSIS/include/core_cmFunc.h" 1
ARM GAS  /tmp/ccaUkCPv.s 			page 14


 736 0008 86F31188 		MSR basepri, r6
 737              	@ 0 "" 2
 738              		.thumb
 739              	.LBE432:
 740              	.LBE431:
 741              	.LBE430:
 742              	.LBE429:
 743              	.LBB433:
 744              	.LBB434:
 745              	.LBB435:
 746              	.LBB436:
 747              		.file 4 "../ChibiOS/os/hal/ports/STM32/LLD/TIMv1/st_lld.h"
 748              		.loc 4 141 0
 749 000c 4FF08045 		mov	r5, #1073741824
 750              	.LBE436:
 751              	.LBE435:
 752              	.LBE434:
 753              	.LBE433:
 754              	.LBB440:
 755              	.LBB441:
 756              	.LBB442:
 757              	.LBB443:
 758              	.LBB444:
 759              		.loc 3 548 0
 760 0010 0023     		movs	r3, #0
 761              	.LBE444:
 762              	.LBE443:
 763              	.LBE442:
 764              	.LBE441:
 765              	.LBE440:
 766              	.LBB449:
 767              	.LBB439:
 768              	.LBB438:
 769              	.LBB437:
 770              		.loc 4 141 0
 771 0012 6C6A     		ldr	r4, [r5, #36]
 772              	.LVL47:
 773              	.LBE437:
 774              	.LBE438:
 775              	.LBE439:
 776              	.LBE449:
 777              	.LBB450:
 778              	.LBB448:
 779              	.LBB447:
 780              	.LBB446:
 781              	.LBB445:
 782              		.loc 3 548 0
 783              	@ 548 "../ChibiOS/os/ext/CMSIS/include/core_cmFunc.h" 1
 784 0014 83F31188 		MSR basepri, r3
 785              	@ 0 "" 2
 786              		.thumb
 787              	.LBE445:
 788              	.LBE446:
 789              	.LBE447:
 790              	.LBE448:
 791              	.LBE450:
 792              	.LBE428:
ARM GAS  /tmp/ccaUkCPv.s 			page 15


 793              	.LBE427:
 794              		.loc 1 195 0
 795 0018 4FF47A70 		mov	r0, #1000
 796 001c FFF7FEFF 		bl	chThdSleep
 797              	.LVL48:
 798              		.loc 1 196 0
 799 0020 04F57A71 		add	r1, r4, #1000
 800 0024 04F2EB32 		addw	r2, r4, #1003
 801 0028 0120     		movs	r0, #1
 802 002a FFF7FEFF 		bl	_test_assert_time_window
 803              	.LVL49:
 804 002e 00B1     		cbz	r0, .L20
 805              	.L16:
 806 0030 70BD     		pop	{r4, r5, r6, pc}
 807              	.L20:
 808              	.LVL50:
 809              	.LBB451:
 810              	.LBB452:
 811              	.LBB453:
 812              	.LBB454:
 813              	.LBB455:
 814              	.LBB456:
 815              		.loc 3 548 0
 816              	@ 548 "../ChibiOS/os/ext/CMSIS/include/core_cmFunc.h" 1
 817 0032 86F31188 		MSR basepri, r6
 818              	@ 0 "" 2
 819              		.thumb
 820              	.LBE456:
 821              	.LBE455:
 822              	.LBE454:
 823              	.LBE453:
 824              	.LBB457:
 825              	.LBB458:
 826              	.LBB459:
 827              	.LBB460:
 828              		.loc 4 141 0
 829 0036 6C6A     		ldr	r4, [r5, #36]
 830              	.LVL51:
 831              	.LBE460:
 832              	.LBE459:
 833              	.LBE458:
 834              	.LBE457:
 835              	.LBB461:
 836              	.LBB462:
 837              	.LBB463:
 838              	.LBB464:
 839              	.LBB465:
 840              		.loc 3 548 0
 841              	@ 548 "../ChibiOS/os/ext/CMSIS/include/core_cmFunc.h" 1
 842 0038 80F31188 		MSR basepri, r0
 843              	@ 0 "" 2
 844              		.thumb
 845              	.LBE465:
 846              	.LBE464:
 847              	.LBE463:
 848              	.LBE462:
 849              	.LBE461:
ARM GAS  /tmp/ccaUkCPv.s 			page 16


 850              	.LBE452:
 851              	.LBE451:
 852              		.loc 1 202 0
 853 003c 4FF47A70 		mov	r0, #1000
 854 0040 FFF7FEFF 		bl	chThdSleep
 855              	.LVL52:
 856              		.loc 1 203 0
 857 0044 04F57A71 		add	r1, r4, #1000
 858 0048 04F2EB32 		addw	r2, r4, #1003
 859 004c 0220     		movs	r0, #2
 860 004e FFF7FEFF 		bl	_test_assert_time_window
 861              	.LVL53:
 862 0052 0028     		cmp	r0, #0
 863 0054 ECD1     		bne	.L16
 864              	.LVL54:
 865              	.LBB466:
 866              	.LBB467:
 867              	.LBB468:
 868              	.LBB469:
 869              	.LBB470:
 870              	.LBB471:
 871              	.LBB472:
 872              	.LBB473:
 873              		.loc 3 548 0
 874              	@ 548 "../ChibiOS/os/ext/CMSIS/include/core_cmFunc.h" 1
 875 0056 86F31188 		MSR basepri, r6
 876              	@ 0 "" 2
 877              		.thumb
 878              	.LBE473:
 879              	.LBE472:
 880              	.LBE471:
 881              	.LBE470:
 882              	.LBB474:
 883              	.LBB475:
 884              	.LBB476:
 885              	.LBB477:
 886              		.loc 4 141 0
 887 005a 6C6A     		ldr	r4, [r5, #36]
 888              	.LVL55:
 889              	.LBE477:
 890              	.LBE476:
 891              	.LBE475:
 892              	.LBE474:
 893              	.LBB478:
 894              	.LBB479:
 895              	.LBB480:
 896              	.LBB481:
 897              	.LBB482:
 898              		.loc 3 548 0
 899              	@ 548 "../ChibiOS/os/ext/CMSIS/include/core_cmFunc.h" 1
 900 005c 80F31188 		MSR basepri, r0
 901              	@ 0 "" 2
 902              		.thumb
 903              	.LBE482:
 904              	.LBE481:
 905              	.LBE480:
 906              	.LBE479:
ARM GAS  /tmp/ccaUkCPv.s 			page 17


 907              	.LBE478:
 908              	.LBE469:
 909              	.LBE468:
 910              		.loc 1 209 0
 911 0060 42F21070 		movw	r0, #10000
 912 0064 FFF7FEFF 		bl	chThdSleep
 913              	.LVL56:
 914              		.loc 1 210 0
 915 0068 04F51C51 		add	r1, r4, #9984
 916 006c 0A46     		mov	r2, r1
 917 006e 1332     		adds	r2, r2, #19
 918 0070 1031     		adds	r1, r1, #16
 919 0072 0320     		movs	r0, #3
 920 0074 FFF7FEFF 		bl	_test_assert_time_window
 921              	.LVL57:
 922 0078 0028     		cmp	r0, #0
 923 007a D9D1     		bne	.L16
 924              	.LVL58:
 925              	.LBB483:
 926              	.LBB484:
 927              	.LBB485:
 928              	.LBB486:
 929              	.LBB487:
 930              	.LBB488:
 931              		.loc 3 548 0
 932              	@ 548 "../ChibiOS/os/ext/CMSIS/include/core_cmFunc.h" 1
 933 007c 86F31188 		MSR basepri, r6
 934              	@ 0 "" 2
 935              		.thumb
 936              	.LBE488:
 937              	.LBE487:
 938              	.LBE486:
 939              	.LBE485:
 940              	.LBB489:
 941              	.LBB490:
 942              	.LBB491:
 943              	.LBB492:
 944              		.loc 4 141 0
 945 0080 6C6A     		ldr	r4, [r5, #36]
 946              	.LVL59:
 947              	.LBE492:
 948              	.LBE491:
 949              	.LBE490:
 950              	.LBE489:
 951              	.LBB493:
 952              	.LBB494:
 953              	.LBB495:
 954              	.LBB496:
 955              	.LBB497:
 956              		.loc 3 548 0
 957              	@ 548 "../ChibiOS/os/ext/CMSIS/include/core_cmFunc.h" 1
 958 0082 80F31188 		MSR basepri, r0
 959              	@ 0 "" 2
 960              		.thumb
 961              	.LBE497:
 962              	.LBE496:
 963              	.LBE495:
ARM GAS  /tmp/ccaUkCPv.s 			page 18


 964              	.LBE494:
 965              	.LBE493:
 966              	.LBE484:
 967              	.LBE483:
 968              		.loc 1 215 0
 969 0086 04F57A75 		add	r5, r4, #1000
 970              	.LVL60:
 971              		.loc 1 216 0
 972 008a 2846     		mov	r0, r5
 973 008c FFF7FEFF 		bl	chThdSleepUntil
 974              	.LVL61:
 975              		.loc 1 217 0
 976 0090 2946     		mov	r1, r5
 977 0092 04F2EB32 		addw	r2, r4, #1003
 978 0096 0420     		movs	r0, #4
 979              	.LBE467:
 980              	.LBE466:
 981              		.loc 1 220 0
 982 0098 BDE87040 		pop	{r4, r5, r6, lr}
 983              	.LVL62:
 984              	.LBB499:
 985              	.LBB498:
 986              		.loc 1 217 0
 987 009c FFF7FEBF 		b	_test_assert_time_window
 988              	.LVL63:
 989              	.LBE498:
 990              	.LBE499:
 991              		.cfi_endproc
 992              	.LFE245:
 993              		.size	thd4_execute, .-thd4_execute
 994              		.global	patternthd
 995              		.global	testthd4
 996              		.global	testthd3
 997              		.global	testthd2
 998              		.global	testthd1
 999              		.section	.rodata.testthd1,"a",%progbits
 1000              		.align	2
 1001              		.type	testthd1, %object
 1002              		.size	testthd1, 16
 1003              	testthd1:
 1004 0000 64000000 		.word	.LC9
 1005 0004 00000000 		.word	0
 1006 0008 00000000 		.word	0
 1007 000c 00000000 		.word	thd1_execute
 1008              		.section	.rodata.testthd2,"a",%progbits
 1009              		.align	2
 1010              		.type	testthd2, %object
 1011              		.size	testthd2, 16
 1012              	testthd2:
 1013 0000 48000000 		.word	.LC8
 1014 0004 00000000 		.word	0
 1015 0008 00000000 		.word	0
 1016 000c 00000000 		.word	thd2_execute
 1017              		.section	.rodata.testthd3,"a",%progbits
 1018              		.align	2
 1019              		.type	testthd3, %object
 1020              		.size	testthd3, 16
ARM GAS  /tmp/ccaUkCPv.s 			page 19


 1021              	testthd3:
 1022 0000 2C000000 		.word	.LC7
 1023 0004 00000000 		.word	0
 1024 0008 00000000 		.word	0
 1025 000c 00000000 		.word	thd3_execute
 1026              		.section	.rodata.testthd4,"a",%progbits
 1027              		.align	2
 1028              		.type	testthd4, %object
 1029              		.size	testthd4, 16
 1030              	testthd4:
 1031 0000 1C000000 		.word	.LC6
 1032 0004 00000000 		.word	0
 1033 0008 00000000 		.word	0
 1034 000c 00000000 		.word	thd4_execute
 1035              		.section	.rodata.patternthd,"a",%progbits
 1036              		.align	2
 1037              		.type	patternthd, %object
 1038              		.size	patternthd, 20
 1039              	patternthd:
 1040 0000 00000000 		.word	testthd1
 1041 0004 00000000 		.word	testthd2
 1042 0008 00000000 		.word	testthd3
 1043 000c 00000000 		.word	testthd4
 1044 0010 00000000 		.word	0
 1045              		.section	.rodata.str1.4,"aMS",%progbits,1
 1046              		.align	2
 1047              	.LC0:
 1048 0000 4500     		.ascii	"E\000"
 1049 0002 0000     		.space	2
 1050              	.LC1:
 1051 0004 4400     		.ascii	"D\000"
 1052 0006 0000     		.space	2
 1053              	.LC2:
 1054 0008 4300     		.ascii	"C\000"
 1055 000a 0000     		.space	2
 1056              	.LC3:
 1057 000c 4200     		.ascii	"B\000"
 1058 000e 0000     		.space	2
 1059              	.LC4:
 1060 0010 4100     		.ascii	"A\000"
 1061 0012 0000     		.space	2
 1062              	.LC5:
 1063 0014 41424344 		.ascii	"ABCDE\000"
 1063      4500
 1064 001a 0000     		.space	2
 1065              	.LC6:
 1066 001c 54687265 		.ascii	"Threads, delays\000"
 1066      6164732C 
 1066      2064656C 
 1066      61797300 
 1067              	.LC7:
 1068 002c 54687265 		.ascii	"Threads, priority change\000"
 1068      6164732C 
 1068      20707269 
 1068      6F726974 
 1068      79206368 
 1069 0045 000000   		.space	3
ARM GAS  /tmp/ccaUkCPv.s 			page 20


 1070              	.LC8:
 1071 0048 54687265 		.ascii	"Threads, enqueuing test #2\000"
 1071      6164732C 
 1071      20656E71 
 1071      75657569 
 1071      6E672074 
 1072 0063 00       		.space	1
 1073              	.LC9:
 1074 0064 54687265 		.ascii	"Threads, enqueuing test #1\000"
 1074      6164732C 
 1074      20656E71 
 1074      75657569 
 1074      6E672074 
 1075 007f 00       		.text
 1076              	.Letext0:
 1077              		.file 5 "/nfs/nfs5/home/research/hardware/arm2/gcc-arm-embedded/gcc-arm-none-eabi-4_8-2014q2/lib/g
 1078              		.file 6 "/nfs/nfs5/home/research/hardware/arm2/gcc-arm-embedded/gcc-arm-none-eabi-4_8-2014q2/arm-n
 1079              		.file 7 "/nfs/nfs5/home/research/hardware/arm2/gcc-arm-embedded/gcc-arm-none-eabi-4_8-2014q2/arm-n
 1080              		.file 8 "../ChibiOS/os/rt/ports/ARMCMx/compilers/GCC/chtypes.h"
 1081              		.file 9 "../ChibiOS/os/rt/include/chsystypes.h"
 1082              		.file 10 "../ChibiOS/os/rt/include/chschd.h"
 1083              		.file 11 "../ChibiOS/os/rt/ports/ARMCMx/chcore.h"
 1084              		.file 12 "../ChibiOS/os/rt/ports/ARMCMx/chcore_v7m.h"
 1085              		.file 13 "../ChibiOS/os/hal/ports/STM32/LLD/TIMv1/stm32_tim.h"
 1086              		.file 14 "../ChibiOS/os/rt/include/chtm.h"
 1087              		.file 15 "../ChibiOS/os/rt/include/chsem.h"
 1088              		.file 16 "../ChibiOS/os/rt/include/chmtx.h"
 1089              		.file 17 "../ChibiOS/test/rt/test.h"
 1090              		.file 18 "../ChibiOS/os/rt/ports/ARMCMx/chcore_timer.h"
 1091              		.file 19 "../ChibiOS/os/rt/include/chsys.h"
 1092              		.file 20 "../ChibiOS/os/rt/include/chvt.h"
 1093              		.file 21 "../ChibiOS/os/ext/CMSIS/include/core_cm4.h"