ARM GAS  /tmp/ccDfNfz1.s 			page 1


   1              		.syntax unified
   2              		.cpu cortex-m4
   3              		.fpu softvfp
   4              		.eabi_attribute 20, 1
   5              		.eabi_attribute 21, 1
   6              		.eabi_attribute 23, 3
   7              		.eabi_attribute 24, 1
   8              		.eabi_attribute 25, 1
   9              		.eabi_attribute 26, 1
  10              		.eabi_attribute 30, 2
  11              		.eabi_attribute 34, 1
  12              		.eabi_attribute 18, 4
  13              		.thumb
  14              		.file	"testheap.c"
  15              		.text
  16              	.Ltext0:
  17              		.cfi_sections	.debug_frame
  18              		.section	.text.heap1_execute,"ax",%progbits
  19              		.align	2
  20              		.p2align 4,,15
  21              		.thumb
  22              		.thumb_func
  23              		.type	heap1_execute, %function
  24              	heap1_execute:
  25              	.LFB242:
  26              		.file 1 "../ChibiOS/test/rt/testheap.c"
  27              		.loc 1 69 0
  28              		.cfi_startproc
  29              		@ args = 0, pretend = 0, frame = 8
  30              		@ frame_needed = 0, uses_anonymous_args = 0
  31 0000 70B5     		push	{r4, r5, r6, lr}
  32              		.cfi_def_cfa_offset 16
  33              		.cfi_offset 4, -16
  34              		.cfi_offset 5, -12
  35              		.cfi_offset 6, -8
  36              		.cfi_offset 14, -4
  37 0002 82B0     		sub	sp, sp, #8
  38              		.cfi_def_cfa_offset 24
  39              		.loc 1 74 0
  40 0004 FFF7FEFF 		bl	chCoreGetStatusX
  41              	.LVL0:
  42              		.loc 1 80 0
  43 0008 01A9     		add	r1, sp, #4
  44 000a 0020     		movs	r0, #0
  45 000c FFF7FEFF 		bl	chHeapStatus
  46              	.LVL1:
  47              		.loc 1 81 0
  48 0010 1021     		movs	r1, #16
  49 0012 0020     		movs	r0, #0
  50 0014 FFF7FEFF 		bl	chHeapAlloc
  51              	.LVL2:
  52              		.loc 1 82 0
  53 0018 011C     		adds	r1, r0, #0
  54 001a 0446     		mov	r4, r0
  55 001c 18BF     		it	ne
  56 001e 0121     		movne	r1, #1
  57 0020 0120     		movs	r0, #1
ARM GAS  /tmp/ccDfNfz1.s 			page 2


  58              	.LVL3:
  59 0022 FFF7FEFF 		bl	_test_assert
  60              	.LVL4:
  61 0026 0546     		mov	r5, r0
  62 0028 08B1     		cbz	r0, .L7
  63              	.LVL5:
  64              	.L1:
  65              		.loc 1 140 0
  66 002a 02B0     		add	sp, sp, #8
  67              		@ sp needed
  68 002c 70BD     		pop	{r4, r5, r6, pc}
  69              	.LVL6:
  70              	.L7:
  71              		.loc 1 83 0
  72 002e 2046     		mov	r0, r4
  73 0030 FFF7FEFF 		bl	chHeapFree
  74              	.LVL7:
  75              		.loc 1 84 0
  76 0034 6FF0FF01 		mvn	r1, #255
  77 0038 2846     		mov	r0, r5
  78 003a FFF7FEFF 		bl	chHeapAlloc
  79              	.LVL8:
  80              		.loc 1 85 0
  81 003e D0F10101 		rsbs	r1, r0, #1
  82 0042 38BF     		it	cc
  83 0044 0021     		movcc	r1, #0
  84 0046 0220     		movs	r0, #2
  85              	.LVL9:
  86 0048 FFF7FEFF 		bl	_test_assert
  87              	.LVL10:
  88 004c 0028     		cmp	r0, #0
  89 004e ECD1     		bne	.L1
  90              		.loc 1 88 0
  91 0050 01A9     		add	r1, sp, #4
  92 0052 7B48     		ldr	r0, .L8
  93 0054 FFF7FEFF 		bl	chHeapStatus
  94              	.LVL11:
  95              		.loc 1 91 0
  96 0058 1021     		movs	r1, #16
  97 005a 7948     		ldr	r0, .L8
  98 005c FFF7FEFF 		bl	chHeapAlloc
  99              	.LVL12:
 100              		.loc 1 92 0
 101 0060 1021     		movs	r1, #16
 102              		.loc 1 91 0
 103 0062 0546     		mov	r5, r0
 104              	.LVL13:
 105              		.loc 1 92 0
 106 0064 7648     		ldr	r0, .L8
 107              	.LVL14:
 108 0066 FFF7FEFF 		bl	chHeapAlloc
 109              	.LVL15:
 110              		.loc 1 93 0
 111 006a 1021     		movs	r1, #16
 112              		.loc 1 92 0
 113 006c 0446     		mov	r4, r0
 114              	.LVL16:
ARM GAS  /tmp/ccDfNfz1.s 			page 3


 115              		.loc 1 93 0
 116 006e 7448     		ldr	r0, .L8
 117              	.LVL17:
 118 0070 FFF7FEFF 		bl	chHeapAlloc
 119              	.LVL18:
 120 0074 0646     		mov	r6, r0
 121              	.LVL19:
 122              		.loc 1 94 0
 123 0076 2846     		mov	r0, r5
 124              	.LVL20:
 125 0078 FFF7FEFF 		bl	chHeapFree
 126              	.LVL21:
 127              		.loc 1 95 0
 128 007c 2046     		mov	r0, r4
 129 007e FFF7FEFF 		bl	chHeapFree
 130              	.LVL22:
 131              		.loc 1 96 0
 132 0082 3046     		mov	r0, r6
 133 0084 FFF7FEFF 		bl	chHeapFree
 134              	.LVL23:
 135              		.loc 1 97 0
 136 0088 6946     		mov	r1, sp
 137 008a 6D48     		ldr	r0, .L8
 138 008c FFF7FEFF 		bl	chHeapStatus
 139              	.LVL24:
 140 0090 421E     		subs	r2, r0, #1
 141 0092 5142     		rsbs	r1, r2, #0
 142 0094 5141     		adcs	r1, r1, r2
 143 0096 0320     		movs	r0, #3
 144 0098 FFF7FEFF 		bl	_test_assert
 145              	.LVL25:
 146 009c 0028     		cmp	r0, #0
 147 009e C4D1     		bne	.L1
 148              		.loc 1 100 0
 149 00a0 1021     		movs	r1, #16
 150 00a2 6748     		ldr	r0, .L8
 151 00a4 FFF7FEFF 		bl	chHeapAlloc
 152              	.LVL26:
 153              		.loc 1 101 0
 154 00a8 1021     		movs	r1, #16
 155              		.loc 1 100 0
 156 00aa 0446     		mov	r4, r0
 157              	.LVL27:
 158              		.loc 1 101 0
 159 00ac 6448     		ldr	r0, .L8
 160              	.LVL28:
 161 00ae FFF7FEFF 		bl	chHeapAlloc
 162              	.LVL29:
 163              		.loc 1 102 0
 164 00b2 1021     		movs	r1, #16
 165              		.loc 1 101 0
 166 00b4 0546     		mov	r5, r0
 167              	.LVL30:
 168              		.loc 1 102 0
 169 00b6 6248     		ldr	r0, .L8
 170              	.LVL31:
 171 00b8 FFF7FEFF 		bl	chHeapAlloc
ARM GAS  /tmp/ccDfNfz1.s 			page 4


 172              	.LVL32:
 173              		.loc 1 103 0
 174 00bc FFF7FEFF 		bl	chHeapFree
 175              	.LVL33:
 176              		.loc 1 104 0
 177 00c0 2846     		mov	r0, r5
 178 00c2 FFF7FEFF 		bl	chHeapFree
 179              	.LVL34:
 180              		.loc 1 105 0
 181 00c6 2046     		mov	r0, r4
 182 00c8 FFF7FEFF 		bl	chHeapFree
 183              	.LVL35:
 184              		.loc 1 106 0
 185 00cc 6946     		mov	r1, sp
 186 00ce 5C48     		ldr	r0, .L8
 187 00d0 FFF7FEFF 		bl	chHeapStatus
 188              	.LVL36:
 189 00d4 431E     		subs	r3, r0, #1
 190 00d6 5942     		rsbs	r1, r3, #0
 191 00d8 5941     		adcs	r1, r1, r3
 192 00da 0420     		movs	r0, #4
 193 00dc FFF7FEFF 		bl	_test_assert
 194              	.LVL37:
 195 00e0 0028     		cmp	r0, #0
 196 00e2 A2D1     		bne	.L1
 197              		.loc 1 109 0
 198 00e4 1121     		movs	r1, #17
 199 00e6 5648     		ldr	r0, .L8
 200 00e8 FFF7FEFF 		bl	chHeapAlloc
 201              	.LVL38:
 202              		.loc 1 110 0
 203 00ec 1021     		movs	r1, #16
 204              		.loc 1 109 0
 205 00ee 0446     		mov	r4, r0
 206              	.LVL39:
 207              		.loc 1 110 0
 208 00f0 5348     		ldr	r0, .L8
 209              	.LVL40:
 210 00f2 FFF7FEFF 		bl	chHeapAlloc
 211              	.LVL41:
 212 00f6 0546     		mov	r5, r0
 213              	.LVL42:
 214              		.loc 1 111 0
 215 00f8 2046     		mov	r0, r4
 216              	.LVL43:
 217 00fa FFF7FEFF 		bl	chHeapFree
 218              	.LVL44:
 219              		.loc 1 112 0
 220 00fe 6946     		mov	r1, sp
 221 0100 4F48     		ldr	r0, .L8
 222 0102 FFF7FEFF 		bl	chHeapStatus
 223              	.LVL45:
 224 0106 B0F1020C 		subs	ip, r0, #2
 225 010a DCF10001 		rsbs	r1, ip, #0
 226 010e 51EB0C01 		adcs	r1, r1, ip
 227 0112 0520     		movs	r0, #5
 228 0114 FFF7FEFF 		bl	_test_assert
ARM GAS  /tmp/ccDfNfz1.s 			page 5


 229              	.LVL46:
 230 0118 0028     		cmp	r0, #0
 231 011a 86D1     		bne	.L1
 232              		.loc 1 113 0
 233 011c 1021     		movs	r1, #16
 234 011e 4848     		ldr	r0, .L8
 235 0120 FFF7FEFF 		bl	chHeapAlloc
 236              	.LVL47:
 237              		.loc 1 116 0
 238 0124 6946     		mov	r1, sp
 239              		.loc 1 113 0
 240 0126 0446     		mov	r4, r0
 241              	.LVL48:
 242              		.loc 1 116 0
 243 0128 4548     		ldr	r0, .L8
 244              	.LVL49:
 245 012a FFF7FEFF 		bl	chHeapStatus
 246              	.LVL50:
 247 012e 0128     		cmp	r0, #1
 248 0130 00F08380 		beq	.L5
 249              		.loc 1 116 0 is_stmt 0 discriminator 2
 250 0134 6946     		mov	r1, sp
 251 0136 4248     		ldr	r0, .L8
 252 0138 FFF7FEFF 		bl	chHeapStatus
 253              	.LVL51:
 254 013c B0F1020E 		subs	lr, r0, #2
 255 0140 DEF10001 		rsbs	r1, lr, #0
 256 0144 51EB0E01 		adcs	r1, r1, lr
 257              	.L3:
 258              		.loc 1 116 0 discriminator 4
 259 0148 0620     		movs	r0, #6
 260 014a FFF7FEFF 		bl	_test_assert
 261              	.LVL52:
 262 014e 0028     		cmp	r0, #0
 263 0150 7FF46BAF 		bne	.L1
 264              		.loc 1 118 0 is_stmt 1
 265 0154 2846     		mov	r0, r5
 266 0156 FFF7FEFF 		bl	chHeapFree
 267              	.LVL53:
 268              		.loc 1 119 0
 269 015a 2046     		mov	r0, r4
 270 015c FFF7FEFF 		bl	chHeapFree
 271              	.LVL54:
 272              		.loc 1 120 0
 273 0160 6946     		mov	r1, sp
 274 0162 3748     		ldr	r0, .L8
 275 0164 FFF7FEFF 		bl	chHeapStatus
 276              	.LVL55:
 277 0168 461E     		subs	r6, r0, #1
 278 016a 7142     		rsbs	r1, r6, #0
 279 016c 7141     		adcs	r1, r1, r6
 280 016e 0720     		movs	r0, #7
 281 0170 FFF7FEFF 		bl	_test_assert
 282              	.LVL56:
 283 0174 0028     		cmp	r0, #0
 284 0176 7FF458AF 		bne	.L1
 285              		.loc 1 123 0
ARM GAS  /tmp/ccDfNfz1.s 			page 6


 286 017a 1021     		movs	r1, #16
 287 017c 3048     		ldr	r0, .L8
 288 017e FFF7FEFF 		bl	chHeapAlloc
 289              	.LVL57:
 290              		.loc 1 124 0
 291 0182 1021     		movs	r1, #16
 292              		.loc 1 123 0
 293 0184 0546     		mov	r5, r0
 294              	.LVL58:
 295              		.loc 1 124 0
 296 0186 2E48     		ldr	r0, .L8
 297              	.LVL59:
 298 0188 FFF7FEFF 		bl	chHeapAlloc
 299              	.LVL60:
 300 018c 0446     		mov	r4, r0
 301              	.LVL61:
 302              		.loc 1 125 0
 303 018e 2846     		mov	r0, r5
 304              	.LVL62:
 305 0190 FFF7FEFF 		bl	chHeapFree
 306              	.LVL63:
 307              		.loc 1 126 0
 308 0194 6946     		mov	r1, sp
 309 0196 2A48     		ldr	r0, .L8
 310 0198 FFF7FEFF 		bl	chHeapStatus
 311              	.LVL64:
 312 019c 851E     		subs	r5, r0, #2
 313              	.LVL65:
 314 019e 6942     		rsbs	r1, r5, #0
 315 01a0 6941     		adcs	r1, r1, r5
 316 01a2 0820     		movs	r0, #8
 317 01a4 FFF7FEFF 		bl	_test_assert
 318              	.LVL66:
 319 01a8 0028     		cmp	r0, #0
 320 01aa 7FF43EAF 		bne	.L1
 321              		.loc 1 127 0
 322 01ae 2021     		movs	r1, #32
 323 01b0 2348     		ldr	r0, .L8
 324 01b2 FFF7FEFF 		bl	chHeapAlloc
 325              	.LVL67:
 326              		.loc 1 128 0
 327 01b6 FFF7FEFF 		bl	chHeapFree
 328              	.LVL68:
 329              		.loc 1 129 0
 330 01ba 2046     		mov	r0, r4
 331 01bc FFF7FEFF 		bl	chHeapFree
 332              	.LVL69:
 333              		.loc 1 130 0
 334 01c0 6946     		mov	r1, sp
 335 01c2 1F48     		ldr	r0, .L8
 336 01c4 FFF7FEFF 		bl	chHeapStatus
 337              	.LVL70:
 338 01c8 0138     		subs	r0, r0, #1
 339 01ca 4142     		rsbs	r1, r0, #0
 340 01cc 4141     		adcs	r1, r1, r0
 341 01ce 0920     		movs	r0, #9
 342 01d0 FFF7FEFF 		bl	_test_assert
ARM GAS  /tmp/ccDfNfz1.s 			page 7


 343              	.LVL71:
 344 01d4 0028     		cmp	r0, #0
 345 01d6 7FF428AF 		bne	.L1
 346              		.loc 1 133 0
 347 01da 6946     		mov	r1, sp
 348 01dc 1848     		ldr	r0, .L8
 349 01de FFF7FEFF 		bl	chHeapStatus
 350              	.LVL72:
 351              		.loc 1 134 0
 352 01e2 0099     		ldr	r1, [sp]
 353 01e4 1648     		ldr	r0, .L8
 354 01e6 FFF7FEFF 		bl	chHeapAlloc
 355              	.LVL73:
 356              		.loc 1 135 0
 357 01ea 6946     		mov	r1, sp
 358              		.loc 1 134 0
 359 01ec 0446     		mov	r4, r0
 360              	.LVL74:
 361              		.loc 1 135 0
 362 01ee 1448     		ldr	r0, .L8
 363              	.LVL75:
 364 01f0 FFF7FEFF 		bl	chHeapStatus
 365              	.LVL76:
 366 01f4 D0F10101 		rsbs	r1, r0, #1
 367 01f8 38BF     		it	cc
 368 01fa 0021     		movcc	r1, #0
 369 01fc 0A20     		movs	r0, #10
 370 01fe FFF7FEFF 		bl	_test_assert
 371              	.LVL77:
 372 0202 0028     		cmp	r0, #0
 373 0204 7FF411AF 		bne	.L1
 374              		.loc 1 136 0
 375 0208 2046     		mov	r0, r4
 376 020a FFF7FEFF 		bl	chHeapFree
 377              	.LVL78:
 378              		.loc 1 138 0
 379 020e 6946     		mov	r1, sp
 380 0210 0B48     		ldr	r0, .L8
 381 0212 FFF7FEFF 		bl	chHeapStatus
 382              	.LVL79:
 383 0216 421E     		subs	r2, r0, #1
 384 0218 5142     		rsbs	r1, r2, #0
 385 021a 5141     		adcs	r1, r1, r2
 386 021c 0B20     		movs	r0, #11
 387 021e FFF7FEFF 		bl	_test_assert
 388              	.LVL80:
 389 0222 0028     		cmp	r0, #0
 390 0224 7FF401AF 		bne	.L1
 391              		.loc 1 139 0
 392 0228 9DE80A00 		ldmia	sp, {r1, r3}
 393 022c CB1A     		subs	r3, r1, r3
 394 022e 5942     		rsbs	r1, r3, #0
 395 0230 5941     		adcs	r1, r1, r3
 396 0232 0C20     		movs	r0, #12
 397 0234 FFF7FEFF 		bl	_test_assert
 398              	.LVL81:
 399 0238 F7E6     		b	.L1
ARM GAS  /tmp/ccDfNfz1.s 			page 8


 400              	.LVL82:
 401              	.L5:
 402 023a 0146     		mov	r1, r0
 403 023c 84E7     		b	.L3
 404              	.L9:
 405 023e 00BF     		.align	2
 406              	.L8:
 407 0240 00000000 		.word	.LANCHOR0
 408              		.cfi_endproc
 409              	.LFE242:
 410              		.size	heap1_execute, .-heap1_execute
 411 0244 AFF30080 		.section	.text.heap1_setup,"ax",%progbits
 411      AFF30080 
 411      AFF30080 
 412              		.align	2
 413              		.p2align 4,,15
 414              		.thumb
 415              		.thumb_func
 416              		.type	heap1_setup, %function
 417              	heap1_setup:
 418              	.LFB241:
 419              		.loc 1 64 0
 420              		.cfi_startproc
 421              		@ args = 0, pretend = 0, frame = 0
 422              		@ frame_needed = 0, uses_anonymous_args = 0
 423              		@ link register save eliminated.
 424              		.loc 1 66 0
 425 0000 0248     		ldr	r0, .L11
 426 0002 0349     		ldr	r1, .L11+4
 427 0004 4FF4CD62 		mov	r2, #1640
 428 0008 FFF7FEBF 		b	chHeapObjectInit
 429              	.LVL83:
 430              	.L12:
 431              		.align	2
 432              	.L11:
 433 000c 00000000 		.word	.LANCHOR0
 434 0010 00000000 		.word	test
 435              		.cfi_endproc
 436              	.LFE241:
 437              		.size	heap1_setup, .-heap1_setup
 438              		.global	patternheap
 439              		.global	testheap1
 440 0014 AFF30080 		.section	.rodata.patternheap,"a",%progbits
 440      AFF30080 
 440      AFF30080 
 441              		.align	2
 442              		.type	patternheap, %object
 443              		.size	patternheap, 8
 444              	patternheap:
 445 0000 00000000 		.word	testheap1
 446 0004 00000000 		.word	0
 447              		.section	.rodata.str1.4,"aMS",%progbits,1
 448              		.align	2
 449              	.LC0:
 450 0000 48656170 		.ascii	"Heap, allocation and fragmentation test\000"
 450      2C20616C 
 450      6C6F6361 
ARM GAS  /tmp/ccDfNfz1.s 			page 9


 450      74696F6E 
 450      20616E64 
 451              		.section	.rodata.testheap1,"a",%progbits
 452              		.align	2
 453              		.type	testheap1, %object
 454              		.size	testheap1, 16
 455              	testheap1:
 456 0000 00000000 		.word	.LC0
 457 0004 00000000 		.word	heap1_setup
 458 0008 00000000 		.word	0
 459 000c 00000000 		.word	heap1_execute
 460              		.section	.bss.test_heap,"aw",%nobits
 461              		.align	3
 462              		.set	.LANCHOR0,. + 0
 463              		.type	test_heap, %object
 464              		.size	test_heap, 32
 465              	test_heap:
 466 0000 00000000 		.space	32
 466      00000000 
 466      00000000 
 466      00000000 
 466      00000000 
 467              		.text
 468              	.Letext0:
 469              		.file 2 "/nfs/nfs5/home/research/hardware/arm2/gcc-arm-embedded/gcc-arm-none-eabi-4_8-2014q2/lib/g
 470              		.file 3 "/nfs/nfs5/home/research/hardware/arm2/gcc-arm-embedded/gcc-arm-none-eabi-4_8-2014q2/arm-n
 471              		.file 4 "/nfs/nfs5/home/research/hardware/arm2/gcc-arm-embedded/gcc-arm-none-eabi-4_8-2014q2/arm-n
 472              		.file 5 "../ChibiOS/os/rt/ports/ARMCMx/compilers/GCC/chtypes.h"
 473              		.file 6 "../ChibiOS/os/rt/include/chsystypes.h"
 474              		.file 7 "../ChibiOS/os/rt/include/chschd.h"
 475              		.file 8 "../ChibiOS/os/rt/ports/ARMCMx/chcore.h"
 476              		.file 9 "../ChibiOS/os/rt/ports/ARMCMx/chcore_v7m.h"
 477              		.file 10 "../ChibiOS/os/rt/include/chtm.h"
 478              		.file 11 "../ChibiOS/os/rt/include/chsem.h"
 479              		.file 12 "../ChibiOS/os/rt/include/chmtx.h"
 480              		.file 13 "../ChibiOS/os/rt/include/chmemcore.h"
 481              		.file 14 "../ChibiOS/os/rt/include/chheap.h"
 482              		.file 15 "../ChibiOS/test/rt/test.h"
 483              		.file 16 "../ChibiOS/os/ext/CMSIS/include/core_cm4.h"