ARM GAS  /tmp/ccgotnlb.s 			page 1


   1              		.syntax unified
   2              		.cpu cortex-m4
   3              		.fpu softvfp
   4              		.eabi_attribute 20, 1
   5              		.eabi_attribute 21, 1
   6              		.eabi_attribute 23, 3
   7              		.eabi_attribute 24, 1
   8              		.eabi_attribute 25, 1
   9              		.eabi_attribute 26, 1
  10              		.eabi_attribute 30, 2
  11              		.eabi_attribute 34, 1
  12              		.eabi_attribute 18, 4
  13              		.thumb
  14              		.file	"adc.c"
  15              		.text
  16              	.Ltext0:
  17              		.cfi_sections	.debug_frame
  18              		.section	.text.adcInit,"ax",%progbits
  19              		.align	2
  20              		.p2align 4,,15
  21              		.global	adcInit
  22              		.thumb
  23              		.thumb_func
  24              		.type	adcInit, %function
  25              	adcInit:
  26              	.LFB272:
  27              		.file 1 "../ChibiOS/os/hal/src/adc.c"
  28              		.loc 1 56 0
  29              		.cfi_startproc
  30              		@ args = 0, pretend = 0, frame = 0
  31              		@ frame_needed = 0, uses_anonymous_args = 0
  32              		@ link register save eliminated.
  33              		.loc 1 58 0
  34 0000 FFF7FEBF 		b	adc_lld_init
  35              	.LVL0:
  36              		.cfi_endproc
  37              	.LFE272:
  38              		.size	adcInit, .-adcInit
  39 0004 AFF30080 		.section	.text.adcObjectInit,"ax",%progbits
  39      AFF30080 
  39      AFF30080 
  40              		.align	2
  41              		.p2align 4,,15
  42              		.global	adcObjectInit
  43              		.thumb
  44              		.thumb_func
  45              		.type	adcObjectInit, %function
  46              	adcObjectInit:
  47              	.LFB273:
  48              		.loc 1 68 0
  49              		.cfi_startproc
  50              		@ args = 0, pretend = 0, frame = 0
  51              		@ frame_needed = 0, uses_anonymous_args = 0
  52              		@ link register save eliminated.
  53              	.LVL1:
  54              		.loc 1 71 0
  55 0000 0023     		movs	r3, #0
ARM GAS  /tmp/ccgotnlb.s 			page 2


  56              		.loc 1 70 0
  57 0002 0122     		movs	r2, #1
  58 0004 0270     		strb	r2, [r0]
  59              		.loc 1 71 0
  60 0006 4360     		str	r3, [r0, #4]
  61              		.loc 1 72 0
  62 0008 8360     		str	r3, [r0, #8]
  63              		.loc 1 73 0
  64 000a C360     		str	r3, [r0, #12]
  65              		.loc 1 74 0
  66 000c 0361     		str	r3, [r0, #16]
  67              		.loc 1 76 0
  68 000e 4361     		str	r3, [r0, #20]
  69              	.LVL2:
  70              	.LBB105:
  71              	.LBB106:
  72              		.file 2 "../ChibiOS/os/hal/osal/rt/osal.h"
  73              		.loc 2 887 0
  74 0010 1830     		adds	r0, r0, #24
  75              	.LVL3:
  76 0012 FFF7FEBF 		b	chMtxObjectInit
  77              	.LVL4:
  78              	.LBE106:
  79              	.LBE105:
  80              		.cfi_endproc
  81              	.LFE273:
  82              		.size	adcObjectInit, .-adcObjectInit
  83 0016 00BFAFF3 		.section	.text.adcStart,"ax",%progbits
  83      0080AFF3 
  83      0080
  84              		.align	2
  85              		.p2align 4,,15
  86              		.global	adcStart
  87              		.thumb
  88              		.thumb_func
  89              		.type	adcStart, %function
  90              	adcStart:
  91              	.LFB274:
  92              		.loc 1 95 0
  93              		.cfi_startproc
  94              		@ args = 0, pretend = 0, frame = 0
  95              		@ frame_needed = 0, uses_anonymous_args = 0
  96              	.LVL5:
  97 0000 10B5     		push	{r4, lr}
  98              		.cfi_def_cfa_offset 8
  99              		.cfi_offset 4, -8
 100              		.cfi_offset 14, -4
 101              	.LBB107:
 102              	.LBB108:
 103              	.LBB109:
 104              	.LBB110:
 105              	.LBB111:
 106              		.file 3 "../ChibiOS/os/ext/CMSIS/include/core_cmFunc.h"
 107              		.loc 3 548 0
 108 0002 2023     		movs	r3, #32
 109              	.LBE111:
 110              	.LBE110:
ARM GAS  /tmp/ccgotnlb.s 			page 3


 111              	.LBE109:
 112              	.LBE108:
 113              	.LBE107:
 114              		.loc 1 95 0
 115 0004 0446     		mov	r4, r0
 116              	.LBB116:
 117              	.LBB115:
 118              	.LBB114:
 119              	.LBB113:
 120              	.LBB112:
 121              		.loc 3 548 0
 122              	@ 548 "../ChibiOS/os/ext/CMSIS/include/core_cmFunc.h" 1
 123 0006 83F31188 		MSR basepri, r3
 124              	@ 0 "" 2
 125              		.thumb
 126              	.LBE112:
 127              	.LBE113:
 128              	.LBE114:
 129              	.LBE115:
 130              	.LBE116:
 131              		.loc 1 102 0
 132 000a 4160     		str	r1, [r0, #4]
 133              		.loc 1 103 0
 134 000c FFF7FEFF 		bl	adc_lld_start
 135              	.LVL6:
 136              		.loc 1 104 0
 137 0010 0223     		movs	r3, #2
 138 0012 2370     		strb	r3, [r4]
 139              	.LVL7:
 140              	.LBB117:
 141              	.LBB118:
 142              	.LBB119:
 143              	.LBB120:
 144              	.LBB121:
 145              	.LBB122:
 146              		.loc 3 548 0
 147 0014 0023     		movs	r3, #0
 148              	@ 548 "../ChibiOS/os/ext/CMSIS/include/core_cmFunc.h" 1
 149 0016 83F31188 		MSR basepri, r3
 150              	@ 0 "" 2
 151              		.thumb
 152 001a 10BD     		pop	{r4, pc}
 153              	.LBE122:
 154              	.LBE121:
 155              	.LBE120:
 156              	.LBE119:
 157              	.LBE118:
 158              	.LBE117:
 159              		.cfi_endproc
 160              	.LFE274:
 161              		.size	adcStart, .-adcStart
 162 001c AFF30080 		.section	.text.adcStop,"ax",%progbits
 163              		.align	2
 164              		.p2align 4,,15
 165              		.global	adcStop
 166              		.thumb
 167              		.thumb_func
ARM GAS  /tmp/ccgotnlb.s 			page 4


 168              		.type	adcStop, %function
 169              	adcStop:
 170              	.LFB275:
 171              		.loc 1 115 0
 172              		.cfi_startproc
 173              		@ args = 0, pretend = 0, frame = 0
 174              		@ frame_needed = 0, uses_anonymous_args = 0
 175              	.LVL8:
 176 0000 10B5     		push	{r4, lr}
 177              		.cfi_def_cfa_offset 8
 178              		.cfi_offset 4, -8
 179              		.cfi_offset 14, -4
 180              	.LBB123:
 181              	.LBB124:
 182              	.LBB125:
 183              	.LBB126:
 184              	.LBB127:
 185              		.loc 3 548 0
 186 0002 2023     		movs	r3, #32
 187              	.LBE127:
 188              	.LBE126:
 189              	.LBE125:
 190              	.LBE124:
 191              	.LBE123:
 192              		.loc 1 115 0
 193 0004 0446     		mov	r4, r0
 194              	.LBB132:
 195              	.LBB131:
 196              	.LBB130:
 197              	.LBB129:
 198              	.LBB128:
 199              		.loc 3 548 0
 200              	@ 548 "../ChibiOS/os/ext/CMSIS/include/core_cmFunc.h" 1
 201 0006 83F31188 		MSR basepri, r3
 202              	@ 0 "" 2
 203              		.thumb
 204              	.LBE128:
 205              	.LBE129:
 206              	.LBE130:
 207              	.LBE131:
 208              	.LBE132:
 209              		.loc 1 122 0
 210 000a FFF7FEFF 		bl	adc_lld_stop
 211              	.LVL9:
 212              		.loc 1 123 0
 213 000e 0123     		movs	r3, #1
 214 0010 2370     		strb	r3, [r4]
 215              	.LVL10:
 216              	.LBB133:
 217              	.LBB134:
 218              	.LBB135:
 219              	.LBB136:
 220              	.LBB137:
 221              	.LBB138:
 222              		.loc 3 548 0
 223 0012 0023     		movs	r3, #0
 224              	@ 548 "../ChibiOS/os/ext/CMSIS/include/core_cmFunc.h" 1
ARM GAS  /tmp/ccgotnlb.s 			page 5


 225 0014 83F31188 		MSR basepri, r3
 226              	@ 0 "" 2
 227              		.thumb
 228 0018 10BD     		pop	{r4, pc}
 229              	.LBE138:
 230              	.LBE137:
 231              	.LBE136:
 232              	.LBE135:
 233              	.LBE134:
 234              	.LBE133:
 235              		.cfi_endproc
 236              	.LFE275:
 237              		.size	adcStop, .-adcStop
 238 001a 00BFAFF3 		.section	.text.adcStartConversion,"ax",%progbits
 238      0080
 239              		.align	2
 240              		.p2align 4,,15
 241              		.global	adcStartConversion
 242              		.thumb
 243              		.thumb_func
 244              		.type	adcStartConversion, %function
 245              	adcStartConversion:
 246              	.LFB276:
 247              		.loc 1 146 0
 248              		.cfi_startproc
 249              		@ args = 0, pretend = 0, frame = 0
 250              		@ frame_needed = 0, uses_anonymous_args = 0
 251              	.LVL11:
 252 0000 38B5     		push	{r3, r4, r5, lr}
 253              		.cfi_def_cfa_offset 16
 254              		.cfi_offset 3, -16
 255              		.cfi_offset 4, -12
 256              		.cfi_offset 5, -8
 257              		.cfi_offset 14, -4
 258              	.LBB139:
 259              	.LBB140:
 260              	.LBB141:
 261              	.LBB142:
 262              	.LBB143:
 263              		.loc 3 548 0
 264 0002 2025     		movs	r5, #32
 265              	@ 548 "../ChibiOS/os/ext/CMSIS/include/core_cmFunc.h" 1
 266 0004 85F31188 		MSR basepri, r5
 267              	@ 0 "" 2
 268              	.LVL12:
 269              		.thumb
 270              	.LBE143:
 271              	.LBE142:
 272              	.LBE141:
 273              	.LBE140:
 274              	.LBE139:
 275              	.LBB144:
 276              	.LBB145:
 277              		.loc 1 187 0
 278 0008 0325     		movs	r5, #3
 279              		.loc 1 185 0
 280 000a C360     		str	r3, [r0, #12]
ARM GAS  /tmp/ccgotnlb.s 			page 6


 281              		.loc 1 184 0
 282 000c 8260     		str	r2, [r0, #8]
 283              		.loc 1 186 0
 284 000e 0161     		str	r1, [r0, #16]
 285              		.loc 1 187 0
 286 0010 0570     		strb	r5, [r0]
 287              		.loc 1 188 0
 288 0012 FFF7FEFF 		bl	adc_lld_start_conversion
 289              	.LVL13:
 290              	.LBE145:
 291              	.LBE144:
 292              	.LBB146:
 293              	.LBB147:
 294              	.LBB148:
 295              	.LBB149:
 296              	.LBB150:
 297              	.LBB151:
 298              		.loc 3 548 0
 299 0016 0023     		movs	r3, #0
 300              	@ 548 "../ChibiOS/os/ext/CMSIS/include/core_cmFunc.h" 1
 301 0018 83F31188 		MSR basepri, r3
 302              	@ 0 "" 2
 303              		.thumb
 304 001c 38BD     		pop	{r3, r4, r5, pc}
 305              	.LBE151:
 306              	.LBE150:
 307              	.LBE149:
 308              	.LBE148:
 309              	.LBE147:
 310              	.LBE146:
 311              		.cfi_endproc
 312              	.LFE276:
 313              		.size	adcStartConversion, .-adcStartConversion
 314 001e 00BF     		.section	.text.adcStartConversionI,"ax",%progbits
 315              		.align	2
 316              		.p2align 4,,15
 317              		.global	adcStartConversionI
 318              		.thumb
 319              		.thumb_func
 320              		.type	adcStartConversionI, %function
 321              	adcStartConversionI:
 322              	.LFB277:
 323              		.loc 1 174 0
 324              		.cfi_startproc
 325              		@ args = 0, pretend = 0, frame = 0
 326              		@ frame_needed = 0, uses_anonymous_args = 0
 327              		@ link register save eliminated.
 328              	.LVL14:
 329 0000 30B4     		push	{r4, r5}
 330              		.cfi_def_cfa_offset 8
 331              		.cfi_offset 4, -8
 332              		.cfi_offset 5, -4
 333              		.loc 1 187 0
 334 0002 0325     		movs	r5, #3
 335 0004 0570     		strb	r5, [r0]
 336              		.loc 1 184 0
 337 0006 8260     		str	r2, [r0, #8]
ARM GAS  /tmp/ccgotnlb.s 			page 7


 338              		.loc 1 185 0
 339 0008 C360     		str	r3, [r0, #12]
 340              		.loc 1 186 0
 341 000a 0161     		str	r1, [r0, #16]
 342              		.loc 1 189 0
 343 000c 30BC     		pop	{r4, r5}
 344              		.loc 1 188 0
 345 000e FFF7FEBF 		b	adc_lld_start_conversion
 346              	.LVL15:
 347              		.cfi_endproc
 348              	.LFE277:
 349              		.size	adcStartConversionI, .-adcStartConversionI
 350 0012 00BFAFF3 		.section	.text.adcStopConversion,"ax",%progbits
 350      0080AFF3 
 350      0080AFF3 
 350      0080
 351              		.align	2
 352              		.p2align 4,,15
 353              		.global	adcStopConversion
 354              		.thumb
 355              		.thumb_func
 356              		.type	adcStopConversion, %function
 357              	adcStopConversion:
 358              	.LFB278:
 359              		.loc 1 201 0
 360              		.cfi_startproc
 361              		@ args = 0, pretend = 0, frame = 0
 362              		@ frame_needed = 0, uses_anonymous_args = 0
 363              	.LVL16:
 364 0000 10B5     		push	{r4, lr}
 365              		.cfi_def_cfa_offset 8
 366              		.cfi_offset 4, -8
 367              		.cfi_offset 14, -4
 368              	.LBB152:
 369              	.LBB153:
 370              	.LBB154:
 371              	.LBB155:
 372              	.LBB156:
 373              		.loc 3 548 0
 374 0002 2023     		movs	r3, #32
 375              	.LBE156:
 376              	.LBE155:
 377              	.LBE154:
 378              	.LBE153:
 379              	.LBE152:
 380              		.loc 1 201 0
 381 0004 0446     		mov	r4, r0
 382              	.LBB161:
 383              	.LBB160:
 384              	.LBB159:
 385              	.LBB158:
 386              	.LBB157:
 387              		.loc 3 548 0
 388              	@ 548 "../ChibiOS/os/ext/CMSIS/include/core_cmFunc.h" 1
 389 0006 83F31188 		MSR basepri, r3
 390              	@ 0 "" 2
 391              		.thumb
ARM GAS  /tmp/ccgotnlb.s 			page 8


 392              	.LBE157:
 393              	.LBE158:
 394              	.LBE159:
 395              	.LBE160:
 396              	.LBE161:
 397              		.loc 1 208 0
 398 000a 0378     		ldrb	r3, [r0]	@ zero_extendqisi2
 399 000c 022B     		cmp	r3, #2
 400 000e 0BD0     		beq	.L8
 401              		.loc 1 209 0
 402 0010 FFF7FEFF 		bl	adc_lld_stop_conversion
 403              	.LVL17:
 404              		.loc 1 211 0
 405 0014 2046     		mov	r0, r4
 406              		.loc 1 210 0
 407 0016 0022     		movs	r2, #0
 408              		.loc 1 211 0
 409 0018 0223     		movs	r3, #2
 410              		.loc 1 210 0
 411 001a 2261     		str	r2, [r4, #16]
 412              	.LBB162:
 413              	.LBB163:
 414              		.loc 2 743 0
 415 001c 6FF00101 		mvn	r1, #1
 416              	.LBE163:
 417              	.LBE162:
 418              		.loc 1 211 0
 419 0020 00F8143B 		strb	r3, [r0], #20
 420              	.LVL18:
 421              	.LBB165:
 422              	.LBB164:
 423              		.loc 2 743 0
 424 0024 FFF7FEFF 		bl	chThdResumeS
 425              	.LVL19:
 426              	.L8:
 427              	.LBE164:
 428              	.LBE165:
 429              	.LBB166:
 430              	.LBB167:
 431              	.LBB168:
 432              	.LBB169:
 433              	.LBB170:
 434              	.LBB171:
 435              		.loc 3 548 0
 436 0028 0023     		movs	r3, #0
 437              	@ 548 "../ChibiOS/os/ext/CMSIS/include/core_cmFunc.h" 1
 438 002a 83F31188 		MSR basepri, r3
 439              	@ 0 "" 2
 440              		.thumb
 441 002e 10BD     		pop	{r4, pc}
 442              	.LBE171:
 443              	.LBE170:
 444              	.LBE169:
 445              	.LBE168:
 446              	.LBE167:
 447              	.LBE166:
 448              		.cfi_endproc
ARM GAS  /tmp/ccgotnlb.s 			page 9


 449              	.LFE278:
 450              		.size	adcStopConversion, .-adcStopConversion
 451              		.section	.text.adcStopConversionI,"ax",%progbits
 452              		.align	2
 453              		.p2align 4,,15
 454              		.global	adcStopConversionI
 455              		.thumb
 456              		.thumb_func
 457              		.type	adcStopConversionI, %function
 458              	adcStopConversionI:
 459              	.LFB279:
 460              		.loc 1 227 0
 461              		.cfi_startproc
 462              		@ args = 0, pretend = 0, frame = 0
 463              		@ frame_needed = 0, uses_anonymous_args = 0
 464              	.LVL20:
 465              		.loc 1 236 0
 466 0000 0378     		ldrb	r3, [r0]	@ zero_extendqisi2
 467 0002 022B     		cmp	r3, #2
 468              		.loc 1 227 0
 469 0004 10B5     		push	{r4, lr}
 470              		.cfi_def_cfa_offset 8
 471              		.cfi_offset 4, -8
 472              		.cfi_offset 14, -4
 473              		.loc 1 227 0
 474 0006 0446     		mov	r4, r0
 475              		.loc 1 236 0
 476 0008 0DD0     		beq	.L13
 477              		.loc 1 237 0
 478 000a FFF7FEFF 		bl	adc_lld_stop_conversion
 479              	.LVL21:
 480              		.loc 1 239 0
 481 000e 2046     		mov	r0, r4
 482              		.loc 1 238 0
 483 0010 0022     		movs	r2, #0
 484              		.loc 1 239 0
 485 0012 0223     		movs	r3, #2
 486              		.loc 1 238 0
 487 0014 2261     		str	r2, [r4, #16]
 488              	.LBB172:
 489              	.LBB173:
 490              		.loc 2 728 0
 491 0016 6FF00101 		mvn	r1, #1
 492              	.LBE173:
 493              	.LBE172:
 494              		.loc 1 239 0
 495 001a 00F8143B 		strb	r3, [r0], #20
 496              	.LVL22:
 497              		.loc 1 242 0
 498 001e BDE81040 		pop	{r4, lr}
 499              	.LVL23:
 500              	.LBB175:
 501              	.LBB174:
 502              		.loc 2 728 0
 503 0022 FFF7FEBF 		b	chThdResumeI
 504              	.LVL24:
 505              	.L13:
ARM GAS  /tmp/ccgotnlb.s 			page 10


 506 0026 10BD     		pop	{r4, pc}
 507              	.LBE174:
 508              	.LBE175:
 509              		.cfi_endproc
 510              	.LFE279:
 511              		.size	adcStopConversionI, .-adcStopConversionI
 512 0028 AFF30080 		.section	.text.adcConvert,"ax",%progbits
 512      AFF30080 
 513              		.align	2
 514              		.p2align 4,,15
 515              		.global	adcConvert
 516              		.thumb
 517              		.thumb_func
 518              		.type	adcConvert, %function
 519              	adcConvert:
 520              	.LFB280:
 521              		.loc 1 271 0
 522              		.cfi_startproc
 523              		@ args = 0, pretend = 0, frame = 0
 524              		@ frame_needed = 0, uses_anonymous_args = 0
 525              	.LVL25:
 526 0000 70B5     		push	{r4, r5, r6, lr}
 527              		.cfi_def_cfa_offset 16
 528              		.cfi_offset 4, -16
 529              		.cfi_offset 5, -12
 530              		.cfi_offset 6, -8
 531              		.cfi_offset 14, -4
 532              	.LBB176:
 533              	.LBB177:
 534              	.LBB178:
 535              	.LBB179:
 536              	.LBB180:
 537              		.loc 3 548 0
 538 0002 2025     		movs	r5, #32
 539              	@ 548 "../ChibiOS/os/ext/CMSIS/include/core_cmFunc.h" 1
 540 0004 85F31188 		MSR basepri, r5
 541              	@ 0 "" 2
 542              	.LVL26:
 543              		.thumb
 544              	.LBE180:
 545              	.LBE179:
 546              	.LBE178:
 547              	.LBE177:
 548              	.LBE176:
 549              	.LBB181:
 550              	.LBB182:
 551              		.loc 1 187 0
 552 0008 0546     		mov	r5, r0
 553 000a 0326     		movs	r6, #3
 554              		.loc 1 184 0
 555 000c 8260     		str	r2, [r0, #8]
 556              		.loc 1 185 0
 557 000e C360     		str	r3, [r0, #12]
 558              		.loc 1 186 0
 559 0010 0161     		str	r1, [r0, #16]
 560              		.loc 1 187 0
 561 0012 05F8146B 		strb	r6, [r5], #20
ARM GAS  /tmp/ccgotnlb.s 			page 11


 562              		.loc 1 188 0
 563 0016 FFF7FEFF 		bl	adc_lld_start_conversion
 564              	.LVL27:
 565              	.LBE182:
 566              	.LBE181:
 567              	.LBB183:
 568              	.LBB184:
 569              		.loc 2 688 0
 570 001a 2846     		mov	r0, r5
 571 001c FFF7FEFF 		bl	chThdSuspendS
 572              	.LVL28:
 573              	.LBE184:
 574              	.LBE183:
 575              	.LBB185:
 576              	.LBB186:
 577              	.LBB187:
 578              	.LBB188:
 579              	.LBB189:
 580              	.LBB190:
 581              		.loc 3 548 0
 582 0020 0023     		movs	r3, #0
 583              	@ 548 "../ChibiOS/os/ext/CMSIS/include/core_cmFunc.h" 1
 584 0022 83F31188 		MSR basepri, r3
 585              	@ 0 "" 2
 586              		.thumb
 587              	.LBE190:
 588              	.LBE189:
 589              	.LBE188:
 590              	.LBE187:
 591              	.LBE186:
 592              	.LBE185:
 593              		.loc 1 280 0
 594 0026 70BD     		pop	{r4, r5, r6, pc}
 595              		.cfi_endproc
 596              	.LFE280:
 597              		.size	adcConvert, .-adcConvert
 598 0028 AFF30080 		.section	.text.adcAcquireBus,"ax",%progbits
 598      AFF30080 
 599              		.align	2
 600              		.p2align 4,,15
 601              		.global	adcAcquireBus
 602              		.thumb
 603              		.thumb_func
 604              		.type	adcAcquireBus, %function
 605              	adcAcquireBus:
 606              	.LFB281:
 607              		.loc 1 295 0
 608              		.cfi_startproc
 609              		@ args = 0, pretend = 0, frame = 0
 610              		@ frame_needed = 0, uses_anonymous_args = 0
 611              		@ link register save eliminated.
 612              	.LVL29:
 613              	.LBB191:
 614              	.LBB192:
 615              		.loc 2 907 0
 616 0000 1830     		adds	r0, r0, #24
 617              	.LVL30:
ARM GAS  /tmp/ccgotnlb.s 			page 12


 618 0002 FFF7FEBF 		b	chMtxLock
 619              	.LVL31:
 620              	.LBE192:
 621              	.LBE191:
 622              		.cfi_endproc
 623              	.LFE281:
 624              		.size	adcAcquireBus, .-adcAcquireBus
 625 0006 00BFAFF3 		.section	.text.adcReleaseBus,"ax",%progbits
 625      0080AFF3 
 625      0080
 626              		.align	2
 627              		.p2align 4,,15
 628              		.global	adcReleaseBus
 629              		.thumb
 630              		.thumb_func
 631              		.type	adcReleaseBus, %function
 632              	adcReleaseBus:
 633              	.LFB282:
 634              		.loc 1 311 0
 635              		.cfi_startproc
 636              		@ args = 0, pretend = 0, frame = 0
 637              		@ frame_needed = 0, uses_anonymous_args = 0
 638              		@ link register save eliminated.
 639              	.LVL32:
 640              	.LBB193:
 641              	.LBB194:
 642              		.loc 2 931 0
 643 0000 1830     		adds	r0, r0, #24
 644              	.LVL33:
 645 0002 FFF7FEBF 		b	chMtxUnlock
 646              	.LVL34:
 647              	.LBE194:
 648              	.LBE193:
 649              		.cfi_endproc
 650              	.LFE282:
 651              		.size	adcReleaseBus, .-adcReleaseBus
 652 0006 00BFAFF3 		.text
 652      0080AFF3 
 652      0080
 653              	.Letext0:
 654              		.file 4 "/nfs/nfs5/home/research/hardware/arm2/gcc-arm-embedded/gcc-arm-none-eabi-4_8-2014q2/lib/g
 655              		.file 5 "/nfs/nfs5/home/research/hardware/arm2/gcc-arm-embedded/gcc-arm-none-eabi-4_8-2014q2/arm-n
 656              		.file 6 "/nfs/nfs5/home/research/hardware/arm2/gcc-arm-embedded/gcc-arm-none-eabi-4_8-2014q2/arm-n
 657              		.file 7 "../ChibiOS/os/rt/ports/ARMCMx/compilers/GCC/chtypes.h"
 658              		.file 8 "../ChibiOS/os/rt/include/chsystypes.h"
 659              		.file 9 "../ChibiOS/os/rt/include/chschd.h"
 660              		.file 10 "../ChibiOS/os/ext/CMSIS/ST/STM32F3xx/stm32f303xc.h"
 661              		.file 11 "../ChibiOS/os/rt/ports/ARMCMx/chcore.h"
 662              		.file 12 "../ChibiOS/os/rt/ports/ARMCMx/chcore_v7m.h"
 663              		.file 13 "../ChibiOS/os/rt/include/chtm.h"
 664              		.file 14 "../ChibiOS/os/rt/include/chsem.h"
 665              		.file 15 "../ChibiOS/os/rt/include/chmtx.h"
 666              		.file 16 "../ChibiOS/os/hal/ports/STM32/LLD/DMAv1/stm32_dma.h"
 667              		.file 17 "../ChibiOS/os/hal/include/adc.h"
 668              		.file 18 "../ChibiOS/os/hal/ports/STM32/LLD/ADCv3/adc_lld.h"
 669              		.file 19 "../ChibiOS/os/rt/include/chsys.h"
 670              		.file 20 "../ChibiOS/os/rt/include/chthreads.h"
ARM GAS  /tmp/ccgotnlb.s 			page 13


 671              		.file 21 "../ChibiOS/os/ext/CMSIS/include/core_cm4.h"