ARM GAS  /tmp/cc7T0L4h.s 			page 1


   1              		.syntax unified
   2              		.cpu cortex-m4
   3              		.fpu softvfp
   4              		.eabi_attribute 20, 1
   5              		.eabi_attribute 21, 1
   6              		.eabi_attribute 23, 3
   7              		.eabi_attribute 24, 1
   8              		.eabi_attribute 25, 1
   9              		.eabi_attribute 26, 1
  10              		.eabi_attribute 30, 2
  11              		.eabi_attribute 34, 1
  12              		.eabi_attribute 18, 4
  13              		.thumb
  14              		.file	"adc_lld.c"
  15              		.text
  16              	.Ltext0:
  17              		.cfi_sections	.debug_frame
  18              		.section	.text.adc_lld_init,"ax",%progbits
  19              		.align	2
  20              		.p2align 4,,15
  21              		.global	adc_lld_init
  22              		.thumb
  23              		.thumb_func
  24              		.type	adc_lld_init, %function
  25              	adc_lld_init:
  26              	.LFB283:
  27              		.file 1 "../ChibiOS/os/hal/ports/STM32/LLD/ADCv3/adc_lld.c"
  28              		.loc 1 429 0
  29              		.cfi_startproc
  30              		@ args = 0, pretend = 0, frame = 8
  31              		@ frame_needed = 0, uses_anonymous_args = 0
  32 0000 2DE9F04F 		push	{r4, r5, r6, r7, r8, r9, r10, fp, lr}
  33              		.cfi_def_cfa_offset 36
  34              		.cfi_offset 4, -36
  35              		.cfi_offset 5, -32
  36              		.cfi_offset 6, -28
  37              		.cfi_offset 7, -24
  38              		.cfi_offset 8, -20
  39              		.cfi_offset 9, -16
  40              		.cfi_offset 10, -12
  41              		.cfi_offset 11, -8
  42              		.cfi_offset 14, -4
  43              		.loc 1 435 0
  44 0004 384F     		ldr	r7, .L2
  45              		.loc 1 457 0
  46 0006 394E     		ldr	r6, .L2+4
  47              		.loc 1 431 0
  48 0008 394B     		ldr	r3, .L2+8
  49              		.loc 1 474 0
  50 000a 3A4D     		ldr	r5, .L2+12
  51              		.loc 1 447 0
  52 000c DFF8FCB0 		ldr	fp, .L2+36
  53              		.loc 1 496 0
  54 0010 394C     		ldr	r4, .L2+16
  55              		.loc 1 437 0
  56 0012 DFF8FCA0 		ldr	r10, .L2+40
  57              		.loc 1 476 0
ARM GAS  /tmp/cc7T0L4h.s 			page 2


  58 0016 DFF8FC90 		ldr	r9, .L2+44
  59              		.loc 1 429 0
  60 001a 83B0     		sub	sp, sp, #12
  61              		.cfi_def_cfa_offset 48
  62              		.loc 1 431 0
  63 001c 0022     		movs	r2, #0
  64              		.loc 1 435 0
  65 001e 3846     		mov	r0, r7
  66              		.loc 1 431 0
  67 0020 1A60     		str	r2, [r3]
  68              		.loc 1 448 0
  69 0022 42F28A58 		movw	r8, #9610
  70              		.loc 1 435 0
  71 0026 0192     		str	r2, [sp, #4]
  72 0028 FFF7FEFF 		bl	adcObjectInit
  73              	.LVL0:
  74              		.loc 1 443 0
  75 002c 4FF0A043 		mov	r3, #1342177280
  76              		.loc 1 457 0
  77 0030 3046     		mov	r0, r6
  78              		.loc 1 443 0
  79 0032 BB62     		str	r3, [r7, #40]
  80              		.loc 1 437 0
  81 0034 C7F82CA0 		str	r10, [r7, #44]
  82              		.loc 1 447 0
  83 0038 C7F830B0 		str	fp, [r7, #48]
  84              		.loc 1 448 0
  85 003c C7F83480 		str	r8, [r7, #52]
  86              		.loc 1 457 0
  87 0040 FFF7FEFF 		bl	adcObjectInit
  88              	.LVL1:
  89              		.loc 1 464 0
  90 0044 0BF18C03 		add	r3, fp, #140
  91              		.loc 1 463 0
  92 0048 2C49     		ldr	r1, .L2+20
  93 004a B162     		str	r1, [r6, #40]
  94              		.loc 1 474 0
  95 004c 2846     		mov	r0, r5
  96              		.loc 1 464 0
  97 004e 3363     		str	r3, [r6, #48]
  98              		.loc 1 459 0
  99 0050 C6F82CA0 		str	r10, [r6, #44]
 100              		.loc 1 465 0
 101 0054 C6F83480 		str	r8, [r6, #52]
 102              		.loc 1 474 0
 103 0058 FFF7FEFF 		bl	adcObjectInit
 104              	.LVL2:
 105              		.loc 1 486 0
 106 005c 0BF1DC03 		add	r3, fp, #220
 107              		.loc 1 482 0
 108 0060 2749     		ldr	r1, .L2+24
 109              		.loc 1 487 0
 110 0062 C5F83480 		str	r8, [r5, #52]
 111              		.loc 1 496 0
 112 0066 2046     		mov	r0, r4
 113              		.loc 1 482 0
 114 0068 A962     		str	r1, [r5, #40]
ARM GAS  /tmp/cc7T0L4h.s 			page 3


 115              		.loc 1 486 0
 116 006a 2B63     		str	r3, [r5, #48]
 117              		.loc 1 476 0
 118 006c C5F82C90 		str	r9, [r5, #44]
 119              		.loc 1 496 0
 120 0070 FFF7FEFF 		bl	adcObjectInit
 121              	.LVL3:
 122              		.loc 1 499 0
 123 0074 0BF1A005 		add	r5, fp, #160
 124              		.loc 1 498 0
 125 0078 224B     		ldr	r3, .L2+28
 126 007a A362     		str	r3, [r4, #40]
 127              		.loc 1 509 0
 128 007c 1220     		movs	r0, #18
 129 007e 0521     		movs	r1, #5
 130              		.loc 1 500 0
 131 0080 C4F83480 		str	r8, [r4, #52]
 132              		.loc 1 499 0
 133 0084 2563     		str	r5, [r4, #48]
 134              		.loc 1 497 0
 135 0086 C4F82C90 		str	r9, [r4, #44]
 136              		.loc 1 509 0
 137 008a FFF7FEFF 		bl	nvicEnableVector
 138              	.LVL4:
 139              		.loc 1 512 0
 140 008e 2F20     		movs	r0, #47
 141 0090 0521     		movs	r1, #5
 142 0092 FFF7FEFF 		bl	nvicEnableVector
 143              	.LVL5:
 144              		.loc 1 518 0
 145 0096 3D20     		movs	r0, #61
 146 0098 0521     		movs	r1, #5
 147 009a FFF7FEFF 		bl	nvicEnableVector
 148              	.LVL6:
 149              		.loc 1 524 0
 150 009e 1A4B     		ldr	r3, .L2+32
 151              		.loc 1 525 0
 152 00a0 019A     		ldr	r2, [sp, #4]
 153              		.loc 1 524 0
 154 00a2 5969     		ldr	r1, [r3, #20]
 155 00a4 41F08051 		orr	r1, r1, #268435456
 156 00a8 5961     		str	r1, [r3, #20]
 157              		.loc 1 525 0
 158 00aa 986A     		ldr	r0, [r3, #40]
 159              		.loc 1 526 0
 160 00ac 4FF48031 		mov	r1, #65536
 161              		.loc 1 525 0
 162 00b0 40F08050 		orr	r0, r0, #268435456
 163 00b4 9862     		str	r0, [r3, #40]
 164 00b6 9A62     		str	r2, [r3, #40]
 165              		.loc 1 526 0
 166 00b8 CAF80810 		str	r1, [r10, #8]
 167              		.loc 1 527 0
 168 00bc 5869     		ldr	r0, [r3, #20]
 169 00be 20F08050 		bic	r0, r0, #268435456
 170 00c2 5861     		str	r0, [r3, #20]
 171              		.loc 1 530 0
ARM GAS  /tmp/cc7T0L4h.s 			page 4


 172 00c4 5869     		ldr	r0, [r3, #20]
 173 00c6 40F00050 		orr	r0, r0, #536870912
 174 00ca 5861     		str	r0, [r3, #20]
 175              		.loc 1 531 0
 176 00cc 986A     		ldr	r0, [r3, #40]
 177 00ce 40F00050 		orr	r0, r0, #536870912
 178 00d2 9862     		str	r0, [r3, #40]
 179 00d4 9A62     		str	r2, [r3, #40]
 180              		.loc 1 532 0
 181 00d6 C9F80810 		str	r1, [r9, #8]
 182              		.loc 1 533 0
 183 00da 5A69     		ldr	r2, [r3, #20]
 184 00dc 22F00052 		bic	r2, r2, #536870912
 185 00e0 5A61     		str	r2, [r3, #20]
 186              		.loc 1 543 0
 187 00e2 03B0     		add	sp, sp, #12
 188              		@ sp needed
 189 00e4 BDE8F08F 		pop	{r4, r5, r6, r7, r8, r9, r10, fp, pc}
 190              	.L3:
 191              		.align	2
 192              	.L2:
 193 00e8 00000000 		.word	.LANCHOR1
 194 00ec 00000000 		.word	.LANCHOR2
 195 00f0 00000000 		.word	.LANCHOR0
 196 00f4 00000000 		.word	.LANCHOR3
 197 00f8 00000000 		.word	.LANCHOR4
 198 00fc 00010050 		.word	1342177536
 199 0100 00040050 		.word	1342178304
 200 0104 00050050 		.word	1342178560
 201 0108 00100240 		.word	1073876992
 202 010c 00000000 		.word	_stm32_dma_streams
 203 0110 00030050 		.word	1342178048
 204 0114 00070050 		.word	1342179072
 205              		.cfi_endproc
 206              	.LFE283:
 207              		.size	adc_lld_init, .-adc_lld_init
 208 0118 AFF30080 		.section	.text.adc_lld_start,"ax",%progbits
 208      AFF30080 
 209              		.align	2
 210              		.p2align 4,,15
 211              		.global	adc_lld_start
 212              		.thumb
 213              		.thumb_func
 214              		.type	adc_lld_start, %function
 215              	adc_lld_start:
 216              	.LFB284:
 217              		.loc 1 552 0
 218              		.cfi_startproc
 219              		@ args = 0, pretend = 0, frame = 0
 220              		@ frame_needed = 0, uses_anonymous_args = 0
 221              	.LVL7:
 222              		.loc 1 555 0
 223 0000 4368     		ldr	r3, [r0, #4]
 224              		.loc 1 552 0
 225 0002 70B5     		push	{r4, r5, r6, lr}
 226              		.cfi_def_cfa_offset 16
 227              		.cfi_offset 4, -16
ARM GAS  /tmp/cc7T0L4h.s 			page 5


 228              		.cfi_offset 5, -12
 229              		.cfi_offset 6, -8
 230              		.cfi_offset 14, -4
 231              		.loc 1 552 0
 232 0004 0446     		mov	r4, r0
 233              		.loc 1 555 0
 234 0006 002B     		cmp	r3, #0
 235 0008 32D0     		beq	.L16
 236              	.L5:
 237              		.loc 1 560 0
 238 000a 2378     		ldrb	r3, [r4]	@ zero_extendqisi2
 239 000c 012B     		cmp	r3, #1
 240 000e 00D0     		beq	.L17
 241 0010 70BD     		pop	{r4, r5, r6, pc}
 242              	.L17:
 243              		.loc 1 562 0
 244 0012 3B4B     		ldr	r3, .L22
 245 0014 9C42     		cmp	r4, r3
 246 0016 3FD0     		beq	.L18
 247              		.loc 1 581 0
 248 0018 3A4B     		ldr	r3, .L22+4
 249 001a 9C42     		cmp	r4, r3
 250 001c 4DD0     		beq	.L19
 251              		.loc 1 600 0
 252 001e 3A4B     		ldr	r3, .L22+8
 253 0020 9C42     		cmp	r4, r3
 254 0022 5BD0     		beq	.L20
 255              		.loc 1 619 0
 256 0024 394B     		ldr	r3, .L22+12
 257 0026 9C42     		cmp	r4, r3
 258 0028 25D0     		beq	.L21
 259              	.LVL8:
 260              	.L8:
 261              		.loc 1 641 0
 262 002a 216B     		ldr	r1, [r4, #48]
 263 002c A36A     		ldr	r3, [r4, #40]
 264              		.loc 1 649 0
 265 002e 6268     		ldr	r2, [r4, #4]
 266              		.loc 1 641 0
 267 0030 4868     		ldr	r0, [r1, #4]
 268              		.loc 1 649 0
 269 0032 1568     		ldr	r5, [r2]
 270              		.loc 1 641 0
 271 0034 03F14006 		add	r6, r3, #64
 272              	.LBB157:
 273              	.LBB158:
 274              		.loc 1 117 0
 275 0038 4FF08052 		mov	r2, #268435456
 276              		.loc 1 116 0
 277 003c 0021     		movs	r1, #0
 278              	.LBE158:
 279              	.LBE157:
 280              		.loc 1 641 0
 281 003e 8660     		str	r6, [r0, #8]
 282              		.loc 1 649 0
 283 0040 C3F8B050 		str	r5, [r3, #176]
 284              	.LVL9:
ARM GAS  /tmp/cc7T0L4h.s 			page 6


 285              	.LBB164:
 286              	.LBB163:
 287              	.LBB159:
 288              	.LBB160:
 289              		.file 2 "../ChibiOS/os/hal/osal/rt/osal.h"
 290              		.loc 2 573 0
 291 0044 4FF43470 		mov	r0, #720
 292              	.LBE160:
 293              	.LBE159:
 294              		.loc 1 116 0
 295 0048 9960     		str	r1, [r3, #8]
 296              		.loc 1 117 0
 297 004a 9A60     		str	r2, [r3, #8]
 298              	.LVL10:
 299              	.LBB162:
 300              	.LBB161:
 301              		.loc 2 573 0
 302 004c FFF7FEFF 		bl	chSysPolledDelayX
 303              	.LVL11:
 304              	.LBE161:
 305              	.LBE162:
 306              	.LBE163:
 307              	.LBE164:
 308              		.loc 1 552 0
 309 0050 A36A     		ldr	r3, [r4, #40]
 310              	.LVL12:
 311              	.LBB165:
 312              	.LBB166:
 313              		.loc 1 216 0
 314 0052 9A68     		ldr	r2, [r3, #8]
 315 0054 42F00042 		orr	r2, r2, #-2147483648
 316 0058 9A60     		str	r2, [r3, #8]
 317              	.L12:
 318              		.loc 1 217 0
 319 005a 9A68     		ldr	r2, [r3, #8]
 320 005c 002A     		cmp	r2, #0
 321 005e FCDB     		blt	.L12
 322              	.LVL13:
 323              	.LBE166:
 324              	.LBE165:
 325              	.LBB167:
 326              	.LBB168:
 327              		.loc 1 168 0
 328 0060 9A68     		ldr	r2, [r3, #8]
 329 0062 42F00102 		orr	r2, r2, #1
 330 0066 9A60     		str	r2, [r3, #8]
 331              	.L14:
 332              		.loc 1 169 0
 333 0068 1A68     		ldr	r2, [r3]
 334 006a D207     		lsls	r2, r2, #31
 335 006c FCD5     		bpl	.L14
 336 006e 70BD     		pop	{r4, r5, r6, pc}
 337              	.LVL14:
 338              	.L16:
 339              	.LBE168:
 340              	.LBE167:
 341              		.loc 1 556 0
ARM GAS  /tmp/cc7T0L4h.s 			page 7


 342 0070 274B     		ldr	r3, .L22+16
 343 0072 4360     		str	r3, [r0, #4]
 344 0074 C9E7     		b	.L5
 345              	.L21:
 346              	.LBB169:
 347              		.loc 1 621 0
 348 0076 274A     		ldr	r2, .L22+20
 349 0078 206B     		ldr	r0, [r4, #48]
 350              	.LVL15:
 351 007a 0521     		movs	r1, #5
 352 007c 2346     		mov	r3, r4
 353 007e FFF7FEFF 		bl	dmaStreamAllocate
 354              	.LVL16:
 355              		.loc 1 627 0
 356 0082 254A     		ldr	r2, .L22+24
 357              		.loc 1 629 0
 358 0084 254B     		ldr	r3, .L22+28
 359              		.loc 1 627 0
 360 0086 1168     		ldr	r1, [r2]
 361 0088 41F00801 		orr	r1, r1, #8
 362 008c 1160     		str	r1, [r2]
 363              		.loc 1 629 0
 364 008e 5A69     		ldr	r2, [r3, #20]
 365 0090 42F00052 		orr	r2, r2, #536870912
 366 0094 5A61     		str	r2, [r3, #20]
 367 0096 C8E7     		b	.L8
 368              	.LVL17:
 369              	.L18:
 370              	.LBE169:
 371              	.LBB170:
 372              		.loc 1 564 0
 373 0098 1E4A     		ldr	r2, .L22+20
 374 009a 206B     		ldr	r0, [r4, #48]
 375              	.LVL18:
 376 009c 0521     		movs	r1, #5
 377 009e 2346     		mov	r3, r4
 378 00a0 FFF7FEFF 		bl	dmaStreamAllocate
 379              	.LVL19:
 380              		.loc 1 570 0
 381 00a4 1C4A     		ldr	r2, .L22+24
 382              		.loc 1 572 0
 383 00a6 1D4B     		ldr	r3, .L22+28
 384              		.loc 1 570 0
 385 00a8 1168     		ldr	r1, [r2]
 386 00aa 41F00101 		orr	r1, r1, #1
 387 00ae 1160     		str	r1, [r2]
 388              		.loc 1 572 0
 389 00b0 5A69     		ldr	r2, [r3, #20]
 390 00b2 42F08052 		orr	r2, r2, #268435456
 391 00b6 5A61     		str	r2, [r3, #20]
 392 00b8 B7E7     		b	.L8
 393              	.LVL20:
 394              	.L19:
 395              	.LBE170:
 396              	.LBB171:
 397              		.loc 1 583 0
 398 00ba 164A     		ldr	r2, .L22+20
ARM GAS  /tmp/cc7T0L4h.s 			page 8


 399 00bc 206B     		ldr	r0, [r4, #48]
 400              	.LVL21:
 401 00be 0521     		movs	r1, #5
 402 00c0 2346     		mov	r3, r4
 403 00c2 FFF7FEFF 		bl	dmaStreamAllocate
 404              	.LVL22:
 405              		.loc 1 589 0
 406 00c6 144A     		ldr	r2, .L22+24
 407              		.loc 1 591 0
 408 00c8 144B     		ldr	r3, .L22+28
 409              		.loc 1 589 0
 410 00ca 1168     		ldr	r1, [r2]
 411 00cc 41F00201 		orr	r1, r1, #2
 412 00d0 1160     		str	r1, [r2]
 413              		.loc 1 591 0
 414 00d2 5A69     		ldr	r2, [r3, #20]
 415 00d4 42F08052 		orr	r2, r2, #268435456
 416 00d8 5A61     		str	r2, [r3, #20]
 417 00da A6E7     		b	.L8
 418              	.LVL23:
 419              	.L20:
 420              	.LBE171:
 421              	.LBB172:
 422              		.loc 1 602 0
 423 00dc 0D4A     		ldr	r2, .L22+20
 424 00de 206B     		ldr	r0, [r4, #48]
 425              	.LVL24:
 426 00e0 0521     		movs	r1, #5
 427 00e2 2346     		mov	r3, r4
 428 00e4 FFF7FEFF 		bl	dmaStreamAllocate
 429              	.LVL25:
 430              		.loc 1 608 0
 431 00e8 0B4A     		ldr	r2, .L22+24
 432              		.loc 1 610 0
 433 00ea 0C4B     		ldr	r3, .L22+28
 434              		.loc 1 608 0
 435 00ec 1168     		ldr	r1, [r2]
 436 00ee 41F00401 		orr	r1, r1, #4
 437 00f2 1160     		str	r1, [r2]
 438              		.loc 1 610 0
 439 00f4 5A69     		ldr	r2, [r3, #20]
 440 00f6 42F00052 		orr	r2, r2, #536870912
 441 00fa 5A61     		str	r2, [r3, #20]
 442 00fc 95E7     		b	.L8
 443              	.L23:
 444 00fe 00BF     		.align	2
 445              	.L22:
 446 0100 00000000 		.word	.LANCHOR1
 447 0104 00000000 		.word	.LANCHOR2
 448 0108 00000000 		.word	.LANCHOR3
 449 010c 00000000 		.word	.LANCHOR4
 450 0110 00000000 		.word	.LANCHOR5
 451 0114 00000000 		.word	adc_lld_serve_dma_interrupt
 452 0118 00000000 		.word	.LANCHOR0
 453 011c 00100240 		.word	1073876992
 454              	.LBE172:
 455              		.cfi_endproc
ARM GAS  /tmp/cc7T0L4h.s 			page 9


 456              	.LFE284:
 457              		.size	adc_lld_start, .-adc_lld_start
 458              		.section	.text.adc_lld_stop,"ax",%progbits
 459              		.align	2
 460              		.p2align 4,,15
 461              		.global	adc_lld_stop
 462              		.thumb
 463              		.thumb_func
 464              		.type	adc_lld_stop, %function
 465              	adc_lld_stop:
 466              	.LFB285:
 467              		.loc 1 668 0
 468              		.cfi_startproc
 469              		@ args = 0, pretend = 0, frame = 0
 470              		@ frame_needed = 0, uses_anonymous_args = 0
 471              	.LVL26:
 472              		.loc 1 671 0
 473 0000 0378     		ldrb	r3, [r0]	@ zero_extendqisi2
 474 0002 022B     		cmp	r3, #2
 475              		.loc 1 668 0
 476 0004 10B5     		push	{r4, lr}
 477              		.cfi_def_cfa_offset 8
 478              		.cfi_offset 4, -8
 479              		.cfi_offset 14, -4
 480              		.loc 1 668 0
 481 0006 0446     		mov	r4, r0
 482              		.loc 1 671 0
 483 0008 00D0     		beq	.L39
 484              	.LVL27:
 485              	.L24:
 486 000a 10BD     		pop	{r4, pc}
 487              	.LVL28:
 488              	.L39:
 489              		.loc 1 674 0
 490 000c 006B     		ldr	r0, [r0, #48]
 491              	.LVL29:
 492 000e FFF7FEFF 		bl	dmaStreamRelease
 493              	.LVL30:
 494              		.loc 1 668 0
 495 0012 A26A     		ldr	r2, [r4, #40]
 496              	.LVL31:
 497              	.LBB173:
 498              	.LBB174:
 499              		.loc 1 248 0
 500 0014 9368     		ldr	r3, [r2, #8]
 501 0016 5807     		lsls	r0, r3, #29
 502 0018 06D5     		bpl	.L29
 503              		.loc 1 249 0
 504 001a 9368     		ldr	r3, [r2, #8]
 505 001c 43F01003 		orr	r3, r3, #16
 506 0020 9360     		str	r3, [r2, #8]
 507              	.L30:
 508              		.loc 1 250 0
 509 0022 9368     		ldr	r3, [r2, #8]
 510 0024 D906     		lsls	r1, r3, #27
 511 0026 FCD4     		bmi	.L30
 512              	.L29:
ARM GAS  /tmp/cc7T0L4h.s 			page 10


 513              	.LVL32:
 514              	.LBE174:
 515              	.LBE173:
 516              	.LBB175:
 517              	.LBB176:
 518              		.loc 1 197 0
 519 0028 9368     		ldr	r3, [r2, #8]
 520 002a 43F00203 		orr	r3, r3, #2
 521 002e 9360     		str	r3, [r2, #8]
 522              	.L28:
 523              		.loc 1 198 0
 524 0030 9368     		ldr	r3, [r2, #8]
 525 0032 13F00203 		ands	r3, r3, #2
 526 0036 FBD1     		bne	.L28
 527              	.LVL33:
 528              	.LBE176:
 529              	.LBE175:
 530              		.loc 1 689 0
 531 0038 1249     		ldr	r1, .L40
 532              	.LBB177:
 533              	.LBB178:
 534              		.loc 1 142 0
 535 003a 9360     		str	r3, [r2, #8]
 536              	.LBE178:
 537              	.LBE177:
 538              		.loc 1 689 0
 539 003c 8C42     		cmp	r4, r1
 540              	.LBB180:
 541              	.LBB179:
 542              		.loc 1 143 0
 543 003e 4FF00053 		mov	r3, #536870912
 544 0042 9360     		str	r3, [r2, #8]
 545              	.LBE179:
 546              	.LBE180:
 547              		.loc 1 689 0
 548 0044 11D0     		beq	.L32
 549 0046 104B     		ldr	r3, .L40+4
 550 0048 1B68     		ldr	r3, [r3]
 551              	.L33:
 552              		.loc 1 729 0
 553 004a 9A07     		lsls	r2, r3, #30
 554 004c 04D1     		bne	.L34
 555              		.loc 1 730 0
 556 004e 0F4A     		ldr	r2, .L40+8
 557 0050 5169     		ldr	r1, [r2, #20]
 558 0052 21F08051 		bic	r1, r1, #268435456
 559 0056 5161     		str	r1, [r2, #20]
 560              	.L34:
 561              		.loc 1 732 0
 562 0058 13F00C0F 		tst	r3, #12
 563 005c D5D1     		bne	.L24
 564              		.loc 1 733 0
 565 005e 0B4B     		ldr	r3, .L40+8
 566 0060 5A69     		ldr	r2, [r3, #20]
 567 0062 22F00052 		bic	r2, r2, #536870912
 568 0066 5A61     		str	r2, [r3, #20]
 569 0068 10BD     		pop	{r4, pc}
ARM GAS  /tmp/cc7T0L4h.s 			page 11


 570              	.LVL34:
 571              	.L32:
 572              		.loc 1 694 0
 573 006a 0748     		ldr	r0, .L40+4
 574              		.loc 1 692 0
 575 006c E26A     		ldr	r2, [r4, #44]
 576              		.loc 1 694 0
 577 006e 0368     		ldr	r3, [r0]
 578              		.loc 1 692 0
 579 0070 4FF48031 		mov	r1, #65536
 580              		.loc 1 724 0
 581 0074 23F00F03 		bic	r3, r3, #15
 582              		.loc 1 692 0
 583 0078 9160     		str	r1, [r2, #8]
 584              		.loc 1 724 0
 585 007a 0360     		str	r3, [r0]
 586              		.loc 1 702 0
 587 007c 9160     		str	r1, [r2, #8]
 588              		.loc 1 712 0
 589 007e 9160     		str	r1, [r2, #8]
 590              		.loc 1 722 0
 591 0080 9160     		str	r1, [r2, #8]
 592 0082 E2E7     		b	.L33
 593              	.L41:
 594              		.align	2
 595              	.L40:
 596 0084 00000000 		.word	.LANCHOR1
 597 0088 00000000 		.word	.LANCHOR0
 598 008c 00100240 		.word	1073876992
 599              		.cfi_endproc
 600              	.LFE285:
 601              		.size	adc_lld_stop, .-adc_lld_stop
 602              		.section	.text.adc_lld_start_conversion,"ax",%progbits
 603              		.align	2
 604              		.p2align 4,,15
 605              		.global	adc_lld_start_conversion
 606              		.thumb
 607              		.thumb_func
 608              		.type	adc_lld_start_conversion, %function
 609              	adc_lld_start_conversion:
 610              	.LFB286:
 611              		.loc 1 752 0
 612              		.cfi_startproc
 613              		@ args = 0, pretend = 0, frame = 0
 614              		@ frame_needed = 0, uses_anonymous_args = 0
 615              		@ link register save eliminated.
 616              	.LVL35:
 617              		.loc 1 754 0
 618 0000 0269     		ldr	r2, [r0, #16]
 619              	.LVL36:
 620              		.loc 1 763 0
 621 0002 436B     		ldr	r3, [r0, #52]
 622              	.LVL37:
 623              		.loc 1 765 0
 624 0004 1178     		ldrb	r1, [r2]	@ zero_extendqisi2
 625              		.loc 1 752 0
 626 0006 2DE9F007 		push	{r4, r5, r6, r7, r8, r9, r10}
ARM GAS  /tmp/cc7T0L4h.s 			page 12


 627              		.cfi_def_cfa_offset 28
 628              		.cfi_offset 4, -28
 629              		.cfi_offset 5, -24
 630              		.cfi_offset 6, -20
 631              		.cfi_offset 7, -16
 632              		.cfi_offset 8, -12
 633              		.cfi_offset 9, -8
 634              		.cfi_offset 10, -4
 635              		.loc 1 764 0
 636 000a D768     		ldr	r7, [r2, #12]
 637              	.LVL38:
 638              		.loc 1 765 0
 639 000c 0029     		cmp	r1, #0
 640 000e 3AD0     		beq	.L46
 641              	.LVL39:
 642              		.loc 1 772 0
 643 0010 C568     		ldr	r5, [r0, #12]
 644 0012 012D     		cmp	r5, #1
 645              		.loc 1 770 0
 646 0014 47F00307 		orr	r7, r7, #3
 647              	.LVL40:
 648              		.loc 1 766 0
 649 0018 94BF     		ite	ls
 650 001a 43F02003 		orrls	r3, r3, #32
 651              	.LVL41:
 652              		.loc 1 775 0
 653 001e 43F02403 		orrhi	r3, r3, #36
 654              	.LVL42:
 655              	.L44:
 656              		.loc 1 780 0
 657 0022 016B     		ldr	r1, [r0, #48]
 658              		.loc 1 785 0
 659 0024 5488     		ldrh	r4, [r2, #2]
 660              		.loc 1 780 0
 661 0026 4968     		ldr	r1, [r1, #4]
 662 0028 8668     		ldr	r6, [r0, #8]
 663 002a CE60     		str	r6, [r1, #12]
 664              		.loc 1 785 0
 665 002c 04FB05F5 		mul	r5, r4, r5
 666 0030 4D60     		str	r5, [r1, #4]
 667              		.loc 1 788 0
 668 0032 0B60     		str	r3, [r1]
 669              		.loc 1 789 0
 670 0034 D1F80090 		ldr	r9, [r1]
 671              		.loc 1 793 0
 672 0038 836A     		ldr	r3, [r0, #40]
 673              	.LVL43:
 674              		.loc 1 820 0
 675 003a D2F81CA0 		ldr	r10, [r2, #28]
 676              		.loc 1 795 0
 677 003e D2F81080 		ldr	r8, [r2, #16]
 678              		.loc 1 819 0
 679 0042 9669     		ldr	r6, [r2, #24]
 680              		.loc 1 821 0
 681 0044 156A     		ldr	r5, [r2, #32]
 682              		.loc 1 818 0
 683 0046 D2F814C0 		ldr	ip, [r2, #20]
ARM GAS  /tmp/cc7T0L4h.s 			page 13


 684              		.loc 1 822 0
 685 004a 506A     		ldr	r0, [r2, #36]
 686              	.LVL44:
 687              		.loc 1 823 0
 688 004c 926A     		ldr	r2, [r2, #40]
 689              	.LVL45:
 690              		.loc 1 789 0
 691 004e 49F00109 		orr	r9, r9, #1
 692 0052 C1F80090 		str	r9, [r1]
 693              	.LVL46:
 694              		.loc 1 793 0
 695 0056 1968     		ldr	r1, [r3]
 696 0058 1960     		str	r1, [r3]
 697              		.loc 1 820 0
 698 005a 013C     		subs	r4, r4, #1
 699 005c 44EA0A04 		orr	r4, r4, r10
 700              		.loc 1 794 0
 701 0060 9021     		movs	r1, #144
 702 0062 5960     		str	r1, [r3, #4]
 703              		.loc 1 795 0
 704 0064 C3F82080 		str	r8, [r3, #32]
 705              		.loc 1 818 0
 706 0068 C3F814C0 		str	ip, [r3, #20]
 707              		.loc 1 819 0
 708 006c 9E61     		str	r6, [r3, #24]
 709              		.loc 1 820 0
 710 006e 1C63     		str	r4, [r3, #48]
 711              		.loc 1 821 0
 712 0070 5D63     		str	r5, [r3, #52]
 713              		.loc 1 822 0
 714 0072 9863     		str	r0, [r3, #56]
 715              		.loc 1 823 0
 716 0074 DA63     		str	r2, [r3, #60]
 717              		.loc 1 827 0
 718 0076 DF60     		str	r7, [r3, #12]
 719              		.loc 1 830 0
 720 0078 9A68     		ldr	r2, [r3, #8]
 721 007a 42F00402 		orr	r2, r2, #4
 722 007e 9A60     		str	r2, [r3, #8]
 723              		.loc 1 831 0
 724 0080 BDE8F007 		pop	{r4, r5, r6, r7, r8, r9, r10}
 725              	.LVL47:
 726 0084 7047     		bx	lr
 727              	.LVL48:
 728              	.L46:
 729              		.loc 1 764 0
 730 0086 47F00107 		orr	r7, r7, #1
 731              	.LVL49:
 732 008a C568     		ldr	r5, [r0, #12]
 733 008c C9E7     		b	.L44
 734              		.cfi_endproc
 735              	.LFE286:
 736              		.size	adc_lld_start_conversion, .-adc_lld_start_conversion
 737 008e 00BF     		.section	.text.adc_lld_stop_conversion,"ax",%progbits
 738              		.align	2
 739              		.p2align 4,,15
 740              		.global	adc_lld_stop_conversion
ARM GAS  /tmp/cc7T0L4h.s 			page 14


 741              		.thumb
 742              		.thumb_func
 743              		.type	adc_lld_stop_conversion, %function
 744              	adc_lld_stop_conversion:
 745              	.LFB287:
 746              		.loc 1 840 0
 747              		.cfi_startproc
 748              		@ args = 0, pretend = 0, frame = 0
 749              		@ frame_needed = 0, uses_anonymous_args = 0
 750              		@ link register save eliminated.
 751              	.LVL50:
 752              		.loc 1 842 0
 753 0000 036B     		ldr	r3, [r0, #48]
 754              		.loc 1 840 0
 755 0002 826A     		ldr	r2, [r0, #40]
 756              	.LVL51:
 757              		.loc 1 842 0
 758 0004 93E80300 		ldmia	r3, {r0, r1}
 759              	.LVL52:
 760              		.loc 1 840 0
 761 0008 30B4     		push	{r4, r5}
 762              		.cfi_def_cfa_offset 8
 763              		.cfi_offset 4, -8
 764              		.cfi_offset 5, -4
 765              		.loc 1 842 0
 766 000a 0D68     		ldr	r5, [r1]
 767 000c 25F00F05 		bic	r5, r5, #15
 768 0010 0D60     		str	r5, [r1]
 769 0012 1B7C     		ldrb	r3, [r3, #16]	@ zero_extendqisi2
 770 0014 0F24     		movs	r4, #15
 771 0016 04FA03F3 		lsl	r3, r4, r3
 772 001a 4360     		str	r3, [r0, #4]
 773              	.LBB181:
 774              	.LBB182:
 775              		.loc 1 248 0
 776 001c 9368     		ldr	r3, [r2, #8]
 777 001e 5907     		lsls	r1, r3, #29
 778 0020 06D5     		bpl	.L47
 779              		.loc 1 249 0
 780 0022 9368     		ldr	r3, [r2, #8]
 781 0024 43F01003 		orr	r3, r3, #16
 782 0028 9360     		str	r3, [r2, #8]
 783              	.L50:
 784              		.loc 1 250 0
 785 002a 9368     		ldr	r3, [r2, #8]
 786 002c DB06     		lsls	r3, r3, #27
 787 002e FCD4     		bmi	.L50
 788              	.L47:
 789              	.LBE182:
 790              	.LBE181:
 791              		.loc 1 844 0
 792 0030 30BC     		pop	{r4, r5}
 793 0032 7047     		bx	lr
 794              		.cfi_endproc
 795              	.LFE287:
 796              		.size	adc_lld_stop_conversion, .-adc_lld_stop_conversion
 797 0034 AFF30080 		.section	.text.adc_lld_serve_interrupt,"ax",%progbits
ARM GAS  /tmp/cc7T0L4h.s 			page 15


 797      AFF30080 
 797      AFF30080 
 798              		.align	2
 799              		.p2align 4,,15
 800              		.thumb
 801              		.thumb_func
 802              		.type	adc_lld_serve_interrupt, %function
 803              	adc_lld_serve_interrupt:
 804              	.LFB279:
 805              		.loc 1 291 0
 806              		.cfi_startproc
 807              		@ args = 0, pretend = 0, frame = 0
 808              		@ frame_needed = 0, uses_anonymous_args = 0
 809              	.LVL53:
 810              		.loc 1 295 0
 811 0000 0369     		ldr	r3, [r0, #16]
 812              		.loc 1 291 0
 813 0002 70B5     		push	{r4, r5, r6, lr}
 814              		.cfi_def_cfa_offset 16
 815              		.cfi_offset 4, -16
 816              		.cfi_offset 5, -12
 817              		.cfi_offset 6, -8
 818              		.cfi_offset 14, -4
 819              		.loc 1 291 0
 820 0004 0446     		mov	r4, r0
 821 0006 0D46     		mov	r5, r1
 822              		.loc 1 295 0
 823 0008 3BB1     		cbz	r3, .L54
 824              		.loc 1 298 0
 825 000a CE06     		lsls	r6, r1, #27
 826 000c 06D4     		bmi	.L88
 827              	.L57:
 828              		.loc 1 304 0
 829 000e 2906     		lsls	r1, r5, #24
 830              	.LVL54:
 831 0010 27D4     		bmi	.L89
 832              	.LVL55:
 833              	.L61:
 834              		.loc 1 308 0
 835 0012 EA05     		lsls	r2, r5, #23
 836 0014 44D4     		bmi	.L90
 837              	.L65:
 838              		.loc 1 312 0
 839 0016 AB05     		lsls	r3, r5, #22
 840 0018 61D4     		bmi	.L91
 841              	.L54:
 842 001a 70BD     		pop	{r4, r5, r6, pc}
 843              	.LVL56:
 844              	.L88:
 845              		.loc 1 299 0 discriminator 1
 846 001c 036B     		ldr	r3, [r0, #48]
 847 001e 5B68     		ldr	r3, [r3, #4]
 848 0020 5B68     		ldr	r3, [r3, #4]
 849              		.loc 1 298 0 discriminator 1
 850 0022 002B     		cmp	r3, #0
 851 0024 F3D0     		beq	.L57
 852              		.loc 1 302 0
ARM GAS  /tmp/cc7T0L4h.s 			page 16


 853 0026 FFF7FEFF 		bl	adc_lld_stop_conversion
 854              	.LVL57:
 855 002a 2369     		ldr	r3, [r4, #16]
 856 002c 9B68     		ldr	r3, [r3, #8]
 857 002e 4BB1     		cbz	r3, .L59
 858              		.loc 1 302 0 is_stmt 0 discriminator 1
 859 0030 0522     		movs	r2, #5
 860 0032 2270     		strb	r2, [r4]
 861 0034 2046     		mov	r0, r4
 862 0036 0121     		movs	r1, #1
 863 0038 9847     		blx	r3
 864              	.LVL58:
 865 003a 2378     		ldrb	r3, [r4]	@ zero_extendqisi2
 866 003c 052B     		cmp	r3, #5
 867 003e 04BF     		itt	eq
 868 0040 0223     		moveq	r3, #2
 869 0042 2370     		strbeq	r3, [r4]
 870              	.L59:
 871              		.loc 1 302 0 discriminator 2
 872 0044 0026     		movs	r6, #0
 873 0046 2661     		str	r6, [r4, #16]
 874              	.LVL59:
 875              	.LBB183:
 876              	.LBB184:
 877              	.LBB185:
 878              	.LBB186:
 879              	.LBB187:
 880              	.LBB188:
 881              		.file 3 "../ChibiOS/os/ext/CMSIS/include/core_cmFunc.h"
 882              		.loc 3 548 0 is_stmt 1 discriminator 2
 883 0048 2023     		movs	r3, #32
 884              	@ 548 "../ChibiOS/os/ext/CMSIS/include/core_cmFunc.h" 1
 885 004a 83F31188 		MSR basepri, r3
 886              	@ 0 "" 2
 887              	.LVL60:
 888              		.thumb
 889              	.LBE188:
 890              	.LBE187:
 891              	.LBE186:
 892              	.LBE185:
 893              	.LBE184:
 894              	.LBE183:
 895              	.LBB189:
 896              	.LBB190:
 897              		.loc 2 728 0 discriminator 2
 898 004e 4FF0FF31 		mov	r1, #-1
 899 0052 04F11400 		add	r0, r4, #20
 900              	.LVL61:
 901 0056 FFF7FEFF 		bl	chThdResumeI
 902              	.LVL62:
 903              	.LBE190:
 904              	.LBE189:
 905              	.LBB191:
 906              	.LBB192:
 907              	.LBB193:
 908              	.LBB194:
 909              	.LBB195:
ARM GAS  /tmp/cc7T0L4h.s 			page 17


 910              	.LBB196:
 911              		.loc 3 548 0 discriminator 2
 912              	@ 548 "../ChibiOS/os/ext/CMSIS/include/core_cmFunc.h" 1
 913 005a 86F31188 		MSR basepri, r6
 914              	@ 0 "" 2
 915              		.thumb
 916              	.LBE196:
 917              	.LBE195:
 918              	.LBE194:
 919              	.LBE193:
 920              	.LBE192:
 921              	.LBE191:
 922              		.loc 1 304 0 discriminator 2
 923 005e 2906     		lsls	r1, r5, #24
 924 0060 D7D5     		bpl	.L61
 925              	.LVL63:
 926              	.L89:
 927              		.loc 1 306 0
 928 0062 2046     		mov	r0, r4
 929 0064 FFF7FEFF 		bl	adc_lld_stop_conversion
 930              	.LVL64:
 931 0068 2369     		ldr	r3, [r4, #16]
 932 006a 9B68     		ldr	r3, [r3, #8]
 933 006c 4BB1     		cbz	r3, .L63
 934              		.loc 1 306 0 is_stmt 0 discriminator 1
 935 006e 0522     		movs	r2, #5
 936 0070 2270     		strb	r2, [r4]
 937 0072 2046     		mov	r0, r4
 938 0074 0221     		movs	r1, #2
 939 0076 9847     		blx	r3
 940              	.LVL65:
 941 0078 2378     		ldrb	r3, [r4]	@ zero_extendqisi2
 942 007a 052B     		cmp	r3, #5
 943 007c 04BF     		itt	eq
 944 007e 0223     		moveq	r3, #2
 945 0080 2370     		strbeq	r3, [r4]
 946              	.L63:
 947              		.loc 1 306 0 discriminator 2
 948 0082 0026     		movs	r6, #0
 949 0084 2661     		str	r6, [r4, #16]
 950              	.LVL66:
 951              	.LBB197:
 952              	.LBB198:
 953              	.LBB199:
 954              	.LBB200:
 955              	.LBB201:
 956              	.LBB202:
 957              		.loc 3 548 0 is_stmt 1 discriminator 2
 958 0086 2023     		movs	r3, #32
 959              	@ 548 "../ChibiOS/os/ext/CMSIS/include/core_cmFunc.h" 1
 960 0088 83F31188 		MSR basepri, r3
 961              	@ 0 "" 2
 962              	.LVL67:
 963              		.thumb
 964              	.LBE202:
 965              	.LBE201:
 966              	.LBE200:
ARM GAS  /tmp/cc7T0L4h.s 			page 18


 967              	.LBE199:
 968              	.LBE198:
 969              	.LBE197:
 970              	.LBB203:
 971              	.LBB204:
 972              		.loc 2 728 0 discriminator 2
 973 008c 4FF0FF31 		mov	r1, #-1
 974 0090 04F11400 		add	r0, r4, #20
 975              	.LVL68:
 976 0094 FFF7FEFF 		bl	chThdResumeI
 977              	.LVL69:
 978              	.LBE204:
 979              	.LBE203:
 980              	.LBB205:
 981              	.LBB206:
 982              	.LBB207:
 983              	.LBB208:
 984              	.LBB209:
 985              	.LBB210:
 986              		.loc 3 548 0 discriminator 2
 987              	@ 548 "../ChibiOS/os/ext/CMSIS/include/core_cmFunc.h" 1
 988 0098 86F31188 		MSR basepri, r6
 989              	@ 0 "" 2
 990              		.thumb
 991              	.LBE210:
 992              	.LBE209:
 993              	.LBE208:
 994              	.LBE207:
 995              	.LBE206:
 996              	.LBE205:
 997              		.loc 1 308 0 discriminator 2
 998 009c EA05     		lsls	r2, r5, #23
 999 009e BAD5     		bpl	.L65
 1000              	.LVL70:
 1001              	.L90:
 1002              		.loc 1 310 0
 1003 00a0 2046     		mov	r0, r4
 1004 00a2 FFF7FEFF 		bl	adc_lld_stop_conversion
 1005              	.LVL71:
 1006 00a6 2369     		ldr	r3, [r4, #16]
 1007 00a8 9B68     		ldr	r3, [r3, #8]
 1008 00aa 4BB1     		cbz	r3, .L67
 1009              		.loc 1 310 0 is_stmt 0 discriminator 1
 1010 00ac 0522     		movs	r2, #5
 1011 00ae 2270     		strb	r2, [r4]
 1012 00b0 2046     		mov	r0, r4
 1013 00b2 0321     		movs	r1, #3
 1014 00b4 9847     		blx	r3
 1015              	.LVL72:
 1016 00b6 2378     		ldrb	r3, [r4]	@ zero_extendqisi2
 1017 00b8 052B     		cmp	r3, #5
 1018 00ba 04BF     		itt	eq
 1019 00bc 0223     		moveq	r3, #2
 1020 00be 2370     		strbeq	r3, [r4]
 1021              	.L67:
 1022              		.loc 1 310 0 discriminator 2
 1023 00c0 0026     		movs	r6, #0
ARM GAS  /tmp/cc7T0L4h.s 			page 19


 1024 00c2 2661     		str	r6, [r4, #16]
 1025              	.LVL73:
 1026              	.LBB211:
 1027              	.LBB212:
 1028              	.LBB213:
 1029              	.LBB214:
 1030              	.LBB215:
 1031              	.LBB216:
 1032              		.loc 3 548 0 is_stmt 1 discriminator 2
 1033 00c4 2023     		movs	r3, #32
 1034              	@ 548 "../ChibiOS/os/ext/CMSIS/include/core_cmFunc.h" 1
 1035 00c6 83F31188 		MSR basepri, r3
 1036              	@ 0 "" 2
 1037              	.LVL74:
 1038              		.thumb
 1039              	.LBE216:
 1040              	.LBE215:
 1041              	.LBE214:
 1042              	.LBE213:
 1043              	.LBE212:
 1044              	.LBE211:
 1045              	.LBB217:
 1046              	.LBB218:
 1047              		.loc 2 728 0 discriminator 2
 1048 00ca 4FF0FF31 		mov	r1, #-1
 1049 00ce 04F11400 		add	r0, r4, #20
 1050              	.LVL75:
 1051 00d2 FFF7FEFF 		bl	chThdResumeI
 1052              	.LVL76:
 1053              	.LBE218:
 1054              	.LBE217:
 1055              	.LBB219:
 1056              	.LBB220:
 1057              	.LBB221:
 1058              	.LBB222:
 1059              	.LBB223:
 1060              	.LBB224:
 1061              		.loc 3 548 0 discriminator 2
 1062              	@ 548 "../ChibiOS/os/ext/CMSIS/include/core_cmFunc.h" 1
 1063 00d6 86F31188 		MSR basepri, r6
 1064              	@ 0 "" 2
 1065              		.thumb
 1066              	.LBE224:
 1067              	.LBE223:
 1068              	.LBE222:
 1069              	.LBE221:
 1070              	.LBE220:
 1071              	.LBE219:
 1072              		.loc 1 312 0 discriminator 2
 1073 00da AB05     		lsls	r3, r5, #22
 1074 00dc 9DD5     		bpl	.L54
 1075              	.LVL77:
 1076              	.L91:
 1077              		.loc 1 314 0
 1078 00de 2046     		mov	r0, r4
 1079 00e0 FFF7FEFF 		bl	adc_lld_stop_conversion
 1080              	.LVL78:
ARM GAS  /tmp/cc7T0L4h.s 			page 20


 1081 00e4 2369     		ldr	r3, [r4, #16]
 1082 00e6 9B68     		ldr	r3, [r3, #8]
 1083 00e8 4BB1     		cbz	r3, .L71
 1084              		.loc 1 314 0 is_stmt 0 discriminator 1
 1085 00ea 0522     		movs	r2, #5
 1086 00ec 2270     		strb	r2, [r4]
 1087 00ee 2046     		mov	r0, r4
 1088 00f0 0421     		movs	r1, #4
 1089 00f2 9847     		blx	r3
 1090              	.LVL79:
 1091 00f4 2378     		ldrb	r3, [r4]	@ zero_extendqisi2
 1092 00f6 052B     		cmp	r3, #5
 1093 00f8 04BF     		itt	eq
 1094 00fa 0223     		moveq	r3, #2
 1095 00fc 2370     		strbeq	r3, [r4]
 1096              	.L71:
 1097              		.loc 1 314 0 discriminator 2
 1098 00fe 0025     		movs	r5, #0
 1099              	.LVL80:
 1100 0100 2561     		str	r5, [r4, #16]
 1101              	.LVL81:
 1102              	.LBB225:
 1103              	.LBB226:
 1104              	.LBB227:
 1105              	.LBB228:
 1106              	.LBB229:
 1107              	.LBB230:
 1108              		.loc 3 548 0 is_stmt 1 discriminator 2
 1109 0102 2023     		movs	r3, #32
 1110              	@ 548 "../ChibiOS/os/ext/CMSIS/include/core_cmFunc.h" 1
 1111 0104 83F31188 		MSR basepri, r3
 1112              	@ 0 "" 2
 1113              	.LVL82:
 1114              		.thumb
 1115              	.LBE230:
 1116              	.LBE229:
 1117              	.LBE228:
 1118              	.LBE227:
 1119              	.LBE226:
 1120              	.LBE225:
 1121              	.LBB231:
 1122              	.LBB232:
 1123              		.loc 2 728 0 discriminator 2
 1124 0108 4FF0FF31 		mov	r1, #-1
 1125 010c 04F11400 		add	r0, r4, #20
 1126              	.LVL83:
 1127 0110 FFF7FEFF 		bl	chThdResumeI
 1128              	.LVL84:
 1129              	.LBE232:
 1130              	.LBE231:
 1131              	.LBB233:
 1132              	.LBB234:
 1133              	.LBB235:
 1134              	.LBB236:
 1135              	.LBB237:
 1136              	.LBB238:
 1137              		.loc 3 548 0 discriminator 2
ARM GAS  /tmp/cc7T0L4h.s 			page 21


 1138              	@ 548 "../ChibiOS/os/ext/CMSIS/include/core_cmFunc.h" 1
 1139 0114 85F31188 		MSR basepri, r5
 1140              	@ 0 "" 2
 1141              		.thumb
 1142 0118 70BD     		pop	{r4, r5, r6, pc}
 1143              	.LBE238:
 1144              	.LBE237:
 1145              	.LBE236:
 1146              	.LBE235:
 1147              	.LBE234:
 1148              	.LBE233:
 1149              		.cfi_endproc
 1150              	.LFE279:
 1151              		.size	adc_lld_serve_interrupt, .-adc_lld_serve_interrupt
 1152 011a 00BFAFF3 		.section	.text.Vector88,"ax",%progbits
 1152      0080
 1153              		.align	2
 1154              		.p2align 4,,15
 1155              		.global	Vector88
 1156              		.thumb
 1157              		.thumb_func
 1158              		.type	Vector88, %function
 1159              	Vector88:
 1160              	.LFB280:
 1161              		.loc 1 329 0
 1162              		.cfi_startproc
 1163              		@ args = 0, pretend = 0, frame = 0
 1164              		@ frame_needed = 0, uses_anonymous_args = 0
 1165 0000 08B5     		push	{r3, lr}
 1166              		.cfi_def_cfa_offset 8
 1167              		.cfi_offset 3, -8
 1168              		.cfi_offset 14, -4
 1169              		.loc 1 343 0
 1170 0002 4FF0A043 		mov	r3, #1342177280
 1171              		.loc 1 346 0
 1172 0006 0748     		ldr	r0, .L93
 1173              		.loc 1 343 0
 1174 0008 1968     		ldr	r1, [r3]
 1175              	.LVL85:
 1176              		.loc 1 344 0
 1177 000a 1960     		str	r1, [r3]
 1178              		.loc 1 346 0
 1179 000c FFF7FEFF 		bl	adc_lld_serve_interrupt
 1180              	.LVL86:
 1181              		.loc 1 349 0
 1182 0010 054B     		ldr	r3, .L93+4
 1183              		.loc 1 352 0
 1184 0012 0648     		ldr	r0, .L93+8
 1185              		.loc 1 349 0
 1186 0014 1968     		ldr	r1, [r3]
 1187              	.LVL87:
 1188              		.loc 1 350 0
 1189 0016 1960     		str	r1, [r3]
 1190              		.loc 1 352 0
 1191 0018 FFF7FEFF 		bl	adc_lld_serve_interrupt
 1192              	.LVL88:
 1193              		.loc 1 357 0
ARM GAS  /tmp/cc7T0L4h.s 			page 22


 1194 001c BDE80840 		pop	{r3, lr}
 1195              		.loc 1 356 0
 1196 0020 FFF7FEBF 		b	_port_irq_epilogue
 1197              	.LVL89:
 1198              	.L94:
 1199              		.align	2
 1200              	.L93:
 1201 0024 00000000 		.word	.LANCHOR1
 1202 0028 00010050 		.word	1342177536
 1203 002c 00000000 		.word	.LANCHOR2
 1204              		.cfi_endproc
 1205              	.LFE280:
 1206              		.size	Vector88, .-Vector88
 1207              		.section	.text.VectorFC,"ax",%progbits
 1208              		.align	2
 1209              		.p2align 4,,15
 1210              		.global	VectorFC
 1211              		.thumb
 1212              		.thumb_func
 1213              		.type	VectorFC, %function
 1214              	VectorFC:
 1215              	.LFB281:
 1216              		.loc 1 366 0
 1217              		.cfi_startproc
 1218              		@ args = 0, pretend = 0, frame = 0
 1219              		@ frame_needed = 0, uses_anonymous_args = 0
 1220 0000 08B5     		push	{r3, lr}
 1221              		.cfi_def_cfa_offset 8
 1222              		.cfi_offset 3, -8
 1223              		.cfi_offset 14, -4
 1224              		.loc 1 371 0
 1225 0002 054B     		ldr	r3, .L96
 1226              		.loc 1 374 0
 1227 0004 0548     		ldr	r0, .L96+4
 1228              		.loc 1 371 0
 1229 0006 1968     		ldr	r1, [r3]
 1230              	.LVL90:
 1231              		.loc 1 372 0
 1232 0008 1960     		str	r1, [r3]
 1233              		.loc 1 374 0
 1234 000a FFF7FEFF 		bl	adc_lld_serve_interrupt
 1235              	.LVL91:
 1236              		.loc 1 377 0
 1237 000e BDE80840 		pop	{r3, lr}
 1238              		.loc 1 376 0
 1239 0012 FFF7FEBF 		b	_port_irq_epilogue
 1240              	.LVL92:
 1241              	.L97:
 1242 0016 00BF     		.align	2
 1243              	.L96:
 1244 0018 00040050 		.word	1342178304
 1245 001c 00000000 		.word	.LANCHOR3
 1246              		.cfi_endproc
 1247              	.LFE281:
 1248              		.size	VectorFC, .-VectorFC
 1249              		.section	.text.Vector134,"ax",%progbits
 1250              		.align	2
ARM GAS  /tmp/cc7T0L4h.s 			page 23


 1251              		.p2align 4,,15
 1252              		.global	Vector134
 1253              		.thumb
 1254              		.thumb_func
 1255              		.type	Vector134, %function
 1256              	Vector134:
 1257              	.LFB282:
 1258              		.loc 1 406 0
 1259              		.cfi_startproc
 1260              		@ args = 0, pretend = 0, frame = 0
 1261              		@ frame_needed = 0, uses_anonymous_args = 0
 1262 0000 08B5     		push	{r3, lr}
 1263              		.cfi_def_cfa_offset 8
 1264              		.cfi_offset 3, -8
 1265              		.cfi_offset 14, -4
 1266              		.loc 1 411 0
 1267 0002 054B     		ldr	r3, .L99
 1268              		.loc 1 414 0
 1269 0004 0548     		ldr	r0, .L99+4
 1270              		.loc 1 411 0
 1271 0006 1968     		ldr	r1, [r3]
 1272              	.LVL93:
 1273              		.loc 1 412 0
 1274 0008 1960     		str	r1, [r3]
 1275              		.loc 1 414 0
 1276 000a FFF7FEFF 		bl	adc_lld_serve_interrupt
 1277              	.LVL94:
 1278              		.loc 1 417 0
 1279 000e BDE80840 		pop	{r3, lr}
 1280              		.loc 1 416 0
 1281 0012 FFF7FEBF 		b	_port_irq_epilogue
 1282              	.LVL95:
 1283              	.L100:
 1284 0016 00BF     		.align	2
 1285              	.L99:
 1286 0018 00050050 		.word	1342178560
 1287 001c 00000000 		.word	.LANCHOR4
 1288              		.cfi_endproc
 1289              	.LFE282:
 1290              		.size	Vector134, .-Vector134
 1291              		.section	.text.adc_lld_serve_dma_interrupt,"ax",%progbits
 1292              		.align	2
 1293              		.p2align 4,,15
 1294              		.thumb
 1295              		.thumb_func
 1296              		.type	adc_lld_serve_dma_interrupt, %function
 1297              	adc_lld_serve_dma_interrupt:
 1298              	.LFB278:
 1299              		.loc 1 261 0
 1300              		.cfi_startproc
 1301              		@ args = 0, pretend = 0, frame = 0
 1302              		@ frame_needed = 0, uses_anonymous_args = 0
 1303              	.LVL96:
 1304 0000 38B5     		push	{r3, r4, r5, lr}
 1305              		.cfi_def_cfa_offset 16
 1306              		.cfi_offset 3, -16
 1307              		.cfi_offset 4, -12
ARM GAS  /tmp/cc7T0L4h.s 			page 24


 1308              		.cfi_offset 5, -8
 1309              		.cfi_offset 14, -4
 1310              		.loc 1 264 0
 1311 0002 0B07     		lsls	r3, r1, #28
 1312              		.loc 1 261 0
 1313 0004 0446     		mov	r4, r0
 1314              		.loc 1 264 0
 1315 0006 1DD4     		bmi	.L124
 1316              		.loc 1 272 0
 1317 0008 0369     		ldr	r3, [r0, #16]
 1318 000a D3B1     		cbz	r3, .L101
 1319              		.loc 1 273 0
 1320 000c 8D07     		lsls	r5, r1, #30
 1321 000e 10D5     		bpl	.L107
 1322              		.loc 1 275 0
 1323 0010 1D78     		ldrb	r5, [r3]	@ zero_extendqisi2
 1324 0012 002D     		cmp	r5, #0
 1325 0014 36D0     		beq	.L108
 1326              		.loc 1 275 0 is_stmt 0 discriminator 1
 1327 0016 5D68     		ldr	r5, [r3, #4]
 1328 0018 9DB1     		cbz	r5, .L101
 1329 001a C268     		ldr	r2, [r0, #12]
 1330 001c 012A     		cmp	r2, #1
 1331 001e 2ED9     		bls	.L109
 1332              	.LBB239:
 1333 0020 5988     		ldrh	r1, [r3, #2]
 1334              	.LVL97:
 1335 0022 8368     		ldr	r3, [r0, #8]
 1336 0024 5208     		lsrs	r2, r2, #1
 1337              	.LVL98:
 1338 0026 01FB02F1 		mul	r1, r1, r2
 1339 002a 03EB4101 		add	r1, r3, r1, lsl #1
 1340 002e A847     		blx	r5
 1341              	.LVL99:
 1342              	.LBE239:
 1343 0030 38BD     		pop	{r3, r4, r5, pc}
 1344              	.LVL100:
 1345              	.L107:
 1346              		.loc 1 277 0 is_stmt 1
 1347 0032 4A07     		lsls	r2, r1, #29
 1348 0034 05D5     		bpl	.L101
 1349              		.loc 1 279 0
 1350 0036 5B68     		ldr	r3, [r3, #4]
 1351 0038 1BB1     		cbz	r3, .L101
 1352              		.loc 1 279 0 is_stmt 0 discriminator 1
 1353 003a C268     		ldr	r2, [r0, #12]
 1354 003c 8168     		ldr	r1, [r0, #8]
 1355              	.LVL101:
 1356 003e 5208     		lsrs	r2, r2, #1
 1357 0040 9847     		blx	r3
 1358              	.LVL102:
 1359              	.L101:
 1360 0042 38BD     		pop	{r3, r4, r5, pc}
 1361              	.LVL103:
 1362              	.L124:
 1363              		.loc 1 267 0 is_stmt 1
 1364 0044 FFF7FEFF 		bl	adc_lld_stop_conversion
ARM GAS  /tmp/cc7T0L4h.s 			page 25


 1365              	.LVL104:
 1366 0048 2369     		ldr	r3, [r4, #16]
 1367 004a 9B68     		ldr	r3, [r3, #8]
 1368 004c 4BB1     		cbz	r3, .L104
 1369              		.loc 1 267 0 is_stmt 0 discriminator 1
 1370 004e 0522     		movs	r2, #5
 1371 0050 2270     		strb	r2, [r4]
 1372 0052 2046     		mov	r0, r4
 1373 0054 0021     		movs	r1, #0
 1374 0056 9847     		blx	r3
 1375              	.LVL105:
 1376 0058 2378     		ldrb	r3, [r4]	@ zero_extendqisi2
 1377 005a 052B     		cmp	r3, #5
 1378 005c 04BF     		itt	eq
 1379 005e 0223     		moveq	r3, #2
 1380 0060 2370     		strbeq	r3, [r4]
 1381              	.L104:
 1382              		.loc 1 267 0 discriminator 2
 1383 0062 0025     		movs	r5, #0
 1384 0064 2561     		str	r5, [r4, #16]
 1385              	.LVL106:
 1386              	.LBB240:
 1387              	.LBB241:
 1388              	.LBB242:
 1389              	.LBB243:
 1390              	.LBB244:
 1391              	.LBB245:
 1392              		.loc 3 548 0 is_stmt 1 discriminator 2
 1393 0066 2023     		movs	r3, #32
 1394              	@ 548 "../ChibiOS/os/ext/CMSIS/include/core_cmFunc.h" 1
 1395 0068 83F31188 		MSR basepri, r3
 1396              	@ 0 "" 2
 1397              	.LVL107:
 1398              		.thumb
 1399              	.LBE245:
 1400              	.LBE244:
 1401              	.LBE243:
 1402              	.LBE242:
 1403              	.LBE241:
 1404              	.LBE240:
 1405              	.LBB246:
 1406              	.LBB247:
 1407              		.loc 2 728 0 discriminator 2
 1408 006c 4FF0FF31 		mov	r1, #-1
 1409 0070 04F11400 		add	r0, r4, #20
 1410              	.LVL108:
 1411 0074 FFF7FEFF 		bl	chThdResumeI
 1412              	.LVL109:
 1413              	.LBE247:
 1414              	.LBE246:
 1415              	.LBB248:
 1416              	.LBB249:
 1417              	.LBB250:
 1418              	.LBB251:
 1419              	.LBB252:
 1420              	.LBB253:
 1421              		.loc 3 548 0 discriminator 2
ARM GAS  /tmp/cc7T0L4h.s 			page 26


 1422              	@ 548 "../ChibiOS/os/ext/CMSIS/include/core_cmFunc.h" 1
 1423 0078 85F31188 		MSR basepri, r5
 1424              	@ 0 "" 2
 1425              		.thumb
 1426 007c 38BD     		pop	{r3, r4, r5, pc}
 1427              	.LVL110:
 1428              	.L109:
 1429              	.LBE253:
 1430              	.LBE252:
 1431              	.LBE251:
 1432              	.LBE250:
 1433              	.LBE249:
 1434              	.LBE248:
 1435              		.loc 1 275 0 discriminator 2
 1436 007e 8168     		ldr	r1, [r0, #8]
 1437              	.LVL111:
 1438 0080 A847     		blx	r5
 1439              	.LVL112:
 1440 0082 38BD     		pop	{r3, r4, r5, pc}
 1441              	.LVL113:
 1442              	.L108:
 1443 0084 FFF7FEFF 		bl	adc_lld_stop_conversion
 1444              	.LVL114:
 1445 0088 2369     		ldr	r3, [r4, #16]
 1446 008a 5B68     		ldr	r3, [r3, #4]
 1447 008c C3B1     		cbz	r3, .L110
 1448              		.loc 1 275 0 is_stmt 0 discriminator 1
 1449 008e 0422     		movs	r2, #4
 1450 0090 2270     		strb	r2, [r4]
 1451 0092 2046     		mov	r0, r4
 1452 0094 A168     		ldr	r1, [r4, #8]
 1453 0096 E268     		ldr	r2, [r4, #12]
 1454 0098 9847     		blx	r3
 1455              	.LVL115:
 1456 009a 2378     		ldrb	r3, [r4]	@ zero_extendqisi2
 1457 009c 042B     		cmp	r3, #4
 1458 009e 0BD0     		beq	.L125
 1459              	.L111:
 1460              	.LVL116:
 1461              	.LBB254:
 1462              	.LBB255:
 1463              	.LBB256:
 1464              	.LBB257:
 1465              	.LBB258:
 1466              	.LBB259:
 1467              		.loc 3 548 0 is_stmt 1 discriminator 1
 1468 00a0 2023     		movs	r3, #32
 1469              	@ 548 "../ChibiOS/os/ext/CMSIS/include/core_cmFunc.h" 1
 1470 00a2 83F31188 		MSR basepri, r3
 1471              	@ 0 "" 2
 1472              	.LVL117:
 1473              		.thumb
 1474              	.LBE259:
 1475              	.LBE258:
 1476              	.LBE257:
 1477              	.LBE256:
 1478              	.LBE255:
ARM GAS  /tmp/cc7T0L4h.s 			page 27


 1479              	.LBE254:
 1480              	.LBB260:
 1481              	.LBB261:
 1482              		.loc 2 728 0 discriminator 1
 1483 00a6 0021     		movs	r1, #0
 1484 00a8 04F11400 		add	r0, r4, #20
 1485              	.LVL118:
 1486 00ac FFF7FEFF 		bl	chThdResumeI
 1487              	.LVL119:
 1488              	.LBE261:
 1489              	.LBE260:
 1490              	.LBB262:
 1491              	.LBB263:
 1492              	.LBB264:
 1493              	.LBB265:
 1494              	.LBB266:
 1495              	.LBB267:
 1496              		.loc 3 548 0 discriminator 1
 1497 00b0 0023     		movs	r3, #0
 1498              	@ 548 "../ChibiOS/os/ext/CMSIS/include/core_cmFunc.h" 1
 1499 00b2 83F31188 		MSR basepri, r3
 1500              	@ 0 "" 2
 1501              		.thumb
 1502 00b6 38BD     		pop	{r3, r4, r5, pc}
 1503              	.LVL120:
 1504              	.L125:
 1505              	.LBE267:
 1506              	.LBE266:
 1507              	.LBE265:
 1508              	.LBE264:
 1509              	.LBE263:
 1510              	.LBE262:
 1511              		.loc 1 275 0 discriminator 1
 1512 00b8 0223     		movs	r3, #2
 1513 00ba 2561     		str	r5, [r4, #16]
 1514 00bc 2370     		strb	r3, [r4]
 1515 00be EFE7     		b	.L111
 1516              	.L110:
 1517              		.loc 1 275 0 is_stmt 0 discriminator 2
 1518 00c0 0222     		movs	r2, #2
 1519 00c2 2361     		str	r3, [r4, #16]
 1520 00c4 2270     		strb	r2, [r4]
 1521 00c6 EBE7     		b	.L111
 1522              		.cfi_endproc
 1523              	.LFE278:
 1524              		.size	adc_lld_serve_dma_interrupt, .-adc_lld_serve_dma_interrupt
 1525 00c8 AFF30080 		.section	.text.adcSTM32EnableVREF,"ax",%progbits
 1525      AFF30080 
 1526              		.align	2
 1527              		.p2align 4,,15
 1528              		.global	adcSTM32EnableVREF
 1529              		.thumb
 1530              		.thumb_func
 1531              		.type	adcSTM32EnableVREF, %function
 1532              	adcSTM32EnableVREF:
 1533              	.LFB288:
 1534              		.loc 1 856 0 is_stmt 1
ARM GAS  /tmp/cc7T0L4h.s 			page 28


 1535              		.cfi_startproc
 1536              		@ args = 0, pretend = 0, frame = 0
 1537              		@ frame_needed = 0, uses_anonymous_args = 0
 1538              		@ link register save eliminated.
 1539              	.LVL121:
 1540              		.loc 1 858 0
 1541 0000 C36A     		ldr	r3, [r0, #44]
 1542 0002 9A68     		ldr	r2, [r3, #8]
 1543 0004 42F08072 		orr	r2, r2, #16777216
 1544 0008 9A60     		str	r2, [r3, #8]
 1545 000a 7047     		bx	lr
 1546              		.cfi_endproc
 1547              	.LFE288:
 1548              		.size	adcSTM32EnableVREF, .-adcSTM32EnableVREF
 1549 000c AFF30080 		.section	.text.adcSTM32DisableVREF,"ax",%progbits
 1550              		.align	2
 1551              		.p2align 4,,15
 1552              		.global	adcSTM32DisableVREF
 1553              		.thumb
 1554              		.thumb_func
 1555              		.type	adcSTM32DisableVREF, %function
 1556              	adcSTM32DisableVREF:
 1557              	.LFB289:
 1558              		.loc 1 871 0
 1559              		.cfi_startproc
 1560              		@ args = 0, pretend = 0, frame = 0
 1561              		@ frame_needed = 0, uses_anonymous_args = 0
 1562              		@ link register save eliminated.
 1563              	.LVL122:
 1564              		.loc 1 873 0
 1565 0000 C36A     		ldr	r3, [r0, #44]
 1566 0002 9A68     		ldr	r2, [r3, #8]
 1567 0004 22F08072 		bic	r2, r2, #16777216
 1568 0008 9A60     		str	r2, [r3, #8]
 1569 000a 7047     		bx	lr
 1570              		.cfi_endproc
 1571              	.LFE289:
 1572              		.size	adcSTM32DisableVREF, .-adcSTM32DisableVREF
 1573 000c AFF30080 		.section	.text.adcSTM32EnableTS,"ax",%progbits
 1574              		.align	2
 1575              		.p2align 4,,15
 1576              		.global	adcSTM32EnableTS
 1577              		.thumb
 1578              		.thumb_func
 1579              		.type	adcSTM32EnableTS, %function
 1580              	adcSTM32EnableTS:
 1581              	.LFB290:
 1582              		.loc 1 886 0
 1583              		.cfi_startproc
 1584              		@ args = 0, pretend = 0, frame = 0
 1585              		@ frame_needed = 0, uses_anonymous_args = 0
 1586              		@ link register save eliminated.
 1587              	.LVL123:
 1588              		.loc 1 888 0
 1589 0000 C36A     		ldr	r3, [r0, #44]
 1590 0002 9A68     		ldr	r2, [r3, #8]
 1591 0004 42F40002 		orr	r2, r2, #8388608
ARM GAS  /tmp/cc7T0L4h.s 			page 29


 1592 0008 9A60     		str	r2, [r3, #8]
 1593 000a 7047     		bx	lr
 1594              		.cfi_endproc
 1595              	.LFE290:
 1596              		.size	adcSTM32EnableTS, .-adcSTM32EnableTS
 1597 000c AFF30080 		.section	.text.adcSTM32DisableTS,"ax",%progbits
 1598              		.align	2
 1599              		.p2align 4,,15
 1600              		.global	adcSTM32DisableTS
 1601              		.thumb
 1602              		.thumb_func
 1603              		.type	adcSTM32DisableTS, %function
 1604              	adcSTM32DisableTS:
 1605              	.LFB291:
 1606              		.loc 1 901 0
 1607              		.cfi_startproc
 1608              		@ args = 0, pretend = 0, frame = 0
 1609              		@ frame_needed = 0, uses_anonymous_args = 0
 1610              		@ link register save eliminated.
 1611              	.LVL124:
 1612              		.loc 1 903 0
 1613 0000 C36A     		ldr	r3, [r0, #44]
 1614 0002 9A68     		ldr	r2, [r3, #8]
 1615 0004 22F40002 		bic	r2, r2, #8388608
 1616 0008 9A60     		str	r2, [r3, #8]
 1617 000a 7047     		bx	lr
 1618              		.cfi_endproc
 1619              	.LFE291:
 1620              		.size	adcSTM32DisableTS, .-adcSTM32DisableTS
 1621 000c AFF30080 		.section	.text.adcSTM32EnableVBAT,"ax",%progbits
 1622              		.align	2
 1623              		.p2align 4,,15
 1624              		.global	adcSTM32EnableVBAT
 1625              		.thumb
 1626              		.thumb_func
 1627              		.type	adcSTM32EnableVBAT, %function
 1628              	adcSTM32EnableVBAT:
 1629              	.LFB292:
 1630              		.loc 1 916 0
 1631              		.cfi_startproc
 1632              		@ args = 0, pretend = 0, frame = 0
 1633              		@ frame_needed = 0, uses_anonymous_args = 0
 1634              		@ link register save eliminated.
 1635              	.LVL125:
 1636              		.loc 1 918 0
 1637 0000 C36A     		ldr	r3, [r0, #44]
 1638 0002 9A68     		ldr	r2, [r3, #8]
 1639 0004 42F08072 		orr	r2, r2, #16777216
 1640 0008 9A60     		str	r2, [r3, #8]
 1641 000a 7047     		bx	lr
 1642              		.cfi_endproc
 1643              	.LFE292:
 1644              		.size	adcSTM32EnableVBAT, .-adcSTM32EnableVBAT
 1645 000c AFF30080 		.section	.text.adcSTM32DisableVBAT,"ax",%progbits
 1646              		.align	2
 1647              		.p2align 4,,15
 1648              		.global	adcSTM32DisableVBAT
ARM GAS  /tmp/cc7T0L4h.s 			page 30


 1649              		.thumb
 1650              		.thumb_func
 1651              		.type	adcSTM32DisableVBAT, %function
 1652              	adcSTM32DisableVBAT:
 1653              	.LFB293:
 1654              		.loc 1 931 0
 1655              		.cfi_startproc
 1656              		@ args = 0, pretend = 0, frame = 0
 1657              		@ frame_needed = 0, uses_anonymous_args = 0
 1658              		@ link register save eliminated.
 1659              	.LVL126:
 1660              		.loc 1 933 0
 1661 0000 C36A     		ldr	r3, [r0, #44]
 1662 0002 9A68     		ldr	r2, [r3, #8]
 1663 0004 22F08072 		bic	r2, r2, #16777216
 1664 0008 9A60     		str	r2, [r3, #8]
 1665 000a 7047     		bx	lr
 1666              		.cfi_endproc
 1667              	.LFE293:
 1668              		.size	adcSTM32DisableVBAT, .-adcSTM32DisableVBAT
 1669              		.global	ADCD4
 1670              		.global	ADCD3
 1671              		.global	ADCD2
 1672              		.global	ADCD1
 1673 000c AFF30080 		.section	.rodata.default_config,"a",%progbits
 1674              		.align	2
 1675              		.set	.LANCHOR5,. + 0
 1676              		.type	default_config, %object
 1677              		.size	default_config, 4
 1678              	default_config:
 1679 0000 00000000 		.space	4
 1680              		.section	.bss.ADCD1,"aw",%nobits
 1681              		.align	2
 1682              		.set	.LANCHOR1,. + 0
 1683              		.type	ADCD1, %object
 1684              		.size	ADCD1, 56
 1685              	ADCD1:
 1686 0000 00000000 		.space	56
 1686      00000000 
 1686      00000000 
 1686      00000000 
 1686      00000000 
 1687              		.section	.bss.ADCD2,"aw",%nobits
 1688              		.align	2
 1689              		.set	.LANCHOR2,. + 0
 1690              		.type	ADCD2, %object
 1691              		.size	ADCD2, 56
 1692              	ADCD2:
 1693 0000 00000000 		.space	56
 1693      00000000 
 1693      00000000 
 1693      00000000 
 1693      00000000 
 1694              		.section	.bss.ADCD3,"aw",%nobits
 1695              		.align	2
 1696              		.set	.LANCHOR3,. + 0
 1697              		.type	ADCD3, %object
ARM GAS  /tmp/cc7T0L4h.s 			page 31


 1698              		.size	ADCD3, 56
 1699              	ADCD3:
 1700 0000 00000000 		.space	56
 1700      00000000 
 1700      00000000 
 1700      00000000 
 1700      00000000 
 1701              		.section	.bss.ADCD4,"aw",%nobits
 1702              		.align	2
 1703              		.set	.LANCHOR4,. + 0
 1704              		.type	ADCD4, %object
 1705              		.size	ADCD4, 56
 1706              	ADCD4:
 1707 0000 00000000 		.space	56
 1707      00000000 
 1707      00000000 
 1707      00000000 
 1707      00000000 
 1708              		.section	.bss.clkmask,"aw",%nobits
 1709              		.align	2
 1710              		.set	.LANCHOR0,. + 0
 1711              		.type	clkmask, %object
 1712              		.size	clkmask, 4
 1713              	clkmask:
 1714 0000 00000000 		.space	4
 1715              		.text
 1716              	.Letext0:
 1717              		.file 4 "/nfs/nfs5/home/research/hardware/arm2/gcc-arm-embedded/gcc-arm-none-eabi-4_8-2014q2/lib/g
 1718              		.file 5 "/nfs/nfs5/home/research/hardware/arm2/gcc-arm-embedded/gcc-arm-none-eabi-4_8-2014q2/arm-n
 1719              		.file 6 "/nfs/nfs5/home/research/hardware/arm2/gcc-arm-embedded/gcc-arm-none-eabi-4_8-2014q2/arm-n
 1720              		.file 7 "../ChibiOS/os/rt/ports/ARMCMx/compilers/GCC/chtypes.h"
 1721              		.file 8 "../ChibiOS/os/rt/include/chsystypes.h"
 1722              		.file 9 "../ChibiOS/os/rt/include/chschd.h"
 1723              		.file 10 "../ChibiOS/os/ext/CMSIS/ST/STM32F3xx/stm32f303xc.h"
 1724              		.file 11 "../ChibiOS/os/rt/ports/ARMCMx/chcore.h"
 1725              		.file 12 "../ChibiOS/os/rt/ports/ARMCMx/chcore_v7m.h"
 1726              		.file 13 "../ChibiOS/os/rt/include/chtm.h"
 1727              		.file 14 "../ChibiOS/os/rt/include/chsem.h"
 1728              		.file 15 "../ChibiOS/os/rt/include/chmtx.h"
 1729              		.file 16 "../ChibiOS/os/hal/ports/STM32/LLD/DMAv1/stm32_dma.h"
 1730              		.file 17 "../ChibiOS/os/hal/include/adc.h"
 1731              		.file 18 "../ChibiOS/os/hal/ports/STM32/LLD/ADCv3/adc_lld.h"
 1732              		.file 19 "../ChibiOS/os/rt/include/chsys.h"
 1733              		.file 20 "../ChibiOS/os/ext/CMSIS/include/core_cm4.h"
 1734              		.file 21 "../ChibiOS/os/hal/ports/common/ARMCMx/nvic.h"
 1735              		.file 22 "../ChibiOS/os/rt/include/chthreads.h"