ARM GAS  /tmp/ccTUic0g.s 			page 1


   1              		.syntax unified
   2              		.cpu cortex-m4
   3              		.fpu softvfp
   4              		.eabi_attribute 20, 1
   5              		.eabi_attribute 21, 1
   6              		.eabi_attribute 23, 3
   7              		.eabi_attribute 24, 1
   8              		.eabi_attribute 25, 1
   9              		.eabi_attribute 26, 1
  10              		.eabi_attribute 30, 2
  11              		.eabi_attribute 34, 1
  12              		.eabi_attribute 18, 4
  13              		.thumb
  14              		.file	"chheap.c"
  15              		.text
  16              	.Ltext0:
  17              		.cfi_sections	.debug_frame
  18              		.section	.text._heap_init,"ax",%progbits
  19              		.align	2
  20              		.p2align 4,,15
  21              		.global	_heap_init
  22              		.thumb
  23              		.thumb_func
  24              		.type	_heap_init, %function
  25              	_heap_init:
  26              	.LFB241:
  27              		.file 1 "../ChibiOS/os/rt/src/chheap.c"
  28              		.loc 1 91 0
  29              		.cfi_startproc
  30              		@ args = 0, pretend = 0, frame = 0
  31              		@ frame_needed = 0, uses_anonymous_args = 0
  32              		@ link register save eliminated.
  33              		.loc 1 93 0
  34 0000 044B     		ldr	r3, .L2
  35 0002 054A     		ldr	r2, .L2+4
  36 0004 1A60     		str	r2, [r3]
  37              		.loc 1 97 0
  38 0006 03F11000 		add	r0, r3, #16
  39              		.loc 1 94 0
  40 000a 0022     		movs	r2, #0
  41 000c 9A60     		str	r2, [r3, #8]
  42              		.loc 1 95 0
  43 000e DA60     		str	r2, [r3, #12]
  44              		.loc 1 97 0
  45 0010 FFF7FEBF 		b	chMtxObjectInit
  46              	.LVL0:
  47              	.L3:
  48              		.align	2
  49              	.L2:
  50 0014 00000000 		.word	.LANCHOR0
  51 0018 00000000 		.word	chCoreAlloc
  52              		.cfi_endproc
  53              	.LFE241:
  54              		.size	_heap_init, .-_heap_init
  55 001c AFF30080 		.section	.text.chHeapObjectInit,"ax",%progbits
  56              		.align	2
  57              		.p2align 4,,15
ARM GAS  /tmp/ccTUic0g.s 			page 2


  58              		.global	chHeapObjectInit
  59              		.thumb
  60              		.thumb_func
  61              		.type	chHeapObjectInit, %function
  62              	chHeapObjectInit:
  63              	.LFB242:
  64              		.loc 1 114 0
  65              		.cfi_startproc
  66              		@ args = 0, pretend = 0, frame = 0
  67              		@ frame_needed = 0, uses_anonymous_args = 0
  68              		@ link register save eliminated.
  69              	.LVL1:
  70              		.loc 1 119 0
  71 0000 0023     		movs	r3, #0
  72              		.loc 1 123 0
  73 0002 083A     		subs	r2, r2, #8
  74              	.LVL2:
  75              		.loc 1 120 0
  76 0004 8160     		str	r1, [r0, #8]
  77              		.loc 1 119 0
  78 0006 0360     		str	r3, [r0]
  79              		.loc 1 121 0
  80 0008 C360     		str	r3, [r0, #12]
  81              		.loc 1 125 0
  82 000a 1030     		adds	r0, r0, #16
  83              	.LVL3:
  84              		.loc 1 123 0
  85 000c 4A60     		str	r2, [r1, #4]
  86              		.loc 1 122 0
  87 000e 0B60     		str	r3, [r1]
  88              		.loc 1 125 0
  89 0010 FFF7FEBF 		b	chMtxObjectInit
  90              	.LVL4:
  91              		.cfi_endproc
  92              	.LFE242:
  93              		.size	chHeapObjectInit, .-chHeapObjectInit
  94 0014 AFF30080 		.section	.text.chHeapAlloc,"ax",%progbits
  94      AFF30080 
  94      AFF30080 
  95              		.align	2
  96              		.p2align 4,,15
  97              		.global	chHeapAlloc
  98              		.thumb
  99              		.thumb_func
 100              		.type	chHeapAlloc, %function
 101              	chHeapAlloc:
 102              	.LFB243:
 103              		.loc 1 147 0
 104              		.cfi_startproc
 105              		@ args = 0, pretend = 0, frame = 0
 106              		@ frame_needed = 0, uses_anonymous_args = 0
 107              	.LVL5:
 108 0000 F8B5     		push	{r3, r4, r5, r6, r7, lr}
 109              		.cfi_def_cfa_offset 24
 110              		.cfi_offset 3, -24
 111              		.cfi_offset 4, -20
 112              		.cfi_offset 5, -16
ARM GAS  /tmp/ccTUic0g.s 			page 3


 113              		.cfi_offset 6, -12
 114              		.cfi_offset 7, -8
 115              		.cfi_offset 14, -4
 116              		.loc 1 151 0
 117 0002 214E     		ldr	r6, .L21
 118 0004 0028     		cmp	r0, #0
 119 0006 18BF     		it	ne
 120 0008 0646     		movne	r6, r0
 121              	.LVL6:
 122              		.loc 1 157 0
 123 000a 06F11007 		add	r7, r6, #16
 124              		.loc 1 154 0
 125 000e 0731     		adds	r1, r1, #7
 126              	.LVL7:
 127              		.loc 1 157 0
 128 0010 3846     		mov	r0, r7
 129              		.loc 1 154 0
 130 0012 21F00705 		bic	r5, r1, #7
 131              	.LVL8:
 132              		.loc 1 155 0
 133 0016 06F10804 		add	r4, r6, #8
 134              	.LVL9:
 135              		.loc 1 157 0
 136 001a FFF7FEFF 		bl	chMtxLock
 137              	.LVL10:
 138              		.loc 1 158 0
 139 001e 03E0     		b	.L7
 140              	.LVL11:
 141              	.L12:
 142              		.loc 1 160 0
 143 0020 5A68     		ldr	r2, [r3, #4]
 144 0022 9542     		cmp	r5, r2
 145 0024 12D9     		bls	.L20
 146 0026 1C46     		mov	r4, r3
 147              	.LVL12:
 148              	.L7:
 149              		.loc 1 158 0 discriminator 1
 150 0028 2368     		ldr	r3, [r4]
 151              	.LVL13:
 152 002a 002B     		cmp	r3, #0
 153 002c F8D1     		bne	.L12
 154              		.loc 1 186 0
 155 002e 3846     		mov	r0, r7
 156 0030 FFF7FEFF 		bl	chMtxUnlock
 157              	.LVL14:
 158              		.loc 1 190 0
 159 0034 3368     		ldr	r3, [r6]
 160 0036 2BB3     		cbz	r3, .L14
 161              		.loc 1 191 0
 162 0038 05F10800 		add	r0, r5, #8
 163 003c 9847     		blx	r3
 164              	.LVL15:
 165              		.loc 1 192 0
 166 003e 08B3     		cbz	r0, .L14
 167              		.loc 1 193 0
 168 0040 0660     		str	r6, [r0]
 169              		.loc 1 194 0
ARM GAS  /tmp/ccTUic0g.s 			page 4


 170 0042 4560     		str	r5, [r0, #4]
 171              	.LVL16:
 172              		.loc 1 198 0
 173 0044 00F10804 		add	r4, r0, #8
 174              	.LVL17:
 175              	.L11:
 176              		.loc 1 204 0
 177 0048 2046     		mov	r0, r4
 178 004a F8BD     		pop	{r3, r4, r5, r6, r7, pc}
 179              	.LVL18:
 180              	.L20:
 181              		.loc 1 161 0
 182 004c 05F10801 		add	r1, r5, #8
 183 0050 9142     		cmp	r1, r2
 184 0052 09D9     		bls	.L9
 185              		.loc 1 165 0
 186 0054 1A68     		ldr	r2, [r3]
 187 0056 2260     		str	r2, [r4]
 188              	.L10:
 189              		.loc 1 177 0
 190 0058 1C46     		mov	r4, r3
 191              	.LVL19:
 192              		.loc 1 178 0
 193 005a 3846     		mov	r0, r7
 194              		.loc 1 177 0
 195 005c 44F8086B 		str	r6, [r4], #8
 196              		.loc 1 178 0
 197 0060 FFF7FEFF 		bl	chMtxUnlock
 198              	.LVL20:
 199              		.loc 1 204 0
 200 0064 2046     		mov	r0, r4
 201 0066 F8BD     		pop	{r3, r4, r5, r6, r7, pc}
 202              	.LVL21:
 203              	.L9:
 204              		.loc 1 173 0
 205 0068 6FF00700 		mvn	r0, #7
 206 006c 401B     		subs	r0, r0, r5
 207              		.loc 1 170 0
 208 006e 03EB010E 		add	lr, r3, r1
 209              	.LVL22:
 210              		.loc 1 173 0
 211 0072 0244     		add	r2, r2, r0
 212              		.loc 1 172 0
 213 0074 1868     		ldr	r0, [r3]
 214 0076 5850     		str	r0, [r3, r1]
 215              		.loc 1 173 0
 216 0078 CEF80420 		str	r2, [lr, #4]
 217              		.loc 1 174 0
 218 007c C4F800E0 		str	lr, [r4]
 219              		.loc 1 175 0
 220 0080 5D60     		str	r5, [r3, #4]
 221 0082 E9E7     		b	.L10
 222              	.LVL23:
 223              	.L14:
 224              		.loc 1 203 0
 225 0084 0024     		movs	r4, #0
 226              	.LVL24:
ARM GAS  /tmp/ccTUic0g.s 			page 5


 227 0086 DFE7     		b	.L11
 228              	.L22:
 229              		.align	2
 230              	.L21:
 231 0088 00000000 		.word	.LANCHOR0
 232              		.cfi_endproc
 233              	.LFE243:
 234              		.size	chHeapAlloc, .-chHeapAlloc
 235 008c AFF30080 		.section	.text.chHeapFree,"ax",%progbits
 236              		.align	2
 237              		.p2align 4,,15
 238              		.global	chHeapFree
 239              		.thumb
 240              		.thumb_func
 241              		.type	chHeapFree, %function
 242              	chHeapFree:
 243              	.LFB244:
 244              		.loc 1 213 0
 245              		.cfi_startproc
 246              		@ args = 0, pretend = 0, frame = 0
 247              		@ frame_needed = 0, uses_anonymous_args = 0
 248              	.LVL25:
 249 0000 F8B5     		push	{r3, r4, r5, r6, r7, lr}
 250              		.cfi_def_cfa_offset 24
 251              		.cfi_offset 3, -24
 252              		.cfi_offset 4, -20
 253              		.cfi_offset 5, -16
 254              		.cfi_offset 6, -12
 255              		.cfi_offset 7, -8
 256              		.cfi_offset 14, -4
 257              		.loc 1 222 0
 258 0002 50F8085C 		ldr	r5, [r0, #-8]
 259              		.loc 1 225 0
 260 0006 05F11007 		add	r7, r5, #16
 261              		.loc 1 213 0
 262 000a 0646     		mov	r6, r0
 263              		.loc 1 220 0
 264 000c A0F10804 		sub	r4, r0, #8
 265              	.LVL26:
 266              		.loc 1 223 0
 267 0010 0835     		adds	r5, r5, #8
 268              	.LVL27:
 269              		.loc 1 225 0
 270 0012 3846     		mov	r0, r7
 271              	.LVL28:
 272 0014 FFF7FEFF 		bl	chMtxLock
 273              	.LVL29:
 274              		.loc 1 223 0
 275 0018 2B46     		mov	r3, r5
 276              	.LVL30:
 277              	.L30:
 278              		.loc 1 229 0
 279 001a AB42     		cmp	r3, r5
 280 001c 04D0     		beq	.L24
 281              	.L35:
 282              		.loc 1 229 0 is_stmt 0 discriminator 2
 283 001e A342     		cmp	r3, r4
ARM GAS  /tmp/ccTUic0g.s 			page 6


 284 0020 02D3     		bcc	.L24
 285 0022 1B68     		ldr	r3, [r3]
 286              	.LVL31:
 287              		.loc 1 229 0
 288 0024 AB42     		cmp	r3, r5
 289 0026 FAD1     		bne	.L35
 290              	.L24:
 291              		.loc 1 230 0 is_stmt 1 discriminator 1
 292 0028 1A68     		ldr	r2, [r3]
 293              		.loc 1 229 0 discriminator 1
 294 002a 1AB1     		cbz	r2, .L26
 295              		.loc 1 230 0
 296 002c 9442     		cmp	r4, r2
 297 002e 01D3     		bcc	.L26
 298 0030 1346     		mov	r3, r2
 299              	.LVL32:
 300              		.loc 1 248 0
 301 0032 F2E7     		b	.L30
 302              	.LVL33:
 303              	.L26:
 304              		.loc 1 235 0
 305 0034 56F8041C 		ldr	r1, [r6, #-4]
 306              		.loc 1 232 0
 307 0038 46F8082C 		str	r2, [r6, #-8]
 308              		.loc 1 233 0
 309 003c 1C60     		str	r4, [r3]
 310              		.loc 1 235 0
 311 003e 01F10802 		add	r2, r1, #8
 312 0042 56F8085C 		ldr	r5, [r6, #-8]
 313              	.LVL34:
 314 0046 A018     		adds	r0, r4, r2
 315 0048 A842     		cmp	r0, r5
 316 004a 0AD0     		beq	.L36
 317              		.loc 1 240 0
 318 004c 5A68     		ldr	r2, [r3, #4]
 319 004e 02F10801 		add	r1, r2, #8
 320 0052 1944     		add	r1, r1, r3
 321 0054 8C42     		cmp	r4, r1
 322 0056 12D0     		beq	.L37
 323              	.L29:
 324              		.loc 1 249 0
 325 0058 3846     		mov	r0, r7
 326              		.loc 1 252 0
 327 005a BDE8F840 		pop	{r3, r4, r5, r6, r7, lr}
 328              	.LVL35:
 329              		.loc 1 249 0
 330 005e FFF7FEBF 		b	chMtxUnlock
 331              	.LVL36:
 332              	.L36:
 333              		.loc 1 237 0
 334 0062 4068     		ldr	r0, [r0, #4]
 335              		.loc 1 238 0
 336 0064 A258     		ldr	r2, [r4, r2]
 337 0066 46F8082C 		str	r2, [r6, #-8]
 338              		.loc 1 237 0
 339 006a 0A18     		adds	r2, r1, r0
 340 006c 0832     		adds	r2, r2, #8
ARM GAS  /tmp/ccTUic0g.s 			page 7


 341 006e 46F8042C 		str	r2, [r6, #-4]
 342              		.loc 1 240 0
 343 0072 5A68     		ldr	r2, [r3, #4]
 344 0074 02F10801 		add	r1, r2, #8
 345 0078 1944     		add	r1, r1, r3
 346 007a 8C42     		cmp	r4, r1
 347 007c ECD1     		bne	.L29
 348              	.L37:
 349              		.loc 1 242 0
 350 007e 56F8040C 		ldr	r0, [r6, #-4]
 351              		.loc 1 243 0
 352 0082 56F8081C 		ldr	r1, [r6, #-8]
 353 0086 1960     		str	r1, [r3]
 354              		.loc 1 242 0
 355 0088 0244     		add	r2, r2, r0
 356 008a 0832     		adds	r2, r2, #8
 357 008c 5A60     		str	r2, [r3, #4]
 358              		.loc 1 249 0
 359 008e 3846     		mov	r0, r7
 360              		.loc 1 252 0
 361 0090 BDE8F840 		pop	{r3, r4, r5, r6, r7, lr}
 362              	.LVL37:
 363              		.loc 1 249 0
 364 0094 FFF7FEBF 		b	chMtxUnlock
 365              	.LVL38:
 366              		.cfi_endproc
 367              	.LFE244:
 368              		.size	chHeapFree, .-chHeapFree
 369 0098 AFF30080 		.section	.text.chHeapStatus,"ax",%progbits
 369      AFF30080 
 370              		.align	2
 371              		.p2align 4,,15
 372              		.global	chHeapStatus
 373              		.thumb
 374              		.thumb_func
 375              		.type	chHeapStatus, %function
 376              	chHeapStatus:
 377              	.LFB245:
 378              		.loc 1 267 0
 379              		.cfi_startproc
 380              		@ args = 0, pretend = 0, frame = 0
 381              		@ frame_needed = 0, uses_anonymous_args = 0
 382              	.LVL39:
 383 0000 F8B5     		push	{r3, r4, r5, r6, r7, lr}
 384              		.cfi_def_cfa_offset 24
 385              		.cfi_offset 3, -24
 386              		.cfi_offset 4, -20
 387              		.cfi_offset 5, -16
 388              		.cfi_offset 6, -12
 389              		.cfi_offset 7, -8
 390              		.cfi_offset 14, -4
 391              		.loc 1 272 0
 392 0002 0E4C     		ldr	r4, .L51
 393 0004 0028     		cmp	r0, #0
 394 0006 18BF     		it	ne
 395 0008 0446     		movne	r4, r0
 396              	.LVL40:
ARM GAS  /tmp/ccTUic0g.s 			page 8


 397              		.loc 1 275 0
 398 000a 04F11006 		add	r6, r4, #16
 399 000e 3046     		mov	r0, r6
 400              		.loc 1 267 0
 401 0010 0F46     		mov	r7, r1
 402              		.loc 1 275 0
 403 0012 FFF7FEFF 		bl	chMtxLock
 404              	.LVL41:
 405              		.loc 1 279 0
 406 0016 A368     		ldr	r3, [r4, #8]
 407 0018 6BB1     		cbz	r3, .L44
 408              		.loc 1 276 0
 409 001a 0022     		movs	r2, #0
 410              		.loc 1 277 0
 411 001c 1446     		mov	r4, r2
 412              	.LVL42:
 413              	.L41:
 414              		.loc 1 279 0
 415 001e 28CB     		ldmia	r3, {r3, r5}
 416              		.loc 1 281 0
 417 0020 0134     		adds	r4, r4, #1
 418              	.LVL43:
 419              		.loc 1 280 0
 420 0022 2A44     		add	r2, r2, r5
 421              	.LVL44:
 422              		.loc 1 279 0
 423 0024 002B     		cmp	r3, #0
 424 0026 FAD1     		bne	.L41
 425              	.LVL45:
 426              	.L40:
 427              		.loc 1 284 0
 428 0028 07B1     		cbz	r7, .L42
 429              		.loc 1 285 0
 430 002a 3A60     		str	r2, [r7]
 431              	.L42:
 432              		.loc 1 287 0
 433 002c 3046     		mov	r0, r6
 434 002e FFF7FEFF 		bl	chMtxUnlock
 435              	.LVL46:
 436              		.loc 1 290 0
 437 0032 2046     		mov	r0, r4
 438 0034 F8BD     		pop	{r3, r4, r5, r6, r7, pc}
 439              	.LVL47:
 440              	.L44:
 441              		.loc 1 276 0
 442 0036 1A46     		mov	r2, r3
 443              		.loc 1 277 0
 444 0038 1C46     		mov	r4, r3
 445              	.LVL48:
 446 003a F5E7     		b	.L40
 447              	.L52:
 448              		.align	2
 449              	.L51:
 450 003c 00000000 		.word	.LANCHOR0
 451              		.cfi_endproc
 452              	.LFE245:
 453              		.size	chHeapStatus, .-chHeapStatus
ARM GAS  /tmp/ccTUic0g.s 			page 9


 454              		.section	.bss.default_heap,"aw",%nobits
 455              		.align	3
 456              		.set	.LANCHOR0,. + 0
 457              		.type	default_heap, %object
 458              		.size	default_heap, 32
 459              	default_heap:
 460 0000 00000000 		.space	32
 460      00000000 
 460      00000000 
 460      00000000 
 460      00000000 
 461              		.text
 462              	.Letext0:
 463              		.file 2 "/nfs/nfs5/home/research/hardware/arm2/gcc-arm-embedded/gcc-arm-none-eabi-4_8-2014q2/lib/g
 464              		.file 3 "/nfs/nfs5/home/research/hardware/arm2/gcc-arm-embedded/gcc-arm-none-eabi-4_8-2014q2/arm-n
 465              		.file 4 "/nfs/nfs5/home/research/hardware/arm2/gcc-arm-embedded/gcc-arm-none-eabi-4_8-2014q2/arm-n
 466              		.file 5 "../ChibiOS/os/rt/ports/ARMCMx/compilers/GCC/chtypes.h"
 467              		.file 6 "../ChibiOS/os/rt/include/chsystypes.h"
 468              		.file 7 "../ChibiOS/os/rt/include/chschd.h"
 469              		.file 8 "../ChibiOS/os/rt/ports/ARMCMx/chcore.h"
 470              		.file 9 "../ChibiOS/os/rt/ports/ARMCMx/chcore_v7m.h"
 471              		.file 10 "../ChibiOS/os/rt/include/chtm.h"
 472              		.file 11 "../ChibiOS/os/rt/include/chsem.h"
 473              		.file 12 "../ChibiOS/os/rt/include/chmtx.h"
 474              		.file 13 "../ChibiOS/os/rt/include/chmemcore.h"
 475              		.file 14 "../ChibiOS/os/rt/include/chheap.h"
 476              		.file 15 "../ChibiOS/os/ext/CMSIS/include/core_cm4.h"