ARM GAS  /tmp/ccTUic0g.s 			page 1


   1              		.syntax unified
   2              		.cpu cortex-m4
   3              		.fpu softvfp
   4              		.eabi_attribute 20, 1
   5              		.eabi_attribute 21, 1
   6              		.eabi_attribute 23, 3
   7              		.eabi_attribute 24, 1
   8              		.eabi_attribute 25, 1
   9              		.eabi_attribute 26, 1
  10              		.eabi_attribute 30, 2
  11              		.eabi_attribute 34, 1
  12              		.eabi_attribute 18, 4
  13              		.thumb
  14              		.file	"chheap.c"
  15              		.text
  16              	.Ltext0:
  17              		.cfi_sections	.debug_frame
  18              		.section	.text._heap_init,"ax",%progbits
  19              		.align	2
  20              		.p2align 4,,15
  21              		.global	_heap_init
  22              		.thumb
  23              		.thumb_func
  24              		.type	_heap_init, %function
  25              	_heap_init:
  26              	.LFB241:
  27              		.file 1 "../ChibiOS/os/rt/src/chheap.c"
  28              		.loc 1 91 0
  29              		.cfi_startproc
  30              		@ args = 0, pretend = 0, frame = 0
  31              		@ frame_needed = 0, uses_anonymous_args = 0
  32              		@ link register save eliminated.
  33              		.loc 1 93 0
  34 0000 044B     		ldr	r3, .L2
  35 0002 054A     		ldr	r2, .L2+4
  36 0004 1A60     		str	r2, [r3]
  37              		.loc 1 97 0
  38 0006 03F11000 		add	r0, r3, #16
  39              		.loc 1 94 0
  40 000a 0022     		movs	r2, #0
  41 000c 9A60     		str	r2, [r3, #8]
  42              		.loc 1 95 0
  43 000e DA60     		str	r2, [r3, #12]
  44              		.loc 1 97 0
  45 0010 FFF7FEBF 		b	chMtxObjectInit
  46              	.LVL0:
  47              	.L3:
  48              		.align	2
  49              	.L2:
  50 0014 00000000 		.word	.LANCHOR0
  51 0018 00000000 		.word	chCoreAlloc
  52              		.cfi_endproc
  53              	.LFE241:
  54              		.size	_heap_init, .-_heap_init
  55 001c AFF30080 		.section	.text.chHeapObjectInit,"ax",%progbits
  56              		.align	2
  57              		.p2align 4,,15
ARM GAS  /tmp/ccTUic0g.s 			page 2


  58              		.global	chHeapObjectInit
  59              		.thumb
  60              		.thumb_func
  61              		.type	chHeapObjectInit, %function
  62              	chHeapObjectInit:
  63              	.LFB242:
  64              		.loc 1 114 0
  65              		.cfi_startproc
  66              		@ args = 0, pretend = 0, frame = 0
  67              		@ frame_needed = 0, uses_anonymous_args = 0
  68              		@ link register save eliminated.
  69              	.LVL1:
  70              		.loc 1 119 0
  71 0000 0023     		movs	r3, #0
  72              		.loc 1 123 0
  73 0002 083A     		subs	r2, r2, #8
  74              	.LVL2:
  75              		.loc 1 120 0
  76 0004 8160     		str	r1, [r0, #8]
  77              		.loc 1 119 0
  78 0006 0360     		str	r3, [r0]
  79              		.loc 1 121 0
  80 0008 C360     		str	r3, [r0, #12]
  81              		.loc 1 125 0
  82 000a 1030     		adds	r0, r0, #16
  83              	.LVL3:
  84              		.loc 1 123 0
  85 000c 4A60     		str	r2, [r1, #4]
  86              		.loc 1 122 0
  87 000e 0B60     		str	r3, [r1]
  88              		.loc 1 125 0
  89 0010 FFF7FEBF 		b	chMtxObjectInit
  90              	.LVL4:
  91              		.cfi_endproc
  92              	.LFE242:
  93              		.size	chHeapObjectInit, .-chHeapObjectInit
  94 0014 AFF30080 		.section	.text.chHeapAlloc,"ax",%progbits
  94      AFF30080 
  94      AFF30080 
  95              		.align	2
  96              		.p2align 4,,15
  97              		.global	chHeapAlloc
  98              		.thumb
  99              		.thumb_func
 100              		.type	chHeapAlloc, %function
 101              	chHeapAlloc:
 102              	.LFB243:
 103              		.loc 1 147 0
 104              		.cfi_startproc
 105              		@ args = 0, pretend = 0, frame = 0
 106              		@ frame_needed = 0, uses_anonymous_args = 0
 107              	.LVL5:
 108 0000 F8B5     		push	{r3, r4, r5, r6, r7, lr}
 109              		.cfi_def_cfa_offset 24
 110              		.cfi_offset 3, -24
 111              		.cfi_offset 4, -20
 112              		.cfi_offset 5, -16
ARM GAS  /tmp/ccTUic0g.s 			page 3


 113              		.cfi_offset 6, -12
 114              		.cfi_offset 7, -8
 115              		.cfi_offset 14, -4
 116              		.loc 1 151 0
 117 0002 214E     		ldr	r6, .L21
 118 0004 0028     		cmp	r0, #0
 119 0006 18BF     		it	ne
 120 0008 0646     		movne	r6, r0
 121              	.LVL6:
 122              		.loc 1 157 0
 123 000a 06F11007 		add	r7, r6, #16
 124              		.loc 1 154 0
 125 000e 0731     		adds	r1, r1, #7
 126              	.LVL7:
 127              		.loc 1 157 0
 128 0010 3846     		mov	r0, r7
 129              		.loc 1 154 0
 130 0012 21F00705 		bic	r5, r1, #7
 131              	.LVL8:
 132              		.loc 1 155 0
 133 0016 06F10804 		add	r4, r6, #8
 134              	.LVL9:
 135              		.loc 1 157 0
 136 001a FFF7FEFF 		bl	chMtxLock
 137              	.LVL10:
 138              		.loc 1 158 0
 139 001e 03E0     		b	.L7
 140              	.LVL11:
 141              	.L12:
 142              		.loc 1 160 0
 143 0020 5A68     		ldr	r2, [r3, #4]
 144 0022 9542     		cmp	r5, r2
 145 0024 12D9     		bls	.L20
 146 0026 1C46     		mov	r4, r3
 147              	.LVL12:
 148              	.L7:
 149              		.loc 1 158 0 discriminator 1
 150 0028 2368     		ldr	r3, [r4]
 151              	.LVL13:
 152 002a 002B     		cmp	r3, #0
 153 002c F8D1     		bne	.L12
 154              		.loc 1 186 0
 155 002e 3846     		mov	r0, r7
 156 0030 FFF7FEFF 		bl	chMtxUnlock
 157              	.LVL14:
 158              		.loc 1 190 0
 159 0034 3368     		ldr	r3, [r6]
 160 0036 2BB3     		cbz	r3, .L14
 161              		.loc 1 191 0
 162 0038 05F10800 		add	r0, r5, #8
 163 003c 9847     		blx	r3
 164              	.LVL15:
 165              		.loc 1 192 0
 166 003e 08B3     		cbz	r0, .L14
 167              		.loc 1 193 0
 168 0040 0660     		str	r6, [r0]
 169              		.loc 1 194 0
ARM GAS  /tmp/ccTUic0g.s 			page 4


 170 0042 4560     		str	r5, [r0, #4]
 171              	.LVL16:
 172              		.loc 1 198 0
 173 0044 00F10804 		add	r4, r0, #8
 174              	.LVL17:
 175              	.L11:
 176              		.loc 1 204 0
 177 0048 2046     		mov	r0, r4
 178 004a F8BD     		pop	{r3, r4, r5, r6, r7, pc}
 179              	.LVL18:
 180              	.L20:
 181              		.loc 1 161 0
 182 004c 05F10801 		add	r1, r5, #8
 183 0050 9142     		cmp	r1, r2
 184 0052 09D9     		bls	.L9
 185              		.loc 1 165 0
 186 0054 1A68     		ldr	r2, [r3]
 187 0056 2260     		str	r2, [r4]
 188              	.L10:
 189              		.loc 1 177 0
 190 0058 1C46     		mov	r4, r3
 191              	.LVL19:
 192              		.loc 1 178 0
 193 005a 3846     		mov	r0, r7
 194              		.loc 1 177 0
 195 005c 44F8086B 		str	r6, [r4], #8
 196              		.loc 1 178 0
 197 0060 FFF7FEFF 		bl	chMtxUnlock
 198              	.LVL20:
 199              		.loc 1 204 0
 200 0064 2046     		mov	r0, r4
 201 0066 F8BD     		pop	{r3, r4, r5, r6, r7, pc}
 202              	.LVL21:
 203              	.L9:
 204              		.loc 1 173 0
 205 0068 6FF00700 		mvn	r0, #7
 206 006c 401B     		subs	r0, r0, r5
 207              		.loc 1 170 0
 208 006e 03EB010E 		add	lr, r3, r1
 209              	.LVL22:
 210              		.loc 1 173 0
 211 0072 0244     		add	r2, r2, r0
 212              		.loc 1 172 0
 213 0074 1868     		ldr	r0, [r3]
 214 0076 5850     		str	r0, [r3, r1]
 215              		.loc 1 173 0
 216 0078 CEF80420 		str	r2, [lr, #4]
 217              		.loc 1 174 0
 218 007c C4F800E0 		str	lr, [r4]
 219              		.loc 1 175 0
 220 0080 5D60     		str	r5, [r3, #4]
 221 0082 E9E7     		b	.L10
 222              	.LVL23:
 223              	.L14:
 224              		.loc 1 203 0
 225 0084 0024     		movs	r4, #0
 226              	.LVL24:
ARM GAS  /tmp/ccTUic0g.s 			page 5


 227 0086 DFE7     		b	.L11
 228              	.L22:
 229              		.align	2
 230              	.L21:
 231 0088 00000000 		.word	.LANCHOR0
 232              		.cfi_endproc
 233              	.LFE243:
 234              		.size	chHeapAlloc, .-chHeapAlloc
 235 008c AFF30080 		.section	.text.chHeapFree,"ax",%progbits
 236              		.align	2
 237              		.p2align 4,,15
 238              		.global	chHeapFree
 239              		.thumb
 240              		.thumb_func
 241              		.type	chHeapFree, %function
 242              	chHeapFree:
 243              	.LFB244:
 244              		.loc 1 213 0
 245              		.cfi_startproc
 246              		@ args = 0, pretend = 0, frame = 0
 247              		@ frame_needed = 0, uses_anonymous_args = 0
 248              	.LVL25:
 249 0000 F8B5     		push	{r3, r4, r5, r6, r7, lr}
 250              		.cfi_def_cfa_offset 24
 251              		.cfi_offset 3, -24
 252              		.cfi_offset 4, -20
 253              		.cfi_offset 5, -16
 254              		.cfi_offset 6, -12
 255              		.cfi_offset 7, -8
 256              		.cfi_offset 14, -4
 257              		.loc 1 222 0
 258 0002 50F8085C 		ldr	r5, [r0, #-8]
 259              		.loc 1 225 0
 260 0006 05F11007 		add	r7, r5, #16
 261              		.loc 1 213 0
 262 000a 0646     		mov	r6, r0
 263              		.loc 1 220 0
 264 000c A0F10804 		sub	r4, r0, #8
 265              	.LVL26:
 266              		.loc 1 223 0
 267 0010 0835     		adds	r5, r5, #8
 268              	.LVL27:
 269              		.loc 1 225 0
 270 0012 3846     		mov	r0, r7
 271              	.LVL28:
 272 0014 FFF7FEFF 		bl	chMtxLock
 273              	.LVL29:
 274              		.loc 1 223 0
 275 0018 2B46     		mov	r3, r5
 276              	.LVL30:
 277              	.L30:
 278              		.loc 1 229 0
 279 001a AB42     		cmp	r3, r5
 280 001c 04D0     		beq	.L24
 281              	.L35:
 282              		.loc 1 229 0 is_stmt 0 discriminator 2
 283 001e A342     		cmp	r3, r4
ARM GAS  /tmp/ccTUic0g.s 			page 6


 284 0020 02D3     		bcc	.L24
 285 0022 1B68     		ldr	r3, [r3]
 286              	.LVL31:
 287              		.loc 1 229 0
 288 0024 AB42     		cmp	r3, r5
 289 0026 FAD1     		bne	.L35
 290              	.L24:
 291              		.loc 1 230 0 is_stmt 1 discriminator 1
 292 0028 1A68     		ldr	r2, [r3]
 293              		.loc 1 229 0 discriminator 1
 294 002a 1AB1     		cbz	r2, .L26
 295              		.loc 1 230 0
 296 002c 9442     		cmp	r4, r2
 297 002e 01D3     		bcc	.L26
 298 0030 1346     		mov	r3, r2
 299              	.LVL32:
 300              		.loc 1 248 0
 301 0032 F2E7     		b	.L30
 302              	.LVL33:
 303              	.L26:
 304              		.loc 1 235 0
 305 0034 56F8041C 		ldr	r1, [r6, #-4]
 306              		.loc 1 232 0
 307 0038 46F8082C 		str	r2, [r6, #-8]
 308              		.loc 1 233 0
 309 003c 1C60     		str	r4, [r3]
 310              		.loc 1 235 0
 311 003e 01F10802 		add	r2, r1, #8
 312 0042 56F8085C 		ldr	r5, [r6, #-8]
 313              	.LVL34:
 314 0046 A018     		adds	r0, r4, r2
 315 0048 A842     		cmp	r0, r5
 316 004a 0AD0     		beq	.L36
 317              		.loc 1 240 0
 318 004c 5A68     		ldr	r2, [r3, #4]
 319 004e 02F10801 		add	r1, r2, #8
 320 0052 1944     		add	r1, r1, r3
 321 0054 8C42     		cmp	r4, r1
 322 0056 12D0     		beq	.L37
 323              	.L29:
 324              		.loc 1 249 0
 325 0058 3846     		mov	r0, r7
 326              		.loc 1 252 0
 327 005a BDE8F840 		pop	{r3, r4, r5, r6, r7, lr}
 328              	.LVL35:
 329              		.loc 1 249 0
 330 005e FFF7FEBF 		b	chMtxUnlock
 331              	.LVL36:
 332              	.L36:
 333              		.loc 1 237 0
 334 0062 4068     		ldr	r0, [r0, #4]
 335              		.loc 1 238 0
 336 0064 A258     		ldr	r2, [r4, r2]
 337 0066 46F8082C 		str	r2, [r6, #-8]
 338              		.loc 1 237 0
 339 006a 0A18     		adds	r2, r1, r0
 340 006c 0832     		adds	r2, r2, #8
ARM GAS  /tmp/ccTUic0g.s 			page 7


 341 006e 46F8042C 		str	r2, [r6, #-4]
 342              		.loc 1 240 0
 343 0072 5A68     		ldr	r2, [r3, #4]
 344 0074 02F10801 		add	r1, r2, #8
 345 0078 1944     		add	r1, r1, r3
 346 007a 8C42     		cmp	r4, r1
 347 007c ECD1     		bne	.L29
 348              	.L37:
 349              		.loc 1 242 0
 350 007e 56F8040C 		ldr	r0, [r6, #-4]
 351              		.loc 1 243 0
 352 0082 56F8081C 		ldr	r1, [r6, #-8]
 353 0086 1960     		str	r1, [r3]
 354              		.loc 1 242 0
 355 0088 0244     		add	r2, r2, r0
 356 008a 0832     		adds	r2, r2, #8
 357 008c 5A60     		str	r2, [r3, #4]
 358              		.loc 1 249 0
 359 008e 3846     		mov	r0, r7
 360              		.loc 1 252 0
 361 0090 BDE8F840 		pop	{r3, r4, r5, r6, r7, lr}
 362              	.LVL37:
 363              		.loc 1 249 0
 364 0094 FFF7FEBF 		b	chMtxUnlock
 365              	.LVL38:
 366              		.cfi_endproc
 367              	.LFE244:
 368              		.size	chHeapFree, .-chHeapFree
 369 0098 AFF30080 		.section	.text.chHeapStatus,"ax",%progbits
 369      AFF30080 
 370              		.align	2
 371              		.p2align 4,,15
 372              		.global	chHeapStatus
 373              		.thumb
 374              		.thumb_func
 375              		.type	chHeapStatus, %function
 376              	chHeapStatus:
 377              	.LFB245:
 378              		.loc 1 267 0
 379              		.cfi_startproc
 380              		@ args = 0, pretend = 0, frame = 0
 381              		@ frame_needed = 0, uses_anonymous_args = 0
 382              	.LVL39:
 383 0000 F8B5     		push	{r3, r4, r5, r6, r7, lr}
 384              		.cfi_def_cfa_offset 24
 385              		.cfi_offset 3, -24
 386              		.cfi_offset 4, -20
 387              		.cfi_offset 5, -16
 388              		.cfi_offset 6, -12
 389              		.cfi_offset 7, -8
 390              		.cfi_offset 14, -4
 391              		.loc 1 272 0
 392 0002 0E4C     		ldr	r4, .L51
 393 0004 0028     		cmp	r0, #0
 394 0006 18BF     		it	ne
 395 0008 0446     		movne	r4, r0
 396              	.LVL40:
ARM GAS  /tmp/ccTUic0g.s 			page 8


 397              		.loc 1 275 0
 398 000a 04F11006 		add	r6, r4, #16
 399 000e 3046     		mov	r0, r6
 400              		.loc 1 267 0
 401 0010 0F46     		mov	r7, r1
 402              		.loc 1 275 0
 403 0012 FFF7FEFF 		bl	chMtxLock
 404              	.LVL41:
 405              		.loc 1 279 0
 406 0016 A368     		ldr	r3, [r4, #8]
 407 0018 6BB1     		cbz	r3, .L44
 408              		.loc 1 276 0
 409 001a 0022     		movs	r2, #0
 410              		.loc 1 277 0
 411 001c 1446     		mov	r4, r2
 412              	.LVL42:
 413              	.L41:
 414              		.loc 1 279 0
 415 001e 28CB     		ldmia	r3, {r3, r5}
 416              		.loc 1 281 0
 417 0020 0134     		adds	r4, r4, #1
 418              	.LVL43:
 419              		.loc 1 280 0
 420 0022 2A44     		add	r2, r2, r5
 421              	.LVL44:
 422              		.loc 1 279 0
 423 0024 002B     		cmp	r3, #0
 424 0026 FAD1     		bne	.L41
 425              	.LVL45:
 426              	.L40:
 427              		.loc 1 284 0
 428 0028 07B1     		cbz	r7, .L42
 429              		.loc 1 285 0
 430 002a 3A60     		str	r2, [r7]
 431              	.L42:
 432              		.loc 1 287 0
 433 002c 3046     		mov	r0, r6
 434 002e FFF7FEFF 		bl	chMtxUnlock
 435              	.LVL46:
 436              		.loc 1 290 0
 437 0032 2046     		mov	r0, r4
 438 0034 F8BD     		pop	{r3, r4, r5, r6, r7, pc}
 439              	.LVL47:
 440              	.L44:
 441              		.loc 1 276 0
 442 0036 1A46     		mov	r2, r3
 443              		.loc 1 277 0
 444 0038 1C46     		mov	r4, r3
 445              	.LVL48:
 446 003a F5E7     		b	.L40
 447              	.L52:
 448              		.align	2
 449              	.L51:
 450 003c 00000000 		.word	.LANCHOR0
 451              		.cfi_endproc
 452              	.LFE245:
 453              		.size	chHeapStatus, .-chHeapStatus
ARM GAS  /tmp/ccTUic0g.s 			page 9


 454              		.section	.bss.default_heap,"aw",%nobits
 455              		.align	3
 456              		.set	.LANCHOR0,. + 0
 457              		.type	default_heap, %object
 458              		.size	default_heap, 32
 459              	default_heap:
 460 0000 00000000 		.space	32
 460      00000000 
 460      00000000 
 460      00000000 
 460      00000000 
 461              		.text
 462              	.Letext0:
 463              		.file 2 "/nfs/nfs5/home/research/hardware/arm2/gcc-arm-embedded/gcc-arm-none-eabi-4_8-2014q2/lib/g
 464              		.file 3 "/nfs/nfs5/home/research/hardware/arm2/gcc-arm-embedded/gcc-arm-none-eabi-4_8-2014q2/arm-n
 465              		.file 4 "/nfs/nfs5/home/research/hardware/arm2/gcc-arm-embedded/gcc-arm-none-eabi-4_8-2014q2/arm-n
 466              		.file 5 "../ChibiOS/os/rt/ports/ARMCMx/compilers/GCC/chtypes.h"
 467              		.file 6 "../ChibiOS/os/rt/include/chsystypes.h"
 468              		.file 7 "../ChibiOS/os/rt/include/chschd.h"
 469              		.file 8 "../ChibiOS/os/rt/ports/ARMCMx/chcore.h"
 470              		.file 9 "../ChibiOS/os/rt/ports/ARMCMx/chcore_v7m.h"
 471              		.file 10 "../ChibiOS/os/rt/include/chtm.h"
 472              		.file 11 "../ChibiOS/os/rt/include/chsem.h"
 473              		.file 12 "../ChibiOS/os/rt/include/chmtx.h"
 474              		.file 13 "../ChibiOS/os/rt/include/chmemcore.h"
 475              		.file 14 "../ChibiOS/os/rt/include/chheap.h"
 476              		.file 15 "../ChibiOS/os/ext/CMSIS/include/core_cm4.h"
 477              		.section	.debug_info,"",%progbits
 478              	.Ldebug_info0:
 479 0000 B8090000 		.4byte	0x9b8
 480 0004 0400     		.2byte	0x4
 481 0006 00000000 		.4byte	.Ldebug_abbrev0
 482 000a 04       		.byte	0x4
 483 000b 01       		.uleb128 0x1
 484 000c 6E040000 		.4byte	.LASF124
 485 0010 01       		.byte	0x1
 486 0011 9A010000 		.4byte	.LASF125
 487 0015 E3030000 		.4byte	.LASF126
 488 0019 00000000 		.4byte	.Ldebug_ranges0+0
 489 001d 00000000 		.4byte	0
 490 0021 00000000 		.4byte	.Ldebug_line0
 491 0025 02       		.uleb128 0x2
 492 0026 04       		.byte	0x4
 493 0027 05       		.byte	0x5
 494 0028 696E7400 		.ascii	"int\000"
 495 002c 03       		.uleb128 0x3
 496 002d 0D000000 		.4byte	.LASF2
 497 0031 02       		.byte	0x2
 498 0032 D4       		.byte	0xd4
 499 0033 37000000 		.4byte	0x37
 500 0037 04       		.uleb128 0x4
 501 0038 04       		.byte	0x4
 502 0039 07       		.byte	0x7
 503 003a BE010000 		.4byte	.LASF0
 504 003e 04       		.uleb128 0x4
 505 003f 01       		.byte	0x1
 506 0040 06       		.byte	0x6
ARM GAS  /tmp/ccTUic0g.s 			page 10


 507 0041 DD000000 		.4byte	.LASF1
 508 0045 03       		.uleb128 0x3
 509 0046 29000000 		.4byte	.LASF3
 510 004a 03       		.byte	0x3
 511 004b 1C       		.byte	0x1c
 512 004c 50000000 		.4byte	0x50
 513 0050 04       		.uleb128 0x4
 514 0051 01       		.byte	0x1
 515 0052 08       		.byte	0x8
 516 0053 53030000 		.4byte	.LASF4
 517 0057 04       		.uleb128 0x4
 518 0058 02       		.byte	0x2
 519 0059 05       		.byte	0x5
 520 005a 77030000 		.4byte	.LASF5
 521 005e 04       		.uleb128 0x4
 522 005f 02       		.byte	0x2
 523 0060 07       		.byte	0x7
 524 0061 EB010000 		.4byte	.LASF6
 525 0065 03       		.uleb128 0x3
 526 0066 47020000 		.4byte	.LASF7
 527 006a 03       		.byte	0x3
 528 006b 37       		.byte	0x37
 529 006c 70000000 		.4byte	0x70
 530 0070 04       		.uleb128 0x4
 531 0071 04       		.byte	0x4
 532 0072 05       		.byte	0x5
 533 0073 21010000 		.4byte	.LASF8
 534 0077 03       		.uleb128 0x3
 535 0078 6D050000 		.4byte	.LASF9
 536 007c 03       		.byte	0x3
 537 007d 38       		.byte	0x38
 538 007e 82000000 		.4byte	0x82
 539 0082 04       		.uleb128 0x4
 540 0083 04       		.byte	0x4
 541 0084 07       		.byte	0x7
 542 0085 34040000 		.4byte	.LASF10
 543 0089 04       		.uleb128 0x4
 544 008a 08       		.byte	0x8
 545 008b 05       		.byte	0x5
 546 008c 41010000 		.4byte	.LASF11
 547 0090 03       		.uleb128 0x3
 548 0091 F9020000 		.4byte	.LASF12
 549 0095 03       		.byte	0x3
 550 0096 4E       		.byte	0x4e
 551 0097 9B000000 		.4byte	0x9b
 552 009b 04       		.uleb128 0x4
 553 009c 08       		.byte	0x8
 554 009d 07       		.byte	0x7
 555 009e 5B000000 		.4byte	.LASF13
 556 00a2 03       		.uleb128 0x3
 557 00a3 D7050000 		.4byte	.LASF14
 558 00a7 04       		.byte	0x4
 559 00a8 2A       		.byte	0x2a
 560 00a9 45000000 		.4byte	0x45
 561 00ad 03       		.uleb128 0x3
 562 00ae 4B030000 		.4byte	.LASF15
 563 00b2 04       		.byte	0x4
ARM GAS  /tmp/ccTUic0g.s 			page 11


 564 00b3 41       		.byte	0x41
 565 00b4 65000000 		.4byte	0x65
 566 00b8 03       		.uleb128 0x3
 567 00b9 D3030000 		.4byte	.LASF16
 568 00bd 04       		.byte	0x4
 569 00be 42       		.byte	0x42
 570 00bf 77000000 		.4byte	0x77
 571 00c3 03       		.uleb128 0x3
 572 00c4 20000000 		.4byte	.LASF17
 573 00c8 04       		.byte	0x4
 574 00c9 4E       		.byte	0x4e
 575 00ca 90000000 		.4byte	0x90
 576 00ce 03       		.uleb128 0x3
 577 00cf A2050000 		.4byte	.LASF18
 578 00d3 05       		.byte	0x5
 579 00d4 39       		.byte	0x39
 580 00d5 B8000000 		.4byte	0xb8
 581 00d9 03       		.uleb128 0x3
 582 00da 25020000 		.4byte	.LASF19
 583 00de 05       		.byte	0x5
 584 00df 3C       		.byte	0x3c
 585 00e0 A2000000 		.4byte	0xa2
 586 00e4 03       		.uleb128 0x3
 587 00e5 2A010000 		.4byte	.LASF20
 588 00e9 05       		.byte	0x5
 589 00ea 3D       		.byte	0x3d
 590 00eb A2000000 		.4byte	0xa2
 591 00ef 03       		.uleb128 0x3
 592 00f0 04030000 		.4byte	.LASF21
 593 00f4 05       		.byte	0x5
 594 00f5 3E       		.byte	0x3e
 595 00f6 A2000000 		.4byte	0xa2
 596 00fa 03       		.uleb128 0x3
 597 00fb 23030000 		.4byte	.LASF22
 598 00ff 05       		.byte	0x5
 599 0100 40       		.byte	0x40
 600 0101 B8000000 		.4byte	0xb8
 601 0105 03       		.uleb128 0x3
 602 0106 13020000 		.4byte	.LASF23
 603 010a 05       		.byte	0x5
 604 010b 41       		.byte	0x41
 605 010c AD000000 		.4byte	0xad
 606 0110 03       		.uleb128 0x3
 607 0111 3B020000 		.4byte	.LASF24
 608 0115 05       		.byte	0x5
 609 0116 43       		.byte	0x43
 610 0117 B8000000 		.4byte	0xb8
 611 011b 03       		.uleb128 0x3
 612 011c B8010000 		.4byte	.LASF25
 613 0120 05       		.byte	0x5
 614 0121 45       		.byte	0x45
 615 0122 AD000000 		.4byte	0xad
 616 0126 03       		.uleb128 0x3
 617 0127 4F050000 		.4byte	.LASF26
 618 012b 06       		.byte	0x6
 619 012c 33       		.byte	0x33
 620 012d B8000000 		.4byte	0xb8
ARM GAS  /tmp/ccTUic0g.s 			page 12


 621 0131 03       		.uleb128 0x3
 622 0132 58040000 		.4byte	.LASF27
 623 0136 06       		.byte	0x6
 624 0137 3F       		.byte	0x3f
 625 0138 3C010000 		.4byte	0x13c
 626 013c 05       		.uleb128 0x5
 627 013d FE010000 		.4byte	.LASF46
 628 0141 40       		.byte	0x40
 629 0142 07       		.byte	0x7
 630 0143 C2       		.byte	0xc2
 631 0144 1C020000 		.4byte	0x21c
 632 0148 06       		.uleb128 0x6
 633 0149 97030000 		.4byte	.LASF28
 634 014d 07       		.byte	0x7
 635 014e C3       		.byte	0xc3
 636 014f 27020000 		.4byte	0x227
 637 0153 00       		.byte	0
 638 0154 06       		.uleb128 0x6
 639 0155 1C030000 		.4byte	.LASF29
 640 0159 07       		.byte	0x7
 641 015a C5       		.byte	0xc5
 642 015b 27020000 		.4byte	0x227
 643 015f 04       		.byte	0x4
 644 0160 06       		.uleb128 0x6
 645 0161 CA000000 		.4byte	.LASF30
 646 0165 07       		.byte	0x7
 647 0166 C7       		.byte	0xc7
 648 0167 FA000000 		.4byte	0xfa
 649 016b 08       		.byte	0x8
 650 016c 06       		.uleb128 0x6
 651 016d 1A060000 		.4byte	.LASF31
 652 0171 07       		.byte	0x7
 653 0172 C8       		.byte	0xc8
 654 0173 57040000 		.4byte	0x457
 655 0177 0C       		.byte	0xc
 656 0178 06       		.uleb128 0x6
 657 0179 4F010000 		.4byte	.LASF32
 658 017d 07       		.byte	0x7
 659 017e CA       		.byte	0xca
 660 017f 27020000 		.4byte	0x227
 661 0183 10       		.byte	0x10
 662 0184 06       		.uleb128 0x6
 663 0185 C8020000 		.4byte	.LASF33
 664 0189 07       		.byte	0x7
 665 018a CB       		.byte	0xcb
 666 018b 27020000 		.4byte	0x227
 667 018f 14       		.byte	0x14
 668 0190 06       		.uleb128 0x6
 669 0191 F7050000 		.4byte	.LASF34
 670 0195 07       		.byte	0x7
 671 0196 D2       		.byte	0xd2
 672 0197 E2050000 		.4byte	0x5e2
 673 019b 18       		.byte	0x18
 674 019c 06       		.uleb128 0x6
 675 019d 81030000 		.4byte	.LASF35
 676 01a1 07       		.byte	0x7
 677 01a2 DD       		.byte	0xdd
ARM GAS  /tmp/ccTUic0g.s 			page 13


 678 01a3 E4000000 		.4byte	0xe4
 679 01a7 1C       		.byte	0x1c
 680 01a8 06       		.uleb128 0x6
 681 01a9 9E030000 		.4byte	.LASF36
 682 01ad 07       		.byte	0x7
 683 01ae E1       		.byte	0xe1
 684 01af D9000000 		.4byte	0xd9
 685 01b3 1D       		.byte	0x1d
 686 01b4 06       		.uleb128 0x6
 687 01b5 CA050000 		.4byte	.LASF37
 688 01b9 07       		.byte	0x7
 689 01ba E6       		.byte	0xe6
 690 01bb EF000000 		.4byte	0xef
 691 01bf 1E       		.byte	0x1e
 692 01c0 07       		.uleb128 0x7
 693 01c1 705F7500 		.ascii	"p_u\000"
 694 01c5 07       		.byte	0x7
 695 01c6 3701     		.2byte	0x137
 696 01c8 11050000 		.4byte	0x511
 697 01cc 20       		.byte	0x20
 698 01cd 08       		.uleb128 0x8
 699 01ce 6D020000 		.4byte	.LASF38
 700 01d2 07       		.byte	0x7
 701 01d3 3C01     		.2byte	0x13c
 702 01d5 2D020000 		.4byte	0x22d
 703 01d9 24       		.byte	0x24
 704 01da 08       		.uleb128 0x8
 705 01db DA010000 		.4byte	.LASF39
 706 01df 07       		.byte	0x7
 707 01e0 4201     		.2byte	0x142
 708 01e2 51020000 		.4byte	0x251
 709 01e6 28       		.byte	0x28
 710 01e7 08       		.uleb128 0x8
 711 01e8 C8030000 		.4byte	.LASF40
 712 01ec 07       		.byte	0x7
 713 01ed 4801     		.2byte	0x148
 714 01ef 10010000 		.4byte	0x110
 715 01f3 30       		.byte	0x30
 716 01f4 08       		.uleb128 0x8
 717 01f5 6D030000 		.4byte	.LASF41
 718 01f9 07       		.byte	0x7
 719 01fa 4F01     		.2byte	0x14f
 720 01fc DC050000 		.4byte	0x5dc
 721 0200 34       		.byte	0x34
 722 0201 08       		.uleb128 0x8
 723 0202 59050000 		.4byte	.LASF42
 724 0206 07       		.byte	0x7
 725 0207 5301     		.2byte	0x153
 726 0209 FA000000 		.4byte	0xfa
 727 020d 38       		.byte	0x38
 728 020e 08       		.uleb128 0x8
 729 020f EF000000 		.4byte	.LASF43
 730 0213 07       		.byte	0x7
 731 0214 5A01     		.2byte	0x15a
 732 0216 04030000 		.4byte	0x304
 733 021a 3C       		.byte	0x3c
 734 021b 00       		.byte	0
ARM GAS  /tmp/ccTUic0g.s 			page 14


 735 021c 03       		.uleb128 0x3
 736 021d 80020000 		.4byte	.LASF44
 737 0221 06       		.byte	0x6
 738 0222 44       		.byte	0x44
 739 0223 27020000 		.4byte	0x227
 740 0227 09       		.uleb128 0x9
 741 0228 04       		.byte	0x4
 742 0229 31010000 		.4byte	0x131
 743 022d 03       		.uleb128 0x3
 744 022e 03060000 		.4byte	.LASF45
 745 0232 06       		.byte	0x6
 746 0233 49       		.byte	0x49
 747 0234 38020000 		.4byte	0x238
 748 0238 05       		.uleb128 0x5
 749 0239 1F040000 		.4byte	.LASF47
 750 023d 04       		.byte	0x4
 751 023e 07       		.byte	0x7
 752 023f B0       		.byte	0xb0
 753 0240 51020000 		.4byte	0x251
 754 0244 06       		.uleb128 0x6
 755 0245 97030000 		.4byte	.LASF28
 756 0249 07       		.byte	0x7
 757 024a B1       		.byte	0xb1
 758 024b 27020000 		.4byte	0x227
 759 024f 00       		.byte	0
 760 0250 00       		.byte	0
 761 0251 03       		.uleb128 0x3
 762 0252 B1050000 		.4byte	.LASF48
 763 0256 06       		.byte	0x6
 764 0257 50       		.byte	0x50
 765 0258 5C020000 		.4byte	0x25c
 766 025c 05       		.uleb128 0x5
 767 025d B9000000 		.4byte	.LASF49
 768 0261 08       		.byte	0x8
 769 0262 07       		.byte	0x7
 770 0263 B7       		.byte	0xb7
 771 0264 81020000 		.4byte	0x281
 772 0268 06       		.uleb128 0x6
 773 0269 97030000 		.4byte	.LASF28
 774 026d 07       		.byte	0x7
 775 026e B8       		.byte	0xb8
 776 026f 27020000 		.4byte	0x227
 777 0273 00       		.byte	0
 778 0274 06       		.uleb128 0x6
 779 0275 1C030000 		.4byte	.LASF29
 780 0279 07       		.byte	0x7
 781 027a B9       		.byte	0xb9
 782 027b 27020000 		.4byte	0x227
 783 027f 04       		.byte	0x4
 784 0280 00       		.byte	0
 785 0281 03       		.uleb128 0x3
 786 0282 00000000 		.4byte	.LASF50
 787 0286 06       		.byte	0x6
 788 0287 57       		.byte	0x57
 789 0288 8C020000 		.4byte	0x28c
 790 028c 0A       		.uleb128 0xa
 791 028d 2D020000 		.4byte	.LASF51
ARM GAS  /tmp/ccTUic0g.s 			page 15


 792 0291 1C       		.byte	0x1c
 793 0292 07       		.byte	0x7
 794 0293 9201     		.2byte	0x192
 795 0295 E8020000 		.4byte	0x2e8
 796 0299 08       		.uleb128 0x8
 797 029a AA020000 		.4byte	.LASF52
 798 029e 07       		.byte	0x7
 799 029f 9301     		.2byte	0x193
 800 02a1 51020000 		.4byte	0x251
 801 02a5 00       		.byte	0
 802 02a6 08       		.uleb128 0x8
 803 02a7 89030000 		.4byte	.LASF53
 804 02ab 07       		.byte	0x7
 805 02ac 9401     		.2byte	0x194
 806 02ae FA000000 		.4byte	0xfa
 807 02b2 08       		.byte	0x8
 808 02b3 08       		.uleb128 0x8
 809 02b4 D0020000 		.4byte	.LASF54
 810 02b8 07       		.byte	0x7
 811 02b9 9601     		.2byte	0x196
 812 02bb 57040000 		.4byte	0x457
 813 02bf 0C       		.byte	0xc
 814 02c0 08       		.uleb128 0x8
 815 02c1 5F010000 		.4byte	.LASF55
 816 02c5 07       		.byte	0x7
 817 02c6 9901     		.2byte	0x199
 818 02c8 27020000 		.4byte	0x227
 819 02cc 10       		.byte	0x10
 820 02cd 08       		.uleb128 0x8
 821 02ce F1020000 		.4byte	.LASF56
 822 02d2 07       		.byte	0x7
 823 02d3 9A01     		.2byte	0x19a
 824 02d5 27020000 		.4byte	0x227
 825 02d9 14       		.byte	0x14
 826 02da 08       		.uleb128 0x8
 827 02db E7020000 		.4byte	.LASF57
 828 02df 07       		.byte	0x7
 829 02e0 9D01     		.2byte	0x19d
 830 02e2 27020000 		.4byte	0x227
 831 02e6 18       		.byte	0x18
 832 02e7 00       		.byte	0
 833 02e8 03       		.uleb128 0x3
 834 02e9 64050000 		.4byte	.LASF58
 835 02ed 06       		.byte	0x6
 836 02ee 5C       		.byte	0x5c
 837 02ef F3020000 		.4byte	0x2f3
 838 02f3 09       		.uleb128 0x9
 839 02f4 04       		.byte	0x4
 840 02f5 F9020000 		.4byte	0x2f9
 841 02f9 0B       		.uleb128 0xb
 842 02fa 04030000 		.4byte	0x304
 843 02fe 0C       		.uleb128 0xc
 844 02ff 04030000 		.4byte	0x304
 845 0303 00       		.byte	0
 846 0304 0D       		.uleb128 0xd
 847 0305 04       		.byte	0x4
 848 0306 03       		.uleb128 0x3
ARM GAS  /tmp/ccTUic0g.s 			page 16


 849 0307 0C030000 		.4byte	.LASF59
 850 030b 06       		.byte	0x6
 851 030c 61       		.byte	0x61
 852 030d 11030000 		.4byte	0x311
 853 0311 0A       		.uleb128 0xa
 854 0312 91050000 		.4byte	.LASF60
 855 0316 14       		.byte	0x14
 856 0317 07       		.byte	0x7
 857 0318 6D01     		.2byte	0x16d
 858 031a 60030000 		.4byte	0x360
 859 031e 08       		.uleb128 0x8
 860 031f CB010000 		.4byte	.LASF61
 861 0323 07       		.byte	0x7
 862 0324 6E01     		.2byte	0x16e
 863 0326 F4050000 		.4byte	0x5f4
 864 032a 00       		.byte	0
 865 032b 08       		.uleb128 0x8
 866 032c 70010000 		.4byte	.LASF62
 867 0330 07       		.byte	0x7
 868 0331 6F01     		.2byte	0x16f
 869 0333 F4050000 		.4byte	0x5f4
 870 0337 04       		.byte	0x4
 871 0338 08       		.uleb128 0x8
 872 0339 16040000 		.4byte	.LASF63
 873 033d 07       		.byte	0x7
 874 033e 7001     		.2byte	0x170
 875 0340 26010000 		.4byte	0x126
 876 0344 08       		.byte	0x8
 877 0345 08       		.uleb128 0x8
 878 0346 20060000 		.4byte	.LASF64
 879 034a 07       		.byte	0x7
 880 034b 7101     		.2byte	0x171
 881 034d E8020000 		.4byte	0x2e8
 882 0351 0C       		.byte	0xc
 883 0352 08       		.uleb128 0x8
 884 0353 AA050000 		.4byte	.LASF65
 885 0357 07       		.byte	0x7
 886 0358 7301     		.2byte	0x173
 887 035a 04030000 		.4byte	0x304
 888 035e 10       		.byte	0x10
 889 035f 00       		.byte	0
 890 0360 03       		.uleb128 0x3
 891 0361 8A000000 		.4byte	.LASF66
 892 0365 06       		.byte	0x6
 893 0366 66       		.byte	0x66
 894 0367 6B030000 		.4byte	0x36b
 895 036b 0A       		.uleb128 0xa
 896 036c 93020000 		.4byte	.LASF67
 897 0370 10       		.byte	0x10
 898 0371 07       		.byte	0x7
 899 0372 7D01     		.2byte	0x17d
 900 0374 AD030000 		.4byte	0x3ad
 901 0378 08       		.uleb128 0x8
 902 0379 CB010000 		.4byte	.LASF61
 903 037d 07       		.byte	0x7
 904 037e 7E01     		.2byte	0x17e
 905 0380 F4050000 		.4byte	0x5f4
ARM GAS  /tmp/ccTUic0g.s 			page 17


 906 0384 00       		.byte	0
 907 0385 08       		.uleb128 0x8
 908 0386 70010000 		.4byte	.LASF62
 909 038a 07       		.byte	0x7
 910 038b 8001     		.2byte	0x180
 911 038d F4050000 		.4byte	0x5f4
 912 0391 04       		.byte	0x4
 913 0392 08       		.uleb128 0x8
 914 0393 16040000 		.4byte	.LASF63
 915 0397 07       		.byte	0x7
 916 0398 8201     		.2byte	0x182
 917 039a 26010000 		.4byte	0x126
 918 039e 08       		.byte	0x8
 919 039f 08       		.uleb128 0x8
 920 03a0 B2020000 		.4byte	.LASF68
 921 03a4 07       		.byte	0x7
 922 03a5 8A01     		.2byte	0x18a
 923 03a7 26010000 		.4byte	0x126
 924 03ab 0C       		.byte	0xc
 925 03ac 00       		.byte	0
 926 03ad 03       		.uleb128 0x3
 927 03ae 3F000000 		.4byte	.LASF69
 928 03b2 06       		.byte	0x6
 929 03b3 6B       		.byte	0x6b
 930 03b4 B8030000 		.4byte	0x3b8
 931 03b8 0A       		.uleb128 0xa
 932 03b9 3B030000 		.4byte	.LASF70
 933 03bd 04       		.byte	0x4
 934 03be 07       		.byte	0x7
 935 03bf A401     		.2byte	0x1a4
 936 03c1 D3030000 		.4byte	0x3d3
 937 03c5 08       		.uleb128 0x8
 938 03c6 78050000 		.4byte	.LASF71
 939 03ca 07       		.byte	0x7
 940 03cb AC01     		.2byte	0x1ac
 941 03cd FA050000 		.4byte	0x5fa
 942 03d1 00       		.byte	0
 943 03d2 00       		.byte	0
 944 03d3 03       		.uleb128 0x3
 945 03d4 19020000 		.4byte	.LASF72
 946 03d8 06       		.byte	0x6
 947 03d9 70       		.byte	0x70
 948 03da DE030000 		.4byte	0x3de
 949 03de 0E       		.uleb128 0xe
 950 03df 17010000 		.4byte	.LASF73
 951 03e3 5001     		.2byte	0x150
 952 03e5 07       		.byte	0x7
 953 03e6 C401     		.2byte	0x1c4
 954 03e8 3A040000 		.4byte	0x43a
 955 03ec 08       		.uleb128 0x8
 956 03ed D1050000 		.4byte	.LASF74
 957 03f1 07       		.byte	0x7
 958 03f2 C801     		.2byte	0x1c8
 959 03f4 81020000 		.4byte	0x281
 960 03f8 00       		.byte	0
 961 03f9 08       		.uleb128 0x8
 962 03fa 0A010000 		.4byte	.LASF75
ARM GAS  /tmp/ccTUic0g.s 			page 18


 963 03fe 07       		.byte	0x7
 964 03ff CC01     		.2byte	0x1cc
 965 0401 60030000 		.4byte	0x360
 966 0405 1C       		.byte	0x1c
 967 0406 07       		.uleb128 0x7
 968 0407 64626700 		.ascii	"dbg\000"
 969 040b 07       		.byte	0x7
 970 040c D001     		.2byte	0x1d0
 971 040e AD030000 		.4byte	0x3ad
 972 0412 2C       		.byte	0x2c
 973 0413 08       		.uleb128 0x8
 974 0414 08020000 		.4byte	.LASF76
 975 0418 07       		.byte	0x7
 976 0419 D401     		.2byte	0x1d4
 977 041b 31010000 		.4byte	0x131
 978 041f 30       		.byte	0x30
 979 0420 07       		.uleb128 0x7
 980 0421 746D00   		.ascii	"tm\000"
 981 0424 07       		.byte	0x7
 982 0425 D901     		.2byte	0x1d9
 983 0427 06050000 		.4byte	0x506
 984 042b 70       		.byte	0x70
 985 042c 08       		.uleb128 0x8
 986 042d 8B010000 		.4byte	.LASF77
 987 0431 07       		.byte	0x7
 988 0432 E501     		.2byte	0x1e5
 989 0434 FF050000 		.4byte	0x5ff
 990 0438 78       		.byte	0x78
 991 0439 00       		.byte	0
 992 043a 04       		.uleb128 0x4
 993 043b 04       		.byte	0x4
 994 043c 07       		.byte	0x7
 995 043d 77020000 		.4byte	.LASF78
 996 0441 03       		.uleb128 0x3
 997 0442 67010000 		.4byte	.LASF79
 998 0446 08       		.byte	0x8
 999 0447 65       		.byte	0x65
 1000 0448 04030000 		.4byte	0x304
 1001 044c 03       		.uleb128 0x3
 1002 044d 51020000 		.4byte	.LASF80
 1003 0451 08       		.byte	0x8
 1004 0452 6D       		.byte	0x6d
 1005 0453 C3000000 		.4byte	0xc3
 1006 0457 05       		.uleb128 0x5
 1007 0458 89050000 		.4byte	.LASF81
 1008 045c 04       		.byte	0x4
 1009 045d 08       		.byte	0x8
 1010 045e 89       		.byte	0x89
 1011 045f 70040000 		.4byte	0x470
 1012 0463 0F       		.uleb128 0xf
 1013 0464 72313300 		.ascii	"r13\000"
 1014 0468 08       		.byte	0x8
 1015 0469 8A       		.byte	0x8a
 1016 046a EB040000 		.4byte	0x4eb
 1017 046e 00       		.byte	0
 1018 046f 00       		.byte	0
 1019 0470 05       		.uleb128 0x5
ARM GAS  /tmp/ccTUic0g.s 			page 19


 1020 0471 33000000 		.4byte	.LASF82
 1021 0475 24       		.byte	0x24
 1022 0476 09       		.byte	0x9
 1023 0477 FD       		.byte	0xfd
 1024 0478 EB040000 		.4byte	0x4eb
 1025 047c 07       		.uleb128 0x7
 1026 047d 723400   		.ascii	"r4\000"
 1027 0480 09       		.byte	0x9
 1028 0481 1001     		.2byte	0x110
 1029 0483 41040000 		.4byte	0x441
 1030 0487 00       		.byte	0
 1031 0488 07       		.uleb128 0x7
 1032 0489 723500   		.ascii	"r5\000"
 1033 048c 09       		.byte	0x9
 1034 048d 1101     		.2byte	0x111
 1035 048f 41040000 		.4byte	0x441
 1036 0493 04       		.byte	0x4
 1037 0494 07       		.uleb128 0x7
 1038 0495 723600   		.ascii	"r6\000"
 1039 0498 09       		.byte	0x9
 1040 0499 1201     		.2byte	0x112
 1041 049b 41040000 		.4byte	0x441
 1042 049f 08       		.byte	0x8
 1043 04a0 07       		.uleb128 0x7
 1044 04a1 723700   		.ascii	"r7\000"
 1045 04a4 09       		.byte	0x9
 1046 04a5 1301     		.2byte	0x113
 1047 04a7 41040000 		.4byte	0x441
 1048 04ab 0C       		.byte	0xc
 1049 04ac 07       		.uleb128 0x7
 1050 04ad 723800   		.ascii	"r8\000"
 1051 04b0 09       		.byte	0x9
 1052 04b1 1401     		.2byte	0x114
 1053 04b3 41040000 		.4byte	0x441
 1054 04b7 10       		.byte	0x10
 1055 04b8 07       		.uleb128 0x7
 1056 04b9 723900   		.ascii	"r9\000"
 1057 04bc 09       		.byte	0x9
 1058 04bd 1501     		.2byte	0x115
 1059 04bf 41040000 		.4byte	0x441
 1060 04c3 14       		.byte	0x14
 1061 04c4 07       		.uleb128 0x7
 1062 04c5 72313000 		.ascii	"r10\000"
 1063 04c9 09       		.byte	0x9
 1064 04ca 1601     		.2byte	0x116
 1065 04cc 41040000 		.4byte	0x441
 1066 04d0 18       		.byte	0x18
 1067 04d1 07       		.uleb128 0x7
 1068 04d2 72313100 		.ascii	"r11\000"
 1069 04d6 09       		.byte	0x9
 1070 04d7 1701     		.2byte	0x117
 1071 04d9 41040000 		.4byte	0x441
 1072 04dd 1C       		.byte	0x1c
 1073 04de 07       		.uleb128 0x7
 1074 04df 6C7200   		.ascii	"lr\000"
 1075 04e2 09       		.byte	0x9
 1076 04e3 1801     		.2byte	0x118
ARM GAS  /tmp/ccTUic0g.s 			page 20


 1077 04e5 41040000 		.4byte	0x441
 1078 04e9 20       		.byte	0x20
 1079 04ea 00       		.byte	0
 1080 04eb 09       		.uleb128 0x9
 1081 04ec 04       		.byte	0x4
 1082 04ed 70040000 		.4byte	0x470
 1083 04f1 10       		.uleb128 0x10
 1084 04f2 04       		.byte	0x4
 1085 04f3 0A       		.byte	0xa
 1086 04f4 38       		.byte	0x38
 1087 04f5 06050000 		.4byte	0x506
 1088 04f9 06       		.uleb128 0x6
 1089 04fa 82050000 		.4byte	.LASF83
 1090 04fe 0A       		.byte	0xa
 1091 04ff 3C       		.byte	0x3c
 1092 0500 CE000000 		.4byte	0xce
 1093 0504 00       		.byte	0
 1094 0505 00       		.byte	0
 1095 0506 03       		.uleb128 0x3
 1096 0507 D6020000 		.4byte	.LASF84
 1097 050b 0A       		.byte	0xa
 1098 050c 3D       		.byte	0x3d
 1099 050d F1040000 		.4byte	0x4f1
 1100 0511 11       		.uleb128 0x11
 1101 0512 04       		.byte	0x4
 1102 0513 07       		.byte	0x7
 1103 0514 FA       		.byte	0xfa
 1104 0515 7A050000 		.4byte	0x57a
 1105 0519 12       		.uleb128 0x12
 1106 051a 19000000 		.4byte	.LASF85
 1107 051e 07       		.byte	0x7
 1108 051f 0101     		.2byte	0x101
 1109 0521 05010000 		.4byte	0x105
 1110 0525 12       		.uleb128 0x12
 1111 0526 72000000 		.4byte	.LASF86
 1112 052a 07       		.byte	0x7
 1113 052b 0801     		.2byte	0x108
 1114 052d 05010000 		.4byte	0x105
 1115 0531 12       		.uleb128 0x12
 1116 0532 EA050000 		.4byte	.LASF87
 1117 0536 07       		.byte	0x7
 1118 0537 0F01     		.2byte	0x10f
 1119 0539 04030000 		.4byte	0x304
 1120 053d 12       		.uleb128 0x12
 1121 053e 11010000 		.4byte	.LASF88
 1122 0542 07       		.byte	0x7
 1123 0543 1601     		.2byte	0x116
 1124 0545 7A050000 		.4byte	0x57a
 1125 0549 12       		.uleb128 0x12
 1126 054a 82000000 		.4byte	.LASF89
 1127 054e 07       		.byte	0x7
 1128 054f 1B01     		.2byte	0x11b
 1129 0551 05010000 		.4byte	0x105
 1130 0555 12       		.uleb128 0x12
 1131 0556 D3010000 		.4byte	.LASF90
 1132 055a 07       		.byte	0x7
 1133 055b 2401     		.2byte	0x124
ARM GAS  /tmp/ccTUic0g.s 			page 21


 1134 055d A5050000 		.4byte	0x5a5
 1135 0561 12       		.uleb128 0x12
 1136 0562 DC030000 		.4byte	.LASF91
 1137 0566 07       		.byte	0x7
 1138 0567 2D01     		.2byte	0x12d
 1139 0569 DC050000 		.4byte	0x5dc
 1140 056d 12       		.uleb128 0x12
 1141 056e 90030000 		.4byte	.LASF92
 1142 0572 07       		.byte	0x7
 1143 0573 3501     		.2byte	0x135
 1144 0575 10010000 		.4byte	0x110
 1145 0579 00       		.byte	0
 1146 057a 09       		.uleb128 0x9
 1147 057b 04       		.byte	0x4
 1148 057c 1C020000 		.4byte	0x21c
 1149 0580 05       		.uleb128 0x5
 1150 0581 BB030000 		.4byte	.LASF93
 1151 0585 0C       		.byte	0xc
 1152 0586 0B       		.byte	0xb
 1153 0587 34       		.byte	0x34
 1154 0588 A5050000 		.4byte	0x5a5
 1155 058c 06       		.uleb128 0x6
 1156 058d 57010000 		.4byte	.LASF94
 1157 0591 0B       		.byte	0xb
 1158 0592 35       		.byte	0x35
 1159 0593 51020000 		.4byte	0x251
 1160 0597 00       		.byte	0
 1161 0598 06       		.uleb128 0x6
 1162 0599 E5010000 		.4byte	.LASF95
 1163 059d 0B       		.byte	0xb
 1164 059e 37       		.byte	0x37
 1165 059f 1B010000 		.4byte	0x11b
 1166 05a3 08       		.byte	0x8
 1167 05a4 00       		.byte	0
 1168 05a5 09       		.uleb128 0x9
 1169 05a6 04       		.byte	0x4
 1170 05a7 80050000 		.4byte	0x580
 1171 05ab 05       		.uleb128 0x5
 1172 05ac C1050000 		.4byte	.LASF96
 1173 05b0 10       		.byte	0x10
 1174 05b1 0C       		.byte	0xc
 1175 05b2 39       		.byte	0x39
 1176 05b3 DC050000 		.4byte	0x5dc
 1177 05b7 06       		.uleb128 0x6
 1178 05b8 F7000000 		.4byte	.LASF97
 1179 05bc 0C       		.byte	0xc
 1180 05bd 3A       		.byte	0x3a
 1181 05be 51020000 		.4byte	0x251
 1182 05c2 00       		.byte	0
 1183 05c3 06       		.uleb128 0x6
 1184 05c4 12060000 		.4byte	.LASF98
 1185 05c8 0C       		.byte	0xc
 1186 05c9 3C       		.byte	0x3c
 1187 05ca 27020000 		.4byte	0x227
 1188 05ce 08       		.byte	0x8
 1189 05cf 06       		.uleb128 0x6
 1190 05d0 48050000 		.4byte	.LASF99
ARM GAS  /tmp/ccTUic0g.s 			page 22


 1191 05d4 0C       		.byte	0xc
 1192 05d5 3E       		.byte	0x3e
 1193 05d6 1A060000 		.4byte	0x61a
 1194 05da 0C       		.byte	0xc
 1195 05db 00       		.byte	0
 1196 05dc 09       		.uleb128 0x9
 1197 05dd 04       		.byte	0x4
 1198 05de AB050000 		.4byte	0x5ab
 1199 05e2 09       		.uleb128 0x9
 1200 05e3 04       		.byte	0x4
 1201 05e4 E8050000 		.4byte	0x5e8
 1202 05e8 13       		.uleb128 0x13
 1203 05e9 ED050000 		.4byte	0x5ed
 1204 05ed 04       		.uleb128 0x4
 1205 05ee 01       		.byte	0x1
 1206 05ef 08       		.byte	0x8
 1207 05f0 53040000 		.4byte	.LASF100
 1208 05f4 09       		.uleb128 0x9
 1209 05f5 04       		.byte	0x4
 1210 05f6 06030000 		.4byte	0x306
 1211 05fa 14       		.uleb128 0x14
 1212 05fb E2050000 		.4byte	0x5e2
 1213 05ff 15       		.uleb128 0x15
 1214 0600 4C040000 		.4byte	0x44c
 1215 0604 0F060000 		.4byte	0x60f
 1216 0608 16       		.uleb128 0x16
 1217 0609 3A040000 		.4byte	0x43a
 1218 060d 1A       		.byte	0x1a
 1219 060e 00       		.byte	0
 1220 060f 03       		.uleb128 0x3
 1221 0610 78010000 		.4byte	.LASF101
 1222 0614 0C       		.byte	0xc
 1223 0615 34       		.byte	0x34
 1224 0616 AB050000 		.4byte	0x5ab
 1225 061a 09       		.uleb128 0x9
 1226 061b 04       		.byte	0x4
 1227 061c 0F060000 		.4byte	0x60f
 1228 0620 03       		.uleb128 0x3
 1229 0621 4E000000 		.4byte	.LASF102
 1230 0625 0D       		.byte	0xd
 1231 0626 36       		.byte	0x36
 1232 0627 2B060000 		.4byte	0x62b
 1233 062b 09       		.uleb128 0x9
 1234 062c 04       		.byte	0x4
 1235 062d 31060000 		.4byte	0x631
 1236 0631 17       		.uleb128 0x17
 1237 0632 04030000 		.4byte	0x304
 1238 0636 40060000 		.4byte	0x640
 1239 063a 0C       		.uleb128 0xc
 1240 063b 2C000000 		.4byte	0x2c
 1241 063f 00       		.byte	0
 1242 0640 03       		.uleb128 0x3
 1243 0641 33010000 		.4byte	.LASF103
 1244 0645 0E       		.byte	0xe
 1245 0646 3C       		.byte	0x3c
 1246 0647 4B060000 		.4byte	0x64b
 1247 064b 05       		.uleb128 0x5
ARM GAS  /tmp/ccTUic0g.s 			page 23


 1248 064c 28060000 		.4byte	.LASF104
 1249 0650 20       		.byte	0x20
 1250 0651 0E       		.byte	0xe
 1251 0652 4F       		.byte	0x4f
 1252 0653 7C060000 		.4byte	0x67c
 1253 0657 06       		.uleb128 0x6
 1254 0658 DF050000 		.4byte	.LASF105
 1255 065c 0E       		.byte	0xe
 1256 065d 50       		.byte	0x50
 1257 065e 20060000 		.4byte	0x620
 1258 0662 00       		.byte	0
 1259 0663 06       		.uleb128 0x6
 1260 0664 7B000000 		.4byte	.LASF106
 1261 0668 0E       		.byte	0xe
 1262 0669 52       		.byte	0x52
 1263 066a 9B060000 		.4byte	0x69b
 1264 066e 08       		.byte	0x8
 1265 066f 06       		.uleb128 0x6
 1266 0670 E9000000 		.4byte	.LASF107
 1267 0674 0E       		.byte	0xe
 1268 0675 54       		.byte	0x54
 1269 0676 0F060000 		.4byte	0x60f
 1270 067a 10       		.byte	0x10
 1271 067b 00       		.byte	0
 1272 067c 11       		.uleb128 0x11
 1273 067d 04       		.byte	0x4
 1274 067e 0E       		.byte	0xe
 1275 067f 44       		.byte	0x44
 1276 0680 9B060000 		.4byte	0x69b
 1277 0684 18       		.uleb128 0x18
 1278 0685 14000000 		.4byte	.LASF108
 1279 0689 0E       		.byte	0xe
 1280 068a 45       		.byte	0x45
 1281 068b BC060000 		.4byte	0x6bc
 1282 068f 18       		.uleb128 0x18
 1283 0690 2F040000 		.4byte	.LASF109
 1284 0694 0E       		.byte	0xe
 1285 0695 46       		.byte	0x46
 1286 0696 C2060000 		.4byte	0x6c2
 1287 069a 00       		.byte	0
 1288 069b 19       		.uleb128 0x19
 1289 069c 61030000 		.4byte	.LASF127
 1290 06a0 08       		.byte	0x8
 1291 06a1 0E       		.byte	0xe
 1292 06a2 41       		.byte	0x41
 1293 06a3 BC060000 		.4byte	0x6bc
 1294 06a7 18       		.uleb128 0x18
 1295 06a8 B3000000 		.4byte	.LASF110
 1296 06ac 0E       		.byte	0xe
 1297 06ad 42       		.byte	0x42
 1298 06ae 4C040000 		.4byte	0x44c
 1299 06b2 1A       		.uleb128 0x1a
 1300 06b3 6800     		.ascii	"h\000"
 1301 06b5 0E       		.byte	0xe
 1302 06b6 49       		.byte	0x49
 1303 06b7 C8060000 		.4byte	0x6c8
 1304 06bb 00       		.byte	0
ARM GAS  /tmp/ccTUic0g.s 			page 24


 1305 06bc 09       		.uleb128 0x9
 1306 06bd 04       		.byte	0x4
 1307 06be 9B060000 		.4byte	0x69b
 1308 06c2 09       		.uleb128 0x9
 1309 06c3 04       		.byte	0x4
 1310 06c4 40060000 		.4byte	0x640
 1311 06c8 10       		.uleb128 0x10
 1312 06c9 08       		.byte	0x8
 1313 06ca 0E       		.byte	0xe
 1314 06cb 43       		.byte	0x43
 1315 06cc E7060000 		.4byte	0x6e7
 1316 06d0 0F       		.uleb128 0xf
 1317 06d1 7500     		.ascii	"u\000"
 1318 06d3 0E       		.byte	0xe
 1319 06d4 47       		.byte	0x47
 1320 06d5 7C060000 		.4byte	0x67c
 1321 06d9 00       		.byte	0
 1322 06da 06       		.uleb128 0x6
 1323 06db FE050000 		.4byte	.LASF111
 1324 06df 0E       		.byte	0xe
 1325 06e0 48       		.byte	0x48
 1326 06e1 2C000000 		.4byte	0x2c
 1327 06e5 04       		.byte	0x4
 1328 06e6 00       		.byte	0
 1329 06e7 1B       		.uleb128 0x1b
 1330 06e8 80010000 		.4byte	.LASF112
 1331 06ec 01       		.byte	0x1
 1332 06ed 5B       		.byte	0x5b
 1333 06ee 00000000 		.4byte	.LFB241
 1334 06f2 1C000000 		.4byte	.LFE241-.LFB241
 1335 06f6 01       		.uleb128 0x1
 1336 06f7 9C       		.byte	0x9c
 1337 06f8 10070000 		.4byte	0x710
 1338 06fc 1C       		.uleb128 0x1c
 1339 06fd 14000000 		.4byte	.LVL0
 1340 0701 8C090000 		.4byte	0x98c
 1341 0705 1D       		.uleb128 0x1d
 1342 0706 01       		.uleb128 0x1
 1343 0707 50       		.byte	0x50
 1344 0708 05       		.uleb128 0x5
 1345 0709 03       		.byte	0x3
 1346 070a 10000000 		.4byte	.LANCHOR0+16
 1347 070e 00       		.byte	0
 1348 070f 00       		.byte	0
 1349 0710 1B       		.uleb128 0x1b
 1350 0711 5C020000 		.4byte	.LASF113
 1351 0715 01       		.byte	0x1
 1352 0716 72       		.byte	0x72
 1353 0717 00000000 		.4byte	.LFB242
 1354 071b 14000000 		.4byte	.LFE242-.LFB242
 1355 071f 01       		.uleb128 0x1
 1356 0720 9C       		.byte	0x9c
 1357 0721 7D070000 		.4byte	0x77d
 1358 0725 1E       		.uleb128 0x1e
 1359 0726 AD000000 		.4byte	.LASF114
 1360 072a 01       		.byte	0x1
 1361 072b 72       		.byte	0x72
ARM GAS  /tmp/ccTUic0g.s 			page 25


 1362 072c C2060000 		.4byte	0x6c2
 1363 0730 00000000 		.4byte	.LLST0
 1364 0734 1F       		.uleb128 0x1f
 1365 0735 62756600 		.ascii	"buf\000"
 1366 0739 01       		.byte	0x1
 1367 073a 72       		.byte	0x72
 1368 073b 04030000 		.4byte	0x304
 1369 073f 2E000000 		.4byte	.LLST1
 1370 0743 1E       		.uleb128 0x1e
 1371 0744 FE050000 		.4byte	.LASF111
 1372 0748 01       		.byte	0x1
 1373 0749 72       		.byte	0x72
 1374 074a 2C000000 		.4byte	0x2c
 1375 074e 4F000000 		.4byte	.LLST2
 1376 0752 20       		.uleb128 0x20
 1377 0753 687000   		.ascii	"hp\000"
 1378 0756 01       		.byte	0x1
 1379 0757 73       		.byte	0x73
 1380 0758 BC060000 		.4byte	0x6bc
 1381 075c 2E000000 		.4byte	.LLST1
 1382 0760 21       		.uleb128 0x21
 1383 0761 A6030000 		.4byte	.LASF116
 1384 0765 8D070000 		.4byte	0x78d
 1385 0769 1C       		.uleb128 0x1c
 1386 076a 14000000 		.4byte	.LVL4
 1387 076e 8C090000 		.4byte	0x98c
 1388 0772 1D       		.uleb128 0x1d
 1389 0773 01       		.uleb128 0x1
 1390 0774 50       		.byte	0x50
 1391 0775 05       		.uleb128 0x5
 1392 0776 F3       		.byte	0xf3
 1393 0777 01       		.uleb128 0x1
 1394 0778 50       		.byte	0x50
 1395 0779 23       		.byte	0x23
 1396 077a 10       		.uleb128 0x10
 1397 077b 00       		.byte	0
 1398 077c 00       		.byte	0
 1399 077d 15       		.uleb128 0x15
 1400 077e ED050000 		.4byte	0x5ed
 1401 0782 8D070000 		.4byte	0x78d
 1402 0786 16       		.uleb128 0x16
 1403 0787 3A040000 		.4byte	0x43a
 1404 078b 10       		.byte	0x10
 1405 078c 00       		.byte	0
 1406 078d 13       		.uleb128 0x13
 1407 078e 7D070000 		.4byte	0x77d
 1408 0792 22       		.uleb128 0x22
 1409 0793 AF030000 		.4byte	.LASF117
 1410 0797 01       		.byte	0x1
 1411 0798 93       		.byte	0x93
 1412 0799 04030000 		.4byte	0x304
 1413 079d 00000000 		.4byte	.LFB243
 1414 07a1 8C000000 		.4byte	.LFE243-.LFB243
 1415 07a5 01       		.uleb128 0x1
 1416 07a6 9C       		.byte	0x9c
 1417 07a7 3C080000 		.4byte	0x83c
 1418 07ab 1E       		.uleb128 0x1e
ARM GAS  /tmp/ccTUic0g.s 			page 26


 1419 07ac AD000000 		.4byte	.LASF114
 1420 07b0 01       		.byte	0x1
 1421 07b1 93       		.byte	0x93
 1422 07b2 C2060000 		.4byte	0x6c2
 1423 07b6 7D000000 		.4byte	.LLST4
 1424 07ba 1E       		.uleb128 0x1e
 1425 07bb FE050000 		.4byte	.LASF111
 1426 07bf 01       		.byte	0x1
 1427 07c0 93       		.byte	0x93
 1428 07c1 2C000000 		.4byte	0x2c
 1429 07c5 9B000000 		.4byte	.LLST5
 1430 07c9 20       		.uleb128 0x20
 1431 07ca 717000   		.ascii	"qp\000"
 1432 07cd 01       		.byte	0x1
 1433 07ce 94       		.byte	0x94
 1434 07cf BC060000 		.4byte	0x6bc
 1435 07d3 C6000000 		.4byte	.LLST6
 1436 07d7 20       		.uleb128 0x20
 1437 07d8 687000   		.ascii	"hp\000"
 1438 07db 01       		.byte	0x1
 1439 07dc 94       		.byte	0x94
 1440 07dd BC060000 		.4byte	0x6bc
 1441 07e1 EF000000 		.4byte	.LLST7
 1442 07e5 20       		.uleb128 0x20
 1443 07e6 667000   		.ascii	"fp\000"
 1444 07e9 01       		.byte	0x1
 1445 07ea 94       		.byte	0x94
 1446 07eb BC060000 		.4byte	0x6bc
 1447 07ef 48010000 		.4byte	.LLST8
 1448 07f3 23       		.uleb128 0x23
 1449 07f4 1E000000 		.4byte	.LVL10
 1450 07f8 9D090000 		.4byte	0x99d
 1451 07fc 07080000 		.4byte	0x807
 1452 0800 1D       		.uleb128 0x1d
 1453 0801 01       		.uleb128 0x1
 1454 0802 50       		.byte	0x50
 1455 0803 02       		.uleb128 0x2
 1456 0804 77       		.byte	0x77
 1457 0805 00       		.sleb128 0
 1458 0806 00       		.byte	0
 1459 0807 23       		.uleb128 0x23
 1460 0808 34000000 		.4byte	.LVL14
 1461 080c AE090000 		.4byte	0x9ae
 1462 0810 1B080000 		.4byte	0x81b
 1463 0814 1D       		.uleb128 0x1d
 1464 0815 01       		.uleb128 0x1
 1465 0816 50       		.byte	0x50
 1466 0817 02       		.uleb128 0x2
 1467 0818 77       		.byte	0x77
 1468 0819 00       		.sleb128 0
 1469 081a 00       		.byte	0
 1470 081b 24       		.uleb128 0x24
 1471 081c 3E000000 		.4byte	.LVL15
 1472 0820 2B080000 		.4byte	0x82b
 1473 0824 1D       		.uleb128 0x1d
 1474 0825 01       		.uleb128 0x1
 1475 0826 50       		.byte	0x50
ARM GAS  /tmp/ccTUic0g.s 			page 27


 1476 0827 02       		.uleb128 0x2
 1477 0828 75       		.byte	0x75
 1478 0829 08       		.sleb128 8
 1479 082a 00       		.byte	0
 1480 082b 25       		.uleb128 0x25
 1481 082c 64000000 		.4byte	.LVL20
 1482 0830 AE090000 		.4byte	0x9ae
 1483 0834 1D       		.uleb128 0x1d
 1484 0835 01       		.uleb128 0x1
 1485 0836 50       		.byte	0x50
 1486 0837 02       		.uleb128 0x2
 1487 0838 77       		.byte	0x77
 1488 0839 00       		.sleb128 0
 1489 083a 00       		.byte	0
 1490 083b 00       		.byte	0
 1491 083c 1B       		.uleb128 0x1b
 1492 083d FF000000 		.4byte	.LASF115
 1493 0841 01       		.byte	0x1
 1494 0842 D5       		.byte	0xd5
 1495 0843 00000000 		.4byte	.LFB244
 1496 0847 98000000 		.4byte	.LFE244-.LFB244
 1497 084b 01       		.uleb128 0x1
 1498 084c 9C       		.byte	0x9c
 1499 084d B9080000 		.4byte	0x8b9
 1500 0851 1F       		.uleb128 0x1f
 1501 0852 7000     		.ascii	"p\000"
 1502 0854 01       		.byte	0x1
 1503 0855 D5       		.byte	0xd5
 1504 0856 04030000 		.4byte	0x304
 1505 085a 5B010000 		.4byte	.LLST9
 1506 085e 20       		.uleb128 0x20
 1507 085f 717000   		.ascii	"qp\000"
 1508 0862 01       		.byte	0x1
 1509 0863 D6       		.byte	0xd6
 1510 0864 BC060000 		.4byte	0x6bc
 1511 0868 A0010000 		.4byte	.LLST10
 1512 086c 20       		.uleb128 0x20
 1513 086d 687000   		.ascii	"hp\000"
 1514 0870 01       		.byte	0x1
 1515 0871 D6       		.byte	0xd6
 1516 0872 BC060000 		.4byte	0x6bc
 1517 0876 D4010000 		.4byte	.LLST11
 1518 087a 26       		.uleb128 0x26
 1519 087b AD000000 		.4byte	.LASF114
 1520 087f 01       		.byte	0x1
 1521 0880 D7       		.byte	0xd7
 1522 0881 C2060000 		.4byte	0x6c2
 1523 0885 12020000 		.4byte	.LLST12
 1524 0889 21       		.uleb128 0x21
 1525 088a A6030000 		.4byte	.LASF116
 1526 088e C9080000 		.4byte	0x8c9
 1527 0892 23       		.uleb128 0x23
 1528 0893 18000000 		.4byte	.LVL29
 1529 0897 9D090000 		.4byte	0x99d
 1530 089b A6080000 		.4byte	0x8a6
 1531 089f 1D       		.uleb128 0x1d
 1532 08a0 01       		.uleb128 0x1
ARM GAS  /tmp/ccTUic0g.s 			page 28


 1533 08a1 50       		.byte	0x50
 1534 08a2 02       		.uleb128 0x2
 1535 08a3 77       		.byte	0x77
 1536 08a4 00       		.sleb128 0
 1537 08a5 00       		.byte	0
 1538 08a6 27       		.uleb128 0x27
 1539 08a7 62000000 		.4byte	.LVL36
 1540 08ab AE090000 		.4byte	0x9ae
 1541 08af 27       		.uleb128 0x27
 1542 08b0 98000000 		.4byte	.LVL38
 1543 08b4 AE090000 		.4byte	0x9ae
 1544 08b8 00       		.byte	0
 1545 08b9 15       		.uleb128 0x15
 1546 08ba ED050000 		.4byte	0x5ed
 1547 08be C9080000 		.4byte	0x8c9
 1548 08c2 16       		.uleb128 0x16
 1549 08c3 3A040000 		.4byte	0x43a
 1550 08c7 0A       		.byte	0xa
 1551 08c8 00       		.byte	0
 1552 08c9 13       		.uleb128 0x13
 1553 08ca B9080000 		.4byte	0x8b9
 1554 08ce 28       		.uleb128 0x28
 1555 08cf 61040000 		.4byte	.LASF118
 1556 08d3 01       		.byte	0x1
 1557 08d4 0B01     		.2byte	0x10b
 1558 08d6 2C000000 		.4byte	0x2c
 1559 08da 00000000 		.4byte	.LFB245
 1560 08de 40000000 		.4byte	.LFE245-.LFB245
 1561 08e2 01       		.uleb128 0x1
 1562 08e3 9C       		.byte	0x9c
 1563 08e4 59090000 		.4byte	0x959
 1564 08e8 29       		.uleb128 0x29
 1565 08e9 AD000000 		.4byte	.LASF114
 1566 08ed 01       		.byte	0x1
 1567 08ee 0B01     		.2byte	0x10b
 1568 08f0 C2060000 		.4byte	0x6c2
 1569 08f4 72020000 		.4byte	.LLST13
 1570 08f8 29       		.uleb128 0x29
 1571 08f9 F1050000 		.4byte	.LASF119
 1572 08fd 01       		.byte	0x1
 1573 08fe 0B01     		.2byte	0x10b
 1574 0900 59090000 		.4byte	0x959
 1575 0904 B5020000 		.4byte	.LLST14
 1576 0908 2A       		.uleb128 0x2a
 1577 0909 717000   		.ascii	"qp\000"
 1578 090c 01       		.byte	0x1
 1579 090d 0C01     		.2byte	0x10c
 1580 090f BC060000 		.4byte	0x6bc
 1581 0913 D3020000 		.4byte	.LLST15
 1582 0917 2A       		.uleb128 0x2a
 1583 0918 6E00     		.ascii	"n\000"
 1584 091a 01       		.byte	0x1
 1585 091b 0D01     		.2byte	0x10d
 1586 091d 2C000000 		.4byte	0x2c
 1587 0921 0F030000 		.4byte	.LLST16
 1588 0925 2A       		.uleb128 0x2a
 1589 0926 737A00   		.ascii	"sz\000"
ARM GAS  /tmp/ccTUic0g.s 			page 29


 1590 0929 01       		.byte	0x1
 1591 092a 0D01     		.2byte	0x10d
 1592 092c 2C000000 		.4byte	0x2c
 1593 0930 52030000 		.4byte	.LLST17
 1594 0934 23       		.uleb128 0x23
 1595 0935 16000000 		.4byte	.LVL41
 1596 0939 9D090000 		.4byte	0x99d
 1597 093d 48090000 		.4byte	0x948
 1598 0941 1D       		.uleb128 0x1d
 1599 0942 01       		.uleb128 0x1
 1600 0943 50       		.byte	0x50
 1601 0944 02       		.uleb128 0x2
 1602 0945 76       		.byte	0x76
 1603 0946 00       		.sleb128 0
 1604 0947 00       		.byte	0
 1605 0948 25       		.uleb128 0x25
 1606 0949 32000000 		.4byte	.LVL46
 1607 094d AE090000 		.4byte	0x9ae
 1608 0951 1D       		.uleb128 0x1d
 1609 0952 01       		.uleb128 0x1
 1610 0953 50       		.byte	0x50
 1611 0954 02       		.uleb128 0x2
 1612 0955 76       		.byte	0x76
 1613 0956 00       		.sleb128 0
 1614 0957 00       		.byte	0
 1615 0958 00       		.byte	0
 1616 0959 09       		.uleb128 0x9
 1617 095a 04       		.byte	0x4
 1618 095b 2C000000 		.4byte	0x2c
 1619 095f 2B       		.uleb128 0x2b
 1620 0960 46040000 		.4byte	.LASF120
 1621 0964 01       		.byte	0x1
 1622 0965 4C       		.byte	0x4c
 1623 0966 40060000 		.4byte	0x640
 1624 096a 05       		.uleb128 0x5
 1625 096b 03       		.byte	0x3
 1626 096c 00000000 		.4byte	default_heap
 1627 0970 2C       		.uleb128 0x2c
 1628 0971 A0000000 		.4byte	.LASF121
 1629 0975 0F       		.byte	0xf
 1630 0976 FA06     		.2byte	0x6fa
 1631 0978 7C090000 		.4byte	0x97c
 1632 097c 14       		.uleb128 0x14
 1633 097d AD000000 		.4byte	0xad
 1634 0981 2D       		.uleb128 0x2d
 1635 0982 636800   		.ascii	"ch\000"
 1636 0985 07       		.byte	0x7
 1637 0986 0B02     		.2byte	0x20b
 1638 0988 D3030000 		.4byte	0x3d3
 1639 098c 2E       		.uleb128 0x2e
 1640 098d 2B030000 		.4byte	.LASF122
 1641 0991 0C       		.byte	0xc
 1642 0992 67       		.byte	0x67
 1643 0993 9D090000 		.4byte	0x99d
 1644 0997 0C       		.uleb128 0xc
 1645 0998 1A060000 		.4byte	0x61a
 1646 099c 00       		.byte	0
ARM GAS  /tmp/ccTUic0g.s 			page 30


 1647 099d 2E       		.uleb128 0x2e
 1648 099e BE020000 		.4byte	.LASF123
 1649 09a2 0C       		.byte	0xc
 1650 09a3 68       		.byte	0x68
 1651 09a4 AE090000 		.4byte	0x9ae
 1652 09a8 0C       		.uleb128 0xc
 1653 09a9 1A060000 		.4byte	0x61a
 1654 09ad 00       		.byte	0
 1655 09ae 2F       		.uleb128 0x2f
 1656 09af D1000000 		.4byte	.LASF128
 1657 09b3 0C       		.byte	0xc
 1658 09b4 6C       		.byte	0x6c
 1659 09b5 0C       		.uleb128 0xc
 1660 09b6 1A060000 		.4byte	0x61a
 1661 09ba 00       		.byte	0
 1662 09bb 00       		.byte	0
 1663              		.section	.debug_abbrev,"",%progbits
 1664              	.Ldebug_abbrev0:
 1665 0000 01       		.uleb128 0x1
 1666 0001 11       		.uleb128 0x11
 1667 0002 01       		.byte	0x1
 1668 0003 25       		.uleb128 0x25
 1669 0004 0E       		.uleb128 0xe
 1670 0005 13       		.uleb128 0x13
 1671 0006 0B       		.uleb128 0xb
 1672 0007 03       		.uleb128 0x3
 1673 0008 0E       		.uleb128 0xe
 1674 0009 1B       		.uleb128 0x1b
 1675 000a 0E       		.uleb128 0xe
 1676 000b 55       		.uleb128 0x55
 1677 000c 17       		.uleb128 0x17
 1678 000d 11       		.uleb128 0x11
 1679 000e 01       		.uleb128 0x1
 1680 000f 10       		.uleb128 0x10
 1681 0010 17       		.uleb128 0x17
 1682 0011 00       		.byte	0
 1683 0012 00       		.byte	0
 1684 0013 02       		.uleb128 0x2
 1685 0014 24       		.uleb128 0x24
 1686 0015 00       		.byte	0
 1687 0016 0B       		.uleb128 0xb
 1688 0017 0B       		.uleb128 0xb
 1689 0018 3E       		.uleb128 0x3e
 1690 0019 0B       		.uleb128 0xb
 1691 001a 03       		.uleb128 0x3
 1692 001b 08       		.uleb128 0x8
 1693 001c 00       		.byte	0
 1694 001d 00       		.byte	0
 1695 001e 03       		.uleb128 0x3
 1696 001f 16       		.uleb128 0x16
 1697 0020 00       		.byte	0
 1698 0021 03       		.uleb128 0x3
 1699 0022 0E       		.uleb128 0xe
 1700 0023 3A       		.uleb128 0x3a
 1701 0024 0B       		.uleb128 0xb
 1702 0025 3B       		.uleb128 0x3b
 1703 0026 0B       		.uleb128 0xb
ARM GAS  /tmp/ccTUic0g.s 			page 31


 1704 0027 49       		.uleb128 0x49
 1705 0028 13       		.uleb128 0x13
 1706 0029 00       		.byte	0
 1707 002a 00       		.byte	0
 1708 002b 04       		.uleb128 0x4
 1709 002c 24       		.uleb128 0x24
 1710 002d 00       		.byte	0
 1711 002e 0B       		.uleb128 0xb
 1712 002f 0B       		.uleb128 0xb
 1713 0030 3E       		.uleb128 0x3e
 1714 0031 0B       		.uleb128 0xb
 1715 0032 03       		.uleb128 0x3
 1716 0033 0E       		.uleb128 0xe
 1717 0034 00       		.byte	0
 1718 0035 00       		.byte	0
 1719 0036 05       		.uleb128 0x5
 1720 0037 13       		.uleb128 0x13
 1721 0038 01       		.byte	0x1
 1722 0039 03       		.uleb128 0x3
 1723 003a 0E       		.uleb128 0xe
 1724 003b 0B       		.uleb128 0xb
 1725 003c 0B       		.uleb128 0xb
 1726 003d 3A       		.uleb128 0x3a
 1727 003e 0B       		.uleb128 0xb
 1728 003f 3B       		.uleb128 0x3b
 1729 0040 0B       		.uleb128 0xb
 1730 0041 01       		.uleb128 0x1
 1731 0042 13       		.uleb128 0x13
 1732 0043 00       		.byte	0
 1733 0044 00       		.byte	0
 1734 0045 06       		.uleb128 0x6
 1735 0046 0D       		.uleb128 0xd
 1736 0047 00       		.byte	0
 1737 0048 03       		.uleb128 0x3
 1738 0049 0E       		.uleb128 0xe
 1739 004a 3A       		.uleb128 0x3a
 1740 004b 0B       		.uleb128 0xb
 1741 004c 3B       		.uleb128 0x3b
 1742 004d 0B       		.uleb128 0xb
 1743 004e 49       		.uleb128 0x49
 1744 004f 13       		.uleb128 0x13
 1745 0050 38       		.uleb128 0x38
 1746 0051 0B       		.uleb128 0xb
 1747 0052 00       		.byte	0
 1748 0053 00       		.byte	0
 1749 0054 07       		.uleb128 0x7
 1750 0055 0D       		.uleb128 0xd
 1751 0056 00       		.byte	0
 1752 0057 03       		.uleb128 0x3
 1753 0058 08       		.uleb128 0x8
 1754 0059 3A       		.uleb128 0x3a
 1755 005a 0B       		.uleb128 0xb
 1756 005b 3B       		.uleb128 0x3b
 1757 005c 05       		.uleb128 0x5
 1758 005d 49       		.uleb128 0x49
 1759 005e 13       		.uleb128 0x13
 1760 005f 38       		.uleb128 0x38
ARM GAS  /tmp/ccTUic0g.s 			page 32


 1761 0060 0B       		.uleb128 0xb
 1762 0061 00       		.byte	0
 1763 0062 00       		.byte	0
 1764 0063 08       		.uleb128 0x8
 1765 0064 0D       		.uleb128 0xd
 1766 0065 00       		.byte	0
 1767 0066 03       		.uleb128 0x3
 1768 0067 0E       		.uleb128 0xe
 1769 0068 3A       		.uleb128 0x3a
 1770 0069 0B       		.uleb128 0xb
 1771 006a 3B       		.uleb128 0x3b
 1772 006b 05       		.uleb128 0x5
 1773 006c 49       		.uleb128 0x49
 1774 006d 13       		.uleb128 0x13
 1775 006e 38       		.uleb128 0x38
 1776 006f 0B       		.uleb128 0xb
 1777 0070 00       		.byte	0
 1778 0071 00       		.byte	0
 1779 0072 09       		.uleb128 0x9
 1780 0073 0F       		.uleb128 0xf
 1781 0074 00       		.byte	0
 1782 0075 0B       		.uleb128 0xb
 1783 0076 0B       		.uleb128 0xb
 1784 0077 49       		.uleb128 0x49
 1785 0078 13       		.uleb128 0x13
 1786 0079 00       		.byte	0
 1787 007a 00       		.byte	0
 1788 007b 0A       		.uleb128 0xa
 1789 007c 13       		.uleb128 0x13
 1790 007d 01       		.byte	0x1
 1791 007e 03       		.uleb128 0x3
 1792 007f 0E       		.uleb128 0xe
 1793 0080 0B       		.uleb128 0xb
 1794 0081 0B       		.uleb128 0xb
 1795 0082 3A       		.uleb128 0x3a
 1796 0083 0B       		.uleb128 0xb
 1797 0084 3B       		.uleb128 0x3b
 1798 0085 05       		.uleb128 0x5
 1799 0086 01       		.uleb128 0x1
 1800 0087 13       		.uleb128 0x13
 1801 0088 00       		.byte	0
 1802 0089 00       		.byte	0
 1803 008a 0B       		.uleb128 0xb
 1804 008b 15       		.uleb128 0x15
 1805 008c 01       		.byte	0x1
 1806 008d 27       		.uleb128 0x27
 1807 008e 19       		.uleb128 0x19
 1808 008f 01       		.uleb128 0x1
 1809 0090 13       		.uleb128 0x13
 1810 0091 00       		.byte	0
 1811 0092 00       		.byte	0
 1812 0093 0C       		.uleb128 0xc
 1813 0094 05       		.uleb128 0x5
 1814 0095 00       		.byte	0
 1815 0096 49       		.uleb128 0x49
 1816 0097 13       		.uleb128 0x13
 1817 0098 00       		.byte	0
ARM GAS  /tmp/ccTUic0g.s 			page 33


 1818 0099 00       		.byte	0
 1819 009a 0D       		.uleb128 0xd
 1820 009b 0F       		.uleb128 0xf
 1821 009c 00       		.byte	0
 1822 009d 0B       		.uleb128 0xb
 1823 009e 0B       		.uleb128 0xb
 1824 009f 00       		.byte	0
 1825 00a0 00       		.byte	0
 1826 00a1 0E       		.uleb128 0xe
 1827 00a2 13       		.uleb128 0x13
 1828 00a3 01       		.byte	0x1
 1829 00a4 03       		.uleb128 0x3
 1830 00a5 0E       		.uleb128 0xe
 1831 00a6 0B       		.uleb128 0xb
 1832 00a7 05       		.uleb128 0x5
 1833 00a8 3A       		.uleb128 0x3a
 1834 00a9 0B       		.uleb128 0xb
 1835 00aa 3B       		.uleb128 0x3b
 1836 00ab 05       		.uleb128 0x5
 1837 00ac 01       		.uleb128 0x1
 1838 00ad 13       		.uleb128 0x13
 1839 00ae 00       		.byte	0
 1840 00af 00       		.byte	0
 1841 00b0 0F       		.uleb128 0xf
 1842 00b1 0D       		.uleb128 0xd
 1843 00b2 00       		.byte	0
 1844 00b3 03       		.uleb128 0x3
 1845 00b4 08       		.uleb128 0x8
 1846 00b5 3A       		.uleb128 0x3a
 1847 00b6 0B       		.uleb128 0xb
 1848 00b7 3B       		.uleb128 0x3b
 1849 00b8 0B       		.uleb128 0xb
 1850 00b9 49       		.uleb128 0x49
 1851 00ba 13       		.uleb128 0x13
 1852 00bb 38       		.uleb128 0x38
 1853 00bc 0B       		.uleb128 0xb
 1854 00bd 00       		.byte	0
 1855 00be 00       		.byte	0
 1856 00bf 10       		.uleb128 0x10
 1857 00c0 13       		.uleb128 0x13
 1858 00c1 01       		.byte	0x1
 1859 00c2 0B       		.uleb128 0xb
 1860 00c3 0B       		.uleb128 0xb
 1861 00c4 3A       		.uleb128 0x3a
 1862 00c5 0B       		.uleb128 0xb
 1863 00c6 3B       		.uleb128 0x3b
 1864 00c7 0B       		.uleb128 0xb
 1865 00c8 01       		.uleb128 0x1
 1866 00c9 13       		.uleb128 0x13
 1867 00ca 00       		.byte	0
 1868 00cb 00       		.byte	0
 1869 00cc 11       		.uleb128 0x11
 1870 00cd 17       		.uleb128 0x17
 1871 00ce 01       		.byte	0x1
 1872 00cf 0B       		.uleb128 0xb
 1873 00d0 0B       		.uleb128 0xb
 1874 00d1 3A       		.uleb128 0x3a
ARM GAS  /tmp/ccTUic0g.s 			page 34


 1875 00d2 0B       		.uleb128 0xb
 1876 00d3 3B       		.uleb128 0x3b
 1877 00d4 0B       		.uleb128 0xb
 1878 00d5 01       		.uleb128 0x1
 1879 00d6 13       		.uleb128 0x13
 1880 00d7 00       		.byte	0
 1881 00d8 00       		.byte	0
 1882 00d9 12       		.uleb128 0x12
 1883 00da 0D       		.uleb128 0xd
 1884 00db 00       		.byte	0
 1885 00dc 03       		.uleb128 0x3
 1886 00dd 0E       		.uleb128 0xe
 1887 00de 3A       		.uleb128 0x3a
 1888 00df 0B       		.uleb128 0xb
 1889 00e0 3B       		.uleb128 0x3b
 1890 00e1 05       		.uleb128 0x5
 1891 00e2 49       		.uleb128 0x49
 1892 00e3 13       		.uleb128 0x13
 1893 00e4 00       		.byte	0
 1894 00e5 00       		.byte	0
 1895 00e6 13       		.uleb128 0x13
 1896 00e7 26       		.uleb128 0x26
 1897 00e8 00       		.byte	0
 1898 00e9 49       		.uleb128 0x49
 1899 00ea 13       		.uleb128 0x13
 1900 00eb 00       		.byte	0
 1901 00ec 00       		.byte	0
 1902 00ed 14       		.uleb128 0x14
 1903 00ee 35       		.uleb128 0x35
 1904 00ef 00       		.byte	0
 1905 00f0 49       		.uleb128 0x49
 1906 00f1 13       		.uleb128 0x13
 1907 00f2 00       		.byte	0
 1908 00f3 00       		.byte	0
 1909 00f4 15       		.uleb128 0x15
 1910 00f5 01       		.uleb128 0x1
 1911 00f6 01       		.byte	0x1
 1912 00f7 49       		.uleb128 0x49
 1913 00f8 13       		.uleb128 0x13
 1914 00f9 01       		.uleb128 0x1
 1915 00fa 13       		.uleb128 0x13
 1916 00fb 00       		.byte	0
 1917 00fc 00       		.byte	0
 1918 00fd 16       		.uleb128 0x16
 1919 00fe 21       		.uleb128 0x21
 1920 00ff 00       		.byte	0
 1921 0100 49       		.uleb128 0x49
 1922 0101 13       		.uleb128 0x13
 1923 0102 2F       		.uleb128 0x2f
 1924 0103 0B       		.uleb128 0xb
 1925 0104 00       		.byte	0
 1926 0105 00       		.byte	0
 1927 0106 17       		.uleb128 0x17
 1928 0107 15       		.uleb128 0x15
 1929 0108 01       		.byte	0x1
 1930 0109 27       		.uleb128 0x27
 1931 010a 19       		.uleb128 0x19
ARM GAS  /tmp/ccTUic0g.s 			page 35


 1932 010b 49       		.uleb128 0x49
 1933 010c 13       		.uleb128 0x13
 1934 010d 01       		.uleb128 0x1
 1935 010e 13       		.uleb128 0x13
 1936 010f 00       		.byte	0
 1937 0110 00       		.byte	0
 1938 0111 18       		.uleb128 0x18
 1939 0112 0D       		.uleb128 0xd
 1940 0113 00       		.byte	0
 1941 0114 03       		.uleb128 0x3
 1942 0115 0E       		.uleb128 0xe
 1943 0116 3A       		.uleb128 0x3a
 1944 0117 0B       		.uleb128 0xb
 1945 0118 3B       		.uleb128 0x3b
 1946 0119 0B       		.uleb128 0xb
 1947 011a 49       		.uleb128 0x49
 1948 011b 13       		.uleb128 0x13
 1949 011c 00       		.byte	0
 1950 011d 00       		.byte	0
 1951 011e 19       		.uleb128 0x19
 1952 011f 17       		.uleb128 0x17
 1953 0120 01       		.byte	0x1
 1954 0121 03       		.uleb128 0x3
 1955 0122 0E       		.uleb128 0xe
 1956 0123 0B       		.uleb128 0xb
 1957 0124 0B       		.uleb128 0xb
 1958 0125 3A       		.uleb128 0x3a
 1959 0126 0B       		.uleb128 0xb
 1960 0127 3B       		.uleb128 0x3b
 1961 0128 0B       		.uleb128 0xb
 1962 0129 01       		.uleb128 0x1
 1963 012a 13       		.uleb128 0x13
 1964 012b 00       		.byte	0
 1965 012c 00       		.byte	0
 1966 012d 1A       		.uleb128 0x1a
 1967 012e 0D       		.uleb128 0xd
 1968 012f 00       		.byte	0
 1969 0130 03       		.uleb128 0x3
 1970 0131 08       		.uleb128 0x8
 1971 0132 3A       		.uleb128 0x3a
 1972 0133 0B       		.uleb128 0xb
 1973 0134 3B       		.uleb128 0x3b
 1974 0135 0B       		.uleb128 0xb
 1975 0136 49       		.uleb128 0x49
 1976 0137 13       		.uleb128 0x13
 1977 0138 00       		.byte	0
 1978 0139 00       		.byte	0
 1979 013a 1B       		.uleb128 0x1b
 1980 013b 2E       		.uleb128 0x2e
 1981 013c 01       		.byte	0x1
 1982 013d 3F       		.uleb128 0x3f
 1983 013e 19       		.uleb128 0x19
 1984 013f 03       		.uleb128 0x3
 1985 0140 0E       		.uleb128 0xe
 1986 0141 3A       		.uleb128 0x3a
 1987 0142 0B       		.uleb128 0xb
 1988 0143 3B       		.uleb128 0x3b
ARM GAS  /tmp/ccTUic0g.s 			page 36


 1989 0144 0B       		.uleb128 0xb
 1990 0145 27       		.uleb128 0x27
 1991 0146 19       		.uleb128 0x19
 1992 0147 11       		.uleb128 0x11
 1993 0148 01       		.uleb128 0x1
 1994 0149 12       		.uleb128 0x12
 1995 014a 06       		.uleb128 0x6
 1996 014b 40       		.uleb128 0x40
 1997 014c 18       		.uleb128 0x18
 1998 014d 9742     		.uleb128 0x2117
 1999 014f 19       		.uleb128 0x19
 2000 0150 01       		.uleb128 0x1
 2001 0151 13       		.uleb128 0x13
 2002 0152 00       		.byte	0
 2003 0153 00       		.byte	0
 2004 0154 1C       		.uleb128 0x1c
 2005 0155 898201   		.uleb128 0x4109
 2006 0158 01       		.byte	0x1
 2007 0159 11       		.uleb128 0x11
 2008 015a 01       		.uleb128 0x1
 2009 015b 9542     		.uleb128 0x2115
 2010 015d 19       		.uleb128 0x19
 2011 015e 31       		.uleb128 0x31
 2012 015f 13       		.uleb128 0x13
 2013 0160 00       		.byte	0
 2014 0161 00       		.byte	0
 2015 0162 1D       		.uleb128 0x1d
 2016 0163 8A8201   		.uleb128 0x410a
 2017 0166 00       		.byte	0
 2018 0167 02       		.uleb128 0x2
 2019 0168 18       		.uleb128 0x18
 2020 0169 9142     		.uleb128 0x2111
 2021 016b 18       		.uleb128 0x18
 2022 016c 00       		.byte	0
 2023 016d 00       		.byte	0
 2024 016e 1E       		.uleb128 0x1e
 2025 016f 05       		.uleb128 0x5
 2026 0170 00       		.byte	0
 2027 0171 03       		.uleb128 0x3
 2028 0172 0E       		.uleb128 0xe
 2029 0173 3A       		.uleb128 0x3a
 2030 0174 0B       		.uleb128 0xb
 2031 0175 3B       		.uleb128 0x3b
 2032 0176 0B       		.uleb128 0xb
 2033 0177 49       		.uleb128 0x49
 2034 0178 13       		.uleb128 0x13
 2035 0179 02       		.uleb128 0x2
 2036 017a 17       		.uleb128 0x17
 2037 017b 00       		.byte	0
 2038 017c 00       		.byte	0
 2039 017d 1F       		.uleb128 0x1f
 2040 017e 05       		.uleb128 0x5
 2041 017f 00       		.byte	0
 2042 0180 03       		.uleb128 0x3
 2043 0181 08       		.uleb128 0x8
 2044 0182 3A       		.uleb128 0x3a
 2045 0183 0B       		.uleb128 0xb
ARM GAS  /tmp/ccTUic0g.s 			page 37


 2046 0184 3B       		.uleb128 0x3b
 2047 0185 0B       		.uleb128 0xb
 2048 0186 49       		.uleb128 0x49
 2049 0187 13       		.uleb128 0x13
 2050 0188 02       		.uleb128 0x2
 2051 0189 17       		.uleb128 0x17
 2052 018a 00       		.byte	0
 2053 018b 00       		.byte	0
 2054 018c 20       		.uleb128 0x20
 2055 018d 34       		.uleb128 0x34
 2056 018e 00       		.byte	0
 2057 018f 03       		.uleb128 0x3
 2058 0190 08       		.uleb128 0x8
 2059 0191 3A       		.uleb128 0x3a
 2060 0192 0B       		.uleb128 0xb
 2061 0193 3B       		.uleb128 0x3b
 2062 0194 0B       		.uleb128 0xb
 2063 0195 49       		.uleb128 0x49
 2064 0196 13       		.uleb128 0x13
 2065 0197 02       		.uleb128 0x2
 2066 0198 17       		.uleb128 0x17
 2067 0199 00       		.byte	0
 2068 019a 00       		.byte	0
 2069 019b 21       		.uleb128 0x21
 2070 019c 34       		.uleb128 0x34
 2071 019d 00       		.byte	0
 2072 019e 03       		.uleb128 0x3
 2073 019f 0E       		.uleb128 0xe
 2074 01a0 49       		.uleb128 0x49
 2075 01a1 13       		.uleb128 0x13
 2076 01a2 34       		.uleb128 0x34
 2077 01a3 19       		.uleb128 0x19
 2078 01a4 00       		.byte	0
 2079 01a5 00       		.byte	0
 2080 01a6 22       		.uleb128 0x22
 2081 01a7 2E       		.uleb128 0x2e
 2082 01a8 01       		.byte	0x1
 2083 01a9 3F       		.uleb128 0x3f
 2084 01aa 19       		.uleb128 0x19
 2085 01ab 03       		.uleb128 0x3
 2086 01ac 0E       		.uleb128 0xe
 2087 01ad 3A       		.uleb128 0x3a
 2088 01ae 0B       		.uleb128 0xb
 2089 01af 3B       		.uleb128 0x3b
 2090 01b0 0B       		.uleb128 0xb
 2091 01b1 27       		.uleb128 0x27
 2092 01b2 19       		.uleb128 0x19
 2093 01b3 49       		.uleb128 0x49
 2094 01b4 13       		.uleb128 0x13
 2095 01b5 11       		.uleb128 0x11
 2096 01b6 01       		.uleb128 0x1
 2097 01b7 12       		.uleb128 0x12
 2098 01b8 06       		.uleb128 0x6
 2099 01b9 40       		.uleb128 0x40
 2100 01ba 18       		.uleb128 0x18
 2101 01bb 9742     		.uleb128 0x2117
 2102 01bd 19       		.uleb128 0x19
ARM GAS  /tmp/ccTUic0g.s 			page 38


 2103 01be 01       		.uleb128 0x1
 2104 01bf 13       		.uleb128 0x13
 2105 01c0 00       		.byte	0
 2106 01c1 00       		.byte	0
 2107 01c2 23       		.uleb128 0x23
 2108 01c3 898201   		.uleb128 0x4109
 2109 01c6 01       		.byte	0x1
 2110 01c7 11       		.uleb128 0x11
 2111 01c8 01       		.uleb128 0x1
 2112 01c9 31       		.uleb128 0x31
 2113 01ca 13       		.uleb128 0x13
 2114 01cb 01       		.uleb128 0x1
 2115 01cc 13       		.uleb128 0x13
 2116 01cd 00       		.byte	0
 2117 01ce 00       		.byte	0
 2118 01cf 24       		.uleb128 0x24
 2119 01d0 898201   		.uleb128 0x4109
 2120 01d3 01       		.byte	0x1
 2121 01d4 11       		.uleb128 0x11
 2122 01d5 01       		.uleb128 0x1
 2123 01d6 01       		.uleb128 0x1
 2124 01d7 13       		.uleb128 0x13
 2125 01d8 00       		.byte	0
 2126 01d9 00       		.byte	0
 2127 01da 25       		.uleb128 0x25
 2128 01db 898201   		.uleb128 0x4109
 2129 01de 01       		.byte	0x1
 2130 01df 11       		.uleb128 0x11
 2131 01e0 01       		.uleb128 0x1
 2132 01e1 31       		.uleb128 0x31
 2133 01e2 13       		.uleb128 0x13
 2134 01e3 00       		.byte	0
 2135 01e4 00       		.byte	0
 2136 01e5 26       		.uleb128 0x26
 2137 01e6 34       		.uleb128 0x34
 2138 01e7 00       		.byte	0
 2139 01e8 03       		.uleb128 0x3
 2140 01e9 0E       		.uleb128 0xe
 2141 01ea 3A       		.uleb128 0x3a
 2142 01eb 0B       		.uleb128 0xb
 2143 01ec 3B       		.uleb128 0x3b
 2144 01ed 0B       		.uleb128 0xb
 2145 01ee 49       		.uleb128 0x49
 2146 01ef 13       		.uleb128 0x13
 2147 01f0 02       		.uleb128 0x2
 2148 01f1 17       		.uleb128 0x17
 2149 01f2 00       		.byte	0
 2150 01f3 00       		.byte	0
 2151 01f4 27       		.uleb128 0x27
 2152 01f5 898201   		.uleb128 0x4109
 2153 01f8 00       		.byte	0
 2154 01f9 11       		.uleb128 0x11
 2155 01fa 01       		.uleb128 0x1
 2156 01fb 9542     		.uleb128 0x2115
 2157 01fd 19       		.uleb128 0x19
 2158 01fe 31       		.uleb128 0x31
 2159 01ff 13       		.uleb128 0x13
ARM GAS  /tmp/ccTUic0g.s 			page 39


 2160 0200 00       		.byte	0
 2161 0201 00       		.byte	0
 2162 0202 28       		.uleb128 0x28
 2163 0203 2E       		.uleb128 0x2e
 2164 0204 01       		.byte	0x1
 2165 0205 3F       		.uleb128 0x3f
 2166 0206 19       		.uleb128 0x19
 2167 0207 03       		.uleb128 0x3
 2168 0208 0E       		.uleb128 0xe
 2169 0209 3A       		.uleb128 0x3a
 2170 020a 0B       		.uleb128 0xb
 2171 020b 3B       		.uleb128 0x3b
 2172 020c 05       		.uleb128 0x5
 2173 020d 27       		.uleb128 0x27
 2174 020e 19       		.uleb128 0x19
 2175 020f 49       		.uleb128 0x49
 2176 0210 13       		.uleb128 0x13
 2177 0211 11       		.uleb128 0x11
 2178 0212 01       		.uleb128 0x1
 2179 0213 12       		.uleb128 0x12
 2180 0214 06       		.uleb128 0x6
 2181 0215 40       		.uleb128 0x40
 2182 0216 18       		.uleb128 0x18
 2183 0217 9742     		.uleb128 0x2117
 2184 0219 19       		.uleb128 0x19
 2185 021a 01       		.uleb128 0x1
 2186 021b 13       		.uleb128 0x13
 2187 021c 00       		.byte	0
 2188 021d 00       		.byte	0
 2189 021e 29       		.uleb128 0x29
 2190 021f 05       		.uleb128 0x5
 2191 0220 00       		.byte	0
 2192 0221 03       		.uleb128 0x3
 2193 0222 0E       		.uleb128 0xe
 2194 0223 3A       		.uleb128 0x3a
 2195 0224 0B       		.uleb128 0xb
 2196 0225 3B       		.uleb128 0x3b
 2197 0226 05       		.uleb128 0x5
 2198 0227 49       		.uleb128 0x49
 2199 0228 13       		.uleb128 0x13
 2200 0229 02       		.uleb128 0x2
 2201 022a 17       		.uleb128 0x17
 2202 022b 00       		.byte	0
 2203 022c 00       		.byte	0
 2204 022d 2A       		.uleb128 0x2a
 2205 022e 34       		.uleb128 0x34
 2206 022f 00       		.byte	0
 2207 0230 03       		.uleb128 0x3
 2208 0231 08       		.uleb128 0x8
 2209 0232 3A       		.uleb128 0x3a
 2210 0233 0B       		.uleb128 0xb
 2211 0234 3B       		.uleb128 0x3b
 2212 0235 05       		.uleb128 0x5
 2213 0236 49       		.uleb128 0x49
 2214 0237 13       		.uleb128 0x13
 2215 0238 02       		.uleb128 0x2
 2216 0239 17       		.uleb128 0x17
ARM GAS  /tmp/ccTUic0g.s 			page 40


 2217 023a 00       		.byte	0
 2218 023b 00       		.byte	0
 2219 023c 2B       		.uleb128 0x2b
 2220 023d 34       		.uleb128 0x34
 2221 023e 00       		.byte	0
 2222 023f 03       		.uleb128 0x3
 2223 0240 0E       		.uleb128 0xe
 2224 0241 3A       		.uleb128 0x3a
 2225 0242 0B       		.uleb128 0xb
 2226 0243 3B       		.uleb128 0x3b
 2227 0244 0B       		.uleb128 0xb
 2228 0245 49       		.uleb128 0x49
 2229 0246 13       		.uleb128 0x13
 2230 0247 02       		.uleb128 0x2
 2231 0248 18       		.uleb128 0x18
 2232 0249 00       		.byte	0
 2233 024a 00       		.byte	0
 2234 024b 2C       		.uleb128 0x2c
 2235 024c 34       		.uleb128 0x34
 2236 024d 00       		.byte	0
 2237 024e 03       		.uleb128 0x3
 2238 024f 0E       		.uleb128 0xe
 2239 0250 3A       		.uleb128 0x3a
 2240 0251 0B       		.uleb128 0xb
 2241 0252 3B       		.uleb128 0x3b
 2242 0253 05       		.uleb128 0x5
 2243 0254 49       		.uleb128 0x49
 2244 0255 13       		.uleb128 0x13
 2245 0256 3F       		.uleb128 0x3f
 2246 0257 19       		.uleb128 0x19
 2247 0258 3C       		.uleb128 0x3c
 2248 0259 19       		.uleb128 0x19
 2249 025a 00       		.byte	0
 2250 025b 00       		.byte	0
 2251 025c 2D       		.uleb128 0x2d
 2252 025d 34       		.uleb128 0x34
 2253 025e 00       		.byte	0
 2254 025f 03       		.uleb128 0x3
 2255 0260 08       		.uleb128 0x8
 2256 0261 3A       		.uleb128 0x3a
 2257 0262 0B       		.uleb128 0xb
 2258 0263 3B       		.uleb128 0x3b
 2259 0264 05       		.uleb128 0x5
 2260 0265 49       		.uleb128 0x49
 2261 0266 13       		.uleb128 0x13
 2262 0267 3F       		.uleb128 0x3f
 2263 0268 19       		.uleb128 0x19
 2264 0269 3C       		.uleb128 0x3c
 2265 026a 19       		.uleb128 0x19
 2266 026b 00       		.byte	0
 2267 026c 00       		.byte	0
 2268 026d 2E       		.uleb128 0x2e
 2269 026e 2E       		.uleb128 0x2e
 2270 026f 01       		.byte	0x1
 2271 0270 3F       		.uleb128 0x3f
 2272 0271 19       		.uleb128 0x19
 2273 0272 03       		.uleb128 0x3
ARM GAS  /tmp/ccTUic0g.s 			page 41


 2274 0273 0E       		.uleb128 0xe
 2275 0274 3A       		.uleb128 0x3a
 2276 0275 0B       		.uleb128 0xb
 2277 0276 3B       		.uleb128 0x3b
 2278 0277 0B       		.uleb128 0xb
 2279 0278 27       		.uleb128 0x27
 2280 0279 19       		.uleb128 0x19
 2281 027a 3C       		.uleb128 0x3c
 2282 027b 19       		.uleb128 0x19
 2283 027c 01       		.uleb128 0x1
 2284 027d 13       		.uleb128 0x13
 2285 027e 00       		.byte	0
 2286 027f 00       		.byte	0
 2287 0280 2F       		.uleb128 0x2f
 2288 0281 2E       		.uleb128 0x2e
 2289 0282 01       		.byte	0x1
 2290 0283 3F       		.uleb128 0x3f
 2291 0284 19       		.uleb128 0x19
 2292 0285 03       		.uleb128 0x3
 2293 0286 0E       		.uleb128 0xe
 2294 0287 3A       		.uleb128 0x3a
 2295 0288 0B       		.uleb128 0xb
 2296 0289 3B       		.uleb128 0x3b
 2297 028a 0B       		.uleb128 0xb
 2298 028b 27       		.uleb128 0x27
 2299 028c 19       		.uleb128 0x19
 2300 028d 3C       		.uleb128 0x3c
 2301 028e 19       		.uleb128 0x19
 2302 028f 00       		.byte	0
 2303 0290 00       		.byte	0
 2304 0291 00       		.byte	0
 2305              		.section	.debug_loc,"",%progbits
 2306              	.Ldebug_loc0:
 2307              	.LLST0:
 2308 0000 00000000 		.4byte	.LVL1
 2309 0004 0C000000 		.4byte	.LVL3
 2310 0008 0100     		.2byte	0x1
 2311 000a 50       		.byte	0x50
 2312 000b 0C000000 		.4byte	.LVL3
 2313 000f 13000000 		.4byte	.LVL4-1
 2314 0013 0300     		.2byte	0x3
 2315 0015 70       		.byte	0x70
 2316 0016 70       		.sleb128 -16
 2317 0017 9F       		.byte	0x9f
 2318 0018 13000000 		.4byte	.LVL4-1
 2319 001c 14000000 		.4byte	.LFE242
 2320 0020 0400     		.2byte	0x4
 2321 0022 F3       		.byte	0xf3
 2322 0023 01       		.uleb128 0x1
 2323 0024 50       		.byte	0x50
 2324 0025 9F       		.byte	0x9f
 2325 0026 00000000 		.4byte	0
 2326 002a 00000000 		.4byte	0
 2327              	.LLST1:
 2328 002e 00000000 		.4byte	.LVL1
 2329 0032 13000000 		.4byte	.LVL4-1
 2330 0036 0100     		.2byte	0x1
ARM GAS  /tmp/ccTUic0g.s 			page 42


 2331 0038 51       		.byte	0x51
 2332 0039 13000000 		.4byte	.LVL4-1
 2333 003d 14000000 		.4byte	.LFE242
 2334 0041 0400     		.2byte	0x4
 2335 0043 F3       		.byte	0xf3
 2336 0044 01       		.uleb128 0x1
 2337 0045 51       		.byte	0x51
 2338 0046 9F       		.byte	0x9f
 2339 0047 00000000 		.4byte	0
 2340 004b 00000000 		.4byte	0
 2341              	.LLST2:
 2342 004f 00000000 		.4byte	.LVL1
 2343 0053 04000000 		.4byte	.LVL2
 2344 0057 0100     		.2byte	0x1
 2345 0059 52       		.byte	0x52
 2346 005a 04000000 		.4byte	.LVL2
 2347 005e 13000000 		.4byte	.LVL4-1
 2348 0062 0300     		.2byte	0x3
 2349 0064 72       		.byte	0x72
 2350 0065 08       		.sleb128 8
 2351 0066 9F       		.byte	0x9f
 2352 0067 13000000 		.4byte	.LVL4-1
 2353 006b 14000000 		.4byte	.LFE242
 2354 006f 0400     		.2byte	0x4
 2355 0071 F3       		.byte	0xf3
 2356 0072 01       		.uleb128 0x1
 2357 0073 52       		.byte	0x52
 2358 0074 9F       		.byte	0x9f
 2359 0075 00000000 		.4byte	0
 2360 0079 00000000 		.4byte	0
 2361              	.LLST4:
 2362 007d 00000000 		.4byte	.LVL5
 2363 0081 0A000000 		.4byte	.LVL6
 2364 0085 0100     		.2byte	0x1
 2365 0087 50       		.byte	0x50
 2366 0088 0A000000 		.4byte	.LVL6
 2367 008c 8C000000 		.4byte	.LFE243
 2368 0090 0100     		.2byte	0x1
 2369 0092 56       		.byte	0x56
 2370 0093 00000000 		.4byte	0
 2371 0097 00000000 		.4byte	0
 2372              	.LLST5:
 2373 009b 00000000 		.4byte	.LVL5
 2374 009f 10000000 		.4byte	.LVL7
 2375 00a3 0100     		.2byte	0x1
 2376 00a5 51       		.byte	0x51
 2377 00a6 10000000 		.4byte	.LVL7
 2378 00aa 16000000 		.4byte	.LVL8
 2379 00ae 0300     		.2byte	0x3
 2380 00b0 71       		.byte	0x71
 2381 00b1 79       		.sleb128 -7
 2382 00b2 9F       		.byte	0x9f
 2383 00b3 16000000 		.4byte	.LVL8
 2384 00b7 8C000000 		.4byte	.LFE243
 2385 00bb 0100     		.2byte	0x1
 2386 00bd 55       		.byte	0x55
 2387 00be 00000000 		.4byte	0
ARM GAS  /tmp/ccTUic0g.s 			page 43


 2388 00c2 00000000 		.4byte	0
 2389              	.LLST6:
 2390 00c6 1A000000 		.4byte	.LVL9
 2391 00ca 48000000 		.4byte	.LVL17
 2392 00ce 0100     		.2byte	0x1
 2393 00d0 54       		.byte	0x54
 2394 00d1 4C000000 		.4byte	.LVL18
 2395 00d5 5A000000 		.4byte	.LVL19
 2396 00d9 0100     		.2byte	0x1
 2397 00db 54       		.byte	0x54
 2398 00dc 68000000 		.4byte	.LVL21
 2399 00e0 86000000 		.4byte	.LVL24
 2400 00e4 0100     		.2byte	0x1
 2401 00e6 54       		.byte	0x54
 2402 00e7 00000000 		.4byte	0
 2403 00eb 00000000 		.4byte	0
 2404              	.LLST7:
 2405 00ef 20000000 		.4byte	.LVL11
 2406 00f3 28000000 		.4byte	.LVL12
 2407 00f7 0100     		.2byte	0x1
 2408 00f9 53       		.byte	0x53
 2409 00fa 2A000000 		.4byte	.LVL13
 2410 00fe 33000000 		.4byte	.LVL14-1
 2411 0102 0100     		.2byte	0x1
 2412 0104 53       		.byte	0x53
 2413 0105 3E000000 		.4byte	.LVL15
 2414 0109 44000000 		.4byte	.LVL16
 2415 010d 0100     		.2byte	0x1
 2416 010f 50       		.byte	0x50
 2417 0110 44000000 		.4byte	.LVL16
 2418 0114 48000000 		.4byte	.LVL17
 2419 0118 0300     		.2byte	0x3
 2420 011a 70       		.byte	0x70
 2421 011b 08       		.sleb128 8
 2422 011c 9F       		.byte	0x9f
 2423 011d 4C000000 		.4byte	.LVL18
 2424 0121 63000000 		.4byte	.LVL20-1
 2425 0125 0100     		.2byte	0x1
 2426 0127 53       		.byte	0x53
 2427 0128 63000000 		.4byte	.LVL20-1
 2428 012c 68000000 		.4byte	.LVL21
 2429 0130 0300     		.2byte	0x3
 2430 0132 74       		.byte	0x74
 2431 0133 78       		.sleb128 -8
 2432 0134 9F       		.byte	0x9f
 2433 0135 68000000 		.4byte	.LVL21
 2434 0139 84000000 		.4byte	.LVL23
 2435 013d 0100     		.2byte	0x1
 2436 013f 53       		.byte	0x53
 2437 0140 00000000 		.4byte	0
 2438 0144 00000000 		.4byte	0
 2439              	.LLST8:
 2440 0148 72000000 		.4byte	.LVL22
 2441 014c 84000000 		.4byte	.LVL23
 2442 0150 0100     		.2byte	0x1
 2443 0152 5E       		.byte	0x5e
 2444 0153 00000000 		.4byte	0
ARM GAS  /tmp/ccTUic0g.s 			page 44


 2445 0157 00000000 		.4byte	0
 2446              	.LLST9:
 2447 015b 00000000 		.4byte	.LVL25
 2448 015f 14000000 		.4byte	.LVL28
 2449 0163 0100     		.2byte	0x1
 2450 0165 50       		.byte	0x50
 2451 0166 14000000 		.4byte	.LVL28
 2452 016a 5E000000 		.4byte	.LVL35
 2453 016e 0100     		.2byte	0x1
 2454 0170 56       		.byte	0x56
 2455 0171 5E000000 		.4byte	.LVL35
 2456 0175 62000000 		.4byte	.LVL36
 2457 0179 0400     		.2byte	0x4
 2458 017b F3       		.byte	0xf3
 2459 017c 01       		.uleb128 0x1
 2460 017d 50       		.byte	0x50
 2461 017e 9F       		.byte	0x9f
 2462 017f 62000000 		.4byte	.LVL36
 2463 0183 94000000 		.4byte	.LVL37
 2464 0187 0100     		.2byte	0x1
 2465 0189 56       		.byte	0x56
 2466 018a 94000000 		.4byte	.LVL37
 2467 018e 98000000 		.4byte	.LFE244
 2468 0192 0400     		.2byte	0x4
 2469 0194 F3       		.byte	0xf3
 2470 0195 01       		.uleb128 0x1
 2471 0196 50       		.byte	0x50
 2472 0197 9F       		.byte	0x9f
 2473 0198 00000000 		.4byte	0
 2474 019c 00000000 		.4byte	0
 2475              	.LLST10:
 2476 01a0 12000000 		.4byte	.LVL27
 2477 01a4 1A000000 		.4byte	.LVL30
 2478 01a8 0100     		.2byte	0x1
 2479 01aa 55       		.byte	0x55
 2480 01ab 1A000000 		.4byte	.LVL30
 2481 01af 32000000 		.4byte	.LVL32
 2482 01b3 0100     		.2byte	0x1
 2483 01b5 53       		.byte	0x53
 2484 01b6 34000000 		.4byte	.LVL33
 2485 01ba 5E000000 		.4byte	.LVL35
 2486 01be 0100     		.2byte	0x1
 2487 01c0 53       		.byte	0x53
 2488 01c1 62000000 		.4byte	.LVL36
 2489 01c5 94000000 		.4byte	.LVL37
 2490 01c9 0100     		.2byte	0x1
 2491 01cb 53       		.byte	0x53
 2492 01cc 00000000 		.4byte	0
 2493 01d0 00000000 		.4byte	0
 2494              	.LLST11:
 2495 01d4 10000000 		.4byte	.LVL26
 2496 01d8 5E000000 		.4byte	.LVL35
 2497 01dc 0100     		.2byte	0x1
 2498 01de 54       		.byte	0x54
 2499 01df 5E000000 		.4byte	.LVL35
 2500 01e3 62000000 		.4byte	.LVL36
 2501 01e7 0600     		.2byte	0x6
ARM GAS  /tmp/ccTUic0g.s 			page 45


 2502 01e9 F3       		.byte	0xf3
 2503 01ea 01       		.uleb128 0x1
 2504 01eb 50       		.byte	0x50
 2505 01ec 38       		.byte	0x38
 2506 01ed 1C       		.byte	0x1c
 2507 01ee 9F       		.byte	0x9f
 2508 01ef 62000000 		.4byte	.LVL36
 2509 01f3 94000000 		.4byte	.LVL37
 2510 01f7 0100     		.2byte	0x1
 2511 01f9 54       		.byte	0x54
 2512 01fa 94000000 		.4byte	.LVL37
 2513 01fe 98000000 		.4byte	.LFE244
 2514 0202 0600     		.2byte	0x6
 2515 0204 F3       		.byte	0xf3
 2516 0205 01       		.uleb128 0x1
 2517 0206 50       		.byte	0x50
 2518 0207 38       		.byte	0x38
 2519 0208 1C       		.byte	0x1c
 2520 0209 9F       		.byte	0x9f
 2521 020a 00000000 		.4byte	0
 2522 020e 00000000 		.4byte	0
 2523              	.LLST12:
 2524 0212 10000000 		.4byte	.LVL26
 2525 0216 12000000 		.4byte	.LVL27
 2526 021a 0100     		.2byte	0x1
 2527 021c 55       		.byte	0x55
 2528 021d 12000000 		.4byte	.LVL27
 2529 0221 17000000 		.4byte	.LVL29-1
 2530 0225 0200     		.2byte	0x2
 2531 0227 74       		.byte	0x74
 2532 0228 00       		.sleb128 0
 2533 0229 17000000 		.4byte	.LVL29-1
 2534 022d 46000000 		.4byte	.LVL34
 2535 0231 0300     		.2byte	0x3
 2536 0233 75       		.byte	0x75
 2537 0234 78       		.sleb128 -8
 2538 0235 9F       		.byte	0x9f
 2539 0236 46000000 		.4byte	.LVL34
 2540 023a 5E000000 		.4byte	.LVL35
 2541 023e 0300     		.2byte	0x3
 2542 0240 77       		.byte	0x77
 2543 0241 70       		.sleb128 -16
 2544 0242 9F       		.byte	0x9f
 2545 0243 5E000000 		.4byte	.LVL35
 2546 0247 61000000 		.4byte	.LVL36-1
 2547 024b 0300     		.2byte	0x3
 2548 024d 70       		.byte	0x70
 2549 024e 70       		.sleb128 -16
 2550 024f 9F       		.byte	0x9f
 2551 0250 62000000 		.4byte	.LVL36
 2552 0254 94000000 		.4byte	.LVL37
 2553 0258 0300     		.2byte	0x3
 2554 025a 77       		.byte	0x77
 2555 025b 70       		.sleb128 -16
 2556 025c 9F       		.byte	0x9f
 2557 025d 94000000 		.4byte	.LVL37
 2558 0261 97000000 		.4byte	.LVL38-1
ARM GAS  /tmp/ccTUic0g.s 			page 46


 2559 0265 0300     		.2byte	0x3
 2560 0267 70       		.byte	0x70
 2561 0268 70       		.sleb128 -16
 2562 0269 9F       		.byte	0x9f
 2563 026a 00000000 		.4byte	0
 2564 026e 00000000 		.4byte	0
 2565              	.LLST13:
 2566 0272 00000000 		.4byte	.LVL39
 2567 0276 0A000000 		.4byte	.LVL40
 2568 027a 0100     		.2byte	0x1
 2569 027c 50       		.byte	0x50
 2570 027d 0A000000 		.4byte	.LVL40
 2571 0281 1E000000 		.4byte	.LVL42
 2572 0285 0100     		.2byte	0x1
 2573 0287 54       		.byte	0x54
 2574 0288 1E000000 		.4byte	.LVL42
 2575 028c 36000000 		.4byte	.LVL47
 2576 0290 0300     		.2byte	0x3
 2577 0292 76       		.byte	0x76
 2578 0293 70       		.sleb128 -16
 2579 0294 9F       		.byte	0x9f
 2580 0295 36000000 		.4byte	.LVL47
 2581 0299 3A000000 		.4byte	.LVL48
 2582 029d 0100     		.2byte	0x1
 2583 029f 54       		.byte	0x54
 2584 02a0 3A000000 		.4byte	.LVL48
 2585 02a4 40000000 		.4byte	.LFE245
 2586 02a8 0300     		.2byte	0x3
 2587 02aa 76       		.byte	0x76
 2588 02ab 70       		.sleb128 -16
 2589 02ac 9F       		.byte	0x9f
 2590 02ad 00000000 		.4byte	0
 2591 02b1 00000000 		.4byte	0
 2592              	.LLST14:
 2593 02b5 00000000 		.4byte	.LVL39
 2594 02b9 15000000 		.4byte	.LVL41-1
 2595 02bd 0100     		.2byte	0x1
 2596 02bf 51       		.byte	0x51
 2597 02c0 15000000 		.4byte	.LVL41-1
 2598 02c4 40000000 		.4byte	.LFE245
 2599 02c8 0100     		.2byte	0x1
 2600 02ca 57       		.byte	0x57
 2601 02cb 00000000 		.4byte	0
 2602 02cf 00000000 		.4byte	0
 2603              	.LLST15:
 2604 02d3 16000000 		.4byte	.LVL41
 2605 02d7 1E000000 		.4byte	.LVL42
 2606 02db 0300     		.2byte	0x3
 2607 02dd 74       		.byte	0x74
 2608 02de 08       		.sleb128 8
 2609 02df 9F       		.byte	0x9f
 2610 02e0 1E000000 		.4byte	.LVL42
 2611 02e4 24000000 		.4byte	.LVL44
 2612 02e8 0300     		.2byte	0x3
 2613 02ea 76       		.byte	0x76
 2614 02eb 78       		.sleb128 -8
 2615 02ec 9F       		.byte	0x9f
ARM GAS  /tmp/ccTUic0g.s 			page 47


 2616 02ed 36000000 		.4byte	.LVL47
 2617 02f1 3A000000 		.4byte	.LVL48
 2618 02f5 0300     		.2byte	0x3
 2619 02f7 74       		.byte	0x74
 2620 02f8 08       		.sleb128 8
 2621 02f9 9F       		.byte	0x9f
 2622 02fa 3A000000 		.4byte	.LVL48
 2623 02fe 40000000 		.4byte	.LFE245
 2624 0302 0300     		.2byte	0x3
 2625 0304 76       		.byte	0x76
 2626 0305 78       		.sleb128 -8
 2627 0306 9F       		.byte	0x9f
 2628 0307 00000000 		.4byte	0
 2629 030b 00000000 		.4byte	0
 2630              	.LLST16:
 2631 030f 16000000 		.4byte	.LVL41
 2632 0313 1E000000 		.4byte	.LVL42
 2633 0317 0200     		.2byte	0x2
 2634 0319 30       		.byte	0x30
 2635 031a 9F       		.byte	0x9f
 2636 031b 1E000000 		.4byte	.LVL42
 2637 031f 22000000 		.4byte	.LVL43
 2638 0323 0100     		.2byte	0x1
 2639 0325 54       		.byte	0x54
 2640 0326 22000000 		.4byte	.LVL43
 2641 032a 24000000 		.4byte	.LVL44
 2642 032e 0300     		.2byte	0x3
 2643 0330 74       		.byte	0x74
 2644 0331 7F       		.sleb128 -1
 2645 0332 9F       		.byte	0x9f
 2646 0333 24000000 		.4byte	.LVL44
 2647 0337 28000000 		.4byte	.LVL45
 2648 033b 0100     		.2byte	0x1
 2649 033d 54       		.byte	0x54
 2650 033e 36000000 		.4byte	.LVL47
 2651 0342 40000000 		.4byte	.LFE245
 2652 0346 0200     		.2byte	0x2
 2653 0348 30       		.byte	0x30
 2654 0349 9F       		.byte	0x9f
 2655 034a 00000000 		.4byte	0
 2656 034e 00000000 		.4byte	0
 2657              	.LLST17:
 2658 0352 16000000 		.4byte	.LVL41
 2659 0356 1E000000 		.4byte	.LVL42
 2660 035a 0200     		.2byte	0x2
 2661 035c 30       		.byte	0x30
 2662 035d 9F       		.byte	0x9f
 2663 035e 1E000000 		.4byte	.LVL42
 2664 0362 28000000 		.4byte	.LVL45
 2665 0366 0100     		.2byte	0x1
 2666 0368 52       		.byte	0x52
 2667 0369 36000000 		.4byte	.LVL47
 2668 036d 40000000 		.4byte	.LFE245
 2669 0371 0200     		.2byte	0x2
 2670 0373 30       		.byte	0x30
 2671 0374 9F       		.byte	0x9f
 2672 0375 00000000 		.4byte	0
ARM GAS  /tmp/ccTUic0g.s 			page 48


 2673 0379 00000000 		.4byte	0
 2674              		.section	.debug_aranges,"",%progbits
 2675 0000 3C000000 		.4byte	0x3c
 2676 0004 0200     		.2byte	0x2
 2677 0006 00000000 		.4byte	.Ldebug_info0
 2678 000a 04       		.byte	0x4
 2679 000b 00       		.byte	0
 2680 000c 0000     		.2byte	0
 2681 000e 0000     		.2byte	0
 2682 0010 00000000 		.4byte	.LFB241
 2683 0014 1C000000 		.4byte	.LFE241-.LFB241
 2684 0018 00000000 		.4byte	.LFB242
 2685 001c 14000000 		.4byte	.LFE242-.LFB242
 2686 0020 00000000 		.4byte	.LFB243
 2687 0024 8C000000 		.4byte	.LFE243-.LFB243
 2688 0028 00000000 		.4byte	.LFB244
 2689 002c 98000000 		.4byte	.LFE244-.LFB244
 2690 0030 00000000 		.4byte	.LFB245
 2691 0034 40000000 		.4byte	.LFE245-.LFB245
 2692 0038 00000000 		.4byte	0
 2693 003c 00000000 		.4byte	0
 2694              		.section	.debug_ranges,"",%progbits
 2695              	.Ldebug_ranges0:
 2696 0000 00000000 		.4byte	.LFB241
 2697 0004 1C000000 		.4byte	.LFE241
 2698 0008 00000000 		.4byte	.LFB242
 2699 000c 14000000 		.4byte	.LFE242
 2700 0010 00000000 		.4byte	.LFB243
 2701 0014 8C000000 		.4byte	.LFE243
 2702 0018 00000000 		.4byte	.LFB244
 2703 001c 98000000 		.4byte	.LFE244
 2704 0020 00000000 		.4byte	.LFB245
 2705 0024 40000000 		.4byte	.LFE245
 2706 0028 00000000 		.4byte	0
 2707 002c 00000000 		.4byte	0
 2708              		.section	.debug_line,"",%progbits
 2709              	.Ldebug_line0:
 2710 0000 A9030000 		.section	.debug_str,"MS",%progbits,1
 2710      0200C502 
 2710      00000201 
 2710      FB0E0D00 
 2710      01010101 
 2711              	.LASF50:
 2712 0000 72656164 		.ascii	"ready_list_t\000"
 2712      795F6C69 
 2712      73745F74 
 2712      00
 2713              	.LASF2:
 2714 000d 73697A65 		.ascii	"size_t\000"
 2714      5F7400
 2715              	.LASF108:
 2716 0014 6E657874 		.ascii	"next\000"
 2716      00
 2717              	.LASF85:
 2718 0019 7264796D 		.ascii	"rdymsg\000"
 2718      736700
 2719              	.LASF17:
ARM GAS  /tmp/ccTUic0g.s 			page 49


 2720 0020 75696E74 		.ascii	"uint64_t\000"
 2720      36345F74 
 2720      00
 2721              	.LASF3:
 2722 0029 5F5F7569 		.ascii	"__uint8_t\000"
 2722      6E74385F 
 2722      7400
 2723              	.LASF82:
 2724 0033 706F7274 		.ascii	"port_intctx\000"
 2724      5F696E74 
 2724      63747800 
 2725              	.LASF69:
 2726 003f 73797374 		.ascii	"system_debug_t\000"
 2726      656D5F64 
 2726      65627567 
 2726      5F7400
 2727              	.LASF102:
 2728 004e 6D656D67 		.ascii	"memgetfunc_t\000"
 2728      65746675 
 2728      6E635F74 
 2728      00
 2729              	.LASF13:
 2730 005b 6C6F6E67 		.ascii	"long long unsigned int\000"
 2730      206C6F6E 
 2730      6720756E 
 2730      7369676E 
 2730      65642069 
 2731              	.LASF86:
 2732 0072 65786974 		.ascii	"exitcode\000"
 2732      636F6465 
 2732      00
 2733              	.LASF106:
 2734 007b 685F6672 		.ascii	"h_free\000"
 2734      656500
 2735              	.LASF89:
 2736 0082 73656E74 		.ascii	"sentmsg\000"
 2736      6D736700 
 2737              	.LASF66:
 2738 008a 76697274 		.ascii	"virtual_timers_list_t\000"
 2738      75616C5F 
 2738      74696D65 
 2738      72735F6C 
 2738      6973745F 
 2739              	.LASF121:
 2740 00a0 49544D5F 		.ascii	"ITM_RxBuffer\000"
 2740      52784275 
 2740      66666572 
 2740      00
 2741              	.LASF114:
 2742 00ad 68656170 		.ascii	"heapp\000"
 2742      7000
 2743              	.LASF110:
 2744 00b3 616C6967 		.ascii	"align\000"
 2744      6E00
 2745              	.LASF49:
 2746 00b9 63685F74 		.ascii	"ch_threads_queue\000"
 2746      68726561 
ARM GAS  /tmp/ccTUic0g.s 			page 50


 2746      64735F71 
 2746      75657565 
 2746      00
 2747              	.LASF30:
 2748 00ca 705F7072 		.ascii	"p_prio\000"
 2748      696F00
 2749              	.LASF128:
 2750 00d1 63684D74 		.ascii	"chMtxUnlock\000"
 2750      78556E6C 
 2750      6F636B00 
 2751              	.LASF1:
 2752 00dd 7369676E 		.ascii	"signed char\000"
 2752      65642063 
 2752      68617200 
 2753              	.LASF107:
 2754 00e9 685F6D74 		.ascii	"h_mtx\000"
 2754      7800
 2755              	.LASF43:
 2756 00ef 705F6D70 		.ascii	"p_mpool\000"
 2756      6F6F6C00 
 2757              	.LASF97:
 2758 00f7 6D5F7175 		.ascii	"m_queue\000"
 2758      65756500 
 2759              	.LASF115:
 2760 00ff 63684865 		.ascii	"chHeapFree\000"
 2760      61704672 
 2760      656500
 2761              	.LASF75:
 2762 010a 76746C69 		.ascii	"vtlist\000"
 2762      737400
 2763              	.LASF88:
 2764 0111 77747472 		.ascii	"wttrp\000"
 2764      7000
 2765              	.LASF73:
 2766 0117 63685F73 		.ascii	"ch_system\000"
 2766      79737465 
 2766      6D00
 2767              	.LASF8:
 2768 0121 6C6F6E67 		.ascii	"long int\000"
 2768      20696E74 
 2768      00
 2769              	.LASF20:
 2770 012a 74737461 		.ascii	"tstate_t\000"
 2770      74655F74 
 2770      00
 2771              	.LASF103:
 2772 0133 6D656D6F 		.ascii	"memory_heap_t\000"
 2772      72795F68 
 2772      6561705F 
 2772      7400
 2773              	.LASF11:
 2774 0141 6C6F6E67 		.ascii	"long long int\000"
 2774      206C6F6E 
 2774      6720696E 
 2774      7400
 2775              	.LASF32:
 2776 014f 705F6E65 		.ascii	"p_newer\000"
ARM GAS  /tmp/ccTUic0g.s 			page 51


 2776      77657200 
 2777              	.LASF94:
 2778 0157 735F7175 		.ascii	"s_queue\000"
 2778      65756500 
 2779              	.LASF55:
 2780 015f 725F6E65 		.ascii	"r_newer\000"
 2780      77657200 
 2781              	.LASF79:
 2782 0167 72656761 		.ascii	"regarm_t\000"
 2782      726D5F74 
 2782      00
 2783              	.LASF62:
 2784 0170 76745F70 		.ascii	"vt_prev\000"
 2784      72657600 
 2785              	.LASF101:
 2786 0178 6D757465 		.ascii	"mutex_t\000"
 2786      785F7400 
 2787              	.LASF112:
 2788 0180 5F686561 		.ascii	"_heap_init\000"
 2788      705F696E 
 2788      697400
 2789              	.LASF77:
 2790 018b 69646C65 		.ascii	"idle_thread_wa\000"
 2790      5F746872 
 2790      6561645F 
 2790      776100
 2791              	.LASF125:
 2792 019a 2E2E2F43 		.ascii	"../ChibiOS/os/rt/src/chheap.c\000"
 2792      68696269 
 2792      4F532F6F 
 2792      732F7274 
 2792      2F737263 
 2793              	.LASF25:
 2794 01b8 636E745F 		.ascii	"cnt_t\000"
 2794      7400
 2795              	.LASF0:
 2796 01be 756E7369 		.ascii	"unsigned int\000"
 2796      676E6564 
 2796      20696E74 
 2796      00
 2797              	.LASF61:
 2798 01cb 76745F6E 		.ascii	"vt_next\000"
 2798      65787400 
 2799              	.LASF90:
 2800 01d3 77747365 		.ascii	"wtsemp\000"
 2800      6D7000
 2801              	.LASF39:
 2802 01da 705F6D73 		.ascii	"p_msgqueue\000"
 2802      67717565 
 2802      756500
 2803              	.LASF95:
 2804 01e5 735F636E 		.ascii	"s_cnt\000"
 2804      7400
 2805              	.LASF6:
 2806 01eb 73686F72 		.ascii	"short unsigned int\000"
 2806      7420756E 
 2806      7369676E 
ARM GAS  /tmp/ccTUic0g.s 			page 52


 2806      65642069 
 2806      6E7400
 2807              	.LASF46:
 2808 01fe 63685F74 		.ascii	"ch_thread\000"
 2808      68726561 
 2808      6400
 2809              	.LASF76:
 2810 0208 6D61696E 		.ascii	"mainthread\000"
 2810      74687265 
 2810      616400
 2811              	.LASF23:
 2812 0213 6D73675F 		.ascii	"msg_t\000"
 2812      7400
 2813              	.LASF72:
 2814 0219 63685F73 		.ascii	"ch_system_t\000"
 2814      79737465 
 2814      6D5F7400 
 2815              	.LASF19:
 2816 0225 746D6F64 		.ascii	"tmode_t\000"
 2816      655F7400 
 2817              	.LASF51:
 2818 022d 63685F72 		.ascii	"ch_ready_list\000"
 2818      65616479 
 2818      5F6C6973 
 2818      7400
 2819              	.LASF24:
 2820 023b 6576656E 		.ascii	"eventmask_t\000"
 2820      746D6173 
 2820      6B5F7400 
 2821              	.LASF7:
 2822 0247 5F5F696E 		.ascii	"__int32_t\000"
 2822      7433325F 
 2822      7400
 2823              	.LASF80:
 2824 0251 73746B61 		.ascii	"stkalign_t\000"
 2824      6C69676E 
 2824      5F7400
 2825              	.LASF113:
 2826 025c 63684865 		.ascii	"chHeapObjectInit\000"
 2826      61704F62 
 2826      6A656374 
 2826      496E6974 
 2826      00
 2827              	.LASF38:
 2828 026d 705F7761 		.ascii	"p_waiting\000"
 2828      6974696E 
 2828      6700
 2829              	.LASF78:
 2830 0277 73697A65 		.ascii	"sizetype\000"
 2830      74797065 
 2830      00
 2831              	.LASF44:
 2832 0280 74687265 		.ascii	"thread_reference_t\000"
 2832      61645F72 
 2832      65666572 
 2832      656E6365 
 2832      5F7400
ARM GAS  /tmp/ccTUic0g.s 			page 53


 2833              	.LASF67:
 2834 0293 63685F76 		.ascii	"ch_virtual_timers_list\000"
 2834      69727475 
 2834      616C5F74 
 2834      696D6572 
 2834      735F6C69 
 2835              	.LASF52:
 2836 02aa 725F7175 		.ascii	"r_queue\000"
 2836      65756500 
 2837              	.LASF68:
 2838 02b2 76745F6C 		.ascii	"vt_lasttime\000"
 2838      61737474 
 2838      696D6500 
 2839              	.LASF123:
 2840 02be 63684D74 		.ascii	"chMtxLock\000"
 2840      784C6F63 
 2840      6B00
 2841              	.LASF33:
 2842 02c8 705F6F6C 		.ascii	"p_older\000"
 2842      64657200 
 2843              	.LASF54:
 2844 02d0 725F6374 		.ascii	"r_ctx\000"
 2844      7800
 2845              	.LASF84:
 2846 02d6 746D5F63 		.ascii	"tm_calibration_t\000"
 2846      616C6962 
 2846      72617469 
 2846      6F6E5F74 
 2846      00
 2847              	.LASF57:
 2848 02e7 725F6375 		.ascii	"r_current\000"
 2848      7272656E 
 2848      7400
 2849              	.LASF56:
 2850 02f1 725F6F6C 		.ascii	"r_older\000"
 2850      64657200 
 2851              	.LASF12:
 2852 02f9 5F5F7569 		.ascii	"__uint64_t\000"
 2852      6E743634 
 2852      5F7400
 2853              	.LASF21:
 2854 0304 74726566 		.ascii	"trefs_t\000"
 2854      735F7400 
 2855              	.LASF59:
 2856 030c 76697274 		.ascii	"virtual_timer_t\000"
 2856      75616C5F 
 2856      74696D65 
 2856      725F7400 
 2857              	.LASF29:
 2858 031c 705F7072 		.ascii	"p_prev\000"
 2858      657600
 2859              	.LASF22:
 2860 0323 74707269 		.ascii	"tprio_t\000"
 2860      6F5F7400 
 2861              	.LASF122:
 2862 032b 63684D74 		.ascii	"chMtxObjectInit\000"
 2862      784F626A 
ARM GAS  /tmp/ccTUic0g.s 			page 54


 2862      65637449 
 2862      6E697400 
 2863              	.LASF70:
 2864 033b 63685F73 		.ascii	"ch_system_debug\000"
 2864      79737465 
 2864      6D5F6465 
 2864      62756700 
 2865              	.LASF15:
 2866 034b 696E7433 		.ascii	"int32_t\000"
 2866      325F7400 
 2867              	.LASF4:
 2868 0353 756E7369 		.ascii	"unsigned char\000"
 2868      676E6564 
 2868      20636861 
 2868      7200
 2869              	.LASF127:
 2870 0361 68656170 		.ascii	"heap_header\000"
 2870      5F686561 
 2870      64657200 
 2871              	.LASF41:
 2872 036d 705F6D74 		.ascii	"p_mtxlist\000"
 2872      786C6973 
 2872      7400
 2873              	.LASF5:
 2874 0377 73686F72 		.ascii	"short int\000"
 2874      7420696E 
 2874      7400
 2875              	.LASF35:
 2876 0381 705F7374 		.ascii	"p_state\000"
 2876      61746500 
 2877              	.LASF53:
 2878 0389 725F7072 		.ascii	"r_prio\000"
 2878      696F00
 2879              	.LASF92:
 2880 0390 65776D61 		.ascii	"ewmask\000"
 2880      736B00
 2881              	.LASF28:
 2882 0397 705F6E65 		.ascii	"p_next\000"
 2882      787400
 2883              	.LASF36:
 2884 039e 705F666C 		.ascii	"p_flags\000"
 2884      61677300 
 2885              	.LASF116:
 2886 03a6 5F5F6675 		.ascii	"__func__\000"
 2886      6E635F5F 
 2886      00
 2887              	.LASF117:
 2888 03af 63684865 		.ascii	"chHeapAlloc\000"
 2888      6170416C 
 2888      6C6F6300 
 2889              	.LASF93:
 2890 03bb 63685F73 		.ascii	"ch_semaphore\000"
 2890      656D6170 
 2890      686F7265 
 2890      00
 2891              	.LASF40:
 2892 03c8 705F6570 		.ascii	"p_epending\000"
ARM GAS  /tmp/ccTUic0g.s 			page 55


 2892      656E6469 
 2892      6E6700
 2893              	.LASF16:
 2894 03d3 75696E74 		.ascii	"uint32_t\000"
 2894      33325F74 
 2894      00
 2895              	.LASF91:
 2896 03dc 77746D74 		.ascii	"wtmtxp\000"
 2896      787000
 2897              	.LASF126:
 2898 03e3 2F6E6673 		.ascii	"/nfs/nfs4/home/cojthack/442FinalProject/milestone3\000"
 2898      2F6E6673 
 2898      342F686F 
 2898      6D652F63 
 2898      6F6A7468 
 2899              	.LASF63:
 2900 0416 76745F64 		.ascii	"vt_delta\000"
 2900      656C7461 
 2900      00
 2901              	.LASF47:
 2902 041f 63685F74 		.ascii	"ch_threads_list\000"
 2902      68726561 
 2902      64735F6C 
 2902      69737400 
 2903              	.LASF109:
 2904 042f 68656170 		.ascii	"heap\000"
 2904      00
 2905              	.LASF10:
 2906 0434 6C6F6E67 		.ascii	"long unsigned int\000"
 2906      20756E73 
 2906      69676E65 
 2906      6420696E 
 2906      7400
 2907              	.LASF120:
 2908 0446 64656661 		.ascii	"default_heap\000"
 2908      756C745F 
 2908      68656170 
 2908      00
 2909              	.LASF100:
 2910 0453 63686172 		.ascii	"char\000"
 2910      00
 2911              	.LASF27:
 2912 0458 74687265 		.ascii	"thread_t\000"
 2912      61645F74 
 2912      00
 2913              	.LASF118:
 2914 0461 63684865 		.ascii	"chHeapStatus\000"
 2914      61705374 
 2914      61747573 
 2914      00
 2915              	.LASF124:
 2916 046e 474E5520 		.ascii	"GNU C 4.8.4 20140526 (release) [ARM/embedded-4_8-br"
 2916      4320342E 
 2916      382E3420 
 2916      32303134 
 2916      30353236 
 2917 04a1 616E6368 		.ascii	"anch revision 211358] -mcpu=cortex-m4 -mno-thumb-in"
ARM GAS  /tmp/ccTUic0g.s 			page 56


 2917      20726576 
 2917      6973696F 
 2917      6E203231 
 2917      31333538 
 2918 04d4 74657277 		.ascii	"terwork -mthumb -ggdb -O2 -fomit-frame-pointer -fal"
 2918      6F726B20 
 2918      2D6D7468 
 2918      756D6220 
 2918      2D676764 
 2919 0507 69676E2D 		.ascii	"ign-functions=16 -ffunction-sections -fdata-section"
 2919      66756E63 
 2919      74696F6E 
 2919      733D3136 
 2919      202D6666 
 2920 053a 73202D66 		.ascii	"s -fno-common\000"
 2920      6E6F2D63 
 2920      6F6D6D6F 
 2920      6E00
 2921              	.LASF99:
 2922 0548 6D5F6E65 		.ascii	"m_next\000"
 2922      787400
 2923              	.LASF26:
 2924 054f 73797374 		.ascii	"systime_t\000"
 2924      696D655F 
 2924      7400
 2925              	.LASF42:
 2926 0559 705F7265 		.ascii	"p_realprio\000"
 2926      616C7072 
 2926      696F00
 2927              	.LASF58:
 2928 0564 76746675 		.ascii	"vtfunc_t\000"
 2928      6E635F74 
 2928      00
 2929              	.LASF9:
 2930 056d 5F5F7569 		.ascii	"__uint32_t\000"
 2930      6E743332 
 2930      5F7400
 2931              	.LASF71:
 2932 0578 70616E69 		.ascii	"panic_msg\000"
 2932      635F6D73 
 2932      6700
 2933              	.LASF83:
 2934 0582 6F666673 		.ascii	"offset\000"
 2934      657400
 2935              	.LASF81:
 2936 0589 636F6E74 		.ascii	"context\000"
 2936      65787400 
 2937              	.LASF60:
 2938 0591 63685F76 		.ascii	"ch_virtual_timer\000"
 2938      69727475 
 2938      616C5F74 
 2938      696D6572 
 2938      00
 2939              	.LASF18:
 2940 05a2 7274636E 		.ascii	"rtcnt_t\000"
 2940      745F7400 
 2941              	.LASF65:
ARM GAS  /tmp/ccTUic0g.s 			page 57


 2942 05aa 76745F70 		.ascii	"vt_par\000"
 2942      617200
 2943              	.LASF48:
 2944 05b1 74687265 		.ascii	"threads_queue_t\000"
 2944      6164735F 
 2944      71756575 
 2944      655F7400 
 2945              	.LASF96:
 2946 05c1 63685F6D 		.ascii	"ch_mutex\000"
 2946      75746578 
 2946      00
 2947              	.LASF37:
 2948 05ca 705F7265 		.ascii	"p_refs\000"
 2948      667300
 2949              	.LASF74:
 2950 05d1 726C6973 		.ascii	"rlist\000"
 2950      7400
 2951              	.LASF14:
 2952 05d7 75696E74 		.ascii	"uint8_t\000"
 2952      385F7400 
 2953              	.LASF105:
 2954 05df 685F7072 		.ascii	"h_provider\000"
 2954      6F766964 
 2954      657200
 2955              	.LASF87:
 2956 05ea 77746F62 		.ascii	"wtobjp\000"
 2956      6A7000
 2957              	.LASF119:
 2958 05f1 73697A65 		.ascii	"sizep\000"
 2958      7000
 2959              	.LASF34:
 2960 05f7 705F6E61 		.ascii	"p_name\000"
 2960      6D6500
 2961              	.LASF111:
 2962 05fe 73697A65 		.ascii	"size\000"
 2962      00
 2963              	.LASF45:
 2964 0603 74687265 		.ascii	"threads_list_t\000"
 2964      6164735F 
 2964      6C697374 
 2964      5F7400
 2965              	.LASF98:
 2966 0612 6D5F6F77 		.ascii	"m_owner\000"
 2966      6E657200 
 2967              	.LASF31:
 2968 061a 705F6374 		.ascii	"p_ctx\000"
 2968      7800
 2969              	.LASF64:
 2970 0620 76745F66 		.ascii	"vt_func\000"
 2970      756E6300 
 2971              	.LASF104:
 2972 0628 6D656D6F 		.ascii	"memory_heap\000"
 2972      72795F68 
 2972      65617000 
 2973              		.ident	"GCC: (GNU Tools for ARM Embedded Processors) 4.8.4 20140526 (release) [ARM/embedded-4_8-br
ARM GAS  /tmp/ccTUic0g.s 			page 58


DEFINED SYMBOLS
                            *ABS*:00000000 chheap.c
     /tmp/ccTUic0g.s:19     .text._heap_init:00000000 $t
     /tmp/ccTUic0g.s:25     .text._heap_init:00000000 _heap_init
     /tmp/ccTUic0g.s:50     .text._heap_init:00000014 $d
     /tmp/ccTUic0g.s:56     .text.chHeapObjectInit:00000000 $t
     /tmp/ccTUic0g.s:62     .text.chHeapObjectInit:00000000 chHeapObjectInit
     /tmp/ccTUic0g.s:95     .text.chHeapAlloc:00000000 $t
     /tmp/ccTUic0g.s:101    .text.chHeapAlloc:00000000 chHeapAlloc
     /tmp/ccTUic0g.s:231    .text.chHeapAlloc:00000088 $d
     /tmp/ccTUic0g.s:236    .text.chHeapFree:00000000 $t
     /tmp/ccTUic0g.s:242    .text.chHeapFree:00000000 chHeapFree
     /tmp/ccTUic0g.s:370    .text.chHeapStatus:00000000 $t
     /tmp/ccTUic0g.s:376    .text.chHeapStatus:00000000 chHeapStatus
     /tmp/ccTUic0g.s:450    .text.chHeapStatus:0000003c $d
     /tmp/ccTUic0g.s:455    .bss.default_heap:00000000 $d
     /tmp/ccTUic0g.s:459    .bss.default_heap:00000000 default_heap
                     .debug_frame:00000010 $d
     /tmp/ccTUic0g.s:55     .text._heap_init:0000001c $t
     /tmp/ccTUic0g.s:235    .text.chHeapAlloc:0000008c $t

UNDEFINED SYMBOLS
chMtxObjectInit
chCoreAlloc
chMtxLock
chMtxUnlock
