ARM GAS  /tmp/ccynz22g.s 			page 1


   1              		.syntax unified
   2              		.cpu cortex-m4
   3              		.fpu softvfp
   4              		.eabi_attribute 20, 1
   5              		.eabi_attribute 21, 1
   6              		.eabi_attribute 23, 3
   7              		.eabi_attribute 24, 1
   8              		.eabi_attribute 25, 1
   9              		.eabi_attribute 26, 1
  10              		.eabi_attribute 30, 2
  11              		.eabi_attribute 34, 1
  12              		.eabi_attribute 18, 4
  13              		.thumb
  14              		.file	"chmsg.c"
  15              		.text
  16              	.Ltext0:
  17              		.cfi_sections	.debug_frame
  18              		.section	.text.chMsgSend,"ax",%progbits
  19              		.align	2
  20              		.p2align 4,,15
  21              		.global	chMsgSend
  22              		.thumb
  23              		.thumb_func
  24              		.type	chMsgSend, %function
  25              	chMsgSend:
  26              	.LFB241:
  27              		.file 1 "../ChibiOS/os/rt/src/chmsg.c"
  28              		.loc 1 87 0
  29              		.cfi_startproc
  30              		@ args = 0, pretend = 0, frame = 0
  31              		@ frame_needed = 0, uses_anonymous_args = 0
  32              	.LVL0:
  33 0000 38B5     		push	{r3, r4, r5, lr}
  34              		.cfi_def_cfa_offset 16
  35              		.cfi_offset 3, -16
  36              		.cfi_offset 4, -12
  37              		.cfi_offset 5, -8
  38              		.cfi_offset 14, -4
  39              		.loc 1 88 0
  40 0002 0D4B     		ldr	r3, .L5
  41              	.LBB52:
  42              	.LBB53:
  43              	.LBB54:
  44              	.LBB55:
  45              		.file 2 "../ChibiOS/os/ext/CMSIS/include/core_cmFunc.h"
  46              		.loc 2 548 0
  47 0004 2022     		movs	r2, #32
  48              	.LBE55:
  49              	.LBE54:
  50              	.LBE53:
  51              	.LBE52:
  52              		.loc 1 88 0
  53 0006 9C69     		ldr	r4, [r3, #24]
  54              	.LVL1:
  55              	.LBB59:
  56              	.LBB58:
  57              	.LBB57:
ARM GAS  /tmp/ccynz22g.s 			page 2


  58              	.LBB56:
  59              		.loc 2 548 0
  60              	@ 548 "../ChibiOS/os/ext/CMSIS/include/core_cmFunc.h" 1
  61 0008 82F31188 		MSR basepri, r2
  62              	@ 0 "" 2
  63              		.thumb
  64              	.LBE56:
  65              	.LBE57:
  66              	.LBE58:
  67              	.LBE59:
  68              		.loc 1 93 0
  69 000c 2162     		str	r1, [r4, #32]
  70              	.LVL2:
  71              		.loc 1 95 0
  72 000e 017F     		ldrb	r1, [r0, #28]	@ zero_extendqisi2
  73              	.LVL3:
  74              	.LBB60:
  75              	.LBB61:
  76              		.file 3 "../ChibiOS/os/rt/include/chschd.h"
  77              		.loc 3 668 0
  78 0010 C26A     		ldr	r2, [r0, #44]
  79 0012 6260     		str	r2, [r4, #4]
  80              	.LBE61:
  81              	.LBE60:
  82              		.loc 1 94 0
  83 0014 00F12805 		add	r5, r0, #40
  84              	.LVL4:
  85              		.loc 1 95 0
  86 0018 0E29     		cmp	r1, #14
  87              	.LBB63:
  88              	.LBB62:
  89              		.loc 3 667 0
  90 001a 2560     		str	r5, [r4]
  91              		.loc 3 669 0
  92 001c 1460     		str	r4, [r2]
  93              		.loc 3 670 0
  94 001e C462     		str	r4, [r0, #44]
  95              	.LVL5:
  96              	.LBE62:
  97              	.LBE63:
  98              		.loc 1 95 0
  99 0020 07D0     		beq	.L4
 100              	.LVL6:
 101              	.L2:
 102              		.loc 1 98 0
 103 0022 0C20     		movs	r0, #12
 104 0024 FFF7FEFF 		bl	chSchGoSleepS
 105              	.LVL7:
 106              		.loc 1 99 0
 107 0028 206A     		ldr	r0, [r4, #32]
 108              	.LVL8:
 109              	.LBB64:
 110              	.LBB65:
 111              	.LBB66:
 112              	.LBB67:
 113              	.LBB68:
 114              		.loc 2 548 0
ARM GAS  /tmp/ccynz22g.s 			page 3


 115 002a 0023     		movs	r3, #0
 116              	@ 548 "../ChibiOS/os/ext/CMSIS/include/core_cmFunc.h" 1
 117 002c 83F31188 		MSR basepri, r3
 118              	@ 0 "" 2
 119              		.thumb
 120              	.LBE68:
 121              	.LBE67:
 122              	.LBE66:
 123              	.LBE65:
 124              	.LBE64:
 125              		.loc 1 103 0
 126 0030 38BD     		pop	{r3, r4, r5, pc}
 127              	.LVL9:
 128              	.L4:
 129              		.loc 1 96 0
 130 0032 FFF7FEFF 		bl	chSchReadyI
 131              	.LVL10:
 132 0036 F4E7     		b	.L2
 133              	.L6:
 134              		.align	2
 135              	.L5:
 136 0038 00000000 		.word	ch
 137              		.cfi_endproc
 138              	.LFE241:
 139              		.size	chMsgSend, .-chMsgSend
 140 003c AFF30080 		.section	.text.chMsgWait,"ax",%progbits
 141              		.align	2
 142              		.p2align 4,,15
 143              		.global	chMsgWait
 144              		.thumb
 145              		.thumb_func
 146              		.type	chMsgWait, %function
 147              	chMsgWait:
 148              	.LFB242:
 149              		.loc 1 119 0
 150              		.cfi_startproc
 151              		@ args = 0, pretend = 0, frame = 0
 152              		@ frame_needed = 0, uses_anonymous_args = 0
 153              	.LVL11:
 154 0000 10B5     		push	{r4, lr}
 155              		.cfi_def_cfa_offset 8
 156              		.cfi_offset 4, -8
 157              		.cfi_offset 14, -4
 158              	.LBB69:
 159              	.LBB70:
 160              	.LBB71:
 161              	.LBB72:
 162              		.loc 2 548 0
 163 0002 2023     		movs	r3, #32
 164              	@ 548 "../ChibiOS/os/ext/CMSIS/include/core_cmFunc.h" 1
 165 0004 83F31188 		MSR basepri, r3
 166              	@ 0 "" 2
 167              		.thumb
 168              	.LBE72:
 169              	.LBE71:
 170              	.LBE70:
 171              	.LBE69:
ARM GAS  /tmp/ccynz22g.s 			page 4


 172              		.loc 1 123 0
 173 0008 0B4C     		ldr	r4, .L10
 174 000a A269     		ldr	r2, [r4, #24]
 175              	.LVL12:
 176              	.LBB73:
 177              	.LBB74:
 178              		.file 4 "../ChibiOS/os/rt/include/chmsg.h"
 179              		.loc 4 83 0
 180 000c 1346     		mov	r3, r2
 181 000e 53F8280F 		ldr	r0, [r3, #40]!
 182              	.LBE74:
 183              	.LBE73:
 184              		.loc 1 123 0
 185 0012 9842     		cmp	r0, r3
 186 0014 08D0     		beq	.L9
 187              	.LVL13:
 188              	.L8:
 189              	.LBB75:
 190              	.LBB76:
 191              		.loc 3 676 0
 192 0016 0168     		ldr	r1, [r0]
 193 0018 9162     		str	r1, [r2, #40]
 194              	.LBE76:
 195              	.LBE75:
 196              		.loc 1 127 0
 197 001a 0D22     		movs	r2, #13
 198              	.LBB78:
 199              	.LBB77:
 200              		.loc 3 677 0
 201 001c 4B60     		str	r3, [r1, #4]
 202              	.LBE77:
 203              	.LBE78:
 204              	.LBB79:
 205              	.LBB80:
 206              	.LBB81:
 207              	.LBB82:
 208              	.LBB83:
 209              		.loc 2 548 0
 210 001e 0023     		movs	r3, #0
 211              	.LVL14:
 212              	.LBE83:
 213              	.LBE82:
 214              	.LBE81:
 215              	.LBE80:
 216              	.LBE79:
 217              		.loc 1 127 0
 218 0020 0277     		strb	r2, [r0, #28]
 219              	.LVL15:
 220              	.LBB88:
 221              	.LBB87:
 222              	.LBB86:
 223              	.LBB85:
 224              	.LBB84:
 225              		.loc 2 548 0
 226              	@ 548 "../ChibiOS/os/ext/CMSIS/include/core_cmFunc.h" 1
 227 0022 83F31188 		MSR basepri, r3
 228              	@ 0 "" 2
ARM GAS  /tmp/ccynz22g.s 			page 5


 229              		.thumb
 230              	.LBE84:
 231              	.LBE85:
 232              	.LBE86:
 233              	.LBE87:
 234              	.LBE88:
 235              		.loc 1 131 0
 236 0026 10BD     		pop	{r4, pc}
 237              	.LVL16:
 238              	.L9:
 239              		.loc 1 124 0
 240 0028 0E20     		movs	r0, #14
 241 002a FFF7FEFF 		bl	chSchGoSleepS
 242              	.LVL17:
 243 002e A269     		ldr	r2, [r4, #24]
 244 0030 906A     		ldr	r0, [r2, #40]
 245 0032 02F12803 		add	r3, r2, #40
 246 0036 EEE7     		b	.L8
 247              	.L11:
 248              		.align	2
 249              	.L10:
 250 0038 00000000 		.word	ch
 251              		.cfi_endproc
 252              	.LFE242:
 253              		.size	chMsgWait, .-chMsgWait
 254 003c AFF30080 		.section	.text.chMsgRelease,"ax",%progbits
 255              		.align	2
 256              		.p2align 4,,15
 257              		.global	chMsgRelease
 258              		.thumb
 259              		.thumb_func
 260              		.type	chMsgRelease, %function
 261              	chMsgRelease:
 262              	.LFB243:
 263              		.loc 1 143 0
 264              		.cfi_startproc
 265              		@ args = 0, pretend = 0, frame = 0
 266              		@ frame_needed = 0, uses_anonymous_args = 0
 267              	.LVL18:
 268 0000 08B5     		push	{r3, lr}
 269              		.cfi_def_cfa_offset 8
 270              		.cfi_offset 3, -8
 271              		.cfi_offset 14, -4
 272              	.LBB89:
 273              	.LBB90:
 274              	.LBB91:
 275              	.LBB92:
 276              		.loc 2 548 0
 277 0002 2023     		movs	r3, #32
 278              	@ 548 "../ChibiOS/os/ext/CMSIS/include/core_cmFunc.h" 1
 279 0004 83F31188 		MSR basepri, r3
 280              	@ 0 "" 2
 281              	.LVL19:
 282              		.thumb
 283              	.LBE92:
 284              	.LBE91:
 285              	.LBE90:
ARM GAS  /tmp/ccynz22g.s 			page 6


 286              	.LBE89:
 287              	.LBB93:
 288              	.LBB94:
 289              		.loc 4 117 0
 290 0008 FFF7FEFF 		bl	chSchWakeupS
 291              	.LVL20:
 292              	.LBE94:
 293              	.LBE93:
 294              	.LBB95:
 295              	.LBB96:
 296              	.LBB97:
 297              	.LBB98:
 298              	.LBB99:
 299              		.loc 2 548 0
 300 000c 0023     		movs	r3, #0
 301              	@ 548 "../ChibiOS/os/ext/CMSIS/include/core_cmFunc.h" 1
 302 000e 83F31188 		MSR basepri, r3
 303              	@ 0 "" 2
 304              		.thumb
 305 0012 08BD     		pop	{r3, pc}
 306              	.LBE99:
 307              	.LBE98:
 308              	.LBE97:
 309              	.LBE96:
 310              	.LBE95:
 311              		.cfi_endproc
 312              	.LFE243:
 313              		.size	chMsgRelease, .-chMsgRelease
 314 0014 AFF30080 		.text
 314      AFF30080 
 314      AFF30080 
 315              	.Letext0:
 316              		.file 5 "/nfs/nfs5/home/research/hardware/arm2/gcc-arm-embedded/gcc-arm-none-eabi-4_8-2014q2/arm-n
 317              		.file 6 "/nfs/nfs5/home/research/hardware/arm2/gcc-arm-embedded/gcc-arm-none-eabi-4_8-2014q2/arm-n
 318              		.file 7 "../ChibiOS/os/rt/ports/ARMCMx/compilers/GCC/chtypes.h"
 319              		.file 8 "../ChibiOS/os/rt/include/chsystypes.h"
 320              		.file 9 "../ChibiOS/os/rt/ports/ARMCMx/chcore.h"
 321              		.file 10 "../ChibiOS/os/rt/ports/ARMCMx/chcore_v7m.h"
 322              		.file 11 "../ChibiOS/os/rt/include/chtm.h"
 323              		.file 12 "../ChibiOS/os/rt/include/chsem.h"
 324              		.file 13 "../ChibiOS/os/rt/include/chmtx.h"
 325              		.file 14 "../ChibiOS/os/rt/include/chsys.h"
 326              		.file 15 "../ChibiOS/os/ext/CMSIS/include/core_cm4.h"