ARM GAS  /tmp/ccfWD8TF.s 			page 1


   1              		.syntax unified
   2              		.cpu cortex-m4
   3              		.fpu softvfp
   4              		.eabi_attribute 20, 1
   5              		.eabi_attribute 21, 1
   6              		.eabi_attribute 23, 3
   7              		.eabi_attribute 24, 1
   8              		.eabi_attribute 25, 1
   9              		.eabi_attribute 26, 1
  10              		.eabi_attribute 30, 2
  11              		.eabi_attribute 34, 1
  12              		.eabi_attribute 18, 4
  13              		.thumb
  14              		.file	"chqueues.c"
  15              		.text
  16              	.Ltext0:
  17              		.cfi_sections	.debug_frame
  18              		.section	.text.chIQObjectInit,"ax",%progbits
  19              		.align	2
  20              		.p2align 4,,15
  21              		.global	chIQObjectInit
  22              		.thumb
  23              		.thumb_func
  24              		.type	chIQObjectInit, %function
  25              	chIQObjectInit:
  26              	.LFB241:
  27              		.file 1 "../ChibiOS/os/rt/src/chqueues.c"
  28              		.loc 1 88 0
  29              		.cfi_startproc
  30              		@ args = 4, pretend = 0, frame = 0
  31              		@ frame_needed = 0, uses_anonymous_args = 0
  32              		@ link register save eliminated.
  33              	.LVL0:
  34 0000 30B4     		push	{r4, r5}
  35              		.cfi_def_cfa_offset 8
  36              		.cfi_offset 4, -8
  37              		.cfi_offset 5, -4
  38              		.loc 1 88 0
  39 0002 029C     		ldr	r4, [sp, #8]
  40              		.loc 1 97 0
  41 0004 0462     		str	r4, [r0, #32]
  42              		.loc 1 91 0
  43 0006 0025     		movs	r5, #0
  44              		.loc 1 95 0
  45 0008 0A44     		add	r2, r2, r1
  46              	.LVL1:
  47              		.loc 1 91 0
  48 000a 8560     		str	r5, [r0, #8]
  49              		.loc 1 95 0
  50 000c 0261     		str	r2, [r0, #16]
  51              	.LBB108:
  52              	.LBB109:
  53              	.LBB110:
  54              		.file 2 "../ChibiOS/os/rt/include/chschd.h"
  55              		.loc 2 606 0
  56 000e 0060     		str	r0, [r0]
  57              		.loc 2 607 0
ARM GAS  /tmp/ccfWD8TF.s 			page 2


  58 0010 4060     		str	r0, [r0, #4]
  59              	.LBE110:
  60              	.LBE109:
  61              	.LBE108:
  62              		.loc 1 92 0
  63 0012 C160     		str	r1, [r0, #12]
  64              		.loc 1 93 0
  65 0014 8161     		str	r1, [r0, #24]
  66              		.loc 1 94 0
  67 0016 4161     		str	r1, [r0, #20]
  68              		.loc 1 96 0
  69 0018 C361     		str	r3, [r0, #28]
  70              		.loc 1 98 0
  71 001a 30BC     		pop	{r4, r5}
  72              	.LVL2:
  73 001c 7047     		bx	lr
  74              		.cfi_endproc
  75              	.LFE241:
  76              		.size	chIQObjectInit, .-chIQObjectInit
  77 001e 00BF     		.section	.text.chIQResetI,"ax",%progbits
  78              		.align	2
  79              		.p2align 4,,15
  80              		.global	chIQResetI
  81              		.thumb
  82              		.thumb_func
  83              		.type	chIQResetI, %function
  84              	chIQResetI:
  85              	.LFB242:
  86              		.loc 1 111 0
  87              		.cfi_startproc
  88              		@ args = 0, pretend = 0, frame = 0
  89              		@ frame_needed = 0, uses_anonymous_args = 0
  90              		@ link register save eliminated.
  91              	.LVL3:
  92              		.loc 1 117 0
  93 0000 0021     		movs	r1, #0
  94              		.loc 1 115 0
  95 0002 C268     		ldr	r2, [r0, #12]
  96              		.loc 1 117 0
  97 0004 8160     		str	r1, [r0, #8]
  98              		.loc 1 115 0
  99 0006 8261     		str	r2, [r0, #24]
 100              		.loc 1 116 0
 101 0008 4261     		str	r2, [r0, #20]
 102              		.loc 1 118 0
 103 000a 6FF00101 		mvn	r1, #1
 104 000e FFF7FEBF 		b	chThdDequeueAllI
 105              	.LVL4:
 106              		.cfi_endproc
 107              	.LFE242:
 108              		.size	chIQResetI, .-chIQResetI
 109 0012 00BFAFF3 		.section	.text.chIQPutI,"ax",%progbits
 109      0080AFF3 
 109      0080AFF3 
 109      0080
 110              		.align	2
 111              		.p2align 4,,15
ARM GAS  /tmp/ccfWD8TF.s 			page 3


 112              		.global	chIQPutI
 113              		.thumb
 114              		.thumb_func
 115              		.type	chIQPutI, %function
 116              	chIQPutI:
 117              	.LFB243:
 118              		.loc 1 134 0
 119              		.cfi_startproc
 120              		@ args = 0, pretend = 0, frame = 0
 121              		@ frame_needed = 0, uses_anonymous_args = 0
 122              	.LVL5:
 123              	.LBB111:
 124              	.LBB112:
 125              		.file 3 "../ChibiOS/os/rt/include/chqueues.h"
 126              		.loc 3 325 0
 127 0000 4369     		ldr	r3, [r0, #20]
 128 0002 8269     		ldr	r2, [r0, #24]
 129 0004 9342     		cmp	r3, r2
 130              	.LBE112:
 131              	.LBE111:
 132              		.loc 1 134 0
 133 0006 10B5     		push	{r4, lr}
 134              		.cfi_def_cfa_offset 8
 135              		.cfi_offset 4, -8
 136              		.cfi_offset 14, -4
 137              	.LBB115:
 138              	.LBB113:
 139              		.loc 3 325 0
 140 0008 10D0     		beq	.L11
 141              	.L4:
 142              	.LBE113:
 143              	.LBE115:
 144              		.loc 1 142 0
 145 000a 8468     		ldr	r4, [r0, #8]
 146              		.loc 1 143 0
 147 000c 5A1C     		adds	r2, r3, #1
 148              		.loc 1 142 0
 149 000e 0134     		adds	r4, r4, #1
 150              		.loc 1 143 0
 151 0010 4261     		str	r2, [r0, #20]
 152              		.loc 1 142 0
 153 0012 8460     		str	r4, [r0, #8]
 154              		.loc 1 143 0
 155 0014 1970     		strb	r1, [r3]
 156              		.loc 1 144 0
 157 0016 4269     		ldr	r2, [r0, #20]
 158 0018 0369     		ldr	r3, [r0, #16]
 159 001a 9A42     		cmp	r2, r3
 160 001c 01D3     		bcc	.L7
 161              		.loc 1 145 0
 162 001e C368     		ldr	r3, [r0, #12]
 163 0020 4361     		str	r3, [r0, #20]
 164              	.L7:
 165              		.loc 1 148 0
 166 0022 0021     		movs	r1, #0
 167              	.LVL6:
 168 0024 FFF7FEFF 		bl	chThdDequeueNextI
ARM GAS  /tmp/ccfWD8TF.s 			page 4


 169              	.LVL7:
 170              		.loc 1 150 0
 171 0028 0020     		movs	r0, #0
 172 002a 10BD     		pop	{r4, pc}
 173              	.LVL8:
 174              	.L11:
 175              	.LBB116:
 176              	.LBB114:
 177              		.loc 3 325 0
 178 002c 8268     		ldr	r2, [r0, #8]
 179 002e 002A     		cmp	r2, #0
 180 0030 EBD0     		beq	.L4
 181              	.LBE114:
 182              	.LBE116:
 183              		.loc 1 139 0
 184 0032 6FF00300 		mvn	r0, #3
 185              	.LVL9:
 186 0036 10BD     		pop	{r4, pc}
 187              		.cfi_endproc
 188              	.LFE243:
 189              		.size	chIQPutI, .-chIQPutI
 190 0038 AFF30080 		.section	.text.chIQGetTimeout,"ax",%progbits
 190      AFF30080 
 191              		.align	2
 192              		.p2align 4,,15
 193              		.global	chIQGetTimeout
 194              		.thumb
 195              		.thumb_func
 196              		.type	chIQGetTimeout, %function
 197              	chIQGetTimeout:
 198              	.LFB244:
 199              		.loc 1 173 0
 200              		.cfi_startproc
 201              		@ args = 0, pretend = 0, frame = 0
 202              		@ frame_needed = 0, uses_anonymous_args = 0
 203              	.LVL10:
 204 0000 70B5     		push	{r4, r5, r6, lr}
 205              		.cfi_def_cfa_offset 16
 206              		.cfi_offset 4, -16
 207              		.cfi_offset 5, -12
 208              		.cfi_offset 6, -8
 209              		.cfi_offset 14, -4
 210              	.LBB117:
 211              	.LBB118:
 212              	.LBB119:
 213              	.LBB120:
 214              		.file 4 "../ChibiOS/os/ext/CMSIS/include/core_cmFunc.h"
 215              		.loc 4 548 0
 216 0002 2023     		movs	r3, #32
 217              	.LBE120:
 218              	.LBE119:
 219              	.LBE118:
 220              	.LBE117:
 221              		.loc 1 173 0
 222 0004 0E46     		mov	r6, r1
 223 0006 0446     		mov	r4, r0
 224              	.LBB124:
ARM GAS  /tmp/ccfWD8TF.s 			page 5


 225              	.LBB123:
 226              	.LBB122:
 227              	.LBB121:
 228              		.loc 4 548 0
 229              	@ 548 "../ChibiOS/os/ext/CMSIS/include/core_cmFunc.h" 1
 230 0008 83F31188 		MSR basepri, r3
 231              	@ 0 "" 2
 232              		.thumb
 233              	.LBE121:
 234              	.LBE122:
 235              	.LBE123:
 236              	.LBE124:
 237              		.loc 1 177 0
 238 000c C369     		ldr	r3, [r0, #28]
 239 000e 2BB1     		cbz	r3, .L15
 240              		.loc 1 178 0
 241 0010 9847     		blx	r3
 242              	.LVL11:
 243 0012 03E0     		b	.L15
 244              	.LVL12:
 245              	.L17:
 246              	.LBB125:
 247              		.loc 1 182 0
 248 0014 FFF7FEFF 		bl	chThdEnqueueTimeoutS
 249              	.LVL13:
 250              		.loc 1 183 0
 251 0018 0028     		cmp	r0, #0
 252 001a 16DB     		blt	.L22
 253              	.LVL14:
 254              	.L15:
 255              	.LBE125:
 256              	.LBB131:
 257              	.LBB132:
 258              		.loc 3 307 0 discriminator 1
 259 001c A568     		ldr	r5, [r4, #8]
 260              	.LBE132:
 261              	.LBE131:
 262              	.LBB133:
 263              		.loc 1 182 0 discriminator 1
 264 001e 2046     		mov	r0, r4
 265 0020 3146     		mov	r1, r6
 266              	.LBE133:
 267              		.loc 1 181 0 discriminator 1
 268 0022 002D     		cmp	r5, #0
 269 0024 F6D0     		beq	.L17
 270              	.LVL15:
 271              		.loc 1 190 0
 272 0026 A269     		ldr	r2, [r4, #24]
 273              		.loc 1 189 0
 274 0028 A068     		ldr	r0, [r4, #8]
 275              	.LVL16:
 276              		.loc 1 191 0
 277 002a 2169     		ldr	r1, [r4, #16]
 278              	.LVL17:
 279              		.loc 1 190 0
 280 002c 531C     		adds	r3, r2, #1
 281              		.loc 1 191 0
ARM GAS  /tmp/ccfWD8TF.s 			page 6


 282 002e 8B42     		cmp	r3, r1
 283              		.loc 1 189 0
 284 0030 00F1FF30 		add	r0, r0, #-1
 285              		.loc 1 190 0
 286 0034 A361     		str	r3, [r4, #24]
 287              		.loc 1 189 0
 288 0036 A060     		str	r0, [r4, #8]
 289              		.loc 1 192 0
 290 0038 28BF     		it	cs
 291 003a E368     		ldrcs	r3, [r4, #12]
 292              		.loc 1 190 0
 293 003c 1078     		ldrb	r0, [r2]	@ zero_extendqisi2
 294              	.LVL18:
 295              		.loc 1 192 0
 296 003e 28BF     		it	cs
 297 0040 A361     		strcs	r3, [r4, #24]
 298              	.LVL19:
 299              	.LBB134:
 300              	.LBB135:
 301              	.LBB136:
 302              	.LBB137:
 303              	.LBB138:
 304              		.loc 4 548 0
 305 0042 0023     		movs	r3, #0
 306              	@ 548 "../ChibiOS/os/ext/CMSIS/include/core_cmFunc.h" 1
 307 0044 83F31188 		MSR basepri, r3
 308              	@ 0 "" 2
 309              		.thumb
 310              	.LBE138:
 311              	.LBE137:
 312              	.LBE136:
 313              	.LBE135:
 314              	.LBE134:
 315              		.loc 1 197 0
 316 0048 70BD     		pop	{r4, r5, r6, pc}
 317              	.LVL20:
 318              	.L22:
 319              	.LBB139:
 320              	.LBB126:
 321              	.LBB127:
 322              	.LBB128:
 323              	.LBB129:
 324              	.LBB130:
 325              		.loc 4 548 0
 326              	@ 548 "../ChibiOS/os/ext/CMSIS/include/core_cmFunc.h" 1
 327 004a 85F31188 		MSR basepri, r5
 328              	@ 0 "" 2
 329              		.thumb
 330              	.LBE130:
 331              	.LBE129:
 332              	.LBE128:
 333              	.LBE127:
 334              	.LBE126:
 335              		.loc 1 185 0
 336 004e 70BD     		pop	{r4, r5, r6, pc}
 337              	.LBE139:
 338              		.cfi_endproc
ARM GAS  /tmp/ccfWD8TF.s 			page 7


 339              	.LFE244:
 340              		.size	chIQGetTimeout, .-chIQGetTimeout
 341              		.section	.text.chIQReadTimeout,"ax",%progbits
 342              		.align	2
 343              		.p2align 4,,15
 344              		.global	chIQReadTimeout
 345              		.thumb
 346              		.thumb_func
 347              		.type	chIQReadTimeout, %function
 348              	chIQReadTimeout:
 349              	.LFB245:
 350              		.loc 1 224 0
 351              		.cfi_startproc
 352              		@ args = 0, pretend = 0, frame = 0
 353              		@ frame_needed = 0, uses_anonymous_args = 0
 354              	.LVL21:
 355 0000 2DE9F84F 		push	{r3, r4, r5, r6, r7, r8, r9, r10, fp, lr}
 356              		.cfi_def_cfa_offset 40
 357              		.cfi_offset 3, -40
 358              		.cfi_offset 4, -36
 359              		.cfi_offset 5, -32
 360              		.cfi_offset 6, -28
 361              		.cfi_offset 7, -24
 362              		.cfi_offset 8, -20
 363              		.cfi_offset 9, -16
 364              		.cfi_offset 10, -12
 365              		.cfi_offset 11, -8
 366              		.cfi_offset 14, -4
 367              		.loc 1 224 0
 368 0004 0446     		mov	r4, r0
 369 0006 1D46     		mov	r5, r3
 370              		.loc 1 225 0
 371 0008 D0F81C80 		ldr	r8, [r0, #28]
 372              	.LVL22:
 373              	.LBB140:
 374              	.LBB141:
 375              	.LBB142:
 376              	.LBB143:
 377              		.loc 4 548 0
 378 000c 4FF0200B 		mov	fp, #32
 379              	@ 548 "../ChibiOS/os/ext/CMSIS/include/core_cmFunc.h" 1
 380 0010 8BF31188 		MSR basepri, fp
 381              	@ 0 "" 2
 382              		.thumb
 383              	.LBE143:
 384              	.LBE142:
 385              	.LBE141:
 386              	.LBE140:
 387              		.loc 1 226 0
 388 0014 0026     		movs	r6, #0
 389 0016 01EB020A 		add	r10, r1, r2
 390 001a 01F10109 		add	r9, r1, #1
 391              	.LVL23:
 392              	.L30:
 393              		.loc 1 232 0
 394 001e B8F1000F 		cmp	r8, #0
 395 0022 05D0     		beq	.L26
ARM GAS  /tmp/ccfWD8TF.s 			page 8


 396              		.loc 1 233 0
 397 0024 2046     		mov	r0, r4
 398              	.LVL24:
 399 0026 C047     		blx	r8
 400              	.LVL25:
 401 0028 02E0     		b	.L26
 402              	.LVL26:
 403              	.L28:
 404              		.loc 1 237 0
 405 002a FFF7FEFF 		bl	chThdEnqueueTimeoutS
 406              	.LVL27:
 407 002e F8B9     		cbnz	r0, .L34
 408              	.LVL28:
 409              	.L26:
 410              	.LBB144:
 411              	.LBB145:
 412              		.loc 3 307 0 discriminator 1
 413 0030 A768     		ldr	r7, [r4, #8]
 414              	.LBE145:
 415              	.LBE144:
 416              		.loc 1 237 0 discriminator 1
 417 0032 2046     		mov	r0, r4
 418 0034 2946     		mov	r1, r5
 419              		.loc 1 236 0 discriminator 1
 420 0036 002F     		cmp	r7, #0
 421 0038 F7D0     		beq	.L28
 422              	.LVL29:
 423              		.loc 1 244 0
 424 003a A369     		ldr	r3, [r4, #24]
 425              		.loc 1 243 0
 426 003c A168     		ldr	r1, [r4, #8]
 427              	.LVL30:
 428              		.loc 1 244 0
 429 003e 5A1C     		adds	r2, r3, #1
 430              		.loc 1 243 0
 431 0040 0139     		subs	r1, r1, #1
 432              		.loc 1 244 0
 433 0042 A261     		str	r2, [r4, #24]
 434              		.loc 1 243 0
 435 0044 A160     		str	r1, [r4, #8]
 436              	.LVL31:
 437              		.loc 1 244 0
 438 0046 1B78     		ldrb	r3, [r3]	@ zero_extendqisi2
 439 0048 09F8013C 		strb	r3, [r9, #-1]
 440              		.loc 1 245 0
 441 004c 2369     		ldr	r3, [r4, #16]
 442 004e A269     		ldr	r2, [r4, #24]
 443 0050 9A42     		cmp	r2, r3
 444              		.loc 1 246 0
 445 0052 24BF     		itt	cs
 446 0054 E368     		ldrcs	r3, [r4, #12]
 447 0056 A361     		strcs	r3, [r4, #24]
 448              	.LVL32:
 449              	.LBB146:
 450              	.LBB147:
 451              	.LBB148:
 452              	.LBB149:
ARM GAS  /tmp/ccfWD8TF.s 			page 9


 453              	.LBB150:
 454              		.loc 4 548 0
 455 0058 0023     		movs	r3, #0
 456              	@ 548 "../ChibiOS/os/ext/CMSIS/include/core_cmFunc.h" 1
 457 005a 83F31188 		MSR basepri, r3
 458              	@ 0 "" 2
 459              		.thumb
 460              	.LBE150:
 461              	.LBE149:
 462              	.LBE148:
 463              	.LBE147:
 464              	.LBE146:
 465              		.loc 1 251 0
 466 005e D145     		cmp	r9, r10
 467              		.loc 1 250 0
 468 0060 06F10106 		add	r6, r6, #1
 469              	.LVL33:
 470              		.loc 1 251 0
 471 0064 06D0     		beq	.L27
 472              	.LVL34:
 473              	.LBB151:
 474              	.LBB152:
 475              	.LBB153:
 476              	.LBB154:
 477              		.loc 4 548 0
 478              	@ 548 "../ChibiOS/os/ext/CMSIS/include/core_cmFunc.h" 1
 479 0066 8BF31188 		MSR basepri, fp
 480              	@ 0 "" 2
 481              		.thumb
 482 006a 09F10109 		add	r9, r9, #1
 483 006e D6E7     		b	.L30
 484              	.LVL35:
 485              	.L34:
 486              	.LBE154:
 487              	.LBE153:
 488              	.LBE152:
 489              	.LBE151:
 490              	.LBB155:
 491              	.LBB156:
 492              	.LBB157:
 493              	.LBB158:
 494              	.LBB159:
 495              	@ 548 "../ChibiOS/os/ext/CMSIS/include/core_cmFunc.h" 1
 496 0070 87F31188 		MSR basepri, r7
 497              	@ 0 "" 2
 498              	.LVL36:
 499              		.thumb
 500              	.L27:
 501              	.LBE159:
 502              	.LBE158:
 503              	.LBE157:
 504              	.LBE156:
 505              	.LBE155:
 506              		.loc 1 257 0
 507 0074 3046     		mov	r0, r6
 508 0076 BDE8F88F 		pop	{r3, r4, r5, r6, r7, r8, r9, r10, fp, pc}
 509              		.cfi_endproc
ARM GAS  /tmp/ccfWD8TF.s 			page 10


 510              	.LFE245:
 511              		.size	chIQReadTimeout, .-chIQReadTimeout
 512 007a 00BFAFF3 		.section	.text.chOQObjectInit,"ax",%progbits
 512      0080
 513              		.align	2
 514              		.p2align 4,,15
 515              		.global	chOQObjectInit
 516              		.thumb
 517              		.thumb_func
 518              		.type	chOQObjectInit, %function
 519              	chOQObjectInit:
 520              	.LFB246:
 521              		.loc 1 276 0
 522              		.cfi_startproc
 523              		@ args = 4, pretend = 0, frame = 0
 524              		@ frame_needed = 0, uses_anonymous_args = 0
 525              		@ link register save eliminated.
 526              	.LVL37:
 527 0000 30B4     		push	{r4, r5}
 528              		.cfi_def_cfa_offset 8
 529              		.cfi_offset 4, -8
 530              		.cfi_offset 5, -4
 531              		.loc 1 276 0
 532 0002 029C     		ldr	r4, [sp, #8]
 533              		.loc 1 285 0
 534 0004 0462     		str	r4, [r0, #32]
 535              		.loc 1 283 0
 536 0006 8D18     		adds	r5, r1, r2
 537 0008 0561     		str	r5, [r0, #16]
 538              	.LBB160:
 539              	.LBB161:
 540              	.LBB162:
 541              		.loc 2 606 0
 542 000a 0060     		str	r0, [r0]
 543              		.loc 2 607 0
 544 000c 4060     		str	r0, [r0, #4]
 545              	.LBE162:
 546              	.LBE161:
 547              	.LBE160:
 548              		.loc 1 279 0
 549 000e 8260     		str	r2, [r0, #8]
 550              		.loc 1 280 0
 551 0010 C160     		str	r1, [r0, #12]
 552              		.loc 1 281 0
 553 0012 8161     		str	r1, [r0, #24]
 554              		.loc 1 282 0
 555 0014 4161     		str	r1, [r0, #20]
 556              		.loc 1 284 0
 557 0016 C361     		str	r3, [r0, #28]
 558              		.loc 1 286 0
 559 0018 30BC     		pop	{r4, r5}
 560              	.LVL38:
 561 001a 7047     		bx	lr
 562              		.cfi_endproc
 563              	.LFE246:
 564              		.size	chOQObjectInit, .-chOQObjectInit
 565 001c AFF30080 		.section	.text.chOQResetI,"ax",%progbits
ARM GAS  /tmp/ccfWD8TF.s 			page 11


 566              		.align	2
 567              		.p2align 4,,15
 568              		.global	chOQResetI
 569              		.thumb
 570              		.thumb_func
 571              		.type	chOQResetI, %function
 572              	chOQResetI:
 573              	.LFB247:
 574              		.loc 1 299 0
 575              		.cfi_startproc
 576              		@ args = 0, pretend = 0, frame = 0
 577              		@ frame_needed = 0, uses_anonymous_args = 0
 578              		@ link register save eliminated.
 579              	.LVL39:
 580              		.loc 1 303 0
 581 0000 C268     		ldr	r2, [r0, #12]
 582 0002 8261     		str	r2, [r0, #24]
 583              		.loc 1 299 0
 584 0004 10B4     		push	{r4}
 585              		.cfi_def_cfa_offset 4
 586              		.cfi_offset 4, -4
 587              		.loc 1 305 0
 588 0006 0469     		ldr	r4, [r0, #16]
 589              		.loc 1 304 0
 590 0008 4261     		str	r2, [r0, #20]
 591              		.loc 1 305 0
 592 000a A41A     		subs	r4, r4, r2
 593 000c 8460     		str	r4, [r0, #8]
 594              		.loc 1 306 0
 595 000e 6FF00101 		mvn	r1, #1
 596              		.loc 1 307 0
 597 0012 5DF8044B 		ldr	r4, [sp], #4
 598              		.loc 1 306 0
 599 0016 FFF7FEBF 		b	chThdDequeueAllI
 600              	.LVL40:
 601              		.cfi_endproc
 602              	.LFE247:
 603              		.size	chOQResetI, .-chOQResetI
 604 001a 00BFAFF3 		.section	.text.chOQPutTimeout,"ax",%progbits
 604      0080
 605              		.align	2
 606              		.p2align 4,,15
 607              		.global	chOQPutTimeout
 608              		.thumb
 609              		.thumb_func
 610              		.type	chOQPutTimeout, %function
 611              	chOQPutTimeout:
 612              	.LFB248:
 613              		.loc 1 331 0
 614              		.cfi_startproc
 615              		@ args = 0, pretend = 0, frame = 0
 616              		@ frame_needed = 0, uses_anonymous_args = 0
 617              	.LVL41:
 618 0000 F8B5     		push	{r3, r4, r5, r6, r7, lr}
 619              		.cfi_def_cfa_offset 24
 620              		.cfi_offset 3, -24
 621              		.cfi_offset 4, -20
ARM GAS  /tmp/ccfWD8TF.s 			page 12


 622              		.cfi_offset 5, -16
 623              		.cfi_offset 6, -12
 624              		.cfi_offset 7, -8
 625              		.cfi_offset 14, -4
 626              		.loc 1 331 0
 627 0002 0446     		mov	r4, r0
 628 0004 0F46     		mov	r7, r1
 629 0006 1646     		mov	r6, r2
 630              	.LBB163:
 631              	.LBB164:
 632              	.LBB165:
 633              	.LBB166:
 634              		.loc 4 548 0
 635 0008 2023     		movs	r3, #32
 636              	@ 548 "../ChibiOS/os/ext/CMSIS/include/core_cmFunc.h" 1
 637 000a 83F31188 		MSR basepri, r3
 638              	@ 0 "" 2
 639              		.thumb
 640 000e 03E0     		b	.L38
 641              	.LVL42:
 642              	.L41:
 643              	.LBE166:
 644              	.LBE165:
 645              	.LBE164:
 646              	.LBE163:
 647              	.LBB167:
 648              		.loc 1 335 0
 649 0010 FFF7FEFF 		bl	chThdEnqueueTimeoutS
 650              	.LVL43:
 651              		.loc 1 336 0
 652 0014 0028     		cmp	r0, #0
 653 0016 19DB     		blt	.L47
 654              	.LVL44:
 655              	.L38:
 656              	.LBE167:
 657              	.LBB173:
 658              	.LBB174:
 659              		.loc 3 411 0 discriminator 1
 660 0018 A568     		ldr	r5, [r4, #8]
 661              	.LBE174:
 662              	.LBE173:
 663              	.LBB175:
 664              		.loc 1 335 0 discriminator 1
 665 001a 2046     		mov	r0, r4
 666 001c 3146     		mov	r1, r6
 667              	.LBE175:
 668              		.loc 1 334 0 discriminator 1
 669 001e 002D     		cmp	r5, #0
 670 0020 F6D0     		beq	.L41
 671              	.LVL45:
 672              		.loc 1 343 0
 673 0022 6369     		ldr	r3, [r4, #20]
 674              		.loc 1 342 0
 675 0024 A168     		ldr	r1, [r4, #8]
 676              	.LVL46:
 677              		.loc 1 343 0
 678 0026 5A1C     		adds	r2, r3, #1
ARM GAS  /tmp/ccfWD8TF.s 			page 13


 679              		.loc 1 342 0
 680 0028 0139     		subs	r1, r1, #1
 681              		.loc 1 343 0
 682 002a 6261     		str	r2, [r4, #20]
 683              		.loc 1 342 0
 684 002c A160     		str	r1, [r4, #8]
 685              		.loc 1 343 0
 686 002e 1F70     		strb	r7, [r3]
 687              		.loc 1 344 0
 688 0030 2369     		ldr	r3, [r4, #16]
 689 0032 6269     		ldr	r2, [r4, #20]
 690 0034 9A42     		cmp	r2, r3
 691              		.loc 1 345 0
 692 0036 24BF     		itt	cs
 693 0038 E368     		ldrcs	r3, [r4, #12]
 694 003a 6361     		strcs	r3, [r4, #20]
 695              		.loc 1 348 0
 696 003c E369     		ldr	r3, [r4, #28]
 697 003e 0BB1     		cbz	r3, .L43
 698              		.loc 1 349 0
 699 0040 2046     		mov	r0, r4
 700              	.LVL47:
 701 0042 9847     		blx	r3
 702              	.LVL48:
 703              	.L43:
 704              	.LBB176:
 705              	.LBB177:
 706              	.LBB178:
 707              	.LBB179:
 708              	.LBB180:
 709              		.loc 4 548 0
 710 0044 0020     		movs	r0, #0
 711              	@ 548 "../ChibiOS/os/ext/CMSIS/include/core_cmFunc.h" 1
 712 0046 80F31188 		MSR basepri, r0
 713              	@ 0 "" 2
 714              		.thumb
 715              	.LBE180:
 716              	.LBE179:
 717              	.LBE178:
 718              	.LBE177:
 719              	.LBE176:
 720              		.loc 1 354 0
 721 004a F8BD     		pop	{r3, r4, r5, r6, r7, pc}
 722              	.LVL49:
 723              	.L47:
 724              	.LBB181:
 725              	.LBB168:
 726              	.LBB169:
 727              	.LBB170:
 728              	.LBB171:
 729              	.LBB172:
 730              		.loc 4 548 0
 731              	@ 548 "../ChibiOS/os/ext/CMSIS/include/core_cmFunc.h" 1
 732 004c 85F31188 		MSR basepri, r5
 733              	@ 0 "" 2
 734              		.thumb
 735              	.LBE172:
ARM GAS  /tmp/ccfWD8TF.s 			page 14


 736              	.LBE171:
 737              	.LBE170:
 738              	.LBE169:
 739              	.LBE168:
 740              		.loc 1 338 0
 741 0050 F8BD     		pop	{r3, r4, r5, r6, r7, pc}
 742              	.LBE181:
 743              		.cfi_endproc
 744              	.LFE248:
 745              		.size	chOQPutTimeout, .-chOQPutTimeout
 746 0052 00BFAFF3 		.section	.text.chOQGetI,"ax",%progbits
 746      0080AFF3 
 746      0080AFF3 
 746      0080
 747              		.align	2
 748              		.p2align 4,,15
 749              		.global	chOQGetI
 750              		.thumb
 751              		.thumb_func
 752              		.type	chOQGetI, %function
 753              	chOQGetI:
 754              	.LFB249:
 755              		.loc 1 366 0
 756              		.cfi_startproc
 757              		@ args = 0, pretend = 0, frame = 0
 758              		@ frame_needed = 0, uses_anonymous_args = 0
 759              	.LVL50:
 760              	.LBB182:
 761              	.LBB183:
 762              		.loc 3 393 0
 763 0000 8369     		ldr	r3, [r0, #24]
 764 0002 4269     		ldr	r2, [r0, #20]
 765 0004 9A42     		cmp	r2, r3
 766              	.LBE183:
 767              	.LBE182:
 768              		.loc 1 366 0
 769 0006 10B5     		push	{r4, lr}
 770              		.cfi_def_cfa_offset 8
 771              		.cfi_offset 4, -8
 772              		.cfi_offset 14, -4
 773              	.LBB186:
 774              	.LBB184:
 775              		.loc 3 393 0
 776 0008 0FD0     		beq	.L55
 777              	.L49:
 778              	.LBE184:
 779              	.LBE186:
 780              		.loc 1 375 0
 781 000a 8468     		ldr	r4, [r0, #8]
 782              		.loc 1 377 0
 783 000c 0169     		ldr	r1, [r0, #16]
 784              		.loc 1 375 0
 785 000e 0134     		adds	r4, r4, #1
 786              		.loc 1 376 0
 787 0010 5A1C     		adds	r2, r3, #1
 788              		.loc 1 375 0
 789 0012 8460     		str	r4, [r0, #8]
ARM GAS  /tmp/ccfWD8TF.s 			page 15


 790              		.loc 1 376 0
 791 0014 8261     		str	r2, [r0, #24]
 792              		.loc 1 377 0
 793 0016 8A42     		cmp	r2, r1
 794              		.loc 1 376 0
 795 0018 1C78     		ldrb	r4, [r3]	@ zero_extendqisi2
 796              	.LVL51:
 797              		.loc 1 377 0
 798 001a 01D3     		bcc	.L52
 799              		.loc 1 378 0
 800 001c C368     		ldr	r3, [r0, #12]
 801              	.LVL52:
 802 001e 8361     		str	r3, [r0, #24]
 803              	.LVL53:
 804              	.L52:
 805              		.loc 1 381 0
 806 0020 0021     		movs	r1, #0
 807 0022 FFF7FEFF 		bl	chThdDequeueNextI
 808              	.LVL54:
 809              		.loc 1 383 0
 810 0026 2046     		mov	r0, r4
 811 0028 10BD     		pop	{r4, pc}
 812              	.LVL55:
 813              	.L55:
 814              	.LBB187:
 815              	.LBB185:
 816              		.loc 3 393 0
 817 002a 8268     		ldr	r2, [r0, #8]
 818 002c 002A     		cmp	r2, #0
 819 002e ECD0     		beq	.L49
 820              	.LBE185:
 821              	.LBE187:
 822              		.loc 1 372 0
 823 0030 6FF00200 		mvn	r0, #2
 824              	.LVL56:
 825 0034 10BD     		pop	{r4, pc}
 826              		.cfi_endproc
 827              	.LFE249:
 828              		.size	chOQGetI, .-chOQGetI
 829 0036 00BFAFF3 		.section	.text.chOQWriteTimeout,"ax",%progbits
 829      0080AFF3 
 829      0080
 830              		.align	2
 831              		.p2align 4,,15
 832              		.global	chOQWriteTimeout
 833              		.thumb
 834              		.thumb_func
 835              		.type	chOQWriteTimeout, %function
 836              	chOQWriteTimeout:
 837              	.LFB250:
 838              		.loc 1 411 0
 839              		.cfi_startproc
 840              		@ args = 0, pretend = 0, frame = 8
 841              		@ frame_needed = 0, uses_anonymous_args = 0
 842              	.LVL57:
 843 0000 2DE9F04F 		push	{r4, r5, r6, r7, r8, r9, r10, fp, lr}
 844              		.cfi_def_cfa_offset 36
ARM GAS  /tmp/ccfWD8TF.s 			page 16


 845              		.cfi_offset 4, -36
 846              		.cfi_offset 5, -32
 847              		.cfi_offset 6, -28
 848              		.cfi_offset 7, -24
 849              		.cfi_offset 8, -20
 850              		.cfi_offset 9, -16
 851              		.cfi_offset 10, -12
 852              		.cfi_offset 11, -8
 853              		.cfi_offset 14, -4
 854 0004 83B0     		sub	sp, sp, #12
 855              		.cfi_def_cfa_offset 48
 856              		.loc 1 411 0
 857 0006 0446     		mov	r4, r0
 858 0008 0D46     		mov	r5, r1
 859 000a 1646     		mov	r6, r2
 860 000c 0193     		str	r3, [sp, #4]
 861              		.loc 1 412 0
 862 000e D0F81C80 		ldr	r8, [r0, #28]
 863              	.LVL58:
 864              	.LBB188:
 865              	.LBB189:
 866              	.LBB190:
 867              	.LBB191:
 868              		.loc 4 548 0
 869 0012 4FF0200A 		mov	r10, #32
 870              	@ 548 "../ChibiOS/os/ext/CMSIS/include/core_cmFunc.h" 1
 871 0016 8AF31188 		MSR basepri, r10
 872              	@ 0 "" 2
 873              		.thumb
 874              	.LBE191:
 875              	.LBE190:
 876              	.LBE189:
 877              	.LBE188:
 878              		.loc 1 413 0
 879 001a 0027     		movs	r7, #0
 880              	.LBB192:
 881              	.LBB193:
 882              	.LBB194:
 883              	.LBB195:
 884              	.LBB196:
 885              		.loc 4 548 0
 886 001c B946     		mov	r9, r7
 887              	.LVL59:
 888              	.L57:
 889              	.LBE196:
 890              	.LBE195:
 891              	.LBE194:
 892              	.LBE193:
 893              	.LBE192:
 894              	.LBB201:
 895              	.LBB202:
 896              		.loc 3 411 0 discriminator 1
 897 001e A368     		ldr	r3, [r4, #8]
 898              	.LBE202:
 899              	.LBE201:
 900              		.loc 1 427 0 discriminator 1
 901 0020 05F1010B 		add	fp, r5, #1
ARM GAS  /tmp/ccfWD8TF.s 			page 17


 902              	.LVL60:
 903              		.loc 1 433 0 discriminator 1
 904 0024 2046     		mov	r0, r4
 905              		.loc 1 419 0 discriminator 1
 906 0026 03B3     		cbz	r3, .L60
 907              	.LVL61:
 908              	.L72:
 909              		.loc 1 427 0
 910 0028 6369     		ldr	r3, [r4, #20]
 911              		.loc 1 426 0
 912 002a A168     		ldr	r1, [r4, #8]
 913 002c 4A1E     		subs	r2, r1, #1
 914              		.loc 1 427 0
 915 002e 591C     		adds	r1, r3, #1
 916 0030 6161     		str	r1, [r4, #20]
 917              		.loc 1 426 0
 918 0032 A260     		str	r2, [r4, #8]
 919              		.loc 1 427 0
 920 0034 2978     		ldrb	r1, [r5]	@ zero_extendqisi2
 921 0036 1970     		strb	r1, [r3]
 922              		.loc 1 428 0
 923 0038 2369     		ldr	r3, [r4, #16]
 924 003a 6169     		ldr	r1, [r4, #20]
 925 003c 9942     		cmp	r1, r3
 926              		.loc 1 429 0
 927 003e 24BF     		itt	cs
 928 0040 E368     		ldrcs	r3, [r4, #12]
 929 0042 6361     		strcs	r3, [r4, #20]
 930              		.loc 1 432 0
 931 0044 B8F1000F 		cmp	r8, #0
 932 0048 00D0     		beq	.L62
 933              		.loc 1 433 0
 934 004a C047     		blx	r8
 935              	.LVL62:
 936              	.L62:
 937              	.LBB204:
 938              	.LBB200:
 939              	.LBB199:
 940              	.LBB198:
 941              	.LBB197:
 942              		.loc 4 548 0
 943              	@ 548 "../ChibiOS/os/ext/CMSIS/include/core_cmFunc.h" 1
 944 004c 89F31188 		MSR basepri, r9
 945              	@ 0 "" 2
 946              	.LVL63:
 947              		.thumb
 948              	.LBE197:
 949              	.LBE198:
 950              	.LBE199:
 951              	.LBE200:
 952              	.LBE204:
 953              		.loc 1 438 0
 954 0050 013E     		subs	r6, r6, #1
 955              	.LVL64:
 956              		.loc 1 437 0
 957 0052 07F10107 		add	r7, r7, #1
 958              	.LVL65:
ARM GAS  /tmp/ccfWD8TF.s 			page 18


 959              		.loc 1 438 0
 960 0056 12D0     		beq	.L59
 961              	.LBB205:
 962              	.LBB206:
 963              	.LBB207:
 964              	.LBB208:
 965              		.loc 4 548 0
 966              	@ 548 "../ChibiOS/os/ext/CMSIS/include/core_cmFunc.h" 1
 967 0058 8AF31188 		MSR basepri, r10
 968              	@ 0 "" 2
 969              		.thumb
 970              	.LBE208:
 971              	.LBE207:
 972              	.LBE206:
 973              	.LBE205:
 974              	.LBB209:
 975              	.LBB203:
 976              		.loc 3 411 0
 977 005c A368     		ldr	r3, [r4, #8]
 978              	.LBE203:
 979              	.LBE209:
 980              		.loc 1 427 0
 981 005e 5D46     		mov	r5, fp
 982              	.LVL66:
 983 0060 05F1010B 		add	fp, r5, #1
 984              	.LVL67:
 985              		.loc 1 433 0
 986 0064 2046     		mov	r0, r4
 987              		.loc 1 419 0
 988 0066 002B     		cmp	r3, #0
 989 0068 DED1     		bne	.L72
 990              	.LVL68:
 991              	.L60:
 992              		.loc 1 420 0
 993 006a 2046     		mov	r0, r4
 994              	.LVL69:
 995 006c 0199     		ldr	r1, [sp, #4]
 996 006e 0093     		str	r3, [sp]
 997 0070 FFF7FEFF 		bl	chThdEnqueueTimeoutS
 998              	.LVL70:
 999 0074 009B     		ldr	r3, [sp]
 1000 0076 0028     		cmp	r0, #0
 1001 0078 D1D0     		beq	.L57
 1002              	.LVL71:
 1003              	.LBB210:
 1004              	.LBB211:
 1005              	.LBB212:
 1006              	.LBB213:
 1007              	.LBB214:
 1008              		.loc 4 548 0
 1009              	@ 548 "../ChibiOS/os/ext/CMSIS/include/core_cmFunc.h" 1
 1010 007a 83F31188 		MSR basepri, r3
 1011              	@ 0 "" 2
 1012              	.LVL72:
 1013              		.thumb
 1014              	.L59:
 1015              	.LBE214:
ARM GAS  /tmp/ccfWD8TF.s 			page 19


 1016              	.LBE213:
 1017              	.LBE212:
 1018              	.LBE211:
 1019              	.LBE210:
 1020              		.loc 1 443 0
 1021 007e 3846     		mov	r0, r7
 1022 0080 03B0     		add	sp, sp, #12
 1023              		@ sp needed
 1024 0082 BDE8F08F 		pop	{r4, r5, r6, r7, r8, r9, r10, fp, pc}
 1025              		.cfi_endproc
 1026              	.LFE250:
 1027              		.size	chOQWriteTimeout, .-chOQWriteTimeout
 1028 0086 00BFAFF3 		.text
 1028      0080AFF3 
 1028      0080
 1029              	.Letext0:
 1030              		.file 5 "/nfs/nfs5/home/research/hardware/arm2/gcc-arm-embedded/gcc-arm-none-eabi-4_8-2014q2/lib/g
 1031              		.file 6 "/nfs/nfs5/home/research/hardware/arm2/gcc-arm-embedded/gcc-arm-none-eabi-4_8-2014q2/arm-n
 1032              		.file 7 "/nfs/nfs5/home/research/hardware/arm2/gcc-arm-embedded/gcc-arm-none-eabi-4_8-2014q2/arm-n
 1033              		.file 8 "../ChibiOS/os/rt/ports/ARMCMx/compilers/GCC/chtypes.h"
 1034              		.file 9 "../ChibiOS/os/rt/include/chsystypes.h"
 1035              		.file 10 "../ChibiOS/os/rt/ports/ARMCMx/chcore.h"
 1036              		.file 11 "../ChibiOS/os/rt/ports/ARMCMx/chcore_v7m.h"
 1037              		.file 12 "../ChibiOS/os/rt/include/chtm.h"
 1038              		.file 13 "../ChibiOS/os/rt/include/chsem.h"
 1039              		.file 14 "../ChibiOS/os/rt/include/chmtx.h"
 1040              		.file 15 "../ChibiOS/os/rt/include/chthreads.h"
 1041              		.file 16 "../ChibiOS/os/rt/include/chsys.h"
 1042              		.file 17 "../ChibiOS/os/ext/CMSIS/include/core_cm4.h"