ARM GAS  /tmp/ccfWD8TF.s 			page 1


   1              		.syntax unified
   2              		.cpu cortex-m4
   3              		.fpu softvfp
   4              		.eabi_attribute 20, 1
   5              		.eabi_attribute 21, 1
   6              		.eabi_attribute 23, 3
   7              		.eabi_attribute 24, 1
   8              		.eabi_attribute 25, 1
   9              		.eabi_attribute 26, 1
  10              		.eabi_attribute 30, 2
  11              		.eabi_attribute 34, 1
  12              		.eabi_attribute 18, 4
  13              		.thumb
  14              		.file	"chqueues.c"
  15              		.text
  16              	.Ltext0:
  17              		.cfi_sections	.debug_frame
  18              		.section	.text.chIQObjectInit,"ax",%progbits
  19              		.align	2
  20              		.p2align 4,,15
  21              		.global	chIQObjectInit
  22              		.thumb
  23              		.thumb_func
  24              		.type	chIQObjectInit, %function
  25              	chIQObjectInit:
  26              	.LFB241:
  27              		.file 1 "../ChibiOS/os/rt/src/chqueues.c"
  28              		.loc 1 88 0
  29              		.cfi_startproc
  30              		@ args = 4, pretend = 0, frame = 0
  31              		@ frame_needed = 0, uses_anonymous_args = 0
  32              		@ link register save eliminated.
  33              	.LVL0:
  34 0000 30B4     		push	{r4, r5}
  35              		.cfi_def_cfa_offset 8
  36              		.cfi_offset 4, -8
  37              		.cfi_offset 5, -4
  38              		.loc 1 88 0
  39 0002 029C     		ldr	r4, [sp, #8]
  40              		.loc 1 97 0
  41 0004 0462     		str	r4, [r0, #32]
  42              		.loc 1 91 0
  43 0006 0025     		movs	r5, #0
  44              		.loc 1 95 0
  45 0008 0A44     		add	r2, r2, r1
  46              	.LVL1:
  47              		.loc 1 91 0
  48 000a 8560     		str	r5, [r0, #8]
  49              		.loc 1 95 0
  50 000c 0261     		str	r2, [r0, #16]
  51              	.LBB108:
  52              	.LBB109:
  53              	.LBB110:
  54              		.file 2 "../ChibiOS/os/rt/include/chschd.h"
  55              		.loc 2 606 0
  56 000e 0060     		str	r0, [r0]
  57              		.loc 2 607 0
ARM GAS  /tmp/ccfWD8TF.s 			page 2


  58 0010 4060     		str	r0, [r0, #4]
  59              	.LBE110:
  60              	.LBE109:
  61              	.LBE108:
  62              		.loc 1 92 0
  63 0012 C160     		str	r1, [r0, #12]
  64              		.loc 1 93 0
  65 0014 8161     		str	r1, [r0, #24]
  66              		.loc 1 94 0
  67 0016 4161     		str	r1, [r0, #20]
  68              		.loc 1 96 0
  69 0018 C361     		str	r3, [r0, #28]
  70              		.loc 1 98 0
  71 001a 30BC     		pop	{r4, r5}
  72              	.LVL2:
  73 001c 7047     		bx	lr
  74              		.cfi_endproc
  75              	.LFE241:
  76              		.size	chIQObjectInit, .-chIQObjectInit
  77 001e 00BF     		.section	.text.chIQResetI,"ax",%progbits
  78              		.align	2
  79              		.p2align 4,,15
  80              		.global	chIQResetI
  81              		.thumb
  82              		.thumb_func
  83              		.type	chIQResetI, %function
  84              	chIQResetI:
  85              	.LFB242:
  86              		.loc 1 111 0
  87              		.cfi_startproc
  88              		@ args = 0, pretend = 0, frame = 0
  89              		@ frame_needed = 0, uses_anonymous_args = 0
  90              		@ link register save eliminated.
  91              	.LVL3:
  92              		.loc 1 117 0
  93 0000 0021     		movs	r1, #0
  94              		.loc 1 115 0
  95 0002 C268     		ldr	r2, [r0, #12]
  96              		.loc 1 117 0
  97 0004 8160     		str	r1, [r0, #8]
  98              		.loc 1 115 0
  99 0006 8261     		str	r2, [r0, #24]
 100              		.loc 1 116 0
 101 0008 4261     		str	r2, [r0, #20]
 102              		.loc 1 118 0
 103 000a 6FF00101 		mvn	r1, #1
 104 000e FFF7FEBF 		b	chThdDequeueAllI
 105              	.LVL4:
 106              		.cfi_endproc
 107              	.LFE242:
 108              		.size	chIQResetI, .-chIQResetI
 109 0012 00BFAFF3 		.section	.text.chIQPutI,"ax",%progbits
 109      0080AFF3 
 109      0080AFF3 
 109      0080
 110              		.align	2
 111              		.p2align 4,,15
ARM GAS  /tmp/ccfWD8TF.s 			page 3


 112              		.global	chIQPutI
 113              		.thumb
 114              		.thumb_func
 115              		.type	chIQPutI, %function
 116              	chIQPutI:
 117              	.LFB243:
 118              		.loc 1 134 0
 119              		.cfi_startproc
 120              		@ args = 0, pretend = 0, frame = 0
 121              		@ frame_needed = 0, uses_anonymous_args = 0
 122              	.LVL5:
 123              	.LBB111:
 124              	.LBB112:
 125              		.file 3 "../ChibiOS/os/rt/include/chqueues.h"
 126              		.loc 3 325 0
 127 0000 4369     		ldr	r3, [r0, #20]
 128 0002 8269     		ldr	r2, [r0, #24]
 129 0004 9342     		cmp	r3, r2
 130              	.LBE112:
 131              	.LBE111:
 132              		.loc 1 134 0
 133 0006 10B5     		push	{r4, lr}
 134              		.cfi_def_cfa_offset 8
 135              		.cfi_offset 4, -8
 136              		.cfi_offset 14, -4
 137              	.LBB115:
 138              	.LBB113:
 139              		.loc 3 325 0
 140 0008 10D0     		beq	.L11
 141              	.L4:
 142              	.LBE113:
 143              	.LBE115:
 144              		.loc 1 142 0
 145 000a 8468     		ldr	r4, [r0, #8]
 146              		.loc 1 143 0
 147 000c 5A1C     		adds	r2, r3, #1
 148              		.loc 1 142 0
 149 000e 0134     		adds	r4, r4, #1
 150              		.loc 1 143 0
 151 0010 4261     		str	r2, [r0, #20]
 152              		.loc 1 142 0
 153 0012 8460     		str	r4, [r0, #8]
 154              		.loc 1 143 0
 155 0014 1970     		strb	r1, [r3]
 156              		.loc 1 144 0
 157 0016 4269     		ldr	r2, [r0, #20]
 158 0018 0369     		ldr	r3, [r0, #16]
 159 001a 9A42     		cmp	r2, r3
 160 001c 01D3     		bcc	.L7
 161              		.loc 1 145 0
 162 001e C368     		ldr	r3, [r0, #12]
 163 0020 4361     		str	r3, [r0, #20]
 164              	.L7:
 165              		.loc 1 148 0
 166 0022 0021     		movs	r1, #0
 167              	.LVL6:
 168 0024 FFF7FEFF 		bl	chThdDequeueNextI
ARM GAS  /tmp/ccfWD8TF.s 			page 4


 169              	.LVL7:
 170              		.loc 1 150 0
 171 0028 0020     		movs	r0, #0
 172 002a 10BD     		pop	{r4, pc}
 173              	.LVL8:
 174              	.L11:
 175              	.LBB116:
 176              	.LBB114:
 177              		.loc 3 325 0
 178 002c 8268     		ldr	r2, [r0, #8]
 179 002e 002A     		cmp	r2, #0
 180 0030 EBD0     		beq	.L4
 181              	.LBE114:
 182              	.LBE116:
 183              		.loc 1 139 0
 184 0032 6FF00300 		mvn	r0, #3
 185              	.LVL9:
 186 0036 10BD     		pop	{r4, pc}
 187              		.cfi_endproc
 188              	.LFE243:
 189              		.size	chIQPutI, .-chIQPutI
 190 0038 AFF30080 		.section	.text.chIQGetTimeout,"ax",%progbits
 190      AFF30080 
 191              		.align	2
 192              		.p2align 4,,15
 193              		.global	chIQGetTimeout
 194              		.thumb
 195              		.thumb_func
 196              		.type	chIQGetTimeout, %function
 197              	chIQGetTimeout:
 198              	.LFB244:
 199              		.loc 1 173 0
 200              		.cfi_startproc
 201              		@ args = 0, pretend = 0, frame = 0
 202              		@ frame_needed = 0, uses_anonymous_args = 0
 203              	.LVL10:
 204 0000 70B5     		push	{r4, r5, r6, lr}
 205              		.cfi_def_cfa_offset 16
 206              		.cfi_offset 4, -16
 207              		.cfi_offset 5, -12
 208              		.cfi_offset 6, -8
 209              		.cfi_offset 14, -4
 210              	.LBB117:
 211              	.LBB118:
 212              	.LBB119:
 213              	.LBB120:
 214              		.file 4 "../ChibiOS/os/ext/CMSIS/include/core_cmFunc.h"
 215              		.loc 4 548 0
 216 0002 2023     		movs	r3, #32
 217              	.LBE120:
 218              	.LBE119:
 219              	.LBE118:
 220              	.LBE117:
 221              		.loc 1 173 0
 222 0004 0E46     		mov	r6, r1
 223 0006 0446     		mov	r4, r0
 224              	.LBB124:
ARM GAS  /tmp/ccfWD8TF.s 			page 5


 225              	.LBB123:
 226              	.LBB122:
 227              	.LBB121:
 228              		.loc 4 548 0
 229              	@ 548 "../ChibiOS/os/ext/CMSIS/include/core_cmFunc.h" 1
 230 0008 83F31188 		MSR basepri, r3
 231              	@ 0 "" 2
 232              		.thumb
 233              	.LBE121:
 234              	.LBE122:
 235              	.LBE123:
 236              	.LBE124:
 237              		.loc 1 177 0
 238 000c C369     		ldr	r3, [r0, #28]
 239 000e 2BB1     		cbz	r3, .L15
 240              		.loc 1 178 0
 241 0010 9847     		blx	r3
 242              	.LVL11:
 243 0012 03E0     		b	.L15
 244              	.LVL12:
 245              	.L17:
 246              	.LBB125:
 247              		.loc 1 182 0
 248 0014 FFF7FEFF 		bl	chThdEnqueueTimeoutS
 249              	.LVL13:
 250              		.loc 1 183 0
 251 0018 0028     		cmp	r0, #0
 252 001a 16DB     		blt	.L22
 253              	.LVL14:
 254              	.L15:
 255              	.LBE125:
 256              	.LBB131:
 257              	.LBB132:
 258              		.loc 3 307 0 discriminator 1
 259 001c A568     		ldr	r5, [r4, #8]
 260              	.LBE132:
 261              	.LBE131:
 262              	.LBB133:
 263              		.loc 1 182 0 discriminator 1
 264 001e 2046     		mov	r0, r4
 265 0020 3146     		mov	r1, r6
 266              	.LBE133:
 267              		.loc 1 181 0 discriminator 1
 268 0022 002D     		cmp	r5, #0
 269 0024 F6D0     		beq	.L17
 270              	.LVL15:
 271              		.loc 1 190 0
 272 0026 A269     		ldr	r2, [r4, #24]
 273              		.loc 1 189 0
 274 0028 A068     		ldr	r0, [r4, #8]
 275              	.LVL16:
 276              		.loc 1 191 0
 277 002a 2169     		ldr	r1, [r4, #16]
 278              	.LVL17:
 279              		.loc 1 190 0
 280 002c 531C     		adds	r3, r2, #1
 281              		.loc 1 191 0
ARM GAS  /tmp/ccfWD8TF.s 			page 6


 282 002e 8B42     		cmp	r3, r1
 283              		.loc 1 189 0
 284 0030 00F1FF30 		add	r0, r0, #-1
 285              		.loc 1 190 0
 286 0034 A361     		str	r3, [r4, #24]
 287              		.loc 1 189 0
 288 0036 A060     		str	r0, [r4, #8]
 289              		.loc 1 192 0
 290 0038 28BF     		it	cs
 291 003a E368     		ldrcs	r3, [r4, #12]
 292              		.loc 1 190 0
 293 003c 1078     		ldrb	r0, [r2]	@ zero_extendqisi2
 294              	.LVL18:
 295              		.loc 1 192 0
 296 003e 28BF     		it	cs
 297 0040 A361     		strcs	r3, [r4, #24]
 298              	.LVL19:
 299              	.LBB134:
 300              	.LBB135:
 301              	.LBB136:
 302              	.LBB137:
 303              	.LBB138:
 304              		.loc 4 548 0
 305 0042 0023     		movs	r3, #0
 306              	@ 548 "../ChibiOS/os/ext/CMSIS/include/core_cmFunc.h" 1
 307 0044 83F31188 		MSR basepri, r3
 308              	@ 0 "" 2
 309              		.thumb
 310              	.LBE138:
 311              	.LBE137:
 312              	.LBE136:
 313              	.LBE135:
 314              	.LBE134:
 315              		.loc 1 197 0
 316 0048 70BD     		pop	{r4, r5, r6, pc}
 317              	.LVL20:
 318              	.L22:
 319              	.LBB139:
 320              	.LBB126:
 321              	.LBB127:
 322              	.LBB128:
 323              	.LBB129:
 324              	.LBB130:
 325              		.loc 4 548 0
 326              	@ 548 "../ChibiOS/os/ext/CMSIS/include/core_cmFunc.h" 1
 327 004a 85F31188 		MSR basepri, r5
 328              	@ 0 "" 2
 329              		.thumb
 330              	.LBE130:
 331              	.LBE129:
 332              	.LBE128:
 333              	.LBE127:
 334              	.LBE126:
 335              		.loc 1 185 0
 336 004e 70BD     		pop	{r4, r5, r6, pc}
 337              	.LBE139:
 338              		.cfi_endproc
ARM GAS  /tmp/ccfWD8TF.s 			page 7


 339              	.LFE244:
 340              		.size	chIQGetTimeout, .-chIQGetTimeout
 341              		.section	.text.chIQReadTimeout,"ax",%progbits
 342              		.align	2
 343              		.p2align 4,,15
 344              		.global	chIQReadTimeout
 345              		.thumb
 346              		.thumb_func
 347              		.type	chIQReadTimeout, %function
 348              	chIQReadTimeout:
 349              	.LFB245:
 350              		.loc 1 224 0
 351              		.cfi_startproc
 352              		@ args = 0, pretend = 0, frame = 0
 353              		@ frame_needed = 0, uses_anonymous_args = 0
 354              	.LVL21:
 355 0000 2DE9F84F 		push	{r3, r4, r5, r6, r7, r8, r9, r10, fp, lr}
 356              		.cfi_def_cfa_offset 40
 357              		.cfi_offset 3, -40
 358              		.cfi_offset 4, -36
 359              		.cfi_offset 5, -32
 360              		.cfi_offset 6, -28
 361              		.cfi_offset 7, -24
 362              		.cfi_offset 8, -20
 363              		.cfi_offset 9, -16
 364              		.cfi_offset 10, -12
 365              		.cfi_offset 11, -8
 366              		.cfi_offset 14, -4
 367              		.loc 1 224 0
 368 0004 0446     		mov	r4, r0
 369 0006 1D46     		mov	r5, r3
 370              		.loc 1 225 0
 371 0008 D0F81C80 		ldr	r8, [r0, #28]
 372              	.LVL22:
 373              	.LBB140:
 374              	.LBB141:
 375              	.LBB142:
 376              	.LBB143:
 377              		.loc 4 548 0
 378 000c 4FF0200B 		mov	fp, #32
 379              	@ 548 "../ChibiOS/os/ext/CMSIS/include/core_cmFunc.h" 1
 380 0010 8BF31188 		MSR basepri, fp
 381              	@ 0 "" 2
 382              		.thumb
 383              	.LBE143:
 384              	.LBE142:
 385              	.LBE141:
 386              	.LBE140:
 387              		.loc 1 226 0
 388 0014 0026     		movs	r6, #0
 389 0016 01EB020A 		add	r10, r1, r2
 390 001a 01F10109 		add	r9, r1, #1
 391              	.LVL23:
 392              	.L30:
 393              		.loc 1 232 0
 394 001e B8F1000F 		cmp	r8, #0
 395 0022 05D0     		beq	.L26
ARM GAS  /tmp/ccfWD8TF.s 			page 8


 396              		.loc 1 233 0
 397 0024 2046     		mov	r0, r4
 398              	.LVL24:
 399 0026 C047     		blx	r8
 400              	.LVL25:
 401 0028 02E0     		b	.L26
 402              	.LVL26:
 403              	.L28:
 404              		.loc 1 237 0
 405 002a FFF7FEFF 		bl	chThdEnqueueTimeoutS
 406              	.LVL27:
 407 002e F8B9     		cbnz	r0, .L34
 408              	.LVL28:
 409              	.L26:
 410              	.LBB144:
 411              	.LBB145:
 412              		.loc 3 307 0 discriminator 1
 413 0030 A768     		ldr	r7, [r4, #8]
 414              	.LBE145:
 415              	.LBE144:
 416              		.loc 1 237 0 discriminator 1
 417 0032 2046     		mov	r0, r4
 418 0034 2946     		mov	r1, r5
 419              		.loc 1 236 0 discriminator 1
 420 0036 002F     		cmp	r7, #0
 421 0038 F7D0     		beq	.L28
 422              	.LVL29:
 423              		.loc 1 244 0
 424 003a A369     		ldr	r3, [r4, #24]
 425              		.loc 1 243 0
 426 003c A168     		ldr	r1, [r4, #8]
 427              	.LVL30:
 428              		.loc 1 244 0
 429 003e 5A1C     		adds	r2, r3, #1
 430              		.loc 1 243 0
 431 0040 0139     		subs	r1, r1, #1
 432              		.loc 1 244 0
 433 0042 A261     		str	r2, [r4, #24]
 434              		.loc 1 243 0
 435 0044 A160     		str	r1, [r4, #8]
 436              	.LVL31:
 437              		.loc 1 244 0
 438 0046 1B78     		ldrb	r3, [r3]	@ zero_extendqisi2
 439 0048 09F8013C 		strb	r3, [r9, #-1]
 440              		.loc 1 245 0
 441 004c 2369     		ldr	r3, [r4, #16]
 442 004e A269     		ldr	r2, [r4, #24]
 443 0050 9A42     		cmp	r2, r3
 444              		.loc 1 246 0
 445 0052 24BF     		itt	cs
 446 0054 E368     		ldrcs	r3, [r4, #12]
 447 0056 A361     		strcs	r3, [r4, #24]
 448              	.LVL32:
 449              	.LBB146:
 450              	.LBB147:
 451              	.LBB148:
 452              	.LBB149:
ARM GAS  /tmp/ccfWD8TF.s 			page 9


 453              	.LBB150:
 454              		.loc 4 548 0
 455 0058 0023     		movs	r3, #0
 456              	@ 548 "../ChibiOS/os/ext/CMSIS/include/core_cmFunc.h" 1
 457 005a 83F31188 		MSR basepri, r3
 458              	@ 0 "" 2
 459              		.thumb
 460              	.LBE150:
 461              	.LBE149:
 462              	.LBE148:
 463              	.LBE147:
 464              	.LBE146:
 465              		.loc 1 251 0
 466 005e D145     		cmp	r9, r10
 467              		.loc 1 250 0
 468 0060 06F10106 		add	r6, r6, #1
 469              	.LVL33:
 470              		.loc 1 251 0
 471 0064 06D0     		beq	.L27
 472              	.LVL34:
 473              	.LBB151:
 474              	.LBB152:
 475              	.LBB153:
 476              	.LBB154:
 477              		.loc 4 548 0
 478              	@ 548 "../ChibiOS/os/ext/CMSIS/include/core_cmFunc.h" 1
 479 0066 8BF31188 		MSR basepri, fp
 480              	@ 0 "" 2
 481              		.thumb
 482 006a 09F10109 		add	r9, r9, #1
 483 006e D6E7     		b	.L30
 484              	.LVL35:
 485              	.L34:
 486              	.LBE154:
 487              	.LBE153:
 488              	.LBE152:
 489              	.LBE151:
 490              	.LBB155:
 491              	.LBB156:
 492              	.LBB157:
 493              	.LBB158:
 494              	.LBB159:
 495              	@ 548 "../ChibiOS/os/ext/CMSIS/include/core_cmFunc.h" 1
 496 0070 87F31188 		MSR basepri, r7
 497              	@ 0 "" 2
 498              	.LVL36:
 499              		.thumb
 500              	.L27:
 501              	.LBE159:
 502              	.LBE158:
 503              	.LBE157:
 504              	.LBE156:
 505              	.LBE155:
 506              		.loc 1 257 0
 507 0074 3046     		mov	r0, r6
 508 0076 BDE8F88F 		pop	{r3, r4, r5, r6, r7, r8, r9, r10, fp, pc}
 509              		.cfi_endproc
ARM GAS  /tmp/ccfWD8TF.s 			page 10


 510              	.LFE245:
 511              		.size	chIQReadTimeout, .-chIQReadTimeout
 512 007a 00BFAFF3 		.section	.text.chOQObjectInit,"ax",%progbits
 512      0080
 513              		.align	2
 514              		.p2align 4,,15
 515              		.global	chOQObjectInit
 516              		.thumb
 517              		.thumb_func
 518              		.type	chOQObjectInit, %function
 519              	chOQObjectInit:
 520              	.LFB246:
 521              		.loc 1 276 0
 522              		.cfi_startproc
 523              		@ args = 4, pretend = 0, frame = 0
 524              		@ frame_needed = 0, uses_anonymous_args = 0
 525              		@ link register save eliminated.
 526              	.LVL37:
 527 0000 30B4     		push	{r4, r5}
 528              		.cfi_def_cfa_offset 8
 529              		.cfi_offset 4, -8
 530              		.cfi_offset 5, -4
 531              		.loc 1 276 0
 532 0002 029C     		ldr	r4, [sp, #8]
 533              		.loc 1 285 0
 534 0004 0462     		str	r4, [r0, #32]
 535              		.loc 1 283 0
 536 0006 8D18     		adds	r5, r1, r2
 537 0008 0561     		str	r5, [r0, #16]
 538              	.LBB160:
 539              	.LBB161:
 540              	.LBB162:
 541              		.loc 2 606 0
 542 000a 0060     		str	r0, [r0]
 543              		.loc 2 607 0
 544 000c 4060     		str	r0, [r0, #4]
 545              	.LBE162:
 546              	.LBE161:
 547              	.LBE160:
 548              		.loc 1 279 0
 549 000e 8260     		str	r2, [r0, #8]
 550              		.loc 1 280 0
 551 0010 C160     		str	r1, [r0, #12]
 552              		.loc 1 281 0
 553 0012 8161     		str	r1, [r0, #24]
 554              		.loc 1 282 0
 555 0014 4161     		str	r1, [r0, #20]
 556              		.loc 1 284 0
 557 0016 C361     		str	r3, [r0, #28]
 558              		.loc 1 286 0
 559 0018 30BC     		pop	{r4, r5}
 560              	.LVL38:
 561 001a 7047     		bx	lr
 562              		.cfi_endproc
 563              	.LFE246:
 564              		.size	chOQObjectInit, .-chOQObjectInit
 565 001c AFF30080 		.section	.text.chOQResetI,"ax",%progbits
ARM GAS  /tmp/ccfWD8TF.s 			page 11


 566              		.align	2
 567              		.p2align 4,,15
 568              		.global	chOQResetI
 569              		.thumb
 570              		.thumb_func
 571              		.type	chOQResetI, %function
 572              	chOQResetI:
 573              	.LFB247:
 574              		.loc 1 299 0
 575              		.cfi_startproc
 576              		@ args = 0, pretend = 0, frame = 0
 577              		@ frame_needed = 0, uses_anonymous_args = 0
 578              		@ link register save eliminated.
 579              	.LVL39:
 580              		.loc 1 303 0
 581 0000 C268     		ldr	r2, [r0, #12]
 582 0002 8261     		str	r2, [r0, #24]
 583              		.loc 1 299 0
 584 0004 10B4     		push	{r4}
 585              		.cfi_def_cfa_offset 4
 586              		.cfi_offset 4, -4
 587              		.loc 1 305 0
 588 0006 0469     		ldr	r4, [r0, #16]
 589              		.loc 1 304 0
 590 0008 4261     		str	r2, [r0, #20]
 591              		.loc 1 305 0
 592 000a A41A     		subs	r4, r4, r2
 593 000c 8460     		str	r4, [r0, #8]
 594              		.loc 1 306 0
 595 000e 6FF00101 		mvn	r1, #1
 596              		.loc 1 307 0
 597 0012 5DF8044B 		ldr	r4, [sp], #4
 598              		.loc 1 306 0
 599 0016 FFF7FEBF 		b	chThdDequeueAllI
 600              	.LVL40:
 601              		.cfi_endproc
 602              	.LFE247:
 603              		.size	chOQResetI, .-chOQResetI
 604 001a 00BFAFF3 		.section	.text.chOQPutTimeout,"ax",%progbits
 604      0080
 605              		.align	2
 606              		.p2align 4,,15
 607              		.global	chOQPutTimeout
 608              		.thumb
 609              		.thumb_func
 610              		.type	chOQPutTimeout, %function
 611              	chOQPutTimeout:
 612              	.LFB248:
 613              		.loc 1 331 0
 614              		.cfi_startproc
 615              		@ args = 0, pretend = 0, frame = 0
 616              		@ frame_needed = 0, uses_anonymous_args = 0
 617              	.LVL41:
 618 0000 F8B5     		push	{r3, r4, r5, r6, r7, lr}
 619              		.cfi_def_cfa_offset 24
 620              		.cfi_offset 3, -24
 621              		.cfi_offset 4, -20
ARM GAS  /tmp/ccfWD8TF.s 			page 12


 622              		.cfi_offset 5, -16
 623              		.cfi_offset 6, -12
 624              		.cfi_offset 7, -8
 625              		.cfi_offset 14, -4
 626              		.loc 1 331 0
 627 0002 0446     		mov	r4, r0
 628 0004 0F46     		mov	r7, r1
 629 0006 1646     		mov	r6, r2
 630              	.LBB163:
 631              	.LBB164:
 632              	.LBB165:
 633              	.LBB166:
 634              		.loc 4 548 0
 635 0008 2023     		movs	r3, #32
 636              	@ 548 "../ChibiOS/os/ext/CMSIS/include/core_cmFunc.h" 1
 637 000a 83F31188 		MSR basepri, r3
 638              	@ 0 "" 2
 639              		.thumb
 640 000e 03E0     		b	.L38
 641              	.LVL42:
 642              	.L41:
 643              	.LBE166:
 644              	.LBE165:
 645              	.LBE164:
 646              	.LBE163:
 647              	.LBB167:
 648              		.loc 1 335 0
 649 0010 FFF7FEFF 		bl	chThdEnqueueTimeoutS
 650              	.LVL43:
 651              		.loc 1 336 0
 652 0014 0028     		cmp	r0, #0
 653 0016 19DB     		blt	.L47
 654              	.LVL44:
 655              	.L38:
 656              	.LBE167:
 657              	.LBB173:
 658              	.LBB174:
 659              		.loc 3 411 0 discriminator 1
 660 0018 A568     		ldr	r5, [r4, #8]
 661              	.LBE174:
 662              	.LBE173:
 663              	.LBB175:
 664              		.loc 1 335 0 discriminator 1
 665 001a 2046     		mov	r0, r4
 666 001c 3146     		mov	r1, r6
 667              	.LBE175:
 668              		.loc 1 334 0 discriminator 1
 669 001e 002D     		cmp	r5, #0
 670 0020 F6D0     		beq	.L41
 671              	.LVL45:
 672              		.loc 1 343 0
 673 0022 6369     		ldr	r3, [r4, #20]
 674              		.loc 1 342 0
 675 0024 A168     		ldr	r1, [r4, #8]
 676              	.LVL46:
 677              		.loc 1 343 0
 678 0026 5A1C     		adds	r2, r3, #1
ARM GAS  /tmp/ccfWD8TF.s 			page 13


 679              		.loc 1 342 0
 680 0028 0139     		subs	r1, r1, #1
 681              		.loc 1 343 0
 682 002a 6261     		str	r2, [r4, #20]
 683              		.loc 1 342 0
 684 002c A160     		str	r1, [r4, #8]
 685              		.loc 1 343 0
 686 002e 1F70     		strb	r7, [r3]
 687              		.loc 1 344 0
 688 0030 2369     		ldr	r3, [r4, #16]
 689 0032 6269     		ldr	r2, [r4, #20]
 690 0034 9A42     		cmp	r2, r3
 691              		.loc 1 345 0
 692 0036 24BF     		itt	cs
 693 0038 E368     		ldrcs	r3, [r4, #12]
 694 003a 6361     		strcs	r3, [r4, #20]
 695              		.loc 1 348 0
 696 003c E369     		ldr	r3, [r4, #28]
 697 003e 0BB1     		cbz	r3, .L43
 698              		.loc 1 349 0
 699 0040 2046     		mov	r0, r4
 700              	.LVL47:
 701 0042 9847     		blx	r3
 702              	.LVL48:
 703              	.L43:
 704              	.LBB176:
 705              	.LBB177:
 706              	.LBB178:
 707              	.LBB179:
 708              	.LBB180:
 709              		.loc 4 548 0
 710 0044 0020     		movs	r0, #0
 711              	@ 548 "../ChibiOS/os/ext/CMSIS/include/core_cmFunc.h" 1
 712 0046 80F31188 		MSR basepri, r0
 713              	@ 0 "" 2
 714              		.thumb
 715              	.LBE180:
 716              	.LBE179:
 717              	.LBE178:
 718              	.LBE177:
 719              	.LBE176:
 720              		.loc 1 354 0
 721 004a F8BD     		pop	{r3, r4, r5, r6, r7, pc}
 722              	.LVL49:
 723              	.L47:
 724              	.LBB181:
 725              	.LBB168:
 726              	.LBB169:
 727              	.LBB170:
 728              	.LBB171:
 729              	.LBB172:
 730              		.loc 4 548 0
 731              	@ 548 "../ChibiOS/os/ext/CMSIS/include/core_cmFunc.h" 1
 732 004c 85F31188 		MSR basepri, r5
 733              	@ 0 "" 2
 734              		.thumb
 735              	.LBE172:
ARM GAS  /tmp/ccfWD8TF.s 			page 14


 736              	.LBE171:
 737              	.LBE170:
 738              	.LBE169:
 739              	.LBE168:
 740              		.loc 1 338 0
 741 0050 F8BD     		pop	{r3, r4, r5, r6, r7, pc}
 742              	.LBE181:
 743              		.cfi_endproc
 744              	.LFE248:
 745              		.size	chOQPutTimeout, .-chOQPutTimeout
 746 0052 00BFAFF3 		.section	.text.chOQGetI,"ax",%progbits
 746      0080AFF3 
 746      0080AFF3 
 746      0080
 747              		.align	2
 748              		.p2align 4,,15
 749              		.global	chOQGetI
 750              		.thumb
 751              		.thumb_func
 752              		.type	chOQGetI, %function
 753              	chOQGetI:
 754              	.LFB249:
 755              		.loc 1 366 0
 756              		.cfi_startproc
 757              		@ args = 0, pretend = 0, frame = 0
 758              		@ frame_needed = 0, uses_anonymous_args = 0
 759              	.LVL50:
 760              	.LBB182:
 761              	.LBB183:
 762              		.loc 3 393 0
 763 0000 8369     		ldr	r3, [r0, #24]
 764 0002 4269     		ldr	r2, [r0, #20]
 765 0004 9A42     		cmp	r2, r3
 766              	.LBE183:
 767              	.LBE182:
 768              		.loc 1 366 0
 769 0006 10B5     		push	{r4, lr}
 770              		.cfi_def_cfa_offset 8
 771              		.cfi_offset 4, -8
 772              		.cfi_offset 14, -4
 773              	.LBB186:
 774              	.LBB184:
 775              		.loc 3 393 0
 776 0008 0FD0     		beq	.L55
 777              	.L49:
 778              	.LBE184:
 779              	.LBE186:
 780              		.loc 1 375 0
 781 000a 8468     		ldr	r4, [r0, #8]
 782              		.loc 1 377 0
 783 000c 0169     		ldr	r1, [r0, #16]
 784              		.loc 1 375 0
 785 000e 0134     		adds	r4, r4, #1
 786              		.loc 1 376 0
 787 0010 5A1C     		adds	r2, r3, #1
 788              		.loc 1 375 0
 789 0012 8460     		str	r4, [r0, #8]
ARM GAS  /tmp/ccfWD8TF.s 			page 15


 790              		.loc 1 376 0
 791 0014 8261     		str	r2, [r0, #24]
 792              		.loc 1 377 0
 793 0016 8A42     		cmp	r2, r1
 794              		.loc 1 376 0
 795 0018 1C78     		ldrb	r4, [r3]	@ zero_extendqisi2
 796              	.LVL51:
 797              		.loc 1 377 0
 798 001a 01D3     		bcc	.L52
 799              		.loc 1 378 0
 800 001c C368     		ldr	r3, [r0, #12]
 801              	.LVL52:
 802 001e 8361     		str	r3, [r0, #24]
 803              	.LVL53:
 804              	.L52:
 805              		.loc 1 381 0
 806 0020 0021     		movs	r1, #0
 807 0022 FFF7FEFF 		bl	chThdDequeueNextI
 808              	.LVL54:
 809              		.loc 1 383 0
 810 0026 2046     		mov	r0, r4
 811 0028 10BD     		pop	{r4, pc}
 812              	.LVL55:
 813              	.L55:
 814              	.LBB187:
 815              	.LBB185:
 816              		.loc 3 393 0
 817 002a 8268     		ldr	r2, [r0, #8]
 818 002c 002A     		cmp	r2, #0
 819 002e ECD0     		beq	.L49
 820              	.LBE185:
 821              	.LBE187:
 822              		.loc 1 372 0
 823 0030 6FF00200 		mvn	r0, #2
 824              	.LVL56:
 825 0034 10BD     		pop	{r4, pc}
 826              		.cfi_endproc
 827              	.LFE249:
 828              		.size	chOQGetI, .-chOQGetI
 829 0036 00BFAFF3 		.section	.text.chOQWriteTimeout,"ax",%progbits
 829      0080AFF3 
 829      0080
 830              		.align	2
 831              		.p2align 4,,15
 832              		.global	chOQWriteTimeout
 833              		.thumb
 834              		.thumb_func
 835              		.type	chOQWriteTimeout, %function
 836              	chOQWriteTimeout:
 837              	.LFB250:
 838              		.loc 1 411 0
 839              		.cfi_startproc
 840              		@ args = 0, pretend = 0, frame = 8
 841              		@ frame_needed = 0, uses_anonymous_args = 0
 842              	.LVL57:
 843 0000 2DE9F04F 		push	{r4, r5, r6, r7, r8, r9, r10, fp, lr}
 844              		.cfi_def_cfa_offset 36
ARM GAS  /tmp/ccfWD8TF.s 			page 16


 845              		.cfi_offset 4, -36
 846              		.cfi_offset 5, -32
 847              		.cfi_offset 6, -28
 848              		.cfi_offset 7, -24
 849              		.cfi_offset 8, -20
 850              		.cfi_offset 9, -16
 851              		.cfi_offset 10, -12
 852              		.cfi_offset 11, -8
 853              		.cfi_offset 14, -4
 854 0004 83B0     		sub	sp, sp, #12
 855              		.cfi_def_cfa_offset 48
 856              		.loc 1 411 0
 857 0006 0446     		mov	r4, r0
 858 0008 0D46     		mov	r5, r1
 859 000a 1646     		mov	r6, r2
 860 000c 0193     		str	r3, [sp, #4]
 861              		.loc 1 412 0
 862 000e D0F81C80 		ldr	r8, [r0, #28]
 863              	.LVL58:
 864              	.LBB188:
 865              	.LBB189:
 866              	.LBB190:
 867              	.LBB191:
 868              		.loc 4 548 0
 869 0012 4FF0200A 		mov	r10, #32
 870              	@ 548 "../ChibiOS/os/ext/CMSIS/include/core_cmFunc.h" 1
 871 0016 8AF31188 		MSR basepri, r10
 872              	@ 0 "" 2
 873              		.thumb
 874              	.LBE191:
 875              	.LBE190:
 876              	.LBE189:
 877              	.LBE188:
 878              		.loc 1 413 0
 879 001a 0027     		movs	r7, #0
 880              	.LBB192:
 881              	.LBB193:
 882              	.LBB194:
 883              	.LBB195:
 884              	.LBB196:
 885              		.loc 4 548 0
 886 001c B946     		mov	r9, r7
 887              	.LVL59:
 888              	.L57:
 889              	.LBE196:
 890              	.LBE195:
 891              	.LBE194:
 892              	.LBE193:
 893              	.LBE192:
 894              	.LBB201:
 895              	.LBB202:
 896              		.loc 3 411 0 discriminator 1
 897 001e A368     		ldr	r3, [r4, #8]
 898              	.LBE202:
 899              	.LBE201:
 900              		.loc 1 427 0 discriminator 1
 901 0020 05F1010B 		add	fp, r5, #1
ARM GAS  /tmp/ccfWD8TF.s 			page 17


 902              	.LVL60:
 903              		.loc 1 433 0 discriminator 1
 904 0024 2046     		mov	r0, r4
 905              		.loc 1 419 0 discriminator 1
 906 0026 03B3     		cbz	r3, .L60
 907              	.LVL61:
 908              	.L72:
 909              		.loc 1 427 0
 910 0028 6369     		ldr	r3, [r4, #20]
 911              		.loc 1 426 0
 912 002a A168     		ldr	r1, [r4, #8]
 913 002c 4A1E     		subs	r2, r1, #1
 914              		.loc 1 427 0
 915 002e 591C     		adds	r1, r3, #1
 916 0030 6161     		str	r1, [r4, #20]
 917              		.loc 1 426 0
 918 0032 A260     		str	r2, [r4, #8]
 919              		.loc 1 427 0
 920 0034 2978     		ldrb	r1, [r5]	@ zero_extendqisi2
 921 0036 1970     		strb	r1, [r3]
 922              		.loc 1 428 0
 923 0038 2369     		ldr	r3, [r4, #16]
 924 003a 6169     		ldr	r1, [r4, #20]
 925 003c 9942     		cmp	r1, r3
 926              		.loc 1 429 0
 927 003e 24BF     		itt	cs
 928 0040 E368     		ldrcs	r3, [r4, #12]
 929 0042 6361     		strcs	r3, [r4, #20]
 930              		.loc 1 432 0
 931 0044 B8F1000F 		cmp	r8, #0
 932 0048 00D0     		beq	.L62
 933              		.loc 1 433 0
 934 004a C047     		blx	r8
 935              	.LVL62:
 936              	.L62:
 937              	.LBB204:
 938              	.LBB200:
 939              	.LBB199:
 940              	.LBB198:
 941              	.LBB197:
 942              		.loc 4 548 0
 943              	@ 548 "../ChibiOS/os/ext/CMSIS/include/core_cmFunc.h" 1
 944 004c 89F31188 		MSR basepri, r9
 945              	@ 0 "" 2
 946              	.LVL63:
 947              		.thumb
 948              	.LBE197:
 949              	.LBE198:
 950              	.LBE199:
 951              	.LBE200:
 952              	.LBE204:
 953              		.loc 1 438 0
 954 0050 013E     		subs	r6, r6, #1
 955              	.LVL64:
 956              		.loc 1 437 0
 957 0052 07F10107 		add	r7, r7, #1
 958              	.LVL65:
ARM GAS  /tmp/ccfWD8TF.s 			page 18


 959              		.loc 1 438 0
 960 0056 12D0     		beq	.L59
 961              	.LBB205:
 962              	.LBB206:
 963              	.LBB207:
 964              	.LBB208:
 965              		.loc 4 548 0
 966              	@ 548 "../ChibiOS/os/ext/CMSIS/include/core_cmFunc.h" 1
 967 0058 8AF31188 		MSR basepri, r10
 968              	@ 0 "" 2
 969              		.thumb
 970              	.LBE208:
 971              	.LBE207:
 972              	.LBE206:
 973              	.LBE205:
 974              	.LBB209:
 975              	.LBB203:
 976              		.loc 3 411 0
 977 005c A368     		ldr	r3, [r4, #8]
 978              	.LBE203:
 979              	.LBE209:
 980              		.loc 1 427 0
 981 005e 5D46     		mov	r5, fp
 982              	.LVL66:
 983 0060 05F1010B 		add	fp, r5, #1
 984              	.LVL67:
 985              		.loc 1 433 0
 986 0064 2046     		mov	r0, r4
 987              		.loc 1 419 0
 988 0066 002B     		cmp	r3, #0
 989 0068 DED1     		bne	.L72
 990              	.LVL68:
 991              	.L60:
 992              		.loc 1 420 0
 993 006a 2046     		mov	r0, r4
 994              	.LVL69:
 995 006c 0199     		ldr	r1, [sp, #4]
 996 006e 0093     		str	r3, [sp]
 997 0070 FFF7FEFF 		bl	chThdEnqueueTimeoutS
 998              	.LVL70:
 999 0074 009B     		ldr	r3, [sp]
 1000 0076 0028     		cmp	r0, #0
 1001 0078 D1D0     		beq	.L57
 1002              	.LVL71:
 1003              	.LBB210:
 1004              	.LBB211:
 1005              	.LBB212:
 1006              	.LBB213:
 1007              	.LBB214:
 1008              		.loc 4 548 0
 1009              	@ 548 "../ChibiOS/os/ext/CMSIS/include/core_cmFunc.h" 1
 1010 007a 83F31188 		MSR basepri, r3
 1011              	@ 0 "" 2
 1012              	.LVL72:
 1013              		.thumb
 1014              	.L59:
 1015              	.LBE214:
ARM GAS  /tmp/ccfWD8TF.s 			page 19


 1016              	.LBE213:
 1017              	.LBE212:
 1018              	.LBE211:
 1019              	.LBE210:
 1020              		.loc 1 443 0
 1021 007e 3846     		mov	r0, r7
 1022 0080 03B0     		add	sp, sp, #12
 1023              		@ sp needed
 1024 0082 BDE8F08F 		pop	{r4, r5, r6, r7, r8, r9, r10, fp, pc}
 1025              		.cfi_endproc
 1026              	.LFE250:
 1027              		.size	chOQWriteTimeout, .-chOQWriteTimeout
 1028 0086 00BFAFF3 		.text
 1028      0080AFF3 
 1028      0080
 1029              	.Letext0:
 1030              		.file 5 "/nfs/nfs5/home/research/hardware/arm2/gcc-arm-embedded/gcc-arm-none-eabi-4_8-2014q2/lib/g
 1031              		.file 6 "/nfs/nfs5/home/research/hardware/arm2/gcc-arm-embedded/gcc-arm-none-eabi-4_8-2014q2/arm-n
 1032              		.file 7 "/nfs/nfs5/home/research/hardware/arm2/gcc-arm-embedded/gcc-arm-none-eabi-4_8-2014q2/arm-n
 1033              		.file 8 "../ChibiOS/os/rt/ports/ARMCMx/compilers/GCC/chtypes.h"
 1034              		.file 9 "../ChibiOS/os/rt/include/chsystypes.h"
 1035              		.file 10 "../ChibiOS/os/rt/ports/ARMCMx/chcore.h"
 1036              		.file 11 "../ChibiOS/os/rt/ports/ARMCMx/chcore_v7m.h"
 1037              		.file 12 "../ChibiOS/os/rt/include/chtm.h"
 1038              		.file 13 "../ChibiOS/os/rt/include/chsem.h"
 1039              		.file 14 "../ChibiOS/os/rt/include/chmtx.h"
 1040              		.file 15 "../ChibiOS/os/rt/include/chthreads.h"
 1041              		.file 16 "../ChibiOS/os/rt/include/chsys.h"
 1042              		.file 17 "../ChibiOS/os/ext/CMSIS/include/core_cm4.h"
 1043              		.section	.debug_info,"",%progbits
 1044              	.Ldebug_info0:
 1045 0000 4D110000 		.4byte	0x114d
 1046 0004 0400     		.2byte	0x4
 1047 0006 00000000 		.4byte	.Ldebug_abbrev0
 1048 000a 04       		.byte	0x4
 1049 000b 01       		.uleb128 0x1
 1050 000c 36050000 		.4byte	.LASF148
 1051 0010 01       		.byte	0x1
 1052 0011 99020000 		.4byte	.LASF149
 1053 0015 CA040000 		.4byte	.LASF150
 1054 0019 C8000000 		.4byte	.Ldebug_ranges0+0xc8
 1055 001d 00000000 		.4byte	0
 1056 0021 00000000 		.4byte	.Ldebug_line0
 1057 0025 02       		.uleb128 0x2
 1058 0026 04       		.byte	0x4
 1059 0027 05       		.byte	0x5
 1060 0028 696E7400 		.ascii	"int\000"
 1061 002c 03       		.uleb128 0x3
 1062 002d 21000000 		.4byte	.LASF2
 1063 0031 05       		.byte	0x5
 1064 0032 D4       		.byte	0xd4
 1065 0033 37000000 		.4byte	0x37
 1066 0037 04       		.uleb128 0x4
 1067 0038 04       		.byte	0x4
 1068 0039 07       		.byte	0x7
 1069 003a 22020000 		.4byte	.LASF0
 1070 003e 04       		.uleb128 0x4
ARM GAS  /tmp/ccfWD8TF.s 			page 20


 1071 003f 01       		.byte	0x1
 1072 0040 06       		.byte	0x6
 1073 0041 33010000 		.4byte	.LASF1
 1074 0045 03       		.uleb128 0x3
 1075 0046 49000000 		.4byte	.LASF3
 1076 004a 06       		.byte	0x6
 1077 004b 1C       		.byte	0x1c
 1078 004c 50000000 		.4byte	0x50
 1079 0050 04       		.uleb128 0x4
 1080 0051 01       		.byte	0x1
 1081 0052 08       		.byte	0x8
 1082 0053 08040000 		.4byte	.LASF4
 1083 0057 04       		.uleb128 0x4
 1084 0058 02       		.byte	0x2
 1085 0059 05       		.byte	0x5
 1086 005a 36040000 		.4byte	.LASF5
 1087 005e 04       		.uleb128 0x4
 1088 005f 02       		.byte	0x2
 1089 0060 07       		.byte	0x7
 1090 0061 62020000 		.4byte	.LASF6
 1091 0065 03       		.uleb128 0x3
 1092 0066 D3020000 		.4byte	.LASF7
 1093 006a 06       		.byte	0x6
 1094 006b 37       		.byte	0x37
 1095 006c 70000000 		.4byte	0x70
 1096 0070 04       		.uleb128 0x4
 1097 0071 04       		.byte	0x4
 1098 0072 05       		.byte	0x5
 1099 0073 81010000 		.4byte	.LASF8
 1100 0077 03       		.uleb128 0x3
 1101 0078 35060000 		.4byte	.LASF9
 1102 007c 06       		.byte	0x6
 1103 007d 38       		.byte	0x38
 1104 007e 82000000 		.4byte	0x82
 1105 0082 04       		.uleb128 0x4
 1106 0083 04       		.byte	0x4
 1107 0084 07       		.byte	0x7
 1108 0085 16050000 		.4byte	.LASF10
 1109 0089 04       		.uleb128 0x4
 1110 008a 08       		.byte	0x8
 1111 008b 05       		.byte	0x5
 1112 008c 25010000 		.4byte	.LASF11
 1113 0090 03       		.uleb128 0x3
 1114 0091 9A030000 		.4byte	.LASF12
 1115 0095 06       		.byte	0x6
 1116 0096 4E       		.byte	0x4e
 1117 0097 9B000000 		.4byte	0x9b
 1118 009b 04       		.uleb128 0x4
 1119 009c 08       		.byte	0x8
 1120 009d 07       		.byte	0x7
 1121 009e A2000000 		.4byte	.LASF13
 1122 00a2 03       		.uleb128 0x3
 1123 00a3 C2060000 		.4byte	.LASF14
 1124 00a7 07       		.byte	0x7
 1125 00a8 2A       		.byte	0x2a
 1126 00a9 45000000 		.4byte	0x45
 1127 00ad 03       		.uleb128 0x3
ARM GAS  /tmp/ccfWD8TF.s 			page 21


 1128 00ae 00040000 		.4byte	.LASF15
 1129 00b2 07       		.byte	0x7
 1130 00b3 41       		.byte	0x41
 1131 00b4 65000000 		.4byte	0x65
 1132 00b8 03       		.uleb128 0x3
 1133 00b9 BA040000 		.4byte	.LASF16
 1134 00bd 07       		.byte	0x7
 1135 00be 42       		.byte	0x42
 1136 00bf 77000000 		.4byte	0x77
 1137 00c3 03       		.uleb128 0x3
 1138 00c4 2F000000 		.4byte	.LASF17
 1139 00c8 07       		.byte	0x7
 1140 00c9 4E       		.byte	0x4e
 1141 00ca 90000000 		.4byte	0x90
 1142 00ce 03       		.uleb128 0x3
 1143 00cf 72060000 		.4byte	.LASF18
 1144 00d3 08       		.byte	0x8
 1145 00d4 39       		.byte	0x39
 1146 00d5 B8000000 		.4byte	0xb8
 1147 00d9 03       		.uleb128 0x3
 1148 00da 91020000 		.4byte	.LASF19
 1149 00de 08       		.byte	0x8
 1150 00df 3C       		.byte	0x3c
 1151 00e0 A2000000 		.4byte	0xa2
 1152 00e4 03       		.uleb128 0x3
 1153 00e5 8A010000 		.4byte	.LASF20
 1154 00e9 08       		.byte	0x8
 1155 00ea 3D       		.byte	0x3d
 1156 00eb A2000000 		.4byte	0xa2
 1157 00ef 03       		.uleb128 0x3
 1158 00f0 A5030000 		.4byte	.LASF21
 1159 00f4 08       		.byte	0x8
 1160 00f5 3E       		.byte	0x3e
 1161 00f6 A2000000 		.4byte	0xa2
 1162 00fa 03       		.uleb128 0x3
 1163 00fb DA030000 		.4byte	.LASF22
 1164 00ff 08       		.byte	0x8
 1165 0100 40       		.byte	0x40
 1166 0101 B8000000 		.4byte	0xb8
 1167 0105 03       		.uleb128 0x3
 1168 0106 7F020000 		.4byte	.LASF23
 1169 010a 08       		.byte	0x8
 1170 010b 41       		.byte	0x41
 1171 010c AD000000 		.4byte	0xad
 1172 0110 03       		.uleb128 0x3
 1173 0111 C7020000 		.4byte	.LASF24
 1174 0115 08       		.byte	0x8
 1175 0116 43       		.byte	0x43
 1176 0117 B8000000 		.4byte	0xb8
 1177 011b 03       		.uleb128 0x3
 1178 011c 1C020000 		.4byte	.LASF25
 1179 0120 08       		.byte	0x8
 1180 0121 45       		.byte	0x45
 1181 0122 AD000000 		.4byte	0xad
 1182 0126 03       		.uleb128 0x3
 1183 0127 17060000 		.4byte	.LASF26
 1184 012b 09       		.byte	0x9
ARM GAS  /tmp/ccfWD8TF.s 			page 22


 1185 012c 33       		.byte	0x33
 1186 012d B8000000 		.4byte	0xb8
 1187 0131 03       		.uleb128 0x3
 1188 0132 2D050000 		.4byte	.LASF27
 1189 0136 09       		.byte	0x9
 1190 0137 3F       		.byte	0x3f
 1191 0138 3C010000 		.4byte	0x13c
 1192 013c 05       		.uleb128 0x5
 1193 013d 75020000 		.4byte	.LASF46
 1194 0141 40       		.byte	0x40
 1195 0142 02       		.byte	0x2
 1196 0143 C2       		.byte	0xc2
 1197 0144 1C020000 		.4byte	0x21c
 1198 0148 06       		.uleb128 0x6
 1199 0149 4E040000 		.4byte	.LASF28
 1200 014d 02       		.byte	0x2
 1201 014e C3       		.byte	0xc3
 1202 014f 27020000 		.4byte	0x227
 1203 0153 00       		.byte	0
 1204 0154 06       		.uleb128 0x6
 1205 0155 C7030000 		.4byte	.LASF29
 1206 0159 02       		.byte	0x2
 1207 015a C5       		.byte	0xc5
 1208 015b 27020000 		.4byte	0x227
 1209 015f 04       		.byte	0x4
 1210 0160 06       		.uleb128 0x6
 1211 0161 14010000 		.4byte	.LASF30
 1212 0165 02       		.byte	0x2
 1213 0166 C7       		.byte	0xc7
 1214 0167 FA000000 		.4byte	0xfa
 1215 016b 08       		.byte	0x8
 1216 016c 06       		.uleb128 0x6
 1217 016d 14070000 		.4byte	.LASF31
 1218 0171 02       		.byte	0x2
 1219 0172 C8       		.byte	0xc8
 1220 0173 57040000 		.4byte	0x457
 1221 0177 0C       		.byte	0xc
 1222 0178 06       		.uleb128 0x6
 1223 0179 BF010000 		.4byte	.LASF32
 1224 017d 02       		.byte	0x2
 1225 017e CA       		.byte	0xca
 1226 017f 27020000 		.4byte	0x227
 1227 0183 10       		.byte	0x10
 1228 0184 06       		.uleb128 0x6
 1229 0185 69030000 		.4byte	.LASF33
 1230 0189 02       		.byte	0x2
 1231 018a CB       		.byte	0xcb
 1232 018b 27020000 		.4byte	0x227
 1233 018f 14       		.byte	0x14
 1234 0190 06       		.uleb128 0x6
 1235 0191 D1060000 		.4byte	.LASF34
 1236 0195 02       		.byte	0x2
 1237 0196 D2       		.byte	0xd2
 1238 0197 E2050000 		.4byte	0x5e2
 1239 019b 18       		.byte	0x18
 1240 019c 06       		.uleb128 0x6
 1241 019d 24040000 		.4byte	.LASF35
ARM GAS  /tmp/ccfWD8TF.s 			page 23


 1242 01a1 02       		.byte	0x2
 1243 01a2 DD       		.byte	0xdd
 1244 01a3 E4000000 		.4byte	0xe4
 1245 01a7 1C       		.byte	0x1c
 1246 01a8 06       		.uleb128 0x6
 1247 01a9 5A040000 		.4byte	.LASF36
 1248 01ad 02       		.byte	0x2
 1249 01ae E1       		.byte	0xe1
 1250 01af D9000000 		.4byte	0xd9
 1251 01b3 1D       		.byte	0x1d
 1252 01b4 06       		.uleb128 0x6
 1253 01b5 9F060000 		.4byte	.LASF37
 1254 01b9 02       		.byte	0x2
 1255 01ba E6       		.byte	0xe6
 1256 01bb EF000000 		.4byte	0xef
 1257 01bf 1E       		.byte	0x1e
 1258 01c0 07       		.uleb128 0x7
 1259 01c1 705F7500 		.ascii	"p_u\000"
 1260 01c5 02       		.byte	0x2
 1261 01c6 3701     		.2byte	0x137
 1262 01c8 11050000 		.4byte	0x511
 1263 01cc 20       		.byte	0x20
 1264 01cd 08       		.uleb128 0x8
 1265 01ce 0E030000 		.4byte	.LASF38
 1266 01d2 02       		.byte	0x2
 1267 01d3 3C01     		.2byte	0x13c
 1268 01d5 2D020000 		.4byte	0x22d
 1269 01d9 24       		.byte	0x24
 1270 01da 08       		.uleb128 0x8
 1271 01db 49020000 		.4byte	.LASF39
 1272 01df 02       		.byte	0x2
 1273 01e0 4201     		.2byte	0x142
 1274 01e2 51020000 		.4byte	0x251
 1275 01e6 28       		.byte	0x28
 1276 01e7 08       		.uleb128 0x8
 1277 01e8 A3040000 		.4byte	.LASF40
 1278 01ec 02       		.byte	0x2
 1279 01ed 4801     		.2byte	0x148
 1280 01ef 10010000 		.4byte	0x110
 1281 01f3 30       		.byte	0x30
 1282 01f4 08       		.uleb128 0x8
 1283 01f5 2C040000 		.4byte	.LASF41
 1284 01f9 02       		.byte	0x2
 1285 01fa 4F01     		.2byte	0x14f
 1286 01fc DC050000 		.4byte	0x5dc
 1287 0200 34       		.byte	0x34
 1288 0201 08       		.uleb128 0x8
 1289 0202 21060000 		.4byte	.LASF42
 1290 0206 02       		.byte	0x2
 1291 0207 5301     		.2byte	0x153
 1292 0209 FA000000 		.4byte	0xfa
 1293 020d 38       		.byte	0x38
 1294 020e 08       		.uleb128 0x8
 1295 020f 3F010000 		.4byte	.LASF43
 1296 0213 02       		.byte	0x2
 1297 0214 5A01     		.2byte	0x15a
 1298 0216 04030000 		.4byte	0x304
ARM GAS  /tmp/ccfWD8TF.s 			page 24


 1299 021a 3C       		.byte	0x3c
 1300 021b 00       		.byte	0
 1301 021c 03       		.uleb128 0x3
 1302 021d 21030000 		.4byte	.LASF44
 1303 0221 09       		.byte	0x9
 1304 0222 44       		.byte	0x44
 1305 0223 27020000 		.4byte	0x227
 1306 0227 09       		.uleb128 0x9
 1307 0228 04       		.byte	0x4
 1308 0229 31010000 		.4byte	0x131
 1309 022d 03       		.uleb128 0x3
 1310 022e EA060000 		.4byte	.LASF45
 1311 0232 09       		.byte	0x9
 1312 0233 49       		.byte	0x49
 1313 0234 38020000 		.4byte	0x238
 1314 0238 05       		.uleb128 0x5
 1315 0239 06050000 		.4byte	.LASF47
 1316 023d 04       		.byte	0x4
 1317 023e 02       		.byte	0x2
 1318 023f B0       		.byte	0xb0
 1319 0240 51020000 		.4byte	0x251
 1320 0244 06       		.uleb128 0x6
 1321 0245 4E040000 		.4byte	.LASF28
 1322 0249 02       		.byte	0x2
 1323 024a B1       		.byte	0xb1
 1324 024b 27020000 		.4byte	0x227
 1325 024f 00       		.byte	0
 1326 0250 00       		.byte	0
 1327 0251 03       		.uleb128 0x3
 1328 0252 75040000 		.4byte	.LASF48
 1329 0256 09       		.byte	0x9
 1330 0257 50       		.byte	0x50
 1331 0258 5C020000 		.4byte	0x25c
 1332 025c 05       		.uleb128 0x5
 1333 025d 03010000 		.4byte	.LASF49
 1334 0261 08       		.byte	0x8
 1335 0262 02       		.byte	0x2
 1336 0263 B7       		.byte	0xb7
 1337 0264 81020000 		.4byte	0x281
 1338 0268 06       		.uleb128 0x6
 1339 0269 4E040000 		.4byte	.LASF28
 1340 026d 02       		.byte	0x2
 1341 026e B8       		.byte	0xb8
 1342 026f 27020000 		.4byte	0x227
 1343 0273 00       		.byte	0
 1344 0274 06       		.uleb128 0x6
 1345 0275 C7030000 		.4byte	.LASF29
 1346 0279 02       		.byte	0x2
 1347 027a B9       		.byte	0xb9
 1348 027b 27020000 		.4byte	0x227
 1349 027f 04       		.byte	0x4
 1350 0280 00       		.byte	0
 1351 0281 03       		.uleb128 0x3
 1352 0282 0F000000 		.4byte	.LASF50
 1353 0286 09       		.byte	0x9
 1354 0287 57       		.byte	0x57
 1355 0288 8C020000 		.4byte	0x28c
ARM GAS  /tmp/ccfWD8TF.s 			page 25


 1356 028c 0A       		.uleb128 0xa
 1357 028d B9020000 		.4byte	.LASF51
 1358 0291 1C       		.byte	0x1c
 1359 0292 02       		.byte	0x2
 1360 0293 9201     		.2byte	0x192
 1361 0295 E8020000 		.4byte	0x2e8
 1362 0299 08       		.uleb128 0x8
 1363 029a 55030000 		.4byte	.LASF52
 1364 029e 02       		.byte	0x2
 1365 029f 9301     		.2byte	0x193
 1366 02a1 51020000 		.4byte	0x251
 1367 02a5 00       		.byte	0
 1368 02a6 08       		.uleb128 0x8
 1369 02a7 40040000 		.4byte	.LASF53
 1370 02ab 02       		.byte	0x2
 1371 02ac 9401     		.2byte	0x194
 1372 02ae FA000000 		.4byte	0xfa
 1373 02b2 08       		.byte	0x8
 1374 02b3 08       		.uleb128 0x8
 1375 02b4 71030000 		.4byte	.LASF54
 1376 02b8 02       		.byte	0x2
 1377 02b9 9601     		.2byte	0x196
 1378 02bb 57040000 		.4byte	0x457
 1379 02bf 0C       		.byte	0xc
 1380 02c0 08       		.uleb128 0x8
 1381 02c1 CF010000 		.4byte	.LASF55
 1382 02c5 02       		.byte	0x2
 1383 02c6 9901     		.2byte	0x199
 1384 02c8 27020000 		.4byte	0x227
 1385 02cc 10       		.byte	0x10
 1386 02cd 08       		.uleb128 0x8
 1387 02ce 92030000 		.4byte	.LASF56
 1388 02d2 02       		.byte	0x2
 1389 02d3 9A01     		.2byte	0x19a
 1390 02d5 27020000 		.4byte	0x227
 1391 02d9 14       		.byte	0x14
 1392 02da 08       		.uleb128 0x8
 1393 02db 88030000 		.4byte	.LASF57
 1394 02df 02       		.byte	0x2
 1395 02e0 9D01     		.2byte	0x19d
 1396 02e2 27020000 		.4byte	0x227
 1397 02e6 18       		.byte	0x18
 1398 02e7 00       		.byte	0
 1399 02e8 03       		.uleb128 0x3
 1400 02e9 2C060000 		.4byte	.LASF58
 1401 02ed 09       		.byte	0x9
 1402 02ee 5C       		.byte	0x5c
 1403 02ef F3020000 		.4byte	0x2f3
 1404 02f3 09       		.uleb128 0x9
 1405 02f4 04       		.byte	0x4
 1406 02f5 F9020000 		.4byte	0x2f9
 1407 02f9 0B       		.uleb128 0xb
 1408 02fa 04030000 		.4byte	0x304
 1409 02fe 0C       		.uleb128 0xc
 1410 02ff 04030000 		.4byte	0x304
 1411 0303 00       		.byte	0
 1412 0304 0D       		.uleb128 0xd
ARM GAS  /tmp/ccfWD8TF.s 			page 26


 1413 0305 04       		.byte	0x4
 1414 0306 03       		.uleb128 0x3
 1415 0307 B7030000 		.4byte	.LASF59
 1416 030b 09       		.byte	0x9
 1417 030c 61       		.byte	0x61
 1418 030d 11030000 		.4byte	0x311
 1419 0311 0A       		.uleb128 0xa
 1420 0312 85040000 		.4byte	.LASF60
 1421 0316 14       		.byte	0x14
 1422 0317 02       		.byte	0x2
 1423 0318 6D01     		.2byte	0x16d
 1424 031a 60030000 		.4byte	0x360
 1425 031e 08       		.uleb128 0x8
 1426 031f 2F020000 		.4byte	.LASF61
 1427 0323 02       		.byte	0x2
 1428 0324 6E01     		.2byte	0x16e
 1429 0326 F4050000 		.4byte	0x5f4
 1430 032a 00       		.byte	0
 1431 032b 08       		.uleb128 0x8
 1432 032c E0010000 		.4byte	.LASF62
 1433 0330 02       		.byte	0x2
 1434 0331 6F01     		.2byte	0x16f
 1435 0333 F4050000 		.4byte	0x5f4
 1436 0337 04       		.byte	0x4
 1437 0338 08       		.uleb128 0x8
 1438 0339 FD040000 		.4byte	.LASF63
 1439 033d 02       		.byte	0x2
 1440 033e 7001     		.2byte	0x170
 1441 0340 26010000 		.4byte	0x126
 1442 0344 08       		.byte	0x8
 1443 0345 08       		.uleb128 0x8
 1444 0346 1A070000 		.4byte	.LASF64
 1445 034a 02       		.byte	0x2
 1446 034b 7101     		.2byte	0x171
 1447 034d E8020000 		.4byte	0x2e8
 1448 0351 0C       		.byte	0xc
 1449 0352 08       		.uleb128 0x8
 1450 0353 7A060000 		.4byte	.LASF65
 1451 0357 02       		.byte	0x2
 1452 0358 7301     		.2byte	0x173
 1453 035a 04030000 		.4byte	0x304
 1454 035e 10       		.byte	0x10
 1455 035f 00       		.byte	0
 1456 0360 03       		.uleb128 0x3
 1457 0361 D5000000 		.4byte	.LASF66
 1458 0365 09       		.byte	0x9
 1459 0366 66       		.byte	0x66
 1460 0367 6B030000 		.4byte	0x36b
 1461 036b 0A       		.uleb128 0xa
 1462 036c 34030000 		.4byte	.LASF67
 1463 0370 10       		.byte	0x10
 1464 0371 02       		.byte	0x2
 1465 0372 7D01     		.2byte	0x17d
 1466 0374 AD030000 		.4byte	0x3ad
 1467 0378 08       		.uleb128 0x8
 1468 0379 2F020000 		.4byte	.LASF61
 1469 037d 02       		.byte	0x2
ARM GAS  /tmp/ccfWD8TF.s 			page 27


 1470 037e 7E01     		.2byte	0x17e
 1471 0380 F4050000 		.4byte	0x5f4
 1472 0384 00       		.byte	0
 1473 0385 08       		.uleb128 0x8
 1474 0386 E0010000 		.4byte	.LASF62
 1475 038a 02       		.byte	0x2
 1476 038b 8001     		.2byte	0x180
 1477 038d F4050000 		.4byte	0x5f4
 1478 0391 04       		.byte	0x4
 1479 0392 08       		.uleb128 0x8
 1480 0393 FD040000 		.4byte	.LASF63
 1481 0397 02       		.byte	0x2
 1482 0398 8201     		.2byte	0x182
 1483 039a 26010000 		.4byte	0x126
 1484 039e 08       		.byte	0x8
 1485 039f 08       		.uleb128 0x8
 1486 03a0 5D030000 		.4byte	.LASF68
 1487 03a4 02       		.byte	0x2
 1488 03a5 8A01     		.2byte	0x18a
 1489 03a7 26010000 		.4byte	0x126
 1490 03ab 0C       		.byte	0xc
 1491 03ac 00       		.byte	0
 1492 03ad 03       		.uleb128 0x3
 1493 03ae 5F000000 		.4byte	.LASF69
 1494 03b2 09       		.byte	0x9
 1495 03b3 6B       		.byte	0x6b
 1496 03b4 B8030000 		.4byte	0x3b8
 1497 03b8 0A       		.uleb128 0xa
 1498 03b9 EA030000 		.4byte	.LASF70
 1499 03bd 04       		.byte	0x4
 1500 03be 02       		.byte	0x2
 1501 03bf A401     		.2byte	0x1a4
 1502 03c1 D3030000 		.4byte	0x3d3
 1503 03c5 08       		.uleb128 0x8
 1504 03c6 4E060000 		.4byte	.LASF71
 1505 03ca 02       		.byte	0x2
 1506 03cb AC01     		.2byte	0x1ac
 1507 03cd FA050000 		.4byte	0x5fa
 1508 03d1 00       		.byte	0
 1509 03d2 00       		.byte	0
 1510 03d3 03       		.uleb128 0x3
 1511 03d4 85020000 		.4byte	.LASF72
 1512 03d8 09       		.byte	0x9
 1513 03d9 70       		.byte	0x70
 1514 03da DE030000 		.4byte	0x3de
 1515 03de 0E       		.uleb128 0xe
 1516 03df 77010000 		.4byte	.LASF73
 1517 03e3 5001     		.2byte	0x150
 1518 03e5 02       		.byte	0x2
 1519 03e6 C401     		.2byte	0x1c4
 1520 03e8 3A040000 		.4byte	0x43a
 1521 03ec 08       		.uleb128 0x8
 1522 03ed BC060000 		.4byte	.LASF74
 1523 03f1 02       		.byte	0x2
 1524 03f2 C801     		.2byte	0x1c8
 1525 03f4 81020000 		.4byte	0x281
 1526 03f8 00       		.byte	0
ARM GAS  /tmp/ccfWD8TF.s 			page 28


 1527 03f9 08       		.uleb128 0x8
 1528 03fa 4F010000 		.4byte	.LASF75
 1529 03fe 02       		.byte	0x2
 1530 03ff CC01     		.2byte	0x1cc
 1531 0401 60030000 		.4byte	0x360
 1532 0405 1C       		.byte	0x1c
 1533 0406 07       		.uleb128 0x7
 1534 0407 64626700 		.ascii	"dbg\000"
 1535 040b 02       		.byte	0x2
 1536 040c D001     		.2byte	0x1d0
 1537 040e AD030000 		.4byte	0x3ad
 1538 0412 2C       		.byte	0x2c
 1539 0413 08       		.uleb128 0x8
 1540 0414 C2000000 		.4byte	.LASF76
 1541 0418 02       		.byte	0x2
 1542 0419 D401     		.2byte	0x1d4
 1543 041b 31010000 		.4byte	0x131
 1544 041f 30       		.byte	0x30
 1545 0420 07       		.uleb128 0x7
 1546 0421 746D00   		.ascii	"tm\000"
 1547 0424 02       		.byte	0x2
 1548 0425 D901     		.2byte	0x1d9
 1549 0427 06050000 		.4byte	0x506
 1550 042b 70       		.byte	0x70
 1551 042c 08       		.uleb128 0x8
 1552 042d 0D020000 		.4byte	.LASF77
 1553 0431 02       		.byte	0x2
 1554 0432 E501     		.2byte	0x1e5
 1555 0434 FF050000 		.4byte	0x5ff
 1556 0438 78       		.byte	0x78
 1557 0439 00       		.byte	0
 1558 043a 04       		.uleb128 0x4
 1559 043b 04       		.byte	0x4
 1560 043c 07       		.byte	0x7
 1561 043d 18030000 		.4byte	.LASF78
 1562 0441 03       		.uleb128 0x3
 1563 0442 D7010000 		.4byte	.LASF79
 1564 0446 0A       		.byte	0xa
 1565 0447 65       		.byte	0x65
 1566 0448 04030000 		.4byte	0x304
 1567 044c 03       		.uleb128 0x3
 1568 044d DD020000 		.4byte	.LASF80
 1569 0451 0A       		.byte	0xa
 1570 0452 6D       		.byte	0x6d
 1571 0453 C3000000 		.4byte	0xc3
 1572 0457 05       		.uleb128 0x5
 1573 0458 6A060000 		.4byte	.LASF81
 1574 045c 04       		.byte	0x4
 1575 045d 0A       		.byte	0xa
 1576 045e 89       		.byte	0x89
 1577 045f 70040000 		.4byte	0x470
 1578 0463 0F       		.uleb128 0xf
 1579 0464 72313300 		.ascii	"r13\000"
 1580 0468 0A       		.byte	0xa
 1581 0469 8A       		.byte	0x8a
 1582 046a EB040000 		.4byte	0x4eb
 1583 046e 00       		.byte	0
ARM GAS  /tmp/ccfWD8TF.s 			page 29


 1584 046f 00       		.byte	0
 1585 0470 05       		.uleb128 0x5
 1586 0471 53000000 		.4byte	.LASF82
 1587 0475 24       		.byte	0x24
 1588 0476 0B       		.byte	0xb
 1589 0477 FD       		.byte	0xfd
 1590 0478 EB040000 		.4byte	0x4eb
 1591 047c 07       		.uleb128 0x7
 1592 047d 723400   		.ascii	"r4\000"
 1593 0480 0B       		.byte	0xb
 1594 0481 1001     		.2byte	0x110
 1595 0483 41040000 		.4byte	0x441
 1596 0487 00       		.byte	0
 1597 0488 07       		.uleb128 0x7
 1598 0489 723500   		.ascii	"r5\000"
 1599 048c 0B       		.byte	0xb
 1600 048d 1101     		.2byte	0x111
 1601 048f 41040000 		.4byte	0x441
 1602 0493 04       		.byte	0x4
 1603 0494 07       		.uleb128 0x7
 1604 0495 723600   		.ascii	"r6\000"
 1605 0498 0B       		.byte	0xb
 1606 0499 1201     		.2byte	0x112
 1607 049b 41040000 		.4byte	0x441
 1608 049f 08       		.byte	0x8
 1609 04a0 07       		.uleb128 0x7
 1610 04a1 723700   		.ascii	"r7\000"
 1611 04a4 0B       		.byte	0xb
 1612 04a5 1301     		.2byte	0x113
 1613 04a7 41040000 		.4byte	0x441
 1614 04ab 0C       		.byte	0xc
 1615 04ac 07       		.uleb128 0x7
 1616 04ad 723800   		.ascii	"r8\000"
 1617 04b0 0B       		.byte	0xb
 1618 04b1 1401     		.2byte	0x114
 1619 04b3 41040000 		.4byte	0x441
 1620 04b7 10       		.byte	0x10
 1621 04b8 07       		.uleb128 0x7
 1622 04b9 723900   		.ascii	"r9\000"
 1623 04bc 0B       		.byte	0xb
 1624 04bd 1501     		.2byte	0x115
 1625 04bf 41040000 		.4byte	0x441
 1626 04c3 14       		.byte	0x14
 1627 04c4 07       		.uleb128 0x7
 1628 04c5 72313000 		.ascii	"r10\000"
 1629 04c9 0B       		.byte	0xb
 1630 04ca 1601     		.2byte	0x116
 1631 04cc 41040000 		.4byte	0x441
 1632 04d0 18       		.byte	0x18
 1633 04d1 07       		.uleb128 0x7
 1634 04d2 72313100 		.ascii	"r11\000"
 1635 04d6 0B       		.byte	0xb
 1636 04d7 1701     		.2byte	0x117
 1637 04d9 41040000 		.4byte	0x441
 1638 04dd 1C       		.byte	0x1c
 1639 04de 07       		.uleb128 0x7
 1640 04df 6C7200   		.ascii	"lr\000"
ARM GAS  /tmp/ccfWD8TF.s 			page 30


 1641 04e2 0B       		.byte	0xb
 1642 04e3 1801     		.2byte	0x118
 1643 04e5 41040000 		.4byte	0x441
 1644 04e9 20       		.byte	0x20
 1645 04ea 00       		.byte	0
 1646 04eb 09       		.uleb128 0x9
 1647 04ec 04       		.byte	0x4
 1648 04ed 70040000 		.4byte	0x470
 1649 04f1 10       		.uleb128 0x10
 1650 04f2 04       		.byte	0x4
 1651 04f3 0C       		.byte	0xc
 1652 04f4 38       		.byte	0x38
 1653 04f5 06050000 		.4byte	0x506
 1654 04f9 06       		.uleb128 0x6
 1655 04fa 58060000 		.4byte	.LASF83
 1656 04fe 0C       		.byte	0xc
 1657 04ff 3C       		.byte	0x3c
 1658 0500 CE000000 		.4byte	0xce
 1659 0504 00       		.byte	0
 1660 0505 00       		.byte	0
 1661 0506 03       		.uleb128 0x3
 1662 0507 77030000 		.4byte	.LASF84
 1663 050b 0C       		.byte	0xc
 1664 050c 3D       		.byte	0x3d
 1665 050d F1040000 		.4byte	0x4f1
 1666 0511 11       		.uleb128 0x11
 1667 0512 04       		.byte	0x4
 1668 0513 02       		.byte	0x2
 1669 0514 FA       		.byte	0xfa
 1670 0515 7A050000 		.4byte	0x57a
 1671 0519 12       		.uleb128 0x12
 1672 051a 28000000 		.4byte	.LASF85
 1673 051e 02       		.byte	0x2
 1674 051f 0101     		.2byte	0x101
 1675 0521 05010000 		.4byte	0x105
 1676 0525 12       		.uleb128 0x12
 1677 0526 B9000000 		.4byte	.LASF86
 1678 052a 02       		.byte	0x2
 1679 052b 0801     		.2byte	0x108
 1680 052d 05010000 		.4byte	0x105
 1681 0531 12       		.uleb128 0x12
 1682 0532 CA060000 		.4byte	.LASF87
 1683 0536 02       		.byte	0x2
 1684 0537 0F01     		.2byte	0x10f
 1685 0539 04030000 		.4byte	0x304
 1686 053d 12       		.uleb128 0x12
 1687 053e 71010000 		.4byte	.LASF88
 1688 0542 02       		.byte	0x2
 1689 0543 1601     		.2byte	0x116
 1690 0545 7A050000 		.4byte	0x57a
 1691 0549 12       		.uleb128 0x12
 1692 054a CD000000 		.4byte	.LASF89
 1693 054e 02       		.byte	0x2
 1694 054f 1B01     		.2byte	0x11b
 1695 0551 05010000 		.4byte	0x105
 1696 0555 12       		.uleb128 0x12
 1697 0556 42020000 		.4byte	.LASF90
ARM GAS  /tmp/ccfWD8TF.s 			page 31


 1698 055a 02       		.byte	0x2
 1699 055b 2401     		.2byte	0x124
 1700 055d A5050000 		.4byte	0x5a5
 1701 0561 12       		.uleb128 0x12
 1702 0562 C3040000 		.4byte	.LASF91
 1703 0566 02       		.byte	0x2
 1704 0567 2D01     		.2byte	0x12d
 1705 0569 DC050000 		.4byte	0x5dc
 1706 056d 12       		.uleb128 0x12
 1707 056e 47040000 		.4byte	.LASF92
 1708 0572 02       		.byte	0x2
 1709 0573 3501     		.2byte	0x135
 1710 0575 10010000 		.4byte	0x110
 1711 0579 00       		.byte	0
 1712 057a 09       		.uleb128 0x9
 1713 057b 04       		.byte	0x4
 1714 057c 1C020000 		.4byte	0x21c
 1715 0580 05       		.uleb128 0x5
 1716 0581 96040000 		.4byte	.LASF93
 1717 0585 0C       		.byte	0xc
 1718 0586 0D       		.byte	0xd
 1719 0587 34       		.byte	0x34
 1720 0588 A5050000 		.4byte	0x5a5
 1721 058c 06       		.uleb128 0x6
 1722 058d C7010000 		.4byte	.LASF94
 1723 0591 0D       		.byte	0xd
 1724 0592 35       		.byte	0x35
 1725 0593 51020000 		.4byte	0x251
 1726 0597 00       		.byte	0
 1727 0598 06       		.uleb128 0x6
 1728 0599 5C020000 		.4byte	.LASF95
 1729 059d 0D       		.byte	0xd
 1730 059e 37       		.byte	0x37
 1731 059f 1B010000 		.4byte	0x11b
 1732 05a3 08       		.byte	0x8
 1733 05a4 00       		.byte	0
 1734 05a5 09       		.uleb128 0x9
 1735 05a6 04       		.byte	0x4
 1736 05a7 80050000 		.4byte	0x580
 1737 05ab 05       		.uleb128 0x5
 1738 05ac 96060000 		.4byte	.LASF96
 1739 05b0 10       		.byte	0x10
 1740 05b1 0E       		.byte	0xe
 1741 05b2 39       		.byte	0x39
 1742 05b3 DC050000 		.4byte	0x5dc
 1743 05b7 06       		.uleb128 0x6
 1744 05b8 47010000 		.4byte	.LASF97
 1745 05bc 0E       		.byte	0xe
 1746 05bd 3A       		.byte	0x3a
 1747 05be 51020000 		.4byte	0x251
 1748 05c2 00       		.byte	0
 1749 05c3 06       		.uleb128 0x6
 1750 05c4 0C070000 		.4byte	.LASF98
 1751 05c8 0E       		.byte	0xe
 1752 05c9 3C       		.byte	0x3c
 1753 05ca 27020000 		.4byte	0x227
 1754 05ce 08       		.byte	0x8
ARM GAS  /tmp/ccfWD8TF.s 			page 32


 1755 05cf 06       		.uleb128 0x6
 1756 05d0 10060000 		.4byte	.LASF99
 1757 05d4 0E       		.byte	0xe
 1758 05d5 3E       		.byte	0x3e
 1759 05d6 1A060000 		.4byte	0x61a
 1760 05da 0C       		.byte	0xc
 1761 05db 00       		.byte	0
 1762 05dc 09       		.uleb128 0x9
 1763 05dd 04       		.byte	0x4
 1764 05de AB050000 		.4byte	0x5ab
 1765 05e2 09       		.uleb128 0x9
 1766 05e3 04       		.byte	0x4
 1767 05e4 E8050000 		.4byte	0x5e8
 1768 05e8 13       		.uleb128 0x13
 1769 05e9 ED050000 		.4byte	0x5ed
 1770 05ed 04       		.uleb128 0x4
 1771 05ee 01       		.byte	0x1
 1772 05ef 08       		.byte	0x8
 1773 05f0 28050000 		.4byte	.LASF100
 1774 05f4 09       		.uleb128 0x9
 1775 05f5 04       		.byte	0x4
 1776 05f6 06030000 		.4byte	0x306
 1777 05fa 14       		.uleb128 0x14
 1778 05fb E2050000 		.4byte	0x5e2
 1779 05ff 15       		.uleb128 0x15
 1780 0600 4C040000 		.4byte	0x44c
 1781 0604 0F060000 		.4byte	0x60f
 1782 0608 16       		.uleb128 0x16
 1783 0609 3A040000 		.4byte	0x43a
 1784 060d 1A       		.byte	0x1a
 1785 060e 00       		.byte	0
 1786 060f 03       		.uleb128 0x3
 1787 0610 F6010000 		.4byte	.LASF101
 1788 0614 0E       		.byte	0xe
 1789 0615 34       		.byte	0x34
 1790 0616 AB050000 		.4byte	0x5ab
 1791 061a 09       		.uleb128 0x9
 1792 061b 04       		.byte	0x4
 1793 061c 0F060000 		.4byte	0x60f
 1794 0620 03       		.uleb128 0x3
 1795 0621 F8000000 		.4byte	.LASF102
 1796 0625 03       		.byte	0x3
 1797 0626 3F       		.byte	0x3f
 1798 0627 2B060000 		.4byte	0x62b
 1799 062b 05       		.uleb128 0x5
 1800 062c 04020000 		.4byte	.LASF103
 1801 0630 24       		.byte	0x24
 1802 0631 03       		.byte	0x3
 1803 0632 4D       		.byte	0x4d
 1804 0633 98060000 		.4byte	0x698
 1805 0637 06       		.uleb128 0x6
 1806 0638 1B010000 		.4byte	.LASF104
 1807 063c 03       		.byte	0x3
 1808 063d 4E       		.byte	0x4e
 1809 063e 51020000 		.4byte	0x251
 1810 0642 00       		.byte	0
 1811 0643 06       		.uleb128 0x6
ARM GAS  /tmp/ccfWD8TF.s 			page 33


 1812 0644 4B030000 		.4byte	.LASF105
 1813 0648 03       		.byte	0x3
 1814 0649 4F       		.byte	0x4f
 1815 064a BA060000 		.4byte	0x6ba
 1816 064e 08       		.byte	0x8
 1817 064f 06       		.uleb128 0x6
 1818 0650 9C010000 		.4byte	.LASF106
 1819 0654 03       		.byte	0x3
 1820 0655 50       		.byte	0x50
 1821 0656 BF060000 		.4byte	0x6bf
 1822 065a 0C       		.byte	0xc
 1823 065b 06       		.uleb128 0x6
 1824 065c 90060000 		.4byte	.LASF107
 1825 0660 03       		.byte	0x3
 1826 0661 51       		.byte	0x51
 1827 0662 BF060000 		.4byte	0x6bf
 1828 0666 10       		.byte	0x10
 1829 0667 06       		.uleb128 0x6
 1830 0668 A5010000 		.4byte	.LASF108
 1831 066c 03       		.byte	0x3
 1832 066d 53       		.byte	0x53
 1833 066e BF060000 		.4byte	0x6bf
 1834 0672 14       		.byte	0x14
 1835 0673 06       		.uleb128 0x6
 1836 0674 E2030000 		.4byte	.LASF109
 1837 0678 03       		.byte	0x3
 1838 0679 54       		.byte	0x54
 1839 067a BF060000 		.4byte	0x6bf
 1840 067e 18       		.byte	0x18
 1841 067f 06       		.uleb128 0x6
 1842 0680 B3060000 		.4byte	.LASF110
 1843 0684 03       		.byte	0x3
 1844 0685 55       		.byte	0x55
 1845 0686 98060000 		.4byte	0x698
 1846 068a 1C       		.byte	0x1c
 1847 068b 06       		.uleb128 0x6
 1848 068c 05070000 		.4byte	.LASF111
 1849 0690 03       		.byte	0x3
 1850 0691 56       		.byte	0x56
 1851 0692 04030000 		.4byte	0x304
 1852 0696 20       		.byte	0x20
 1853 0697 00       		.byte	0
 1854 0698 03       		.uleb128 0x3
 1855 0699 AD030000 		.4byte	.LASF112
 1856 069d 03       		.byte	0x3
 1857 069e 42       		.byte	0x42
 1858 069f A3060000 		.4byte	0x6a3
 1859 06a3 09       		.uleb128 0x9
 1860 06a4 04       		.byte	0x4
 1861 06a5 A9060000 		.4byte	0x6a9
 1862 06a9 0B       		.uleb128 0xb
 1863 06aa B4060000 		.4byte	0x6b4
 1864 06ae 0C       		.uleb128 0xc
 1865 06af B4060000 		.4byte	0x6b4
 1866 06b3 00       		.byte	0
 1867 06b4 09       		.uleb128 0x9
 1868 06b5 04       		.byte	0x4
ARM GAS  /tmp/ccfWD8TF.s 			page 34


 1869 06b6 20060000 		.4byte	0x620
 1870 06ba 14       		.uleb128 0x14
 1871 06bb 2C000000 		.4byte	0x2c
 1872 06bf 09       		.uleb128 0x9
 1873 06c0 04       		.byte	0x4
 1874 06c1 A2000000 		.4byte	0xa2
 1875 06c5 03       		.uleb128 0x3
 1876 06c6 16040000 		.4byte	.LASF113
 1877 06ca 03       		.byte	0x3
 1878 06cb 64       		.byte	0x64
 1879 06cc 20060000 		.4byte	0x620
 1880 06d0 03       		.uleb128 0x3
 1881 06d1 62010000 		.4byte	.LASF114
 1882 06d5 03       		.byte	0x3
 1883 06d6 71       		.byte	0x71
 1884 06d7 20060000 		.4byte	0x620
 1885 06db 09       		.uleb128 0x9
 1886 06dc 04       		.byte	0x4
 1887 06dd E1060000 		.4byte	0x6e1
 1888 06e1 13       		.uleb128 0x13
 1889 06e2 A2000000 		.4byte	0xa2
 1890 06e6 17       		.uleb128 0x17
 1891 06e7 40060000 		.4byte	.LASF117
 1892 06eb 04       		.byte	0x4
 1893 06ec 2202     		.2byte	0x222
 1894 06ee 03       		.byte	0x3
 1895 06ef 00070000 		.4byte	0x700
 1896 06f3 18       		.uleb128 0x18
 1897 06f4 FE010000 		.4byte	.LASF119
 1898 06f8 04       		.byte	0x4
 1899 06f9 2202     		.2byte	0x222
 1900 06fb B8000000 		.4byte	0xb8
 1901 06ff 00       		.byte	0
 1902 0700 19       		.uleb128 0x19
 1903 0701 89000000 		.4byte	.LASF115
 1904 0705 0B       		.byte	0xb
 1905 0706 C801     		.2byte	0x1c8
 1906 0708 03       		.byte	0x3
 1907 0709 19       		.uleb128 0x19
 1908 070a 56010000 		.4byte	.LASF116
 1909 070e 0B       		.byte	0xb
 1910 070f E001     		.2byte	0x1e0
 1911 0711 03       		.byte	0x3
 1912 0712 17       		.uleb128 0x17
 1913 0713 7E000000 		.4byte	.LASF118
 1914 0717 02       		.byte	0x2
 1915 0718 5C02     		.2byte	0x25c
 1916 071a 03       		.byte	0x3
 1917 071b 2C070000 		.4byte	0x72c
 1918 071f 1A       		.uleb128 0x1a
 1919 0720 74717000 		.ascii	"tqp\000"
 1920 0724 02       		.byte	0x2
 1921 0725 5C02     		.2byte	0x25c
 1922 0727 2C070000 		.4byte	0x72c
 1923 072b 00       		.byte	0
 1924 072c 09       		.uleb128 0x9
 1925 072d 04       		.byte	0x4
ARM GAS  /tmp/ccfWD8TF.s 			page 35


 1926 072e 51020000 		.4byte	0x251
 1927 0732 17       		.uleb128 0x17
 1928 0733 F9020000 		.4byte	.LASF120
 1929 0737 0F       		.byte	0xf
 1930 0738 1601     		.2byte	0x116
 1931 073a 03       		.byte	0x3
 1932 073b 4C070000 		.4byte	0x74c
 1933 073f 1A       		.uleb128 0x1a
 1934 0740 74717000 		.ascii	"tqp\000"
 1935 0744 0F       		.byte	0xf
 1936 0745 1601     		.2byte	0x116
 1937 0747 2C070000 		.4byte	0x72c
 1938 074b 00       		.byte	0
 1939 074c 1B       		.uleb128 0x1b
 1940 074d AE040000 		.4byte	.LASF124
 1941 0751 03       		.byte	0x3
 1942 0752 4001     		.2byte	0x140
 1943 0754 6A070000 		.4byte	0x76a
 1944 0758 03       		.byte	0x3
 1945 0759 6A070000 		.4byte	0x76a
 1946 075d 1A       		.uleb128 0x1a
 1947 075e 69717000 		.ascii	"iqp\000"
 1948 0762 03       		.byte	0x3
 1949 0763 4001     		.2byte	0x140
 1950 0765 71070000 		.4byte	0x771
 1951 0769 00       		.byte	0
 1952 076a 04       		.uleb128 0x4
 1953 076b 01       		.byte	0x1
 1954 076c 02       		.byte	0x2
 1955 076d FA030000 		.4byte	.LASF121
 1956 0771 09       		.uleb128 0x9
 1957 0772 04       		.byte	0x4
 1958 0773 C5060000 		.4byte	0x6c5
 1959 0777 19       		.uleb128 0x19
 1960 0778 6B040000 		.4byte	.LASF122
 1961 077c 10       		.byte	0x10
 1962 077d 5A01     		.2byte	0x15a
 1963 077f 03       		.byte	0x3
 1964 0780 17       		.uleb128 0x17
 1965 0781 F9060000 		.4byte	.LASF123
 1966 0785 10       		.byte	0x10
 1967 0786 6601     		.2byte	0x166
 1968 0788 03       		.byte	0x3
 1969 0789 9B070000 		.4byte	0x79b
 1970 078d 1C       		.uleb128 0x1c
 1971 078e 62040000 		.4byte	.LASF143
 1972 0792 AB070000 		.4byte	0x7ab
 1973 0796 F9060000 		.4byte	.LASF123
 1974 079a 00       		.byte	0
 1975 079b 15       		.uleb128 0x15
 1976 079c ED050000 		.4byte	0x5ed
 1977 07a0 AB070000 		.4byte	0x7ab
 1978 07a4 16       		.uleb128 0x16
 1979 07a5 3A040000 		.4byte	0x43a
 1980 07a9 0B       		.byte	0xb
 1981 07aa 00       		.byte	0
 1982 07ab 13       		.uleb128 0x13
ARM GAS  /tmp/ccfWD8TF.s 			page 36


 1983 07ac 9B070000 		.4byte	0x79b
 1984 07b0 1B       		.uleb128 0x1b
 1985 07b1 A6060000 		.4byte	.LASF125
 1986 07b5 03       		.byte	0x3
 1987 07b6 2F01     		.2byte	0x12f
 1988 07b8 6A070000 		.4byte	0x76a
 1989 07bc 03       		.byte	0x3
 1990 07bd CE070000 		.4byte	0x7ce
 1991 07c1 1A       		.uleb128 0x1a
 1992 07c2 69717000 		.ascii	"iqp\000"
 1993 07c6 03       		.byte	0x3
 1994 07c7 2F01     		.2byte	0x12f
 1995 07c9 71070000 		.4byte	0x771
 1996 07cd 00       		.byte	0
 1997 07ce 1B       		.uleb128 0x1b
 1998 07cf CE030000 		.4byte	.LASF126
 1999 07d3 03       		.byte	0x3
 2000 07d4 9701     		.2byte	0x197
 2001 07d6 6A070000 		.4byte	0x76a
 2002 07da 03       		.byte	0x3
 2003 07db EC070000 		.4byte	0x7ec
 2004 07df 1A       		.uleb128 0x1a
 2005 07e0 6F717000 		.ascii	"oqp\000"
 2006 07e4 03       		.byte	0x3
 2007 07e5 9701     		.2byte	0x197
 2008 07e7 EC070000 		.4byte	0x7ec
 2009 07eb 00       		.byte	0
 2010 07ec 09       		.uleb128 0x9
 2011 07ed 04       		.byte	0x4
 2012 07ee D0060000 		.4byte	0x6d0
 2013 07f2 1B       		.uleb128 0x1b
 2014 07f3 DD060000 		.4byte	.LASF127
 2015 07f7 03       		.byte	0x3
 2016 07f8 8401     		.2byte	0x184
 2017 07fa 6A070000 		.4byte	0x76a
 2018 07fe 03       		.byte	0x3
 2019 07ff 10080000 		.4byte	0x810
 2020 0803 1A       		.uleb128 0x1a
 2021 0804 6F717000 		.ascii	"oqp\000"
 2022 0808 03       		.byte	0x3
 2023 0809 8401     		.2byte	0x184
 2024 080b EC070000 		.4byte	0x7ec
 2025 080f 00       		.byte	0
 2026 0810 1D       		.uleb128 0x1d
 2027 0811 93000000 		.4byte	.LASF131
 2028 0815 01       		.byte	0x1
 2029 0816 57       		.byte	0x57
 2030 0817 00000000 		.4byte	.LFB241
 2031 081b 1E000000 		.4byte	.LFE241-.LFB241
 2032 081f 01       		.uleb128 0x1
 2033 0820 9C       		.byte	0x9c
 2034 0821 99080000 		.4byte	0x899
 2035 0825 1E       		.uleb128 0x1e
 2036 0826 69717000 		.ascii	"iqp\000"
 2037 082a 01       		.byte	0x1
 2038 082b 57       		.byte	0x57
 2039 082c 71070000 		.4byte	0x771
ARM GAS  /tmp/ccfWD8TF.s 			page 37


 2040 0830 01       		.uleb128 0x1
 2041 0831 50       		.byte	0x50
 2042 0832 1E       		.uleb128 0x1e
 2043 0833 627000   		.ascii	"bp\000"
 2044 0836 01       		.byte	0x1
 2045 0837 57       		.byte	0x57
 2046 0838 BF060000 		.4byte	0x6bf
 2047 083c 01       		.uleb128 0x1
 2048 083d 51       		.byte	0x51
 2049 083e 1F       		.uleb128 0x1f
 2050 083f D8060000 		.4byte	.LASF128
 2051 0843 01       		.byte	0x1
 2052 0844 57       		.byte	0x57
 2053 0845 2C000000 		.4byte	0x2c
 2054 0849 00000000 		.4byte	.LLST0
 2055 084d 20       		.uleb128 0x20
 2056 084e 55040000 		.4byte	.LASF129
 2057 0852 01       		.byte	0x1
 2058 0853 58       		.byte	0x58
 2059 0854 98060000 		.4byte	0x698
 2060 0858 01       		.uleb128 0x1
 2061 0859 53       		.byte	0x53
 2062 085a 1F       		.uleb128 0x1f
 2063 085b E8010000 		.4byte	.LASF130
 2064 085f 01       		.byte	0x1
 2065 0860 58       		.byte	0x58
 2066 0861 04030000 		.4byte	0x304
 2067 0865 21000000 		.4byte	.LLST1
 2068 0869 21       		.uleb128 0x21
 2069 086a 32070000 		.4byte	0x732
 2070 086e 0E000000 		.4byte	.LBB108
 2071 0872 04000000 		.4byte	.LBE108-.LBB108
 2072 0876 01       		.byte	0x1
 2073 0877 5A       		.byte	0x5a
 2074 0878 22       		.uleb128 0x22
 2075 0879 3F070000 		.4byte	0x73f
 2076 087d 01       		.uleb128 0x1
 2077 087e 50       		.byte	0x50
 2078 087f 23       		.uleb128 0x23
 2079 0880 12070000 		.4byte	0x712
 2080 0884 0E000000 		.4byte	.LBB109
 2081 0888 04000000 		.4byte	.LBE109-.LBB109
 2082 088c 0F       		.byte	0xf
 2083 088d 1801     		.2byte	0x118
 2084 088f 22       		.uleb128 0x22
 2085 0890 1F070000 		.4byte	0x71f
 2086 0894 01       		.uleb128 0x1
 2087 0895 50       		.byte	0x50
 2088 0896 00       		.byte	0
 2089 0897 00       		.byte	0
 2090 0898 00       		.byte	0
 2091 0899 1D       		.uleb128 0x1d
 2092 089a 37020000 		.4byte	.LASF132
 2093 089e 01       		.byte	0x1
 2094 089f 6F       		.byte	0x6f
 2095 08a0 00000000 		.4byte	.LFB242
 2096 08a4 12000000 		.4byte	.LFE242-.LFB242
ARM GAS  /tmp/ccfWD8TF.s 			page 38


 2097 08a8 01       		.uleb128 0x1
 2098 08a9 9C       		.byte	0x9c
 2099 08aa D5080000 		.4byte	0x8d5
 2100 08ae 24       		.uleb128 0x24
 2101 08af 69717000 		.ascii	"iqp\000"
 2102 08b3 01       		.byte	0x1
 2103 08b4 6F       		.byte	0x6f
 2104 08b5 71070000 		.4byte	0x771
 2105 08b9 41000000 		.4byte	.LLST2
 2106 08bd 25       		.uleb128 0x25
 2107 08be 12000000 		.4byte	.LVL4
 2108 08c2 0E110000 		.4byte	0x110e
 2109 08c6 26       		.uleb128 0x26
 2110 08c7 01       		.uleb128 0x1
 2111 08c8 51       		.byte	0x51
 2112 08c9 02       		.uleb128 0x2
 2113 08ca 09       		.byte	0x9
 2114 08cb FE       		.byte	0xfe
 2115 08cc 26       		.uleb128 0x26
 2116 08cd 01       		.uleb128 0x1
 2117 08ce 50       		.byte	0x50
 2118 08cf 03       		.uleb128 0x3
 2119 08d0 F3       		.byte	0xf3
 2120 08d1 01       		.uleb128 0x1
 2121 08d2 50       		.byte	0x50
 2122 08d3 00       		.byte	0
 2123 08d4 00       		.byte	0
 2124 08d5 27       		.uleb128 0x27
 2125 08d6 ED010000 		.4byte	.LASF133
 2126 08da 01       		.byte	0x1
 2127 08db 86       		.byte	0x86
 2128 08dc 05010000 		.4byte	0x105
 2129 08e0 00000000 		.4byte	.LFB243
 2130 08e4 38000000 		.4byte	.LFE243-.LFB243
 2131 08e8 01       		.uleb128 0x1
 2132 08e9 9C       		.byte	0x9c
 2133 08ea 37090000 		.4byte	0x937
 2134 08ee 24       		.uleb128 0x24
 2135 08ef 69717000 		.ascii	"iqp\000"
 2136 08f3 01       		.byte	0x1
 2137 08f4 86       		.byte	0x86
 2138 08f5 71070000 		.4byte	0x771
 2139 08f9 62000000 		.4byte	.LLST3
 2140 08fd 24       		.uleb128 0x24
 2141 08fe 6200     		.ascii	"b\000"
 2142 0900 01       		.byte	0x1
 2143 0901 86       		.byte	0x86
 2144 0902 A2000000 		.4byte	0xa2
 2145 0906 9C000000 		.4byte	.LLST4
 2146 090a 28       		.uleb128 0x28
 2147 090b 4C070000 		.4byte	0x74c
 2148 090f 00000000 		.4byte	.LBB111
 2149 0913 00000000 		.4byte	.Ldebug_ranges0+0
 2150 0917 01       		.byte	0x1
 2151 0918 8A       		.byte	0x8a
 2152 0919 27090000 		.4byte	0x927
 2153 091d 29       		.uleb128 0x29
ARM GAS  /tmp/ccfWD8TF.s 			page 39


 2154 091e 5D070000 		.4byte	0x75d
 2155 0922 62000000 		.4byte	.LLST3
 2156 0926 00       		.byte	0
 2157 0927 2A       		.uleb128 0x2a
 2158 0928 28000000 		.4byte	.LVL7
 2159 092c 24110000 		.4byte	0x1124
 2160 0930 26       		.uleb128 0x26
 2161 0931 01       		.uleb128 0x1
 2162 0932 51       		.byte	0x51
 2163 0933 01       		.uleb128 0x1
 2164 0934 30       		.byte	0x30
 2165 0935 00       		.byte	0
 2166 0936 00       		.byte	0
 2167 0937 27       		.uleb128 0x27
 2168 0938 22070000 		.4byte	.LASF134
 2169 093c 01       		.byte	0x1
 2170 093d AD       		.byte	0xad
 2171 093e 05010000 		.4byte	0x105
 2172 0942 00000000 		.4byte	.LFB244
 2173 0946 50000000 		.4byte	.LFE244-.LFB244
 2174 094a 01       		.uleb128 0x1
 2175 094b 9C       		.byte	0x9c
 2176 094c 9C0A0000 		.4byte	0xa9c
 2177 0950 24       		.uleb128 0x24
 2178 0951 69717000 		.ascii	"iqp\000"
 2179 0955 01       		.byte	0x1
 2180 0956 AD       		.byte	0xad
 2181 0957 71070000 		.4byte	0x771
 2182 095b C8000000 		.4byte	.LLST6
 2183 095f 1F       		.uleb128 0x1f
 2184 0960 54020000 		.4byte	.LASF135
 2185 0964 01       		.byte	0x1
 2186 0965 AD       		.byte	0xad
 2187 0966 26010000 		.4byte	0x126
 2188 096a 12010000 		.4byte	.LLST7
 2189 096e 2B       		.uleb128 0x2b
 2190 096f 6200     		.ascii	"b\000"
 2191 0971 01       		.byte	0x1
 2192 0972 AE       		.byte	0xae
 2193 0973 A2000000 		.4byte	0xa2
 2194 0977 5C010000 		.4byte	.LLST8
 2195 097b 28       		.uleb128 0x28
 2196 097c 77070000 		.4byte	0x777
 2197 0980 02000000 		.4byte	.LBB117
 2198 0984 20000000 		.4byte	.Ldebug_ranges0+0x20
 2199 0988 01       		.byte	0x1
 2200 0989 B0       		.byte	0xb0
 2201 098a B7090000 		.4byte	0x9b7
 2202 098e 2C       		.uleb128 0x2c
 2203 098f 00070000 		.4byte	0x700
 2204 0993 02000000 		.4byte	.LBB118
 2205 0997 20000000 		.4byte	.Ldebug_ranges0+0x20
 2206 099b 10       		.byte	0x10
 2207 099c 5C01     		.2byte	0x15c
 2208 099e 2C       		.uleb128 0x2c
 2209 099f E6060000 		.4byte	0x6e6
 2210 09a3 02000000 		.4byte	.LBB119
ARM GAS  /tmp/ccfWD8TF.s 			page 40


 2211 09a7 20000000 		.4byte	.Ldebug_ranges0+0x20
 2212 09ab 0B       		.byte	0xb
 2213 09ac D001     		.2byte	0x1d0
 2214 09ae 2D       		.uleb128 0x2d
 2215 09af F3060000 		.4byte	0x6f3
 2216 09b3 20       		.byte	0x20
 2217 09b4 00       		.byte	0
 2218 09b5 00       		.byte	0
 2219 09b6 00       		.byte	0
 2220 09b7 2E       		.uleb128 0x2e
 2221 09b8 38000000 		.4byte	.Ldebug_ranges0+0x38
 2222 09bc 240A0000 		.4byte	0xa24
 2223 09c0 2B       		.uleb128 0x2b
 2224 09c1 6D736700 		.ascii	"msg\000"
 2225 09c5 01       		.byte	0x1
 2226 09c6 B6       		.byte	0xb6
 2227 09c7 05010000 		.4byte	0x105
 2228 09cb 7B010000 		.4byte	.LLST9
 2229 09cf 2F       		.uleb128 0x2f
 2230 09d0 80070000 		.4byte	0x780
 2231 09d4 4A000000 		.4byte	.LBB126
 2232 09d8 04000000 		.4byte	.LBE126-.LBB126
 2233 09dc 01       		.byte	0x1
 2234 09dd B8       		.byte	0xb8
 2235 09de 1A0A0000 		.4byte	0xa1a
 2236 09e2 30       		.uleb128 0x30
 2237 09e3 4A000000 		.4byte	.LBB127
 2238 09e7 04000000 		.4byte	.LBE127-.LBB127
 2239 09eb 31       		.uleb128 0x31
 2240 09ec 8D070000 		.4byte	0x78d
 2241 09f0 23       		.uleb128 0x23
 2242 09f1 09070000 		.4byte	0x709
 2243 09f5 4A000000 		.4byte	.LBB128
 2244 09f9 04000000 		.4byte	.LBE128-.LBB128
 2245 09fd 10       		.byte	0x10
 2246 09fe 7301     		.2byte	0x173
 2247 0a00 23       		.uleb128 0x23
 2248 0a01 E6060000 		.4byte	0x6e6
 2249 0a05 4A000000 		.4byte	.LBB129
 2250 0a09 04000000 		.4byte	.LBE129-.LBB129
 2251 0a0d 0B       		.byte	0xb
 2252 0a0e E301     		.2byte	0x1e3
 2253 0a10 2D       		.uleb128 0x2d
 2254 0a11 F3060000 		.4byte	0x6f3
 2255 0a15 00       		.byte	0
 2256 0a16 00       		.byte	0
 2257 0a17 00       		.byte	0
 2258 0a18 00       		.byte	0
 2259 0a19 00       		.byte	0
 2260 0a1a 32       		.uleb128 0x32
 2261 0a1b 18000000 		.4byte	.LVL13
 2262 0a1f 3A110000 		.4byte	0x113a
 2263 0a23 00       		.byte	0
 2264 0a24 2F       		.uleb128 0x2f
 2265 0a25 B0070000 		.4byte	0x7b0
 2266 0a29 1C000000 		.4byte	.LBB131
 2267 0a2d 02000000 		.4byte	.LBE131-.LBB131
ARM GAS  /tmp/ccfWD8TF.s 			page 41


 2268 0a31 01       		.byte	0x1
 2269 0a32 B5       		.byte	0xb5
 2270 0a33 410A0000 		.4byte	0xa41
 2271 0a37 29       		.uleb128 0x29
 2272 0a38 C1070000 		.4byte	0x7c1
 2273 0a3c 99010000 		.4byte	.LLST10
 2274 0a40 00       		.byte	0
 2275 0a41 2F       		.uleb128 0x2f
 2276 0a42 80070000 		.4byte	0x780
 2277 0a46 42000000 		.4byte	.LBB134
 2278 0a4a 06000000 		.4byte	.LBE134-.LBB134
 2279 0a4e 01       		.byte	0x1
 2280 0a4f C2       		.byte	0xc2
 2281 0a50 8F0A0000 		.4byte	0xa8f
 2282 0a54 30       		.uleb128 0x30
 2283 0a55 42000000 		.4byte	.LBB135
 2284 0a59 06000000 		.4byte	.LBE135-.LBB135
 2285 0a5d 31       		.uleb128 0x31
 2286 0a5e 8D070000 		.4byte	0x78d
 2287 0a62 23       		.uleb128 0x23
 2288 0a63 09070000 		.4byte	0x709
 2289 0a67 42000000 		.4byte	.LBB136
 2290 0a6b 06000000 		.4byte	.LBE136-.LBB136
 2291 0a6f 10       		.byte	0x10
 2292 0a70 7301     		.2byte	0x173
 2293 0a72 23       		.uleb128 0x23
 2294 0a73 E6060000 		.4byte	0x6e6
 2295 0a77 42000000 		.4byte	.LBB137
 2296 0a7b 06000000 		.4byte	.LBE137-.LBB137
 2297 0a7f 0B       		.byte	0xb
 2298 0a80 E301     		.2byte	0x1e3
 2299 0a82 29       		.uleb128 0x29
 2300 0a83 F3060000 		.4byte	0x6f3
 2301 0a87 CD010000 		.4byte	.LLST11
 2302 0a8b 00       		.byte	0
 2303 0a8c 00       		.byte	0
 2304 0a8d 00       		.byte	0
 2305 0a8e 00       		.byte	0
 2306 0a8f 33       		.uleb128 0x33
 2307 0a90 12000000 		.4byte	.LVL11
 2308 0a94 26       		.uleb128 0x26
 2309 0a95 01       		.uleb128 0x1
 2310 0a96 50       		.byte	0x50
 2311 0a97 02       		.uleb128 0x2
 2312 0a98 74       		.byte	0x74
 2313 0a99 00       		.sleb128 0
 2314 0a9a 00       		.byte	0
 2315 0a9b 00       		.byte	0
 2316 0a9c 27       		.uleb128 0x27
 2317 0a9d 6E000000 		.4byte	.LASF136
 2318 0aa1 01       		.byte	0x1
 2319 0aa2 DF       		.byte	0xdf
 2320 0aa3 2C000000 		.4byte	0x2c
 2321 0aa7 00000000 		.4byte	.LFB245
 2322 0aab 7A000000 		.4byte	.LFE245-.LFB245
 2323 0aaf 01       		.uleb128 0x1
 2324 0ab0 9C       		.byte	0x9c
ARM GAS  /tmp/ccfWD8TF.s 			page 42


 2325 0ab1 5F0C0000 		.4byte	0xc5f
 2326 0ab5 24       		.uleb128 0x24
 2327 0ab6 69717000 		.ascii	"iqp\000"
 2328 0aba 01       		.byte	0x1
 2329 0abb DF       		.byte	0xdf
 2330 0abc 71070000 		.4byte	0x771
 2331 0ac0 E1010000 		.4byte	.LLST12
 2332 0ac4 24       		.uleb128 0x24
 2333 0ac5 627000   		.ascii	"bp\000"
 2334 0ac8 01       		.byte	0x1
 2335 0ac9 DF       		.byte	0xdf
 2336 0aca BF060000 		.4byte	0x6bf
 2337 0ace 2B020000 		.4byte	.LLST13
 2338 0ad2 24       		.uleb128 0x24
 2339 0ad3 6E00     		.ascii	"n\000"
 2340 0ad5 01       		.byte	0x1
 2341 0ad6 E0       		.byte	0xe0
 2342 0ad7 2C000000 		.4byte	0x2c
 2343 0adb 84020000 		.4byte	.LLST14
 2344 0adf 1F       		.uleb128 0x1f
 2345 0ae0 54020000 		.4byte	.LASF135
 2346 0ae4 01       		.byte	0x1
 2347 0ae5 E0       		.byte	0xe0
 2348 0ae6 26010000 		.4byte	0x126
 2349 0aea A8020000 		.4byte	.LLST15
 2350 0aee 34       		.uleb128 0x34
 2351 0aef 6E667900 		.ascii	"nfy\000"
 2352 0af3 01       		.byte	0x1
 2353 0af4 E1       		.byte	0xe1
 2354 0af5 98060000 		.4byte	0x698
 2355 0af9 01       		.uleb128 0x1
 2356 0afa 58       		.byte	0x58
 2357 0afb 2B       		.uleb128 0x2b
 2358 0afc 7200     		.ascii	"r\000"
 2359 0afe 01       		.byte	0x1
 2360 0aff E2       		.byte	0xe2
 2361 0b00 2C000000 		.4byte	0x2c
 2362 0b04 F2020000 		.4byte	.LLST16
 2363 0b08 35       		.uleb128 0x35
 2364 0b09 62040000 		.4byte	.LASF143
 2365 0b0d 6F0C0000 		.4byte	0xc6f
 2366 0b11 2F       		.uleb128 0x2f
 2367 0b12 77070000 		.4byte	0x777
 2368 0b16 0C000000 		.4byte	.LBB140
 2369 0b1a 08000000 		.4byte	.LBE140-.LBB140
 2370 0b1e 01       		.byte	0x1
 2371 0b1f E6       		.byte	0xe6
 2372 0b20 4D0B0000 		.4byte	0xb4d
 2373 0b24 23       		.uleb128 0x23
 2374 0b25 00070000 		.4byte	0x700
 2375 0b29 0C000000 		.4byte	.LBB141
 2376 0b2d 08000000 		.4byte	.LBE141-.LBB141
 2377 0b31 10       		.byte	0x10
 2378 0b32 5C01     		.2byte	0x15c
 2379 0b34 23       		.uleb128 0x23
 2380 0b35 E6060000 		.4byte	0x6e6
 2381 0b39 0C000000 		.4byte	.LBB142
ARM GAS  /tmp/ccfWD8TF.s 			page 43


 2382 0b3d 08000000 		.4byte	.LBE142-.LBB142
 2383 0b41 0B       		.byte	0xb
 2384 0b42 D001     		.2byte	0x1d0
 2385 0b44 2D       		.uleb128 0x2d
 2386 0b45 F3060000 		.4byte	0x6f3
 2387 0b49 20       		.byte	0x20
 2388 0b4a 00       		.byte	0
 2389 0b4b 00       		.byte	0
 2390 0b4c 00       		.byte	0
 2391 0b4d 2F       		.uleb128 0x2f
 2392 0b4e B0070000 		.4byte	0x7b0
 2393 0b52 30000000 		.4byte	.LBB144
 2394 0b56 02000000 		.4byte	.LBE144-.LBB144
 2395 0b5a 01       		.byte	0x1
 2396 0b5b EC       		.byte	0xec
 2397 0b5c 6A0B0000 		.4byte	0xb6a
 2398 0b60 29       		.uleb128 0x29
 2399 0b61 C1070000 		.4byte	0x7c1
 2400 0b65 11030000 		.4byte	.LLST17
 2401 0b69 00       		.byte	0
 2402 0b6a 2F       		.uleb128 0x2f
 2403 0b6b 80070000 		.4byte	0x780
 2404 0b6f 58000000 		.4byte	.LBB146
 2405 0b73 06000000 		.4byte	.LBE146-.LBB146
 2406 0b77 01       		.byte	0x1
 2407 0b78 F8       		.byte	0xf8
 2408 0b79 B80B0000 		.4byte	0xbb8
 2409 0b7d 30       		.uleb128 0x30
 2410 0b7e 58000000 		.4byte	.LBB147
 2411 0b82 06000000 		.4byte	.LBE147-.LBB147
 2412 0b86 31       		.uleb128 0x31
 2413 0b87 8D070000 		.4byte	0x78d
 2414 0b8b 23       		.uleb128 0x23
 2415 0b8c 09070000 		.4byte	0x709
 2416 0b90 58000000 		.4byte	.LBB148
 2417 0b94 06000000 		.4byte	.LBE148-.LBB148
 2418 0b98 10       		.byte	0x10
 2419 0b99 7301     		.2byte	0x173
 2420 0b9b 23       		.uleb128 0x23
 2421 0b9c E6060000 		.4byte	0x6e6
 2422 0ba0 58000000 		.4byte	.LBB149
 2423 0ba4 06000000 		.4byte	.LBE149-.LBB149
 2424 0ba8 0B       		.byte	0xb
 2425 0ba9 E301     		.2byte	0x1e3
 2426 0bab 29       		.uleb128 0x29
 2427 0bac F3060000 		.4byte	0x6f3
 2428 0bb0 45030000 		.4byte	.LLST18
 2429 0bb4 00       		.byte	0
 2430 0bb5 00       		.byte	0
 2431 0bb6 00       		.byte	0
 2432 0bb7 00       		.byte	0
 2433 0bb8 2F       		.uleb128 0x2f
 2434 0bb9 77070000 		.4byte	0x777
 2435 0bbd 66000000 		.4byte	.LBB151
 2436 0bc1 0A000000 		.4byte	.LBE151-.LBB151
 2437 0bc5 01       		.byte	0x1
 2438 0bc6 FF       		.byte	0xff
ARM GAS  /tmp/ccfWD8TF.s 			page 44


 2439 0bc7 F70B0000 		.4byte	0xbf7
 2440 0bcb 23       		.uleb128 0x23
 2441 0bcc 00070000 		.4byte	0x700
 2442 0bd0 66000000 		.4byte	.LBB152
 2443 0bd4 0A000000 		.4byte	.LBE152-.LBB152
 2444 0bd8 10       		.byte	0x10
 2445 0bd9 5C01     		.2byte	0x15c
 2446 0bdb 23       		.uleb128 0x23
 2447 0bdc E6060000 		.4byte	0x6e6
 2448 0be0 66000000 		.4byte	.LBB153
 2449 0be4 0A000000 		.4byte	.LBE153-.LBB153
 2450 0be8 0B       		.byte	0xb
 2451 0be9 D001     		.2byte	0x1d0
 2452 0beb 29       		.uleb128 0x29
 2453 0bec F3060000 		.4byte	0x6f3
 2454 0bf0 59030000 		.4byte	.LLST19
 2455 0bf4 00       		.byte	0
 2456 0bf5 00       		.byte	0
 2457 0bf6 00       		.byte	0
 2458 0bf7 2F       		.uleb128 0x2f
 2459 0bf8 80070000 		.4byte	0x780
 2460 0bfc 70000000 		.4byte	.LBB155
 2461 0c00 04000000 		.4byte	.LBE155-.LBB155
 2462 0c04 01       		.byte	0x1
 2463 0c05 EE       		.byte	0xee
 2464 0c06 450C0000 		.4byte	0xc45
 2465 0c0a 30       		.uleb128 0x30
 2466 0c0b 70000000 		.4byte	.LBB156
 2467 0c0f 04000000 		.4byte	.LBE156-.LBB156
 2468 0c13 31       		.uleb128 0x31
 2469 0c14 8D070000 		.4byte	0x78d
 2470 0c18 23       		.uleb128 0x23
 2471 0c19 09070000 		.4byte	0x709
 2472 0c1d 70000000 		.4byte	.LBB157
 2473 0c21 04000000 		.4byte	.LBE157-.LBB157
 2474 0c25 10       		.byte	0x10
 2475 0c26 7301     		.2byte	0x173
 2476 0c28 23       		.uleb128 0x23
 2477 0c29 E6060000 		.4byte	0x6e6
 2478 0c2d 70000000 		.4byte	.LBB158
 2479 0c31 04000000 		.4byte	.LBE158-.LBB158
 2480 0c35 0B       		.byte	0xb
 2481 0c36 E301     		.2byte	0x1e3
 2482 0c38 29       		.uleb128 0x29
 2483 0c39 F3060000 		.4byte	0x6f3
 2484 0c3d 6E030000 		.4byte	.LLST20
 2485 0c41 00       		.byte	0
 2486 0c42 00       		.byte	0
 2487 0c43 00       		.byte	0
 2488 0c44 00       		.byte	0
 2489 0c45 36       		.uleb128 0x36
 2490 0c46 28000000 		.4byte	.LVL25
 2491 0c4a 550C0000 		.4byte	0xc55
 2492 0c4e 26       		.uleb128 0x26
 2493 0c4f 01       		.uleb128 0x1
 2494 0c50 50       		.byte	0x50
 2495 0c51 02       		.uleb128 0x2
ARM GAS  /tmp/ccfWD8TF.s 			page 45


 2496 0c52 74       		.byte	0x74
 2497 0c53 00       		.sleb128 0
 2498 0c54 00       		.byte	0
 2499 0c55 32       		.uleb128 0x32
 2500 0c56 2E000000 		.4byte	.LVL27
 2501 0c5a 3A110000 		.4byte	0x113a
 2502 0c5e 00       		.byte	0
 2503 0c5f 15       		.uleb128 0x15
 2504 0c60 ED050000 		.4byte	0x5ed
 2505 0c64 6F0C0000 		.4byte	0xc6f
 2506 0c68 16       		.uleb128 0x16
 2507 0c69 3A040000 		.4byte	0x43a
 2508 0c6d 0F       		.byte	0xf
 2509 0c6e 00       		.byte	0
 2510 0c6f 13       		.uleb128 0x13
 2511 0c70 5F0C0000 		.4byte	0xc5f
 2512 0c74 37       		.uleb128 0x37
 2513 0c75 81060000 		.4byte	.LASF137
 2514 0c79 01       		.byte	0x1
 2515 0c7a 1301     		.2byte	0x113
 2516 0c7c 00000000 		.4byte	.LFB246
 2517 0c80 1C000000 		.4byte	.LFE246-.LFB246
 2518 0c84 01       		.uleb128 0x1
 2519 0c85 9C       		.byte	0x9c
 2520 0c86 020D0000 		.4byte	0xd02
 2521 0c8a 38       		.uleb128 0x38
 2522 0c8b 6F717000 		.ascii	"oqp\000"
 2523 0c8f 01       		.byte	0x1
 2524 0c90 1301     		.2byte	0x113
 2525 0c92 EC070000 		.4byte	0x7ec
 2526 0c96 01       		.uleb128 0x1
 2527 0c97 50       		.byte	0x50
 2528 0c98 38       		.uleb128 0x38
 2529 0c99 627000   		.ascii	"bp\000"
 2530 0c9c 01       		.byte	0x1
 2531 0c9d 1301     		.2byte	0x113
 2532 0c9f BF060000 		.4byte	0x6bf
 2533 0ca3 01       		.uleb128 0x1
 2534 0ca4 51       		.byte	0x51
 2535 0ca5 39       		.uleb128 0x39
 2536 0ca6 D8060000 		.4byte	.LASF128
 2537 0caa 01       		.byte	0x1
 2538 0cab 1301     		.2byte	0x113
 2539 0cad 2C000000 		.4byte	0x2c
 2540 0cb1 01       		.uleb128 0x1
 2541 0cb2 52       		.byte	0x52
 2542 0cb3 39       		.uleb128 0x39
 2543 0cb4 1C000000 		.4byte	.LASF138
 2544 0cb8 01       		.byte	0x1
 2545 0cb9 1401     		.2byte	0x114
 2546 0cbb 98060000 		.4byte	0x698
 2547 0cbf 01       		.uleb128 0x1
 2548 0cc0 53       		.byte	0x53
 2549 0cc1 3A       		.uleb128 0x3a
 2550 0cc2 E8010000 		.4byte	.LASF130
 2551 0cc6 01       		.byte	0x1
 2552 0cc7 1401     		.2byte	0x114
ARM GAS  /tmp/ccfWD8TF.s 			page 46


 2553 0cc9 04030000 		.4byte	0x304
 2554 0ccd 82030000 		.4byte	.LLST21
 2555 0cd1 23       		.uleb128 0x23
 2556 0cd2 32070000 		.4byte	0x732
 2557 0cd6 0A000000 		.4byte	.LBB160
 2558 0cda 04000000 		.4byte	.LBE160-.LBB160
 2559 0cde 01       		.byte	0x1
 2560 0cdf 1601     		.2byte	0x116
 2561 0ce1 22       		.uleb128 0x22
 2562 0ce2 3F070000 		.4byte	0x73f
 2563 0ce6 01       		.uleb128 0x1
 2564 0ce7 50       		.byte	0x50
 2565 0ce8 23       		.uleb128 0x23
 2566 0ce9 12070000 		.4byte	0x712
 2567 0ced 0A000000 		.4byte	.LBB161
 2568 0cf1 04000000 		.4byte	.LBE161-.LBB161
 2569 0cf5 0F       		.byte	0xf
 2570 0cf6 1801     		.2byte	0x118
 2571 0cf8 22       		.uleb128 0x22
 2572 0cf9 1F070000 		.4byte	0x71f
 2573 0cfd 01       		.uleb128 0x1
 2574 0cfe 50       		.byte	0x50
 2575 0cff 00       		.byte	0
 2576 0d00 00       		.byte	0
 2577 0d01 00       		.byte	0
 2578 0d02 37       		.uleb128 0x37
 2579 0d03 5F060000 		.4byte	.LASF139
 2580 0d07 01       		.byte	0x1
 2581 0d08 2B01     		.2byte	0x12b
 2582 0d0a 00000000 		.4byte	.LFB247
 2583 0d0e 1A000000 		.4byte	.LFE247-.LFB247
 2584 0d12 01       		.uleb128 0x1
 2585 0d13 9C       		.byte	0x9c
 2586 0d14 400D0000 		.4byte	0xd40
 2587 0d18 3B       		.uleb128 0x3b
 2588 0d19 6F717000 		.ascii	"oqp\000"
 2589 0d1d 01       		.byte	0x1
 2590 0d1e 2B01     		.2byte	0x12b
 2591 0d20 EC070000 		.4byte	0x7ec
 2592 0d24 A2030000 		.4byte	.LLST22
 2593 0d28 25       		.uleb128 0x25
 2594 0d29 1A000000 		.4byte	.LVL40
 2595 0d2d 0E110000 		.4byte	0x110e
 2596 0d31 26       		.uleb128 0x26
 2597 0d32 01       		.uleb128 0x1
 2598 0d33 51       		.byte	0x51
 2599 0d34 02       		.uleb128 0x2
 2600 0d35 09       		.byte	0x9
 2601 0d36 FE       		.byte	0xfe
 2602 0d37 26       		.uleb128 0x26
 2603 0d38 01       		.uleb128 0x1
 2604 0d39 50       		.byte	0x50
 2605 0d3a 03       		.uleb128 0x3
 2606 0d3b F3       		.byte	0xf3
 2607 0d3c 01       		.uleb128 0x1
 2608 0d3d 50       		.byte	0x50
 2609 0d3e 00       		.byte	0
ARM GAS  /tmp/ccfWD8TF.s 			page 47


 2610 0d3f 00       		.byte	0
 2611 0d40 3C       		.uleb128 0x3c
 2612 0d41 00000000 		.4byte	.LASF140
 2613 0d45 01       		.byte	0x1
 2614 0d46 4B01     		.2byte	0x14b
 2615 0d48 05010000 		.4byte	0x105
 2616 0d4c 00000000 		.4byte	.LFB248
 2617 0d50 52000000 		.4byte	.LFE248-.LFB248
 2618 0d54 01       		.uleb128 0x1
 2619 0d55 9C       		.byte	0x9c
 2620 0d56 AE0E0000 		.4byte	0xeae
 2621 0d5a 3B       		.uleb128 0x3b
 2622 0d5b 6F717000 		.ascii	"oqp\000"
 2623 0d5f 01       		.byte	0x1
 2624 0d60 4B01     		.2byte	0x14b
 2625 0d62 EC070000 		.4byte	0x7ec
 2626 0d66 C3030000 		.4byte	.LLST23
 2627 0d6a 3B       		.uleb128 0x3b
 2628 0d6b 6200     		.ascii	"b\000"
 2629 0d6d 01       		.byte	0x1
 2630 0d6e 4B01     		.2byte	0x14b
 2631 0d70 A2000000 		.4byte	0xa2
 2632 0d74 F7030000 		.4byte	.LLST24
 2633 0d78 3A       		.uleb128 0x3a
 2634 0d79 54020000 		.4byte	.LASF135
 2635 0d7d 01       		.byte	0x1
 2636 0d7e 4B01     		.2byte	0x14b
 2637 0d80 26010000 		.4byte	0x126
 2638 0d84 18040000 		.4byte	.LLST25
 2639 0d88 3D       		.uleb128 0x3d
 2640 0d89 77070000 		.4byte	0x777
 2641 0d8d 08000000 		.4byte	.LBB163
 2642 0d91 08000000 		.4byte	.LBE163-.LBB163
 2643 0d95 01       		.byte	0x1
 2644 0d96 4D01     		.2byte	0x14d
 2645 0d98 C50D0000 		.4byte	0xdc5
 2646 0d9c 23       		.uleb128 0x23
 2647 0d9d 00070000 		.4byte	0x700
 2648 0da1 08000000 		.4byte	.LBB164
 2649 0da5 08000000 		.4byte	.LBE164-.LBB164
 2650 0da9 10       		.byte	0x10
 2651 0daa 5C01     		.2byte	0x15c
 2652 0dac 23       		.uleb128 0x23
 2653 0dad E6060000 		.4byte	0x6e6
 2654 0db1 08000000 		.4byte	.LBB165
 2655 0db5 08000000 		.4byte	.LBE165-.LBB165
 2656 0db9 0B       		.byte	0xb
 2657 0dba D001     		.2byte	0x1d0
 2658 0dbc 2D       		.uleb128 0x2d
 2659 0dbd F3060000 		.4byte	0x6f3
 2660 0dc1 20       		.byte	0x20
 2661 0dc2 00       		.byte	0
 2662 0dc3 00       		.byte	0
 2663 0dc4 00       		.byte	0
 2664 0dc5 2E       		.uleb128 0x2e
 2665 0dc6 58000000 		.4byte	.Ldebug_ranges0+0x58
 2666 0dca 340E0000 		.4byte	0xe34
ARM GAS  /tmp/ccfWD8TF.s 			page 48


 2667 0dce 3E       		.uleb128 0x3e
 2668 0dcf 6D736700 		.ascii	"msg\000"
 2669 0dd3 01       		.byte	0x1
 2670 0dd4 4F01     		.2byte	0x14f
 2671 0dd6 05010000 		.4byte	0x105
 2672 0dda 57040000 		.4byte	.LLST26
 2673 0dde 3D       		.uleb128 0x3d
 2674 0ddf 80070000 		.4byte	0x780
 2675 0de3 4C000000 		.4byte	.LBB168
 2676 0de7 04000000 		.4byte	.LBE168-.LBB168
 2677 0deb 01       		.byte	0x1
 2678 0dec 5101     		.2byte	0x151
 2679 0dee 2A0E0000 		.4byte	0xe2a
 2680 0df2 30       		.uleb128 0x30
 2681 0df3 4C000000 		.4byte	.LBB169
 2682 0df7 04000000 		.4byte	.LBE169-.LBB169
 2683 0dfb 31       		.uleb128 0x31
 2684 0dfc 8D070000 		.4byte	0x78d
 2685 0e00 23       		.uleb128 0x23
 2686 0e01 09070000 		.4byte	0x709
 2687 0e05 4C000000 		.4byte	.LBB170
 2688 0e09 04000000 		.4byte	.LBE170-.LBB170
 2689 0e0d 10       		.byte	0x10
 2690 0e0e 7301     		.2byte	0x173
 2691 0e10 23       		.uleb128 0x23
 2692 0e11 E6060000 		.4byte	0x6e6
 2693 0e15 4C000000 		.4byte	.LBB171
 2694 0e19 04000000 		.4byte	.LBE171-.LBB171
 2695 0e1d 0B       		.byte	0xb
 2696 0e1e E301     		.2byte	0x1e3
 2697 0e20 2D       		.uleb128 0x2d
 2698 0e21 F3060000 		.4byte	0x6f3
 2699 0e25 00       		.byte	0
 2700 0e26 00       		.byte	0
 2701 0e27 00       		.byte	0
 2702 0e28 00       		.byte	0
 2703 0e29 00       		.byte	0
 2704 0e2a 32       		.uleb128 0x32
 2705 0e2b 14000000 		.4byte	.LVL43
 2706 0e2f 3A110000 		.4byte	0x113a
 2707 0e33 00       		.byte	0
 2708 0e34 3D       		.uleb128 0x3d
 2709 0e35 CE070000 		.4byte	0x7ce
 2710 0e39 18000000 		.4byte	.LBB173
 2711 0e3d 02000000 		.4byte	.LBE173-.LBB173
 2712 0e41 01       		.byte	0x1
 2713 0e42 4E01     		.2byte	0x14e
 2714 0e44 520E0000 		.4byte	0xe52
 2715 0e48 29       		.uleb128 0x29
 2716 0e49 DF070000 		.4byte	0x7df
 2717 0e4d 75040000 		.4byte	.LLST27
 2718 0e51 00       		.byte	0
 2719 0e52 3D       		.uleb128 0x3d
 2720 0e53 80070000 		.4byte	0x780
 2721 0e57 44000000 		.4byte	.LBB176
 2722 0e5b 06000000 		.4byte	.LBE176-.LBB176
 2723 0e5f 01       		.byte	0x1
ARM GAS  /tmp/ccfWD8TF.s 			page 49


 2724 0e60 5F01     		.2byte	0x15f
 2725 0e62 A10E0000 		.4byte	0xea1
 2726 0e66 30       		.uleb128 0x30
 2727 0e67 44000000 		.4byte	.LBB177
 2728 0e6b 06000000 		.4byte	.LBE177-.LBB177
 2729 0e6f 31       		.uleb128 0x31
 2730 0e70 8D070000 		.4byte	0x78d
 2731 0e74 23       		.uleb128 0x23
 2732 0e75 09070000 		.4byte	0x709
 2733 0e79 44000000 		.4byte	.LBB178
 2734 0e7d 06000000 		.4byte	.LBE178-.LBB178
 2735 0e81 10       		.byte	0x10
 2736 0e82 7301     		.2byte	0x173
 2737 0e84 23       		.uleb128 0x23
 2738 0e85 E6060000 		.4byte	0x6e6
 2739 0e89 44000000 		.4byte	.LBB179
 2740 0e8d 06000000 		.4byte	.LBE179-.LBB179
 2741 0e91 0B       		.byte	0xb
 2742 0e92 E301     		.2byte	0x1e3
 2743 0e94 29       		.uleb128 0x29
 2744 0e95 F3060000 		.4byte	0x6f3
 2745 0e99 A9040000 		.4byte	.LLST28
 2746 0e9d 00       		.byte	0
 2747 0e9e 00       		.byte	0
 2748 0e9f 00       		.byte	0
 2749 0ea0 00       		.byte	0
 2750 0ea1 33       		.uleb128 0x33
 2751 0ea2 44000000 		.4byte	.LVL48
 2752 0ea6 26       		.uleb128 0x26
 2753 0ea7 01       		.uleb128 0x1
 2754 0ea8 50       		.byte	0x50
 2755 0ea9 02       		.uleb128 0x2
 2756 0eaa 74       		.byte	0x74
 2757 0eab 00       		.sleb128 0
 2758 0eac 00       		.byte	0
 2759 0ead 00       		.byte	0
 2760 0eae 3C       		.uleb128 0x3c
 2761 0eaf 93010000 		.4byte	.LASF141
 2762 0eb3 01       		.byte	0x1
 2763 0eb4 6E01     		.2byte	0x16e
 2764 0eb6 05010000 		.4byte	0x105
 2765 0eba 00000000 		.4byte	.LFB249
 2766 0ebe 36000000 		.4byte	.LFE249-.LFB249
 2767 0ec2 01       		.uleb128 0x1
 2768 0ec3 9C       		.byte	0x9c
 2769 0ec4 140F0000 		.4byte	0xf14
 2770 0ec8 3B       		.uleb128 0x3b
 2771 0ec9 6F717000 		.ascii	"oqp\000"
 2772 0ecd 01       		.byte	0x1
 2773 0ece 6E01     		.2byte	0x16e
 2774 0ed0 EC070000 		.4byte	0x7ec
 2775 0ed4 BD040000 		.4byte	.LLST29
 2776 0ed8 3E       		.uleb128 0x3e
 2777 0ed9 6200     		.ascii	"b\000"
 2778 0edb 01       		.byte	0x1
 2779 0edc 6F01     		.2byte	0x16f
 2780 0ede A2000000 		.4byte	0xa2
ARM GAS  /tmp/ccfWD8TF.s 			page 50


 2781 0ee2 F7040000 		.4byte	.LLST30
 2782 0ee6 3F       		.uleb128 0x3f
 2783 0ee7 F2070000 		.4byte	0x7f2
 2784 0eeb 00000000 		.4byte	.LBB182
 2785 0eef 78000000 		.4byte	.Ldebug_ranges0+0x78
 2786 0ef3 01       		.byte	0x1
 2787 0ef4 7301     		.2byte	0x173
 2788 0ef6 040F0000 		.4byte	0xf04
 2789 0efa 29       		.uleb128 0x29
 2790 0efb 03080000 		.4byte	0x803
 2791 0eff BD040000 		.4byte	.LLST29
 2792 0f03 00       		.byte	0
 2793 0f04 2A       		.uleb128 0x2a
 2794 0f05 26000000 		.4byte	.LVL54
 2795 0f09 24110000 		.4byte	0x1124
 2796 0f0d 26       		.uleb128 0x26
 2797 0f0e 01       		.uleb128 0x1
 2798 0f0f 51       		.byte	0x51
 2799 0f10 01       		.uleb128 0x1
 2800 0f11 30       		.byte	0x30
 2801 0f12 00       		.byte	0
 2802 0f13 00       		.byte	0
 2803 0f14 40       		.uleb128 0x40
 2804 0f15 E8020000 		.4byte	.LASF142
 2805 0f19 01       		.byte	0x1
 2806 0f1a 9A01     		.2byte	0x19a
 2807 0f1c 2C000000 		.4byte	0x2c
 2808 0f20 00000000 		.4byte	.LFB250
 2809 0f24 86000000 		.4byte	.LFE250-.LFB250
 2810 0f28 01       		.uleb128 0x1
 2811 0f29 9C       		.byte	0x9c
 2812 0f2a DD100000 		.4byte	0x10dd
 2813 0f2e 3B       		.uleb128 0x3b
 2814 0f2f 6F717000 		.ascii	"oqp\000"
 2815 0f33 01       		.byte	0x1
 2816 0f34 9A01     		.2byte	0x19a
 2817 0f36 EC070000 		.4byte	0x7ec
 2818 0f3a 22050000 		.4byte	.LLST32
 2819 0f3e 3B       		.uleb128 0x3b
 2820 0f3f 627000   		.ascii	"bp\000"
 2821 0f42 01       		.byte	0x1
 2822 0f43 9A01     		.2byte	0x19a
 2823 0f45 DB060000 		.4byte	0x6db
 2824 0f49 6C050000 		.4byte	.LLST33
 2825 0f4d 3B       		.uleb128 0x3b
 2826 0f4e 6E00     		.ascii	"n\000"
 2827 0f50 01       		.byte	0x1
 2828 0f51 9B01     		.2byte	0x19b
 2829 0f53 2C000000 		.4byte	0x2c
 2830 0f57 AB050000 		.4byte	.LLST34
 2831 0f5b 3A       		.uleb128 0x3a
 2832 0f5c 54020000 		.4byte	.LASF135
 2833 0f60 01       		.byte	0x1
 2834 0f61 9B01     		.2byte	0x19b
 2835 0f63 26010000 		.4byte	0x126
 2836 0f67 E1050000 		.4byte	.LLST35
 2837 0f6b 41       		.uleb128 0x41
ARM GAS  /tmp/ccfWD8TF.s 			page 51


 2838 0f6c 6E667900 		.ascii	"nfy\000"
 2839 0f70 01       		.byte	0x1
 2840 0f71 9C01     		.2byte	0x19c
 2841 0f73 98060000 		.4byte	0x698
 2842 0f77 01       		.uleb128 0x1
 2843 0f78 58       		.byte	0x58
 2844 0f79 3E       		.uleb128 0x3e
 2845 0f7a 7700     		.ascii	"w\000"
 2846 0f7c 01       		.byte	0x1
 2847 0f7d 9D01     		.2byte	0x19d
 2848 0f7f 2C000000 		.4byte	0x2c
 2849 0f83 00060000 		.4byte	.LLST36
 2850 0f87 35       		.uleb128 0x35
 2851 0f88 62040000 		.4byte	.LASF143
 2852 0f8c ED100000 		.4byte	0x10ed
 2853 0f90 3D       		.uleb128 0x3d
 2854 0f91 77070000 		.4byte	0x777
 2855 0f95 12000000 		.4byte	.LBB188
 2856 0f99 08000000 		.4byte	.LBE188-.LBB188
 2857 0f9d 01       		.byte	0x1
 2858 0f9e A101     		.2byte	0x1a1
 2859 0fa0 CD0F0000 		.4byte	0xfcd
 2860 0fa4 23       		.uleb128 0x23
 2861 0fa5 00070000 		.4byte	0x700
 2862 0fa9 12000000 		.4byte	.LBB189
 2863 0fad 08000000 		.4byte	.LBE189-.LBB189
 2864 0fb1 10       		.byte	0x10
 2865 0fb2 5C01     		.2byte	0x15c
 2866 0fb4 23       		.uleb128 0x23
 2867 0fb5 E6060000 		.4byte	0x6e6
 2868 0fb9 12000000 		.4byte	.LBB190
 2869 0fbd 08000000 		.4byte	.LBE190-.LBB190
 2870 0fc1 0B       		.byte	0xb
 2871 0fc2 D001     		.2byte	0x1d0
 2872 0fc4 2D       		.uleb128 0x2d
 2873 0fc5 F3060000 		.4byte	0x6f3
 2874 0fc9 20       		.byte	0x20
 2875 0fca 00       		.byte	0
 2876 0fcb 00       		.byte	0
 2877 0fcc 00       		.byte	0
 2878 0fcd 3F       		.uleb128 0x3f
 2879 0fce 80070000 		.4byte	0x780
 2880 0fd2 1C000000 		.4byte	.LBB192
 2881 0fd6 98000000 		.4byte	.Ldebug_ranges0+0x98
 2882 0fda 01       		.byte	0x1
 2883 0fdb B301     		.2byte	0x1b3
 2884 0fdd 18100000 		.4byte	0x1018
 2885 0fe1 42       		.uleb128 0x42
 2886 0fe2 98000000 		.4byte	.Ldebug_ranges0+0x98
 2887 0fe6 31       		.uleb128 0x31
 2888 0fe7 8D070000 		.4byte	0x78d
 2889 0feb 2C       		.uleb128 0x2c
 2890 0fec 09070000 		.4byte	0x709
 2891 0ff0 1C000000 		.4byte	.LBB194
 2892 0ff4 98000000 		.4byte	.Ldebug_ranges0+0x98
 2893 0ff8 10       		.byte	0x10
 2894 0ff9 7301     		.2byte	0x173
ARM GAS  /tmp/ccfWD8TF.s 			page 52


 2895 0ffb 2C       		.uleb128 0x2c
 2896 0ffc E6060000 		.4byte	0x6e6
 2897 1000 1C000000 		.4byte	.LBB195
 2898 1004 98000000 		.4byte	.Ldebug_ranges0+0x98
 2899 1008 0B       		.byte	0xb
 2900 1009 E301     		.2byte	0x1e3
 2901 100b 29       		.uleb128 0x29
 2902 100c F3060000 		.4byte	0x6f3
 2903 1010 1F060000 		.4byte	.LLST37
 2904 1014 00       		.byte	0
 2905 1015 00       		.byte	0
 2906 1016 00       		.byte	0
 2907 1017 00       		.byte	0
 2908 1018 3F       		.uleb128 0x3f
 2909 1019 CE070000 		.4byte	0x7ce
 2910 101d 1E000000 		.4byte	.LBB201
 2911 1021 B0000000 		.4byte	.Ldebug_ranges0+0xb0
 2912 1025 01       		.byte	0x1
 2913 1026 A301     		.2byte	0x1a3
 2914 1028 36100000 		.4byte	0x1036
 2915 102c 29       		.uleb128 0x29
 2916 102d DF070000 		.4byte	0x7df
 2917 1031 33060000 		.4byte	.LLST38
 2918 1035 00       		.byte	0
 2919 1036 3D       		.uleb128 0x3d
 2920 1037 77070000 		.4byte	0x777
 2921 103b 58000000 		.4byte	.LBB205
 2922 103f 04000000 		.4byte	.LBE205-.LBB205
 2923 1043 01       		.byte	0x1
 2924 1044 B901     		.2byte	0x1b9
 2925 1046 76100000 		.4byte	0x1076
 2926 104a 23       		.uleb128 0x23
 2927 104b 00070000 		.4byte	0x700
 2928 104f 58000000 		.4byte	.LBB206
 2929 1053 04000000 		.4byte	.LBE206-.LBB206
 2930 1057 10       		.byte	0x10
 2931 1058 5C01     		.2byte	0x15c
 2932 105a 23       		.uleb128 0x23
 2933 105b E6060000 		.4byte	0x6e6
 2934 105f 58000000 		.4byte	.LBB207
 2935 1063 04000000 		.4byte	.LBE207-.LBB207
 2936 1067 0B       		.byte	0xb
 2937 1068 D001     		.2byte	0x1d0
 2938 106a 29       		.uleb128 0x29
 2939 106b F3060000 		.4byte	0x6f3
 2940 106f 72060000 		.4byte	.LLST39
 2941 1073 00       		.byte	0
 2942 1074 00       		.byte	0
 2943 1075 00       		.byte	0
 2944 1076 3D       		.uleb128 0x3d
 2945 1077 80070000 		.4byte	0x780
 2946 107b 7A000000 		.4byte	.LBB210
 2947 107f 04000000 		.4byte	.LBE210-.LBB210
 2948 1083 01       		.byte	0x1
 2949 1084 A501     		.2byte	0x1a5
 2950 1086 C5100000 		.4byte	0x10c5
 2951 108a 30       		.uleb128 0x30
ARM GAS  /tmp/ccfWD8TF.s 			page 53


 2952 108b 7A000000 		.4byte	.LBB211
 2953 108f 04000000 		.4byte	.LBE211-.LBB211
 2954 1093 31       		.uleb128 0x31
 2955 1094 8D070000 		.4byte	0x78d
 2956 1098 23       		.uleb128 0x23
 2957 1099 09070000 		.4byte	0x709
 2958 109d 7A000000 		.4byte	.LBB212
 2959 10a1 04000000 		.4byte	.LBE212-.LBB212
 2960 10a5 10       		.byte	0x10
 2961 10a6 7301     		.2byte	0x173
 2962 10a8 23       		.uleb128 0x23
 2963 10a9 E6060000 		.4byte	0x6e6
 2964 10ad 7A000000 		.4byte	.LBB213
 2965 10b1 04000000 		.4byte	.LBE213-.LBB213
 2966 10b5 0B       		.byte	0xb
 2967 10b6 E301     		.2byte	0x1e3
 2968 10b8 29       		.uleb128 0x29
 2969 10b9 F3060000 		.4byte	0x6f3
 2970 10bd 87060000 		.4byte	.LLST40
 2971 10c1 00       		.byte	0
 2972 10c2 00       		.byte	0
 2973 10c3 00       		.byte	0
 2974 10c4 00       		.byte	0
 2975 10c5 2A       		.uleb128 0x2a
 2976 10c6 74000000 		.4byte	.LVL70
 2977 10ca 3A110000 		.4byte	0x113a
 2978 10ce 26       		.uleb128 0x26
 2979 10cf 01       		.uleb128 0x1
 2980 10d0 51       		.byte	0x51
 2981 10d1 03       		.uleb128 0x3
 2982 10d2 91       		.byte	0x91
 2983 10d3 54       		.sleb128 -44
 2984 10d4 06       		.byte	0x6
 2985 10d5 26       		.uleb128 0x26
 2986 10d6 01       		.uleb128 0x1
 2987 10d7 50       		.byte	0x50
 2988 10d8 02       		.uleb128 0x2
 2989 10d9 74       		.byte	0x74
 2990 10da 00       		.sleb128 0
 2991 10db 00       		.byte	0
 2992 10dc 00       		.byte	0
 2993 10dd 15       		.uleb128 0x15
 2994 10de ED050000 		.4byte	0x5ed
 2995 10e2 ED100000 		.4byte	0x10ed
 2996 10e6 16       		.uleb128 0x16
 2997 10e7 3A040000 		.4byte	0x43a
 2998 10eb 10       		.byte	0x10
 2999 10ec 00       		.byte	0
 3000 10ed 13       		.uleb128 0x13
 3001 10ee DD100000 		.4byte	0x10dd
 3002 10f2 43       		.uleb128 0x43
 3003 10f3 EB000000 		.4byte	.LASF144
 3004 10f7 11       		.byte	0x11
 3005 10f8 FA06     		.2byte	0x6fa
 3006 10fa FE100000 		.4byte	0x10fe
 3007 10fe 14       		.uleb128 0x14
 3008 10ff AD000000 		.4byte	0xad
ARM GAS  /tmp/ccfWD8TF.s 			page 54


 3009 1103 44       		.uleb128 0x44
 3010 1104 636800   		.ascii	"ch\000"
 3011 1107 02       		.byte	0x2
 3012 1108 0B02     		.2byte	0x20b
 3013 110a D3030000 		.4byte	0x3d3
 3014 110e 45       		.uleb128 0x45
 3015 110f 38000000 		.4byte	.LASF145
 3016 1113 0F       		.byte	0xf
 3017 1114 94       		.byte	0x94
 3018 1115 24110000 		.4byte	0x1124
 3019 1119 0C       		.uleb128 0xc
 3020 111a 2C070000 		.4byte	0x72c
 3021 111e 0C       		.uleb128 0xc
 3022 111f 05010000 		.4byte	0x105
 3023 1123 00       		.byte	0
 3024 1124 45       		.uleb128 0x45
 3025 1125 AD010000 		.4byte	.LASF146
 3026 1129 0F       		.byte	0xf
 3027 112a 93       		.byte	0x93
 3028 112b 3A110000 		.4byte	0x113a
 3029 112f 0C       		.uleb128 0xc
 3030 1130 2C070000 		.4byte	0x72c
 3031 1134 0C       		.uleb128 0xc
 3032 1135 05010000 		.4byte	0x105
 3033 1139 00       		.byte	0
 3034 113a 46       		.uleb128 0x46
 3035 113b 31070000 		.4byte	.LASF147
 3036 113f 0F       		.byte	0xf
 3037 1140 92       		.byte	0x92
 3038 1141 05010000 		.4byte	0x105
 3039 1145 0C       		.uleb128 0xc
 3040 1146 2C070000 		.4byte	0x72c
 3041 114a 0C       		.uleb128 0xc
 3042 114b 26010000 		.4byte	0x126
 3043 114f 00       		.byte	0
 3044 1150 00       		.byte	0
 3045              		.section	.debug_abbrev,"",%progbits
 3046              	.Ldebug_abbrev0:
 3047 0000 01       		.uleb128 0x1
 3048 0001 11       		.uleb128 0x11
 3049 0002 01       		.byte	0x1
 3050 0003 25       		.uleb128 0x25
 3051 0004 0E       		.uleb128 0xe
 3052 0005 13       		.uleb128 0x13
 3053 0006 0B       		.uleb128 0xb
 3054 0007 03       		.uleb128 0x3
 3055 0008 0E       		.uleb128 0xe
 3056 0009 1B       		.uleb128 0x1b
 3057 000a 0E       		.uleb128 0xe
 3058 000b 55       		.uleb128 0x55
 3059 000c 17       		.uleb128 0x17
 3060 000d 11       		.uleb128 0x11
 3061 000e 01       		.uleb128 0x1
 3062 000f 10       		.uleb128 0x10
 3063 0010 17       		.uleb128 0x17
 3064 0011 00       		.byte	0
 3065 0012 00       		.byte	0
ARM GAS  /tmp/ccfWD8TF.s 			page 55


 3066 0013 02       		.uleb128 0x2
 3067 0014 24       		.uleb128 0x24
 3068 0015 00       		.byte	0
 3069 0016 0B       		.uleb128 0xb
 3070 0017 0B       		.uleb128 0xb
 3071 0018 3E       		.uleb128 0x3e
 3072 0019 0B       		.uleb128 0xb
 3073 001a 03       		.uleb128 0x3
 3074 001b 08       		.uleb128 0x8
 3075 001c 00       		.byte	0
 3076 001d 00       		.byte	0
 3077 001e 03       		.uleb128 0x3
 3078 001f 16       		.uleb128 0x16
 3079 0020 00       		.byte	0
 3080 0021 03       		.uleb128 0x3
 3081 0022 0E       		.uleb128 0xe
 3082 0023 3A       		.uleb128 0x3a
 3083 0024 0B       		.uleb128 0xb
 3084 0025 3B       		.uleb128 0x3b
 3085 0026 0B       		.uleb128 0xb
 3086 0027 49       		.uleb128 0x49
 3087 0028 13       		.uleb128 0x13
 3088 0029 00       		.byte	0
 3089 002a 00       		.byte	0
 3090 002b 04       		.uleb128 0x4
 3091 002c 24       		.uleb128 0x24
 3092 002d 00       		.byte	0
 3093 002e 0B       		.uleb128 0xb
 3094 002f 0B       		.uleb128 0xb
 3095 0030 3E       		.uleb128 0x3e
 3096 0031 0B       		.uleb128 0xb
 3097 0032 03       		.uleb128 0x3
 3098 0033 0E       		.uleb128 0xe
 3099 0034 00       		.byte	0
 3100 0035 00       		.byte	0
 3101 0036 05       		.uleb128 0x5
 3102 0037 13       		.uleb128 0x13
 3103 0038 01       		.byte	0x1
 3104 0039 03       		.uleb128 0x3
 3105 003a 0E       		.uleb128 0xe
 3106 003b 0B       		.uleb128 0xb
 3107 003c 0B       		.uleb128 0xb
 3108 003d 3A       		.uleb128 0x3a
 3109 003e 0B       		.uleb128 0xb
 3110 003f 3B       		.uleb128 0x3b
 3111 0040 0B       		.uleb128 0xb
 3112 0041 01       		.uleb128 0x1
 3113 0042 13       		.uleb128 0x13
 3114 0043 00       		.byte	0
 3115 0044 00       		.byte	0
 3116 0045 06       		.uleb128 0x6
 3117 0046 0D       		.uleb128 0xd
 3118 0047 00       		.byte	0
 3119 0048 03       		.uleb128 0x3
 3120 0049 0E       		.uleb128 0xe
 3121 004a 3A       		.uleb128 0x3a
 3122 004b 0B       		.uleb128 0xb
ARM GAS  /tmp/ccfWD8TF.s 			page 56


 3123 004c 3B       		.uleb128 0x3b
 3124 004d 0B       		.uleb128 0xb
 3125 004e 49       		.uleb128 0x49
 3126 004f 13       		.uleb128 0x13
 3127 0050 38       		.uleb128 0x38
 3128 0051 0B       		.uleb128 0xb
 3129 0052 00       		.byte	0
 3130 0053 00       		.byte	0
 3131 0054 07       		.uleb128 0x7
 3132 0055 0D       		.uleb128 0xd
 3133 0056 00       		.byte	0
 3134 0057 03       		.uleb128 0x3
 3135 0058 08       		.uleb128 0x8
 3136 0059 3A       		.uleb128 0x3a
 3137 005a 0B       		.uleb128 0xb
 3138 005b 3B       		.uleb128 0x3b
 3139 005c 05       		.uleb128 0x5
 3140 005d 49       		.uleb128 0x49
 3141 005e 13       		.uleb128 0x13
 3142 005f 38       		.uleb128 0x38
 3143 0060 0B       		.uleb128 0xb
 3144 0061 00       		.byte	0
 3145 0062 00       		.byte	0
 3146 0063 08       		.uleb128 0x8
 3147 0064 0D       		.uleb128 0xd
 3148 0065 00       		.byte	0
 3149 0066 03       		.uleb128 0x3
 3150 0067 0E       		.uleb128 0xe
 3151 0068 3A       		.uleb128 0x3a
 3152 0069 0B       		.uleb128 0xb
 3153 006a 3B       		.uleb128 0x3b
 3154 006b 05       		.uleb128 0x5
 3155 006c 49       		.uleb128 0x49
 3156 006d 13       		.uleb128 0x13
 3157 006e 38       		.uleb128 0x38
 3158 006f 0B       		.uleb128 0xb
 3159 0070 00       		.byte	0
 3160 0071 00       		.byte	0
 3161 0072 09       		.uleb128 0x9
 3162 0073 0F       		.uleb128 0xf
 3163 0074 00       		.byte	0
 3164 0075 0B       		.uleb128 0xb
 3165 0076 0B       		.uleb128 0xb
 3166 0077 49       		.uleb128 0x49
 3167 0078 13       		.uleb128 0x13
 3168 0079 00       		.byte	0
 3169 007a 00       		.byte	0
 3170 007b 0A       		.uleb128 0xa
 3171 007c 13       		.uleb128 0x13
 3172 007d 01       		.byte	0x1
 3173 007e 03       		.uleb128 0x3
 3174 007f 0E       		.uleb128 0xe
 3175 0080 0B       		.uleb128 0xb
 3176 0081 0B       		.uleb128 0xb
 3177 0082 3A       		.uleb128 0x3a
 3178 0083 0B       		.uleb128 0xb
 3179 0084 3B       		.uleb128 0x3b
ARM GAS  /tmp/ccfWD8TF.s 			page 57


 3180 0085 05       		.uleb128 0x5
 3181 0086 01       		.uleb128 0x1
 3182 0087 13       		.uleb128 0x13
 3183 0088 00       		.byte	0
 3184 0089 00       		.byte	0
 3185 008a 0B       		.uleb128 0xb
 3186 008b 15       		.uleb128 0x15
 3187 008c 01       		.byte	0x1
 3188 008d 27       		.uleb128 0x27
 3189 008e 19       		.uleb128 0x19
 3190 008f 01       		.uleb128 0x1
 3191 0090 13       		.uleb128 0x13
 3192 0091 00       		.byte	0
 3193 0092 00       		.byte	0
 3194 0093 0C       		.uleb128 0xc
 3195 0094 05       		.uleb128 0x5
 3196 0095 00       		.byte	0
 3197 0096 49       		.uleb128 0x49
 3198 0097 13       		.uleb128 0x13
 3199 0098 00       		.byte	0
 3200 0099 00       		.byte	0
 3201 009a 0D       		.uleb128 0xd
 3202 009b 0F       		.uleb128 0xf
 3203 009c 00       		.byte	0
 3204 009d 0B       		.uleb128 0xb
 3205 009e 0B       		.uleb128 0xb
 3206 009f 00       		.byte	0
 3207 00a0 00       		.byte	0
 3208 00a1 0E       		.uleb128 0xe
 3209 00a2 13       		.uleb128 0x13
 3210 00a3 01       		.byte	0x1
 3211 00a4 03       		.uleb128 0x3
 3212 00a5 0E       		.uleb128 0xe
 3213 00a6 0B       		.uleb128 0xb
 3214 00a7 05       		.uleb128 0x5
 3215 00a8 3A       		.uleb128 0x3a
 3216 00a9 0B       		.uleb128 0xb
 3217 00aa 3B       		.uleb128 0x3b
 3218 00ab 05       		.uleb128 0x5
 3219 00ac 01       		.uleb128 0x1
 3220 00ad 13       		.uleb128 0x13
 3221 00ae 00       		.byte	0
 3222 00af 00       		.byte	0
 3223 00b0 0F       		.uleb128 0xf
 3224 00b1 0D       		.uleb128 0xd
 3225 00b2 00       		.byte	0
 3226 00b3 03       		.uleb128 0x3
 3227 00b4 08       		.uleb128 0x8
 3228 00b5 3A       		.uleb128 0x3a
 3229 00b6 0B       		.uleb128 0xb
 3230 00b7 3B       		.uleb128 0x3b
 3231 00b8 0B       		.uleb128 0xb
 3232 00b9 49       		.uleb128 0x49
 3233 00ba 13       		.uleb128 0x13
 3234 00bb 38       		.uleb128 0x38
 3235 00bc 0B       		.uleb128 0xb
 3236 00bd 00       		.byte	0
ARM GAS  /tmp/ccfWD8TF.s 			page 58


 3237 00be 00       		.byte	0
 3238 00bf 10       		.uleb128 0x10
 3239 00c0 13       		.uleb128 0x13
 3240 00c1 01       		.byte	0x1
 3241 00c2 0B       		.uleb128 0xb
 3242 00c3 0B       		.uleb128 0xb
 3243 00c4 3A       		.uleb128 0x3a
 3244 00c5 0B       		.uleb128 0xb
 3245 00c6 3B       		.uleb128 0x3b
 3246 00c7 0B       		.uleb128 0xb
 3247 00c8 01       		.uleb128 0x1
 3248 00c9 13       		.uleb128 0x13
 3249 00ca 00       		.byte	0
 3250 00cb 00       		.byte	0
 3251 00cc 11       		.uleb128 0x11
 3252 00cd 17       		.uleb128 0x17
 3253 00ce 01       		.byte	0x1
 3254 00cf 0B       		.uleb128 0xb
 3255 00d0 0B       		.uleb128 0xb
 3256 00d1 3A       		.uleb128 0x3a
 3257 00d2 0B       		.uleb128 0xb
 3258 00d3 3B       		.uleb128 0x3b
 3259 00d4 0B       		.uleb128 0xb
 3260 00d5 01       		.uleb128 0x1
 3261 00d6 13       		.uleb128 0x13
 3262 00d7 00       		.byte	0
 3263 00d8 00       		.byte	0
 3264 00d9 12       		.uleb128 0x12
 3265 00da 0D       		.uleb128 0xd
 3266 00db 00       		.byte	0
 3267 00dc 03       		.uleb128 0x3
 3268 00dd 0E       		.uleb128 0xe
 3269 00de 3A       		.uleb128 0x3a
 3270 00df 0B       		.uleb128 0xb
 3271 00e0 3B       		.uleb128 0x3b
 3272 00e1 05       		.uleb128 0x5
 3273 00e2 49       		.uleb128 0x49
 3274 00e3 13       		.uleb128 0x13
 3275 00e4 00       		.byte	0
 3276 00e5 00       		.byte	0
 3277 00e6 13       		.uleb128 0x13
 3278 00e7 26       		.uleb128 0x26
 3279 00e8 00       		.byte	0
 3280 00e9 49       		.uleb128 0x49
 3281 00ea 13       		.uleb128 0x13
 3282 00eb 00       		.byte	0
 3283 00ec 00       		.byte	0
 3284 00ed 14       		.uleb128 0x14
 3285 00ee 35       		.uleb128 0x35
 3286 00ef 00       		.byte	0
 3287 00f0 49       		.uleb128 0x49
 3288 00f1 13       		.uleb128 0x13
 3289 00f2 00       		.byte	0
 3290 00f3 00       		.byte	0
 3291 00f4 15       		.uleb128 0x15
 3292 00f5 01       		.uleb128 0x1
 3293 00f6 01       		.byte	0x1
ARM GAS  /tmp/ccfWD8TF.s 			page 59


 3294 00f7 49       		.uleb128 0x49
 3295 00f8 13       		.uleb128 0x13
 3296 00f9 01       		.uleb128 0x1
 3297 00fa 13       		.uleb128 0x13
 3298 00fb 00       		.byte	0
 3299 00fc 00       		.byte	0
 3300 00fd 16       		.uleb128 0x16
 3301 00fe 21       		.uleb128 0x21
 3302 00ff 00       		.byte	0
 3303 0100 49       		.uleb128 0x49
 3304 0101 13       		.uleb128 0x13
 3305 0102 2F       		.uleb128 0x2f
 3306 0103 0B       		.uleb128 0xb
 3307 0104 00       		.byte	0
 3308 0105 00       		.byte	0
 3309 0106 17       		.uleb128 0x17
 3310 0107 2E       		.uleb128 0x2e
 3311 0108 01       		.byte	0x1
 3312 0109 03       		.uleb128 0x3
 3313 010a 0E       		.uleb128 0xe
 3314 010b 3A       		.uleb128 0x3a
 3315 010c 0B       		.uleb128 0xb
 3316 010d 3B       		.uleb128 0x3b
 3317 010e 05       		.uleb128 0x5
 3318 010f 27       		.uleb128 0x27
 3319 0110 19       		.uleb128 0x19
 3320 0111 20       		.uleb128 0x20
 3321 0112 0B       		.uleb128 0xb
 3322 0113 01       		.uleb128 0x1
 3323 0114 13       		.uleb128 0x13
 3324 0115 00       		.byte	0
 3325 0116 00       		.byte	0
 3326 0117 18       		.uleb128 0x18
 3327 0118 05       		.uleb128 0x5
 3328 0119 00       		.byte	0
 3329 011a 03       		.uleb128 0x3
 3330 011b 0E       		.uleb128 0xe
 3331 011c 3A       		.uleb128 0x3a
 3332 011d 0B       		.uleb128 0xb
 3333 011e 3B       		.uleb128 0x3b
 3334 011f 05       		.uleb128 0x5
 3335 0120 49       		.uleb128 0x49
 3336 0121 13       		.uleb128 0x13
 3337 0122 00       		.byte	0
 3338 0123 00       		.byte	0
 3339 0124 19       		.uleb128 0x19
 3340 0125 2E       		.uleb128 0x2e
 3341 0126 00       		.byte	0
 3342 0127 03       		.uleb128 0x3
 3343 0128 0E       		.uleb128 0xe
 3344 0129 3A       		.uleb128 0x3a
 3345 012a 0B       		.uleb128 0xb
 3346 012b 3B       		.uleb128 0x3b
 3347 012c 05       		.uleb128 0x5
 3348 012d 27       		.uleb128 0x27
 3349 012e 19       		.uleb128 0x19
 3350 012f 20       		.uleb128 0x20
ARM GAS  /tmp/ccfWD8TF.s 			page 60


 3351 0130 0B       		.uleb128 0xb
 3352 0131 00       		.byte	0
 3353 0132 00       		.byte	0
 3354 0133 1A       		.uleb128 0x1a
 3355 0134 05       		.uleb128 0x5
 3356 0135 00       		.byte	0
 3357 0136 03       		.uleb128 0x3
 3358 0137 08       		.uleb128 0x8
 3359 0138 3A       		.uleb128 0x3a
 3360 0139 0B       		.uleb128 0xb
 3361 013a 3B       		.uleb128 0x3b
 3362 013b 05       		.uleb128 0x5
 3363 013c 49       		.uleb128 0x49
 3364 013d 13       		.uleb128 0x13
 3365 013e 00       		.byte	0
 3366 013f 00       		.byte	0
 3367 0140 1B       		.uleb128 0x1b
 3368 0141 2E       		.uleb128 0x2e
 3369 0142 01       		.byte	0x1
 3370 0143 03       		.uleb128 0x3
 3371 0144 0E       		.uleb128 0xe
 3372 0145 3A       		.uleb128 0x3a
 3373 0146 0B       		.uleb128 0xb
 3374 0147 3B       		.uleb128 0x3b
 3375 0148 05       		.uleb128 0x5
 3376 0149 27       		.uleb128 0x27
 3377 014a 19       		.uleb128 0x19
 3378 014b 49       		.uleb128 0x49
 3379 014c 13       		.uleb128 0x13
 3380 014d 20       		.uleb128 0x20
 3381 014e 0B       		.uleb128 0xb
 3382 014f 01       		.uleb128 0x1
 3383 0150 13       		.uleb128 0x13
 3384 0151 00       		.byte	0
 3385 0152 00       		.byte	0
 3386 0153 1C       		.uleb128 0x1c
 3387 0154 34       		.uleb128 0x34
 3388 0155 00       		.byte	0
 3389 0156 03       		.uleb128 0x3
 3390 0157 0E       		.uleb128 0xe
 3391 0158 49       		.uleb128 0x49
 3392 0159 13       		.uleb128 0x13
 3393 015a 34       		.uleb128 0x34
 3394 015b 19       		.uleb128 0x19
 3395 015c 1C       		.uleb128 0x1c
 3396 015d 0E       		.uleb128 0xe
 3397 015e 00       		.byte	0
 3398 015f 00       		.byte	0
 3399 0160 1D       		.uleb128 0x1d
 3400 0161 2E       		.uleb128 0x2e
 3401 0162 01       		.byte	0x1
 3402 0163 3F       		.uleb128 0x3f
 3403 0164 19       		.uleb128 0x19
 3404 0165 03       		.uleb128 0x3
 3405 0166 0E       		.uleb128 0xe
 3406 0167 3A       		.uleb128 0x3a
 3407 0168 0B       		.uleb128 0xb
ARM GAS  /tmp/ccfWD8TF.s 			page 61


 3408 0169 3B       		.uleb128 0x3b
 3409 016a 0B       		.uleb128 0xb
 3410 016b 27       		.uleb128 0x27
 3411 016c 19       		.uleb128 0x19
 3412 016d 11       		.uleb128 0x11
 3413 016e 01       		.uleb128 0x1
 3414 016f 12       		.uleb128 0x12
 3415 0170 06       		.uleb128 0x6
 3416 0171 40       		.uleb128 0x40
 3417 0172 18       		.uleb128 0x18
 3418 0173 9742     		.uleb128 0x2117
 3419 0175 19       		.uleb128 0x19
 3420 0176 01       		.uleb128 0x1
 3421 0177 13       		.uleb128 0x13
 3422 0178 00       		.byte	0
 3423 0179 00       		.byte	0
 3424 017a 1E       		.uleb128 0x1e
 3425 017b 05       		.uleb128 0x5
 3426 017c 00       		.byte	0
 3427 017d 03       		.uleb128 0x3
 3428 017e 08       		.uleb128 0x8
 3429 017f 3A       		.uleb128 0x3a
 3430 0180 0B       		.uleb128 0xb
 3431 0181 3B       		.uleb128 0x3b
 3432 0182 0B       		.uleb128 0xb
 3433 0183 49       		.uleb128 0x49
 3434 0184 13       		.uleb128 0x13
 3435 0185 02       		.uleb128 0x2
 3436 0186 18       		.uleb128 0x18
 3437 0187 00       		.byte	0
 3438 0188 00       		.byte	0
 3439 0189 1F       		.uleb128 0x1f
 3440 018a 05       		.uleb128 0x5
 3441 018b 00       		.byte	0
 3442 018c 03       		.uleb128 0x3
 3443 018d 0E       		.uleb128 0xe
 3444 018e 3A       		.uleb128 0x3a
 3445 018f 0B       		.uleb128 0xb
 3446 0190 3B       		.uleb128 0x3b
 3447 0191 0B       		.uleb128 0xb
 3448 0192 49       		.uleb128 0x49
 3449 0193 13       		.uleb128 0x13
 3450 0194 02       		.uleb128 0x2
 3451 0195 17       		.uleb128 0x17
 3452 0196 00       		.byte	0
 3453 0197 00       		.byte	0
 3454 0198 20       		.uleb128 0x20
 3455 0199 05       		.uleb128 0x5
 3456 019a 00       		.byte	0
 3457 019b 03       		.uleb128 0x3
 3458 019c 0E       		.uleb128 0xe
 3459 019d 3A       		.uleb128 0x3a
 3460 019e 0B       		.uleb128 0xb
 3461 019f 3B       		.uleb128 0x3b
 3462 01a0 0B       		.uleb128 0xb
 3463 01a1 49       		.uleb128 0x49
 3464 01a2 13       		.uleb128 0x13
ARM GAS  /tmp/ccfWD8TF.s 			page 62


 3465 01a3 02       		.uleb128 0x2
 3466 01a4 18       		.uleb128 0x18
 3467 01a5 00       		.byte	0
 3468 01a6 00       		.byte	0
 3469 01a7 21       		.uleb128 0x21
 3470 01a8 1D       		.uleb128 0x1d
 3471 01a9 01       		.byte	0x1
 3472 01aa 31       		.uleb128 0x31
 3473 01ab 13       		.uleb128 0x13
 3474 01ac 11       		.uleb128 0x11
 3475 01ad 01       		.uleb128 0x1
 3476 01ae 12       		.uleb128 0x12
 3477 01af 06       		.uleb128 0x6
 3478 01b0 58       		.uleb128 0x58
 3479 01b1 0B       		.uleb128 0xb
 3480 01b2 59       		.uleb128 0x59
 3481 01b3 0B       		.uleb128 0xb
 3482 01b4 00       		.byte	0
 3483 01b5 00       		.byte	0
 3484 01b6 22       		.uleb128 0x22
 3485 01b7 05       		.uleb128 0x5
 3486 01b8 00       		.byte	0
 3487 01b9 31       		.uleb128 0x31
 3488 01ba 13       		.uleb128 0x13
 3489 01bb 02       		.uleb128 0x2
 3490 01bc 18       		.uleb128 0x18
 3491 01bd 00       		.byte	0
 3492 01be 00       		.byte	0
 3493 01bf 23       		.uleb128 0x23
 3494 01c0 1D       		.uleb128 0x1d
 3495 01c1 01       		.byte	0x1
 3496 01c2 31       		.uleb128 0x31
 3497 01c3 13       		.uleb128 0x13
 3498 01c4 11       		.uleb128 0x11
 3499 01c5 01       		.uleb128 0x1
 3500 01c6 12       		.uleb128 0x12
 3501 01c7 06       		.uleb128 0x6
 3502 01c8 58       		.uleb128 0x58
 3503 01c9 0B       		.uleb128 0xb
 3504 01ca 59       		.uleb128 0x59
 3505 01cb 05       		.uleb128 0x5
 3506 01cc 00       		.byte	0
 3507 01cd 00       		.byte	0
 3508 01ce 24       		.uleb128 0x24
 3509 01cf 05       		.uleb128 0x5
 3510 01d0 00       		.byte	0
 3511 01d1 03       		.uleb128 0x3
 3512 01d2 08       		.uleb128 0x8
 3513 01d3 3A       		.uleb128 0x3a
 3514 01d4 0B       		.uleb128 0xb
 3515 01d5 3B       		.uleb128 0x3b
 3516 01d6 0B       		.uleb128 0xb
 3517 01d7 49       		.uleb128 0x49
 3518 01d8 13       		.uleb128 0x13
 3519 01d9 02       		.uleb128 0x2
 3520 01da 17       		.uleb128 0x17
 3521 01db 00       		.byte	0
ARM GAS  /tmp/ccfWD8TF.s 			page 63


 3522 01dc 00       		.byte	0
 3523 01dd 25       		.uleb128 0x25
 3524 01de 898201   		.uleb128 0x4109
 3525 01e1 01       		.byte	0x1
 3526 01e2 11       		.uleb128 0x11
 3527 01e3 01       		.uleb128 0x1
 3528 01e4 9542     		.uleb128 0x2115
 3529 01e6 19       		.uleb128 0x19
 3530 01e7 31       		.uleb128 0x31
 3531 01e8 13       		.uleb128 0x13
 3532 01e9 00       		.byte	0
 3533 01ea 00       		.byte	0
 3534 01eb 26       		.uleb128 0x26
 3535 01ec 8A8201   		.uleb128 0x410a
 3536 01ef 00       		.byte	0
 3537 01f0 02       		.uleb128 0x2
 3538 01f1 18       		.uleb128 0x18
 3539 01f2 9142     		.uleb128 0x2111
 3540 01f4 18       		.uleb128 0x18
 3541 01f5 00       		.byte	0
 3542 01f6 00       		.byte	0
 3543 01f7 27       		.uleb128 0x27
 3544 01f8 2E       		.uleb128 0x2e
 3545 01f9 01       		.byte	0x1
 3546 01fa 3F       		.uleb128 0x3f
 3547 01fb 19       		.uleb128 0x19
 3548 01fc 03       		.uleb128 0x3
 3549 01fd 0E       		.uleb128 0xe
 3550 01fe 3A       		.uleb128 0x3a
 3551 01ff 0B       		.uleb128 0xb
 3552 0200 3B       		.uleb128 0x3b
 3553 0201 0B       		.uleb128 0xb
 3554 0202 27       		.uleb128 0x27
 3555 0203 19       		.uleb128 0x19
 3556 0204 49       		.uleb128 0x49
 3557 0205 13       		.uleb128 0x13
 3558 0206 11       		.uleb128 0x11
 3559 0207 01       		.uleb128 0x1
 3560 0208 12       		.uleb128 0x12
 3561 0209 06       		.uleb128 0x6
 3562 020a 40       		.uleb128 0x40
 3563 020b 18       		.uleb128 0x18
 3564 020c 9742     		.uleb128 0x2117
 3565 020e 19       		.uleb128 0x19
 3566 020f 01       		.uleb128 0x1
 3567 0210 13       		.uleb128 0x13
 3568 0211 00       		.byte	0
 3569 0212 00       		.byte	0
 3570 0213 28       		.uleb128 0x28
 3571 0214 1D       		.uleb128 0x1d
 3572 0215 01       		.byte	0x1
 3573 0216 31       		.uleb128 0x31
 3574 0217 13       		.uleb128 0x13
 3575 0218 52       		.uleb128 0x52
 3576 0219 01       		.uleb128 0x1
 3577 021a 55       		.uleb128 0x55
 3578 021b 17       		.uleb128 0x17
ARM GAS  /tmp/ccfWD8TF.s 			page 64


 3579 021c 58       		.uleb128 0x58
 3580 021d 0B       		.uleb128 0xb
 3581 021e 59       		.uleb128 0x59
 3582 021f 0B       		.uleb128 0xb
 3583 0220 01       		.uleb128 0x1
 3584 0221 13       		.uleb128 0x13
 3585 0222 00       		.byte	0
 3586 0223 00       		.byte	0
 3587 0224 29       		.uleb128 0x29
 3588 0225 05       		.uleb128 0x5
 3589 0226 00       		.byte	0
 3590 0227 31       		.uleb128 0x31
 3591 0228 13       		.uleb128 0x13
 3592 0229 02       		.uleb128 0x2
 3593 022a 17       		.uleb128 0x17
 3594 022b 00       		.byte	0
 3595 022c 00       		.byte	0
 3596 022d 2A       		.uleb128 0x2a
 3597 022e 898201   		.uleb128 0x4109
 3598 0231 01       		.byte	0x1
 3599 0232 11       		.uleb128 0x11
 3600 0233 01       		.uleb128 0x1
 3601 0234 31       		.uleb128 0x31
 3602 0235 13       		.uleb128 0x13
 3603 0236 00       		.byte	0
 3604 0237 00       		.byte	0
 3605 0238 2B       		.uleb128 0x2b
 3606 0239 34       		.uleb128 0x34
 3607 023a 00       		.byte	0
 3608 023b 03       		.uleb128 0x3
 3609 023c 08       		.uleb128 0x8
 3610 023d 3A       		.uleb128 0x3a
 3611 023e 0B       		.uleb128 0xb
 3612 023f 3B       		.uleb128 0x3b
 3613 0240 0B       		.uleb128 0xb
 3614 0241 49       		.uleb128 0x49
 3615 0242 13       		.uleb128 0x13
 3616 0243 02       		.uleb128 0x2
 3617 0244 17       		.uleb128 0x17
 3618 0245 00       		.byte	0
 3619 0246 00       		.byte	0
 3620 0247 2C       		.uleb128 0x2c
 3621 0248 1D       		.uleb128 0x1d
 3622 0249 01       		.byte	0x1
 3623 024a 31       		.uleb128 0x31
 3624 024b 13       		.uleb128 0x13
 3625 024c 52       		.uleb128 0x52
 3626 024d 01       		.uleb128 0x1
 3627 024e 55       		.uleb128 0x55
 3628 024f 17       		.uleb128 0x17
 3629 0250 58       		.uleb128 0x58
 3630 0251 0B       		.uleb128 0xb
 3631 0252 59       		.uleb128 0x59
 3632 0253 05       		.uleb128 0x5
 3633 0254 00       		.byte	0
 3634 0255 00       		.byte	0
 3635 0256 2D       		.uleb128 0x2d
ARM GAS  /tmp/ccfWD8TF.s 			page 65


 3636 0257 05       		.uleb128 0x5
 3637 0258 00       		.byte	0
 3638 0259 31       		.uleb128 0x31
 3639 025a 13       		.uleb128 0x13
 3640 025b 1C       		.uleb128 0x1c
 3641 025c 0B       		.uleb128 0xb
 3642 025d 00       		.byte	0
 3643 025e 00       		.byte	0
 3644 025f 2E       		.uleb128 0x2e
 3645 0260 0B       		.uleb128 0xb
 3646 0261 01       		.byte	0x1
 3647 0262 55       		.uleb128 0x55
 3648 0263 17       		.uleb128 0x17
 3649 0264 01       		.uleb128 0x1
 3650 0265 13       		.uleb128 0x13
 3651 0266 00       		.byte	0
 3652 0267 00       		.byte	0
 3653 0268 2F       		.uleb128 0x2f
 3654 0269 1D       		.uleb128 0x1d
 3655 026a 01       		.byte	0x1
 3656 026b 31       		.uleb128 0x31
 3657 026c 13       		.uleb128 0x13
 3658 026d 11       		.uleb128 0x11
 3659 026e 01       		.uleb128 0x1
 3660 026f 12       		.uleb128 0x12
 3661 0270 06       		.uleb128 0x6
 3662 0271 58       		.uleb128 0x58
 3663 0272 0B       		.uleb128 0xb
 3664 0273 59       		.uleb128 0x59
 3665 0274 0B       		.uleb128 0xb
 3666 0275 01       		.uleb128 0x1
 3667 0276 13       		.uleb128 0x13
 3668 0277 00       		.byte	0
 3669 0278 00       		.byte	0
 3670 0279 30       		.uleb128 0x30
 3671 027a 0B       		.uleb128 0xb
 3672 027b 01       		.byte	0x1
 3673 027c 11       		.uleb128 0x11
 3674 027d 01       		.uleb128 0x1
 3675 027e 12       		.uleb128 0x12
 3676 027f 06       		.uleb128 0x6
 3677 0280 00       		.byte	0
 3678 0281 00       		.byte	0
 3679 0282 31       		.uleb128 0x31
 3680 0283 34       		.uleb128 0x34
 3681 0284 00       		.byte	0
 3682 0285 31       		.uleb128 0x31
 3683 0286 13       		.uleb128 0x13
 3684 0287 00       		.byte	0
 3685 0288 00       		.byte	0
 3686 0289 32       		.uleb128 0x32
 3687 028a 898201   		.uleb128 0x4109
 3688 028d 00       		.byte	0
 3689 028e 11       		.uleb128 0x11
 3690 028f 01       		.uleb128 0x1
 3691 0290 31       		.uleb128 0x31
 3692 0291 13       		.uleb128 0x13
ARM GAS  /tmp/ccfWD8TF.s 			page 66


 3693 0292 00       		.byte	0
 3694 0293 00       		.byte	0
 3695 0294 33       		.uleb128 0x33
 3696 0295 898201   		.uleb128 0x4109
 3697 0298 01       		.byte	0x1
 3698 0299 11       		.uleb128 0x11
 3699 029a 01       		.uleb128 0x1
 3700 029b 00       		.byte	0
 3701 029c 00       		.byte	0
 3702 029d 34       		.uleb128 0x34
 3703 029e 34       		.uleb128 0x34
 3704 029f 00       		.byte	0
 3705 02a0 03       		.uleb128 0x3
 3706 02a1 08       		.uleb128 0x8
 3707 02a2 3A       		.uleb128 0x3a
 3708 02a3 0B       		.uleb128 0xb
 3709 02a4 3B       		.uleb128 0x3b
 3710 02a5 0B       		.uleb128 0xb
 3711 02a6 49       		.uleb128 0x49
 3712 02a7 13       		.uleb128 0x13
 3713 02a8 02       		.uleb128 0x2
 3714 02a9 18       		.uleb128 0x18
 3715 02aa 00       		.byte	0
 3716 02ab 00       		.byte	0
 3717 02ac 35       		.uleb128 0x35
 3718 02ad 34       		.uleb128 0x34
 3719 02ae 00       		.byte	0
 3720 02af 03       		.uleb128 0x3
 3721 02b0 0E       		.uleb128 0xe
 3722 02b1 49       		.uleb128 0x49
 3723 02b2 13       		.uleb128 0x13
 3724 02b3 34       		.uleb128 0x34
 3725 02b4 19       		.uleb128 0x19
 3726 02b5 00       		.byte	0
 3727 02b6 00       		.byte	0
 3728 02b7 36       		.uleb128 0x36
 3729 02b8 898201   		.uleb128 0x4109
 3730 02bb 01       		.byte	0x1
 3731 02bc 11       		.uleb128 0x11
 3732 02bd 01       		.uleb128 0x1
 3733 02be 01       		.uleb128 0x1
 3734 02bf 13       		.uleb128 0x13
 3735 02c0 00       		.byte	0
 3736 02c1 00       		.byte	0
 3737 02c2 37       		.uleb128 0x37
 3738 02c3 2E       		.uleb128 0x2e
 3739 02c4 01       		.byte	0x1
 3740 02c5 3F       		.uleb128 0x3f
 3741 02c6 19       		.uleb128 0x19
 3742 02c7 03       		.uleb128 0x3
 3743 02c8 0E       		.uleb128 0xe
 3744 02c9 3A       		.uleb128 0x3a
 3745 02ca 0B       		.uleb128 0xb
 3746 02cb 3B       		.uleb128 0x3b
 3747 02cc 05       		.uleb128 0x5
 3748 02cd 27       		.uleb128 0x27
 3749 02ce 19       		.uleb128 0x19
ARM GAS  /tmp/ccfWD8TF.s 			page 67


 3750 02cf 11       		.uleb128 0x11
 3751 02d0 01       		.uleb128 0x1
 3752 02d1 12       		.uleb128 0x12
 3753 02d2 06       		.uleb128 0x6
 3754 02d3 40       		.uleb128 0x40
 3755 02d4 18       		.uleb128 0x18
 3756 02d5 9742     		.uleb128 0x2117
 3757 02d7 19       		.uleb128 0x19
 3758 02d8 01       		.uleb128 0x1
 3759 02d9 13       		.uleb128 0x13
 3760 02da 00       		.byte	0
 3761 02db 00       		.byte	0
 3762 02dc 38       		.uleb128 0x38
 3763 02dd 05       		.uleb128 0x5
 3764 02de 00       		.byte	0
 3765 02df 03       		.uleb128 0x3
 3766 02e0 08       		.uleb128 0x8
 3767 02e1 3A       		.uleb128 0x3a
 3768 02e2 0B       		.uleb128 0xb
 3769 02e3 3B       		.uleb128 0x3b
 3770 02e4 05       		.uleb128 0x5
 3771 02e5 49       		.uleb128 0x49
 3772 02e6 13       		.uleb128 0x13
 3773 02e7 02       		.uleb128 0x2
 3774 02e8 18       		.uleb128 0x18
 3775 02e9 00       		.byte	0
 3776 02ea 00       		.byte	0
 3777 02eb 39       		.uleb128 0x39
 3778 02ec 05       		.uleb128 0x5
 3779 02ed 00       		.byte	0
 3780 02ee 03       		.uleb128 0x3
 3781 02ef 0E       		.uleb128 0xe
 3782 02f0 3A       		.uleb128 0x3a
 3783 02f1 0B       		.uleb128 0xb
 3784 02f2 3B       		.uleb128 0x3b
 3785 02f3 05       		.uleb128 0x5
 3786 02f4 49       		.uleb128 0x49
 3787 02f5 13       		.uleb128 0x13
 3788 02f6 02       		.uleb128 0x2
 3789 02f7 18       		.uleb128 0x18
 3790 02f8 00       		.byte	0
 3791 02f9 00       		.byte	0
 3792 02fa 3A       		.uleb128 0x3a
 3793 02fb 05       		.uleb128 0x5
 3794 02fc 00       		.byte	0
 3795 02fd 03       		.uleb128 0x3
 3796 02fe 0E       		.uleb128 0xe
 3797 02ff 3A       		.uleb128 0x3a
 3798 0300 0B       		.uleb128 0xb
 3799 0301 3B       		.uleb128 0x3b
 3800 0302 05       		.uleb128 0x5
 3801 0303 49       		.uleb128 0x49
 3802 0304 13       		.uleb128 0x13
 3803 0305 02       		.uleb128 0x2
 3804 0306 17       		.uleb128 0x17
 3805 0307 00       		.byte	0
 3806 0308 00       		.byte	0
ARM GAS  /tmp/ccfWD8TF.s 			page 68


 3807 0309 3B       		.uleb128 0x3b
 3808 030a 05       		.uleb128 0x5
 3809 030b 00       		.byte	0
 3810 030c 03       		.uleb128 0x3
 3811 030d 08       		.uleb128 0x8
 3812 030e 3A       		.uleb128 0x3a
 3813 030f 0B       		.uleb128 0xb
 3814 0310 3B       		.uleb128 0x3b
 3815 0311 05       		.uleb128 0x5
 3816 0312 49       		.uleb128 0x49
 3817 0313 13       		.uleb128 0x13
 3818 0314 02       		.uleb128 0x2
 3819 0315 17       		.uleb128 0x17
 3820 0316 00       		.byte	0
 3821 0317 00       		.byte	0
 3822 0318 3C       		.uleb128 0x3c
 3823 0319 2E       		.uleb128 0x2e
 3824 031a 01       		.byte	0x1
 3825 031b 3F       		.uleb128 0x3f
 3826 031c 19       		.uleb128 0x19
 3827 031d 03       		.uleb128 0x3
 3828 031e 0E       		.uleb128 0xe
 3829 031f 3A       		.uleb128 0x3a
 3830 0320 0B       		.uleb128 0xb
 3831 0321 3B       		.uleb128 0x3b
 3832 0322 05       		.uleb128 0x5
 3833 0323 27       		.uleb128 0x27
 3834 0324 19       		.uleb128 0x19
 3835 0325 49       		.uleb128 0x49
 3836 0326 13       		.uleb128 0x13
 3837 0327 11       		.uleb128 0x11
 3838 0328 01       		.uleb128 0x1
 3839 0329 12       		.uleb128 0x12
 3840 032a 06       		.uleb128 0x6
 3841 032b 40       		.uleb128 0x40
 3842 032c 18       		.uleb128 0x18
 3843 032d 9742     		.uleb128 0x2117
 3844 032f 19       		.uleb128 0x19
 3845 0330 01       		.uleb128 0x1
 3846 0331 13       		.uleb128 0x13
 3847 0332 00       		.byte	0
 3848 0333 00       		.byte	0
 3849 0334 3D       		.uleb128 0x3d
 3850 0335 1D       		.uleb128 0x1d
 3851 0336 01       		.byte	0x1
 3852 0337 31       		.uleb128 0x31
 3853 0338 13       		.uleb128 0x13
 3854 0339 11       		.uleb128 0x11
 3855 033a 01       		.uleb128 0x1
 3856 033b 12       		.uleb128 0x12
 3857 033c 06       		.uleb128 0x6
 3858 033d 58       		.uleb128 0x58
 3859 033e 0B       		.uleb128 0xb
 3860 033f 59       		.uleb128 0x59
 3861 0340 05       		.uleb128 0x5
 3862 0341 01       		.uleb128 0x1
 3863 0342 13       		.uleb128 0x13
ARM GAS  /tmp/ccfWD8TF.s 			page 69


 3864 0343 00       		.byte	0
 3865 0344 00       		.byte	0
 3866 0345 3E       		.uleb128 0x3e
 3867 0346 34       		.uleb128 0x34
 3868 0347 00       		.byte	0
 3869 0348 03       		.uleb128 0x3
 3870 0349 08       		.uleb128 0x8
 3871 034a 3A       		.uleb128 0x3a
 3872 034b 0B       		.uleb128 0xb
 3873 034c 3B       		.uleb128 0x3b
 3874 034d 05       		.uleb128 0x5
 3875 034e 49       		.uleb128 0x49
 3876 034f 13       		.uleb128 0x13
 3877 0350 02       		.uleb128 0x2
 3878 0351 17       		.uleb128 0x17
 3879 0352 00       		.byte	0
 3880 0353 00       		.byte	0
 3881 0354 3F       		.uleb128 0x3f
 3882 0355 1D       		.uleb128 0x1d
 3883 0356 01       		.byte	0x1
 3884 0357 31       		.uleb128 0x31
 3885 0358 13       		.uleb128 0x13
 3886 0359 52       		.uleb128 0x52
 3887 035a 01       		.uleb128 0x1
 3888 035b 55       		.uleb128 0x55
 3889 035c 17       		.uleb128 0x17
 3890 035d 58       		.uleb128 0x58
 3891 035e 0B       		.uleb128 0xb
 3892 035f 59       		.uleb128 0x59
 3893 0360 05       		.uleb128 0x5
 3894 0361 01       		.uleb128 0x1
 3895 0362 13       		.uleb128 0x13
 3896 0363 00       		.byte	0
 3897 0364 00       		.byte	0
 3898 0365 40       		.uleb128 0x40
 3899 0366 2E       		.uleb128 0x2e
 3900 0367 01       		.byte	0x1
 3901 0368 3F       		.uleb128 0x3f
 3902 0369 19       		.uleb128 0x19
 3903 036a 03       		.uleb128 0x3
 3904 036b 0E       		.uleb128 0xe
 3905 036c 3A       		.uleb128 0x3a
 3906 036d 0B       		.uleb128 0xb
 3907 036e 3B       		.uleb128 0x3b
 3908 036f 05       		.uleb128 0x5
 3909 0370 27       		.uleb128 0x27
 3910 0371 19       		.uleb128 0x19
 3911 0372 49       		.uleb128 0x49
 3912 0373 13       		.uleb128 0x13
 3913 0374 11       		.uleb128 0x11
 3914 0375 01       		.uleb128 0x1
 3915 0376 12       		.uleb128 0x12
 3916 0377 06       		.uleb128 0x6
 3917 0378 40       		.uleb128 0x40
 3918 0379 18       		.uleb128 0x18
 3919 037a 9642     		.uleb128 0x2116
 3920 037c 19       		.uleb128 0x19
ARM GAS  /tmp/ccfWD8TF.s 			page 70


 3921 037d 01       		.uleb128 0x1
 3922 037e 13       		.uleb128 0x13
 3923 037f 00       		.byte	0
 3924 0380 00       		.byte	0
 3925 0381 41       		.uleb128 0x41
 3926 0382 34       		.uleb128 0x34
 3927 0383 00       		.byte	0
 3928 0384 03       		.uleb128 0x3
 3929 0385 08       		.uleb128 0x8
 3930 0386 3A       		.uleb128 0x3a
 3931 0387 0B       		.uleb128 0xb
 3932 0388 3B       		.uleb128 0x3b
 3933 0389 05       		.uleb128 0x5
 3934 038a 49       		.uleb128 0x49
 3935 038b 13       		.uleb128 0x13
 3936 038c 02       		.uleb128 0x2
 3937 038d 18       		.uleb128 0x18
 3938 038e 00       		.byte	0
 3939 038f 00       		.byte	0
 3940 0390 42       		.uleb128 0x42
 3941 0391 0B       		.uleb128 0xb
 3942 0392 01       		.byte	0x1
 3943 0393 55       		.uleb128 0x55
 3944 0394 17       		.uleb128 0x17
 3945 0395 00       		.byte	0
 3946 0396 00       		.byte	0
 3947 0397 43       		.uleb128 0x43
 3948 0398 34       		.uleb128 0x34
 3949 0399 00       		.byte	0
 3950 039a 03       		.uleb128 0x3
 3951 039b 0E       		.uleb128 0xe
 3952 039c 3A       		.uleb128 0x3a
 3953 039d 0B       		.uleb128 0xb
 3954 039e 3B       		.uleb128 0x3b
 3955 039f 05       		.uleb128 0x5
 3956 03a0 49       		.uleb128 0x49
 3957 03a1 13       		.uleb128 0x13
 3958 03a2 3F       		.uleb128 0x3f
 3959 03a3 19       		.uleb128 0x19
 3960 03a4 3C       		.uleb128 0x3c
 3961 03a5 19       		.uleb128 0x19
 3962 03a6 00       		.byte	0
 3963 03a7 00       		.byte	0
 3964 03a8 44       		.uleb128 0x44
 3965 03a9 34       		.uleb128 0x34
 3966 03aa 00       		.byte	0
 3967 03ab 03       		.uleb128 0x3
 3968 03ac 08       		.uleb128 0x8
 3969 03ad 3A       		.uleb128 0x3a
 3970 03ae 0B       		.uleb128 0xb
 3971 03af 3B       		.uleb128 0x3b
 3972 03b0 05       		.uleb128 0x5
 3973 03b1 49       		.uleb128 0x49
 3974 03b2 13       		.uleb128 0x13
 3975 03b3 3F       		.uleb128 0x3f
 3976 03b4 19       		.uleb128 0x19
 3977 03b5 3C       		.uleb128 0x3c
ARM GAS  /tmp/ccfWD8TF.s 			page 71


 3978 03b6 19       		.uleb128 0x19
 3979 03b7 00       		.byte	0
 3980 03b8 00       		.byte	0
 3981 03b9 45       		.uleb128 0x45
 3982 03ba 2E       		.uleb128 0x2e
 3983 03bb 01       		.byte	0x1
 3984 03bc 3F       		.uleb128 0x3f
 3985 03bd 19       		.uleb128 0x19
 3986 03be 03       		.uleb128 0x3
 3987 03bf 0E       		.uleb128 0xe
 3988 03c0 3A       		.uleb128 0x3a
 3989 03c1 0B       		.uleb128 0xb
 3990 03c2 3B       		.uleb128 0x3b
 3991 03c3 0B       		.uleb128 0xb
 3992 03c4 27       		.uleb128 0x27
 3993 03c5 19       		.uleb128 0x19
 3994 03c6 3C       		.uleb128 0x3c
 3995 03c7 19       		.uleb128 0x19
 3996 03c8 01       		.uleb128 0x1
 3997 03c9 13       		.uleb128 0x13
 3998 03ca 00       		.byte	0
 3999 03cb 00       		.byte	0
 4000 03cc 46       		.uleb128 0x46
 4001 03cd 2E       		.uleb128 0x2e
 4002 03ce 01       		.byte	0x1
 4003 03cf 3F       		.uleb128 0x3f
 4004 03d0 19       		.uleb128 0x19
 4005 03d1 03       		.uleb128 0x3
 4006 03d2 0E       		.uleb128 0xe
 4007 03d3 3A       		.uleb128 0x3a
 4008 03d4 0B       		.uleb128 0xb
 4009 03d5 3B       		.uleb128 0x3b
 4010 03d6 0B       		.uleb128 0xb
 4011 03d7 27       		.uleb128 0x27
 4012 03d8 19       		.uleb128 0x19
 4013 03d9 49       		.uleb128 0x49
 4014 03da 13       		.uleb128 0x13
 4015 03db 3C       		.uleb128 0x3c
 4016 03dc 19       		.uleb128 0x19
 4017 03dd 00       		.byte	0
 4018 03de 00       		.byte	0
 4019 03df 00       		.byte	0
 4020              		.section	.debug_loc,"",%progbits
 4021              	.Ldebug_loc0:
 4022              	.LLST0:
 4023 0000 00000000 		.4byte	.LVL0
 4024 0004 0A000000 		.4byte	.LVL1
 4025 0008 0100     		.2byte	0x1
 4026 000a 52       		.byte	0x52
 4027 000b 0A000000 		.4byte	.LVL1
 4028 000f 1E000000 		.4byte	.LFE241
 4029 0013 0400     		.2byte	0x4
 4030 0015 F3       		.byte	0xf3
 4031 0016 01       		.uleb128 0x1
 4032 0017 52       		.byte	0x52
 4033 0018 9F       		.byte	0x9f
 4034 0019 00000000 		.4byte	0
ARM GAS  /tmp/ccfWD8TF.s 			page 72


 4035 001d 00000000 		.4byte	0
 4036              	.LLST1:
 4037 0021 00000000 		.4byte	.LVL0
 4038 0025 1C000000 		.4byte	.LVL2
 4039 0029 0200     		.2byte	0x2
 4040 002b 91       		.byte	0x91
 4041 002c 00       		.sleb128 0
 4042 002d 1C000000 		.4byte	.LVL2
 4043 0031 1E000000 		.4byte	.LFE241
 4044 0035 0200     		.2byte	0x2
 4045 0037 7D       		.byte	0x7d
 4046 0038 00       		.sleb128 0
 4047 0039 00000000 		.4byte	0
 4048 003d 00000000 		.4byte	0
 4049              	.LLST2:
 4050 0041 00000000 		.4byte	.LVL3
 4051 0045 11000000 		.4byte	.LVL4-1
 4052 0049 0100     		.2byte	0x1
 4053 004b 50       		.byte	0x50
 4054 004c 11000000 		.4byte	.LVL4-1
 4055 0050 12000000 		.4byte	.LFE242
 4056 0054 0400     		.2byte	0x4
 4057 0056 F3       		.byte	0xf3
 4058 0057 01       		.uleb128 0x1
 4059 0058 50       		.byte	0x50
 4060 0059 9F       		.byte	0x9f
 4061 005a 00000000 		.4byte	0
 4062 005e 00000000 		.4byte	0
 4063              	.LLST3:
 4064 0062 00000000 		.4byte	.LVL5
 4065 0066 27000000 		.4byte	.LVL7-1
 4066 006a 0100     		.2byte	0x1
 4067 006c 50       		.byte	0x50
 4068 006d 27000000 		.4byte	.LVL7-1
 4069 0071 2C000000 		.4byte	.LVL8
 4070 0075 0400     		.2byte	0x4
 4071 0077 F3       		.byte	0xf3
 4072 0078 01       		.uleb128 0x1
 4073 0079 50       		.byte	0x50
 4074 007a 9F       		.byte	0x9f
 4075 007b 2C000000 		.4byte	.LVL8
 4076 007f 36000000 		.4byte	.LVL9
 4077 0083 0100     		.2byte	0x1
 4078 0085 50       		.byte	0x50
 4079 0086 36000000 		.4byte	.LVL9
 4080 008a 38000000 		.4byte	.LFE243
 4081 008e 0400     		.2byte	0x4
 4082 0090 F3       		.byte	0xf3
 4083 0091 01       		.uleb128 0x1
 4084 0092 50       		.byte	0x50
 4085 0093 9F       		.byte	0x9f
 4086 0094 00000000 		.4byte	0
 4087 0098 00000000 		.4byte	0
 4088              	.LLST4:
 4089 009c 00000000 		.4byte	.LVL5
 4090 00a0 24000000 		.4byte	.LVL6
 4091 00a4 0100     		.2byte	0x1
ARM GAS  /tmp/ccfWD8TF.s 			page 73


 4092 00a6 51       		.byte	0x51
 4093 00a7 24000000 		.4byte	.LVL6
 4094 00ab 2C000000 		.4byte	.LVL8
 4095 00af 0400     		.2byte	0x4
 4096 00b1 F3       		.byte	0xf3
 4097 00b2 01       		.uleb128 0x1
 4098 00b3 51       		.byte	0x51
 4099 00b4 9F       		.byte	0x9f
 4100 00b5 2C000000 		.4byte	.LVL8
 4101 00b9 38000000 		.4byte	.LFE243
 4102 00bd 0100     		.2byte	0x1
 4103 00bf 51       		.byte	0x51
 4104 00c0 00000000 		.4byte	0
 4105 00c4 00000000 		.4byte	0
 4106              	.LLST6:
 4107 00c8 00000000 		.4byte	.LVL10
 4108 00cc 11000000 		.4byte	.LVL11-1
 4109 00d0 0100     		.2byte	0x1
 4110 00d2 50       		.byte	0x50
 4111 00d3 11000000 		.4byte	.LVL11-1
 4112 00d7 14000000 		.4byte	.LVL12
 4113 00db 0100     		.2byte	0x1
 4114 00dd 54       		.byte	0x54
 4115 00de 14000000 		.4byte	.LVL12
 4116 00e2 17000000 		.4byte	.LVL13-1
 4117 00e6 0100     		.2byte	0x1
 4118 00e8 50       		.byte	0x50
 4119 00e9 17000000 		.4byte	.LVL13-1
 4120 00ed 26000000 		.4byte	.LVL15
 4121 00f1 0100     		.2byte	0x1
 4122 00f3 54       		.byte	0x54
 4123 00f4 26000000 		.4byte	.LVL15
 4124 00f8 2A000000 		.4byte	.LVL16
 4125 00fc 0100     		.2byte	0x1
 4126 00fe 50       		.byte	0x50
 4127 00ff 2A000000 		.4byte	.LVL16
 4128 0103 50000000 		.4byte	.LFE244
 4129 0107 0100     		.2byte	0x1
 4130 0109 54       		.byte	0x54
 4131 010a 00000000 		.4byte	0
 4132 010e 00000000 		.4byte	0
 4133              	.LLST7:
 4134 0112 00000000 		.4byte	.LVL10
 4135 0116 11000000 		.4byte	.LVL11-1
 4136 011a 0100     		.2byte	0x1
 4137 011c 51       		.byte	0x51
 4138 011d 11000000 		.4byte	.LVL11-1
 4139 0121 14000000 		.4byte	.LVL12
 4140 0125 0100     		.2byte	0x1
 4141 0127 56       		.byte	0x56
 4142 0128 14000000 		.4byte	.LVL12
 4143 012c 17000000 		.4byte	.LVL13-1
 4144 0130 0100     		.2byte	0x1
 4145 0132 51       		.byte	0x51
 4146 0133 17000000 		.4byte	.LVL13-1
 4147 0137 26000000 		.4byte	.LVL15
 4148 013b 0100     		.2byte	0x1
ARM GAS  /tmp/ccfWD8TF.s 			page 74


 4149 013d 56       		.byte	0x56
 4150 013e 26000000 		.4byte	.LVL15
 4151 0142 2C000000 		.4byte	.LVL17
 4152 0146 0100     		.2byte	0x1
 4153 0148 51       		.byte	0x51
 4154 0149 2C000000 		.4byte	.LVL17
 4155 014d 50000000 		.4byte	.LFE244
 4156 0151 0100     		.2byte	0x1
 4157 0153 56       		.byte	0x56
 4158 0154 00000000 		.4byte	0
 4159 0158 00000000 		.4byte	0
 4160              	.LLST8:
 4161 015c 3E000000 		.4byte	.LVL18
 4162 0160 42000000 		.4byte	.LVL19
 4163 0164 0200     		.2byte	0x2
 4164 0166 72       		.byte	0x72
 4165 0167 00       		.sleb128 0
 4166 0168 42000000 		.4byte	.LVL19
 4167 016c 4A000000 		.4byte	.LVL20
 4168 0170 0100     		.2byte	0x1
 4169 0172 50       		.byte	0x50
 4170 0173 00000000 		.4byte	0
 4171 0177 00000000 		.4byte	0
 4172              	.LLST9:
 4173 017b 18000000 		.4byte	.LVL13
 4174 017f 1C000000 		.4byte	.LVL14
 4175 0183 0100     		.2byte	0x1
 4176 0185 50       		.byte	0x50
 4177 0186 4A000000 		.4byte	.LVL20
 4178 018a 50000000 		.4byte	.LFE244
 4179 018e 0100     		.2byte	0x1
 4180 0190 50       		.byte	0x50
 4181 0191 00000000 		.4byte	0
 4182 0195 00000000 		.4byte	0
 4183              	.LLST10:
 4184 0199 14000000 		.4byte	.LVL12
 4185 019d 17000000 		.4byte	.LVL13-1
 4186 01a1 0100     		.2byte	0x1
 4187 01a3 50       		.byte	0x50
 4188 01a4 17000000 		.4byte	.LVL13-1
 4189 01a8 26000000 		.4byte	.LVL15
 4190 01ac 0100     		.2byte	0x1
 4191 01ae 54       		.byte	0x54
 4192 01af 26000000 		.4byte	.LVL15
 4193 01b3 2A000000 		.4byte	.LVL16
 4194 01b7 0100     		.2byte	0x1
 4195 01b9 50       		.byte	0x50
 4196 01ba 2A000000 		.4byte	.LVL16
 4197 01be 50000000 		.4byte	.LFE244
 4198 01c2 0100     		.2byte	0x1
 4199 01c4 54       		.byte	0x54
 4200 01c5 00000000 		.4byte	0
 4201 01c9 00000000 		.4byte	0
 4202              	.LLST11:
 4203 01cd 42000000 		.4byte	.LVL19
 4204 01d1 4A000000 		.4byte	.LVL20
 4205 01d5 0200     		.2byte	0x2
ARM GAS  /tmp/ccfWD8TF.s 			page 75


 4206 01d7 30       		.byte	0x30
 4207 01d8 9F       		.byte	0x9f
 4208 01d9 00000000 		.4byte	0
 4209 01dd 00000000 		.4byte	0
 4210              	.LLST12:
 4211 01e1 00000000 		.4byte	.LVL21
 4212 01e5 26000000 		.4byte	.LVL24
 4213 01e9 0100     		.2byte	0x1
 4214 01eb 50       		.byte	0x50
 4215 01ec 26000000 		.4byte	.LVL24
 4216 01f0 2A000000 		.4byte	.LVL26
 4217 01f4 0100     		.2byte	0x1
 4218 01f6 54       		.byte	0x54
 4219 01f7 2A000000 		.4byte	.LVL26
 4220 01fb 2D000000 		.4byte	.LVL27-1
 4221 01ff 0100     		.2byte	0x1
 4222 0201 50       		.byte	0x50
 4223 0202 2D000000 		.4byte	.LVL27-1
 4224 0206 3A000000 		.4byte	.LVL29
 4225 020a 0100     		.2byte	0x1
 4226 020c 54       		.byte	0x54
 4227 020d 3A000000 		.4byte	.LVL29
 4228 0211 70000000 		.4byte	.LVL35
 4229 0215 0100     		.2byte	0x1
 4230 0217 50       		.byte	0x50
 4231 0218 70000000 		.4byte	.LVL35
 4232 021c 7A000000 		.4byte	.LFE245
 4233 0220 0100     		.2byte	0x1
 4234 0222 54       		.byte	0x54
 4235 0223 00000000 		.4byte	0
 4236 0227 00000000 		.4byte	0
 4237              	.LLST13:
 4238 022b 00000000 		.4byte	.LVL21
 4239 022f 1E000000 		.4byte	.LVL23
 4240 0233 0100     		.2byte	0x1
 4241 0235 51       		.byte	0x51
 4242 0236 1E000000 		.4byte	.LVL23
 4243 023a 46000000 		.4byte	.LVL31
 4244 023e 0700     		.2byte	0x7
 4245 0240 F3       		.byte	0xf3
 4246 0241 01       		.uleb128 0x1
 4247 0242 51       		.byte	0x51
 4248 0243 76       		.byte	0x76
 4249 0244 00       		.sleb128 0
 4250 0245 22       		.byte	0x22
 4251 0246 9F       		.byte	0x9f
 4252 0247 46000000 		.4byte	.LVL31
 4253 024b 64000000 		.4byte	.LVL33
 4254 024f 0900     		.2byte	0x9
 4255 0251 F3       		.byte	0xf3
 4256 0252 01       		.uleb128 0x1
 4257 0253 51       		.byte	0x51
 4258 0254 76       		.byte	0x76
 4259 0255 00       		.sleb128 0
 4260 0256 22       		.byte	0x22
 4261 0257 23       		.byte	0x23
 4262 0258 01       		.uleb128 0x1
ARM GAS  /tmp/ccfWD8TF.s 			page 76


 4263 0259 9F       		.byte	0x9f
 4264 025a 64000000 		.4byte	.LVL33
 4265 025e 70000000 		.4byte	.LVL35
 4266 0262 0700     		.2byte	0x7
 4267 0264 76       		.byte	0x76
 4268 0265 00       		.sleb128 0
 4269 0266 F3       		.byte	0xf3
 4270 0267 01       		.uleb128 0x1
 4271 0268 51       		.byte	0x51
 4272 0269 22       		.byte	0x22
 4273 026a 9F       		.byte	0x9f
 4274 026b 70000000 		.4byte	.LVL35
 4275 026f 74000000 		.4byte	.LVL36
 4276 0273 0700     		.2byte	0x7
 4277 0275 F3       		.byte	0xf3
 4278 0276 01       		.uleb128 0x1
 4279 0277 51       		.byte	0x51
 4280 0278 76       		.byte	0x76
 4281 0279 00       		.sleb128 0
 4282 027a 22       		.byte	0x22
 4283 027b 9F       		.byte	0x9f
 4284 027c 00000000 		.4byte	0
 4285 0280 00000000 		.4byte	0
 4286              	.LLST14:
 4287 0284 00000000 		.4byte	.LVL21
 4288 0288 1E000000 		.4byte	.LVL23
 4289 028c 0100     		.2byte	0x1
 4290 028e 52       		.byte	0x52
 4291 028f 1E000000 		.4byte	.LVL23
 4292 0293 74000000 		.4byte	.LVL36
 4293 0297 0700     		.2byte	0x7
 4294 0299 F3       		.byte	0xf3
 4295 029a 01       		.uleb128 0x1
 4296 029b 52       		.byte	0x52
 4297 029c 76       		.byte	0x76
 4298 029d 00       		.sleb128 0
 4299 029e 1C       		.byte	0x1c
 4300 029f 9F       		.byte	0x9f
 4301 02a0 00000000 		.4byte	0
 4302 02a4 00000000 		.4byte	0
 4303              	.LLST15:
 4304 02a8 00000000 		.4byte	.LVL21
 4305 02ac 1E000000 		.4byte	.LVL23
 4306 02b0 0100     		.2byte	0x1
 4307 02b2 53       		.byte	0x53
 4308 02b3 1E000000 		.4byte	.LVL23
 4309 02b7 2A000000 		.4byte	.LVL26
 4310 02bb 0100     		.2byte	0x1
 4311 02bd 55       		.byte	0x55
 4312 02be 2A000000 		.4byte	.LVL26
 4313 02c2 2D000000 		.4byte	.LVL27-1
 4314 02c6 0100     		.2byte	0x1
 4315 02c8 51       		.byte	0x51
 4316 02c9 2D000000 		.4byte	.LVL27-1
 4317 02cd 3A000000 		.4byte	.LVL29
 4318 02d1 0100     		.2byte	0x1
 4319 02d3 55       		.byte	0x55
ARM GAS  /tmp/ccfWD8TF.s 			page 77


 4320 02d4 3A000000 		.4byte	.LVL29
 4321 02d8 3E000000 		.4byte	.LVL30
 4322 02dc 0100     		.2byte	0x1
 4323 02de 51       		.byte	0x51
 4324 02df 3E000000 		.4byte	.LVL30
 4325 02e3 7A000000 		.4byte	.LFE245
 4326 02e7 0100     		.2byte	0x1
 4327 02e9 55       		.byte	0x55
 4328 02ea 00000000 		.4byte	0
 4329 02ee 00000000 		.4byte	0
 4330              	.LLST16:
 4331 02f2 0C000000 		.4byte	.LVL22
 4332 02f6 1E000000 		.4byte	.LVL23
 4333 02fa 0200     		.2byte	0x2
 4334 02fc 30       		.byte	0x30
 4335 02fd 9F       		.byte	0x9f
 4336 02fe 1E000000 		.4byte	.LVL23
 4337 0302 7A000000 		.4byte	.LFE245
 4338 0306 0100     		.2byte	0x1
 4339 0308 56       		.byte	0x56
 4340 0309 00000000 		.4byte	0
 4341 030d 00000000 		.4byte	0
 4342              	.LLST17:
 4343 0311 2A000000 		.4byte	.LVL26
 4344 0315 2D000000 		.4byte	.LVL27-1
 4345 0319 0100     		.2byte	0x1
 4346 031b 50       		.byte	0x50
 4347 031c 2D000000 		.4byte	.LVL27-1
 4348 0320 3A000000 		.4byte	.LVL29
 4349 0324 0100     		.2byte	0x1
 4350 0326 54       		.byte	0x54
 4351 0327 3A000000 		.4byte	.LVL29
 4352 032b 70000000 		.4byte	.LVL35
 4353 032f 0100     		.2byte	0x1
 4354 0331 50       		.byte	0x50
 4355 0332 70000000 		.4byte	.LVL35
 4356 0336 7A000000 		.4byte	.LFE245
 4357 033a 0100     		.2byte	0x1
 4358 033c 54       		.byte	0x54
 4359 033d 00000000 		.4byte	0
 4360 0341 00000000 		.4byte	0
 4361              	.LLST18:
 4362 0345 58000000 		.4byte	.LVL32
 4363 0349 70000000 		.4byte	.LVL35
 4364 034d 0200     		.2byte	0x2
 4365 034f 30       		.byte	0x30
 4366 0350 9F       		.byte	0x9f
 4367 0351 00000000 		.4byte	0
 4368 0355 00000000 		.4byte	0
 4369              	.LLST19:
 4370 0359 66000000 		.4byte	.LVL34
 4371 035d 70000000 		.4byte	.LVL35
 4372 0361 0300     		.2byte	0x3
 4373 0363 08       		.byte	0x8
 4374 0364 20       		.byte	0x20
 4375 0365 9F       		.byte	0x9f
 4376 0366 00000000 		.4byte	0
ARM GAS  /tmp/ccfWD8TF.s 			page 78


 4377 036a 00000000 		.4byte	0
 4378              	.LLST20:
 4379 036e 70000000 		.4byte	.LVL35
 4380 0372 74000000 		.4byte	.LVL36
 4381 0376 0200     		.2byte	0x2
 4382 0378 30       		.byte	0x30
 4383 0379 9F       		.byte	0x9f
 4384 037a 00000000 		.4byte	0
 4385 037e 00000000 		.4byte	0
 4386              	.LLST21:
 4387 0382 00000000 		.4byte	.LVL37
 4388 0386 1A000000 		.4byte	.LVL38
 4389 038a 0200     		.2byte	0x2
 4390 038c 91       		.byte	0x91
 4391 038d 00       		.sleb128 0
 4392 038e 1A000000 		.4byte	.LVL38
 4393 0392 1C000000 		.4byte	.LFE246
 4394 0396 0200     		.2byte	0x2
 4395 0398 7D       		.byte	0x7d
 4396 0399 00       		.sleb128 0
 4397 039a 00000000 		.4byte	0
 4398 039e 00000000 		.4byte	0
 4399              	.LLST22:
 4400 03a2 00000000 		.4byte	.LVL39
 4401 03a6 19000000 		.4byte	.LVL40-1
 4402 03aa 0100     		.2byte	0x1
 4403 03ac 50       		.byte	0x50
 4404 03ad 19000000 		.4byte	.LVL40-1
 4405 03b1 1A000000 		.4byte	.LFE247
 4406 03b5 0400     		.2byte	0x4
 4407 03b7 F3       		.byte	0xf3
 4408 03b8 01       		.uleb128 0x1
 4409 03b9 50       		.byte	0x50
 4410 03ba 9F       		.byte	0x9f
 4411 03bb 00000000 		.4byte	0
 4412 03bf 00000000 		.4byte	0
 4413              	.LLST23:
 4414 03c3 00000000 		.4byte	.LVL41
 4415 03c7 13000000 		.4byte	.LVL43-1
 4416 03cb 0100     		.2byte	0x1
 4417 03cd 50       		.byte	0x50
 4418 03ce 13000000 		.4byte	.LVL43-1
 4419 03d2 22000000 		.4byte	.LVL45
 4420 03d6 0100     		.2byte	0x1
 4421 03d8 54       		.byte	0x54
 4422 03d9 22000000 		.4byte	.LVL45
 4423 03dd 42000000 		.4byte	.LVL47
 4424 03e1 0100     		.2byte	0x1
 4425 03e3 50       		.byte	0x50
 4426 03e4 42000000 		.4byte	.LVL47
 4427 03e8 52000000 		.4byte	.LFE248
 4428 03ec 0100     		.2byte	0x1
 4429 03ee 54       		.byte	0x54
 4430 03ef 00000000 		.4byte	0
 4431 03f3 00000000 		.4byte	0
 4432              	.LLST24:
 4433 03f7 00000000 		.4byte	.LVL41
ARM GAS  /tmp/ccfWD8TF.s 			page 79


 4434 03fb 10000000 		.4byte	.LVL42
 4435 03ff 0100     		.2byte	0x1
 4436 0401 51       		.byte	0x51
 4437 0402 10000000 		.4byte	.LVL42
 4438 0406 52000000 		.4byte	.LFE248
 4439 040a 0400     		.2byte	0x4
 4440 040c F3       		.byte	0xf3
 4441 040d 01       		.uleb128 0x1
 4442 040e 51       		.byte	0x51
 4443 040f 9F       		.byte	0x9f
 4444 0410 00000000 		.4byte	0
 4445 0414 00000000 		.4byte	0
 4446              	.LLST25:
 4447 0418 00000000 		.4byte	.LVL41
 4448 041c 10000000 		.4byte	.LVL42
 4449 0420 0100     		.2byte	0x1
 4450 0422 52       		.byte	0x52
 4451 0423 10000000 		.4byte	.LVL42
 4452 0427 13000000 		.4byte	.LVL43-1
 4453 042b 0100     		.2byte	0x1
 4454 042d 51       		.byte	0x51
 4455 042e 13000000 		.4byte	.LVL43-1
 4456 0432 22000000 		.4byte	.LVL45
 4457 0436 0100     		.2byte	0x1
 4458 0438 56       		.byte	0x56
 4459 0439 22000000 		.4byte	.LVL45
 4460 043d 26000000 		.4byte	.LVL46
 4461 0441 0100     		.2byte	0x1
 4462 0443 51       		.byte	0x51
 4463 0444 26000000 		.4byte	.LVL46
 4464 0448 52000000 		.4byte	.LFE248
 4465 044c 0100     		.2byte	0x1
 4466 044e 56       		.byte	0x56
 4467 044f 00000000 		.4byte	0
 4468 0453 00000000 		.4byte	0
 4469              	.LLST26:
 4470 0457 14000000 		.4byte	.LVL43
 4471 045b 18000000 		.4byte	.LVL44
 4472 045f 0100     		.2byte	0x1
 4473 0461 50       		.byte	0x50
 4474 0462 4C000000 		.4byte	.LVL49
 4475 0466 52000000 		.4byte	.LFE248
 4476 046a 0100     		.2byte	0x1
 4477 046c 50       		.byte	0x50
 4478 046d 00000000 		.4byte	0
 4479 0471 00000000 		.4byte	0
 4480              	.LLST27:
 4481 0475 10000000 		.4byte	.LVL42
 4482 0479 13000000 		.4byte	.LVL43-1
 4483 047d 0100     		.2byte	0x1
 4484 047f 50       		.byte	0x50
 4485 0480 13000000 		.4byte	.LVL43-1
 4486 0484 22000000 		.4byte	.LVL45
 4487 0488 0100     		.2byte	0x1
 4488 048a 54       		.byte	0x54
 4489 048b 22000000 		.4byte	.LVL45
 4490 048f 43000000 		.4byte	.LVL48-1
ARM GAS  /tmp/ccfWD8TF.s 			page 80


 4491 0493 0100     		.2byte	0x1
 4492 0495 50       		.byte	0x50
 4493 0496 43000000 		.4byte	.LVL48-1
 4494 049a 52000000 		.4byte	.LFE248
 4495 049e 0100     		.2byte	0x1
 4496 04a0 54       		.byte	0x54
 4497 04a1 00000000 		.4byte	0
 4498 04a5 00000000 		.4byte	0
 4499              	.LLST28:
 4500 04a9 44000000 		.4byte	.LVL48
 4501 04ad 4C000000 		.4byte	.LVL49
 4502 04b1 0200     		.2byte	0x2
 4503 04b3 30       		.byte	0x30
 4504 04b4 9F       		.byte	0x9f
 4505 04b5 00000000 		.4byte	0
 4506 04b9 00000000 		.4byte	0
 4507              	.LLST29:
 4508 04bd 00000000 		.4byte	.LVL50
 4509 04c1 25000000 		.4byte	.LVL54-1
 4510 04c5 0100     		.2byte	0x1
 4511 04c7 50       		.byte	0x50
 4512 04c8 25000000 		.4byte	.LVL54-1
 4513 04cc 2A000000 		.4byte	.LVL55
 4514 04d0 0400     		.2byte	0x4
 4515 04d2 F3       		.byte	0xf3
 4516 04d3 01       		.uleb128 0x1
 4517 04d4 50       		.byte	0x50
 4518 04d5 9F       		.byte	0x9f
 4519 04d6 2A000000 		.4byte	.LVL55
 4520 04da 34000000 		.4byte	.LVL56
 4521 04de 0100     		.2byte	0x1
 4522 04e0 50       		.byte	0x50
 4523 04e1 34000000 		.4byte	.LVL56
 4524 04e5 36000000 		.4byte	.LFE249
 4525 04e9 0400     		.2byte	0x4
 4526 04eb F3       		.byte	0xf3
 4527 04ec 01       		.uleb128 0x1
 4528 04ed 50       		.byte	0x50
 4529 04ee 9F       		.byte	0x9f
 4530 04ef 00000000 		.4byte	0
 4531 04f3 00000000 		.4byte	0
 4532              	.LLST30:
 4533 04f7 1A000000 		.4byte	.LVL51
 4534 04fb 1E000000 		.4byte	.LVL52
 4535 04ff 0200     		.2byte	0x2
 4536 0501 73       		.byte	0x73
 4537 0502 00       		.sleb128 0
 4538 0503 1E000000 		.4byte	.LVL52
 4539 0507 20000000 		.4byte	.LVL53
 4540 050b 0200     		.2byte	0x2
 4541 050d 72       		.byte	0x72
 4542 050e 7F       		.sleb128 -1
 4543 050f 20000000 		.4byte	.LVL53
 4544 0513 2A000000 		.4byte	.LVL55
 4545 0517 0100     		.2byte	0x1
 4546 0519 54       		.byte	0x54
 4547 051a 00000000 		.4byte	0
ARM GAS  /tmp/ccfWD8TF.s 			page 81


 4548 051e 00000000 		.4byte	0
 4549              	.LLST32:
 4550 0522 00000000 		.4byte	.LVL57
 4551 0526 1E000000 		.4byte	.LVL59
 4552 052a 0100     		.2byte	0x1
 4553 052c 50       		.byte	0x50
 4554 052d 1E000000 		.4byte	.LVL59
 4555 0531 28000000 		.4byte	.LVL61
 4556 0535 0100     		.2byte	0x1
 4557 0537 54       		.byte	0x54
 4558 0538 28000000 		.4byte	.LVL61
 4559 053c 4B000000 		.4byte	.LVL62-1
 4560 0540 0100     		.2byte	0x1
 4561 0542 50       		.byte	0x50
 4562 0543 4B000000 		.4byte	.LVL62-1
 4563 0547 6A000000 		.4byte	.LVL68
 4564 054b 0100     		.2byte	0x1
 4565 054d 54       		.byte	0x54
 4566 054e 6A000000 		.4byte	.LVL68
 4567 0552 6C000000 		.4byte	.LVL69
 4568 0556 0100     		.2byte	0x1
 4569 0558 50       		.byte	0x50
 4570 0559 6C000000 		.4byte	.LVL69
 4571 055d 86000000 		.4byte	.LFE250
 4572 0561 0100     		.2byte	0x1
 4573 0563 54       		.byte	0x54
 4574 0564 00000000 		.4byte	0
 4575 0568 00000000 		.4byte	0
 4576              	.LLST33:
 4577 056c 00000000 		.4byte	.LVL57
 4578 0570 1E000000 		.4byte	.LVL59
 4579 0574 0100     		.2byte	0x1
 4580 0576 51       		.byte	0x51
 4581 0577 1E000000 		.4byte	.LVL59
 4582 057b 24000000 		.4byte	.LVL60
 4583 057f 0100     		.2byte	0x1
 4584 0581 55       		.byte	0x55
 4585 0582 24000000 		.4byte	.LVL60
 4586 0586 60000000 		.4byte	.LVL66
 4587 058a 0100     		.2byte	0x1
 4588 058c 5B       		.byte	0x5b
 4589 058d 60000000 		.4byte	.LVL66
 4590 0591 64000000 		.4byte	.LVL67
 4591 0595 0100     		.2byte	0x1
 4592 0597 55       		.byte	0x55
 4593 0598 64000000 		.4byte	.LVL67
 4594 059c 86000000 		.4byte	.LFE250
 4595 05a0 0100     		.2byte	0x1
 4596 05a2 5B       		.byte	0x5b
 4597 05a3 00000000 		.4byte	0
 4598 05a7 00000000 		.4byte	0
 4599              	.LLST34:
 4600 05ab 00000000 		.4byte	.LVL57
 4601 05af 1E000000 		.4byte	.LVL59
 4602 05b3 0100     		.2byte	0x1
 4603 05b5 52       		.byte	0x52
 4604 05b6 1E000000 		.4byte	.LVL59
ARM GAS  /tmp/ccfWD8TF.s 			page 82


 4605 05ba 52000000 		.4byte	.LVL64
 4606 05be 0100     		.2byte	0x1
 4607 05c0 56       		.byte	0x56
 4608 05c1 52000000 		.4byte	.LVL64
 4609 05c5 56000000 		.4byte	.LVL65
 4610 05c9 0300     		.2byte	0x3
 4611 05cb 76       		.byte	0x76
 4612 05cc 01       		.sleb128 1
 4613 05cd 9F       		.byte	0x9f
 4614 05ce 60000000 		.4byte	.LVL66
 4615 05d2 7E000000 		.4byte	.LVL72
 4616 05d6 0100     		.2byte	0x1
 4617 05d8 56       		.byte	0x56
 4618 05d9 00000000 		.4byte	0
 4619 05dd 00000000 		.4byte	0
 4620              	.LLST35:
 4621 05e1 00000000 		.4byte	.LVL57
 4622 05e5 1E000000 		.4byte	.LVL59
 4623 05e9 0100     		.2byte	0x1
 4624 05eb 53       		.byte	0x53
 4625 05ec 1E000000 		.4byte	.LVL59
 4626 05f0 86000000 		.4byte	.LFE250
 4627 05f4 0200     		.2byte	0x2
 4628 05f6 91       		.byte	0x91
 4629 05f7 54       		.sleb128 -44
 4630 05f8 00000000 		.4byte	0
 4631 05fc 00000000 		.4byte	0
 4632              	.LLST36:
 4633 0600 12000000 		.4byte	.LVL58
 4634 0604 1E000000 		.4byte	.LVL59
 4635 0608 0200     		.2byte	0x2
 4636 060a 30       		.byte	0x30
 4637 060b 9F       		.byte	0x9f
 4638 060c 1E000000 		.4byte	.LVL59
 4639 0610 86000000 		.4byte	.LFE250
 4640 0614 0100     		.2byte	0x1
 4641 0616 57       		.byte	0x57
 4642 0617 00000000 		.4byte	0
 4643 061b 00000000 		.4byte	0
 4644              	.LLST37:
 4645 061f 4C000000 		.4byte	.LVL62
 4646 0623 6A000000 		.4byte	.LVL68
 4647 0627 0200     		.2byte	0x2
 4648 0629 30       		.byte	0x30
 4649 062a 9F       		.byte	0x9f
 4650 062b 00000000 		.4byte	0
 4651 062f 00000000 		.4byte	0
 4652              	.LLST38:
 4653 0633 1E000000 		.4byte	.LVL59
 4654 0637 28000000 		.4byte	.LVL61
 4655 063b 0100     		.2byte	0x1
 4656 063d 54       		.byte	0x54
 4657 063e 28000000 		.4byte	.LVL61
 4658 0642 4B000000 		.4byte	.LVL62-1
 4659 0646 0100     		.2byte	0x1
 4660 0648 50       		.byte	0x50
 4661 0649 4B000000 		.4byte	.LVL62-1
ARM GAS  /tmp/ccfWD8TF.s 			page 83


 4662 064d 6A000000 		.4byte	.LVL68
 4663 0651 0100     		.2byte	0x1
 4664 0653 54       		.byte	0x54
 4665 0654 6A000000 		.4byte	.LVL68
 4666 0658 6C000000 		.4byte	.LVL69
 4667 065c 0100     		.2byte	0x1
 4668 065e 50       		.byte	0x50
 4669 065f 6C000000 		.4byte	.LVL69
 4670 0663 86000000 		.4byte	.LFE250
 4671 0667 0100     		.2byte	0x1
 4672 0669 54       		.byte	0x54
 4673 066a 00000000 		.4byte	0
 4674 066e 00000000 		.4byte	0
 4675              	.LLST39:
 4676 0672 50000000 		.4byte	.LVL63
 4677 0676 6A000000 		.4byte	.LVL68
 4678 067a 0300     		.2byte	0x3
 4679 067c 08       		.byte	0x8
 4680 067d 20       		.byte	0x20
 4681 067e 9F       		.byte	0x9f
 4682 067f 00000000 		.4byte	0
 4683 0683 00000000 		.4byte	0
 4684              	.LLST40:
 4685 0687 7A000000 		.4byte	.LVL71
 4686 068b 7E000000 		.4byte	.LVL72
 4687 068f 0200     		.2byte	0x2
 4688 0691 30       		.byte	0x30
 4689 0692 9F       		.byte	0x9f
 4690 0693 00000000 		.4byte	0
 4691 0697 00000000 		.4byte	0
 4692              		.section	.debug_aranges,"",%progbits
 4693 0000 64000000 		.4byte	0x64
 4694 0004 0200     		.2byte	0x2
 4695 0006 00000000 		.4byte	.Ldebug_info0
 4696 000a 04       		.byte	0x4
 4697 000b 00       		.byte	0
 4698 000c 0000     		.2byte	0
 4699 000e 0000     		.2byte	0
 4700 0010 00000000 		.4byte	.LFB241
 4701 0014 1E000000 		.4byte	.LFE241-.LFB241
 4702 0018 00000000 		.4byte	.LFB242
 4703 001c 12000000 		.4byte	.LFE242-.LFB242
 4704 0020 00000000 		.4byte	.LFB243
 4705 0024 38000000 		.4byte	.LFE243-.LFB243
 4706 0028 00000000 		.4byte	.LFB244
 4707 002c 50000000 		.4byte	.LFE244-.LFB244
 4708 0030 00000000 		.4byte	.LFB245
 4709 0034 7A000000 		.4byte	.LFE245-.LFB245
 4710 0038 00000000 		.4byte	.LFB246
 4711 003c 1C000000 		.4byte	.LFE246-.LFB246
 4712 0040 00000000 		.4byte	.LFB247
 4713 0044 1A000000 		.4byte	.LFE247-.LFB247
 4714 0048 00000000 		.4byte	.LFB248
 4715 004c 52000000 		.4byte	.LFE248-.LFB248
 4716 0050 00000000 		.4byte	.LFB249
 4717 0054 36000000 		.4byte	.LFE249-.LFB249
 4718 0058 00000000 		.4byte	.LFB250
ARM GAS  /tmp/ccfWD8TF.s 			page 84


 4719 005c 86000000 		.4byte	.LFE250-.LFB250
 4720 0060 00000000 		.4byte	0
 4721 0064 00000000 		.4byte	0
 4722              		.section	.debug_ranges,"",%progbits
 4723              	.Ldebug_ranges0:
 4724 0000 00000000 		.4byte	.LBB111
 4725 0004 06000000 		.4byte	.LBE111
 4726 0008 08000000 		.4byte	.LBB115
 4727 000c 0A000000 		.4byte	.LBE115
 4728 0010 2C000000 		.4byte	.LBB116
 4729 0014 32000000 		.4byte	.LBE116
 4730 0018 00000000 		.4byte	0
 4731 001c 00000000 		.4byte	0
 4732 0020 02000000 		.4byte	.LBB117
 4733 0024 04000000 		.4byte	.LBE117
 4734 0028 08000000 		.4byte	.LBB124
 4735 002c 0C000000 		.4byte	.LBE124
 4736 0030 00000000 		.4byte	0
 4737 0034 00000000 		.4byte	0
 4738 0038 14000000 		.4byte	.LBB125
 4739 003c 1C000000 		.4byte	.LBE125
 4740 0040 1E000000 		.4byte	.LBB133
 4741 0044 22000000 		.4byte	.LBE133
 4742 0048 4A000000 		.4byte	.LBB139
 4743 004c 50000000 		.4byte	.LBE139
 4744 0050 00000000 		.4byte	0
 4745 0054 00000000 		.4byte	0
 4746 0058 10000000 		.4byte	.LBB167
 4747 005c 18000000 		.4byte	.LBE167
 4748 0060 1A000000 		.4byte	.LBB175
 4749 0064 1E000000 		.4byte	.LBE175
 4750 0068 4C000000 		.4byte	.LBB181
 4751 006c 52000000 		.4byte	.LBE181
 4752 0070 00000000 		.4byte	0
 4753 0074 00000000 		.4byte	0
 4754 0078 00000000 		.4byte	.LBB182
 4755 007c 06000000 		.4byte	.LBE182
 4756 0080 08000000 		.4byte	.LBB186
 4757 0084 0A000000 		.4byte	.LBE186
 4758 0088 2A000000 		.4byte	.LBB187
 4759 008c 30000000 		.4byte	.LBE187
 4760 0090 00000000 		.4byte	0
 4761 0094 00000000 		.4byte	0
 4762 0098 1C000000 		.4byte	.LBB192
 4763 009c 1E000000 		.4byte	.LBE192
 4764 00a0 4C000000 		.4byte	.LBB204
 4765 00a4 50000000 		.4byte	.LBE204
 4766 00a8 00000000 		.4byte	0
 4767 00ac 00000000 		.4byte	0
 4768 00b0 1E000000 		.4byte	.LBB201
 4769 00b4 20000000 		.4byte	.LBE201
 4770 00b8 5C000000 		.4byte	.LBB209
 4771 00bc 5E000000 		.4byte	.LBE209
 4772 00c0 00000000 		.4byte	0
 4773 00c4 00000000 		.4byte	0
 4774 00c8 00000000 		.4byte	.LFB241
 4775 00cc 1E000000 		.4byte	.LFE241
ARM GAS  /tmp/ccfWD8TF.s 			page 85


 4776 00d0 00000000 		.4byte	.LFB242
 4777 00d4 12000000 		.4byte	.LFE242
 4778 00d8 00000000 		.4byte	.LFB243
 4779 00dc 38000000 		.4byte	.LFE243
 4780 00e0 00000000 		.4byte	.LFB244
 4781 00e4 50000000 		.4byte	.LFE244
 4782 00e8 00000000 		.4byte	.LFB245
 4783 00ec 7A000000 		.4byte	.LFE245
 4784 00f0 00000000 		.4byte	.LFB246
 4785 00f4 1C000000 		.4byte	.LFE246
 4786 00f8 00000000 		.4byte	.LFB247
 4787 00fc 1A000000 		.4byte	.LFE247
 4788 0100 00000000 		.4byte	.LFB248
 4789 0104 52000000 		.4byte	.LFE248
 4790 0108 00000000 		.4byte	.LFB249
 4791 010c 36000000 		.4byte	.LFE249
 4792 0110 00000000 		.4byte	.LFB250
 4793 0114 86000000 		.4byte	.LFE250
 4794 0118 00000000 		.4byte	0
 4795 011c 00000000 		.4byte	0
 4796              		.section	.debug_line,"",%progbits
 4797              	.Ldebug_line0:
 4798 0000 7F050000 		.section	.debug_str,"MS",%progbits,1
 4798      0200E502 
 4798      00000201 
 4798      FB0E0D00 
 4798      01010101 
 4799              	.LASF140:
 4800 0000 63684F51 		.ascii	"chOQPutTimeout\000"
 4800      50757454 
 4800      696D656F 
 4800      757400
 4801              	.LASF50:
 4802 000f 72656164 		.ascii	"ready_list_t\000"
 4802      795F6C69 
 4802      73745F74 
 4802      00
 4803              	.LASF138:
 4804 001c 6F6E6679 		.ascii	"onfy\000"
 4804      00
 4805              	.LASF2:
 4806 0021 73697A65 		.ascii	"size_t\000"
 4806      5F7400
 4807              	.LASF85:
 4808 0028 7264796D 		.ascii	"rdymsg\000"
 4808      736700
 4809              	.LASF17:
 4810 002f 75696E74 		.ascii	"uint64_t\000"
 4810      36345F74 
 4810      00
 4811              	.LASF145:
 4812 0038 63685468 		.ascii	"chThdDequeueAllI\000"
 4812      64446571 
 4812      75657565 
 4812      416C6C49 
 4812      00
 4813              	.LASF3:
ARM GAS  /tmp/ccfWD8TF.s 			page 86


 4814 0049 5F5F7569 		.ascii	"__uint8_t\000"
 4814      6E74385F 
 4814      7400
 4815              	.LASF82:
 4816 0053 706F7274 		.ascii	"port_intctx\000"
 4816      5F696E74 
 4816      63747800 
 4817              	.LASF69:
 4818 005f 73797374 		.ascii	"system_debug_t\000"
 4818      656D5F64 
 4818      65627567 
 4818      5F7400
 4819              	.LASF136:
 4820 006e 63684951 		.ascii	"chIQReadTimeout\000"
 4820      52656164 
 4820      54696D65 
 4820      6F757400 
 4821              	.LASF118:
 4822 007e 71756575 		.ascii	"queue_init\000"
 4822      655F696E 
 4822      697400
 4823              	.LASF115:
 4824 0089 706F7274 		.ascii	"port_lock\000"
 4824      5F6C6F63 
 4824      6B00
 4825              	.LASF131:
 4826 0093 63684951 		.ascii	"chIQObjectInit\000"
 4826      4F626A65 
 4826      6374496E 
 4826      697400
 4827              	.LASF13:
 4828 00a2 6C6F6E67 		.ascii	"long long unsigned int\000"
 4828      206C6F6E 
 4828      6720756E 
 4828      7369676E 
 4828      65642069 
 4829              	.LASF86:
 4830 00b9 65786974 		.ascii	"exitcode\000"
 4830      636F6465 
 4830      00
 4831              	.LASF76:
 4832 00c2 6D61696E 		.ascii	"mainthread\000"
 4832      74687265 
 4832      616400
 4833              	.LASF89:
 4834 00cd 73656E74 		.ascii	"sentmsg\000"
 4834      6D736700 
 4835              	.LASF66:
 4836 00d5 76697274 		.ascii	"virtual_timers_list_t\000"
 4836      75616C5F 
 4836      74696D65 
 4836      72735F6C 
 4836      6973745F 
 4837              	.LASF144:
 4838 00eb 49544D5F 		.ascii	"ITM_RxBuffer\000"
 4838      52784275 
 4838      66666572 
ARM GAS  /tmp/ccfWD8TF.s 			page 87


 4838      00
 4839              	.LASF102:
 4840 00f8 696F5F71 		.ascii	"io_queue_t\000"
 4840      75657565 
 4840      5F7400
 4841              	.LASF49:
 4842 0103 63685F74 		.ascii	"ch_threads_queue\000"
 4842      68726561 
 4842      64735F71 
 4842      75657565 
 4842      00
 4843              	.LASF30:
 4844 0114 705F7072 		.ascii	"p_prio\000"
 4844      696F00
 4845              	.LASF104:
 4846 011b 715F7761 		.ascii	"q_waiting\000"
 4846      6974696E 
 4846      6700
 4847              	.LASF11:
 4848 0125 6C6F6E67 		.ascii	"long long int\000"
 4848      206C6F6E 
 4848      6720696E 
 4848      7400
 4849              	.LASF1:
 4850 0133 7369676E 		.ascii	"signed char\000"
 4850      65642063 
 4850      68617200 
 4851              	.LASF43:
 4852 013f 705F6D70 		.ascii	"p_mpool\000"
 4852      6F6F6C00 
 4853              	.LASF97:
 4854 0147 6D5F7175 		.ascii	"m_queue\000"
 4854      65756500 
 4855              	.LASF75:
 4856 014f 76746C69 		.ascii	"vtlist\000"
 4856      737400
 4857              	.LASF116:
 4858 0156 706F7274 		.ascii	"port_unlock\000"
 4858      5F756E6C 
 4858      6F636B00 
 4859              	.LASF114:
 4860 0162 6F757470 		.ascii	"output_queue_t\000"
 4860      75745F71 
 4860      75657565 
 4860      5F7400
 4861              	.LASF88:
 4862 0171 77747472 		.ascii	"wttrp\000"
 4862      7000
 4863              	.LASF73:
 4864 0177 63685F73 		.ascii	"ch_system\000"
 4864      79737465 
 4864      6D00
 4865              	.LASF8:
 4866 0181 6C6F6E67 		.ascii	"long int\000"
 4866      20696E74 
 4866      00
 4867              	.LASF20:
ARM GAS  /tmp/ccfWD8TF.s 			page 88


 4868 018a 74737461 		.ascii	"tstate_t\000"
 4868      74655F74 
 4868      00
 4869              	.LASF141:
 4870 0193 63684F51 		.ascii	"chOQGetI\000"
 4870      47657449 
 4870      00
 4871              	.LASF106:
 4872 019c 715F6275 		.ascii	"q_buffer\000"
 4872      66666572 
 4872      00
 4873              	.LASF108:
 4874 01a5 715F7772 		.ascii	"q_wrptr\000"
 4874      70747200 
 4875              	.LASF146:
 4876 01ad 63685468 		.ascii	"chThdDequeueNextI\000"
 4876      64446571 
 4876      75657565 
 4876      4E657874 
 4876      4900
 4877              	.LASF32:
 4878 01bf 705F6E65 		.ascii	"p_newer\000"
 4878      77657200 
 4879              	.LASF94:
 4880 01c7 735F7175 		.ascii	"s_queue\000"
 4880      65756500 
 4881              	.LASF55:
 4882 01cf 725F6E65 		.ascii	"r_newer\000"
 4882      77657200 
 4883              	.LASF79:
 4884 01d7 72656761 		.ascii	"regarm_t\000"
 4884      726D5F74 
 4884      00
 4885              	.LASF62:
 4886 01e0 76745F70 		.ascii	"vt_prev\000"
 4886      72657600 
 4887              	.LASF130:
 4888 01e8 6C696E6B 		.ascii	"link\000"
 4888      00
 4889              	.LASF133:
 4890 01ed 63684951 		.ascii	"chIQPutI\000"
 4890      50757449 
 4890      00
 4891              	.LASF101:
 4892 01f6 6D757465 		.ascii	"mutex_t\000"
 4892      785F7400 
 4893              	.LASF119:
 4894 01fe 76616C75 		.ascii	"value\000"
 4894      6500
 4895              	.LASF103:
 4896 0204 696F5F71 		.ascii	"io_queue\000"
 4896      75657565 
 4896      00
 4897              	.LASF77:
 4898 020d 69646C65 		.ascii	"idle_thread_wa\000"
 4898      5F746872 
 4898      6561645F 
ARM GAS  /tmp/ccfWD8TF.s 			page 89


 4898      776100
 4899              	.LASF25:
 4900 021c 636E745F 		.ascii	"cnt_t\000"
 4900      7400
 4901              	.LASF0:
 4902 0222 756E7369 		.ascii	"unsigned int\000"
 4902      676E6564 
 4902      20696E74 
 4902      00
 4903              	.LASF61:
 4904 022f 76745F6E 		.ascii	"vt_next\000"
 4904      65787400 
 4905              	.LASF132:
 4906 0237 63684951 		.ascii	"chIQResetI\000"
 4906      52657365 
 4906      744900
 4907              	.LASF90:
 4908 0242 77747365 		.ascii	"wtsemp\000"
 4908      6D7000
 4909              	.LASF39:
 4910 0249 705F6D73 		.ascii	"p_msgqueue\000"
 4910      67717565 
 4910      756500
 4911              	.LASF135:
 4912 0254 74696D65 		.ascii	"timeout\000"
 4912      6F757400 
 4913              	.LASF95:
 4914 025c 735F636E 		.ascii	"s_cnt\000"
 4914      7400
 4915              	.LASF6:
 4916 0262 73686F72 		.ascii	"short unsigned int\000"
 4916      7420756E 
 4916      7369676E 
 4916      65642069 
 4916      6E7400
 4917              	.LASF46:
 4918 0275 63685F74 		.ascii	"ch_thread\000"
 4918      68726561 
 4918      6400
 4919              	.LASF23:
 4920 027f 6D73675F 		.ascii	"msg_t\000"
 4920      7400
 4921              	.LASF72:
 4922 0285 63685F73 		.ascii	"ch_system_t\000"
 4922      79737465 
 4922      6D5F7400 
 4923              	.LASF19:
 4924 0291 746D6F64 		.ascii	"tmode_t\000"
 4924      655F7400 
 4925              	.LASF149:
 4926 0299 2E2E2F43 		.ascii	"../ChibiOS/os/rt/src/chqueues.c\000"
 4926      68696269 
 4926      4F532F6F 
 4926      732F7274 
 4926      2F737263 
 4927              	.LASF51:
 4928 02b9 63685F72 		.ascii	"ch_ready_list\000"
ARM GAS  /tmp/ccfWD8TF.s 			page 90


 4928      65616479 
 4928      5F6C6973 
 4928      7400
 4929              	.LASF24:
 4930 02c7 6576656E 		.ascii	"eventmask_t\000"
 4930      746D6173 
 4930      6B5F7400 
 4931              	.LASF7:
 4932 02d3 5F5F696E 		.ascii	"__int32_t\000"
 4932      7433325F 
 4932      7400
 4933              	.LASF80:
 4934 02dd 73746B61 		.ascii	"stkalign_t\000"
 4934      6C69676E 
 4934      5F7400
 4935              	.LASF142:
 4936 02e8 63684F51 		.ascii	"chOQWriteTimeout\000"
 4936      57726974 
 4936      6554696D 
 4936      656F7574 
 4936      00
 4937              	.LASF120:
 4938 02f9 63685468 		.ascii	"chThdQueueObjectInit\000"
 4938      64517565 
 4938      75654F62 
 4938      6A656374 
 4938      496E6974 
 4939              	.LASF38:
 4940 030e 705F7761 		.ascii	"p_waiting\000"
 4940      6974696E 
 4940      6700
 4941              	.LASF78:
 4942 0318 73697A65 		.ascii	"sizetype\000"
 4942      74797065 
 4942      00
 4943              	.LASF44:
 4944 0321 74687265 		.ascii	"thread_reference_t\000"
 4944      61645F72 
 4944      65666572 
 4944      656E6365 
 4944      5F7400
 4945              	.LASF67:
 4946 0334 63685F76 		.ascii	"ch_virtual_timers_list\000"
 4946      69727475 
 4946      616C5F74 
 4946      696D6572 
 4946      735F6C69 
 4947              	.LASF105:
 4948 034b 715F636F 		.ascii	"q_counter\000"
 4948      756E7465 
 4948      7200
 4949              	.LASF52:
 4950 0355 725F7175 		.ascii	"r_queue\000"
 4950      65756500 
 4951              	.LASF68:
 4952 035d 76745F6C 		.ascii	"vt_lasttime\000"
 4952      61737474 
ARM GAS  /tmp/ccfWD8TF.s 			page 91


 4952      696D6500 
 4953              	.LASF33:
 4954 0369 705F6F6C 		.ascii	"p_older\000"
 4954      64657200 
 4955              	.LASF54:
 4956 0371 725F6374 		.ascii	"r_ctx\000"
 4956      7800
 4957              	.LASF84:
 4958 0377 746D5F63 		.ascii	"tm_calibration_t\000"
 4958      616C6962 
 4958      72617469 
 4958      6F6E5F74 
 4958      00
 4959              	.LASF57:
 4960 0388 725F6375 		.ascii	"r_current\000"
 4960      7272656E 
 4960      7400
 4961              	.LASF56:
 4962 0392 725F6F6C 		.ascii	"r_older\000"
 4962      64657200 
 4963              	.LASF12:
 4964 039a 5F5F7569 		.ascii	"__uint64_t\000"
 4964      6E743634 
 4964      5F7400
 4965              	.LASF21:
 4966 03a5 74726566 		.ascii	"trefs_t\000"
 4966      735F7400 
 4967              	.LASF112:
 4968 03ad 716E6F74 		.ascii	"qnotify_t\000"
 4968      6966795F 
 4968      7400
 4969              	.LASF59:
 4970 03b7 76697274 		.ascii	"virtual_timer_t\000"
 4970      75616C5F 
 4970      74696D65 
 4970      725F7400 
 4971              	.LASF29:
 4972 03c7 705F7072 		.ascii	"p_prev\000"
 4972      657600
 4973              	.LASF126:
 4974 03ce 63684F51 		.ascii	"chOQIsFullI\000"
 4974      49734675 
 4974      6C6C4900 
 4975              	.LASF22:
 4976 03da 74707269 		.ascii	"tprio_t\000"
 4976      6F5F7400 
 4977              	.LASF109:
 4978 03e2 715F7264 		.ascii	"q_rdptr\000"
 4978      70747200 
 4979              	.LASF70:
 4980 03ea 63685F73 		.ascii	"ch_system_debug\000"
 4980      79737465 
 4980      6D5F6465 
 4980      62756700 
 4981              	.LASF121:
 4982 03fa 5F426F6F 		.ascii	"_Bool\000"
 4982      6C00
ARM GAS  /tmp/ccfWD8TF.s 			page 92


 4983              	.LASF15:
 4984 0400 696E7433 		.ascii	"int32_t\000"
 4984      325F7400 
 4985              	.LASF4:
 4986 0408 756E7369 		.ascii	"unsigned char\000"
 4986      676E6564 
 4986      20636861 
 4986      7200
 4987              	.LASF113:
 4988 0416 696E7075 		.ascii	"input_queue_t\000"
 4988      745F7175 
 4988      6575655F 
 4988      7400
 4989              	.LASF35:
 4990 0424 705F7374 		.ascii	"p_state\000"
 4990      61746500 
 4991              	.LASF41:
 4992 042c 705F6D74 		.ascii	"p_mtxlist\000"
 4992      786C6973 
 4992      7400
 4993              	.LASF5:
 4994 0436 73686F72 		.ascii	"short int\000"
 4994      7420696E 
 4994      7400
 4995              	.LASF53:
 4996 0440 725F7072 		.ascii	"r_prio\000"
 4996      696F00
 4997              	.LASF92:
 4998 0447 65776D61 		.ascii	"ewmask\000"
 4998      736B00
 4999              	.LASF28:
 5000 044e 705F6E65 		.ascii	"p_next\000"
 5000      787400
 5001              	.LASF129:
 5002 0455 696E6679 		.ascii	"infy\000"
 5002      00
 5003              	.LASF36:
 5004 045a 705F666C 		.ascii	"p_flags\000"
 5004      61677300 
 5005              	.LASF143:
 5006 0462 5F5F6675 		.ascii	"__func__\000"
 5006      6E635F5F 
 5006      00
 5007              	.LASF122:
 5008 046b 63685379 		.ascii	"chSysLock\000"
 5008      734C6F63 
 5008      6B00
 5009              	.LASF48:
 5010 0475 74687265 		.ascii	"threads_queue_t\000"
 5010      6164735F 
 5010      71756575 
 5010      655F7400 
 5011              	.LASF60:
 5012 0485 63685F76 		.ascii	"ch_virtual_timer\000"
 5012      69727475 
 5012      616C5F74 
 5012      696D6572 
ARM GAS  /tmp/ccfWD8TF.s 			page 93


 5012      00
 5013              	.LASF93:
 5014 0496 63685F73 		.ascii	"ch_semaphore\000"
 5014      656D6170 
 5014      686F7265 
 5014      00
 5015              	.LASF40:
 5016 04a3 705F6570 		.ascii	"p_epending\000"
 5016      656E6469 
 5016      6E6700
 5017              	.LASF124:
 5018 04ae 63684951 		.ascii	"chIQIsFullI\000"
 5018      49734675 
 5018      6C6C4900 
 5019              	.LASF16:
 5020 04ba 75696E74 		.ascii	"uint32_t\000"
 5020      33325F74 
 5020      00
 5021              	.LASF91:
 5022 04c3 77746D74 		.ascii	"wtmtxp\000"
 5022      787000
 5023              	.LASF150:
 5024 04ca 2F6E6673 		.ascii	"/nfs/nfs4/home/cojthack/442FinalProject/milestone3\000"
 5024      2F6E6673 
 5024      342F686F 
 5024      6D652F63 
 5024      6F6A7468 
 5025              	.LASF63:
 5026 04fd 76745F64 		.ascii	"vt_delta\000"
 5026      656C7461 
 5026      00
 5027              	.LASF47:
 5028 0506 63685F74 		.ascii	"ch_threads_list\000"
 5028      68726561 
 5028      64735F6C 
 5028      69737400 
 5029              	.LASF10:
 5030 0516 6C6F6E67 		.ascii	"long unsigned int\000"
 5030      20756E73 
 5030      69676E65 
 5030      6420696E 
 5030      7400
 5031              	.LASF100:
 5032 0528 63686172 		.ascii	"char\000"
 5032      00
 5033              	.LASF27:
 5034 052d 74687265 		.ascii	"thread_t\000"
 5034      61645F74 
 5034      00
 5035              	.LASF148:
 5036 0536 474E5520 		.ascii	"GNU C 4.8.4 20140526 (release) [ARM/embedded-4_8-br"
 5036      4320342E 
 5036      382E3420 
 5036      32303134 
 5036      30353236 
 5037 0569 616E6368 		.ascii	"anch revision 211358] -mcpu=cortex-m4 -mno-thumb-in"
 5037      20726576 
ARM GAS  /tmp/ccfWD8TF.s 			page 94


 5037      6973696F 
 5037      6E203231 
 5037      31333538 
 5038 059c 74657277 		.ascii	"terwork -mthumb -ggdb -O2 -fomit-frame-pointer -fal"
 5038      6F726B20 
 5038      2D6D7468 
 5038      756D6220 
 5038      2D676764 
 5039 05cf 69676E2D 		.ascii	"ign-functions=16 -ffunction-sections -fdata-section"
 5039      66756E63 
 5039      74696F6E 
 5039      733D3136 
 5039      202D6666 
 5040 0602 73202D66 		.ascii	"s -fno-common\000"
 5040      6E6F2D63 
 5040      6F6D6D6F 
 5040      6E00
 5041              	.LASF99:
 5042 0610 6D5F6E65 		.ascii	"m_next\000"
 5042      787400
 5043              	.LASF26:
 5044 0617 73797374 		.ascii	"systime_t\000"
 5044      696D655F 
 5044      7400
 5045              	.LASF42:
 5046 0621 705F7265 		.ascii	"p_realprio\000"
 5046      616C7072 
 5046      696F00
 5047              	.LASF58:
 5048 062c 76746675 		.ascii	"vtfunc_t\000"
 5048      6E635F74 
 5048      00
 5049              	.LASF9:
 5050 0635 5F5F7569 		.ascii	"__uint32_t\000"
 5050      6E743332 
 5050      5F7400
 5051              	.LASF117:
 5052 0640 5F5F7365 		.ascii	"__set_BASEPRI\000"
 5052      745F4241 
 5052      53455052 
 5052      4900
 5053              	.LASF71:
 5054 064e 70616E69 		.ascii	"panic_msg\000"
 5054      635F6D73 
 5054      6700
 5055              	.LASF83:
 5056 0658 6F666673 		.ascii	"offset\000"
 5056      657400
 5057              	.LASF139:
 5058 065f 63684F51 		.ascii	"chOQResetI\000"
 5058      52657365 
 5058      744900
 5059              	.LASF81:
 5060 066a 636F6E74 		.ascii	"context\000"
 5060      65787400 
 5061              	.LASF18:
 5062 0672 7274636E 		.ascii	"rtcnt_t\000"
ARM GAS  /tmp/ccfWD8TF.s 			page 95


 5062      745F7400 
 5063              	.LASF65:
 5064 067a 76745F70 		.ascii	"vt_par\000"
 5064      617200
 5065              	.LASF137:
 5066 0681 63684F51 		.ascii	"chOQObjectInit\000"
 5066      4F626A65 
 5066      6374496E 
 5066      697400
 5067              	.LASF107:
 5068 0690 715F746F 		.ascii	"q_top\000"
 5068      7000
 5069              	.LASF96:
 5070 0696 63685F6D 		.ascii	"ch_mutex\000"
 5070      75746578 
 5070      00
 5071              	.LASF37:
 5072 069f 705F7265 		.ascii	"p_refs\000"
 5072      667300
 5073              	.LASF125:
 5074 06a6 63684951 		.ascii	"chIQIsEmptyI\000"
 5074      4973456D 
 5074      70747949 
 5074      00
 5075              	.LASF110:
 5076 06b3 715F6E6F 		.ascii	"q_notify\000"
 5076      74696679 
 5076      00
 5077              	.LASF74:
 5078 06bc 726C6973 		.ascii	"rlist\000"
 5078      7400
 5079              	.LASF14:
 5080 06c2 75696E74 		.ascii	"uint8_t\000"
 5080      385F7400 
 5081              	.LASF87:
 5082 06ca 77746F62 		.ascii	"wtobjp\000"
 5082      6A7000
 5083              	.LASF34:
 5084 06d1 705F6E61 		.ascii	"p_name\000"
 5084      6D6500
 5085              	.LASF128:
 5086 06d8 73697A65 		.ascii	"size\000"
 5086      00
 5087              	.LASF127:
 5088 06dd 63684F51 		.ascii	"chOQIsEmptyI\000"
 5088      4973456D 
 5088      70747949 
 5088      00
 5089              	.LASF45:
 5090 06ea 74687265 		.ascii	"threads_list_t\000"
 5090      6164735F 
 5090      6C697374 
 5090      5F7400
 5091              	.LASF123:
 5092 06f9 63685379 		.ascii	"chSysUnlock\000"
 5092      73556E6C 
 5092      6F636B00 
ARM GAS  /tmp/ccfWD8TF.s 			page 96


 5093              	.LASF111:
 5094 0705 715F6C69 		.ascii	"q_link\000"
 5094      6E6B00
 5095              	.LASF98:
 5096 070c 6D5F6F77 		.ascii	"m_owner\000"
 5096      6E657200 
 5097              	.LASF31:
 5098 0714 705F6374 		.ascii	"p_ctx\000"
 5098      7800
 5099              	.LASF64:
 5100 071a 76745F66 		.ascii	"vt_func\000"
 5100      756E6300 
 5101              	.LASF134:
 5102 0722 63684951 		.ascii	"chIQGetTimeout\000"
 5102      47657454 
 5102      696D656F 
 5102      757400
 5103              	.LASF147:
 5104 0731 63685468 		.ascii	"chThdEnqueueTimeoutS\000"
 5104      64456E71 
 5104      75657565 
 5104      54696D65 
 5104      6F757453 
 5105              		.ident	"GCC: (GNU Tools for ARM Embedded Processors) 4.8.4 20140526 (release) [ARM/embedded-4_8-br
ARM GAS  /tmp/ccfWD8TF.s 			page 97


DEFINED SYMBOLS
                            *ABS*:00000000 chqueues.c
     /tmp/ccfWD8TF.s:19     .text.chIQObjectInit:00000000 $t
     /tmp/ccfWD8TF.s:25     .text.chIQObjectInit:00000000 chIQObjectInit
     /tmp/ccfWD8TF.s:78     .text.chIQResetI:00000000 $t
     /tmp/ccfWD8TF.s:84     .text.chIQResetI:00000000 chIQResetI
     /tmp/ccfWD8TF.s:110    .text.chIQPutI:00000000 $t
     /tmp/ccfWD8TF.s:116    .text.chIQPutI:00000000 chIQPutI
     /tmp/ccfWD8TF.s:191    .text.chIQGetTimeout:00000000 $t
     /tmp/ccfWD8TF.s:197    .text.chIQGetTimeout:00000000 chIQGetTimeout
     /tmp/ccfWD8TF.s:342    .text.chIQReadTimeout:00000000 $t
     /tmp/ccfWD8TF.s:348    .text.chIQReadTimeout:00000000 chIQReadTimeout
     /tmp/ccfWD8TF.s:513    .text.chOQObjectInit:00000000 $t
     /tmp/ccfWD8TF.s:519    .text.chOQObjectInit:00000000 chOQObjectInit
     /tmp/ccfWD8TF.s:566    .text.chOQResetI:00000000 $t
     /tmp/ccfWD8TF.s:572    .text.chOQResetI:00000000 chOQResetI
     /tmp/ccfWD8TF.s:605    .text.chOQPutTimeout:00000000 $t
     /tmp/ccfWD8TF.s:611    .text.chOQPutTimeout:00000000 chOQPutTimeout
     /tmp/ccfWD8TF.s:747    .text.chOQGetI:00000000 $t
     /tmp/ccfWD8TF.s:753    .text.chOQGetI:00000000 chOQGetI
     /tmp/ccfWD8TF.s:830    .text.chOQWriteTimeout:00000000 $t
     /tmp/ccfWD8TF.s:836    .text.chOQWriteTimeout:00000000 chOQWriteTimeout
                     .debug_frame:00000010 $d

UNDEFINED SYMBOLS
chThdDequeueAllI
chThdDequeueNextI
chThdEnqueueTimeoutS
