ARM GAS  /tmp/ccMHi5c9.s 			page 1


   1              		.syntax unified
   2              		.cpu cortex-m4
   3              		.fpu softvfp
   4              		.eabi_attribute 20, 1
   5              		.eabi_attribute 21, 1
   6              		.eabi_attribute 23, 3
   7              		.eabi_attribute 24, 1
   8              		.eabi_attribute 25, 1
   9              		.eabi_attribute 26, 1
  10              		.eabi_attribute 30, 2
  11              		.eabi_attribute 34, 1
  12              		.eabi_attribute 18, 4
  13              		.thumb
  14              		.file	"chthreads.c"
  15              		.text
  16              	.Ltext0:
  17              		.cfi_sections	.debug_frame
  18              		.section	.text._thread_init,"ax",%progbits
  19              		.align	2
  20              		.p2align 4,,15
  21              		.global	_thread_init
  22              		.thumb
  23              		.thumb_func
  24              		.type	_thread_init, %function
  25              	_thread_init:
  26              	.LFB241:
  27              		.file 1 "../ChibiOS/os/rt/src/chthreads.c"
  28              		.loc 1 91 0
  29              		.cfi_startproc
  30              		@ args = 0, pretend = 0, frame = 0
  31              		@ frame_needed = 0, uses_anonymous_args = 0
  32              		@ link register save eliminated.
  33              	.LVL0:
  34 0000 2DE9F001 		push	{r4, r5, r6, r7, r8}
  35              		.cfi_def_cfa_offset 20
  36              		.cfi_offset 4, -20
  37              		.cfi_offset 5, -16
  38              		.cfi_offset 6, -12
  39              		.cfi_offset 7, -8
  40              		.cfi_offset 8, -4
  41              		.loc 1 114 0
  42 0004 0F4C     		ldr	r4, .L2
  43              		.loc 1 100 0
  44 0006 8163     		str	r1, [r0, #56]
  45              		.loc 1 114 0
  46 0008 6569     		ldr	r5, [r4, #20]
  47 000a 4561     		str	r5, [r0, #20]
  48              		.loc 1 95 0
  49 000c 0022     		movs	r2, #0
  50              		.loc 1 120 0
  51 000e 00F12806 		add	r6, r0, #40
  52              		.loc 1 94 0
  53 0012 4FF00208 		mov	r8, #2
  54              		.loc 1 117 0
  55 0016 00F12407 		add	r7, r0, #36
  56              		.loc 1 110 0
  57 001a 4FF0010C 		mov	ip, #1
ARM GAS  /tmp/ccMHi5c9.s 			page 2


  58              		.loc 1 114 0
  59 001e 0461     		str	r4, [r0, #16]
  60              		.loc 1 93 0
  61 0020 8160     		str	r1, [r0, #8]
  62              		.loc 1 94 0
  63 0022 80F81C80 		strb	r8, [r0, #28]
  64              		.loc 1 110 0
  65 0026 80F81EC0 		strb	ip, [r0, #30]
  66              		.loc 1 95 0
  67 002a 4277     		strb	r2, [r0, #29]
  68              		.loc 1 101 0
  69 002c 4263     		str	r2, [r0, #52]
  70              		.loc 1 104 0
  71 002e 0263     		str	r2, [r0, #48]
  72              		.loc 1 113 0
  73 0030 8261     		str	r2, [r0, #24]
  74              		.loc 1 114 0
  75 0032 2861     		str	r0, [r5, #16]
  76 0034 6061     		str	r0, [r4, #20]
  77              	.LVL1:
  78              	.LBB196:
  79              	.LBB197:
  80              		.file 2 "../ChibiOS/os/rt/include/chschd.h"
  81              		.loc 2 568 0
  82 0036 4762     		str	r7, [r0, #36]
  83              	.LBE197:
  84              	.LBE196:
  85              	.LBB198:
  86              	.LBB199:
  87              		.loc 2 606 0
  88 0038 8662     		str	r6, [r0, #40]
  89              		.loc 2 607 0
  90 003a C662     		str	r6, [r0, #44]
  91              	.LBE199:
  92              	.LBE198:
  93              		.loc 1 133 0
  94 003c BDE8F001 		pop	{r4, r5, r6, r7, r8}
  95              	.LVL2:
  96 0040 7047     		bx	lr
  97              	.L3:
  98 0042 00BF     		.align	2
  99              	.L2:
 100 0044 00000000 		.word	ch
 101              		.cfi_endproc
 102              	.LFE241:
 103              		.size	_thread_init, .-_thread_init
 104 0048 AFF30080 		.section	.text.chThdCreateI,"ax",%progbits
 104      AFF30080 
 105              		.align	2
 106              		.p2align 4,,15
 107              		.global	chThdCreateI
 108              		.thumb
 109              		.thumb_func
 110              		.type	chThdCreateI, %function
 111              	chThdCreateI:
 112              	.LFB242:
 113              		.loc 1 178 0
ARM GAS  /tmp/ccMHi5c9.s 			page 3


 114              		.cfi_startproc
 115              		@ args = 4, pretend = 0, frame = 0
 116              		@ frame_needed = 0, uses_anonymous_args = 0
 117              		@ link register save eliminated.
 118              	.LVL3:
 119 0000 2DE9F00F 		push	{r4, r5, r6, r7, r8, r9, r10, fp}
 120              		.cfi_def_cfa_offset 32
 121              		.cfi_offset 4, -32
 122              		.cfi_offset 5, -28
 123              		.cfi_offset 6, -24
 124              		.cfi_offset 7, -20
 125              		.cfi_offset 8, -16
 126              		.cfi_offset 9, -12
 127              		.cfi_offset 10, -8
 128              		.cfi_offset 11, -4
 129              	.LBB200:
 130              	.LBB201:
 131              		.loc 1 114 0
 132 0004 164D     		ldr	r5, .L5
 133              	.LBE201:
 134              	.LBE200:
 135              		.loc 1 187 0
 136 0006 DFF85C80 		ldr	r8, .L5+4
 137              	.LBB210:
 138              	.LBB206:
 139              		.loc 1 114 0
 140 000a D5F814C0 		ldr	ip, [r5, #20]
 141              	.LBE206:
 142              	.LBE210:
 143              		.loc 1 187 0
 144 000e 089F     		ldr	r7, [sp, #32]
 145 0010 2439     		subs	r1, r1, #36
 146              	.LVL4:
 147 0012 4618     		adds	r6, r0, r1
 148 0014 C660     		str	r6, [r0, #12]
 149              	.LBB211:
 150              	.LBB207:
 151              		.loc 1 94 0
 152 0016 4FF0020B 		mov	fp, #2
 153              	.LBE207:
 154              	.LBE211:
 155              		.loc 1 187 0
 156 001a 4350     		str	r3, [r0, r1]
 157              	.LBB212:
 158              	.LBB208:
 159              		.loc 1 110 0
 160 001c 4FF0010A 		mov	r10, #1
 161              		.loc 1 95 0
 162 0020 0023     		movs	r3, #0
 163              	.LVL5:
 164              		.loc 1 117 0
 165 0022 00F12409 		add	r9, r0, #36
 166              		.loc 1 120 0
 167 0026 00F12801 		add	r1, r0, #40
 168              	.LVL6:
 169              	.LBE208:
 170              	.LBE212:
ARM GAS  /tmp/ccMHi5c9.s 			page 4


 171              		.loc 1 187 0
 172 002a 7760     		str	r7, [r6, #4]
 173 002c C6F82080 		str	r8, [r6, #32]
 174              	.LVL7:
 175              	.LBB213:
 176              	.LBB209:
 177              		.loc 1 114 0
 178 0030 0561     		str	r5, [r0, #16]
 179              		.loc 1 93 0
 180 0032 8260     		str	r2, [r0, #8]
 181              		.loc 1 94 0
 182 0034 80F81CB0 		strb	fp, [r0, #28]
 183              	.LVL8:
 184              		.loc 1 110 0
 185 0038 80F81EA0 		strb	r10, [r0, #30]
 186              		.loc 1 114 0
 187 003c C0F814C0 		str	ip, [r0, #20]
 188              		.loc 1 100 0
 189 0040 8263     		str	r2, [r0, #56]
 190              		.loc 1 95 0
 191 0042 4377     		strb	r3, [r0, #29]
 192              		.loc 1 101 0
 193 0044 4363     		str	r3, [r0, #52]
 194              		.loc 1 104 0
 195 0046 0363     		str	r3, [r0, #48]
 196              		.loc 1 113 0
 197 0048 8361     		str	r3, [r0, #24]
 198              		.loc 1 114 0
 199 004a CCF81000 		str	r0, [ip, #16]
 200              	.LBB202:
 201              	.LBB203:
 202              		.loc 2 568 0
 203 004e C0F82490 		str	r9, [r0, #36]
 204              	.LBE203:
 205              	.LBE202:
 206              		.loc 1 114 0
 207 0052 6861     		str	r0, [r5, #20]
 208              	.LVL9:
 209              	.LBB204:
 210              	.LBB205:
 211              		.loc 2 606 0
 212 0054 8162     		str	r1, [r0, #40]
 213              		.loc 2 607 0
 214 0056 C162     		str	r1, [r0, #44]
 215              	.LBE205:
 216              	.LBE204:
 217              	.LBE209:
 218              	.LBE213:
 219              		.loc 1 190 0
 220 0058 BDE8F00F 		pop	{r4, r5, r6, r7, r8, r9, r10, fp}
 221              	.LVL10:
 222 005c 7047     		bx	lr
 223              	.L6:
 224 005e 00BF     		.align	2
 225              	.L5:
 226 0060 00000000 		.word	ch
 227 0064 00000000 		.word	_port_thread_start
ARM GAS  /tmp/ccMHi5c9.s 			page 5


 228              		.cfi_endproc
 229              	.LFE242:
 230              		.size	chThdCreateI, .-chThdCreateI
 231 0068 AFF30080 		.section	.text.chThdCreateStatic,"ax",%progbits
 231      AFF30080 
 232              		.align	2
 233              		.p2align 4,,15
 234              		.global	chThdCreateStatic
 235              		.thumb
 236              		.thumb_func
 237              		.type	chThdCreateStatic, %function
 238              	chThdCreateStatic:
 239              	.LFB243:
 240              		.loc 1 209 0
 241              		.cfi_startproc
 242              		@ args = 4, pretend = 0, frame = 0
 243              		@ frame_needed = 0, uses_anonymous_args = 0
 244              	.LVL11:
 245 0000 2DE9F047 		push	{r4, r5, r6, r7, r8, r9, r10, lr}
 246              		.cfi_def_cfa_offset 32
 247              		.cfi_offset 4, -32
 248              		.cfi_offset 5, -28
 249              		.cfi_offset 6, -24
 250              		.cfi_offset 7, -20
 251              		.cfi_offset 8, -16
 252              		.cfi_offset 9, -12
 253              		.cfi_offset 10, -8
 254              		.cfi_offset 14, -4
 255              		.loc 1 209 0
 256 0004 0446     		mov	r4, r0
 257              	.LBB214:
 258              	.LBB215:
 259              	.LBB216:
 260              	.LBB217:
 261              		.file 3 "../ChibiOS/os/ext/CMSIS/include/core_cmFunc.h"
 262              		.loc 3 548 0
 263 0006 2025     		movs	r5, #32
 264              	@ 548 "../ChibiOS/os/ext/CMSIS/include/core_cmFunc.h" 1
 265 0008 85F31188 		MSR basepri, r5
 266              	@ 0 "" 2
 267              	.LVL12:
 268              		.thumb
 269              	.LBE217:
 270              	.LBE216:
 271              	.LBE215:
 272              	.LBE214:
 273              	.LBB218:
 274              	.LBB219:
 275              	.LBB220:
 276              	.LBB221:
 277              		.loc 1 114 0
 278 000c 184E     		ldr	r6, .L8
 279              	.LBE221:
 280              	.LBE220:
 281              		.loc 1 187 0
 282 000e DFF864A0 		ldr	r10, .L8+4
 283              	.LBB231:
ARM GAS  /tmp/ccMHi5c9.s 			page 6


 284              	.LBB226:
 285              		.loc 1 114 0
 286 0012 D6F814E0 		ldr	lr, [r6, #20]
 287              	.LBE226:
 288              	.LBE231:
 289              		.loc 1 187 0
 290 0016 2439     		subs	r1, r1, #36
 291              	.LVL13:
 292 0018 4718     		adds	r7, r0, r1
 293 001a C760     		str	r7, [r0, #12]
 294              	.LBB232:
 295              	.LBB227:
 296              		.loc 1 95 0
 297 001c 0025     		movs	r5, #0
 298              	.LBE227:
 299              	.LBE232:
 300              		.loc 1 187 0
 301 001e 4350     		str	r3, [r0, r1]
 302              	.LBB233:
 303              	.LBB228:
 304              		.loc 1 117 0
 305 0020 00F1240C 		add	ip, r0, #36
 306              		.loc 1 120 0
 307 0024 00F12803 		add	r3, r0, #40
 308              	.LVL14:
 309              	.LBE228:
 310              	.LBE233:
 311              		.loc 1 187 0
 312 0028 0899     		ldr	r1, [sp, #32]
 313              	.LVL15:
 314 002a 7960     		str	r1, [r7, #4]
 315              	.LBB234:
 316              	.LBB229:
 317              		.loc 1 94 0
 318 002c 4FF00209 		mov	r9, #2
 319              		.loc 1 110 0
 320 0030 4FF00108 		mov	r8, #1
 321              	.LBE229:
 322              	.LBE234:
 323              		.loc 1 187 0
 324 0034 C7F820A0 		str	r10, [r7, #32]
 325              	.LVL16:
 326              	.LBE219:
 327              	.LBE218:
 328              		.loc 1 223 0
 329 0038 2946     		mov	r1, r5
 330              	.LBB237:
 331              	.LBB236:
 332              	.LBB235:
 333              	.LBB230:
 334              		.loc 1 93 0
 335 003a 8260     		str	r2, [r0, #8]
 336              		.loc 1 114 0
 337 003c 0661     		str	r6, [r0, #16]
 338 003e C0F814E0 		str	lr, [r0, #20]
 339              		.loc 1 100 0
 340 0042 8263     		str	r2, [r0, #56]
ARM GAS  /tmp/ccMHi5c9.s 			page 7


 341              		.loc 1 94 0
 342 0044 80F81C90 		strb	r9, [r0, #28]
 343              	.LVL17:
 344              		.loc 1 110 0
 345 0048 80F81E80 		strb	r8, [r0, #30]
 346              		.loc 1 95 0
 347 004c 4577     		strb	r5, [r0, #29]
 348              		.loc 1 101 0
 349 004e 4563     		str	r5, [r0, #52]
 350              		.loc 1 104 0
 351 0050 0563     		str	r5, [r0, #48]
 352              		.loc 1 113 0
 353 0052 8561     		str	r5, [r0, #24]
 354              		.loc 1 114 0
 355 0054 CEF81000 		str	r0, [lr, #16]
 356              	.LBB222:
 357              	.LBB223:
 358              		.loc 2 568 0
 359 0058 C0F824C0 		str	ip, [r0, #36]
 360              	.LBE223:
 361              	.LBE222:
 362              	.LBB224:
 363              	.LBB225:
 364              		.loc 2 606 0
 365 005c 8362     		str	r3, [r0, #40]
 366              		.loc 2 607 0
 367 005e C362     		str	r3, [r0, #44]
 368              	.LBE225:
 369              	.LBE224:
 370              		.loc 1 114 0
 371 0060 7061     		str	r0, [r6, #20]
 372              	.LVL18:
 373              	.LBE230:
 374              	.LBE235:
 375              	.LBE236:
 376              	.LBE237:
 377              		.loc 1 223 0
 378 0062 FFF7FEFF 		bl	chSchWakeupS
 379              	.LVL19:
 380              	.LBB238:
 381              	.LBB239:
 382              	.LBB240:
 383              	.LBB241:
 384              	.LBB242:
 385              		.loc 3 548 0
 386              	@ 548 "../ChibiOS/os/ext/CMSIS/include/core_cmFunc.h" 1
 387 0066 85F31188 		MSR basepri, r5
 388              	@ 0 "" 2
 389              		.thumb
 390              	.LBE242:
 391              	.LBE241:
 392              	.LBE240:
 393              	.LBE239:
 394              	.LBE238:
 395              		.loc 1 227 0
 396 006a 2046     		mov	r0, r4
 397 006c BDE8F087 		pop	{r4, r5, r6, r7, r8, r9, r10, pc}
ARM GAS  /tmp/ccMHi5c9.s 			page 8


 398              	.LVL20:
 399              	.L9:
 400              		.align	2
 401              	.L8:
 402 0070 00000000 		.word	ch
 403 0074 00000000 		.word	_port_thread_start
 404              		.cfi_endproc
 405              	.LFE243:
 406              		.size	chThdCreateStatic, .-chThdCreateStatic
 407 0078 AFF30080 		.section	.text.chThdStart,"ax",%progbits
 407      AFF30080 
 408              		.align	2
 409              		.p2align 4,,15
 410              		.global	chThdStart
 411              		.thumb
 412              		.thumb_func
 413              		.type	chThdStart, %function
 414              	chThdStart:
 415              	.LFB244:
 416              		.loc 1 238 0
 417              		.cfi_startproc
 418              		@ args = 0, pretend = 0, frame = 0
 419              		@ frame_needed = 0, uses_anonymous_args = 0
 420              	.LVL21:
 421 0000 08B5     		push	{r3, lr}
 422              		.cfi_def_cfa_offset 8
 423              		.cfi_offset 3, -8
 424              		.cfi_offset 14, -4
 425              	.LBB243:
 426              	.LBB244:
 427              	.LBB245:
 428              	.LBB246:
 429              		.loc 3 548 0
 430 0002 2023     		movs	r3, #32
 431              	@ 548 "../ChibiOS/os/ext/CMSIS/include/core_cmFunc.h" 1
 432 0004 83F31188 		MSR basepri, r3
 433              	@ 0 "" 2
 434              	.LVL22:
 435              		.thumb
 436              	.LBE246:
 437              	.LBE245:
 438              	.LBE244:
 439              	.LBE243:
 440              	.LBB247:
 441              	.LBB248:
 442              		.file 4 "../ChibiOS/os/rt/include/chthreads.h"
 443              		.loc 4 249 0
 444 0008 FFF7FEFF 		bl	chSchReadyI
 445              	.LVL23:
 446              	.LBE248:
 447              	.LBE247:
 448              	.LBB249:
 449              	.LBB250:
 450              	.LBB251:
 451              	.LBB252:
 452              	.LBB253:
 453              		.loc 3 548 0
ARM GAS  /tmp/ccMHi5c9.s 			page 9


 454 000c 0023     		movs	r3, #0
 455              	@ 548 "../ChibiOS/os/ext/CMSIS/include/core_cmFunc.h" 1
 456 000e 83F31188 		MSR basepri, r3
 457              	@ 0 "" 2
 458              		.thumb
 459              	.LBE253:
 460              	.LBE252:
 461              	.LBE251:
 462              	.LBE250:
 463              	.LBE249:
 464              		.loc 1 245 0
 465 0012 08BD     		pop	{r3, pc}
 466              		.cfi_endproc
 467              	.LFE244:
 468              		.size	chThdStart, .-chThdStart
 469 0014 AFF30080 		.section	.text.chThdSetPriority,"ax",%progbits
 469      AFF30080 
 469      AFF30080 
 470              		.align	2
 471              		.p2align 4,,15
 472              		.global	chThdSetPriority
 473              		.thumb
 474              		.thumb_func
 475              		.type	chThdSetPriority, %function
 476              	chThdSetPriority:
 477              	.LFB245:
 478              		.loc 1 259 0
 479              		.cfi_startproc
 480              		@ args = 0, pretend = 0, frame = 0
 481              		@ frame_needed = 0, uses_anonymous_args = 0
 482              	.LVL24:
 483 0000 10B5     		push	{r4, lr}
 484              		.cfi_def_cfa_offset 8
 485              		.cfi_offset 4, -8
 486              		.cfi_offset 14, -4
 487              	.LBB254:
 488              	.LBB255:
 489              	.LBB256:
 490              	.LBB257:
 491              		.loc 3 548 0
 492 0002 2023     		movs	r3, #32
 493              	@ 548 "../ChibiOS/os/ext/CMSIS/include/core_cmFunc.h" 1
 494 0004 83F31188 		MSR basepri, r3
 495              	@ 0 "" 2
 496              		.thumb
 497              	.LBE257:
 498              	.LBE256:
 499              	.LBE255:
 500              	.LBE254:
 501              		.loc 1 266 0
 502 0008 084B     		ldr	r3, .L15
 503 000a 9B69     		ldr	r3, [r3, #24]
 504 000c 9C6B     		ldr	r4, [r3, #56]
 505              	.LVL25:
 506              		.loc 1 267 0
 507 000e 9968     		ldr	r1, [r3, #8]
 508 0010 8C42     		cmp	r4, r1
ARM GAS  /tmp/ccMHi5c9.s 			page 10


 509 0012 01D0     		beq	.L12
 510              		.loc 1 267 0 is_stmt 0 discriminator 1
 511 0014 8142     		cmp	r1, r0
 512 0016 00D2     		bcs	.L13
 513              	.L12:
 514              		.loc 1 268 0 is_stmt 1
 515 0018 9860     		str	r0, [r3, #8]
 516              	.L13:
 517              		.loc 1 270 0
 518 001a 9863     		str	r0, [r3, #56]
 519              		.loc 1 275 0
 520 001c FFF7FEFF 		bl	chSchRescheduleS
 521              	.LVL26:
 522              	.LBB258:
 523              	.LBB259:
 524              	.LBB260:
 525              	.LBB261:
 526              	.LBB262:
 527              		.loc 3 548 0
 528 0020 0023     		movs	r3, #0
 529              	@ 548 "../ChibiOS/os/ext/CMSIS/include/core_cmFunc.h" 1
 530 0022 83F31188 		MSR basepri, r3
 531              	@ 0 "" 2
 532              		.thumb
 533              	.LBE262:
 534              	.LBE261:
 535              	.LBE260:
 536              	.LBE259:
 537              	.LBE258:
 538              		.loc 1 279 0
 539 0026 2046     		mov	r0, r4
 540 0028 10BD     		pop	{r4, pc}
 541              	.LVL27:
 542              	.L16:
 543 002a 00BF     		.align	2
 544              	.L15:
 545 002c 00000000 		.word	ch
 546              		.cfi_endproc
 547              	.LFE245:
 548              		.size	chThdSetPriority, .-chThdSetPriority
 549              		.section	.text.chThdTerminate,"ax",%progbits
 550              		.align	2
 551              		.p2align 4,,15
 552              		.global	chThdTerminate
 553              		.thumb
 554              		.thumb_func
 555              		.type	chThdTerminate, %function
 556              	chThdTerminate:
 557              	.LFB246:
 558              		.loc 1 293 0
 559              		.cfi_startproc
 560              		@ args = 0, pretend = 0, frame = 0
 561              		@ frame_needed = 0, uses_anonymous_args = 0
 562              		@ link register save eliminated.
 563              	.LVL28:
 564              	.LBB263:
 565              	.LBB264:
ARM GAS  /tmp/ccMHi5c9.s 			page 11


 566              	.LBB265:
 567              	.LBB266:
 568              		.loc 3 548 0
 569 0000 2023     		movs	r3, #32
 570              	@ 548 "../ChibiOS/os/ext/CMSIS/include/core_cmFunc.h" 1
 571 0002 83F31188 		MSR basepri, r3
 572              	@ 0 "" 2
 573              		.thumb
 574              	.LBE266:
 575              	.LBE265:
 576              	.LBE264:
 577              	.LBE263:
 578              		.loc 1 296 0
 579 0006 437F     		ldrb	r3, [r0, #29]	@ zero_extendqisi2
 580 0008 43F00403 		orr	r3, r3, #4
 581 000c 4377     		strb	r3, [r0, #29]
 582              	.LVL29:
 583              	.LBB267:
 584              	.LBB268:
 585              	.LBB269:
 586              	.LBB270:
 587              	.LBB271:
 588              		.loc 3 548 0
 589 000e 0023     		movs	r3, #0
 590              	@ 548 "../ChibiOS/os/ext/CMSIS/include/core_cmFunc.h" 1
 591 0010 83F31188 		MSR basepri, r3
 592              	@ 0 "" 2
 593              		.thumb
 594 0014 7047     		bx	lr
 595              	.LBE271:
 596              	.LBE270:
 597              	.LBE269:
 598              	.LBE268:
 599              	.LBE267:
 600              		.cfi_endproc
 601              	.LFE246:
 602              		.size	chThdTerminate, .-chThdTerminate
 603 0016 00BFAFF3 		.section	.text.chThdSleep,"ax",%progbits
 603      0080AFF3 
 603      0080
 604              		.align	2
 605              		.p2align 4,,15
 606              		.global	chThdSleep
 607              		.thumb
 608              		.thumb_func
 609              		.type	chThdSleep, %function
 610              	chThdSleep:
 611              	.LFB247:
 612              		.loc 1 312 0
 613              		.cfi_startproc
 614              		@ args = 0, pretend = 0, frame = 0
 615              		@ frame_needed = 0, uses_anonymous_args = 0
 616              	.LVL30:
 617 0000 08B5     		push	{r3, lr}
 618              		.cfi_def_cfa_offset 8
 619              		.cfi_offset 3, -8
 620              		.cfi_offset 14, -4
ARM GAS  /tmp/ccMHi5c9.s 			page 12


 621              		.loc 1 312 0
 622 0002 0146     		mov	r1, r0
 623              	.LBB272:
 624              	.LBB273:
 625              	.LBB274:
 626              	.LBB275:
 627              		.loc 3 548 0
 628 0004 2023     		movs	r3, #32
 629              	@ 548 "../ChibiOS/os/ext/CMSIS/include/core_cmFunc.h" 1
 630 0006 83F31188 		MSR basepri, r3
 631              	@ 0 "" 2
 632              	.LVL31:
 633              		.thumb
 634              	.LBE275:
 635              	.LBE274:
 636              	.LBE273:
 637              	.LBE272:
 638              	.LBB276:
 639              	.LBB277:
 640              		.loc 4 268 0
 641 000a 0820     		movs	r0, #8
 642              	.LVL32:
 643 000c FFF7FEFF 		bl	chSchGoSleepTimeoutS
 644              	.LVL33:
 645              	.LBE277:
 646              	.LBE276:
 647              	.LBB278:
 648              	.LBB279:
 649              	.LBB280:
 650              	.LBB281:
 651              	.LBB282:
 652              		.loc 3 548 0
 653 0010 0023     		movs	r3, #0
 654              	@ 548 "../ChibiOS/os/ext/CMSIS/include/core_cmFunc.h" 1
 655 0012 83F31188 		MSR basepri, r3
 656              	@ 0 "" 2
 657              		.thumb
 658 0016 08BD     		pop	{r3, pc}
 659              	.LBE282:
 660              	.LBE281:
 661              	.LBE280:
 662              	.LBE279:
 663              	.LBE278:
 664              		.cfi_endproc
 665              	.LFE247:
 666              		.size	chThdSleep, .-chThdSleep
 667 0018 AFF30080 		.section	.text.chThdSleepUntil,"ax",%progbits
 667      AFF30080 
 668              		.align	2
 669              		.p2align 4,,15
 670              		.global	chThdSleepUntil
 671              		.thumb
 672              		.thumb_func
 673              		.type	chThdSleepUntil, %function
 674              	chThdSleepUntil:
 675              	.LFB248:
 676              		.loc 1 332 0
ARM GAS  /tmp/ccMHi5c9.s 			page 13


 677              		.cfi_startproc
 678              		@ args = 0, pretend = 0, frame = 0
 679              		@ frame_needed = 0, uses_anonymous_args = 0
 680              	.LVL34:
 681 0000 08B5     		push	{r3, lr}
 682              		.cfi_def_cfa_offset 8
 683              		.cfi_offset 3, -8
 684              		.cfi_offset 14, -4
 685              	.LBB283:
 686              	.LBB284:
 687              	.LBB285:
 688              	.LBB286:
 689              		.loc 3 548 0
 690 0002 2023     		movs	r3, #32
 691              	@ 548 "../ChibiOS/os/ext/CMSIS/include/core_cmFunc.h" 1
 692 0004 83F31188 		MSR basepri, r3
 693              	@ 0 "" 2
 694              		.thumb
 695              	.LBE286:
 696              	.LBE285:
 697              	.LBE284:
 698              	.LBE283:
 699              	.LBB287:
 700              	.LBB288:
 701              	.LBB289:
 702              	.LBB290:
 703              		.file 5 "../ChibiOS/os/hal/ports/STM32/LLD/TIMv1/st_lld.h"
 704              		.loc 5 141 0
 705 0008 4FF08043 		mov	r3, #1073741824
 706 000c 5B6A     		ldr	r3, [r3, #36]
 707              	.LVL35:
 708              	.LBE290:
 709              	.LBE289:
 710              	.LBE288:
 711              	.LBE287:
 712              		.loc 1 336 0
 713 000e C11A     		subs	r1, r0, r3
 714              	.LVL36:
 715 0010 02D0     		beq	.L20
 716              	.LVL37:
 717              	.LBB291:
 718              	.LBB292:
 719              		.loc 4 268 0
 720 0012 0820     		movs	r0, #8
 721 0014 FFF7FEFF 		bl	chSchGoSleepTimeoutS
 722              	.LVL38:
 723              	.L20:
 724              	.LBE292:
 725              	.LBE291:
 726              	.LBB293:
 727              	.LBB294:
 728              	.LBB295:
 729              	.LBB296:
 730              	.LBB297:
 731              		.loc 3 548 0
 732 0018 0023     		movs	r3, #0
 733              	@ 548 "../ChibiOS/os/ext/CMSIS/include/core_cmFunc.h" 1
ARM GAS  /tmp/ccMHi5c9.s 			page 14


 734 001a 83F31188 		MSR basepri, r3
 735              	@ 0 "" 2
 736              		.thumb
 737 001e 08BD     		pop	{r3, pc}
 738              	.LBE297:
 739              	.LBE296:
 740              	.LBE295:
 741              	.LBE294:
 742              	.LBE293:
 743              		.cfi_endproc
 744              	.LFE248:
 745              		.size	chThdSleepUntil, .-chThdSleepUntil
 746              		.section	.text.chThdSleepUntilWindowed,"ax",%progbits
 747              		.align	2
 748              		.p2align 4,,15
 749              		.global	chThdSleepUntilWindowed
 750              		.thumb
 751              		.thumb_func
 752              		.type	chThdSleepUntilWindowed, %function
 753              	chThdSleepUntilWindowed:
 754              	.LFB249:
 755              		.loc 1 356 0
 756              		.cfi_startproc
 757              		@ args = 0, pretend = 0, frame = 0
 758              		@ frame_needed = 0, uses_anonymous_args = 0
 759              	.LVL39:
 760 0000 10B5     		push	{r4, lr}
 761              		.cfi_def_cfa_offset 8
 762              		.cfi_offset 4, -8
 763              		.cfi_offset 14, -4
 764              	.LBB298:
 765              	.LBB299:
 766              	.LBB300:
 767              	.LBB301:
 768              		.loc 3 548 0
 769 0002 2023     		movs	r3, #32
 770              	.LBE301:
 771              	.LBE300:
 772              	.LBE299:
 773              	.LBE298:
 774              		.loc 1 356 0
 775 0004 0C46     		mov	r4, r1
 776              	.LBB305:
 777              	.LBB304:
 778              	.LBB303:
 779              	.LBB302:
 780              		.loc 3 548 0
 781              	@ 548 "../ChibiOS/os/ext/CMSIS/include/core_cmFunc.h" 1
 782 0006 83F31188 		MSR basepri, r3
 783              	@ 0 "" 2
 784              		.thumb
 785              	.LBE302:
 786              	.LBE303:
 787              	.LBE304:
 788              	.LBE305:
 789              	.LBB306:
 790              	.LBB307:
ARM GAS  /tmp/ccMHi5c9.s 			page 15


 791              	.LBB308:
 792              	.LBB309:
 793              		.loc 5 141 0
 794 000a 4FF08042 		mov	r2, #1073741824
 795              	.LBE309:
 796              	.LBE308:
 797              	.LBE307:
 798              	.LBE306:
 799              	.LBB313:
 800              	.LBB314:
 801              		.file 6 "../ChibiOS/os/rt/include/chvt.h"
 802              		.loc 6 288 0
 803 000e 0B1A     		subs	r3, r1, r0
 804              	.LBE314:
 805              	.LBE313:
 806              	.LBB316:
 807              	.LBB312:
 808              	.LBB311:
 809              	.LBB310:
 810              		.loc 5 141 0
 811 0010 516A     		ldr	r1, [r2, #36]
 812              	.LVL40:
 813              	.LBE310:
 814              	.LBE311:
 815              	.LBE312:
 816              	.LBE316:
 817              	.LBB317:
 818              	.LBB315:
 819              		.loc 6 288 0
 820 0012 081A     		subs	r0, r1, r0
 821              	.LVL41:
 822              	.LBE315:
 823              	.LBE317:
 824              		.loc 1 361 0
 825 0014 9842     		cmp	r0, r3
 826 0016 03D2     		bcs	.L25
 827              	.LVL42:
 828              	.LBB318:
 829              	.LBB319:
 830              		.loc 4 268 0
 831 0018 611A     		subs	r1, r4, r1
 832              	.LVL43:
 833 001a 0820     		movs	r0, #8
 834 001c FFF7FEFF 		bl	chSchGoSleepTimeoutS
 835              	.LVL44:
 836              	.L25:
 837              	.LBE319:
 838              	.LBE318:
 839              	.LBB320:
 840              	.LBB321:
 841              	.LBB322:
 842              	.LBB323:
 843              	.LBB324:
 844              		.loc 3 548 0
 845 0020 0023     		movs	r3, #0
 846              	@ 548 "../ChibiOS/os/ext/CMSIS/include/core_cmFunc.h" 1
 847 0022 83F31188 		MSR basepri, r3
ARM GAS  /tmp/ccMHi5c9.s 			page 16


 848              	@ 0 "" 2
 849              		.thumb
 850              	.LBE324:
 851              	.LBE323:
 852              	.LBE322:
 853              	.LBE321:
 854              	.LBE320:
 855              		.loc 1 367 0
 856 0026 2046     		mov	r0, r4
 857 0028 10BD     		pop	{r4, pc}
 858              		.cfi_endproc
 859              	.LFE249:
 860              		.size	chThdSleepUntilWindowed, .-chThdSleepUntilWindowed
 861 002a 00BFAFF3 		.section	.text.chThdYield,"ax",%progbits
 861      0080
 862              		.align	2
 863              		.p2align 4,,15
 864              		.global	chThdYield
 865              		.thumb
 866              		.thumb_func
 867              		.type	chThdYield, %function
 868              	chThdYield:
 869              	.LFB250:
 870              		.loc 1 376 0
 871              		.cfi_startproc
 872              		@ args = 0, pretend = 0, frame = 0
 873              		@ frame_needed = 0, uses_anonymous_args = 0
 874              	.LVL45:
 875 0000 08B5     		push	{r3, lr}
 876              		.cfi_def_cfa_offset 8
 877              		.cfi_offset 3, -8
 878              		.cfi_offset 14, -4
 879              	.LBB338:
 880              	.LBB339:
 881              	.LBB340:
 882              	.LBB341:
 883              		.loc 3 548 0
 884 0002 2023     		movs	r3, #32
 885              	@ 548 "../ChibiOS/os/ext/CMSIS/include/core_cmFunc.h" 1
 886 0004 83F31188 		MSR basepri, r3
 887              	@ 0 "" 2
 888              		.thumb
 889              	.LBE341:
 890              	.LBE340:
 891              	.LBE339:
 892              	.LBE338:
 893              	.LBB342:
 894              	.LBB343:
 895              	.LBB344:
 896              	.LBB345:
 897              		.loc 2 733 0
 898 0008 064B     		ldr	r3, .L28
 899 000a 1A68     		ldr	r2, [r3]
 900 000c 9B69     		ldr	r3, [r3, #24]
 901              	.LBE345:
 902              	.LBE344:
 903              		.loc 2 747 0
ARM GAS  /tmp/ccMHi5c9.s 			page 17


 904 000e 9268     		ldr	r2, [r2, #8]
 905 0010 9B68     		ldr	r3, [r3, #8]
 906 0012 9A42     		cmp	r2, r3
 907 0014 01D3     		bcc	.L27
 908              		.loc 2 748 0
 909 0016 FFF7FEFF 		bl	chSchDoRescheduleBehind
 910              	.LVL46:
 911              	.L27:
 912              	.LBE343:
 913              	.LBE342:
 914              	.LBB346:
 915              	.LBB347:
 916              	.LBB348:
 917              	.LBB349:
 918              	.LBB350:
 919              		.loc 3 548 0
 920 001a 0023     		movs	r3, #0
 921              	@ 548 "../ChibiOS/os/ext/CMSIS/include/core_cmFunc.h" 1
 922 001c 83F31188 		MSR basepri, r3
 923              	@ 0 "" 2
 924              		.thumb
 925 0020 08BD     		pop	{r3, pc}
 926              	.L29:
 927 0022 00BF     		.align	2
 928              	.L28:
 929 0024 00000000 		.word	ch
 930              	.LBE350:
 931              	.LBE349:
 932              	.LBE348:
 933              	.LBE347:
 934              	.LBE346:
 935              		.cfi_endproc
 936              	.LFE250:
 937              		.size	chThdYield, .-chThdYield
 938 0028 AFF30080 		.section	.text.chThdExitS,"ax",%progbits
 938      AFF30080 
 939              		.align	2
 940              		.p2align 4,,15
 941              		.global	chThdExitS
 942              		.thumb
 943              		.thumb_func
 944              		.type	chThdExitS, %function
 945              	chThdExitS:
 946              	.LFB252:
 947              		.loc 1 418 0
 948              		.cfi_startproc
 949              		@ args = 0, pretend = 0, frame = 0
 950              		@ frame_needed = 0, uses_anonymous_args = 0
 951              	.LVL47:
 952 0000 38B5     		push	{r3, r4, r5, lr}
 953              		.cfi_def_cfa_offset 16
 954              		.cfi_offset 3, -16
 955              		.cfi_offset 4, -12
 956              		.cfi_offset 5, -8
 957              		.cfi_offset 14, -4
 958              		.loc 1 419 0
 959 0002 0E4B     		ldr	r3, .L36
ARM GAS  /tmp/ccMHi5c9.s 			page 18


 960 0004 9C69     		ldr	r4, [r3, #24]
 961              	.LVL48:
 962              	.LBB351:
 963              	.LBB352:
 964              		.loc 2 594 0
 965 0006 636A     		ldr	r3, [r4, #36]
 966              	.LBE352:
 967              	.LBE351:
 968              		.loc 1 421 0
 969 0008 2062     		str	r0, [r4, #32]
 970              		.loc 1 426 0
 971 000a 04F12405 		add	r5, r4, #36
 972              	.LVL49:
 973 000e 9D42     		cmp	r5, r3
 974 0010 07D0     		beq	.L34
 975              	.LVL50:
 976              	.L35:
 977              	.LBB354:
 978              	.LBB355:
 979              		.loc 2 648 0
 980 0012 1A68     		ldr	r2, [r3]
 981 0014 6262     		str	r2, [r4, #36]
 982              	.LBE355:
 983              	.LBE354:
 984              		.loc 1 427 0
 985 0016 1846     		mov	r0, r3
 986 0018 FFF7FEFF 		bl	chSchReadyI
 987              	.LVL51:
 988              	.LBB356:
 989              	.LBB353:
 990              		.loc 2 594 0
 991 001c 636A     		ldr	r3, [r4, #36]
 992              	.LBE353:
 993              	.LBE356:
 994              		.loc 1 426 0
 995 001e AB42     		cmp	r3, r5
 996 0020 F7D1     		bne	.L35
 997              	.LVL52:
 998              	.L34:
 999              		.loc 1 433 0
 1000 0022 637F     		ldrb	r3, [r4, #29]	@ zero_extendqisi2
 1001 0024 9B07     		lsls	r3, r3, #30
 1002 0026 04D1     		bne	.L33
 1003              		.loc 1 434 0
 1004 0028 6369     		ldr	r3, [r4, #20]
 1005 002a 2269     		ldr	r2, [r4, #16]
 1006 002c 1A61     		str	r2, [r3, #16]
 1007 002e 2269     		ldr	r2, [r4, #16]
 1008 0030 5361     		str	r3, [r2, #20]
 1009              	.L33:
 1010              		.loc 1 437 0
 1011 0032 0F20     		movs	r0, #15
 1012              		.loc 1 441 0
 1013 0034 BDE83840 		pop	{r3, r4, r5, lr}
 1014              	.LVL53:
 1015              		.loc 1 437 0
 1016 0038 FFF7FEBF 		b	chSchGoSleepS
ARM GAS  /tmp/ccMHi5c9.s 			page 19


 1017              	.LVL54:
 1018              	.L37:
 1019              		.align	2
 1020              	.L36:
 1021 003c 00000000 		.word	ch
 1022              		.cfi_endproc
 1023              	.LFE252:
 1024              		.size	chThdExitS, .-chThdExitS
 1025              		.section	.text.chThdExit,"ax",%progbits
 1026              		.align	2
 1027              		.p2align 4,,15
 1028              		.global	chThdExit
 1029              		.thumb
 1030              		.thumb_func
 1031              		.type	chThdExit, %function
 1032              	chThdExit:
 1033              	.LFB251:
 1034              		.loc 1 397 0
 1035              		.cfi_startproc
 1036              		@ args = 0, pretend = 0, frame = 0
 1037              		@ frame_needed = 0, uses_anonymous_args = 0
 1038              		@ link register save eliminated.
 1039              	.LVL55:
 1040              	.LBB357:
 1041              	.LBB358:
 1042              	.LBB359:
 1043              	.LBB360:
 1044              		.loc 3 548 0
 1045 0000 2023     		movs	r3, #32
 1046              	@ 548 "../ChibiOS/os/ext/CMSIS/include/core_cmFunc.h" 1
 1047 0002 83F31188 		MSR basepri, r3
 1048              	@ 0 "" 2
 1049              		.thumb
 1050              	.LBE360:
 1051              	.LBE359:
 1052              	.LBE358:
 1053              	.LBE357:
 1054              		.loc 1 400 0
 1055 0006 FFF7FEBF 		b	chThdExitS
 1056              	.LVL56:
 1057              		.cfi_endproc
 1058              	.LFE251:
 1059              		.size	chThdExit, .-chThdExit
 1060 000a 00BFAFF3 		.section	.text.chThdWait,"ax",%progbits
 1060      0080
 1061              		.align	2
 1062              		.p2align 4,,15
 1063              		.global	chThdWait
 1064              		.thumb
 1065              		.thumb_func
 1066              		.type	chThdWait, %function
 1067              	chThdWait:
 1068              	.LFB253:
 1069              		.loc 1 475 0
 1070              		.cfi_startproc
 1071              		@ args = 0, pretend = 0, frame = 0
 1072              		@ frame_needed = 0, uses_anonymous_args = 0
ARM GAS  /tmp/ccMHi5c9.s 			page 20


 1073              	.LVL57:
 1074 0000 38B5     		push	{r3, r4, r5, lr}
 1075              		.cfi_def_cfa_offset 16
 1076              		.cfi_offset 3, -16
 1077              		.cfi_offset 4, -12
 1078              		.cfi_offset 5, -8
 1079              		.cfi_offset 14, -4
 1080              		.loc 1 475 0
 1081 0002 0446     		mov	r4, r0
 1082              	.LBB361:
 1083              	.LBB362:
 1084              	.LBB363:
 1085              	.LBB364:
 1086              		.loc 3 548 0
 1087 0004 2023     		movs	r3, #32
 1088              	@ 548 "../ChibiOS/os/ext/CMSIS/include/core_cmFunc.h" 1
 1089 0006 83F31188 		MSR basepri, r3
 1090              	@ 0 "" 2
 1091              		.thumb
 1092              	.LBE364:
 1093              	.LBE363:
 1094              	.LBE362:
 1095              	.LBE361:
 1096              		.loc 1 485 0
 1097 000a 037F     		ldrb	r3, [r0, #28]	@ zero_extendqisi2
 1098 000c 0F2B     		cmp	r3, #15
 1099 000e 07D0     		beq	.L40
 1100              		.loc 1 486 0
 1101 0010 084B     		ldr	r3, .L44
 1102              	.LBB365:
 1103              	.LBB366:
 1104              		.loc 2 641 0
 1105 0012 426A     		ldr	r2, [r0, #36]
 1106              	.LBE366:
 1107              	.LBE365:
 1108              		.loc 1 486 0
 1109 0014 9B69     		ldr	r3, [r3, #24]
 1110              	.LVL58:
 1111              		.loc 1 487 0
 1112 0016 0920     		movs	r0, #9
 1113              	.LVL59:
 1114              	.LBB368:
 1115              	.LBB367:
 1116              		.loc 2 641 0
 1117 0018 1A60     		str	r2, [r3]
 1118              		.loc 2 642 0
 1119 001a 6362     		str	r3, [r4, #36]
 1120              	.LBE367:
 1121              	.LBE368:
 1122              		.loc 1 487 0
 1123 001c FFF7FEFF 		bl	chSchGoSleepS
 1124              	.LVL60:
 1125              	.L40:
 1126              		.loc 1 489 0
 1127 0020 256A     		ldr	r5, [r4, #32]
 1128              	.LVL61:
 1129              	.LBB369:
ARM GAS  /tmp/ccMHi5c9.s 			page 21


 1130              	.LBB370:
 1131              	.LBB371:
 1132              	.LBB372:
 1133              	.LBB373:
 1134              		.loc 3 548 0
 1135 0022 0023     		movs	r3, #0
 1136              	@ 548 "../ChibiOS/os/ext/CMSIS/include/core_cmFunc.h" 1
 1137 0024 83F31188 		MSR basepri, r3
 1138              	@ 0 "" 2
 1139              		.thumb
 1140              	.LBE373:
 1141              	.LBE372:
 1142              	.LBE371:
 1143              	.LBE370:
 1144              	.LBE369:
 1145              		.loc 1 494 0
 1146 0028 2046     		mov	r0, r4
 1147 002a FFF7FEFF 		bl	chThdRelease
 1148              	.LVL62:
 1149              		.loc 1 498 0
 1150 002e 2846     		mov	r0, r5
 1151 0030 38BD     		pop	{r3, r4, r5, pc}
 1152              	.LVL63:
 1153              	.L45:
 1154 0032 00BF     		.align	2
 1155              	.L44:
 1156 0034 00000000 		.word	ch
 1157              		.cfi_endproc
 1158              	.LFE253:
 1159              		.size	chThdWait, .-chThdWait
 1160 0038 AFF30080 		.section	.text.chThdSuspendS,"ax",%progbits
 1160      AFF30080 
 1161              		.align	2
 1162              		.p2align 4,,15
 1163              		.global	chThdSuspendS
 1164              		.thumb
 1165              		.thumb_func
 1166              		.type	chThdSuspendS, %function
 1167              	chThdSuspendS:
 1168              	.LFB254:
 1169              		.loc 1 511 0
 1170              		.cfi_startproc
 1171              		@ args = 0, pretend = 0, frame = 0
 1172              		@ frame_needed = 0, uses_anonymous_args = 0
 1173              	.LVL64:
 1174 0000 10B5     		push	{r4, lr}
 1175              		.cfi_def_cfa_offset 8
 1176              		.cfi_offset 4, -8
 1177              		.cfi_offset 14, -4
 1178              	.LBB374:
 1179              	.LBB375:
 1180              		.loc 4 176 0
 1181 0002 054C     		ldr	r4, .L47
 1182 0004 A369     		ldr	r3, [r4, #24]
 1183              	.LBE375:
 1184              	.LBE374:
 1185              		.loc 1 516 0
ARM GAS  /tmp/ccMHi5c9.s 			page 22


 1186 0006 0360     		str	r3, [r0]
 1187              		.loc 1 511 0
 1188 0008 0246     		mov	r2, r0
 1189              		.loc 1 517 0
 1190 000a 1A62     		str	r2, [r3, #32]
 1191              		.loc 1 518 0
 1192 000c 0320     		movs	r0, #3
 1193              	.LVL65:
 1194 000e FFF7FEFF 		bl	chSchGoSleepS
 1195              	.LVL66:
 1196              		.loc 1 520 0
 1197 0012 A369     		ldr	r3, [r4, #24]
 1198              		.loc 1 521 0
 1199 0014 186A     		ldr	r0, [r3, #32]
 1200 0016 10BD     		pop	{r4, pc}
 1201              	.L48:
 1202              		.align	2
 1203              	.L47:
 1204 0018 00000000 		.word	ch
 1205              		.cfi_endproc
 1206              	.LFE254:
 1207              		.size	chThdSuspendS, .-chThdSuspendS
 1208 001c AFF30080 		.section	.text.chThdSuspendTimeoutS,"ax",%progbits
 1209              		.align	2
 1210              		.p2align 4,,15
 1211              		.global	chThdSuspendTimeoutS
 1212              		.thumb
 1213              		.thumb_func
 1214              		.type	chThdSuspendTimeoutS, %function
 1215              	chThdSuspendTimeoutS:
 1216              	.LFB255:
 1217              		.loc 1 542 0
 1218              		.cfi_startproc
 1219              		@ args = 0, pretend = 0, frame = 0
 1220              		@ frame_needed = 0, uses_anonymous_args = 0
 1221              		@ link register save eliminated.
 1222              	.LVL67:
 1223              	.LBB376:
 1224              	.LBB377:
 1225              		.loc 4 176 0
 1226 0000 054B     		ldr	r3, .L51
 1227              	.LBE377:
 1228              	.LBE376:
 1229              		.loc 1 542 0
 1230 0002 0246     		mov	r2, r0
 1231              	.LBB379:
 1232              	.LBB378:
 1233              		.loc 4 176 0
 1234 0004 9B69     		ldr	r3, [r3, #24]
 1235              	.LBE378:
 1236              	.LBE379:
 1237              		.loc 1 547 0
 1238 0006 21B1     		cbz	r1, .L50
 1239              		.loc 1 551 0
 1240 0008 0360     		str	r3, [r0]
 1241              		.loc 1 554 0
 1242 000a 0320     		movs	r0, #3
ARM GAS  /tmp/ccMHi5c9.s 			page 23


 1243              	.LVL68:
 1244              		.loc 1 552 0
 1245 000c 1A62     		str	r2, [r3, #32]
 1246              		.loc 1 554 0
 1247 000e FFF7FEBF 		b	chSchGoSleepTimeoutS
 1248              	.LVL69:
 1249              	.L50:
 1250              		.loc 1 555 0
 1251 0012 4FF0FF30 		mov	r0, #-1
 1252              	.LVL70:
 1253 0016 7047     		bx	lr
 1254              	.L52:
 1255              		.align	2
 1256              	.L51:
 1257 0018 00000000 		.word	ch
 1258              		.cfi_endproc
 1259              	.LFE255:
 1260              		.size	chThdSuspendTimeoutS, .-chThdSuspendTimeoutS
 1261 001c AFF30080 		.section	.text.chThdResumeI,"ax",%progbits
 1262              		.align	2
 1263              		.p2align 4,,15
 1264              		.global	chThdResumeI
 1265              		.thumb
 1266              		.thumb_func
 1267              		.type	chThdResumeI, %function
 1268              	chThdResumeI:
 1269              	.LFB256:
 1270              		.loc 1 567 0
 1271              		.cfi_startproc
 1272              		@ args = 0, pretend = 0, frame = 0
 1273              		@ frame_needed = 0, uses_anonymous_args = 0
 1274              		@ link register save eliminated.
 1275              	.LVL71:
 1276              		.loc 1 569 0
 1277 0000 0368     		ldr	r3, [r0]
 1278 0002 2BB1     		cbz	r3, .L53
 1279              	.LVL72:
 1280              	.LBB380:
 1281              		.loc 1 575 0
 1282 0004 0022     		movs	r2, #0
 1283 0006 0260     		str	r2, [r0]
 1284              		.loc 1 577 0
 1285 0008 1846     		mov	r0, r3
 1286              	.LVL73:
 1287              		.loc 1 576 0
 1288 000a 1962     		str	r1, [r3, #32]
 1289              		.loc 1 577 0
 1290 000c FFF7FEBF 		b	chSchReadyI
 1291              	.LVL74:
 1292              	.L53:
 1293 0010 7047     		bx	lr
 1294              	.LBE380:
 1295              		.cfi_endproc
 1296              	.LFE256:
 1297              		.size	chThdResumeI, .-chThdResumeI
 1298 0012 00BFAFF3 		.section	.text.chThdResumeS,"ax",%progbits
 1298      0080AFF3 
ARM GAS  /tmp/ccMHi5c9.s 			page 24


 1298      0080AFF3 
 1298      0080
 1299              		.align	2
 1300              		.p2align 4,,15
 1301              		.global	chThdResumeS
 1302              		.thumb
 1303              		.thumb_func
 1304              		.type	chThdResumeS, %function
 1305              	chThdResumeS:
 1306              	.LFB257:
 1307              		.loc 1 591 0
 1308              		.cfi_startproc
 1309              		@ args = 0, pretend = 0, frame = 0
 1310              		@ frame_needed = 0, uses_anonymous_args = 0
 1311              		@ link register save eliminated.
 1312              	.LVL75:
 1313              		.loc 1 591 0
 1314 0000 0346     		mov	r3, r0
 1315              		.loc 1 593 0
 1316 0002 0068     		ldr	r0, [r0]
 1317              	.LVL76:
 1318 0004 18B1     		cbz	r0, .L55
 1319              	.LVL77:
 1320              	.LBB381:
 1321              		.loc 1 599 0
 1322 0006 0022     		movs	r2, #0
 1323 0008 1A60     		str	r2, [r3]
 1324              		.loc 1 600 0
 1325 000a FFF7FEBF 		b	chSchWakeupS
 1326              	.LVL78:
 1327              	.L55:
 1328 000e 7047     		bx	lr
 1329              	.LBE381:
 1330              		.cfi_endproc
 1331              	.LFE257:
 1332              		.size	chThdResumeS, .-chThdResumeS
 1333              		.section	.text.chThdResume,"ax",%progbits
 1334              		.align	2
 1335              		.p2align 4,,15
 1336              		.global	chThdResume
 1337              		.thumb
 1338              		.thumb_func
 1339              		.type	chThdResume, %function
 1340              	chThdResume:
 1341              	.LFB258:
 1342              		.loc 1 614 0
 1343              		.cfi_startproc
 1344              		@ args = 0, pretend = 0, frame = 0
 1345              		@ frame_needed = 0, uses_anonymous_args = 0
 1346              	.LVL79:
 1347 0000 08B5     		push	{r3, lr}
 1348              		.cfi_def_cfa_offset 8
 1349              		.cfi_offset 3, -8
 1350              		.cfi_offset 14, -4
 1351              	.LBB382:
 1352              	.LBB383:
 1353              	.LBB384:
ARM GAS  /tmp/ccMHi5c9.s 			page 25


 1354              	.LBB385:
 1355              		.loc 3 548 0
 1356 0002 2022     		movs	r2, #32
 1357              	.LBE385:
 1358              	.LBE384:
 1359              	.LBE383:
 1360              	.LBE382:
 1361              		.loc 1 614 0
 1362 0004 0346     		mov	r3, r0
 1363              	.LVL80:
 1364              	.LBB389:
 1365              	.LBB388:
 1366              	.LBB387:
 1367              	.LBB386:
 1368              		.loc 3 548 0
 1369              	@ 548 "../ChibiOS/os/ext/CMSIS/include/core_cmFunc.h" 1
 1370 0006 82F31188 		MSR basepri, r2
 1371              	@ 0 "" 2
 1372              	.LVL81:
 1373              		.thumb
 1374              	.LBE386:
 1375              	.LBE387:
 1376              	.LBE388:
 1377              	.LBE389:
 1378              	.LBB390:
 1379              	.LBB391:
 1380              		.loc 1 593 0
 1381 000a 0068     		ldr	r0, [r0]
 1382              	.LVL82:
 1383 000c 18B1     		cbz	r0, .L58
 1384              	.LVL83:
 1385              	.LBB392:
 1386              		.loc 1 599 0
 1387 000e 0022     		movs	r2, #0
 1388 0010 1A60     		str	r2, [r3]
 1389              		.loc 1 600 0
 1390 0012 FFF7FEFF 		bl	chSchWakeupS
 1391              	.LVL84:
 1392              	.L58:
 1393              	.LBE392:
 1394              	.LBE391:
 1395              	.LBE390:
 1396              	.LBB393:
 1397              	.LBB394:
 1398              	.LBB395:
 1399              	.LBB396:
 1400              	.LBB397:
 1401              		.loc 3 548 0
 1402 0016 0023     		movs	r3, #0
 1403              	@ 548 "../ChibiOS/os/ext/CMSIS/include/core_cmFunc.h" 1
 1404 0018 83F31188 		MSR basepri, r3
 1405              	@ 0 "" 2
 1406              		.thumb
 1407 001c 08BD     		pop	{r3, pc}
 1408              	.LBE397:
 1409              	.LBE396:
 1410              	.LBE395:
ARM GAS  /tmp/ccMHi5c9.s 			page 26


 1411              	.LBE394:
 1412              	.LBE393:
 1413              		.cfi_endproc
 1414              	.LFE258:
 1415              		.size	chThdResume, .-chThdResume
 1416 001e 00BF     		.section	.text.chThdEnqueueTimeoutS,"ax",%progbits
 1417              		.align	2
 1418              		.p2align 4,,15
 1419              		.global	chThdEnqueueTimeoutS
 1420              		.thumb
 1421              		.thumb_func
 1422              		.type	chThdEnqueueTimeoutS, %function
 1423              	chThdEnqueueTimeoutS:
 1424              	.LFB259:
 1425              		.loc 1 644 0
 1426              		.cfi_startproc
 1427              		@ args = 0, pretend = 0, frame = 0
 1428              		@ frame_needed = 0, uses_anonymous_args = 0
 1429              		@ link register save eliminated.
 1430              	.LVL85:
 1431 0000 10B4     		push	{r4}
 1432              		.cfi_def_cfa_offset 4
 1433              		.cfi_offset 4, -4
 1434              		.loc 1 644 0
 1435 0002 0246     		mov	r2, r0
 1436              		.loc 1 646 0
 1437 0004 59B1     		cbz	r1, .L63
 1438              		.loc 1 650 0
 1439 0006 084B     		ldr	r3, .L64
 1440              	.LBB398:
 1441              	.LBB399:
 1442              		.loc 2 668 0
 1443 0008 4468     		ldr	r4, [r0, #4]
 1444              	.LBE399:
 1445              	.LBE398:
 1446              		.loc 1 650 0
 1447 000a 9B69     		ldr	r3, [r3, #24]
 1448              	.LVL86:
 1449              		.loc 1 652 0
 1450 000c 0420     		movs	r0, #4
 1451              	.LVL87:
 1452              	.LBB401:
 1453              	.LBB400:
 1454              		.loc 2 668 0
 1455 000e 83E81400 		stmia	r3, {r2, r4}
 1456              		.loc 2 669 0
 1457 0012 2360     		str	r3, [r4]
 1458              		.loc 2 670 0
 1459 0014 5360     		str	r3, [r2, #4]
 1460              	.LBE400:
 1461              	.LBE401:
 1462              		.loc 1 653 0
 1463 0016 5DF8044B 		ldr	r4, [sp], #4
 1464              		.loc 1 652 0
 1465 001a FFF7FEBF 		b	chSchGoSleepTimeoutS
 1466              	.LVL88:
 1467              	.L63:
ARM GAS  /tmp/ccMHi5c9.s 			page 27


 1468              		.loc 1 653 0
 1469 001e 4FF0FF30 		mov	r0, #-1
 1470              	.LVL89:
 1471 0022 5DF8044B 		ldr	r4, [sp], #4
 1472 0026 7047     		bx	lr
 1473              	.L65:
 1474              		.align	2
 1475              	.L64:
 1476 0028 00000000 		.word	ch
 1477              		.cfi_endproc
 1478              	.LFE259:
 1479              		.size	chThdEnqueueTimeoutS, .-chThdEnqueueTimeoutS
 1480 002c AFF30080 		.section	.text.chThdDequeueNextI,"ax",%progbits
 1481              		.align	2
 1482              		.p2align 4,,15
 1483              		.global	chThdDequeueNextI
 1484              		.thumb
 1485              		.thumb_func
 1486              		.type	chThdDequeueNextI, %function
 1487              	chThdDequeueNextI:
 1488              	.LFB260:
 1489              		.loc 1 664 0
 1490              		.cfi_startproc
 1491              		@ args = 0, pretend = 0, frame = 0
 1492              		@ frame_needed = 0, uses_anonymous_args = 0
 1493              		@ link register save eliminated.
 1494              	.LVL90:
 1495              	.LBB402:
 1496              	.LBB403:
 1497              		.loc 2 633 0
 1498 0000 0268     		ldr	r2, [r0]
 1499              	.LBE403:
 1500              	.LBE402:
 1501              		.loc 1 666 0
 1502 0002 9042     		cmp	r0, r2
 1503              		.loc 1 664 0
 1504 0004 10B4     		push	{r4}
 1505              		.cfi_def_cfa_offset 4
 1506              		.cfi_offset 4, -4
 1507              		.loc 1 664 0
 1508 0006 0346     		mov	r3, r0
 1509              	.LVL91:
 1510              		.loc 1 666 0
 1511 0008 08D0     		beq	.L66
 1512              	.LVL92:
 1513              	.LBB404:
 1514              	.LBB405:
 1515              	.LBB406:
 1516              	.LBB407:
 1517              		.loc 2 676 0
 1518 000a 1468     		ldr	r4, [r2]
 1519 000c 0460     		str	r4, [r0]
 1520              		.loc 2 677 0
 1521 000e 6360     		str	r3, [r4, #4]
 1522              	.LBE407:
 1523              	.LBE406:
 1524              		.loc 4 321 0
ARM GAS  /tmp/ccMHi5c9.s 			page 28


 1525 0010 1162     		str	r1, [r2, #32]
 1526              		.loc 4 322 0
 1527 0012 1046     		mov	r0, r2
 1528              	.LVL93:
 1529              	.LBE405:
 1530              	.LBE404:
 1531              		.loc 1 669 0
 1532 0014 5DF8044B 		ldr	r4, [sp], #4
 1533              	.LBB409:
 1534              	.LBB408:
 1535              		.loc 4 322 0
 1536 0018 FFF7FEBF 		b	chSchReadyI
 1537              	.LVL94:
 1538              	.L66:
 1539              	.LBE408:
 1540              	.LBE409:
 1541              		.loc 1 669 0
 1542 001c 5DF8044B 		ldr	r4, [sp], #4
 1543 0020 7047     		bx	lr
 1544              		.cfi_endproc
 1545              	.LFE260:
 1546              		.size	chThdDequeueNextI, .-chThdDequeueNextI
 1547 0022 00BFAFF3 		.section	.text.chThdDequeueAllI,"ax",%progbits
 1547      0080AFF3 
 1547      0080AFF3 
 1547      0080
 1548              		.align	2
 1549              		.p2align 4,,15
 1550              		.global	chThdDequeueAllI
 1551              		.thumb
 1552              		.thumb_func
 1553              		.type	chThdDequeueAllI, %function
 1554              	chThdDequeueAllI:
 1555              	.LFB261:
 1556              		.loc 1 679 0
 1557              		.cfi_startproc
 1558              		@ args = 0, pretend = 0, frame = 0
 1559              		@ frame_needed = 0, uses_anonymous_args = 0
 1560              	.LVL95:
 1561 0000 38B5     		push	{r3, r4, r5, lr}
 1562              		.cfi_def_cfa_offset 16
 1563              		.cfi_offset 3, -16
 1564              		.cfi_offset 4, -12
 1565              		.cfi_offset 5, -8
 1566              		.cfi_offset 14, -4
 1567              	.LBB410:
 1568              	.LBB411:
 1569              		.loc 2 633 0
 1570 0002 0368     		ldr	r3, [r0]
 1571              	.LBE411:
 1572              	.LBE410:
 1573              		.loc 1 681 0
 1574 0004 9842     		cmp	r0, r3
 1575              		.loc 1 679 0
 1576 0006 0446     		mov	r4, r0
 1577              	.LVL96:
 1578 0008 0D46     		mov	r5, r1
ARM GAS  /tmp/ccMHi5c9.s 			page 29


 1579              		.loc 1 681 0
 1580 000a 09D0     		beq	.L68
 1581              	.LVL97:
 1582              	.L71:
 1583              	.LBB413:
 1584              	.LBB414:
 1585              	.LBB415:
 1586              	.LBB416:
 1587              		.loc 2 676 0
 1588 000c 1A68     		ldr	r2, [r3]
 1589 000e 2260     		str	r2, [r4]
 1590              	.LBE416:
 1591              	.LBE415:
 1592              		.loc 4 322 0
 1593 0010 1846     		mov	r0, r3
 1594              	.LBB418:
 1595              	.LBB417:
 1596              		.loc 2 677 0
 1597 0012 5460     		str	r4, [r2, #4]
 1598              	.LBE417:
 1599              	.LBE418:
 1600              		.loc 4 321 0
 1601 0014 1D62     		str	r5, [r3, #32]
 1602              		.loc 4 322 0
 1603 0016 FFF7FEFF 		bl	chSchReadyI
 1604              	.LVL98:
 1605              	.LBE414:
 1606              	.LBE413:
 1607              	.LBB419:
 1608              	.LBB412:
 1609              		.loc 2 633 0
 1610 001a 2368     		ldr	r3, [r4]
 1611              	.LBE412:
 1612              	.LBE419:
 1613              		.loc 1 681 0
 1614 001c 9C42     		cmp	r4, r3
 1615 001e F5D1     		bne	.L71
 1616              	.LVL99:
 1617              	.L68:
 1618 0020 38BD     		pop	{r3, r4, r5, pc}
 1619              		.cfi_endproc
 1620              	.LFE261:
 1621              		.size	chThdDequeueAllI, .-chThdDequeueAllI
 1622 0022 00BFAFF3 		.text
 1622      0080AFF3 
 1622      0080AFF3 
 1622      0080
 1623              	.Letext0:
 1624              		.file 7 "/nfs/nfs5/home/research/hardware/arm2/gcc-arm-embedded/gcc-arm-none-eabi-4_8-2014q2/lib/g
 1625              		.file 8 "/nfs/nfs5/home/research/hardware/arm2/gcc-arm-embedded/gcc-arm-none-eabi-4_8-2014q2/arm-n
 1626              		.file 9 "/nfs/nfs5/home/research/hardware/arm2/gcc-arm-embedded/gcc-arm-none-eabi-4_8-2014q2/arm-n
 1627              		.file 10 "../ChibiOS/os/rt/ports/ARMCMx/compilers/GCC/chtypes.h"
 1628              		.file 11 "../ChibiOS/os/rt/include/chsystypes.h"
 1629              		.file 12 "../ChibiOS/os/rt/ports/ARMCMx/chcore.h"
 1630              		.file 13 "../ChibiOS/os/rt/ports/ARMCMx/chcore_v7m.h"
 1631              		.file 14 "../ChibiOS/os/hal/ports/STM32/LLD/TIMv1/stm32_tim.h"
 1632              		.file 15 "../ChibiOS/os/rt/include/chtm.h"
ARM GAS  /tmp/ccMHi5c9.s 			page 30


 1633              		.file 16 "../ChibiOS/os/rt/include/chsem.h"
 1634              		.file 17 "../ChibiOS/os/rt/include/chmtx.h"
 1635              		.file 18 "../ChibiOS/os/rt/ports/ARMCMx/chcore_timer.h"
 1636              		.file 19 "../ChibiOS/os/rt/include/chsys.h"
 1637              		.file 20 "../ChibiOS/os/ext/CMSIS/include/core_cm4.h"
 1638              		.file 21 "../ChibiOS/os/rt/include/chdynamic.h"