ARM GAS  /tmp/cc5hbNSm.s 			page 1


   1              		.syntax unified
   2              		.cpu cortex-m4
   3              		.fpu softvfp
   4              		.eabi_attribute 20, 1
   5              		.eabi_attribute 21, 1
   6              		.eabi_attribute 23, 3
   7              		.eabi_attribute 24, 1
   8              		.eabi_attribute 25, 1
   9              		.eabi_attribute 26, 1
  10              		.eabi_attribute 30, 2
  11              		.eabi_attribute 34, 1
  12              		.eabi_attribute 18, 4
  13              		.thumb
  14              		.file	"chtm.c"
  15              		.text
  16              	.Ltext0:
  17              		.cfi_sections	.debug_frame
  18              		.section	.text.chTMObjectInit,"ax",%progbits
  19              		.align	2
  20              		.p2align 4,,15
  21              		.global	chTMObjectInit
  22              		.thumb
  23              		.thumb_func
  24              		.type	chTMObjectInit, %function
  25              	chTMObjectInit:
  26              	.LFB243:
  27              		.file 1 "../ChibiOS/os/rt/src/chtm.c"
  28              		.loc 1 97 0
  29              		.cfi_startproc
  30              		@ args = 0, pretend = 0, frame = 0
  31              		@ frame_needed = 0, uses_anonymous_args = 0
  32              		@ link register save eliminated.
  33              	.LVL0:
  34              		.loc 1 103 0
  35 0000 0022     		movs	r2, #0
  36 0002 0023     		movs	r3, #0
  37 0004 C0E90423 		strd	r2, [r0, #16]
  38              		.loc 1 100 0
  39 0008 0023     		movs	r3, #0
  40 000a 4FF0FF32 		mov	r2, #-1
  41 000e 80E80C00 		stmia	r0, {r2, r3}
  42              		.loc 1 101 0
  43 0012 8360     		str	r3, [r0, #8]
  44              		.loc 1 102 0
  45 0014 C360     		str	r3, [r0, #12]
  46 0016 7047     		bx	lr
  47              		.cfi_endproc
  48              	.LFE243:
  49              		.size	chTMObjectInit, .-chTMObjectInit
  50 0018 AFF30080 		.section	.text.chTMStartMeasurementX,"ax",%progbits
  50      AFF30080 
  51              		.align	2
  52              		.p2align 4,,15
  53              		.global	chTMStartMeasurementX
  54              		.thumb
  55              		.thumb_func
  56              		.type	chTMStartMeasurementX, %function
ARM GAS  /tmp/cc5hbNSm.s 			page 2


  57              	chTMStartMeasurementX:
  58              	.LFB244:
  59              		.loc 1 114 0
  60              		.cfi_startproc
  61              		@ args = 0, pretend = 0, frame = 0
  62              		@ frame_needed = 0, uses_anonymous_args = 0
  63              		@ link register save eliminated.
  64              	.LVL1:
  65              	.LBB14:
  66              	.LBB15:
  67              		.file 2 "../ChibiOS/os/rt/ports/ARMCMx/chcore_v7m.h"
  68              		.loc 2 570 0
  69 0000 014B     		ldr	r3, .L3
  70 0002 5B68     		ldr	r3, [r3, #4]
  71              	.LBE15:
  72              	.LBE14:
  73              		.loc 1 116 0
  74 0004 8360     		str	r3, [r0, #8]
  75 0006 7047     		bx	lr
  76              	.L4:
  77              		.align	2
  78              	.L3:
  79 0008 001000E0 		.word	-536866816
  80              		.cfi_endproc
  81              	.LFE244:
  82              		.size	chTMStartMeasurementX, .-chTMStartMeasurementX
  83 000c AFF30080 		.section	.text.chTMStopMeasurementX,"ax",%progbits
  84              		.align	2
  85              		.p2align 4,,15
  86              		.global	chTMStopMeasurementX
  87              		.thumb
  88              		.thumb_func
  89              		.type	chTMStopMeasurementX, %function
  90              	chTMStopMeasurementX:
  91              	.LFB245:
  92              		.loc 1 127 0
  93              		.cfi_startproc
  94              		@ args = 0, pretend = 0, frame = 0
  95              		@ frame_needed = 0, uses_anonymous_args = 0
  96              		@ link register save eliminated.
  97              	.LVL2:
  98              	.LBB16:
  99              	.LBB17:
 100              		.loc 2 570 0
 101 0000 0E4A     		ldr	r2, .L8
 102              	.LBE17:
 103              	.LBE16:
 104              		.loc 1 129 0
 105 0002 0F4B     		ldr	r3, .L8+4
 106              	.LBB19:
 107              	.LBB18:
 108              		.loc 2 570 0
 109 0004 5168     		ldr	r1, [r2, #4]
 110              	.LBE18:
 111              	.LBE19:
 112              		.loc 1 127 0
 113 0006 F0B4     		push	{r4, r5, r6, r7}
ARM GAS  /tmp/cc5hbNSm.s 			page 3


 114              		.cfi_def_cfa_offset 16
 115              		.cfi_offset 4, -16
 116              		.cfi_offset 5, -12
 117              		.cfi_offset 6, -8
 118              		.cfi_offset 7, -4
 119              	.LBB20:
 120              	.LBB21:
 121              		.loc 1 58 0
 122 0008 8668     		ldr	r6, [r0, #8]
 123              	.LBE21:
 124              	.LBE20:
 125              		.loc 1 129 0
 126 000a 1F6F     		ldr	r7, [r3, #112]
 127              	.LVL3:
 128              	.LBB23:
 129              	.LBB22:
 130              		.loc 1 60 0
 131 000c 4468     		ldr	r4, [r0, #4]
 132              		.loc 1 57 0
 133 000e C568     		ldr	r5, [r0, #12]
 134              		.loc 1 59 0
 135 0010 D0E90423 		ldrd	r2, [r0, #16]
 136              		.loc 1 58 0
 137 0014 891B     		subs	r1, r1, r6
 138              	.LVL4:
 139 0016 C91B     		subs	r1, r1, r7
 140              		.loc 1 59 0
 141 0018 5218     		adds	r2, r2, r1
 142 001a 43F10003 		adc	r3, r3, #0
 143 001e C0E90423 		strd	r2, [r0, #16]
 144              		.loc 1 63 0
 145 0022 0368     		ldr	r3, [r0]
 146              		.loc 1 58 0
 147 0024 8160     		str	r1, [r0, #8]
 148              		.loc 1 60 0
 149 0026 A142     		cmp	r1, r4
 150              		.loc 1 57 0
 151 0028 05F10105 		add	r5, r5, #1
 152              		.loc 1 61 0
 153 002c 88BF     		it	hi
 154 002e 4160     		strhi	r1, [r0, #4]
 155              		.loc 1 63 0
 156 0030 9942     		cmp	r1, r3
 157              		.loc 1 57 0
 158 0032 C560     		str	r5, [r0, #12]
 159              		.loc 1 64 0
 160 0034 38BF     		it	cc
 161 0036 0160     		strcc	r1, [r0]
 162              	.LBE22:
 163              	.LBE23:
 164              		.loc 1 130 0
 165 0038 F0BC     		pop	{r4, r5, r6, r7}
 166              	.LVL5:
 167 003a 7047     		bx	lr
 168              	.L9:
 169              		.align	2
 170              	.L8:
ARM GAS  /tmp/cc5hbNSm.s 			page 4


 171 003c 001000E0 		.word	-536866816
 172 0040 00000000 		.word	ch
 173              		.cfi_endproc
 174              	.LFE245:
 175              		.size	chTMStopMeasurementX, .-chTMStopMeasurementX
 176 0044 AFF30080 		.section	.text._tm_init,"ax",%progbits
 176      AFF30080 
 176      AFF30080 
 177              		.align	2
 178              		.p2align 4,,15
 179              		.global	_tm_init
 180              		.thumb
 181              		.thumb_func
 182              		.type	_tm_init, %function
 183              	_tm_init:
 184              	.LFB242:
 185              		.loc 1 77 0
 186              		.cfi_startproc
 187              		@ args = 0, pretend = 0, frame = 24
 188              		@ frame_needed = 0, uses_anonymous_args = 0
 189 0000 30B5     		push	{r4, r5, lr}
 190              		.cfi_def_cfa_offset 12
 191              		.cfi_offset 4, -12
 192              		.cfi_offset 5, -8
 193              		.cfi_offset 14, -4
 194              		.loc 1 83 0
 195 0002 0C4C     		ldr	r4, .L11
 196              		.loc 1 77 0
 197 0004 87B0     		sub	sp, sp, #28
 198              		.cfi_def_cfa_offset 40
 199              		.loc 1 83 0
 200 0006 0021     		movs	r1, #0
 201              	.LBB24:
 202              	.LBB25:
 203              		.loc 1 103 0
 204 0008 0022     		movs	r2, #0
 205 000a 0023     		movs	r3, #0
 206              	.LBE25:
 207              	.LBE24:
 208              		.loc 1 85 0
 209 000c 6846     		mov	r0, sp
 210              	.LBB28:
 211              	.LBB26:
 212              		.loc 1 99 0
 213 000e 4FF0FF35 		mov	r5, #-1
 214              		.loc 1 103 0
 215 0012 CDE90423 		strd	r2, [sp, #16]
 216              	.LBE26:
 217              	.LBE28:
 218              		.loc 1 83 0
 219 0016 2167     		str	r1, [r4, #112]
 220              	.LVL6:
 221              	.LBB29:
 222              	.LBB27:
 223              		.loc 1 100 0
 224 0018 0191     		str	r1, [sp, #4]
 225              		.loc 1 101 0
ARM GAS  /tmp/cc5hbNSm.s 			page 5


 226 001a 0291     		str	r1, [sp, #8]
 227              		.loc 1 102 0
 228 001c 0391     		str	r1, [sp, #12]
 229              		.loc 1 99 0
 230 001e 0095     		str	r5, [sp]
 231              	.LBE27:
 232              	.LBE29:
 233              		.loc 1 85 0
 234 0020 FFF7FEFF 		bl	chTMStartMeasurementX
 235              	.LVL7:
 236              		.loc 1 86 0
 237 0024 6846     		mov	r0, sp
 238 0026 FFF7FEFF 		bl	chTMStopMeasurementX
 239              	.LVL8:
 240              		.loc 1 87 0
 241 002a 029B     		ldr	r3, [sp, #8]
 242 002c 2367     		str	r3, [r4, #112]
 243              		.loc 1 88 0
 244 002e 07B0     		add	sp, sp, #28
 245              	.LVL9:
 246              		@ sp needed
 247 0030 30BD     		pop	{r4, r5, pc}
 248              	.LVL10:
 249              	.L12:
 250 0032 00BF     		.align	2
 251              	.L11:
 252 0034 00000000 		.word	ch
 253              		.cfi_endproc
 254              	.LFE242:
 255              		.size	_tm_init, .-_tm_init
 256 0038 AFF30080 		.section	.text.chTMChainMeasurementToX,"ax",%progbits
 256      AFF30080 
 257              		.align	2
 258              		.p2align 4,,15
 259              		.global	chTMChainMeasurementToX
 260              		.thumb
 261              		.thumb_func
 262              		.type	chTMChainMeasurementToX, %function
 263              	chTMChainMeasurementToX:
 264              	.LFB246:
 265              		.loc 1 145 0
 266              		.cfi_startproc
 267              		@ args = 0, pretend = 0, frame = 0
 268              		@ frame_needed = 0, uses_anonymous_args = 0
 269              		@ link register save eliminated.
 270              	.LVL11:
 271              	.LBB30:
 272              	.LBB31:
 273              		.loc 2 570 0
 274 0000 0D4B     		ldr	r3, .L16
 275              	.LBE31:
 276              	.LBE30:
 277              		.loc 1 145 0
 278 0002 70B4     		push	{r4, r5, r6}
 279              		.cfi_def_cfa_offset 12
 280              		.cfi_offset 4, -12
 281              		.cfi_offset 5, -8
ARM GAS  /tmp/cc5hbNSm.s 			page 6


 282              		.cfi_offset 6, -4
 283              	.LBB33:
 284              	.LBB32:
 285              		.loc 2 570 0
 286 0004 5C68     		ldr	r4, [r3, #4]
 287              	.LBE32:
 288              	.LBE33:
 289              		.loc 1 148 0
 290 0006 8C60     		str	r4, [r1, #8]
 291              	.LVL12:
 292              	.LBB34:
 293              	.LBB35:
 294              		.loc 1 59 0
 295 0008 D0E90423 		ldrd	r2, [r0, #16]
 296              		.loc 1 58 0
 297 000c 8168     		ldr	r1, [r0, #8]
 298              	.LVL13:
 299              		.loc 1 60 0
 300 000e 4568     		ldr	r5, [r0, #4]
 301              		.loc 1 57 0
 302 0010 C668     		ldr	r6, [r0, #12]
 303              		.loc 1 58 0
 304 0012 611A     		subs	r1, r4, r1
 305              		.loc 1 59 0
 306 0014 5218     		adds	r2, r2, r1
 307 0016 43F10003 		adc	r3, r3, #0
 308 001a C0E90423 		strd	r2, [r0, #16]
 309              		.loc 1 63 0
 310 001e 0368     		ldr	r3, [r0]
 311              		.loc 1 58 0
 312 0020 8160     		str	r1, [r0, #8]
 313              		.loc 1 60 0
 314 0022 A942     		cmp	r1, r5
 315              		.loc 1 57 0
 316 0024 06F10106 		add	r6, r6, #1
 317              		.loc 1 61 0
 318 0028 88BF     		it	hi
 319 002a 4160     		strhi	r1, [r0, #4]
 320              		.loc 1 63 0
 321 002c 9942     		cmp	r1, r3
 322              		.loc 1 57 0
 323 002e C660     		str	r6, [r0, #12]
 324              		.loc 1 64 0
 325 0030 38BF     		it	cc
 326 0032 0160     		strcc	r1, [r0]
 327              	.LBE35:
 328              	.LBE34:
 329              		.loc 1 152 0
 330 0034 70BC     		pop	{r4, r5, r6}
 331              	.LVL14:
 332 0036 7047     		bx	lr
 333              	.L17:
 334              		.align	2
 335              	.L16:
 336 0038 001000E0 		.word	-536866816
 337              		.cfi_endproc
 338              	.LFE246:
ARM GAS  /tmp/cc5hbNSm.s 			page 7


 339              		.size	chTMChainMeasurementToX, .-chTMChainMeasurementToX
 340 003c AFF30080 		.text
 341              	.Letext0:
 342              		.file 3 "/nfs/nfs5/home/research/hardware/arm2/gcc-arm-embedded/gcc-arm-none-eabi-4_8-2014q2/arm-n
 343              		.file 4 "/nfs/nfs5/home/research/hardware/arm2/gcc-arm-embedded/gcc-arm-none-eabi-4_8-2014q2/arm-n
 344              		.file 5 "../ChibiOS/os/rt/ports/ARMCMx/compilers/GCC/chtypes.h"
 345              		.file 6 "../ChibiOS/os/rt/include/chsystypes.h"
 346              		.file 7 "../ChibiOS/os/rt/include/chschd.h"
 347              		.file 8 "../ChibiOS/os/ext/CMSIS/include/core_cm4.h"
 348              		.file 9 "../ChibiOS/os/rt/ports/ARMCMx/chcore.h"
 349              		.file 10 "../ChibiOS/os/rt/include/chtm.h"
 350              		.file 11 "../ChibiOS/os/rt/include/chsem.h"
 351              		.file 12 "../ChibiOS/os/rt/include/chmtx.h"