ARM GAS  /tmp/cckYb9Bl.s 			page 1


   1              		.syntax unified
   2              		.cpu cortex-m4
   3              		.fpu softvfp
   4              		.eabi_attribute 20, 1
   5              		.eabi_attribute 21, 1
   6              		.eabi_attribute 23, 3
   7              		.eabi_attribute 24, 1
   8              		.eabi_attribute 25, 1
   9              		.eabi_attribute 26, 1
  10              		.eabi_attribute 30, 2
  11              		.eabi_attribute 34, 1
  12              		.eabi_attribute 18, 4
  13              		.thumb
  14              		.file	"evtimer.c"
  15              		.text
  16              	.Ltext0:
  17              		.cfi_sections	.debug_frame
  18              		.section	.text.tmrcb,"ax",%progbits
  19              		.align	2
  20              		.p2align 4,,15
  21              		.thumb
  22              		.thumb_func
  23              		.type	tmrcb, %function
  24              	tmrcb:
  25              	.LFB242:
  26              		.file 1 "../ChibiOS/os/various/evtimer.c"
  27              		.loc 1 48 0
  28              		.cfi_startproc
  29              		@ args = 0, pretend = 0, frame = 0
  30              		@ frame_needed = 0, uses_anonymous_args = 0
  31              	.LVL0:
  32 0000 10B5     		push	{r4, lr}
  33              		.cfi_def_cfa_offset 8
  34              		.cfi_offset 4, -8
  35              		.cfi_offset 14, -4
  36              	.LBB77:
  37              	.LBB78:
  38              	.LBB79:
  39              	.LBB80:
  40              	.LBB81:
  41              		.file 2 "../ChibiOS/os/ext/CMSIS/include/core_cmFunc.h"
  42              		.loc 2 548 0
  43 0002 2023     		movs	r3, #32
  44              	.LBE81:
  45              	.LBE80:
  46              	.LBE79:
  47              	.LBE78:
  48              	.LBE77:
  49              		.loc 1 48 0
  50 0004 0446     		mov	r4, r0
  51              	.LVL1:
  52              	.LBB86:
  53              	.LBB85:
  54              	.LBB84:
  55              	.LBB83:
  56              	.LBB82:
  57              		.loc 2 548 0
ARM GAS  /tmp/cckYb9Bl.s 			page 2


  58              	@ 548 "../ChibiOS/os/ext/CMSIS/include/core_cmFunc.h" 1
  59 0006 83F31188 		MSR basepri, r3
  60              	@ 0 "" 2
  61              	.LVL2:
  62              		.thumb
  63              	.LBE82:
  64              	.LBE83:
  65              	.LBE84:
  66              	.LBE85:
  67              	.LBE86:
  68              	.LBB87:
  69              	.LBB88:
  70              		.file 3 "../ChibiOS/os/rt/include/chevents.h"
  71              		.loc 3 256 0
  72 000a 0021     		movs	r1, #0
  73 000c 1430     		adds	r0, r0, #20
  74              	.LVL3:
  75 000e FFF7FEFF 		bl	chEvtBroadcastFlagsI
  76              	.LVL4:
  77              	.LBE88:
  78              	.LBE87:
  79              		.loc 1 53 0
  80 0012 2346     		mov	r3, r4
  81 0014 2046     		mov	r0, r4
  82 0016 A169     		ldr	r1, [r4, #24]
  83 0018 034A     		ldr	r2, .L2
  84 001a FFF7FEFF 		bl	chVTDoSetI
  85              	.LVL5:
  86              	.LBB89:
  87              	.LBB90:
  88              	.LBB91:
  89              	.LBB92:
  90              	.LBB93:
  91              		.loc 2 548 0
  92 001e 0023     		movs	r3, #0
  93              	@ 548 "../ChibiOS/os/ext/CMSIS/include/core_cmFunc.h" 1
  94 0020 83F31188 		MSR basepri, r3
  95              	@ 0 "" 2
  96              		.thumb
  97 0024 10BD     		pop	{r4, pc}
  98              	.LVL6:
  99              	.L3:
 100 0026 00BF     		.align	2
 101              	.L2:
 102 0028 00000000 		.word	tmrcb
 103              	.LBE93:
 104              	.LBE92:
 105              	.LBE91:
 106              	.LBE90:
 107              	.LBE89:
 108              		.cfi_endproc
 109              	.LFE242:
 110              		.size	tmrcb, .-tmrcb
 111 002c AFF30080 		.section	.text.evtObjectInit,"ax",%progbits
 112              		.align	2
 113              		.p2align 4,,15
 114              		.global	evtObjectInit
ARM GAS  /tmp/cckYb9Bl.s 			page 3


 115              		.thumb
 116              		.thumb_func
 117              		.type	evtObjectInit, %function
 118              	evtObjectInit:
 119              	.LFB243:
 120              		.loc 1 67 0
 121              		.cfi_startproc
 122              		@ args = 0, pretend = 0, frame = 0
 123              		@ frame_needed = 0, uses_anonymous_args = 0
 124              		@ link register save eliminated.
 125              	.LVL7:
 126              		.loc 1 69 0
 127 0000 00F11402 		add	r2, r0, #20
 128              	.LVL8:
 129              	.LBB94:
 130              	.LBB95:
 131              		.file 4 "../ChibiOS/os/rt/include/chvt.h"
 132              		.loc 4 212 0
 133 0004 0023     		movs	r3, #0
 134              	.LBE95:
 135              	.LBE94:
 136              		.loc 1 71 0
 137 0006 8161     		str	r1, [r0, #24]
 138              	.LBB97:
 139              	.LBB98:
 140              		.loc 3 172 0
 141 0008 4261     		str	r2, [r0, #20]
 142              	.LVL9:
 143              	.LBE98:
 144              	.LBE97:
 145              	.LBB99:
 146              	.LBB96:
 147              		.loc 4 212 0
 148 000a C360     		str	r3, [r0, #12]
 149 000c 7047     		bx	lr
 150              	.LBE96:
 151              	.LBE99:
 152              		.cfi_endproc
 153              	.LFE243:
 154              		.size	evtObjectInit, .-evtObjectInit
 155 000e 00BF     		.section	.text.evtStart,"ax",%progbits
 156              		.align	2
 157              		.p2align 4,,15
 158              		.global	evtStart
 159              		.thumb
 160              		.thumb_func
 161              		.type	evtStart, %function
 162              	evtStart:
 163              	.LFB244:
 164              		.loc 1 80 0
 165              		.cfi_startproc
 166              		@ args = 0, pretend = 0, frame = 0
 167              		@ frame_needed = 0, uses_anonymous_args = 0
 168              	.LVL10:
 169 0000 38B5     		push	{r3, r4, r5, lr}
 170              		.cfi_def_cfa_offset 16
 171              		.cfi_offset 3, -16
ARM GAS  /tmp/cckYb9Bl.s 			page 4


 172              		.cfi_offset 4, -12
 173              		.cfi_offset 5, -8
 174              		.cfi_offset 14, -4
 175              		.loc 1 80 0
 176 0002 0446     		mov	r4, r0
 177              	.LBB115:
 178              	.LBB116:
 179              	.LBB117:
 180              	.LBB118:
 181              	.LBB119:
 182              		.loc 2 548 0
 183 0004 2023     		movs	r3, #32
 184              	.LBE119:
 185              	.LBE118:
 186              	.LBE117:
 187              	.LBE116:
 188              	.LBE115:
 189              		.loc 1 82 0
 190 0006 8569     		ldr	r5, [r0, #24]
 191              	.LVL11:
 192              	.LBB133:
 193              	.LBB123:
 194              	.LBB122:
 195              	.LBB121:
 196              	.LBB120:
 197              		.loc 2 548 0
 198              	@ 548 "../ChibiOS/os/ext/CMSIS/include/core_cmFunc.h" 1
 199 0008 83F31188 		MSR basepri, r3
 200              	@ 0 "" 2
 201              	.LVL12:
 202              		.thumb
 203              	.LBE120:
 204              	.LBE121:
 205              	.LBE122:
 206              	.LBE123:
 207              	.LBB124:
 208              	.LBB125:
 209              	.LBB126:
 210              	.LBB127:
 211              		.loc 4 412 0
 212 000c C368     		ldr	r3, [r0, #12]
 213 000e 0BB1     		cbz	r3, .L6
 214              		.loc 4 413 0
 215 0010 FFF7FEFF 		bl	chVTDoResetI
 216              	.LVL13:
 217              	.L6:
 218              	.LBE127:
 219              	.LBE126:
 220              		.loc 4 460 0
 221 0014 2346     		mov	r3, r4
 222 0016 2046     		mov	r0, r4
 223 0018 2946     		mov	r1, r5
 224 001a 034A     		ldr	r2, .L11
 225 001c FFF7FEFF 		bl	chVTDoSetI
 226              	.LVL14:
 227              	.LBE125:
 228              	.LBE124:
ARM GAS  /tmp/cckYb9Bl.s 			page 5


 229              	.LBB128:
 230              	.LBB129:
 231              	.LBB130:
 232              	.LBB131:
 233              	.LBB132:
 234              		.loc 2 548 0
 235 0020 0023     		movs	r3, #0
 236              	@ 548 "../ChibiOS/os/ext/CMSIS/include/core_cmFunc.h" 1
 237 0022 83F31188 		MSR basepri, r3
 238              	@ 0 "" 2
 239              		.thumb
 240 0026 38BD     		pop	{r3, r4, r5, pc}
 241              	.LVL15:
 242              	.L12:
 243              		.align	2
 244              	.L11:
 245 0028 00000000 		.word	tmrcb
 246              	.LBE132:
 247              	.LBE131:
 248              	.LBE130:
 249              	.LBE129:
 250              	.LBE128:
 251              	.LBE133:
 252              		.cfi_endproc
 253              	.LFE244:
 254              		.size	evtStart, .-evtStart
 255 002c AFF30080 		.text
 256              	.Letext0:
 257              		.file 5 "/nfs/nfs5/home/research/hardware/arm2/gcc-arm-embedded/gcc-arm-none-eabi-4_8-2014q2/arm-n
 258              		.file 6 "/nfs/nfs5/home/research/hardware/arm2/gcc-arm-embedded/gcc-arm-none-eabi-4_8-2014q2/arm-n
 259              		.file 7 "../ChibiOS/os/rt/ports/ARMCMx/compilers/GCC/chtypes.h"
 260              		.file 8 "../ChibiOS/os/rt/include/chsystypes.h"
 261              		.file 9 "../ChibiOS/os/rt/include/chschd.h"
 262              		.file 10 "../ChibiOS/os/rt/ports/ARMCMx/chcore.h"
 263              		.file 11 "../ChibiOS/os/rt/ports/ARMCMx/chcore_v7m.h"
 264              		.file 12 "../ChibiOS/os/rt/include/chtm.h"
 265              		.file 13 "../ChibiOS/os/rt/include/chsem.h"
 266              		.file 14 "../ChibiOS/os/rt/include/chmtx.h"
 267              		.file 15 "../ChibiOS/os/various/evtimer.h"
 268              		.file 16 "../ChibiOS/os/rt/include/chsys.h"
 269              		.file 17 "../ChibiOS/os/ext/CMSIS/include/core_cm4.h"