ARM GAS  /tmp/cckYb9Bl.s 			page 1


   1              		.syntax unified
   2              		.cpu cortex-m4
   3              		.fpu softvfp
   4              		.eabi_attribute 20, 1
   5              		.eabi_attribute 21, 1
   6              		.eabi_attribute 23, 3
   7              		.eabi_attribute 24, 1
   8              		.eabi_attribute 25, 1
   9              		.eabi_attribute 26, 1
  10              		.eabi_attribute 30, 2
  11              		.eabi_attribute 34, 1
  12              		.eabi_attribute 18, 4
  13              		.thumb
  14              		.file	"evtimer.c"
  15              		.text
  16              	.Ltext0:
  17              		.cfi_sections	.debug_frame
  18              		.section	.text.tmrcb,"ax",%progbits
  19              		.align	2
  20              		.p2align 4,,15
  21              		.thumb
  22              		.thumb_func
  23              		.type	tmrcb, %function
  24              	tmrcb:
  25              	.LFB242:
  26              		.file 1 "../ChibiOS/os/various/evtimer.c"
  27              		.loc 1 48 0
  28              		.cfi_startproc
  29              		@ args = 0, pretend = 0, frame = 0
  30              		@ frame_needed = 0, uses_anonymous_args = 0
  31              	.LVL0:
  32 0000 10B5     		push	{r4, lr}
  33              		.cfi_def_cfa_offset 8
  34              		.cfi_offset 4, -8
  35              		.cfi_offset 14, -4
  36              	.LBB77:
  37              	.LBB78:
  38              	.LBB79:
  39              	.LBB80:
  40              	.LBB81:
  41              		.file 2 "../ChibiOS/os/ext/CMSIS/include/core_cmFunc.h"
  42              		.loc 2 548 0
  43 0002 2023     		movs	r3, #32
  44              	.LBE81:
  45              	.LBE80:
  46              	.LBE79:
  47              	.LBE78:
  48              	.LBE77:
  49              		.loc 1 48 0
  50 0004 0446     		mov	r4, r0
  51              	.LVL1:
  52              	.LBB86:
  53              	.LBB85:
  54              	.LBB84:
  55              	.LBB83:
  56              	.LBB82:
  57              		.loc 2 548 0
ARM GAS  /tmp/cckYb9Bl.s 			page 2


  58              	@ 548 "../ChibiOS/os/ext/CMSIS/include/core_cmFunc.h" 1
  59 0006 83F31188 		MSR basepri, r3
  60              	@ 0 "" 2
  61              	.LVL2:
  62              		.thumb
  63              	.LBE82:
  64              	.LBE83:
  65              	.LBE84:
  66              	.LBE85:
  67              	.LBE86:
  68              	.LBB87:
  69              	.LBB88:
  70              		.file 3 "../ChibiOS/os/rt/include/chevents.h"
  71              		.loc 3 256 0
  72 000a 0021     		movs	r1, #0
  73 000c 1430     		adds	r0, r0, #20
  74              	.LVL3:
  75 000e FFF7FEFF 		bl	chEvtBroadcastFlagsI
  76              	.LVL4:
  77              	.LBE88:
  78              	.LBE87:
  79              		.loc 1 53 0
  80 0012 2346     		mov	r3, r4
  81 0014 2046     		mov	r0, r4
  82 0016 A169     		ldr	r1, [r4, #24]
  83 0018 034A     		ldr	r2, .L2
  84 001a FFF7FEFF 		bl	chVTDoSetI
  85              	.LVL5:
  86              	.LBB89:
  87              	.LBB90:
  88              	.LBB91:
  89              	.LBB92:
  90              	.LBB93:
  91              		.loc 2 548 0
  92 001e 0023     		movs	r3, #0
  93              	@ 548 "../ChibiOS/os/ext/CMSIS/include/core_cmFunc.h" 1
  94 0020 83F31188 		MSR basepri, r3
  95              	@ 0 "" 2
  96              		.thumb
  97 0024 10BD     		pop	{r4, pc}
  98              	.LVL6:
  99              	.L3:
 100 0026 00BF     		.align	2
 101              	.L2:
 102 0028 00000000 		.word	tmrcb
 103              	.LBE93:
 104              	.LBE92:
 105              	.LBE91:
 106              	.LBE90:
 107              	.LBE89:
 108              		.cfi_endproc
 109              	.LFE242:
 110              		.size	tmrcb, .-tmrcb
 111 002c AFF30080 		.section	.text.evtObjectInit,"ax",%progbits
 112              		.align	2
 113              		.p2align 4,,15
 114              		.global	evtObjectInit
ARM GAS  /tmp/cckYb9Bl.s 			page 3


 115              		.thumb
 116              		.thumb_func
 117              		.type	evtObjectInit, %function
 118              	evtObjectInit:
 119              	.LFB243:
 120              		.loc 1 67 0
 121              		.cfi_startproc
 122              		@ args = 0, pretend = 0, frame = 0
 123              		@ frame_needed = 0, uses_anonymous_args = 0
 124              		@ link register save eliminated.
 125              	.LVL7:
 126              		.loc 1 69 0
 127 0000 00F11402 		add	r2, r0, #20
 128              	.LVL8:
 129              	.LBB94:
 130              	.LBB95:
 131              		.file 4 "../ChibiOS/os/rt/include/chvt.h"
 132              		.loc 4 212 0
 133 0004 0023     		movs	r3, #0
 134              	.LBE95:
 135              	.LBE94:
 136              		.loc 1 71 0
 137 0006 8161     		str	r1, [r0, #24]
 138              	.LBB97:
 139              	.LBB98:
 140              		.loc 3 172 0
 141 0008 4261     		str	r2, [r0, #20]
 142              	.LVL9:
 143              	.LBE98:
 144              	.LBE97:
 145              	.LBB99:
 146              	.LBB96:
 147              		.loc 4 212 0
 148 000a C360     		str	r3, [r0, #12]
 149 000c 7047     		bx	lr
 150              	.LBE96:
 151              	.LBE99:
 152              		.cfi_endproc
 153              	.LFE243:
 154              		.size	evtObjectInit, .-evtObjectInit
 155 000e 00BF     		.section	.text.evtStart,"ax",%progbits
 156              		.align	2
 157              		.p2align 4,,15
 158              		.global	evtStart
 159              		.thumb
 160              		.thumb_func
 161              		.type	evtStart, %function
 162              	evtStart:
 163              	.LFB244:
 164              		.loc 1 80 0
 165              		.cfi_startproc
 166              		@ args = 0, pretend = 0, frame = 0
 167              		@ frame_needed = 0, uses_anonymous_args = 0
 168              	.LVL10:
 169 0000 38B5     		push	{r3, r4, r5, lr}
 170              		.cfi_def_cfa_offset 16
 171              		.cfi_offset 3, -16
ARM GAS  /tmp/cckYb9Bl.s 			page 4


 172              		.cfi_offset 4, -12
 173              		.cfi_offset 5, -8
 174              		.cfi_offset 14, -4
 175              		.loc 1 80 0
 176 0002 0446     		mov	r4, r0
 177              	.LBB115:
 178              	.LBB116:
 179              	.LBB117:
 180              	.LBB118:
 181              	.LBB119:
 182              		.loc 2 548 0
 183 0004 2023     		movs	r3, #32
 184              	.LBE119:
 185              	.LBE118:
 186              	.LBE117:
 187              	.LBE116:
 188              	.LBE115:
 189              		.loc 1 82 0
 190 0006 8569     		ldr	r5, [r0, #24]
 191              	.LVL11:
 192              	.LBB133:
 193              	.LBB123:
 194              	.LBB122:
 195              	.LBB121:
 196              	.LBB120:
 197              		.loc 2 548 0
 198              	@ 548 "../ChibiOS/os/ext/CMSIS/include/core_cmFunc.h" 1
 199 0008 83F31188 		MSR basepri, r3
 200              	@ 0 "" 2
 201              	.LVL12:
 202              		.thumb
 203              	.LBE120:
 204              	.LBE121:
 205              	.LBE122:
 206              	.LBE123:
 207              	.LBB124:
 208              	.LBB125:
 209              	.LBB126:
 210              	.LBB127:
 211              		.loc 4 412 0
 212 000c C368     		ldr	r3, [r0, #12]
 213 000e 0BB1     		cbz	r3, .L6
 214              		.loc 4 413 0
 215 0010 FFF7FEFF 		bl	chVTDoResetI
 216              	.LVL13:
 217              	.L6:
 218              	.LBE127:
 219              	.LBE126:
 220              		.loc 4 460 0
 221 0014 2346     		mov	r3, r4
 222 0016 2046     		mov	r0, r4
 223 0018 2946     		mov	r1, r5
 224 001a 034A     		ldr	r2, .L11
 225 001c FFF7FEFF 		bl	chVTDoSetI
 226              	.LVL14:
 227              	.LBE125:
 228              	.LBE124:
ARM GAS  /tmp/cckYb9Bl.s 			page 5


 229              	.LBB128:
 230              	.LBB129:
 231              	.LBB130:
 232              	.LBB131:
 233              	.LBB132:
 234              		.loc 2 548 0
 235 0020 0023     		movs	r3, #0
 236              	@ 548 "../ChibiOS/os/ext/CMSIS/include/core_cmFunc.h" 1
 237 0022 83F31188 		MSR basepri, r3
 238              	@ 0 "" 2
 239              		.thumb
 240 0026 38BD     		pop	{r3, r4, r5, pc}
 241              	.LVL15:
 242              	.L12:
 243              		.align	2
 244              	.L11:
 245 0028 00000000 		.word	tmrcb
 246              	.LBE132:
 247              	.LBE131:
 248              	.LBE130:
 249              	.LBE129:
 250              	.LBE128:
 251              	.LBE133:
 252              		.cfi_endproc
 253              	.LFE244:
 254              		.size	evtStart, .-evtStart
 255 002c AFF30080 		.text
 256              	.Letext0:
 257              		.file 5 "/nfs/nfs5/home/research/hardware/arm2/gcc-arm-embedded/gcc-arm-none-eabi-4_8-2014q2/arm-n
 258              		.file 6 "/nfs/nfs5/home/research/hardware/arm2/gcc-arm-embedded/gcc-arm-none-eabi-4_8-2014q2/arm-n
 259              		.file 7 "../ChibiOS/os/rt/ports/ARMCMx/compilers/GCC/chtypes.h"
 260              		.file 8 "../ChibiOS/os/rt/include/chsystypes.h"
 261              		.file 9 "../ChibiOS/os/rt/include/chschd.h"
 262              		.file 10 "../ChibiOS/os/rt/ports/ARMCMx/chcore.h"
 263              		.file 11 "../ChibiOS/os/rt/ports/ARMCMx/chcore_v7m.h"
 264              		.file 12 "../ChibiOS/os/rt/include/chtm.h"
 265              		.file 13 "../ChibiOS/os/rt/include/chsem.h"
 266              		.file 14 "../ChibiOS/os/rt/include/chmtx.h"
 267              		.file 15 "../ChibiOS/os/various/evtimer.h"
 268              		.file 16 "../ChibiOS/os/rt/include/chsys.h"
 269              		.file 17 "../ChibiOS/os/ext/CMSIS/include/core_cm4.h"
 270              		.section	.debug_info,"",%progbits
 271              	.Ldebug_info0:
 272 0000 BB0B0000 		.4byte	0xbbb
 273 0004 0400     		.2byte	0x4
 274 0006 00000000 		.4byte	.Ldebug_abbrev0
 275 000a 04       		.byte	0x4
 276 000b 01       		.uleb128 0x1
 277 000c 42050000 		.4byte	.LASF141
 278 0010 01       		.byte	0x1
 279 0011 AA020000 		.4byte	.LASF142
 280 0015 BE040000 		.4byte	.LASF143
 281 0019 60000000 		.4byte	.Ldebug_ranges0+0x60
 282 001d 00000000 		.4byte	0
 283 0021 00000000 		.4byte	.Ldebug_line0
 284 0025 02       		.uleb128 0x2
 285 0026 04       		.byte	0x4
ARM GAS  /tmp/cckYb9Bl.s 			page 6


 286 0027 05       		.byte	0x5
 287 0028 696E7400 		.ascii	"int\000"
 288 002c 03       		.uleb128 0x3
 289 002d 04       		.byte	0x4
 290 002e 07       		.byte	0x7
 291 002f B9010000 		.4byte	.LASF0
 292 0033 03       		.uleb128 0x3
 293 0034 01       		.byte	0x1
 294 0035 06       		.byte	0x6
 295 0036 F7000000 		.4byte	.LASF1
 296 003a 04       		.uleb128 0x4
 297 003b 3B000000 		.4byte	.LASF5
 298 003f 05       		.byte	0x5
 299 0040 1C       		.byte	0x1c
 300 0041 45000000 		.4byte	0x45
 301 0045 03       		.uleb128 0x3
 302 0046 01       		.byte	0x1
 303 0047 08       		.byte	0x8
 304 0048 E6030000 		.4byte	.LASF2
 305 004c 03       		.uleb128 0x3
 306 004d 02       		.byte	0x2
 307 004e 05       		.byte	0x5
 308 004f 13040000 		.4byte	.LASF3
 309 0053 03       		.uleb128 0x3
 310 0054 02       		.byte	0x2
 311 0055 07       		.byte	0x7
 312 0056 FF010000 		.4byte	.LASF4
 313 005a 04       		.uleb128 0x4
 314 005b 86020000 		.4byte	.LASF6
 315 005f 05       		.byte	0x5
 316 0060 37       		.byte	0x37
 317 0061 65000000 		.4byte	0x65
 318 0065 03       		.uleb128 0x3
 319 0066 04       		.byte	0x4
 320 0067 05       		.byte	0x5
 321 0068 30010000 		.4byte	.LASF7
 322 006c 04       		.uleb128 0x4
 323 006d 41060000 		.4byte	.LASF8
 324 0071 05       		.byte	0x5
 325 0072 38       		.byte	0x38
 326 0073 77000000 		.4byte	0x77
 327 0077 03       		.uleb128 0x3
 328 0078 04       		.byte	0x4
 329 0079 07       		.byte	0x7
 330 007a 07050000 		.4byte	.LASF9
 331 007e 03       		.uleb128 0x3
 332 007f 08       		.byte	0x8
 333 0080 05       		.byte	0x5
 334 0081 E9000000 		.4byte	.LASF10
 335 0085 04       		.uleb128 0x4
 336 0086 83030000 		.4byte	.LASF11
 337 008a 05       		.byte	0x5
 338 008b 4E       		.byte	0x4e
 339 008c 90000000 		.4byte	0x90
 340 0090 03       		.uleb128 0x3
 341 0091 08       		.byte	0x8
 342 0092 07       		.byte	0x7
ARM GAS  /tmp/cckYb9Bl.s 			page 7


 343 0093 6A000000 		.4byte	.LASF12
 344 0097 04       		.uleb128 0x4
 345 0098 D0060000 		.4byte	.LASF13
 346 009c 06       		.byte	0x6
 347 009d 2A       		.byte	0x2a
 348 009e 3A000000 		.4byte	0x3a
 349 00a2 04       		.uleb128 0x4
 350 00a3 DE030000 		.4byte	.LASF14
 351 00a7 06       		.byte	0x6
 352 00a8 41       		.byte	0x41
 353 00a9 5A000000 		.4byte	0x5a
 354 00ad 04       		.uleb128 0x4
 355 00ae AE040000 		.4byte	.LASF15
 356 00b2 06       		.byte	0x6
 357 00b3 42       		.byte	0x42
 358 00b4 6C000000 		.4byte	0x6c
 359 00b8 04       		.uleb128 0x4
 360 00b9 26000000 		.4byte	.LASF16
 361 00bd 06       		.byte	0x6
 362 00be 4E       		.byte	0x4e
 363 00bf 85000000 		.4byte	0x85
 364 00c3 04       		.uleb128 0x4
 365 00c4 73060000 		.4byte	.LASF17
 366 00c8 07       		.byte	0x7
 367 00c9 39       		.byte	0x39
 368 00ca AD000000 		.4byte	0xad
 369 00ce 04       		.uleb128 0x4
 370 00cf 3A040000 		.4byte	.LASF18
 371 00d3 07       		.byte	0x7
 372 00d4 3C       		.byte	0x3c
 373 00d5 97000000 		.4byte	0x97
 374 00d9 04       		.uleb128 0x4
 375 00da 39010000 		.4byte	.LASF19
 376 00de 07       		.byte	0x7
 377 00df 3D       		.byte	0x3d
 378 00e0 97000000 		.4byte	0x97
 379 00e4 04       		.uleb128 0x4
 380 00e5 8E030000 		.4byte	.LASF20
 381 00e9 07       		.byte	0x7
 382 00ea 3E       		.byte	0x3e
 383 00eb 97000000 		.4byte	0x97
 384 00ef 04       		.uleb128 0x4
 385 00f0 AD030000 		.4byte	.LASF21
 386 00f4 07       		.byte	0x7
 387 00f5 40       		.byte	0x40
 388 00f6 AD000000 		.4byte	0xad
 389 00fa 04       		.uleb128 0x4
 390 00fb 3E020000 		.4byte	.LASF22
 391 00ff 07       		.byte	0x7
 392 0100 41       		.byte	0x41
 393 0101 A2000000 		.4byte	0xa2
 394 0105 04       		.uleb128 0x4
 395 0106 2F000000 		.4byte	.LASF23
 396 010a 07       		.byte	0x7
 397 010b 43       		.byte	0x43
 398 010c AD000000 		.4byte	0xad
 399 0110 04       		.uleb128 0x4
ARM GAS  /tmp/cckYb9Bl.s 			page 8


 400 0111 31020000 		.4byte	.LASF24
 401 0115 07       		.byte	0x7
 402 0116 44       		.byte	0x44
 403 0117 AD000000 		.4byte	0xad
 404 011b 04       		.uleb128 0x4
 405 011c B3010000 		.4byte	.LASF25
 406 0120 07       		.byte	0x7
 407 0121 45       		.byte	0x45
 408 0122 A2000000 		.4byte	0xa2
 409 0126 04       		.uleb128 0x4
 410 0127 23060000 		.4byte	.LASF26
 411 012b 08       		.byte	0x8
 412 012c 33       		.byte	0x33
 413 012d AD000000 		.4byte	0xad
 414 0131 04       		.uleb128 0x4
 415 0132 39050000 		.4byte	.LASF27
 416 0136 08       		.byte	0x8
 417 0137 3F       		.byte	0x3f
 418 0138 3C010000 		.4byte	0x13c
 419 013c 05       		.uleb128 0x5
 420 013d 12020000 		.4byte	.LASF46
 421 0141 40       		.byte	0x40
 422 0142 09       		.byte	0x9
 423 0143 C2       		.byte	0xc2
 424 0144 1C020000 		.4byte	0x21c
 425 0148 06       		.uleb128 0x6
 426 0149 33040000 		.4byte	.LASF28
 427 014d 09       		.byte	0x9
 428 014e C3       		.byte	0xc3
 429 014f 27020000 		.4byte	0x227
 430 0153 00       		.byte	0
 431 0154 06       		.uleb128 0x6
 432 0155 A6030000 		.4byte	.LASF29
 433 0159 09       		.byte	0x9
 434 015a C5       		.byte	0xc5
 435 015b 27020000 		.4byte	0x227
 436 015f 04       		.byte	0x4
 437 0160 06       		.uleb128 0x6
 438 0161 E2000000 		.4byte	.LASF30
 439 0165 09       		.byte	0x9
 440 0166 C7       		.byte	0xc7
 441 0167 EF000000 		.4byte	0xef
 442 016b 08       		.byte	0x8
 443 016c 06       		.uleb128 0x6
 444 016d 21070000 		.4byte	.LASF31
 445 0171 09       		.byte	0x9
 446 0172 C8       		.byte	0xc8
 447 0173 57040000 		.4byte	0x457
 448 0177 0C       		.byte	0xc
 449 0178 06       		.uleb128 0x6
 450 0179 5E010000 		.4byte	.LASF32
 451 017d 09       		.byte	0x9
 452 017e CA       		.byte	0xca
 453 017f 27020000 		.4byte	0x227
 454 0183 10       		.byte	0x10
 455 0184 06       		.uleb128 0x6
 456 0185 3B030000 		.4byte	.LASF33
ARM GAS  /tmp/cckYb9Bl.s 			page 9


 457 0189 09       		.byte	0x9
 458 018a CB       		.byte	0xcb
 459 018b 27020000 		.4byte	0x227
 460 018f 14       		.byte	0x14
 461 0190 06       		.uleb128 0x6
 462 0191 E9060000 		.4byte	.LASF34
 463 0195 09       		.byte	0x9
 464 0196 D2       		.byte	0xd2
 465 0197 E2050000 		.4byte	0x5e2
 466 019b 18       		.byte	0x18
 467 019c 06       		.uleb128 0x6
 468 019d 1D040000 		.4byte	.LASF35
 469 01a1 09       		.byte	0x9
 470 01a2 DD       		.byte	0xdd
 471 01a3 D9000000 		.4byte	0xd9
 472 01a7 1C       		.byte	0x1c
 473 01a8 06       		.uleb128 0x6
 474 01a9 42040000 		.4byte	.LASF36
 475 01ad 09       		.byte	0x9
 476 01ae E1       		.byte	0xe1
 477 01af CE000000 		.4byte	0xce
 478 01b3 1D       		.byte	0x1d
 479 01b4 06       		.uleb128 0x6
 480 01b5 42010000 		.4byte	.LASF37
 481 01b9 09       		.byte	0x9
 482 01ba E6       		.byte	0xe6
 483 01bb E4000000 		.4byte	0xe4
 484 01bf 1E       		.byte	0x1e
 485 01c0 07       		.uleb128 0x7
 486 01c1 705F7500 		.ascii	"p_u\000"
 487 01c5 09       		.byte	0x9
 488 01c6 3701     		.2byte	0x137
 489 01c8 11050000 		.4byte	0x511
 490 01cc 20       		.byte	0x20
 491 01cd 08       		.uleb128 0x8
 492 01ce DB020000 		.4byte	.LASF38
 493 01d2 09       		.byte	0x9
 494 01d3 3C01     		.2byte	0x13c
 495 01d5 2D020000 		.4byte	0x22d
 496 01d9 24       		.byte	0x24
 497 01da 08       		.uleb128 0x8
 498 01db DE010000 		.4byte	.LASF39
 499 01df 09       		.byte	0x9
 500 01e0 4201     		.2byte	0x142
 501 01e2 51020000 		.4byte	0x251
 502 01e6 28       		.byte	0x28
 503 01e7 08       		.uleb128 0x8
 504 01e8 A3040000 		.4byte	.LASF40
 505 01ec 09       		.byte	0x9
 506 01ed 4801     		.2byte	0x148
 507 01ef 05010000 		.4byte	0x105
 508 01f3 30       		.byte	0x30
 509 01f4 08       		.uleb128 0x8
 510 01f5 09040000 		.4byte	.LASF41
 511 01f9 09       		.byte	0x9
 512 01fa 4F01     		.2byte	0x14f
 513 01fc DC050000 		.4byte	0x5dc
ARM GAS  /tmp/cckYb9Bl.s 			page 10


 514 0200 34       		.byte	0x34
 515 0201 08       		.uleb128 0x8
 516 0202 2D060000 		.4byte	.LASF42
 517 0206 09       		.byte	0x9
 518 0207 5301     		.2byte	0x153
 519 0209 EF000000 		.4byte	0xef
 520 020d 38       		.byte	0x38
 521 020e 08       		.uleb128 0x8
 522 020f 03010000 		.4byte	.LASF43
 523 0213 09       		.byte	0x9
 524 0214 5A01     		.2byte	0x15a
 525 0216 04030000 		.4byte	0x304
 526 021a 3C       		.byte	0x3c
 527 021b 00       		.byte	0
 528 021c 04       		.uleb128 0x4
 529 021d F4020000 		.4byte	.LASF44
 530 0221 08       		.byte	0x8
 531 0222 44       		.byte	0x44
 532 0223 27020000 		.4byte	0x227
 533 0227 09       		.uleb128 0x9
 534 0228 04       		.byte	0x4
 535 0229 31010000 		.4byte	0x131
 536 022d 04       		.uleb128 0x4
 537 022e F0060000 		.4byte	.LASF45
 538 0232 08       		.byte	0x8
 539 0233 49       		.byte	0x49
 540 0234 38020000 		.4byte	0x238
 541 0238 05       		.uleb128 0x5
 542 0239 F7040000 		.4byte	.LASF47
 543 023d 04       		.byte	0x4
 544 023e 09       		.byte	0x9
 545 023f B0       		.byte	0xb0
 546 0240 51020000 		.4byte	0x251
 547 0244 06       		.uleb128 0x6
 548 0245 33040000 		.4byte	.LASF28
 549 0249 09       		.byte	0x9
 550 024a B1       		.byte	0xb1
 551 024b 27020000 		.4byte	0x227
 552 024f 00       		.byte	0
 553 0250 00       		.byte	0
 554 0251 04       		.uleb128 0x4
 555 0252 9C060000 		.4byte	.LASF48
 556 0256 08       		.byte	0x8
 557 0257 50       		.byte	0x50
 558 0258 5C020000 		.4byte	0x25c
 559 025c 05       		.uleb128 0x5
 560 025d D1000000 		.4byte	.LASF49
 561 0261 08       		.byte	0x8
 562 0262 09       		.byte	0x9
 563 0263 B7       		.byte	0xb7
 564 0264 81020000 		.4byte	0x281
 565 0268 06       		.uleb128 0x6
 566 0269 33040000 		.4byte	.LASF28
 567 026d 09       		.byte	0x9
 568 026e B8       		.byte	0xb8
 569 026f 27020000 		.4byte	0x227
 570 0273 00       		.byte	0
ARM GAS  /tmp/cckYb9Bl.s 			page 11


 571 0274 06       		.uleb128 0x6
 572 0275 A6030000 		.4byte	.LASF29
 573 0279 09       		.byte	0x9
 574 027a B9       		.byte	0xb9
 575 027b 27020000 		.4byte	0x227
 576 027f 04       		.byte	0x4
 577 0280 00       		.byte	0
 578 0281 04       		.uleb128 0x4
 579 0282 0C000000 		.4byte	.LASF50
 580 0286 08       		.byte	0x8
 581 0287 57       		.byte	0x57
 582 0288 8C020000 		.4byte	0x28c
 583 028c 0A       		.uleb128 0xa
 584 028d 6D020000 		.4byte	.LASF51
 585 0291 1C       		.byte	0x1c
 586 0292 09       		.byte	0x9
 587 0293 9201     		.2byte	0x192
 588 0295 E8020000 		.4byte	0x2e8
 589 0299 08       		.uleb128 0x8
 590 029a 1E030000 		.4byte	.LASF52
 591 029e 09       		.byte	0x9
 592 029f 9301     		.2byte	0x193
 593 02a1 51020000 		.4byte	0x251
 594 02a5 00       		.byte	0
 595 02a6 08       		.uleb128 0x8
 596 02a7 25040000 		.4byte	.LASF53
 597 02ab 09       		.byte	0x9
 598 02ac 9401     		.2byte	0x194
 599 02ae EF000000 		.4byte	0xef
 600 02b2 08       		.byte	0x8
 601 02b3 08       		.uleb128 0x8
 602 02b4 43030000 		.4byte	.LASF54
 603 02b8 09       		.byte	0x9
 604 02b9 9601     		.2byte	0x196
 605 02bb 57040000 		.4byte	0x457
 606 02bf 0C       		.byte	0xc
 607 02c0 08       		.uleb128 0x8
 608 02c1 6E010000 		.4byte	.LASF55
 609 02c5 09       		.byte	0x9
 610 02c6 9901     		.2byte	0x199
 611 02c8 27020000 		.4byte	0x227
 612 02cc 10       		.byte	0x10
 613 02cd 08       		.uleb128 0x8
 614 02ce 71030000 		.4byte	.LASF56
 615 02d2 09       		.byte	0x9
 616 02d3 9A01     		.2byte	0x19a
 617 02d5 27020000 		.4byte	0x227
 618 02d9 14       		.byte	0x14
 619 02da 08       		.uleb128 0x8
 620 02db 67030000 		.4byte	.LASF57
 621 02df 09       		.byte	0x9
 622 02e0 9D01     		.2byte	0x19d
 623 02e2 27020000 		.4byte	0x227
 624 02e6 18       		.byte	0x18
 625 02e7 00       		.byte	0
 626 02e8 04       		.uleb128 0x4
 627 02e9 38060000 		.4byte	.LASF58
ARM GAS  /tmp/cckYb9Bl.s 			page 12


 628 02ed 08       		.byte	0x8
 629 02ee 5C       		.byte	0x5c
 630 02ef F3020000 		.4byte	0x2f3
 631 02f3 09       		.uleb128 0x9
 632 02f4 04       		.byte	0x4
 633 02f5 F9020000 		.4byte	0x2f9
 634 02f9 0B       		.uleb128 0xb
 635 02fa 04030000 		.4byte	0x304
 636 02fe 0C       		.uleb128 0xc
 637 02ff 04030000 		.4byte	0x304
 638 0303 00       		.byte	0
 639 0304 0D       		.uleb128 0xd
 640 0305 04       		.byte	0x4
 641 0306 04       		.uleb128 0x4
 642 0307 96030000 		.4byte	.LASF59
 643 030b 08       		.byte	0x8
 644 030c 61       		.byte	0x61
 645 030d 11030000 		.4byte	0x311
 646 0311 0A       		.uleb128 0xa
 647 0312 7A040000 		.4byte	.LASF60
 648 0316 14       		.byte	0x14
 649 0317 09       		.byte	0x9
 650 0318 6D01     		.2byte	0x16d
 651 031a 60030000 		.4byte	0x360
 652 031e 08       		.uleb128 0x8
 653 031f C6010000 		.4byte	.LASF61
 654 0323 09       		.byte	0x9
 655 0324 6E01     		.2byte	0x16e
 656 0326 F4050000 		.4byte	0x5f4
 657 032a 00       		.byte	0
 658 032b 08       		.uleb128 0x8
 659 032c 7F010000 		.4byte	.LASF62
 660 0330 09       		.byte	0x9
 661 0331 6F01     		.2byte	0x16f
 662 0333 F4050000 		.4byte	0x5f4
 663 0337 04       		.byte	0x4
 664 0338 08       		.uleb128 0x8
 665 0339 D5010000 		.4byte	.LASF63
 666 033d 09       		.byte	0x9
 667 033e 7001     		.2byte	0x170
 668 0340 26010000 		.4byte	0x126
 669 0344 08       		.byte	0x8
 670 0345 08       		.uleb128 0x8
 671 0346 27070000 		.4byte	.LASF64
 672 034a 09       		.byte	0x9
 673 034b 7101     		.2byte	0x171
 674 034d E8020000 		.4byte	0x2e8
 675 0351 0C       		.byte	0xc
 676 0352 08       		.uleb128 0x8
 677 0353 8E060000 		.4byte	.LASF65
 678 0357 09       		.byte	0x9
 679 0358 7301     		.2byte	0x173
 680 035a 04030000 		.4byte	0x304
 681 035e 10       		.byte	0x10
 682 035f 00       		.byte	0
 683 0360 04       		.uleb128 0x4
 684 0361 A8000000 		.4byte	.LASF66
ARM GAS  /tmp/cckYb9Bl.s 			page 13


 685 0365 08       		.byte	0x8
 686 0366 66       		.byte	0x66
 687 0367 6B030000 		.4byte	0x36b
 688 036b 0A       		.uleb128 0xa
 689 036c 07030000 		.4byte	.LASF67
 690 0370 10       		.byte	0x10
 691 0371 09       		.byte	0x9
 692 0372 7D01     		.2byte	0x17d
 693 0374 AD030000 		.4byte	0x3ad
 694 0378 08       		.uleb128 0x8
 695 0379 C6010000 		.4byte	.LASF61
 696 037d 09       		.byte	0x9
 697 037e 7E01     		.2byte	0x17e
 698 0380 F4050000 		.4byte	0x5f4
 699 0384 00       		.byte	0
 700 0385 08       		.uleb128 0x8
 701 0386 7F010000 		.4byte	.LASF62
 702 038a 09       		.byte	0x9
 703 038b 8001     		.2byte	0x180
 704 038d F4050000 		.4byte	0x5f4
 705 0391 04       		.byte	0x4
 706 0392 08       		.uleb128 0x8
 707 0393 D5010000 		.4byte	.LASF63
 708 0397 09       		.byte	0x9
 709 0398 8201     		.2byte	0x182
 710 039a 26010000 		.4byte	0x126
 711 039e 08       		.byte	0x8
 712 039f 08       		.uleb128 0x8
 713 03a0 26030000 		.4byte	.LASF68
 714 03a4 09       		.byte	0x9
 715 03a5 8A01     		.2byte	0x18a
 716 03a7 26010000 		.4byte	0x126
 717 03ab 0C       		.byte	0xc
 718 03ac 00       		.byte	0
 719 03ad 04       		.uleb128 0x4
 720 03ae 51000000 		.4byte	.LASF69
 721 03b2 08       		.byte	0x8
 722 03b3 6B       		.byte	0x6b
 723 03b4 B8030000 		.4byte	0x3b8
 724 03b8 0A       		.uleb128 0xa
 725 03b9 C8030000 		.4byte	.LASF70
 726 03bd 04       		.byte	0x4
 727 03be 09       		.byte	0x9
 728 03bf A401     		.2byte	0x1a4
 729 03c1 D3030000 		.4byte	0x3d3
 730 03c5 08       		.uleb128 0x8
 731 03c6 5A060000 		.4byte	.LASF71
 732 03ca 09       		.byte	0x9
 733 03cb AC01     		.2byte	0x1ac
 734 03cd FA050000 		.4byte	0x5fa
 735 03d1 00       		.byte	0
 736 03d2 00       		.byte	0
 737 03d3 04       		.uleb128 0x4
 738 03d4 4C020000 		.4byte	.LASF72
 739 03d8 08       		.byte	0x8
 740 03d9 70       		.byte	0x70
 741 03da DE030000 		.4byte	0x3de
ARM GAS  /tmp/cckYb9Bl.s 			page 14


 742 03de 0E       		.uleb128 0xe
 743 03df 26010000 		.4byte	.LASF73
 744 03e3 5001     		.2byte	0x150
 745 03e5 09       		.byte	0x9
 746 03e6 C401     		.2byte	0x1c4
 747 03e8 3A040000 		.4byte	0x43a
 748 03ec 08       		.uleb128 0x8
 749 03ed BD060000 		.4byte	.LASF74
 750 03f1 09       		.byte	0x9
 751 03f2 C801     		.2byte	0x1c8
 752 03f4 81020000 		.4byte	0x281
 753 03f8 00       		.byte	0
 754 03f9 08       		.uleb128 0x8
 755 03fa 13010000 		.4byte	.LASF75
 756 03fe 09       		.byte	0x9
 757 03ff CC01     		.2byte	0x1cc
 758 0401 60030000 		.4byte	0x360
 759 0405 1C       		.byte	0x1c
 760 0406 07       		.uleb128 0x7
 761 0407 64626700 		.ascii	"dbg\000"
 762 040b 09       		.byte	0x9
 763 040c D001     		.2byte	0x1d0
 764 040e AD030000 		.4byte	0x3ad
 765 0412 2C       		.byte	0x2c
 766 0413 08       		.uleb128 0x8
 767 0414 26020000 		.4byte	.LASF76
 768 0418 09       		.byte	0x9
 769 0419 D401     		.2byte	0x1d4
 770 041b 31010000 		.4byte	0x131
 771 041f 30       		.byte	0x30
 772 0420 07       		.uleb128 0x7
 773 0421 746D00   		.ascii	"tm\000"
 774 0424 09       		.byte	0x9
 775 0425 D901     		.2byte	0x1d9
 776 0427 06050000 		.4byte	0x506
 777 042b 70       		.byte	0x70
 778 042c 08       		.uleb128 0x8
 779 042d A4010000 		.4byte	.LASF77
 780 0431 09       		.byte	0x9
 781 0432 E501     		.2byte	0x1e5
 782 0434 FF050000 		.4byte	0x5ff
 783 0438 78       		.byte	0x78
 784 0439 00       		.byte	0
 785 043a 03       		.uleb128 0x3
 786 043b 04       		.byte	0x4
 787 043c 07       		.byte	0x7
 788 043d EB020000 		.4byte	.LASF78
 789 0441 04       		.uleb128 0x4
 790 0442 76010000 		.4byte	.LASF79
 791 0446 0A       		.byte	0xa
 792 0447 65       		.byte	0x65
 793 0448 04030000 		.4byte	0x304
 794 044c 04       		.uleb128 0x4
 795 044d 9F020000 		.4byte	.LASF80
 796 0451 0A       		.byte	0xa
 797 0452 6D       		.byte	0x6d
 798 0453 B8000000 		.4byte	0xb8
ARM GAS  /tmp/cckYb9Bl.s 			page 15


 799 0457 05       		.uleb128 0x5
 800 0458 6B060000 		.4byte	.LASF81
 801 045c 04       		.byte	0x4
 802 045d 0A       		.byte	0xa
 803 045e 89       		.byte	0x89
 804 045f 70040000 		.4byte	0x470
 805 0463 0F       		.uleb128 0xf
 806 0464 72313300 		.ascii	"r13\000"
 807 0468 0A       		.byte	0xa
 808 0469 8A       		.byte	0x8a
 809 046a EB040000 		.4byte	0x4eb
 810 046e 00       		.byte	0
 811 046f 00       		.byte	0
 812 0470 05       		.uleb128 0x5
 813 0471 45000000 		.4byte	.LASF82
 814 0475 24       		.byte	0x24
 815 0476 0B       		.byte	0xb
 816 0477 FD       		.byte	0xfd
 817 0478 EB040000 		.4byte	0x4eb
 818 047c 07       		.uleb128 0x7
 819 047d 723400   		.ascii	"r4\000"
 820 0480 0B       		.byte	0xb
 821 0481 1001     		.2byte	0x110
 822 0483 41040000 		.4byte	0x441
 823 0487 00       		.byte	0
 824 0488 07       		.uleb128 0x7
 825 0489 723500   		.ascii	"r5\000"
 826 048c 0B       		.byte	0xb
 827 048d 1101     		.2byte	0x111
 828 048f 41040000 		.4byte	0x441
 829 0493 04       		.byte	0x4
 830 0494 07       		.uleb128 0x7
 831 0495 723600   		.ascii	"r6\000"
 832 0498 0B       		.byte	0xb
 833 0499 1201     		.2byte	0x112
 834 049b 41040000 		.4byte	0x441
 835 049f 08       		.byte	0x8
 836 04a0 07       		.uleb128 0x7
 837 04a1 723700   		.ascii	"r7\000"
 838 04a4 0B       		.byte	0xb
 839 04a5 1301     		.2byte	0x113
 840 04a7 41040000 		.4byte	0x441
 841 04ab 0C       		.byte	0xc
 842 04ac 07       		.uleb128 0x7
 843 04ad 723800   		.ascii	"r8\000"
 844 04b0 0B       		.byte	0xb
 845 04b1 1401     		.2byte	0x114
 846 04b3 41040000 		.4byte	0x441
 847 04b7 10       		.byte	0x10
 848 04b8 07       		.uleb128 0x7
 849 04b9 723900   		.ascii	"r9\000"
 850 04bc 0B       		.byte	0xb
 851 04bd 1501     		.2byte	0x115
 852 04bf 41040000 		.4byte	0x441
 853 04c3 14       		.byte	0x14
 854 04c4 07       		.uleb128 0x7
 855 04c5 72313000 		.ascii	"r10\000"
ARM GAS  /tmp/cckYb9Bl.s 			page 16


 856 04c9 0B       		.byte	0xb
 857 04ca 1601     		.2byte	0x116
 858 04cc 41040000 		.4byte	0x441
 859 04d0 18       		.byte	0x18
 860 04d1 07       		.uleb128 0x7
 861 04d2 72313100 		.ascii	"r11\000"
 862 04d6 0B       		.byte	0xb
 863 04d7 1701     		.2byte	0x117
 864 04d9 41040000 		.4byte	0x441
 865 04dd 1C       		.byte	0x1c
 866 04de 07       		.uleb128 0x7
 867 04df 6C7200   		.ascii	"lr\000"
 868 04e2 0B       		.byte	0xb
 869 04e3 1801     		.2byte	0x118
 870 04e5 41040000 		.4byte	0x441
 871 04e9 20       		.byte	0x20
 872 04ea 00       		.byte	0
 873 04eb 09       		.uleb128 0x9
 874 04ec 04       		.byte	0x4
 875 04ed 70040000 		.4byte	0x470
 876 04f1 10       		.uleb128 0x10
 877 04f2 04       		.byte	0x4
 878 04f3 0C       		.byte	0xc
 879 04f4 38       		.byte	0x38
 880 04f5 06050000 		.4byte	0x506
 881 04f9 06       		.uleb128 0x6
 882 04fa 64060000 		.4byte	.LASF83
 883 04fe 0C       		.byte	0xc
 884 04ff 3C       		.byte	0x3c
 885 0500 C3000000 		.4byte	0xc3
 886 0504 00       		.byte	0
 887 0505 00       		.byte	0
 888 0506 04       		.uleb128 0x4
 889 0507 51030000 		.4byte	.LASF84
 890 050b 0C       		.byte	0xc
 891 050c 3D       		.byte	0x3d
 892 050d F1040000 		.4byte	0x4f1
 893 0511 11       		.uleb128 0x11
 894 0512 04       		.byte	0x4
 895 0513 09       		.byte	0x9
 896 0514 FA       		.byte	0xfa
 897 0515 7A050000 		.4byte	0x57a
 898 0519 12       		.uleb128 0x12
 899 051a 1F000000 		.4byte	.LASF85
 900 051e 09       		.byte	0x9
 901 051f 0101     		.2byte	0x101
 902 0521 FA000000 		.4byte	0xfa
 903 0525 12       		.uleb128 0x12
 904 0526 8E000000 		.4byte	.LASF86
 905 052a 09       		.byte	0x9
 906 052b 0801     		.2byte	0x108
 907 052d FA000000 		.4byte	0xfa
 908 0531 12       		.uleb128 0x12
 909 0532 66020000 		.4byte	.LASF87
 910 0536 09       		.byte	0x9
 911 0537 0F01     		.2byte	0x10f
 912 0539 04030000 		.4byte	0x304
ARM GAS  /tmp/cckYb9Bl.s 			page 17


 913 053d 12       		.uleb128 0x12
 914 053e 19000000 		.4byte	.LASF88
 915 0542 09       		.byte	0x9
 916 0543 1601     		.2byte	0x116
 917 0545 7A050000 		.4byte	0x57a
 918 0549 12       		.uleb128 0x12
 919 054a A0000000 		.4byte	.LASF89
 920 054e 09       		.byte	0x9
 921 054f 1B01     		.2byte	0x11b
 922 0551 FA000000 		.4byte	0xfa
 923 0555 12       		.uleb128 0x12
 924 0556 CE010000 		.4byte	.LASF90
 925 055a 09       		.byte	0x9
 926 055b 2401     		.2byte	0x124
 927 055d A5050000 		.4byte	0x5a5
 928 0561 12       		.uleb128 0x12
 929 0562 B7040000 		.4byte	.LASF91
 930 0566 09       		.byte	0x9
 931 0567 2D01     		.2byte	0x12d
 932 0569 DC050000 		.4byte	0x5dc
 933 056d 12       		.uleb128 0x12
 934 056e 2C040000 		.4byte	.LASF92
 935 0572 09       		.byte	0x9
 936 0573 3501     		.2byte	0x135
 937 0575 05010000 		.4byte	0x105
 938 0579 00       		.byte	0
 939 057a 09       		.uleb128 0x9
 940 057b 04       		.byte	0x4
 941 057c 1C020000 		.4byte	0x21c
 942 0580 05       		.uleb128 0x5
 943 0581 96040000 		.4byte	.LASF93
 944 0585 0C       		.byte	0xc
 945 0586 0D       		.byte	0xd
 946 0587 34       		.byte	0x34
 947 0588 A5050000 		.4byte	0x5a5
 948 058c 06       		.uleb128 0x6
 949 058d 66010000 		.4byte	.LASF94
 950 0591 0D       		.byte	0xd
 951 0592 35       		.byte	0x35
 952 0593 51020000 		.4byte	0x251
 953 0597 00       		.byte	0
 954 0598 06       		.uleb128 0x6
 955 0599 E9010000 		.4byte	.LASF95
 956 059d 0D       		.byte	0xd
 957 059e 37       		.byte	0x37
 958 059f 1B010000 		.4byte	0x11b
 959 05a3 08       		.byte	0x8
 960 05a4 00       		.byte	0
 961 05a5 09       		.uleb128 0x9
 962 05a6 04       		.byte	0x4
 963 05a7 80050000 		.4byte	0x580
 964 05ab 05       		.uleb128 0x5
 965 05ac AC060000 		.4byte	.LASF96
 966 05b0 10       		.byte	0x10
 967 05b1 0E       		.byte	0xe
 968 05b2 39       		.byte	0x39
 969 05b3 DC050000 		.4byte	0x5dc
ARM GAS  /tmp/cckYb9Bl.s 			page 18


 970 05b7 06       		.uleb128 0x6
 971 05b8 0B010000 		.4byte	.LASF97
 972 05bc 0E       		.byte	0xe
 973 05bd 3A       		.byte	0x3a
 974 05be 51020000 		.4byte	0x251
 975 05c2 00       		.byte	0
 976 05c3 06       		.uleb128 0x6
 977 05c4 19070000 		.4byte	.LASF98
 978 05c8 0E       		.byte	0xe
 979 05c9 3C       		.byte	0x3c
 980 05ca 27020000 		.4byte	0x227
 981 05ce 08       		.byte	0x8
 982 05cf 06       		.uleb128 0x6
 983 05d0 1C060000 		.4byte	.LASF99
 984 05d4 0E       		.byte	0xe
 985 05d5 3E       		.byte	0x3e
 986 05d6 1A060000 		.4byte	0x61a
 987 05da 0C       		.byte	0xc
 988 05db 00       		.byte	0
 989 05dc 09       		.uleb128 0x9
 990 05dd 04       		.byte	0x4
 991 05de AB050000 		.4byte	0x5ab
 992 05e2 09       		.uleb128 0x9
 993 05e3 04       		.byte	0x4
 994 05e4 E8050000 		.4byte	0x5e8
 995 05e8 13       		.uleb128 0x13
 996 05e9 ED050000 		.4byte	0x5ed
 997 05ed 03       		.uleb128 0x3
 998 05ee 01       		.byte	0x1
 999 05ef 08       		.byte	0x8
 1000 05f0 19050000 		.4byte	.LASF100
 1001 05f4 09       		.uleb128 0x9
 1002 05f5 04       		.byte	0x4
 1003 05f6 06030000 		.4byte	0x306
 1004 05fa 14       		.uleb128 0x14
 1005 05fb E2050000 		.4byte	0x5e2
 1006 05ff 15       		.uleb128 0x15
 1007 0600 4C040000 		.4byte	0x44c
 1008 0604 0F060000 		.4byte	0x60f
 1009 0608 16       		.uleb128 0x16
 1010 0609 3A040000 		.4byte	0x43a
 1011 060d 1A       		.byte	0x1a
 1012 060e 00       		.byte	0
 1013 060f 04       		.uleb128 0x4
 1014 0610 87010000 		.4byte	.LASF101
 1015 0614 0E       		.byte	0xe
 1016 0615 34       		.byte	0x34
 1017 0616 AB050000 		.4byte	0x5ab
 1018 061a 09       		.uleb128 0x9
 1019 061b 04       		.byte	0x4
 1020 061c 0F060000 		.4byte	0x60f
 1021 0620 04       		.uleb128 0x4
 1022 0621 CA020000 		.4byte	.LASF102
 1023 0625 03       		.byte	0x3
 1024 0626 34       		.byte	0x34
 1025 0627 2B060000 		.4byte	0x62b
 1026 062b 05       		.uleb128 0x5
ARM GAS  /tmp/cckYb9Bl.s 			page 19


 1027 062c 2F070000 		.4byte	.LASF103
 1028 0630 14       		.byte	0x14
 1029 0631 03       		.byte	0x3
 1030 0632 39       		.byte	0x39
 1031 0633 74060000 		.4byte	0x674
 1032 0637 06       		.uleb128 0x6
 1033 0638 44020000 		.4byte	.LASF104
 1034 063c 03       		.byte	0x3
 1035 063d 3A       		.byte	0x3a
 1036 063e 74060000 		.4byte	0x674
 1037 0642 00       		.byte	0
 1038 0643 06       		.uleb128 0x6
 1039 0644 F4030000 		.4byte	.LASF105
 1040 0648 03       		.byte	0x3
 1041 0649 3D       		.byte	0x3d
 1042 064a 27020000 		.4byte	0x227
 1043 064e 04       		.byte	0x4
 1044 064f 06       		.uleb128 0x6
 1045 0650 79030000 		.4byte	.LASF106
 1046 0654 03       		.byte	0x3
 1047 0655 3F       		.byte	0x3f
 1048 0656 05010000 		.4byte	0x105
 1049 065a 08       		.byte	0x8
 1050 065b 06       		.uleb128 0x6
 1051 065c 00040000 		.4byte	.LASF107
 1052 0660 03       		.byte	0x3
 1053 0661 41       		.byte	0x41
 1054 0662 10010000 		.4byte	0x110
 1055 0666 0C       		.byte	0xc
 1056 0667 06       		.uleb128 0x6
 1057 0668 1C020000 		.4byte	.LASF108
 1058 066c 03       		.byte	0x3
 1059 066d 43       		.byte	0x43
 1060 066e 10010000 		.4byte	0x110
 1061 0672 10       		.byte	0x10
 1062 0673 00       		.byte	0
 1063 0674 09       		.uleb128 0x9
 1064 0675 04       		.byte	0x4
 1065 0676 20060000 		.4byte	0x620
 1066 067a 05       		.uleb128 0x5
 1067 067b C3060000 		.4byte	.LASF109
 1068 067f 04       		.byte	0x4
 1069 0680 03       		.byte	0x3
 1070 0681 4A       		.byte	0x4a
 1071 0682 93060000 		.4byte	0x693
 1072 0686 06       		.uleb128 0x6
 1073 0687 B5060000 		.4byte	.LASF110
 1074 068b 03       		.byte	0x3
 1075 068c 4B       		.byte	0x4b
 1076 068d 74060000 		.4byte	0x674
 1077 0691 00       		.byte	0
 1078 0692 00       		.byte	0
 1079 0693 04       		.uleb128 0x4
 1080 0694 95010000 		.4byte	.LASF111
 1081 0698 03       		.byte	0x3
 1082 0699 4E       		.byte	0x4e
 1083 069a 7A060000 		.4byte	0x67a
ARM GAS  /tmp/cckYb9Bl.s 			page 20


 1084 069e 10       		.uleb128 0x10
 1085 069f 1C       		.byte	0x1c
 1086 06a0 0F       		.byte	0xf
 1087 06a1 36       		.byte	0x36
 1088 06a2 CB060000 		.4byte	0x6cb
 1089 06a6 06       		.uleb128 0x6
 1090 06a7 F1040000 		.4byte	.LASF112
 1091 06ab 0F       		.byte	0xf
 1092 06ac 37       		.byte	0x37
 1093 06ad 06030000 		.4byte	0x306
 1094 06b1 00       		.byte	0
 1095 06b2 06       		.uleb128 0x6
 1096 06b3 E5020000 		.4byte	.LASF113
 1097 06b7 0F       		.byte	0xf
 1098 06b8 38       		.byte	0x38
 1099 06b9 93060000 		.4byte	0x693
 1100 06bd 14       		.byte	0x14
 1101 06be 06       		.uleb128 0x6
 1102 06bf 00000000 		.4byte	.LASF114
 1103 06c3 0F       		.byte	0xf
 1104 06c4 39       		.byte	0x39
 1105 06c5 26010000 		.4byte	0x126
 1106 06c9 18       		.byte	0x18
 1107 06ca 00       		.byte	0
 1108 06cb 04       		.uleb128 0x4
 1109 06cc 0B070000 		.4byte	.LASF115
 1110 06d0 0F       		.byte	0xf
 1111 06d1 3A       		.byte	0x3a
 1112 06d2 9E060000 		.4byte	0x69e
 1113 06d6 17       		.uleb128 0x17
 1114 06d7 4C060000 		.4byte	.LASF120
 1115 06db 02       		.byte	0x2
 1116 06dc 2202     		.2byte	0x222
 1117 06de 03       		.byte	0x3
 1118 06df F0060000 		.4byte	0x6f0
 1119 06e3 18       		.uleb128 0x18
 1120 06e4 8F010000 		.4byte	.LASF122
 1121 06e8 02       		.byte	0x2
 1122 06e9 2202     		.2byte	0x222
 1123 06eb AD000000 		.4byte	0xad
 1124 06ef 00       		.byte	0
 1125 06f0 19       		.uleb128 0x19
 1126 06f1 60000000 		.4byte	.LASF116
 1127 06f5 0B       		.byte	0xb
 1128 06f6 C801     		.2byte	0x1c8
 1129 06f8 03       		.byte	0x3
 1130 06f9 19       		.uleb128 0x19
 1131 06fa 1A010000 		.4byte	.LASF117
 1132 06fe 0B       		.byte	0xb
 1133 06ff E001     		.2byte	0x1e0
 1134 0701 03       		.byte	0x3
 1135 0702 19       		.uleb128 0x19
 1136 0703 7B060000 		.4byte	.LASF118
 1137 0707 0B       		.byte	0xb
 1138 0708 EF01     		.2byte	0x1ef
 1139 070a 03       		.byte	0x3
 1140 070b 19       		.uleb128 0x19
ARM GAS  /tmp/cckYb9Bl.s 			page 21


 1141 070c 24050000 		.4byte	.LASF119
 1142 0710 0B       		.byte	0xb
 1143 0711 FA01     		.2byte	0x1fa
 1144 0713 03       		.byte	0x3
 1145 0714 1A       		.uleb128 0x1a
 1146 0715 90020000 		.4byte	.LASF121
 1147 0719 04       		.byte	0x4
 1148 071a D2       		.byte	0xd2
 1149 071b 03       		.byte	0x3
 1150 071c 2C070000 		.4byte	0x72c
 1151 0720 1B       		.uleb128 0x1b
 1152 0721 76747000 		.ascii	"vtp\000"
 1153 0725 04       		.byte	0x4
 1154 0726 D2       		.byte	0xd2
 1155 0727 F4050000 		.4byte	0x5f4
 1156 072b 00       		.byte	0
 1157 072c 1C       		.uleb128 0x1c
 1158 072d 5D040000 		.4byte	.LASF144
 1159 0731 04       		.byte	0x4
 1160 0732 7501     		.2byte	0x175
 1161 0734 4A070000 		.4byte	0x74a
 1162 0738 03       		.byte	0x3
 1163 0739 4A070000 		.4byte	0x74a
 1164 073d 1D       		.uleb128 0x1d
 1165 073e 76747000 		.ascii	"vtp\000"
 1166 0742 04       		.byte	0x4
 1167 0743 7501     		.2byte	0x175
 1168 0745 F4050000 		.4byte	0x5f4
 1169 0749 00       		.byte	0
 1170 074a 03       		.uleb128 0x3
 1171 074b 01       		.byte	0x1
 1172 074c 02       		.byte	0x2
 1173 074d D8030000 		.4byte	.LASF123
 1174 0751 19       		.uleb128 0x19
 1175 0752 D8060000 		.4byte	.LASF124
 1176 0756 10       		.byte	0x10
 1177 0757 8201     		.2byte	0x182
 1178 0759 03       		.byte	0x3
 1179 075a 1A       		.uleb128 0x1a
 1180 075b 6A040000 		.4byte	.LASF125
 1181 075f 03       		.byte	0x3
 1182 0760 FE       		.byte	0xfe
 1183 0761 03       		.byte	0x3
 1184 0762 72070000 		.4byte	0x772
 1185 0766 1B       		.uleb128 0x1b
 1186 0767 65737000 		.ascii	"esp\000"
 1187 076b 03       		.byte	0x3
 1188 076c FE       		.byte	0xfe
 1189 076d 72070000 		.4byte	0x772
 1190 0771 00       		.byte	0
 1191 0772 09       		.uleb128 0x9
 1192 0773 04       		.byte	0x4
 1193 0774 93060000 		.4byte	0x693
 1194 0778 19       		.uleb128 0x19
 1195 0779 B5030000 		.4byte	.LASF126
 1196 077d 10       		.byte	0x10
 1197 077e 9601     		.2byte	0x196
ARM GAS  /tmp/cckYb9Bl.s 			page 22


 1198 0780 03       		.byte	0x3
 1199 0781 17       		.uleb128 0x17
 1200 0782 8B040000 		.4byte	.LASF127
 1201 0786 04       		.byte	0x4
 1202 0787 9A01     		.2byte	0x19a
 1203 0789 03       		.byte	0x3
 1204 078a 9B070000 		.4byte	0x79b
 1205 078e 1D       		.uleb128 0x1d
 1206 078f 76747000 		.ascii	"vtp\000"
 1207 0793 04       		.byte	0x4
 1208 0794 9A01     		.2byte	0x19a
 1209 0796 F4050000 		.4byte	0x5f4
 1210 079a 00       		.byte	0
 1211 079b 19       		.uleb128 0x19
 1212 079c 53040000 		.4byte	.LASF128
 1213 07a0 10       		.byte	0x10
 1214 07a1 5A01     		.2byte	0x15a
 1215 07a3 03       		.byte	0x3
 1216 07a4 17       		.uleb128 0x17
 1217 07a5 FF060000 		.4byte	.LASF129
 1218 07a9 10       		.byte	0x10
 1219 07aa 6601     		.2byte	0x166
 1220 07ac 03       		.byte	0x3
 1221 07ad BF070000 		.4byte	0x7bf
 1222 07b1 1E       		.uleb128 0x1e
 1223 07b2 4A040000 		.4byte	.LASF145
 1224 07b6 CF070000 		.4byte	0x7cf
 1225 07ba FF060000 		.4byte	.LASF129
 1226 07be 00       		.byte	0
 1227 07bf 15       		.uleb128 0x15
 1228 07c0 ED050000 		.4byte	0x5ed
 1229 07c4 CF070000 		.4byte	0x7cf
 1230 07c8 16       		.uleb128 0x16
 1231 07c9 3A040000 		.4byte	0x43a
 1232 07cd 0B       		.byte	0xb
 1233 07ce 00       		.byte	0
 1234 07cf 13       		.uleb128 0x13
 1235 07d0 BF070000 		.4byte	0x7bf
 1236 07d4 1A       		.uleb128 0x1a
 1237 07d5 EF010000 		.4byte	.LASF130
 1238 07d9 03       		.byte	0x3
 1239 07da AA       		.byte	0xaa
 1240 07db 03       		.byte	0x3
 1241 07dc EC070000 		.4byte	0x7ec
 1242 07e0 1B       		.uleb128 0x1b
 1243 07e1 65737000 		.ascii	"esp\000"
 1244 07e5 03       		.byte	0x3
 1245 07e6 AA       		.byte	0xaa
 1246 07e7 72070000 		.4byte	0x772
 1247 07eb 00       		.byte	0
 1248 07ec 17       		.uleb128 0x17
 1249 07ed 49030000 		.4byte	.LASF131
 1250 07f1 04       		.byte	0x4
 1251 07f2 E501     		.2byte	0x1e5
 1252 07f4 03       		.byte	0x3
 1253 07f5 2A080000 		.4byte	0x82a
 1254 07f9 1D       		.uleb128 0x1d
ARM GAS  /tmp/cckYb9Bl.s 			page 23


 1255 07fa 76747000 		.ascii	"vtp\000"
 1256 07fe 04       		.byte	0x4
 1257 07ff E501     		.2byte	0x1e5
 1258 0801 F4050000 		.4byte	0x5f4
 1259 0805 18       		.uleb128 0x18
 1260 0806 CB000000 		.4byte	.LASF132
 1261 080a 04       		.byte	0x4
 1262 080b E501     		.2byte	0x1e5
 1263 080d 26010000 		.4byte	0x126
 1264 0811 18       		.uleb128 0x18
 1265 0812 95060000 		.4byte	.LASF133
 1266 0816 04       		.byte	0x4
 1267 0817 E601     		.2byte	0x1e6
 1268 0819 E8020000 		.4byte	0x2e8
 1269 081d 1D       		.uleb128 0x1d
 1270 081e 70617200 		.ascii	"par\000"
 1271 0822 04       		.byte	0x4
 1272 0823 E601     		.2byte	0x1e6
 1273 0825 04030000 		.4byte	0x304
 1274 0829 00       		.byte	0
 1275 082a 17       		.uleb128 0x17
 1276 082b 32030000 		.4byte	.LASF134
 1277 082f 04       		.byte	0x4
 1278 0830 C801     		.2byte	0x1c8
 1279 0832 03       		.byte	0x3
 1280 0833 68080000 		.4byte	0x868
 1281 0837 1D       		.uleb128 0x1d
 1282 0838 76747000 		.ascii	"vtp\000"
 1283 083c 04       		.byte	0x4
 1284 083d C801     		.2byte	0x1c8
 1285 083f F4050000 		.4byte	0x5f4
 1286 0843 18       		.uleb128 0x18
 1287 0844 CB000000 		.4byte	.LASF132
 1288 0848 04       		.byte	0x4
 1289 0849 C801     		.2byte	0x1c8
 1290 084b 26010000 		.4byte	0x126
 1291 084f 18       		.uleb128 0x18
 1292 0850 95060000 		.4byte	.LASF133
 1293 0854 04       		.byte	0x4
 1294 0855 C901     		.2byte	0x1c9
 1295 0857 E8020000 		.4byte	0x2e8
 1296 085b 1D       		.uleb128 0x1d
 1297 085c 70617200 		.ascii	"par\000"
 1298 0860 04       		.byte	0x4
 1299 0861 C901     		.2byte	0x1c9
 1300 0863 04030000 		.4byte	0x304
 1301 0867 00       		.byte	0
 1302 0868 1F       		.uleb128 0x1f
 1303 0869 1E050000 		.4byte	.LASF146
 1304 086d 01       		.byte	0x1
 1305 086e 30       		.byte	0x30
 1306 086f 00000000 		.4byte	.LFB242
 1307 0873 2C000000 		.4byte	.LFE242-.LFB242
 1308 0877 01       		.uleb128 0x1
 1309 0878 9C       		.byte	0x9c
 1310 0879 85090000 		.4byte	0x985
 1311 087d 20       		.uleb128 0x20
ARM GAS  /tmp/cckYb9Bl.s 			page 24


 1312 087e 7000     		.ascii	"p\000"
 1313 0880 01       		.byte	0x1
 1314 0881 30       		.byte	0x30
 1315 0882 04030000 		.4byte	0x304
 1316 0886 00000000 		.4byte	.LLST0
 1317 088a 21       		.uleb128 0x21
 1318 088b 65747000 		.ascii	"etp\000"
 1319 088f 01       		.byte	0x1
 1320 0890 31       		.byte	0x31
 1321 0891 85090000 		.4byte	0x985
 1322 0895 2C000000 		.4byte	.LLST1
 1323 0899 22       		.uleb128 0x22
 1324 089a 51070000 		.4byte	0x751
 1325 089e 02000000 		.4byte	.LBB77
 1326 08a2 00000000 		.4byte	.Ldebug_ranges0+0
 1327 08a6 01       		.byte	0x1
 1328 08a7 33       		.byte	0x33
 1329 08a8 E6080000 		.4byte	0x8e6
 1330 08ac 23       		.uleb128 0x23
 1331 08ad 02070000 		.4byte	0x702
 1332 08b1 02000000 		.4byte	.LBB78
 1333 08b5 00000000 		.4byte	.Ldebug_ranges0+0
 1334 08b9 10       		.byte	0x10
 1335 08ba 8401     		.2byte	0x184
 1336 08bc 23       		.uleb128 0x23
 1337 08bd F0060000 		.4byte	0x6f0
 1338 08c1 02000000 		.4byte	.LBB79
 1339 08c5 00000000 		.4byte	.Ldebug_ranges0+0
 1340 08c9 0B       		.byte	0xb
 1341 08ca F101     		.2byte	0x1f1
 1342 08cc 23       		.uleb128 0x23
 1343 08cd D6060000 		.4byte	0x6d6
 1344 08d1 02000000 		.4byte	.LBB80
 1345 08d5 00000000 		.4byte	.Ldebug_ranges0+0
 1346 08d9 0B       		.byte	0xb
 1347 08da D001     		.2byte	0x1d0
 1348 08dc 24       		.uleb128 0x24
 1349 08dd E3060000 		.4byte	0x6e3
 1350 08e1 20       		.byte	0x20
 1351 08e2 00       		.byte	0
 1352 08e3 00       		.byte	0
 1353 08e4 00       		.byte	0
 1354 08e5 00       		.byte	0
 1355 08e6 25       		.uleb128 0x25
 1356 08e7 5A070000 		.4byte	0x75a
 1357 08eb 0A000000 		.4byte	.LBB87
 1358 08ef 08000000 		.4byte	.LBE87-.LBB87
 1359 08f3 01       		.byte	0x1
 1360 08f4 34       		.byte	0x34
 1361 08f5 18090000 		.4byte	0x918
 1362 08f9 26       		.uleb128 0x26
 1363 08fa 66070000 		.4byte	0x766
 1364 08fe 58000000 		.4byte	.LLST2
 1365 0902 27       		.uleb128 0x27
 1366 0903 12000000 		.4byte	.LVL4
 1367 0907 7B0B0000 		.4byte	0xb7b
 1368 090b 28       		.uleb128 0x28
ARM GAS  /tmp/cckYb9Bl.s 			page 25


 1369 090c 01       		.uleb128 0x1
 1370 090d 51       		.byte	0x51
 1371 090e 01       		.uleb128 0x1
 1372 090f 30       		.byte	0x30
 1373 0910 28       		.uleb128 0x28
 1374 0911 01       		.uleb128 0x1
 1375 0912 50       		.byte	0x50
 1376 0913 02       		.uleb128 0x2
 1377 0914 74       		.byte	0x74
 1378 0915 14       		.sleb128 20
 1379 0916 00       		.byte	0
 1380 0917 00       		.byte	0
 1381 0918 25       		.uleb128 0x25
 1382 0919 78070000 		.4byte	0x778
 1383 091d 1E000000 		.4byte	.LBB89
 1384 0921 0E000000 		.4byte	.LBE89-.LBB89
 1385 0925 01       		.byte	0x1
 1386 0926 36       		.byte	0x36
 1387 0927 65090000 		.4byte	0x965
 1388 092b 29       		.uleb128 0x29
 1389 092c 0B070000 		.4byte	0x70b
 1390 0930 1E000000 		.4byte	.LBB90
 1391 0934 0E000000 		.4byte	.LBE90-.LBB90
 1392 0938 10       		.byte	0x10
 1393 0939 9A01     		.2byte	0x19a
 1394 093b 29       		.uleb128 0x29
 1395 093c F9060000 		.4byte	0x6f9
 1396 0940 1E000000 		.4byte	.LBB91
 1397 0944 0E000000 		.4byte	.LBE91-.LBB91
 1398 0948 0B       		.byte	0xb
 1399 0949 FC01     		.2byte	0x1fc
 1400 094b 29       		.uleb128 0x29
 1401 094c D6060000 		.4byte	0x6d6
 1402 0950 1E000000 		.4byte	.LBB92
 1403 0954 0E000000 		.4byte	.LBE92-.LBB92
 1404 0958 0B       		.byte	0xb
 1405 0959 E301     		.2byte	0x1e3
 1406 095b 24       		.uleb128 0x24
 1407 095c E3060000 		.4byte	0x6e3
 1408 0960 00       		.byte	0
 1409 0961 00       		.byte	0
 1410 0962 00       		.byte	0
 1411 0963 00       		.byte	0
 1412 0964 00       		.byte	0
 1413 0965 27       		.uleb128 0x27
 1414 0966 1E000000 		.4byte	.LVL5
 1415 096a 910B0000 		.4byte	0xb91
 1416 096e 28       		.uleb128 0x28
 1417 096f 01       		.uleb128 0x1
 1418 0970 53       		.byte	0x53
 1419 0971 02       		.uleb128 0x2
 1420 0972 74       		.byte	0x74
 1421 0973 00       		.sleb128 0
 1422 0974 28       		.uleb128 0x28
 1423 0975 01       		.uleb128 0x1
 1424 0976 52       		.byte	0x52
 1425 0977 05       		.uleb128 0x5
ARM GAS  /tmp/cckYb9Bl.s 			page 26


 1426 0978 03       		.byte	0x3
 1427 0979 00000000 		.4byte	tmrcb
 1428 097d 28       		.uleb128 0x28
 1429 097e 01       		.uleb128 0x1
 1430 097f 50       		.byte	0x50
 1431 0980 02       		.uleb128 0x2
 1432 0981 74       		.byte	0x74
 1433 0982 00       		.sleb128 0
 1434 0983 00       		.byte	0
 1435 0984 00       		.byte	0
 1436 0985 09       		.uleb128 0x9
 1437 0986 04       		.byte	0x4
 1438 0987 CB060000 		.4byte	0x6cb
 1439 098b 2A       		.uleb128 0x2a
 1440 098c 58020000 		.4byte	.LASF136
 1441 0990 01       		.byte	0x1
 1442 0991 43       		.byte	0x43
 1443 0992 00000000 		.4byte	.LFB243
 1444 0996 0E000000 		.4byte	.LFE243-.LFB243
 1445 099a 01       		.uleb128 0x1
 1446 099b 9C       		.byte	0x9c
 1447 099c EF090000 		.4byte	0x9ef
 1448 09a0 2B       		.uleb128 0x2b
 1449 09a1 65747000 		.ascii	"etp\000"
 1450 09a5 01       		.byte	0x1
 1451 09a6 43       		.byte	0x43
 1452 09a7 85090000 		.4byte	0x985
 1453 09ab 01       		.uleb128 0x1
 1454 09ac 50       		.byte	0x50
 1455 09ad 2C       		.uleb128 0x2c
 1456 09ae 62030000 		.4byte	.LASF135
 1457 09b2 01       		.byte	0x1
 1458 09b3 43       		.byte	0x43
 1459 09b4 26010000 		.4byte	0x126
 1460 09b8 01       		.uleb128 0x1
 1461 09b9 51       		.byte	0x51
 1462 09ba 22       		.uleb128 0x22
 1463 09bb 14070000 		.4byte	0x714
 1464 09bf 04000000 		.4byte	.LBB94
 1465 09c3 18000000 		.4byte	.Ldebug_ranges0+0x18
 1466 09c7 01       		.byte	0x1
 1467 09c8 46       		.byte	0x46
 1468 09c9 D5090000 		.4byte	0x9d5
 1469 09cd 2D       		.uleb128 0x2d
 1470 09ce 20070000 		.4byte	0x720
 1471 09d2 01       		.uleb128 0x1
 1472 09d3 50       		.byte	0x50
 1473 09d4 00       		.byte	0
 1474 09d5 2E       		.uleb128 0x2e
 1475 09d6 D4070000 		.4byte	0x7d4
 1476 09da 08000000 		.4byte	.LBB97
 1477 09de 02000000 		.4byte	.LBE97-.LBB97
 1478 09e2 01       		.byte	0x1
 1479 09e3 45       		.byte	0x45
 1480 09e4 26       		.uleb128 0x26
 1481 09e5 E0070000 		.4byte	0x7e0
 1482 09e9 95000000 		.4byte	.LLST3
ARM GAS  /tmp/cckYb9Bl.s 			page 27


 1483 09ed 00       		.byte	0
 1484 09ee 00       		.byte	0
 1485 09ef 2A       		.uleb128 0x2a
 1486 09f0 97000000 		.4byte	.LASF137
 1487 09f4 01       		.byte	0x1
 1488 09f5 50       		.byte	0x50
 1489 09f6 00000000 		.4byte	.LFB244
 1490 09fa 2C000000 		.4byte	.LFE244-.LFB244
 1491 09fe 01       		.uleb128 0x1
 1492 09ff 9C       		.byte	0x9c
 1493 0a00 5F0B0000 		.4byte	0xb5f
 1494 0a04 20       		.uleb128 0x20
 1495 0a05 65747000 		.ascii	"etp\000"
 1496 0a09 01       		.byte	0x1
 1497 0a0a 50       		.byte	0x50
 1498 0a0b 85090000 		.4byte	0x985
 1499 0a0f B5000000 		.4byte	.LLST4
 1500 0a13 2F       		.uleb128 0x2f
 1501 0a14 EC070000 		.4byte	0x7ec
 1502 0a18 04000000 		.4byte	.LBB115
 1503 0a1c 30000000 		.4byte	.Ldebug_ranges0+0x30
 1504 0a20 01       		.byte	0x1
 1505 0a21 52       		.byte	0x52
 1506 0a22 26       		.uleb128 0x26
 1507 0a23 1D080000 		.4byte	0x81d
 1508 0a27 E1000000 		.4byte	.LLST5
 1509 0a2b 2D       		.uleb128 0x2d
 1510 0a2c 11080000 		.4byte	0x811
 1511 0a30 06       		.uleb128 0x6
 1512 0a31 03       		.byte	0x3
 1513 0a32 00000000 		.4byte	tmrcb
 1514 0a36 9F       		.byte	0x9f
 1515 0a37 26       		.uleb128 0x26
 1516 0a38 05080000 		.4byte	0x805
 1517 0a3c 0D010000 		.4byte	.LLST6
 1518 0a40 26       		.uleb128 0x26
 1519 0a41 F9070000 		.4byte	0x7f9
 1520 0a45 E1000000 		.4byte	.LLST5
 1521 0a49 30       		.uleb128 0x30
 1522 0a4a 9B070000 		.4byte	0x79b
 1523 0a4e 04000000 		.4byte	.LBB116
 1524 0a52 48000000 		.4byte	.Ldebug_ranges0+0x48
 1525 0a56 04       		.byte	0x4
 1526 0a57 E801     		.2byte	0x1e8
 1527 0a59 860A0000 		.4byte	0xa86
 1528 0a5d 23       		.uleb128 0x23
 1529 0a5e F0060000 		.4byte	0x6f0
 1530 0a62 04000000 		.4byte	.LBB117
 1531 0a66 48000000 		.4byte	.Ldebug_ranges0+0x48
 1532 0a6a 10       		.byte	0x10
 1533 0a6b 5C01     		.2byte	0x15c
 1534 0a6d 23       		.uleb128 0x23
 1535 0a6e D6060000 		.4byte	0x6d6
 1536 0a72 04000000 		.4byte	.LBB118
 1537 0a76 48000000 		.4byte	.Ldebug_ranges0+0x48
 1538 0a7a 0B       		.byte	0xb
 1539 0a7b D001     		.2byte	0x1d0
ARM GAS  /tmp/cckYb9Bl.s 			page 28


 1540 0a7d 24       		.uleb128 0x24
 1541 0a7e E3060000 		.4byte	0x6e3
 1542 0a82 20       		.byte	0x20
 1543 0a83 00       		.byte	0
 1544 0a84 00       		.byte	0
 1545 0a85 00       		.byte	0
 1546 0a86 31       		.uleb128 0x31
 1547 0a87 2A080000 		.4byte	0x82a
 1548 0a8b 0C000000 		.4byte	.LBB124
 1549 0a8f 14000000 		.4byte	.LBE124-.LBB124
 1550 0a93 04       		.byte	0x4
 1551 0a94 E901     		.2byte	0x1e9
 1552 0a96 150B0000 		.4byte	0xb15
 1553 0a9a 2D       		.uleb128 0x2d
 1554 0a9b 4F080000 		.4byte	0x84f
 1555 0a9f 06       		.uleb128 0x6
 1556 0aa0 03       		.byte	0x3
 1557 0aa1 00000000 		.4byte	tmrcb
 1558 0aa5 9F       		.byte	0x9f
 1559 0aa6 26       		.uleb128 0x26
 1560 0aa7 5B080000 		.4byte	0x85b
 1561 0aab 20010000 		.4byte	.LLST8
 1562 0aaf 26       		.uleb128 0x26
 1563 0ab0 43080000 		.4byte	0x843
 1564 0ab4 4C010000 		.4byte	.LLST9
 1565 0ab8 26       		.uleb128 0x26
 1566 0ab9 37080000 		.4byte	0x837
 1567 0abd 20010000 		.4byte	.LLST8
 1568 0ac1 31       		.uleb128 0x31
 1569 0ac2 81070000 		.4byte	0x781
 1570 0ac6 0C000000 		.4byte	.LBB126
 1571 0aca 08000000 		.4byte	.LBE126-.LBB126
 1572 0ace 04       		.byte	0x4
 1573 0acf CB01     		.2byte	0x1cb
 1574 0ad1 EF0A0000 		.4byte	0xaef
 1575 0ad5 26       		.uleb128 0x26
 1576 0ad6 8E070000 		.4byte	0x78e
 1577 0ada 20010000 		.4byte	.LLST8
 1578 0ade 27       		.uleb128 0x27
 1579 0adf 14000000 		.4byte	.LVL13
 1580 0ae3 B10B0000 		.4byte	0xbb1
 1581 0ae7 28       		.uleb128 0x28
 1582 0ae8 01       		.uleb128 0x1
 1583 0ae9 50       		.byte	0x50
 1584 0aea 02       		.uleb128 0x2
 1585 0aeb 74       		.byte	0x74
 1586 0aec 00       		.sleb128 0
 1587 0aed 00       		.byte	0
 1588 0aee 00       		.byte	0
 1589 0aef 27       		.uleb128 0x27
 1590 0af0 20000000 		.4byte	.LVL14
 1591 0af4 910B0000 		.4byte	0xb91
 1592 0af8 28       		.uleb128 0x28
 1593 0af9 01       		.uleb128 0x1
 1594 0afa 53       		.byte	0x53
 1595 0afb 02       		.uleb128 0x2
 1596 0afc 74       		.byte	0x74
ARM GAS  /tmp/cckYb9Bl.s 			page 29


 1597 0afd 00       		.sleb128 0
 1598 0afe 28       		.uleb128 0x28
 1599 0aff 01       		.uleb128 0x1
 1600 0b00 52       		.byte	0x52
 1601 0b01 05       		.uleb128 0x5
 1602 0b02 03       		.byte	0x3
 1603 0b03 00000000 		.4byte	tmrcb
 1604 0b07 28       		.uleb128 0x28
 1605 0b08 01       		.uleb128 0x1
 1606 0b09 51       		.byte	0x51
 1607 0b0a 02       		.uleb128 0x2
 1608 0b0b 75       		.byte	0x75
 1609 0b0c 00       		.sleb128 0
 1610 0b0d 28       		.uleb128 0x28
 1611 0b0e 01       		.uleb128 0x1
 1612 0b0f 50       		.byte	0x50
 1613 0b10 02       		.uleb128 0x2
 1614 0b11 74       		.byte	0x74
 1615 0b12 00       		.sleb128 0
 1616 0b13 00       		.byte	0
 1617 0b14 00       		.byte	0
 1618 0b15 29       		.uleb128 0x29
 1619 0b16 A4070000 		.4byte	0x7a4
 1620 0b1a 20000000 		.4byte	.LBB128
 1621 0b1e 0C000000 		.4byte	.LBE128-.LBB128
 1622 0b22 04       		.byte	0x4
 1623 0b23 EA01     		.2byte	0x1ea
 1624 0b25 32       		.uleb128 0x32
 1625 0b26 20000000 		.4byte	.LBB129
 1626 0b2a 0C000000 		.4byte	.LBE129-.LBB129
 1627 0b2e 33       		.uleb128 0x33
 1628 0b2f B1070000 		.4byte	0x7b1
 1629 0b33 29       		.uleb128 0x29
 1630 0b34 F9060000 		.4byte	0x6f9
 1631 0b38 20000000 		.4byte	.LBB130
 1632 0b3c 0C000000 		.4byte	.LBE130-.LBB130
 1633 0b40 10       		.byte	0x10
 1634 0b41 7301     		.2byte	0x173
 1635 0b43 29       		.uleb128 0x29
 1636 0b44 D6060000 		.4byte	0x6d6
 1637 0b48 20000000 		.4byte	.LBB131
 1638 0b4c 0C000000 		.4byte	.LBE131-.LBB131
 1639 0b50 0B       		.byte	0xb
 1640 0b51 E301     		.2byte	0x1e3
 1641 0b53 24       		.uleb128 0x24
 1642 0b54 E3060000 		.4byte	0x6e3
 1643 0b58 00       		.byte	0
 1644 0b59 00       		.byte	0
 1645 0b5a 00       		.byte	0
 1646 0b5b 00       		.byte	0
 1647 0b5c 00       		.byte	0
 1648 0b5d 00       		.byte	0
 1649 0b5e 00       		.byte	0
 1650 0b5f 34       		.uleb128 0x34
 1651 0b60 BE000000 		.4byte	.LASF138
 1652 0b64 11       		.byte	0x11
 1653 0b65 FA06     		.2byte	0x6fa
ARM GAS  /tmp/cckYb9Bl.s 			page 30


 1654 0b67 6B0B0000 		.4byte	0xb6b
 1655 0b6b 14       		.uleb128 0x14
 1656 0b6c A2000000 		.4byte	0xa2
 1657 0b70 35       		.uleb128 0x35
 1658 0b71 636800   		.ascii	"ch\000"
 1659 0b74 09       		.byte	0x9
 1660 0b75 0B02     		.2byte	0x20b
 1661 0b77 D3030000 		.4byte	0x3d3
 1662 0b7b 36       		.uleb128 0x36
 1663 0b7c 49010000 		.4byte	.LASF139
 1664 0b80 03       		.byte	0x3
 1665 0b81 87       		.byte	0x87
 1666 0b82 910B0000 		.4byte	0xb91
 1667 0b86 0C       		.uleb128 0xc
 1668 0b87 72070000 		.4byte	0x772
 1669 0b8b 0C       		.uleb128 0xc
 1670 0b8c 10010000 		.4byte	0x110
 1671 0b90 00       		.byte	0
 1672 0b91 36       		.uleb128 0x36
 1673 0b92 7B020000 		.4byte	.LASF140
 1674 0b96 04       		.byte	0x4
 1675 0b97 BC       		.byte	0xbc
 1676 0b98 B10B0000 		.4byte	0xbb1
 1677 0b9c 0C       		.uleb128 0xc
 1678 0b9d F4050000 		.4byte	0x5f4
 1679 0ba1 0C       		.uleb128 0xc
 1680 0ba2 26010000 		.4byte	0x126
 1681 0ba6 0C       		.uleb128 0xc
 1682 0ba7 E8020000 		.4byte	0x2e8
 1683 0bab 0C       		.uleb128 0xc
 1684 0bac 04030000 		.4byte	0x304
 1685 0bb0 00       		.byte	0
 1686 0bb1 37       		.uleb128 0x37
 1687 0bb2 81000000 		.4byte	.LASF147
 1688 0bb6 04       		.byte	0x4
 1689 0bb7 BE       		.byte	0xbe
 1690 0bb8 0C       		.uleb128 0xc
 1691 0bb9 F4050000 		.4byte	0x5f4
 1692 0bbd 00       		.byte	0
 1693 0bbe 00       		.byte	0
 1694              		.section	.debug_abbrev,"",%progbits
 1695              	.Ldebug_abbrev0:
 1696 0000 01       		.uleb128 0x1
 1697 0001 11       		.uleb128 0x11
 1698 0002 01       		.byte	0x1
 1699 0003 25       		.uleb128 0x25
 1700 0004 0E       		.uleb128 0xe
 1701 0005 13       		.uleb128 0x13
 1702 0006 0B       		.uleb128 0xb
 1703 0007 03       		.uleb128 0x3
 1704 0008 0E       		.uleb128 0xe
 1705 0009 1B       		.uleb128 0x1b
 1706 000a 0E       		.uleb128 0xe
 1707 000b 55       		.uleb128 0x55
 1708 000c 17       		.uleb128 0x17
 1709 000d 11       		.uleb128 0x11
 1710 000e 01       		.uleb128 0x1
ARM GAS  /tmp/cckYb9Bl.s 			page 31


 1711 000f 10       		.uleb128 0x10
 1712 0010 17       		.uleb128 0x17
 1713 0011 00       		.byte	0
 1714 0012 00       		.byte	0
 1715 0013 02       		.uleb128 0x2
 1716 0014 24       		.uleb128 0x24
 1717 0015 00       		.byte	0
 1718 0016 0B       		.uleb128 0xb
 1719 0017 0B       		.uleb128 0xb
 1720 0018 3E       		.uleb128 0x3e
 1721 0019 0B       		.uleb128 0xb
 1722 001a 03       		.uleb128 0x3
 1723 001b 08       		.uleb128 0x8
 1724 001c 00       		.byte	0
 1725 001d 00       		.byte	0
 1726 001e 03       		.uleb128 0x3
 1727 001f 24       		.uleb128 0x24
 1728 0020 00       		.byte	0
 1729 0021 0B       		.uleb128 0xb
 1730 0022 0B       		.uleb128 0xb
 1731 0023 3E       		.uleb128 0x3e
 1732 0024 0B       		.uleb128 0xb
 1733 0025 03       		.uleb128 0x3
 1734 0026 0E       		.uleb128 0xe
 1735 0027 00       		.byte	0
 1736 0028 00       		.byte	0
 1737 0029 04       		.uleb128 0x4
 1738 002a 16       		.uleb128 0x16
 1739 002b 00       		.byte	0
 1740 002c 03       		.uleb128 0x3
 1741 002d 0E       		.uleb128 0xe
 1742 002e 3A       		.uleb128 0x3a
 1743 002f 0B       		.uleb128 0xb
 1744 0030 3B       		.uleb128 0x3b
 1745 0031 0B       		.uleb128 0xb
 1746 0032 49       		.uleb128 0x49
 1747 0033 13       		.uleb128 0x13
 1748 0034 00       		.byte	0
 1749 0035 00       		.byte	0
 1750 0036 05       		.uleb128 0x5
 1751 0037 13       		.uleb128 0x13
 1752 0038 01       		.byte	0x1
 1753 0039 03       		.uleb128 0x3
 1754 003a 0E       		.uleb128 0xe
 1755 003b 0B       		.uleb128 0xb
 1756 003c 0B       		.uleb128 0xb
 1757 003d 3A       		.uleb128 0x3a
 1758 003e 0B       		.uleb128 0xb
 1759 003f 3B       		.uleb128 0x3b
 1760 0040 0B       		.uleb128 0xb
 1761 0041 01       		.uleb128 0x1
 1762 0042 13       		.uleb128 0x13
 1763 0043 00       		.byte	0
 1764 0044 00       		.byte	0
 1765 0045 06       		.uleb128 0x6
 1766 0046 0D       		.uleb128 0xd
 1767 0047 00       		.byte	0
ARM GAS  /tmp/cckYb9Bl.s 			page 32


 1768 0048 03       		.uleb128 0x3
 1769 0049 0E       		.uleb128 0xe
 1770 004a 3A       		.uleb128 0x3a
 1771 004b 0B       		.uleb128 0xb
 1772 004c 3B       		.uleb128 0x3b
 1773 004d 0B       		.uleb128 0xb
 1774 004e 49       		.uleb128 0x49
 1775 004f 13       		.uleb128 0x13
 1776 0050 38       		.uleb128 0x38
 1777 0051 0B       		.uleb128 0xb
 1778 0052 00       		.byte	0
 1779 0053 00       		.byte	0
 1780 0054 07       		.uleb128 0x7
 1781 0055 0D       		.uleb128 0xd
 1782 0056 00       		.byte	0
 1783 0057 03       		.uleb128 0x3
 1784 0058 08       		.uleb128 0x8
 1785 0059 3A       		.uleb128 0x3a
 1786 005a 0B       		.uleb128 0xb
 1787 005b 3B       		.uleb128 0x3b
 1788 005c 05       		.uleb128 0x5
 1789 005d 49       		.uleb128 0x49
 1790 005e 13       		.uleb128 0x13
 1791 005f 38       		.uleb128 0x38
 1792 0060 0B       		.uleb128 0xb
 1793 0061 00       		.byte	0
 1794 0062 00       		.byte	0
 1795 0063 08       		.uleb128 0x8
 1796 0064 0D       		.uleb128 0xd
 1797 0065 00       		.byte	0
 1798 0066 03       		.uleb128 0x3
 1799 0067 0E       		.uleb128 0xe
 1800 0068 3A       		.uleb128 0x3a
 1801 0069 0B       		.uleb128 0xb
 1802 006a 3B       		.uleb128 0x3b
 1803 006b 05       		.uleb128 0x5
 1804 006c 49       		.uleb128 0x49
 1805 006d 13       		.uleb128 0x13
 1806 006e 38       		.uleb128 0x38
 1807 006f 0B       		.uleb128 0xb
 1808 0070 00       		.byte	0
 1809 0071 00       		.byte	0
 1810 0072 09       		.uleb128 0x9
 1811 0073 0F       		.uleb128 0xf
 1812 0074 00       		.byte	0
 1813 0075 0B       		.uleb128 0xb
 1814 0076 0B       		.uleb128 0xb
 1815 0077 49       		.uleb128 0x49
 1816 0078 13       		.uleb128 0x13
 1817 0079 00       		.byte	0
 1818 007a 00       		.byte	0
 1819 007b 0A       		.uleb128 0xa
 1820 007c 13       		.uleb128 0x13
 1821 007d 01       		.byte	0x1
 1822 007e 03       		.uleb128 0x3
 1823 007f 0E       		.uleb128 0xe
 1824 0080 0B       		.uleb128 0xb
ARM GAS  /tmp/cckYb9Bl.s 			page 33


 1825 0081 0B       		.uleb128 0xb
 1826 0082 3A       		.uleb128 0x3a
 1827 0083 0B       		.uleb128 0xb
 1828 0084 3B       		.uleb128 0x3b
 1829 0085 05       		.uleb128 0x5
 1830 0086 01       		.uleb128 0x1
 1831 0087 13       		.uleb128 0x13
 1832 0088 00       		.byte	0
 1833 0089 00       		.byte	0
 1834 008a 0B       		.uleb128 0xb
 1835 008b 15       		.uleb128 0x15
 1836 008c 01       		.byte	0x1
 1837 008d 27       		.uleb128 0x27
 1838 008e 19       		.uleb128 0x19
 1839 008f 01       		.uleb128 0x1
 1840 0090 13       		.uleb128 0x13
 1841 0091 00       		.byte	0
 1842 0092 00       		.byte	0
 1843 0093 0C       		.uleb128 0xc
 1844 0094 05       		.uleb128 0x5
 1845 0095 00       		.byte	0
 1846 0096 49       		.uleb128 0x49
 1847 0097 13       		.uleb128 0x13
 1848 0098 00       		.byte	0
 1849 0099 00       		.byte	0
 1850 009a 0D       		.uleb128 0xd
 1851 009b 0F       		.uleb128 0xf
 1852 009c 00       		.byte	0
 1853 009d 0B       		.uleb128 0xb
 1854 009e 0B       		.uleb128 0xb
 1855 009f 00       		.byte	0
 1856 00a0 00       		.byte	0
 1857 00a1 0E       		.uleb128 0xe
 1858 00a2 13       		.uleb128 0x13
 1859 00a3 01       		.byte	0x1
 1860 00a4 03       		.uleb128 0x3
 1861 00a5 0E       		.uleb128 0xe
 1862 00a6 0B       		.uleb128 0xb
 1863 00a7 05       		.uleb128 0x5
 1864 00a8 3A       		.uleb128 0x3a
 1865 00a9 0B       		.uleb128 0xb
 1866 00aa 3B       		.uleb128 0x3b
 1867 00ab 05       		.uleb128 0x5
 1868 00ac 01       		.uleb128 0x1
 1869 00ad 13       		.uleb128 0x13
 1870 00ae 00       		.byte	0
 1871 00af 00       		.byte	0
 1872 00b0 0F       		.uleb128 0xf
 1873 00b1 0D       		.uleb128 0xd
 1874 00b2 00       		.byte	0
 1875 00b3 03       		.uleb128 0x3
 1876 00b4 08       		.uleb128 0x8
 1877 00b5 3A       		.uleb128 0x3a
 1878 00b6 0B       		.uleb128 0xb
 1879 00b7 3B       		.uleb128 0x3b
 1880 00b8 0B       		.uleb128 0xb
 1881 00b9 49       		.uleb128 0x49
ARM GAS  /tmp/cckYb9Bl.s 			page 34


 1882 00ba 13       		.uleb128 0x13
 1883 00bb 38       		.uleb128 0x38
 1884 00bc 0B       		.uleb128 0xb
 1885 00bd 00       		.byte	0
 1886 00be 00       		.byte	0
 1887 00bf 10       		.uleb128 0x10
 1888 00c0 13       		.uleb128 0x13
 1889 00c1 01       		.byte	0x1
 1890 00c2 0B       		.uleb128 0xb
 1891 00c3 0B       		.uleb128 0xb
 1892 00c4 3A       		.uleb128 0x3a
 1893 00c5 0B       		.uleb128 0xb
 1894 00c6 3B       		.uleb128 0x3b
 1895 00c7 0B       		.uleb128 0xb
 1896 00c8 01       		.uleb128 0x1
 1897 00c9 13       		.uleb128 0x13
 1898 00ca 00       		.byte	0
 1899 00cb 00       		.byte	0
 1900 00cc 11       		.uleb128 0x11
 1901 00cd 17       		.uleb128 0x17
 1902 00ce 01       		.byte	0x1
 1903 00cf 0B       		.uleb128 0xb
 1904 00d0 0B       		.uleb128 0xb
 1905 00d1 3A       		.uleb128 0x3a
 1906 00d2 0B       		.uleb128 0xb
 1907 00d3 3B       		.uleb128 0x3b
 1908 00d4 0B       		.uleb128 0xb
 1909 00d5 01       		.uleb128 0x1
 1910 00d6 13       		.uleb128 0x13
 1911 00d7 00       		.byte	0
 1912 00d8 00       		.byte	0
 1913 00d9 12       		.uleb128 0x12
 1914 00da 0D       		.uleb128 0xd
 1915 00db 00       		.byte	0
 1916 00dc 03       		.uleb128 0x3
 1917 00dd 0E       		.uleb128 0xe
 1918 00de 3A       		.uleb128 0x3a
 1919 00df 0B       		.uleb128 0xb
 1920 00e0 3B       		.uleb128 0x3b
 1921 00e1 05       		.uleb128 0x5
 1922 00e2 49       		.uleb128 0x49
 1923 00e3 13       		.uleb128 0x13
 1924 00e4 00       		.byte	0
 1925 00e5 00       		.byte	0
 1926 00e6 13       		.uleb128 0x13
 1927 00e7 26       		.uleb128 0x26
 1928 00e8 00       		.byte	0
 1929 00e9 49       		.uleb128 0x49
 1930 00ea 13       		.uleb128 0x13
 1931 00eb 00       		.byte	0
 1932 00ec 00       		.byte	0
 1933 00ed 14       		.uleb128 0x14
 1934 00ee 35       		.uleb128 0x35
 1935 00ef 00       		.byte	0
 1936 00f0 49       		.uleb128 0x49
 1937 00f1 13       		.uleb128 0x13
 1938 00f2 00       		.byte	0
ARM GAS  /tmp/cckYb9Bl.s 			page 35


 1939 00f3 00       		.byte	0
 1940 00f4 15       		.uleb128 0x15
 1941 00f5 01       		.uleb128 0x1
 1942 00f6 01       		.byte	0x1
 1943 00f7 49       		.uleb128 0x49
 1944 00f8 13       		.uleb128 0x13
 1945 00f9 01       		.uleb128 0x1
 1946 00fa 13       		.uleb128 0x13
 1947 00fb 00       		.byte	0
 1948 00fc 00       		.byte	0
 1949 00fd 16       		.uleb128 0x16
 1950 00fe 21       		.uleb128 0x21
 1951 00ff 00       		.byte	0
 1952 0100 49       		.uleb128 0x49
 1953 0101 13       		.uleb128 0x13
 1954 0102 2F       		.uleb128 0x2f
 1955 0103 0B       		.uleb128 0xb
 1956 0104 00       		.byte	0
 1957 0105 00       		.byte	0
 1958 0106 17       		.uleb128 0x17
 1959 0107 2E       		.uleb128 0x2e
 1960 0108 01       		.byte	0x1
 1961 0109 03       		.uleb128 0x3
 1962 010a 0E       		.uleb128 0xe
 1963 010b 3A       		.uleb128 0x3a
 1964 010c 0B       		.uleb128 0xb
 1965 010d 3B       		.uleb128 0x3b
 1966 010e 05       		.uleb128 0x5
 1967 010f 27       		.uleb128 0x27
 1968 0110 19       		.uleb128 0x19
 1969 0111 20       		.uleb128 0x20
 1970 0112 0B       		.uleb128 0xb
 1971 0113 01       		.uleb128 0x1
 1972 0114 13       		.uleb128 0x13
 1973 0115 00       		.byte	0
 1974 0116 00       		.byte	0
 1975 0117 18       		.uleb128 0x18
 1976 0118 05       		.uleb128 0x5
 1977 0119 00       		.byte	0
 1978 011a 03       		.uleb128 0x3
 1979 011b 0E       		.uleb128 0xe
 1980 011c 3A       		.uleb128 0x3a
 1981 011d 0B       		.uleb128 0xb
 1982 011e 3B       		.uleb128 0x3b
 1983 011f 05       		.uleb128 0x5
 1984 0120 49       		.uleb128 0x49
 1985 0121 13       		.uleb128 0x13
 1986 0122 00       		.byte	0
 1987 0123 00       		.byte	0
 1988 0124 19       		.uleb128 0x19
 1989 0125 2E       		.uleb128 0x2e
 1990 0126 00       		.byte	0
 1991 0127 03       		.uleb128 0x3
 1992 0128 0E       		.uleb128 0xe
 1993 0129 3A       		.uleb128 0x3a
 1994 012a 0B       		.uleb128 0xb
 1995 012b 3B       		.uleb128 0x3b
ARM GAS  /tmp/cckYb9Bl.s 			page 36


 1996 012c 05       		.uleb128 0x5
 1997 012d 27       		.uleb128 0x27
 1998 012e 19       		.uleb128 0x19
 1999 012f 20       		.uleb128 0x20
 2000 0130 0B       		.uleb128 0xb
 2001 0131 00       		.byte	0
 2002 0132 00       		.byte	0
 2003 0133 1A       		.uleb128 0x1a
 2004 0134 2E       		.uleb128 0x2e
 2005 0135 01       		.byte	0x1
 2006 0136 03       		.uleb128 0x3
 2007 0137 0E       		.uleb128 0xe
 2008 0138 3A       		.uleb128 0x3a
 2009 0139 0B       		.uleb128 0xb
 2010 013a 3B       		.uleb128 0x3b
 2011 013b 0B       		.uleb128 0xb
 2012 013c 27       		.uleb128 0x27
 2013 013d 19       		.uleb128 0x19
 2014 013e 20       		.uleb128 0x20
 2015 013f 0B       		.uleb128 0xb
 2016 0140 01       		.uleb128 0x1
 2017 0141 13       		.uleb128 0x13
 2018 0142 00       		.byte	0
 2019 0143 00       		.byte	0
 2020 0144 1B       		.uleb128 0x1b
 2021 0145 05       		.uleb128 0x5
 2022 0146 00       		.byte	0
 2023 0147 03       		.uleb128 0x3
 2024 0148 08       		.uleb128 0x8
 2025 0149 3A       		.uleb128 0x3a
 2026 014a 0B       		.uleb128 0xb
 2027 014b 3B       		.uleb128 0x3b
 2028 014c 0B       		.uleb128 0xb
 2029 014d 49       		.uleb128 0x49
 2030 014e 13       		.uleb128 0x13
 2031 014f 00       		.byte	0
 2032 0150 00       		.byte	0
 2033 0151 1C       		.uleb128 0x1c
 2034 0152 2E       		.uleb128 0x2e
 2035 0153 01       		.byte	0x1
 2036 0154 03       		.uleb128 0x3
 2037 0155 0E       		.uleb128 0xe
 2038 0156 3A       		.uleb128 0x3a
 2039 0157 0B       		.uleb128 0xb
 2040 0158 3B       		.uleb128 0x3b
 2041 0159 05       		.uleb128 0x5
 2042 015a 27       		.uleb128 0x27
 2043 015b 19       		.uleb128 0x19
 2044 015c 49       		.uleb128 0x49
 2045 015d 13       		.uleb128 0x13
 2046 015e 20       		.uleb128 0x20
 2047 015f 0B       		.uleb128 0xb
 2048 0160 01       		.uleb128 0x1
 2049 0161 13       		.uleb128 0x13
 2050 0162 00       		.byte	0
 2051 0163 00       		.byte	0
 2052 0164 1D       		.uleb128 0x1d
ARM GAS  /tmp/cckYb9Bl.s 			page 37


 2053 0165 05       		.uleb128 0x5
 2054 0166 00       		.byte	0
 2055 0167 03       		.uleb128 0x3
 2056 0168 08       		.uleb128 0x8
 2057 0169 3A       		.uleb128 0x3a
 2058 016a 0B       		.uleb128 0xb
 2059 016b 3B       		.uleb128 0x3b
 2060 016c 05       		.uleb128 0x5
 2061 016d 49       		.uleb128 0x49
 2062 016e 13       		.uleb128 0x13
 2063 016f 00       		.byte	0
 2064 0170 00       		.byte	0
 2065 0171 1E       		.uleb128 0x1e
 2066 0172 34       		.uleb128 0x34
 2067 0173 00       		.byte	0
 2068 0174 03       		.uleb128 0x3
 2069 0175 0E       		.uleb128 0xe
 2070 0176 49       		.uleb128 0x49
 2071 0177 13       		.uleb128 0x13
 2072 0178 34       		.uleb128 0x34
 2073 0179 19       		.uleb128 0x19
 2074 017a 1C       		.uleb128 0x1c
 2075 017b 0E       		.uleb128 0xe
 2076 017c 00       		.byte	0
 2077 017d 00       		.byte	0
 2078 017e 1F       		.uleb128 0x1f
 2079 017f 2E       		.uleb128 0x2e
 2080 0180 01       		.byte	0x1
 2081 0181 03       		.uleb128 0x3
 2082 0182 0E       		.uleb128 0xe
 2083 0183 3A       		.uleb128 0x3a
 2084 0184 0B       		.uleb128 0xb
 2085 0185 3B       		.uleb128 0x3b
 2086 0186 0B       		.uleb128 0xb
 2087 0187 27       		.uleb128 0x27
 2088 0188 19       		.uleb128 0x19
 2089 0189 11       		.uleb128 0x11
 2090 018a 01       		.uleb128 0x1
 2091 018b 12       		.uleb128 0x12
 2092 018c 06       		.uleb128 0x6
 2093 018d 40       		.uleb128 0x40
 2094 018e 18       		.uleb128 0x18
 2095 018f 9742     		.uleb128 0x2117
 2096 0191 19       		.uleb128 0x19
 2097 0192 01       		.uleb128 0x1
 2098 0193 13       		.uleb128 0x13
 2099 0194 00       		.byte	0
 2100 0195 00       		.byte	0
 2101 0196 20       		.uleb128 0x20
 2102 0197 05       		.uleb128 0x5
 2103 0198 00       		.byte	0
 2104 0199 03       		.uleb128 0x3
 2105 019a 08       		.uleb128 0x8
 2106 019b 3A       		.uleb128 0x3a
 2107 019c 0B       		.uleb128 0xb
 2108 019d 3B       		.uleb128 0x3b
 2109 019e 0B       		.uleb128 0xb
ARM GAS  /tmp/cckYb9Bl.s 			page 38


 2110 019f 49       		.uleb128 0x49
 2111 01a0 13       		.uleb128 0x13
 2112 01a1 02       		.uleb128 0x2
 2113 01a2 17       		.uleb128 0x17
 2114 01a3 00       		.byte	0
 2115 01a4 00       		.byte	0
 2116 01a5 21       		.uleb128 0x21
 2117 01a6 34       		.uleb128 0x34
 2118 01a7 00       		.byte	0
 2119 01a8 03       		.uleb128 0x3
 2120 01a9 08       		.uleb128 0x8
 2121 01aa 3A       		.uleb128 0x3a
 2122 01ab 0B       		.uleb128 0xb
 2123 01ac 3B       		.uleb128 0x3b
 2124 01ad 0B       		.uleb128 0xb
 2125 01ae 49       		.uleb128 0x49
 2126 01af 13       		.uleb128 0x13
 2127 01b0 02       		.uleb128 0x2
 2128 01b1 17       		.uleb128 0x17
 2129 01b2 00       		.byte	0
 2130 01b3 00       		.byte	0
 2131 01b4 22       		.uleb128 0x22
 2132 01b5 1D       		.uleb128 0x1d
 2133 01b6 01       		.byte	0x1
 2134 01b7 31       		.uleb128 0x31
 2135 01b8 13       		.uleb128 0x13
 2136 01b9 52       		.uleb128 0x52
 2137 01ba 01       		.uleb128 0x1
 2138 01bb 55       		.uleb128 0x55
 2139 01bc 17       		.uleb128 0x17
 2140 01bd 58       		.uleb128 0x58
 2141 01be 0B       		.uleb128 0xb
 2142 01bf 59       		.uleb128 0x59
 2143 01c0 0B       		.uleb128 0xb
 2144 01c1 01       		.uleb128 0x1
 2145 01c2 13       		.uleb128 0x13
 2146 01c3 00       		.byte	0
 2147 01c4 00       		.byte	0
 2148 01c5 23       		.uleb128 0x23
 2149 01c6 1D       		.uleb128 0x1d
 2150 01c7 01       		.byte	0x1
 2151 01c8 31       		.uleb128 0x31
 2152 01c9 13       		.uleb128 0x13
 2153 01ca 52       		.uleb128 0x52
 2154 01cb 01       		.uleb128 0x1
 2155 01cc 55       		.uleb128 0x55
 2156 01cd 17       		.uleb128 0x17
 2157 01ce 58       		.uleb128 0x58
 2158 01cf 0B       		.uleb128 0xb
 2159 01d0 59       		.uleb128 0x59
 2160 01d1 05       		.uleb128 0x5
 2161 01d2 00       		.byte	0
 2162 01d3 00       		.byte	0
 2163 01d4 24       		.uleb128 0x24
 2164 01d5 05       		.uleb128 0x5
 2165 01d6 00       		.byte	0
 2166 01d7 31       		.uleb128 0x31
ARM GAS  /tmp/cckYb9Bl.s 			page 39


 2167 01d8 13       		.uleb128 0x13
 2168 01d9 1C       		.uleb128 0x1c
 2169 01da 0B       		.uleb128 0xb
 2170 01db 00       		.byte	0
 2171 01dc 00       		.byte	0
 2172 01dd 25       		.uleb128 0x25
 2173 01de 1D       		.uleb128 0x1d
 2174 01df 01       		.byte	0x1
 2175 01e0 31       		.uleb128 0x31
 2176 01e1 13       		.uleb128 0x13
 2177 01e2 11       		.uleb128 0x11
 2178 01e3 01       		.uleb128 0x1
 2179 01e4 12       		.uleb128 0x12
 2180 01e5 06       		.uleb128 0x6
 2181 01e6 58       		.uleb128 0x58
 2182 01e7 0B       		.uleb128 0xb
 2183 01e8 59       		.uleb128 0x59
 2184 01e9 0B       		.uleb128 0xb
 2185 01ea 01       		.uleb128 0x1
 2186 01eb 13       		.uleb128 0x13
 2187 01ec 00       		.byte	0
 2188 01ed 00       		.byte	0
 2189 01ee 26       		.uleb128 0x26
 2190 01ef 05       		.uleb128 0x5
 2191 01f0 00       		.byte	0
 2192 01f1 31       		.uleb128 0x31
 2193 01f2 13       		.uleb128 0x13
 2194 01f3 02       		.uleb128 0x2
 2195 01f4 17       		.uleb128 0x17
 2196 01f5 00       		.byte	0
 2197 01f6 00       		.byte	0
 2198 01f7 27       		.uleb128 0x27
 2199 01f8 898201   		.uleb128 0x4109
 2200 01fb 01       		.byte	0x1
 2201 01fc 11       		.uleb128 0x11
 2202 01fd 01       		.uleb128 0x1
 2203 01fe 31       		.uleb128 0x31
 2204 01ff 13       		.uleb128 0x13
 2205 0200 00       		.byte	0
 2206 0201 00       		.byte	0
 2207 0202 28       		.uleb128 0x28
 2208 0203 8A8201   		.uleb128 0x410a
 2209 0206 00       		.byte	0
 2210 0207 02       		.uleb128 0x2
 2211 0208 18       		.uleb128 0x18
 2212 0209 9142     		.uleb128 0x2111
 2213 020b 18       		.uleb128 0x18
 2214 020c 00       		.byte	0
 2215 020d 00       		.byte	0
 2216 020e 29       		.uleb128 0x29
 2217 020f 1D       		.uleb128 0x1d
 2218 0210 01       		.byte	0x1
 2219 0211 31       		.uleb128 0x31
 2220 0212 13       		.uleb128 0x13
 2221 0213 11       		.uleb128 0x11
 2222 0214 01       		.uleb128 0x1
 2223 0215 12       		.uleb128 0x12
ARM GAS  /tmp/cckYb9Bl.s 			page 40


 2224 0216 06       		.uleb128 0x6
 2225 0217 58       		.uleb128 0x58
 2226 0218 0B       		.uleb128 0xb
 2227 0219 59       		.uleb128 0x59
 2228 021a 05       		.uleb128 0x5
 2229 021b 00       		.byte	0
 2230 021c 00       		.byte	0
 2231 021d 2A       		.uleb128 0x2a
 2232 021e 2E       		.uleb128 0x2e
 2233 021f 01       		.byte	0x1
 2234 0220 3F       		.uleb128 0x3f
 2235 0221 19       		.uleb128 0x19
 2236 0222 03       		.uleb128 0x3
 2237 0223 0E       		.uleb128 0xe
 2238 0224 3A       		.uleb128 0x3a
 2239 0225 0B       		.uleb128 0xb
 2240 0226 3B       		.uleb128 0x3b
 2241 0227 0B       		.uleb128 0xb
 2242 0228 27       		.uleb128 0x27
 2243 0229 19       		.uleb128 0x19
 2244 022a 11       		.uleb128 0x11
 2245 022b 01       		.uleb128 0x1
 2246 022c 12       		.uleb128 0x12
 2247 022d 06       		.uleb128 0x6
 2248 022e 40       		.uleb128 0x40
 2249 022f 18       		.uleb128 0x18
 2250 0230 9742     		.uleb128 0x2117
 2251 0232 19       		.uleb128 0x19
 2252 0233 01       		.uleb128 0x1
 2253 0234 13       		.uleb128 0x13
 2254 0235 00       		.byte	0
 2255 0236 00       		.byte	0
 2256 0237 2B       		.uleb128 0x2b
 2257 0238 05       		.uleb128 0x5
 2258 0239 00       		.byte	0
 2259 023a 03       		.uleb128 0x3
 2260 023b 08       		.uleb128 0x8
 2261 023c 3A       		.uleb128 0x3a
 2262 023d 0B       		.uleb128 0xb
 2263 023e 3B       		.uleb128 0x3b
 2264 023f 0B       		.uleb128 0xb
 2265 0240 49       		.uleb128 0x49
 2266 0241 13       		.uleb128 0x13
 2267 0242 02       		.uleb128 0x2
 2268 0243 18       		.uleb128 0x18
 2269 0244 00       		.byte	0
 2270 0245 00       		.byte	0
 2271 0246 2C       		.uleb128 0x2c
 2272 0247 05       		.uleb128 0x5
 2273 0248 00       		.byte	0
 2274 0249 03       		.uleb128 0x3
 2275 024a 0E       		.uleb128 0xe
 2276 024b 3A       		.uleb128 0x3a
 2277 024c 0B       		.uleb128 0xb
 2278 024d 3B       		.uleb128 0x3b
 2279 024e 0B       		.uleb128 0xb
 2280 024f 49       		.uleb128 0x49
ARM GAS  /tmp/cckYb9Bl.s 			page 41


 2281 0250 13       		.uleb128 0x13
 2282 0251 02       		.uleb128 0x2
 2283 0252 18       		.uleb128 0x18
 2284 0253 00       		.byte	0
 2285 0254 00       		.byte	0
 2286 0255 2D       		.uleb128 0x2d
 2287 0256 05       		.uleb128 0x5
 2288 0257 00       		.byte	0
 2289 0258 31       		.uleb128 0x31
 2290 0259 13       		.uleb128 0x13
 2291 025a 02       		.uleb128 0x2
 2292 025b 18       		.uleb128 0x18
 2293 025c 00       		.byte	0
 2294 025d 00       		.byte	0
 2295 025e 2E       		.uleb128 0x2e
 2296 025f 1D       		.uleb128 0x1d
 2297 0260 01       		.byte	0x1
 2298 0261 31       		.uleb128 0x31
 2299 0262 13       		.uleb128 0x13
 2300 0263 11       		.uleb128 0x11
 2301 0264 01       		.uleb128 0x1
 2302 0265 12       		.uleb128 0x12
 2303 0266 06       		.uleb128 0x6
 2304 0267 58       		.uleb128 0x58
 2305 0268 0B       		.uleb128 0xb
 2306 0269 59       		.uleb128 0x59
 2307 026a 0B       		.uleb128 0xb
 2308 026b 00       		.byte	0
 2309 026c 00       		.byte	0
 2310 026d 2F       		.uleb128 0x2f
 2311 026e 1D       		.uleb128 0x1d
 2312 026f 01       		.byte	0x1
 2313 0270 31       		.uleb128 0x31
 2314 0271 13       		.uleb128 0x13
 2315 0272 52       		.uleb128 0x52
 2316 0273 01       		.uleb128 0x1
 2317 0274 55       		.uleb128 0x55
 2318 0275 17       		.uleb128 0x17
 2319 0276 58       		.uleb128 0x58
 2320 0277 0B       		.uleb128 0xb
 2321 0278 59       		.uleb128 0x59
 2322 0279 0B       		.uleb128 0xb
 2323 027a 00       		.byte	0
 2324 027b 00       		.byte	0
 2325 027c 30       		.uleb128 0x30
 2326 027d 1D       		.uleb128 0x1d
 2327 027e 01       		.byte	0x1
 2328 027f 31       		.uleb128 0x31
 2329 0280 13       		.uleb128 0x13
 2330 0281 52       		.uleb128 0x52
 2331 0282 01       		.uleb128 0x1
 2332 0283 55       		.uleb128 0x55
 2333 0284 17       		.uleb128 0x17
 2334 0285 58       		.uleb128 0x58
 2335 0286 0B       		.uleb128 0xb
 2336 0287 59       		.uleb128 0x59
 2337 0288 05       		.uleb128 0x5
ARM GAS  /tmp/cckYb9Bl.s 			page 42


 2338 0289 01       		.uleb128 0x1
 2339 028a 13       		.uleb128 0x13
 2340 028b 00       		.byte	0
 2341 028c 00       		.byte	0
 2342 028d 31       		.uleb128 0x31
 2343 028e 1D       		.uleb128 0x1d
 2344 028f 01       		.byte	0x1
 2345 0290 31       		.uleb128 0x31
 2346 0291 13       		.uleb128 0x13
 2347 0292 11       		.uleb128 0x11
 2348 0293 01       		.uleb128 0x1
 2349 0294 12       		.uleb128 0x12
 2350 0295 06       		.uleb128 0x6
 2351 0296 58       		.uleb128 0x58
 2352 0297 0B       		.uleb128 0xb
 2353 0298 59       		.uleb128 0x59
 2354 0299 05       		.uleb128 0x5
 2355 029a 01       		.uleb128 0x1
 2356 029b 13       		.uleb128 0x13
 2357 029c 00       		.byte	0
 2358 029d 00       		.byte	0
 2359 029e 32       		.uleb128 0x32
 2360 029f 0B       		.uleb128 0xb
 2361 02a0 01       		.byte	0x1
 2362 02a1 11       		.uleb128 0x11
 2363 02a2 01       		.uleb128 0x1
 2364 02a3 12       		.uleb128 0x12
 2365 02a4 06       		.uleb128 0x6
 2366 02a5 00       		.byte	0
 2367 02a6 00       		.byte	0
 2368 02a7 33       		.uleb128 0x33
 2369 02a8 34       		.uleb128 0x34
 2370 02a9 00       		.byte	0
 2371 02aa 31       		.uleb128 0x31
 2372 02ab 13       		.uleb128 0x13
 2373 02ac 00       		.byte	0
 2374 02ad 00       		.byte	0
 2375 02ae 34       		.uleb128 0x34
 2376 02af 34       		.uleb128 0x34
 2377 02b0 00       		.byte	0
 2378 02b1 03       		.uleb128 0x3
 2379 02b2 0E       		.uleb128 0xe
 2380 02b3 3A       		.uleb128 0x3a
 2381 02b4 0B       		.uleb128 0xb
 2382 02b5 3B       		.uleb128 0x3b
 2383 02b6 05       		.uleb128 0x5
 2384 02b7 49       		.uleb128 0x49
 2385 02b8 13       		.uleb128 0x13
 2386 02b9 3F       		.uleb128 0x3f
 2387 02ba 19       		.uleb128 0x19
 2388 02bb 3C       		.uleb128 0x3c
 2389 02bc 19       		.uleb128 0x19
 2390 02bd 00       		.byte	0
 2391 02be 00       		.byte	0
 2392 02bf 35       		.uleb128 0x35
 2393 02c0 34       		.uleb128 0x34
 2394 02c1 00       		.byte	0
ARM GAS  /tmp/cckYb9Bl.s 			page 43


 2395 02c2 03       		.uleb128 0x3
 2396 02c3 08       		.uleb128 0x8
 2397 02c4 3A       		.uleb128 0x3a
 2398 02c5 0B       		.uleb128 0xb
 2399 02c6 3B       		.uleb128 0x3b
 2400 02c7 05       		.uleb128 0x5
 2401 02c8 49       		.uleb128 0x49
 2402 02c9 13       		.uleb128 0x13
 2403 02ca 3F       		.uleb128 0x3f
 2404 02cb 19       		.uleb128 0x19
 2405 02cc 3C       		.uleb128 0x3c
 2406 02cd 19       		.uleb128 0x19
 2407 02ce 00       		.byte	0
 2408 02cf 00       		.byte	0
 2409 02d0 36       		.uleb128 0x36
 2410 02d1 2E       		.uleb128 0x2e
 2411 02d2 01       		.byte	0x1
 2412 02d3 3F       		.uleb128 0x3f
 2413 02d4 19       		.uleb128 0x19
 2414 02d5 03       		.uleb128 0x3
 2415 02d6 0E       		.uleb128 0xe
 2416 02d7 3A       		.uleb128 0x3a
 2417 02d8 0B       		.uleb128 0xb
 2418 02d9 3B       		.uleb128 0x3b
 2419 02da 0B       		.uleb128 0xb
 2420 02db 27       		.uleb128 0x27
 2421 02dc 19       		.uleb128 0x19
 2422 02dd 3C       		.uleb128 0x3c
 2423 02de 19       		.uleb128 0x19
 2424 02df 01       		.uleb128 0x1
 2425 02e0 13       		.uleb128 0x13
 2426 02e1 00       		.byte	0
 2427 02e2 00       		.byte	0
 2428 02e3 37       		.uleb128 0x37
 2429 02e4 2E       		.uleb128 0x2e
 2430 02e5 01       		.byte	0x1
 2431 02e6 3F       		.uleb128 0x3f
 2432 02e7 19       		.uleb128 0x19
 2433 02e8 03       		.uleb128 0x3
 2434 02e9 0E       		.uleb128 0xe
 2435 02ea 3A       		.uleb128 0x3a
 2436 02eb 0B       		.uleb128 0xb
 2437 02ec 3B       		.uleb128 0x3b
 2438 02ed 0B       		.uleb128 0xb
 2439 02ee 27       		.uleb128 0x27
 2440 02ef 19       		.uleb128 0x19
 2441 02f0 3C       		.uleb128 0x3c
 2442 02f1 19       		.uleb128 0x19
 2443 02f2 00       		.byte	0
 2444 02f3 00       		.byte	0
 2445 02f4 00       		.byte	0
 2446              		.section	.debug_loc,"",%progbits
 2447              	.Ldebug_loc0:
 2448              	.LLST0:
 2449 0000 00000000 		.4byte	.LVL0
 2450 0004 0E000000 		.4byte	.LVL3
 2451 0008 0100     		.2byte	0x1
ARM GAS  /tmp/cckYb9Bl.s 			page 44


 2452 000a 50       		.byte	0x50
 2453 000b 0E000000 		.4byte	.LVL3
 2454 000f 26000000 		.4byte	.LVL6
 2455 0013 0100     		.2byte	0x1
 2456 0015 54       		.byte	0x54
 2457 0016 26000000 		.4byte	.LVL6
 2458 001a 2C000000 		.4byte	.LFE242
 2459 001e 0400     		.2byte	0x4
 2460 0020 F3       		.byte	0xf3
 2461 0021 01       		.uleb128 0x1
 2462 0022 50       		.byte	0x50
 2463 0023 9F       		.byte	0x9f
 2464 0024 00000000 		.4byte	0
 2465 0028 00000000 		.4byte	0
 2466              	.LLST1:
 2467 002c 06000000 		.4byte	.LVL1
 2468 0030 0E000000 		.4byte	.LVL3
 2469 0034 0100     		.2byte	0x1
 2470 0036 50       		.byte	0x50
 2471 0037 0E000000 		.4byte	.LVL3
 2472 003b 26000000 		.4byte	.LVL6
 2473 003f 0100     		.2byte	0x1
 2474 0041 54       		.byte	0x54
 2475 0042 26000000 		.4byte	.LVL6
 2476 0046 2C000000 		.4byte	.LFE242
 2477 004a 0400     		.2byte	0x4
 2478 004c F3       		.byte	0xf3
 2479 004d 01       		.uleb128 0x1
 2480 004e 50       		.byte	0x50
 2481 004f 9F       		.byte	0x9f
 2482 0050 00000000 		.4byte	0
 2483 0054 00000000 		.4byte	0
 2484              	.LLST2:
 2485 0058 0A000000 		.4byte	.LVL2
 2486 005c 0E000000 		.4byte	.LVL3
 2487 0060 0300     		.2byte	0x3
 2488 0062 70       		.byte	0x70
 2489 0063 14       		.sleb128 20
 2490 0064 9F       		.byte	0x9f
 2491 0065 0E000000 		.4byte	.LVL3
 2492 0069 11000000 		.4byte	.LVL4-1
 2493 006d 0100     		.2byte	0x1
 2494 006f 50       		.byte	0x50
 2495 0070 11000000 		.4byte	.LVL4-1
 2496 0074 26000000 		.4byte	.LVL6
 2497 0078 0300     		.2byte	0x3
 2498 007a 74       		.byte	0x74
 2499 007b 14       		.sleb128 20
 2500 007c 9F       		.byte	0x9f
 2501 007d 26000000 		.4byte	.LVL6
 2502 0081 2C000000 		.4byte	.LFE242
 2503 0085 0600     		.2byte	0x6
 2504 0087 F3       		.byte	0xf3
 2505 0088 01       		.uleb128 0x1
 2506 0089 50       		.byte	0x50
 2507 008a 23       		.byte	0x23
 2508 008b 14       		.uleb128 0x14
ARM GAS  /tmp/cckYb9Bl.s 			page 45


 2509 008c 9F       		.byte	0x9f
 2510 008d 00000000 		.4byte	0
 2511 0091 00000000 		.4byte	0
 2512              	.LLST3:
 2513 0095 00000000 		.4byte	.LVL7
 2514 0099 04000000 		.4byte	.LVL8
 2515 009d 0300     		.2byte	0x3
 2516 009f 70       		.byte	0x70
 2517 00a0 14       		.sleb128 20
 2518 00a1 9F       		.byte	0x9f
 2519 00a2 04000000 		.4byte	.LVL8
 2520 00a6 0E000000 		.4byte	.LFE243
 2521 00aa 0100     		.2byte	0x1
 2522 00ac 52       		.byte	0x52
 2523 00ad 00000000 		.4byte	0
 2524 00b1 00000000 		.4byte	0
 2525              	.LLST4:
 2526 00b5 00000000 		.4byte	.LVL10
 2527 00b9 13000000 		.4byte	.LVL13-1
 2528 00bd 0100     		.2byte	0x1
 2529 00bf 50       		.byte	0x50
 2530 00c0 13000000 		.4byte	.LVL13-1
 2531 00c4 28000000 		.4byte	.LVL15
 2532 00c8 0100     		.2byte	0x1
 2533 00ca 54       		.byte	0x54
 2534 00cb 28000000 		.4byte	.LVL15
 2535 00cf 2C000000 		.4byte	.LFE244
 2536 00d3 0400     		.2byte	0x4
 2537 00d5 F3       		.byte	0xf3
 2538 00d6 01       		.uleb128 0x1
 2539 00d7 50       		.byte	0x50
 2540 00d8 9F       		.byte	0x9f
 2541 00d9 00000000 		.4byte	0
 2542 00dd 00000000 		.4byte	0
 2543              	.LLST5:
 2544 00e1 08000000 		.4byte	.LVL11
 2545 00e5 13000000 		.4byte	.LVL13-1
 2546 00e9 0100     		.2byte	0x1
 2547 00eb 50       		.byte	0x50
 2548 00ec 13000000 		.4byte	.LVL13-1
 2549 00f0 28000000 		.4byte	.LVL15
 2550 00f4 0100     		.2byte	0x1
 2551 00f6 54       		.byte	0x54
 2552 00f7 28000000 		.4byte	.LVL15
 2553 00fb 2C000000 		.4byte	.LFE244
 2554 00ff 0400     		.2byte	0x4
 2555 0101 F3       		.byte	0xf3
 2556 0102 01       		.uleb128 0x1
 2557 0103 50       		.byte	0x50
 2558 0104 9F       		.byte	0x9f
 2559 0105 00000000 		.4byte	0
 2560 0109 00000000 		.4byte	0
 2561              	.LLST6:
 2562 010d 08000000 		.4byte	.LVL11
 2563 0111 28000000 		.4byte	.LVL15
 2564 0115 0100     		.2byte	0x1
 2565 0117 55       		.byte	0x55
ARM GAS  /tmp/cckYb9Bl.s 			page 46


 2566 0118 00000000 		.4byte	0
 2567 011c 00000000 		.4byte	0
 2568              	.LLST8:
 2569 0120 0C000000 		.4byte	.LVL12
 2570 0124 13000000 		.4byte	.LVL13-1
 2571 0128 0100     		.2byte	0x1
 2572 012a 50       		.byte	0x50
 2573 012b 13000000 		.4byte	.LVL13-1
 2574 012f 28000000 		.4byte	.LVL15
 2575 0133 0100     		.2byte	0x1
 2576 0135 54       		.byte	0x54
 2577 0136 28000000 		.4byte	.LVL15
 2578 013a 2C000000 		.4byte	.LFE244
 2579 013e 0400     		.2byte	0x4
 2580 0140 F3       		.byte	0xf3
 2581 0141 01       		.uleb128 0x1
 2582 0142 50       		.byte	0x50
 2583 0143 9F       		.byte	0x9f
 2584 0144 00000000 		.4byte	0
 2585 0148 00000000 		.4byte	0
 2586              	.LLST9:
 2587 014c 0C000000 		.4byte	.LVL12
 2588 0150 28000000 		.4byte	.LVL15
 2589 0154 0100     		.2byte	0x1
 2590 0156 55       		.byte	0x55
 2591 0157 00000000 		.4byte	0
 2592 015b 00000000 		.4byte	0
 2593              		.section	.debug_aranges,"",%progbits
 2594 0000 2C000000 		.4byte	0x2c
 2595 0004 0200     		.2byte	0x2
 2596 0006 00000000 		.4byte	.Ldebug_info0
 2597 000a 04       		.byte	0x4
 2598 000b 00       		.byte	0
 2599 000c 0000     		.2byte	0
 2600 000e 0000     		.2byte	0
 2601 0010 00000000 		.4byte	.LFB242
 2602 0014 2C000000 		.4byte	.LFE242-.LFB242
 2603 0018 00000000 		.4byte	.LFB243
 2604 001c 0E000000 		.4byte	.LFE243-.LFB243
 2605 0020 00000000 		.4byte	.LFB244
 2606 0024 2C000000 		.4byte	.LFE244-.LFB244
 2607 0028 00000000 		.4byte	0
 2608 002c 00000000 		.4byte	0
 2609              		.section	.debug_ranges,"",%progbits
 2610              	.Ldebug_ranges0:
 2611 0000 02000000 		.4byte	.LBB77
 2612 0004 04000000 		.4byte	.LBE77
 2613 0008 06000000 		.4byte	.LBB86
 2614 000c 0A000000 		.4byte	.LBE86
 2615 0010 00000000 		.4byte	0
 2616 0014 00000000 		.4byte	0
 2617 0018 04000000 		.4byte	.LBB94
 2618 001c 06000000 		.4byte	.LBE94
 2619 0020 0A000000 		.4byte	.LBB99
 2620 0024 0E000000 		.4byte	.LBE99
 2621 0028 00000000 		.4byte	0
 2622 002c 00000000 		.4byte	0
ARM GAS  /tmp/cckYb9Bl.s 			page 47


 2623 0030 04000000 		.4byte	.LBB115
 2624 0034 06000000 		.4byte	.LBE115
 2625 0038 08000000 		.4byte	.LBB133
 2626 003c 2C000000 		.4byte	.LBE133
 2627 0040 00000000 		.4byte	0
 2628 0044 00000000 		.4byte	0
 2629 0048 04000000 		.4byte	.LBB116
 2630 004c 06000000 		.4byte	.LBE116
 2631 0050 08000000 		.4byte	.LBB123
 2632 0054 0C000000 		.4byte	.LBE123
 2633 0058 00000000 		.4byte	0
 2634 005c 00000000 		.4byte	0
 2635 0060 00000000 		.4byte	.LFB242
 2636 0064 2C000000 		.4byte	.LFE242
 2637 0068 00000000 		.4byte	.LFB243
 2638 006c 0E000000 		.4byte	.LFE243
 2639 0070 00000000 		.4byte	.LFB244
 2640 0074 2C000000 		.4byte	.LFE244
 2641 0078 00000000 		.4byte	0
 2642 007c 00000000 		.4byte	0
 2643              		.section	.debug_line,"",%progbits
 2644              	.Ldebug_line0:
 2645 0000 FD020000 		.section	.debug_str,"MS",%progbits,1
 2645      02006902 
 2645      00000201 
 2645      FB0E0D00 
 2645      01010101 
 2646              	.LASF114:
 2647 0000 65745F69 		.ascii	"et_interval\000"
 2647      6E746572 
 2647      76616C00 
 2648              	.LASF50:
 2649 000c 72656164 		.ascii	"ready_list_t\000"
 2649      795F6C69 
 2649      73745F74 
 2649      00
 2650              	.LASF88:
 2651 0019 77747472 		.ascii	"wttrp\000"
 2651      7000
 2652              	.LASF85:
 2653 001f 7264796D 		.ascii	"rdymsg\000"
 2653      736700
 2654              	.LASF16:
 2655 0026 75696E74 		.ascii	"uint64_t\000"
 2655      36345F74 
 2655      00
 2656              	.LASF23:
 2657 002f 6576656E 		.ascii	"eventmask_t\000"
 2657      746D6173 
 2657      6B5F7400 
 2658              	.LASF5:
 2659 003b 5F5F7569 		.ascii	"__uint8_t\000"
 2659      6E74385F 
 2659      7400
 2660              	.LASF82:
 2661 0045 706F7274 		.ascii	"port_intctx\000"
 2661      5F696E74 
ARM GAS  /tmp/cckYb9Bl.s 			page 48


 2661      63747800 
 2662              	.LASF69:
 2663 0051 73797374 		.ascii	"system_debug_t\000"
 2663      656D5F64 
 2663      65627567 
 2663      5F7400
 2664              	.LASF116:
 2665 0060 706F7274 		.ascii	"port_lock\000"
 2665      5F6C6F63 
 2665      6B00
 2666              	.LASF12:
 2667 006a 6C6F6E67 		.ascii	"long long unsigned int\000"
 2667      206C6F6E 
 2667      6720756E 
 2667      7369676E 
 2667      65642069 
 2668              	.LASF147:
 2669 0081 63685654 		.ascii	"chVTDoResetI\000"
 2669      446F5265 
 2669      73657449 
 2669      00
 2670              	.LASF86:
 2671 008e 65786974 		.ascii	"exitcode\000"
 2671      636F6465 
 2671      00
 2672              	.LASF137:
 2673 0097 65767453 		.ascii	"evtStart\000"
 2673      74617274 
 2673      00
 2674              	.LASF89:
 2675 00a0 73656E74 		.ascii	"sentmsg\000"
 2675      6D736700 
 2676              	.LASF66:
 2677 00a8 76697274 		.ascii	"virtual_timers_list_t\000"
 2677      75616C5F 
 2677      74696D65 
 2677      72735F6C 
 2677      6973745F 
 2678              	.LASF138:
 2679 00be 49544D5F 		.ascii	"ITM_RxBuffer\000"
 2679      52784275 
 2679      66666572 
 2679      00
 2680              	.LASF132:
 2681 00cb 64656C61 		.ascii	"delay\000"
 2681      7900
 2682              	.LASF49:
 2683 00d1 63685F74 		.ascii	"ch_threads_queue\000"
 2683      68726561 
 2683      64735F71 
 2683      75657565 
 2683      00
 2684              	.LASF30:
 2685 00e2 705F7072 		.ascii	"p_prio\000"
 2685      696F00
 2686              	.LASF10:
 2687 00e9 6C6F6E67 		.ascii	"long long int\000"
ARM GAS  /tmp/cckYb9Bl.s 			page 49


 2687      206C6F6E 
 2687      6720696E 
 2687      7400
 2688              	.LASF1:
 2689 00f7 7369676E 		.ascii	"signed char\000"
 2689      65642063 
 2689      68617200 
 2690              	.LASF43:
 2691 0103 705F6D70 		.ascii	"p_mpool\000"
 2691      6F6F6C00 
 2692              	.LASF97:
 2693 010b 6D5F7175 		.ascii	"m_queue\000"
 2693      65756500 
 2694              	.LASF75:
 2695 0113 76746C69 		.ascii	"vtlist\000"
 2695      737400
 2696              	.LASF117:
 2697 011a 706F7274 		.ascii	"port_unlock\000"
 2697      5F756E6C 
 2697      6F636B00 
 2698              	.LASF73:
 2699 0126 63685F73 		.ascii	"ch_system\000"
 2699      79737465 
 2699      6D00
 2700              	.LASF7:
 2701 0130 6C6F6E67 		.ascii	"long int\000"
 2701      20696E74 
 2701      00
 2702              	.LASF19:
 2703 0139 74737461 		.ascii	"tstate_t\000"
 2703      74655F74 
 2703      00
 2704              	.LASF37:
 2705 0142 705F7265 		.ascii	"p_refs\000"
 2705      667300
 2706              	.LASF139:
 2707 0149 63684576 		.ascii	"chEvtBroadcastFlagsI\000"
 2707      7442726F 
 2707      61646361 
 2707      7374466C 
 2707      61677349 
 2708              	.LASF32:
 2709 015e 705F6E65 		.ascii	"p_newer\000"
 2709      77657200 
 2710              	.LASF94:
 2711 0166 735F7175 		.ascii	"s_queue\000"
 2711      65756500 
 2712              	.LASF55:
 2713 016e 725F6E65 		.ascii	"r_newer\000"
 2713      77657200 
 2714              	.LASF79:
 2715 0176 72656761 		.ascii	"regarm_t\000"
 2715      726D5F74 
 2715      00
 2716              	.LASF62:
 2717 017f 76745F70 		.ascii	"vt_prev\000"
 2717      72657600 
ARM GAS  /tmp/cckYb9Bl.s 			page 50


 2718              	.LASF101:
 2719 0187 6D757465 		.ascii	"mutex_t\000"
 2719      785F7400 
 2720              	.LASF122:
 2721 018f 76616C75 		.ascii	"value\000"
 2721      6500
 2722              	.LASF111:
 2723 0195 6576656E 		.ascii	"event_source_t\000"
 2723      745F736F 
 2723      75726365 
 2723      5F7400
 2724              	.LASF77:
 2725 01a4 69646C65 		.ascii	"idle_thread_wa\000"
 2725      5F746872 
 2725      6561645F 
 2725      776100
 2726              	.LASF25:
 2727 01b3 636E745F 		.ascii	"cnt_t\000"
 2727      7400
 2728              	.LASF0:
 2729 01b9 756E7369 		.ascii	"unsigned int\000"
 2729      676E6564 
 2729      20696E74 
 2729      00
 2730              	.LASF61:
 2731 01c6 76745F6E 		.ascii	"vt_next\000"
 2731      65787400 
 2732              	.LASF90:
 2733 01ce 77747365 		.ascii	"wtsemp\000"
 2733      6D7000
 2734              	.LASF63:
 2735 01d5 76745F64 		.ascii	"vt_delta\000"
 2735      656C7461 
 2735      00
 2736              	.LASF39:
 2737 01de 705F6D73 		.ascii	"p_msgqueue\000"
 2737      67717565 
 2737      756500
 2738              	.LASF95:
 2739 01e9 735F636E 		.ascii	"s_cnt\000"
 2739      7400
 2740              	.LASF130:
 2741 01ef 63684576 		.ascii	"chEvtObjectInit\000"
 2741      744F626A 
 2741      65637449 
 2741      6E697400 
 2742              	.LASF4:
 2743 01ff 73686F72 		.ascii	"short unsigned int\000"
 2743      7420756E 
 2743      7369676E 
 2743      65642069 
 2743      6E7400
 2744              	.LASF46:
 2745 0212 63685F74 		.ascii	"ch_thread\000"
 2745      68726561 
 2745      6400
 2746              	.LASF108:
ARM GAS  /tmp/cckYb9Bl.s 			page 51


 2747 021c 656C5F77 		.ascii	"el_wflags\000"
 2747      666C6167 
 2747      7300
 2748              	.LASF76:
 2749 0226 6D61696E 		.ascii	"mainthread\000"
 2749      74687265 
 2749      616400
 2750              	.LASF24:
 2751 0231 6576656E 		.ascii	"eventflags_t\000"
 2751      74666C61 
 2751      67735F74 
 2751      00
 2752              	.LASF22:
 2753 023e 6D73675F 		.ascii	"msg_t\000"
 2753      7400
 2754              	.LASF104:
 2755 0244 656C5F6E 		.ascii	"el_next\000"
 2755      65787400 
 2756              	.LASF72:
 2757 024c 63685F73 		.ascii	"ch_system_t\000"
 2757      79737465 
 2757      6D5F7400 
 2758              	.LASF136:
 2759 0258 6576744F 		.ascii	"evtObjectInit\000"
 2759      626A6563 
 2759      74496E69 
 2759      7400
 2760              	.LASF87:
 2761 0266 77746F62 		.ascii	"wtobjp\000"
 2761      6A7000
 2762              	.LASF51:
 2763 026d 63685F72 		.ascii	"ch_ready_list\000"
 2763      65616479 
 2763      5F6C6973 
 2763      7400
 2764              	.LASF140:
 2765 027b 63685654 		.ascii	"chVTDoSetI\000"
 2765      446F5365 
 2765      744900
 2766              	.LASF6:
 2767 0286 5F5F696E 		.ascii	"__int32_t\000"
 2767      7433325F 
 2767      7400
 2768              	.LASF121:
 2769 0290 63685654 		.ascii	"chVTObjectInit\000"
 2769      4F626A65 
 2769      6374496E 
 2769      697400
 2770              	.LASF80:
 2771 029f 73746B61 		.ascii	"stkalign_t\000"
 2771      6C69676E 
 2771      5F7400
 2772              	.LASF142:
 2773 02aa 2E2E2F43 		.ascii	"../ChibiOS/os/various/evtimer.c\000"
 2773      68696269 
 2773      4F532F6F 
 2773      732F7661 
ARM GAS  /tmp/cckYb9Bl.s 			page 52


 2773      72696F75 
 2774              	.LASF102:
 2775 02ca 6576656E 		.ascii	"event_listener_t\000"
 2775      745F6C69 
 2775      7374656E 
 2775      65725F74 
 2775      00
 2776              	.LASF38:
 2777 02db 705F7761 		.ascii	"p_waiting\000"
 2777      6974696E 
 2777      6700
 2778              	.LASF113:
 2779 02e5 65745F65 		.ascii	"et_es\000"
 2779      7300
 2780              	.LASF78:
 2781 02eb 73697A65 		.ascii	"sizetype\000"
 2781      74797065 
 2781      00
 2782              	.LASF44:
 2783 02f4 74687265 		.ascii	"thread_reference_t\000"
 2783      61645F72 
 2783      65666572 
 2783      656E6365 
 2783      5F7400
 2784              	.LASF67:
 2785 0307 63685F76 		.ascii	"ch_virtual_timers_list\000"
 2785      69727475 
 2785      616C5F74 
 2785      696D6572 
 2785      735F6C69 
 2786              	.LASF52:
 2787 031e 725F7175 		.ascii	"r_queue\000"
 2787      65756500 
 2788              	.LASF68:
 2789 0326 76745F6C 		.ascii	"vt_lasttime\000"
 2789      61737474 
 2789      696D6500 
 2790              	.LASF134:
 2791 0332 63685654 		.ascii	"chVTSetI\000"
 2791      53657449 
 2791      00
 2792              	.LASF33:
 2793 033b 705F6F6C 		.ascii	"p_older\000"
 2793      64657200 
 2794              	.LASF54:
 2795 0343 725F6374 		.ascii	"r_ctx\000"
 2795      7800
 2796              	.LASF131:
 2797 0349 63685654 		.ascii	"chVTSet\000"
 2797      53657400 
 2798              	.LASF84:
 2799 0351 746D5F63 		.ascii	"tm_calibration_t\000"
 2799      616C6962 
 2799      72617469 
 2799      6F6E5F74 
 2799      00
 2800              	.LASF135:
ARM GAS  /tmp/cckYb9Bl.s 			page 53


 2801 0362 74696D65 		.ascii	"time\000"
 2801      00
 2802              	.LASF57:
 2803 0367 725F6375 		.ascii	"r_current\000"
 2803      7272656E 
 2803      7400
 2804              	.LASF56:
 2805 0371 725F6F6C 		.ascii	"r_older\000"
 2805      64657200 
 2806              	.LASF106:
 2807 0379 656C5F65 		.ascii	"el_events\000"
 2807      76656E74 
 2807      7300
 2808              	.LASF11:
 2809 0383 5F5F7569 		.ascii	"__uint64_t\000"
 2809      6E743634 
 2809      5F7400
 2810              	.LASF20:
 2811 038e 74726566 		.ascii	"trefs_t\000"
 2811      735F7400 
 2812              	.LASF59:
 2813 0396 76697274 		.ascii	"virtual_timer_t\000"
 2813      75616C5F 
 2813      74696D65 
 2813      725F7400 
 2814              	.LASF29:
 2815 03a6 705F7072 		.ascii	"p_prev\000"
 2815      657600
 2816              	.LASF21:
 2817 03ad 74707269 		.ascii	"tprio_t\000"
 2817      6F5F7400 
 2818              	.LASF126:
 2819 03b5 63685379 		.ascii	"chSysUnlockFromISR\000"
 2819      73556E6C 
 2819      6F636B46 
 2819      726F6D49 
 2819      535200
 2820              	.LASF70:
 2821 03c8 63685F73 		.ascii	"ch_system_debug\000"
 2821      79737465 
 2821      6D5F6465 
 2821      62756700 
 2822              	.LASF123:
 2823 03d8 5F426F6F 		.ascii	"_Bool\000"
 2823      6C00
 2824              	.LASF14:
 2825 03de 696E7433 		.ascii	"int32_t\000"
 2825      325F7400 
 2826              	.LASF2:
 2827 03e6 756E7369 		.ascii	"unsigned char\000"
 2827      676E6564 
 2827      20636861 
 2827      7200
 2828              	.LASF105:
 2829 03f4 656C5F6C 		.ascii	"el_listener\000"
 2829      69737465 
 2829      6E657200 
ARM GAS  /tmp/cckYb9Bl.s 			page 54


 2830              	.LASF107:
 2831 0400 656C5F66 		.ascii	"el_flags\000"
 2831      6C616773 
 2831      00
 2832              	.LASF41:
 2833 0409 705F6D74 		.ascii	"p_mtxlist\000"
 2833      786C6973 
 2833      7400
 2834              	.LASF3:
 2835 0413 73686F72 		.ascii	"short int\000"
 2835      7420696E 
 2835      7400
 2836              	.LASF35:
 2837 041d 705F7374 		.ascii	"p_state\000"
 2837      61746500 
 2838              	.LASF53:
 2839 0425 725F7072 		.ascii	"r_prio\000"
 2839      696F00
 2840              	.LASF92:
 2841 042c 65776D61 		.ascii	"ewmask\000"
 2841      736B00
 2842              	.LASF28:
 2843 0433 705F6E65 		.ascii	"p_next\000"
 2843      787400
 2844              	.LASF18:
 2845 043a 746D6F64 		.ascii	"tmode_t\000"
 2845      655F7400 
 2846              	.LASF36:
 2847 0442 705F666C 		.ascii	"p_flags\000"
 2847      61677300 
 2848              	.LASF145:
 2849 044a 5F5F6675 		.ascii	"__func__\000"
 2849      6E635F5F 
 2849      00
 2850              	.LASF128:
 2851 0453 63685379 		.ascii	"chSysLock\000"
 2851      734C6F63 
 2851      6B00
 2852              	.LASF144:
 2853 045d 63685654 		.ascii	"chVTIsArmedI\000"
 2853      49734172 
 2853      6D656449 
 2853      00
 2854              	.LASF125:
 2855 046a 63684576 		.ascii	"chEvtBroadcastI\000"
 2855      7442726F 
 2855      61646361 
 2855      73744900 
 2856              	.LASF60:
 2857 047a 63685F76 		.ascii	"ch_virtual_timer\000"
 2857      69727475 
 2857      616C5F74 
 2857      696D6572 
 2857      00
 2858              	.LASF127:
 2859 048b 63685654 		.ascii	"chVTResetI\000"
 2859      52657365 
ARM GAS  /tmp/cckYb9Bl.s 			page 55


 2859      744900
 2860              	.LASF93:
 2861 0496 63685F73 		.ascii	"ch_semaphore\000"
 2861      656D6170 
 2861      686F7265 
 2861      00
 2862              	.LASF40:
 2863 04a3 705F6570 		.ascii	"p_epending\000"
 2863      656E6469 
 2863      6E6700
 2864              	.LASF15:
 2865 04ae 75696E74 		.ascii	"uint32_t\000"
 2865      33325F74 
 2865      00
 2866              	.LASF91:
 2867 04b7 77746D74 		.ascii	"wtmtxp\000"
 2867      787000
 2868              	.LASF143:
 2869 04be 2F6E6673 		.ascii	"/nfs/nfs4/home/cojthack/442FinalProject/milestone3\000"
 2869      2F6E6673 
 2869      342F686F 
 2869      6D652F63 
 2869      6F6A7468 
 2870              	.LASF112:
 2871 04f1 65745F76 		.ascii	"et_vt\000"
 2871      7400
 2872              	.LASF47:
 2873 04f7 63685F74 		.ascii	"ch_threads_list\000"
 2873      68726561 
 2873      64735F6C 
 2873      69737400 
 2874              	.LASF9:
 2875 0507 6C6F6E67 		.ascii	"long unsigned int\000"
 2875      20756E73 
 2875      69676E65 
 2875      6420696E 
 2875      7400
 2876              	.LASF100:
 2877 0519 63686172 		.ascii	"char\000"
 2877      00
 2878              	.LASF146:
 2879 051e 746D7263 		.ascii	"tmrcb\000"
 2879      6200
 2880              	.LASF119:
 2881 0524 706F7274 		.ascii	"port_unlock_from_isr\000"
 2881      5F756E6C 
 2881      6F636B5F 
 2881      66726F6D 
 2881      5F697372 
 2882              	.LASF27:
 2883 0539 74687265 		.ascii	"thread_t\000"
 2883      61645F74 
 2883      00
 2884              	.LASF141:
 2885 0542 474E5520 		.ascii	"GNU C 4.8.4 20140526 (release) [ARM/embedded-4_8-br"
 2885      4320342E 
 2885      382E3420 
ARM GAS  /tmp/cckYb9Bl.s 			page 56


 2885      32303134 
 2885      30353236 
 2886 0575 616E6368 		.ascii	"anch revision 211358] -mcpu=cortex-m4 -mno-thumb-in"
 2886      20726576 
 2886      6973696F 
 2886      6E203231 
 2886      31333538 
 2887 05a8 74657277 		.ascii	"terwork -mthumb -ggdb -O2 -fomit-frame-pointer -fal"
 2887      6F726B20 
 2887      2D6D7468 
 2887      756D6220 
 2887      2D676764 
 2888 05db 69676E2D 		.ascii	"ign-functions=16 -ffunction-sections -fdata-section"
 2888      66756E63 
 2888      74696F6E 
 2888      733D3136 
 2888      202D6666 
 2889 060e 73202D66 		.ascii	"s -fno-common\000"
 2889      6E6F2D63 
 2889      6F6D6D6F 
 2889      6E00
 2890              	.LASF99:
 2891 061c 6D5F6E65 		.ascii	"m_next\000"
 2891      787400
 2892              	.LASF26:
 2893 0623 73797374 		.ascii	"systime_t\000"
 2893      696D655F 
 2893      7400
 2894              	.LASF42:
 2895 062d 705F7265 		.ascii	"p_realprio\000"
 2895      616C7072 
 2895      696F00
 2896              	.LASF58:
 2897 0638 76746675 		.ascii	"vtfunc_t\000"
 2897      6E635F74 
 2897      00
 2898              	.LASF8:
 2899 0641 5F5F7569 		.ascii	"__uint32_t\000"
 2899      6E743332 
 2899      5F7400
 2900              	.LASF120:
 2901 064c 5F5F7365 		.ascii	"__set_BASEPRI\000"
 2901      745F4241 
 2901      53455052 
 2901      4900
 2902              	.LASF71:
 2903 065a 70616E69 		.ascii	"panic_msg\000"
 2903      635F6D73 
 2903      6700
 2904              	.LASF83:
 2905 0664 6F666673 		.ascii	"offset\000"
 2905      657400
 2906              	.LASF81:
 2907 066b 636F6E74 		.ascii	"context\000"
 2907      65787400 
 2908              	.LASF17:
 2909 0673 7274636E 		.ascii	"rtcnt_t\000"
ARM GAS  /tmp/cckYb9Bl.s 			page 57


 2909      745F7400 
 2910              	.LASF118:
 2911 067b 706F7274 		.ascii	"port_lock_from_isr\000"
 2911      5F6C6F63 
 2911      6B5F6672 
 2911      6F6D5F69 
 2911      737200
 2912              	.LASF65:
 2913 068e 76745F70 		.ascii	"vt_par\000"
 2913      617200
 2914              	.LASF133:
 2915 0695 76746675 		.ascii	"vtfunc\000"
 2915      6E6300
 2916              	.LASF48:
 2917 069c 74687265 		.ascii	"threads_queue_t\000"
 2917      6164735F 
 2917      71756575 
 2917      655F7400 
 2918              	.LASF96:
 2919 06ac 63685F6D 		.ascii	"ch_mutex\000"
 2919      75746578 
 2919      00
 2920              	.LASF110:
 2921 06b5 65735F6E 		.ascii	"es_next\000"
 2921      65787400 
 2922              	.LASF74:
 2923 06bd 726C6973 		.ascii	"rlist\000"
 2923      7400
 2924              	.LASF109:
 2925 06c3 6576656E 		.ascii	"event_source\000"
 2925      745F736F 
 2925      75726365 
 2925      00
 2926              	.LASF13:
 2927 06d0 75696E74 		.ascii	"uint8_t\000"
 2927      385F7400 
 2928              	.LASF124:
 2929 06d8 63685379 		.ascii	"chSysLockFromISR\000"
 2929      734C6F63 
 2929      6B46726F 
 2929      6D495352 
 2929      00
 2930              	.LASF34:
 2931 06e9 705F6E61 		.ascii	"p_name\000"
 2931      6D6500
 2932              	.LASF45:
 2933 06f0 74687265 		.ascii	"threads_list_t\000"
 2933      6164735F 
 2933      6C697374 
 2933      5F7400
 2934              	.LASF129:
 2935 06ff 63685379 		.ascii	"chSysUnlock\000"
 2935      73556E6C 
 2935      6F636B00 
 2936              	.LASF115:
 2937 070b 6576656E 		.ascii	"event_timer_t\000"
 2937      745F7469 
ARM GAS  /tmp/cckYb9Bl.s 			page 58


 2937      6D65725F 
 2937      7400
 2938              	.LASF98:
 2939 0719 6D5F6F77 		.ascii	"m_owner\000"
 2939      6E657200 
 2940              	.LASF31:
 2941 0721 705F6374 		.ascii	"p_ctx\000"
 2941      7800
 2942              	.LASF64:
 2943 0727 76745F66 		.ascii	"vt_func\000"
 2943      756E6300 
 2944              	.LASF103:
 2945 072f 6576656E 		.ascii	"event_listener\000"
 2945      745F6C69 
 2945      7374656E 
 2945      657200
 2946              		.ident	"GCC: (GNU Tools for ARM Embedded Processors) 4.8.4 20140526 (release) [ARM/embedded-4_8-br
ARM GAS  /tmp/cckYb9Bl.s 			page 59


DEFINED SYMBOLS
                            *ABS*:00000000 evtimer.c
     /tmp/cckYb9Bl.s:19     .text.tmrcb:00000000 $t
     /tmp/cckYb9Bl.s:24     .text.tmrcb:00000000 tmrcb
     /tmp/cckYb9Bl.s:102    .text.tmrcb:00000028 $d
     /tmp/cckYb9Bl.s:112    .text.evtObjectInit:00000000 $t
     /tmp/cckYb9Bl.s:118    .text.evtObjectInit:00000000 evtObjectInit
     /tmp/cckYb9Bl.s:156    .text.evtStart:00000000 $t
     /tmp/cckYb9Bl.s:162    .text.evtStart:00000000 evtStart
     /tmp/cckYb9Bl.s:245    .text.evtStart:00000028 $d
                     .debug_frame:00000010 $d
     /tmp/cckYb9Bl.s:111    .text.tmrcb:0000002c $t
     /tmp/cckYb9Bl.s:255    .text.evtStart:0000002c $t

UNDEFINED SYMBOLS
chEvtBroadcastFlagsI
chVTDoSetI
chVTDoResetI
