ARM GAS  /tmp/cc0k7Bxn.s 			page 1


   1              		.syntax unified
   2              		.cpu cortex-m4
   3              		.fpu softvfp
   4              		.eabi_attribute 20, 1
   5              		.eabi_attribute 21, 1
   6              		.eabi_attribute 23, 3
   7              		.eabi_attribute 24, 1
   8              		.eabi_attribute 25, 1
   9              		.eabi_attribute 26, 1
  10              		.eabi_attribute 30, 2
  11              		.eabi_attribute 34, 1
  12              		.eabi_attribute 18, 4
  13              		.thumb
  14              		.file	"fatfs_diskio.c"
  15              		.text
  16              	.Ltext0:
  17              		.cfi_sections	.debug_frame
  18              		.section	.text.disk_initialize,"ax",%progbits
  19              		.align	2
  20              		.p2align 4,,15
  21              		.global	disk_initialize
  22              		.thumb
  23              		.thumb_func
  24              		.type	disk_initialize, %function
  25              	disk_initialize:
  26              	.LFB272:
  27              		.file 1 "../ChibiOS/os/various/fatfs_bindings/fatfs_diskio.c"
  28              		.loc 1 42 0
  29              		.cfi_startproc
  30              		@ args = 0, pretend = 0, frame = 0
  31              		@ frame_needed = 0, uses_anonymous_args = 0
  32              	.LVL0:
  33 0000 10B5     		push	{r4, lr}
  34              		.cfi_def_cfa_offset 8
  35              		.cfi_offset 4, -8
  36              		.cfi_offset 14, -4
  37              		.loc 1 45 0
  38 0002 60B9     		cbnz	r0, .L8
  39              	.LVL1:
  40              		.loc 1 50 0
  41 0004 0748     		ldr	r0, .L10
  42              	.LVL2:
  43 0006 0479     		ldrb	r4, [r0, #4]	@ zero_extendqisi2
  44              		.loc 1 48 0
  45 0008 053C     		subs	r4, r4, #5
  46 000a 18BF     		it	ne
  47 000c 0124     		movne	r4, #1
  48              	.LVL3:
  49              		.loc 1 52 0
  50 000e FFF7FEFF 		bl	mmc_lld_is_write_protected
  51              	.LVL4:
  52 0012 10B1     		cbz	r0, .L2
  53              		.loc 1 53 0
  54 0014 44F00404 		orr	r4, r4, #4
  55              	.LVL5:
  56 0018 E4B2     		uxtb	r4, r4
  57              	.L2:
ARM GAS  /tmp/cc0k7Bxn.s 			page 2


  58              		.loc 1 67 0
  59 001a 2046     		mov	r0, r4
  60 001c 10BD     		pop	{r4, pc}
  61              	.LVL6:
  62              	.L8:
  63              		.loc 1 66 0
  64 001e 0124     		movs	r4, #1
  65              		.loc 1 67 0
  66 0020 2046     		mov	r0, r4
  67              	.LVL7:
  68 0022 10BD     		pop	{r4, pc}
  69              	.L11:
  70              		.align	2
  71              	.L10:
  72 0024 00000000 		.word	MMCD1
  73              		.cfi_endproc
  74              	.LFE272:
  75              		.size	disk_initialize, .-disk_initialize
  76 0028 AFF30080 		.section	.text.disk_status,"ax",%progbits
  76      AFF30080 
  77              		.align	2
  78              		.p2align 4,,15
  79              		.global	disk_status
  80              		.thumb
  81              		.thumb_func
  82              		.type	disk_status, %function
  83              	disk_status:
  84              	.LFB273:
  85              		.loc 1 77 0
  86              		.cfi_startproc
  87              		@ args = 0, pretend = 0, frame = 0
  88              		@ frame_needed = 0, uses_anonymous_args = 0
  89              	.LVL8:
  90 0000 10B5     		push	{r4, lr}
  91              		.cfi_def_cfa_offset 8
  92              		.cfi_offset 4, -8
  93              		.cfi_offset 14, -4
  94              		.loc 1 80 0
  95 0002 60B9     		cbnz	r0, .L19
  96              	.LVL9:
  97              		.loc 1 85 0
  98 0004 0748     		ldr	r0, .L20
  99              	.LVL10:
 100 0006 0479     		ldrb	r4, [r0, #4]	@ zero_extendqisi2
 101              		.loc 1 83 0
 102 0008 053C     		subs	r4, r4, #5
 103 000a 18BF     		it	ne
 104 000c 0124     		movne	r4, #1
 105              	.LVL11:
 106              		.loc 1 87 0
 107 000e FFF7FEFF 		bl	mmc_lld_is_write_protected
 108              	.LVL12:
 109 0012 10B1     		cbz	r0, .L13
 110              		.loc 1 88 0
 111 0014 44F00404 		orr	r4, r4, #4
 112              	.LVL13:
 113 0018 E4B2     		uxtb	r4, r4
ARM GAS  /tmp/cc0k7Bxn.s 			page 3


 114              	.L13:
 115              		.loc 1 102 0
 116 001a 2046     		mov	r0, r4
 117 001c 10BD     		pop	{r4, pc}
 118              	.LVL14:
 119              	.L19:
 120              		.loc 1 101 0
 121 001e 0124     		movs	r4, #1
 122              		.loc 1 102 0
 123 0020 2046     		mov	r0, r4
 124              	.LVL15:
 125 0022 10BD     		pop	{r4, pc}
 126              	.L21:
 127              		.align	2
 128              	.L20:
 129 0024 00000000 		.word	MMCD1
 130              		.cfi_endproc
 131              	.LFE273:
 132              		.size	disk_status, .-disk_status
 133 0028 AFF30080 		.section	.text.disk_read,"ax",%progbits
 133      AFF30080 
 134              		.align	2
 135              		.p2align 4,,15
 136              		.global	disk_read
 137              		.thumb
 138              		.thumb_func
 139              		.type	disk_read, %function
 140              	disk_read:
 141              	.LFB274:
 142              		.loc 1 115 0
 143              		.cfi_startproc
 144              		@ args = 0, pretend = 0, frame = 8
 145              		@ frame_needed = 0, uses_anonymous_args = 0
 146              	.LVL16:
 147 0000 10B5     		push	{r4, lr}
 148              		.cfi_def_cfa_offset 8
 149              		.cfi_offset 4, -8
 150              		.cfi_offset 14, -4
 151 0002 0C46     		mov	r4, r1
 152 0004 82B0     		sub	sp, sp, #8
 153              		.cfi_def_cfa_offset 16
 154              		.loc 1 116 0
 155 0006 10B1     		cbz	r0, .L36
 156              		.loc 1 141 0
 157 0008 0420     		movs	r0, #4
 158              	.LVL17:
 159              	.L23:
 160              		.loc 1 142 0
 161 000a 02B0     		add	sp, sp, #8
 162              		@ sp needed
 163 000c 10BD     		pop	{r4, pc}
 164              	.LVL18:
 165              	.L36:
 166              		.loc 1 119 0
 167 000e 1148     		ldr	r0, .L38
 168              	.LVL19:
 169 0010 0179     		ldrb	r1, [r0, #4]	@ zero_extendqisi2
ARM GAS  /tmp/cc0k7Bxn.s 			page 4


 170              	.LVL20:
 171 0012 0529     		cmp	r1, #5
 172              		.loc 1 120 0
 173 0014 18BF     		it	ne
 174 0016 0320     		movne	r0, #3
 175              		.loc 1 119 0
 176 0018 F7D1     		bne	.L23
 177              		.loc 1 121 0
 178 001a 1146     		mov	r1, r2
 179 001c 0193     		str	r3, [sp, #4]
 180 001e FFF7FEFF 		bl	mmcStartSequentialRead
 181              	.LVL21:
 182 0022 019B     		ldr	r3, [sp, #4]
 183 0024 68B9     		cbnz	r0, .L27
 184              	.LVL22:
 185              		.loc 1 123 0 discriminator 1
 186 0026 13B9     		cbnz	r3, .L29
 187 0028 0DE0     		b	.L28
 188              	.LVL23:
 189              	.L37:
 190              		.loc 1 123 0 is_stmt 0
 191 002a 013B     		subs	r3, r3, #1
 192              	.LVL24:
 193 002c 0BD0     		beq	.L28
 194              	.LVL25:
 195              	.L29:
 196              		.loc 1 124 0 is_stmt 1
 197 002e 2146     		mov	r1, r4
 198 0030 0848     		ldr	r0, .L38
 199 0032 0193     		str	r3, [sp, #4]
 200 0034 FFF7FEFF 		bl	mmcSequentialRead
 201              	.LVL26:
 202              		.loc 1 126 0
 203 0038 04F50074 		add	r4, r4, #512
 204              	.LVL27:
 205              		.loc 1 124 0
 206 003c 019B     		ldr	r3, [sp, #4]
 207 003e 0028     		cmp	r0, #0
 208 0040 F3D0     		beq	.L37
 209              	.LVL28:
 210              	.L27:
 211              		.loc 1 122 0
 212 0042 0120     		movs	r0, #1
 213 0044 E1E7     		b	.L23
 214              	.L28:
 215              		.loc 1 129 0
 216 0046 0348     		ldr	r0, .L38
 217              		.loc 1 142 0
 218 0048 02B0     		add	sp, sp, #8
 219              		@ sp needed
 220 004a BDE81040 		pop	{r4, lr}
 221              	.LVL29:
 222              		.loc 1 129 0
 223 004e FFF7FEBF 		b	mmcStopSequentialRead
 224              	.LVL30:
 225              	.L39:
 226 0052 00BF     		.align	2
ARM GAS  /tmp/cc0k7Bxn.s 			page 5


 227              	.L38:
 228 0054 00000000 		.word	MMCD1
 229              		.cfi_endproc
 230              	.LFE274:
 231              		.size	disk_read, .-disk_read
 232 0058 AFF30080 		.section	.text.disk_write,"ax",%progbits
 232      AFF30080 
 233              		.align	2
 234              		.p2align 4,,15
 235              		.global	disk_write
 236              		.thumb
 237              		.thumb_func
 238              		.type	disk_write, %function
 239              	disk_write:
 240              	.LFB275:
 241              		.loc 1 156 0
 242              		.cfi_startproc
 243              		@ args = 0, pretend = 0, frame = 8
 244              		@ frame_needed = 0, uses_anonymous_args = 0
 245              	.LVL31:
 246 0000 30B5     		push	{r4, r5, lr}
 247              		.cfi_def_cfa_offset 12
 248              		.cfi_offset 4, -12
 249              		.cfi_offset 5, -8
 250              		.cfi_offset 14, -4
 251 0002 0C46     		mov	r4, r1
 252 0004 83B0     		sub	sp, sp, #12
 253              		.cfi_def_cfa_offset 24
 254              		.loc 1 157 0
 255 0006 10B1     		cbz	r0, .L55
 256              		.loc 1 184 0
 257 0008 0420     		movs	r0, #4
 258              	.LVL32:
 259              	.L41:
 260              		.loc 1 185 0
 261 000a 03B0     		add	sp, sp, #12
 262              		@ sp needed
 263 000c 30BD     		pop	{r4, r5, pc}
 264              	.LVL33:
 265              	.L55:
 266              		.loc 1 160 0
 267 000e 154D     		ldr	r5, .L58
 268 0010 2979     		ldrb	r1, [r5, #4]	@ zero_extendqisi2
 269              	.LVL34:
 270 0012 0529     		cmp	r1, #5
 271              		.loc 1 161 0
 272 0014 18BF     		it	ne
 273 0016 0320     		movne	r0, #3
 274              	.LVL35:
 275              		.loc 1 160 0
 276 0018 F7D1     		bne	.L41
 277              		.loc 1 162 0
 278 001a 2846     		mov	r0, r5
 279 001c 0192     		str	r2, [sp, #4]
 280 001e 0093     		str	r3, [sp]
 281 0020 FFF7FEFF 		bl	mmc_lld_is_write_protected
 282              	.LVL36:
ARM GAS  /tmp/cc0k7Bxn.s 			page 6


 283 0024 019A     		ldr	r2, [sp, #4]
 284 0026 08B1     		cbz	r0, .L56
 285              		.loc 1 163 0
 286 0028 0220     		movs	r0, #2
 287 002a EEE7     		b	.L41
 288              	.L56:
 289              		.loc 1 164 0
 290 002c 2846     		mov	r0, r5
 291 002e 1146     		mov	r1, r2
 292 0030 FFF7FEFF 		bl	mmcStartSequentialWrite
 293              	.LVL37:
 294 0034 009B     		ldr	r3, [sp]
 295 0036 68B9     		cbnz	r0, .L45
 296              	.LVL38:
 297              		.loc 1 166 0 discriminator 1
 298 0038 13B9     		cbnz	r3, .L47
 299 003a 0DE0     		b	.L46
 300              	.LVL39:
 301              	.L57:
 302              		.loc 1 166 0 is_stmt 0
 303 003c 013B     		subs	r3, r3, #1
 304              	.LVL40:
 305 003e 0BD0     		beq	.L46
 306              	.LVL41:
 307              	.L47:
 308              		.loc 1 167 0 is_stmt 1
 309 0040 2146     		mov	r1, r4
 310 0042 0848     		ldr	r0, .L58
 311 0044 0093     		str	r3, [sp]
 312 0046 FFF7FEFF 		bl	mmcSequentialWrite
 313              	.LVL42:
 314              		.loc 1 169 0
 315 004a 04F50074 		add	r4, r4, #512
 316              	.LVL43:
 317              		.loc 1 167 0
 318 004e 009B     		ldr	r3, [sp]
 319 0050 0028     		cmp	r0, #0
 320 0052 F3D0     		beq	.L57
 321              	.LVL44:
 322              	.L45:
 323              		.loc 1 165 0
 324 0054 0120     		movs	r0, #1
 325 0056 D8E7     		b	.L41
 326              	.L46:
 327              		.loc 1 172 0
 328 0058 0248     		ldr	r0, .L58
 329              		.loc 1 185 0
 330 005a 03B0     		add	sp, sp, #12
 331              		@ sp needed
 332 005c BDE83040 		pop	{r4, r5, lr}
 333              	.LVL45:
 334              		.loc 1 172 0
 335 0060 FFF7FEBF 		b	mmcStopSequentialWrite
 336              	.LVL46:
 337              	.L59:
 338              		.align	2
 339              	.L58:
ARM GAS  /tmp/cc0k7Bxn.s 			page 7


 340 0064 00000000 		.word	MMCD1
 341              		.cfi_endproc
 342              	.LFE275:
 343              		.size	disk_write, .-disk_write
 344 0068 AFF30080 		.section	.text.disk_ioctl,"ax",%progbits
 344      AFF30080 
 345              		.align	2
 346              		.p2align 4,,15
 347              		.global	disk_ioctl
 348              		.thumb
 349              		.thumb_func
 350              		.type	disk_ioctl, %function
 351              	disk_ioctl:
 352              	.LFB276:
 353              		.loc 1 199 0
 354              		.cfi_startproc
 355              		@ args = 0, pretend = 0, frame = 0
 356              		@ frame_needed = 0, uses_anonymous_args = 0
 357              		@ link register save eliminated.
 358              	.LVL47:
 359              		.loc 1 200 0
 360 0000 08B1     		cbz	r0, .L69
 361              	.L68:
 362              		.loc 1 215 0
 363 0002 0420     		movs	r0, #4
 364              	.LVL48:
 365              		.loc 1 242 0
 366 0004 7047     		bx	lr
 367              	.LVL49:
 368              	.L69:
 369              		.loc 1 203 0
 370 0006 29B1     		cbz	r1, .L63
 371 0008 0229     		cmp	r1, #2
 372 000a FAD1     		bne	.L68
 373              		.loc 1 207 0
 374 000c 4FF40073 		mov	r3, #512
 375 0010 1380     		strh	r3, [r2]	@ movhi
 376              		.loc 1 208 0
 377 0012 7047     		bx	lr
 378              	.L63:
 379              		.loc 1 205 0
 380 0014 0846     		mov	r0, r1
 381              	.LVL50:
 382 0016 7047     		bx	lr
 383              		.cfi_endproc
 384              	.LFE276:
 385              		.size	disk_ioctl, .-disk_ioctl
 386 0018 AFF30080 		.section	.text.get_fattime,"ax",%progbits
 386      AFF30080 
 387              		.align	2
 388              		.p2align 4,,15
 389              		.global	get_fattime
 390              		.thumb
 391              		.thumb_func
 392              		.type	get_fattime, %function
 393              	get_fattime:
 394              	.LFB277:
ARM GAS  /tmp/cc0k7Bxn.s 			page 8


 395              		.loc 1 245 0
 396              		.cfi_startproc
 397              		@ args = 0, pretend = 0, frame = 0
 398              		@ frame_needed = 0, uses_anonymous_args = 0
 399              		@ link register save eliminated.
 400              		.loc 1 254 0
 401 0000 4FF40410 		mov	r0, #2162688
 402 0004 7047     		bx	lr
 403              		.cfi_endproc
 404              	.LFE277:
 405              		.size	get_fattime, .-get_fattime
 406 0006 00BFAFF3 		.text
 406      0080AFF3 
 406      0080
 407              	.Letext0:
 408              		.file 2 "/nfs/nfs5/home/research/hardware/arm2/gcc-arm-embedded/gcc-arm-none-eabi-4_8-2014q2/lib/g
 409              		.file 3 "/nfs/nfs5/home/research/hardware/arm2/gcc-arm-embedded/gcc-arm-none-eabi-4_8-2014q2/arm-n
 410              		.file 4 "/nfs/nfs5/home/research/hardware/arm2/gcc-arm-embedded/gcc-arm-none-eabi-4_8-2014q2/arm-n
 411              		.file 5 "../ChibiOS/os/rt/ports/ARMCMx/compilers/GCC/chtypes.h"
 412              		.file 6 "../ChibiOS/os/rt/include/chsystypes.h"
 413              		.file 7 "../ChibiOS/os/rt/include/chschd.h"
 414              		.file 8 "../ChibiOS/os/ext/CMSIS/ST/STM32F3xx/stm32f303xc.h"
 415              		.file 9 "../ChibiOS/os/rt/ports/ARMCMx/chcore.h"
 416              		.file 10 "../ChibiOS/os/rt/ports/ARMCMx/chcore_v7m.h"
 417              		.file 11 "../ChibiOS/os/rt/include/chtm.h"
 418              		.file 12 "../ChibiOS/os/rt/include/chsem.h"
 419              		.file 13 "../ChibiOS/os/rt/include/chmtx.h"
 420              		.file 14 "../ChibiOS/os/hal/ports/STM32/LLD/DMAv1/stm32_dma.h"
 421              		.file 15 "../ChibiOS/os/hal/include/hal_ioblock.h"
 422              		.file 16 "../ChibiOS/os/hal/ports/STM32/LLD/GPIOv2/pal_lld.h"
 423              		.file 17 "../ChibiOS/os/hal/include/spi.h"
 424              		.file 18 "../ChibiOS/os/hal/ports/STM32/LLD/SPIv2/spi_lld.h"
 425              		.file 19 "../ChibiOS/os/hal/include/mmc_spi.h"
 426              		.file 20 "../ChibiOS/ext/fatfs/src/integer.h"
 427              		.file 21 "../ChibiOS/ext/fatfs/src/diskio.h"
 428              		.file 22 "../ChibiOS/os/ext/CMSIS/include/core_cm4.h"