ARM GAS  /tmp/ccZHgRNF.s 			page 1


   1              		.syntax unified
   2              		.cpu cortex-m4
   3              		.fpu softvfp
   4              		.eabi_attribute 20, 1
   5              		.eabi_attribute 21, 1
   6              		.eabi_attribute 23, 3
   7              		.eabi_attribute 24, 1
   8              		.eabi_attribute 25, 1
   9              		.eabi_attribute 26, 1
  10              		.eabi_attribute 30, 2
  11              		.eabi_attribute 34, 1
  12              		.eabi_attribute 18, 4
  13              		.thumb
  14              		.file	"ff.c"
  15              		.text
  16              	.Ltext0:
  17              		.cfi_sections	.debug_frame
  18              		.section	.text.get_ldnumber,"ax",%progbits
  19              		.align	2
  20              		.p2align 4,,15
  21              		.thumb
  22              		.thumb_func
  23              		.type	get_ldnumber, %function
  24              	get_ldnumber:
  25              	.LFB265:
  26              		.file 1 "../ChibiOS/ext/fatfs/src/ff.c"
  27              		.loc 1 2080 0
  28              		.cfi_startproc
  29              		@ args = 0, pretend = 0, frame = 0
  30              		@ frame_needed = 0, uses_anonymous_args = 0
  31              		@ link register save eliminated.
  32              	.LVL0:
  33 0000 70B4     		push	{r4, r5, r6}
  34              		.cfi_def_cfa_offset 12
  35              		.cfi_offset 4, -12
  36              		.cfi_offset 5, -8
  37              		.cfi_offset 6, -4
  38              		.loc 1 2086 0
  39 0002 0468     		ldr	r4, [r0]
  40 0004 9CB1     		cbz	r4, .L12
  41              	.LVL1:
  42              		.loc 1 2087 0 discriminator 1
  43 0006 2578     		ldrb	r5, [r4]	@ zero_extendqisi2
  44 0008 202D     		cmp	r5, #32
  45 000a 0BD9     		bls	.L9
  46              		.loc 1 2087 0 is_stmt 0
  47 000c 3A2D     		cmp	r5, #58
  48 000e 0ED0     		beq	.L12
  49 0010 661C     		adds	r6, r4, #1
  50 0012 3346     		mov	r3, r6
  51 0014 01E0     		b	.L4
  52              	.LVL2:
  53              	.L15:
  54              		.loc 1 2087 0 discriminator 2
  55 0016 3A2A     		cmp	r2, #58
  56 0018 07D0     		beq	.L14
  57              	.LVL3:
ARM GAS  /tmp/ccZHgRNF.s 			page 2


  58              	.L4:
  59              		.loc 1 2087 0 discriminator 1
  60 001a 1946     		mov	r1, r3
  61              	.LVL4:
  62 001c 13F8012B 		ldrb	r2, [r3], #1	@ zero_extendqisi2
  63              	.LVL5:
  64 0020 202A     		cmp	r2, #32
  65 0022 F8D8     		bhi	.L15
  66              	.LVL6:
  67              	.L9:
  68              		.loc 1 2122 0 is_stmt 1
  69 0024 0020     		movs	r0, #0
  70              	.LVL7:
  71              	.L11:
  72              		.loc 1 2126 0
  73 0026 70BC     		pop	{r4, r5, r6}
  74 0028 7047     		bx	lr
  75              	.LVL8:
  76              	.L14:
  77              		.loc 1 2091 0
  78 002a 8E42     		cmp	r6, r1
  79 002c 03D0     		beq	.L5
  80              	.LVL9:
  81              	.L12:
  82              		.loc 1 2083 0
  83 002e 4FF0FF30 		mov	r0, #-1
  84              	.LVL10:
  85              		.loc 1 2126 0
  86 0032 70BC     		pop	{r4, r5, r6}
  87 0034 7047     		bx	lr
  88              	.LVL11:
  89              	.L5:
  90              		.loc 1 2092 0
  91 0036 302D     		cmp	r5, #48
  92 0038 F9D1     		bne	.L12
  93              	.LVL12:
  94              		.loc 1 2094 0
  95 003a 0234     		adds	r4, r4, #2
  96              	.LVL13:
  97 003c 0460     		str	r4, [r0]
  98              		.loc 1 2090 0
  99 003e 0020     		movs	r0, #0
 100              	.LVL14:
 101 0040 F1E7     		b	.L11
 102              		.cfi_endproc
 103              	.LFE265:
 104              		.size	get_ldnumber, .-get_ldnumber
 105 0042 00BFAFF3 		.section	.text.validate,"ax",%progbits
 105      0080AFF3 
 105      0080AFF3 
 105      0080
 106              		.align	2
 107              		.p2align 4,,15
 108              		.thumb
 109              		.thumb_func
 110              		.type	validate, %function
 111              	validate:
ARM GAS  /tmp/ccZHgRNF.s 			page 3


 112              	.LFB268:
 113              		.loc 1 2338 0
 114              		.cfi_startproc
 115              		@ args = 0, pretend = 0, frame = 0
 116              		@ frame_needed = 0, uses_anonymous_args = 0
 117              	.LVL15:
 118 0000 08B5     		push	{r3, lr}
 119              		.cfi_def_cfa_offset 8
 120              		.cfi_offset 3, -8
 121              		.cfi_offset 14, -4
 122              		.loc 1 2342 0
 123 0002 18B1     		cbz	r0, .L21
 124              		.loc 1 2342 0 is_stmt 0 discriminator 1
 125 0004 0368     		ldr	r3, [r0]
 126 0006 0BB1     		cbz	r3, .L21
 127 0008 1A78     		ldrb	r2, [r3]	@ zero_extendqisi2
 128 000a 0AB9     		cbnz	r2, .L23
 129              	.L21:
 130              		.loc 1 2343 0 is_stmt 1
 131 000c 0920     		movs	r0, #9
 132              	.LVL16:
 133              		.loc 1 2351 0
 134 000e 08BD     		pop	{r3, pc}
 135              	.LVL17:
 136              	.L23:
 137              		.loc 1 2342 0 discriminator 1
 138 0010 8288     		ldrh	r2, [r0, #4]
 139 0012 D988     		ldrh	r1, [r3, #6]
 140 0014 9142     		cmp	r1, r2
 141 0016 F9D1     		bne	.L21
 142              		.loc 1 2347 0
 143 0018 5878     		ldrb	r0, [r3, #1]	@ zero_extendqisi2
 144              	.LVL18:
 145 001a FFF7FEFF 		bl	disk_status
 146              	.LVL19:
 147 001e 10F0010F 		tst	r0, #1
 148              		.loc 1 2348 0
 149 0022 0CBF     		ite	eq
 150 0024 0020     		moveq	r0, #0
 151 0026 0320     		movne	r0, #3
 152 0028 08BD     		pop	{r3, pc}
 153              		.cfi_endproc
 154              	.LFE268:
 155              		.size	validate, .-validate
 156 002a 00BFAFF3 		.section	.text.get_fileinfo.isra.1,"ax",%progbits
 156      0080
 157              		.align	2
 158              		.p2align 4,,15
 159              		.thumb
 160              		.thumb_func
 161              		.type	get_fileinfo.isra.1, %function
 162              	get_fileinfo.isra.1:
 163              	.LFB288:
 164              		.loc 1 1735 0
 165              		.cfi_startproc
 166              		@ args = 0, pretend = 0, frame = 0
 167              		@ frame_needed = 0, uses_anonymous_args = 0
ARM GAS  /tmp/ccZHgRNF.s 			page 4


 168              		@ link register save eliminated.
 169              	.LVL20:
 170 0000 70B4     		push	{r4, r5, r6}
 171              		.cfi_def_cfa_offset 12
 172              		.cfi_offset 4, -12
 173              		.cfi_offset 5, -8
 174              		.cfi_offset 6, -4
 175              		.loc 1 1744 0
 176 0002 02F10904 		add	r4, r2, #9
 177              	.LVL21:
 178              		.loc 1 1745 0
 179 0006 58B3     		cbz	r0, .L25
 180              	.LBB148:
 181              		.loc 1 1746 0
 182 0008 0868     		ldr	r0, [r1]
 183              	.LVL22:
 184              		.loc 1 1753 0
 185 000a 2E25     		movs	r5, #46
 186              		.loc 1 1748 0
 187 000c 0021     		movs	r1, #0
 188              	.LVL23:
 189              	.L30:
 190              		.loc 1 1750 0
 191 000e 0131     		adds	r1, r1, #1
 192              	.LVL24:
 193 0010 4318     		adds	r3, r0, r1
 194 0012 13F8013C 		ldrb	r3, [r3, #-1]	@ zero_extendqisi2
 195              	.LVL25:
 196              		.loc 1 1751 0
 197 0016 202B     		cmp	r3, #32
 198 0018 09D0     		beq	.L26
 199              		.loc 1 1752 0
 200 001a 052B     		cmp	r3, #5
 201 001c 08BF     		it	eq
 202 001e E523     		moveq	r3, #229
 203              	.LVL26:
 204              		.loc 1 1753 0
 205 0020 0929     		cmp	r1, #9
 206 0022 04BF     		itt	eq
 207 0024 2570     		strbeq	r5, [r4]
 208 0026 0134     		addeq	r4, r4, #1
 209              	.LVL27:
 210              		.loc 1 1764 0
 211 0028 0134     		adds	r4, r4, #1
 212              	.LVL28:
 213 002a 04F8013C 		strb	r3, [r4, #-1]
 214              	.LVL29:
 215              	.L26:
 216              		.loc 1 1749 0
 217 002e 0B29     		cmp	r1, #11
 218 0030 EDD1     		bne	.L30
 219              		.loc 1 1766 0
 220 0032 C37A     		ldrb	r3, [r0, #11]	@ zero_extendqisi2
 221 0034 1372     		strb	r3, [r2, #8]
 222              		.loc 1 1767 0
 223 0036 837F     		ldrb	r3, [r0, #30]	@ zero_extendqisi2
 224 0038 C67F     		ldrb	r6, [r0, #31]	@ zero_extendqisi2
ARM GAS  /tmp/ccZHgRNF.s 			page 5


 225 003a 057F     		ldrb	r5, [r0, #28]	@ zero_extendqisi2
 226 003c 417F     		ldrb	r1, [r0, #29]	@ zero_extendqisi2
 227              	.LVL30:
 228 003e 1B04     		lsls	r3, r3, #16
 229 0040 43EA0663 		orr	r3, r3, r6, lsl #24
 230 0044 2B43     		orrs	r3, r3, r5
 231 0046 43EA0123 		orr	r3, r3, r1, lsl #8
 232 004a 1360     		str	r3, [r2]
 233              		.loc 1 1768 0
 234 004c 417E     		ldrb	r1, [r0, #25]	@ zero_extendqisi2
 235 004e 037E     		ldrb	r3, [r0, #24]	@ zero_extendqisi2
 236 0050 43EA0123 		orr	r3, r3, r1, lsl #8
 237 0054 9380     		strh	r3, [r2, #4]	@ movhi
 238              		.loc 1 1769 0
 239 0056 C17D     		ldrb	r1, [r0, #23]	@ zero_extendqisi2
 240 0058 837D     		ldrb	r3, [r0, #22]	@ zero_extendqisi2
 241 005a 43EA0123 		orr	r3, r3, r1, lsl #8
 242 005e D380     		strh	r3, [r2, #6]	@ movhi
 243              	.LVL31:
 244              	.L25:
 245              	.LBE148:
 246              		.loc 1 1771 0
 247 0060 0023     		movs	r3, #0
 248 0062 2370     		strb	r3, [r4]
 249              		.loc 1 1794 0
 250 0064 70BC     		pop	{r4, r5, r6}
 251              	.LVL32:
 252 0066 7047     		bx	lr
 253              		.cfi_endproc
 254              	.LFE288:
 255              		.size	get_fileinfo.isra.1, .-get_fileinfo.isra.1
 256 0068 AFF30080 		.section	.text.sync_window.part.3,"ax",%progbits
 256      AFF30080 
 257              		.align	2
 258              		.p2align 4,,15
 259              		.thumb
 260              		.thumb_func
 261              		.type	sync_window.part.3, %function
 262              	sync_window.part.3:
 263              	.LFB290:
 264              		.loc 1 755 0
 265              		.cfi_startproc
 266              		@ args = 0, pretend = 0, frame = 0
 267              		@ frame_needed = 0, uses_anonymous_args = 0
 268              	.LVL33:
 269 0000 F8B5     		push	{r3, r4, r5, r6, r7, lr}
 270              		.cfi_def_cfa_offset 24
 271              		.cfi_offset 3, -24
 272              		.cfi_offset 4, -20
 273              		.cfi_offset 5, -16
 274              		.cfi_offset 6, -12
 275              		.cfi_offset 7, -8
 276              		.cfi_offset 14, -4
 277              		.loc 1 764 0
 278 0002 C46A     		ldr	r4, [r0, #44]
 279              	.LVL34:
 280              		.loc 1 765 0
ARM GAS  /tmp/ccZHgRNF.s 			page 6


 281 0004 00F13007 		add	r7, r0, #48
 282              		.loc 1 755 0
 283 0008 0546     		mov	r5, r0
 284              		.loc 1 765 0
 285 000a 2246     		mov	r2, r4
 286 000c 4078     		ldrb	r0, [r0, #1]	@ zero_extendqisi2
 287              	.LVL35:
 288 000e 3946     		mov	r1, r7
 289 0010 0123     		movs	r3, #1
 290 0012 FFF7FEFF 		bl	disk_write
 291              	.LVL36:
 292 0016 B0B9     		cbnz	r0, .L44
 293              		.loc 1 768 0
 294 0018 2A6A     		ldr	r2, [r5, #32]
 295 001a AB69     		ldr	r3, [r5, #24]
 296              		.loc 1 767 0
 297 001c 2871     		strb	r0, [r5, #4]
 298              		.loc 1 768 0
 299 001e A21A     		subs	r2, r4, r2
 300 0020 9A42     		cmp	r2, r3
 301 0022 0ED2     		bcs	.L42
 302              		.loc 1 769 0
 303 0024 EE78     		ldrb	r6, [r5, #3]	@ zero_extendqisi2
 304              	.LVL37:
 305 0026 012E     		cmp	r6, #1
 306 0028 01D8     		bhi	.L43
 307 002a 0AE0     		b	.L42
 308              	.L48:
 309 002c AB69     		ldr	r3, [r5, #24]
 310              	.L43:
 311              		.loc 1 770 0
 312 002e 1C44     		add	r4, r4, r3
 313              	.LVL38:
 314              		.loc 1 769 0
 315 0030 013E     		subs	r6, r6, #1
 316              	.LVL39:
 317              		.loc 1 771 0
 318 0032 2246     		mov	r2, r4
 319 0034 6878     		ldrb	r0, [r5, #1]	@ zero_extendqisi2
 320 0036 3946     		mov	r1, r7
 321 0038 0123     		movs	r3, #1
 322 003a FFF7FEFF 		bl	disk_write
 323              	.LVL40:
 324              		.loc 1 769 0
 325 003e 012E     		cmp	r6, #1
 326 0040 F4D1     		bne	.L48
 327              	.LVL41:
 328              	.L42:
 329              		.loc 1 775 0
 330 0042 0020     		movs	r0, #0
 331 0044 F8BD     		pop	{r3, r4, r5, r6, r7, pc}
 332              	.LVL42:
 333              	.L44:
 334              		.loc 1 766 0
 335 0046 0120     		movs	r0, #1
 336              		.loc 1 776 0
 337 0048 F8BD     		pop	{r3, r4, r5, r6, r7, pc}
ARM GAS  /tmp/ccZHgRNF.s 			page 7


 338              		.cfi_endproc
 339              	.LFE290:
 340              		.size	sync_window.part.3, .-sync_window.part.3
 341 004a 00BFAFF3 		.section	.text.sync_fs,"ax",%progbits
 341      0080
 342              		.align	2
 343              		.p2align 4,,15
 344              		.thumb
 345              		.thumb_func
 346              		.type	sync_fs, %function
 347              	sync_fs:
 348              	.LFB247:
 349              		.loc 1 810 0
 350              		.cfi_startproc
 351              		@ args = 0, pretend = 0, frame = 0
 352              		@ frame_needed = 0, uses_anonymous_args = 0
 353              	.LVL43:
 354 0000 2DE9F84F 		push	{r3, r4, r5, r6, r7, r8, r9, r10, fp, lr}
 355              		.cfi_def_cfa_offset 40
 356              		.cfi_offset 3, -40
 357              		.cfi_offset 4, -36
 358              		.cfi_offset 5, -32
 359              		.cfi_offset 6, -28
 360              		.cfi_offset 7, -24
 361              		.cfi_offset 8, -20
 362              		.cfi_offset 9, -16
 363              		.cfi_offset 10, -12
 364              		.cfi_offset 11, -8
 365              		.cfi_offset 14, -4
 366              	.LBB149:
 367              	.LBB150:
 368              		.loc 1 763 0
 369 0004 0379     		ldrb	r3, [r0, #4]	@ zero_extendqisi2
 370              	.LBE150:
 371              	.LBE149:
 372              		.loc 1 810 0
 373 0006 0546     		mov	r5, r0
 374              	.LVL44:
 375              	.LBB153:
 376              	.LBB151:
 377              		.loc 1 763 0
 378 0008 63B9     		cbnz	r3, .L50
 379              	.LVL45:
 380              	.L53:
 381              	.LBE151:
 382              	.LBE153:
 383              		.loc 1 817 0
 384 000a 2B78     		ldrb	r3, [r5]	@ zero_extendqisi2
 385 000c 032B     		cmp	r3, #3
 386 000e 0FD0     		beq	.L62
 387              	.L52:
 388              		.loc 1 831 0
 389 0010 0021     		movs	r1, #0
 390 0012 6878     		ldrb	r0, [r5, #1]	@ zero_extendqisi2
 391 0014 0A46     		mov	r2, r1
 392 0016 FFF7FEFF 		bl	disk_ioctl
 393              	.LVL46:
ARM GAS  /tmp/ccZHgRNF.s 			page 8


 394 001a 0030     		adds	r0, r0, #0
 395 001c 18BF     		it	ne
 396 001e 0120     		movne	r0, #1
 397              	.LVL47:
 398              		.loc 1 836 0
 399 0020 BDE8F88F 		pop	{r3, r4, r5, r6, r7, r8, r9, r10, fp, pc}
 400              	.LVL48:
 401              	.L50:
 402              	.LBB154:
 403              	.LBB152:
 404 0024 FFF7FEFF 		bl	sync_window.part.3
 405              	.LVL49:
 406              	.LBE152:
 407              	.LBE154:
 408              		.loc 1 815 0
 409 0028 0028     		cmp	r0, #0
 410 002a EED0     		beq	.L53
 411              	.LVL50:
 412              		.loc 1 836 0
 413 002c BDE8F88F 		pop	{r3, r4, r5, r6, r7, r8, r9, r10, fp, pc}
 414              	.LVL51:
 415              	.L62:
 416              		.loc 1 817 0 discriminator 1
 417 0030 6B79     		ldrb	r3, [r5, #5]	@ zero_extendqisi2
 418 0032 012B     		cmp	r3, #1
 419 0034 ECD1     		bne	.L52
 420              		.loc 1 819 0
 421 0036 05F13001 		add	r1, r5, #48
 422              	.LVL52:
 423              	.LBB155:
 424              	.LBB156:
 425              		.loc 1 580 0
 426 003a 0B46     		mov	r3, r1
 427 003c 05F50C70 		add	r0, r5, #560
 428              		.loc 1 583 0
 429 0040 0022     		movs	r2, #0
 430              	.LVL53:
 431              	.L56:
 432 0042 03F8012B 		strb	r2, [r3], #1
 433              	.LVL54:
 434              		.loc 1 582 0
 435 0046 8342     		cmp	r3, r0
 436              		.loc 1 583 0
 437 0048 4FF00004 		mov	r4, #0
 438              		.loc 1 582 0
 439 004c F9D1     		bne	.L56
 440              	.LBE156:
 441              	.LBE155:
 442              		.loc 1 823 0
 443 004e 2869     		ldr	r0, [r5, #16]
 444              		.loc 1 824 0
 445 0050 EB68     		ldr	r3, [r5, #12]
 446              	.LVL55:
 447              		.loc 1 826 0
 448 0052 EA69     		ldr	r2, [r5, #28]
 449              		.loc 1 823 0
 450 0054 85F81802 		strb	r0, [r5, #536]
ARM GAS  /tmp/ccZHgRNF.s 			page 9


 451 0058 C0F30727 		ubfx	r7, r0, #8, #8
 452 005c 060C     		lsrs	r6, r0, #16
 453 005e 000E     		lsrs	r0, r0, #24
 454              		.loc 1 821 0
 455 0060 4FF0520E 		mov	lr, #82
 456              		.loc 1 824 0
 457 0064 C3F3072A 		ubfx	r10, r3, #8, #8
 458 0068 4FEA1349 		lsr	r9, r3, #16
 459 006c 4FEA1368 		lsr	r8, r3, #24
 460              		.loc 1 826 0
 461 0070 0132     		adds	r2, r2, #1
 462              		.loc 1 820 0
 463 0072 4FF0550C 		mov	ip, #85
 464              		.loc 1 823 0
 465 0076 85F81972 		strb	r7, [r5, #537]
 466 007a 85F81A62 		strb	r6, [r5, #538]
 467              		.loc 1 821 0
 468 007e 6127     		movs	r7, #97
 469 0080 4126     		movs	r6, #65
 470              		.loc 1 823 0
 471 0082 85F81B02 		strb	r0, [r5, #539]
 472              		.loc 1 820 0
 473 0086 4FF0AA0B 		mov	fp, #170
 474              		.loc 1 822 0
 475 008a 7220     		movs	r0, #114
 476              		.loc 1 824 0
 477 008c 85F81C32 		strb	r3, [r5, #540]
 478              		.loc 1 822 0
 479 0090 85F81402 		strb	r0, [r5, #532]
 480 0094 85F81502 		strb	r0, [r5, #533]
 481              		.loc 1 824 0
 482 0098 85F81DA2 		strb	r10, [r5, #541]
 483 009c 85F81E92 		strb	r9, [r5, #542]
 484 00a0 85F81F82 		strb	r8, [r5, #543]
 485              		.loc 1 826 0
 486 00a4 EA62     		str	r2, [r5, #44]
 487              		.loc 1 820 0
 488 00a6 85F82EC2 		strb	ip, [r5, #558]
 489 00aa 85F82FB2 		strb	fp, [r5, #559]
 490              		.loc 1 821 0
 491 00ae 85F830E0 		strb	lr, [r5, #48]
 492 00b2 85F831E0 		strb	lr, [r5, #49]
 493 00b6 85F83270 		strb	r7, [r5, #50]
 494              		.loc 1 822 0
 495 00ba 85F81772 		strb	r7, [r5, #535]
 496              		.loc 1 821 0
 497 00be 85F83360 		strb	r6, [r5, #51]
 498              		.loc 1 822 0
 499 00c2 85F81662 		strb	r6, [r5, #534]
 500              		.loc 1 827 0
 501 00c6 6878     		ldrb	r0, [r5, #1]	@ zero_extendqisi2
 502 00c8 0123     		movs	r3, #1
 503 00ca FFF7FEFF 		bl	disk_write
 504              	.LVL56:
 505              		.loc 1 828 0
 506 00ce 6C71     		strb	r4, [r5, #5]
 507 00d0 9EE7     		b	.L52
ARM GAS  /tmp/ccZHgRNF.s 			page 10


 508              		.cfi_endproc
 509              	.LFE247:
 510              		.size	sync_fs, .-sync_fs
 511 00d2 00BFAFF3 		.section	.text.move_window,"ax",%progbits
 511      0080AFF3 
 511      0080AFF3 
 511      0080
 512              		.align	2
 513              		.p2align 4,,15
 514              		.thumb
 515              		.thumb_func
 516              		.type	move_window, %function
 517              	move_window:
 518              	.LFB246:
 519              		.loc 1 785 0
 520              		.cfi_startproc
 521              		@ args = 0, pretend = 0, frame = 0
 522              		@ frame_needed = 0, uses_anonymous_args = 0
 523              	.LVL57:
 524 0000 38B5     		push	{r3, r4, r5, lr}
 525              		.cfi_def_cfa_offset 16
 526              		.cfi_offset 3, -16
 527              		.cfi_offset 4, -12
 528              		.cfi_offset 5, -8
 529              		.cfi_offset 14, -4
 530              		.loc 1 786 0
 531 0002 C36A     		ldr	r3, [r0, #44]
 532 0004 8B42     		cmp	r3, r1
 533              		.loc 1 785 0
 534 0006 0446     		mov	r4, r0
 535 0008 0D46     		mov	r5, r1
 536              		.loc 1 786 0
 537 000a 11D0     		beq	.L69
 538              	.LVL58:
 539              	.LBB163:
 540              	.LBB164:
 541              		.loc 1 763 0
 542 000c 0379     		ldrb	r3, [r0, #4]	@ zero_extendqisi2
 543 000e 4BB9     		cbnz	r3, .L65
 544              	.LVL59:
 545              	.L68:
 546              	.LBE164:
 547              	.LBE163:
 548              	.LBB166:
 549              	.LBB167:
 550              		.loc 1 791 0
 551 0010 6078     		ldrb	r0, [r4, #1]	@ zero_extendqisi2
 552 0012 04F13001 		add	r1, r4, #48
 553 0016 2A46     		mov	r2, r5
 554 0018 0123     		movs	r3, #1
 555 001a FFF7FEFF 		bl	disk_read
 556              	.LVL60:
 557 001e 28B9     		cbnz	r0, .L71
 558              		.loc 1 793 0
 559 0020 E562     		str	r5, [r4, #44]
 560 0022 38BD     		pop	{r3, r4, r5, pc}
 561              	.LVL61:
ARM GAS  /tmp/ccZHgRNF.s 			page 11


 562              	.L65:
 563              	.LBE167:
 564              	.LBE166:
 565              	.LBB168:
 566              	.LBB165:
 567 0024 FFF7FEFF 		bl	sync_window.part.3
 568              	.LVL62:
 569              	.LBE165:
 570              	.LBE168:
 571              		.loc 1 788 0
 572 0028 0028     		cmp	r0, #0
 573 002a F1D0     		beq	.L68
 574              	.L71:
 575              		.loc 1 789 0
 576 002c 0120     		movs	r0, #1
 577              		.loc 1 797 0
 578 002e 38BD     		pop	{r3, r4, r5, pc}
 579              	.LVL63:
 580              	.L69:
 581              		.loc 1 796 0
 582 0030 0020     		movs	r0, #0
 583              	.LVL64:
 584 0032 38BD     		pop	{r3, r4, r5, pc}
 585              		.cfi_endproc
 586              	.LFE246:
 587              		.size	move_window, .-move_window
 588 0034 AFF30080 		.section	.text.check_fs,"ax",%progbits
 588      AFF30080 
 588      AFF30080 
 589              		.align	2
 590              		.p2align 4,,15
 591              		.thumb
 592              		.thumb_func
 593              		.type	check_fs, %function
 594              	check_fs:
 595              	.LFB266:
 596              		.loc 1 2140 0
 597              		.cfi_startproc
 598              		@ args = 0, pretend = 0, frame = 0
 599              		@ frame_needed = 0, uses_anonymous_args = 0
 600              	.LVL65:
 601              		.loc 1 2141 0
 602 0000 0022     		movs	r2, #0
 603 0002 4FF0FF33 		mov	r3, #-1
 604              		.loc 1 2140 0
 605 0006 70B5     		push	{r4, r5, r6, lr}
 606              		.cfi_def_cfa_offset 16
 607              		.cfi_offset 4, -16
 608              		.cfi_offset 5, -12
 609              		.cfi_offset 6, -8
 610              		.cfi_offset 14, -4
 611              		.loc 1 2141 0
 612 0008 0271     		strb	r2, [r0, #4]
 613 000a C362     		str	r3, [r0, #44]
 614              		.loc 1 2140 0
 615 000c 0446     		mov	r4, r0
 616              		.loc 1 2142 0
ARM GAS  /tmp/ccZHgRNF.s 			page 12


 617 000e FFF7FEFF 		bl	move_window
 618              	.LVL66:
 619 0012 08B1     		cbz	r0, .L78
 620              		.loc 1 2143 0
 621 0014 0320     		movs	r0, #3
 622 0016 70BD     		pop	{r4, r5, r6, pc}
 623              	.LVL67:
 624              	.L78:
 625              		.loc 1 2145 0
 626 0018 94F82F12 		ldrb	r1, [r4, #559]	@ zero_extendqisi2
 627 001c 94F82E22 		ldrb	r2, [r4, #558]	@ zero_extendqisi2
 628 0020 174B     		ldr	r3, .L80
 629 0022 42EA0122 		orr	r2, r2, r1, lsl #8
 630 0026 12B2     		sxth	r2, r2
 631 0028 9A42     		cmp	r2, r3
 632 002a 01D0     		beq	.L79
 633              		.loc 1 2146 0
 634 002c 0220     		movs	r0, #2
 635              	.L74:
 636              		.loc 1 2154 0
 637 002e 70BD     		pop	{r4, r5, r6, pc}
 638              	.LVL68:
 639              	.L79:
 640              		.loc 1 2148 0
 641 0030 94F86820 		ldrb	r2, [r4, #104]	@ zero_extendqisi2
 642 0034 94F86960 		ldrb	r6, [r4, #105]	@ zero_extendqisi2
 643 0038 94F86650 		ldrb	r5, [r4, #102]	@ zero_extendqisi2
 644 003c 94F86710 		ldrb	r1, [r4, #103]	@ zero_extendqisi2
 645 0040 104B     		ldr	r3, .L80+4
 646 0042 1204     		lsls	r2, r2, #16
 647 0044 42EA0662 		orr	r2, r2, r6, lsl #24
 648 0048 2A43     		orrs	r2, r2, r5
 649 004a 42EA0122 		orr	r2, r2, r1, lsl #8
 650 004e 22F07F42 		bic	r2, r2, #-16777216
 651 0052 9A42     		cmp	r2, r3
 652 0054 EBD0     		beq	.L74
 653              	.LVL69:
 654              	.LBB171:
 655              	.LBB172:
 656              		.loc 1 2150 0
 657 0056 94F88420 		ldrb	r2, [r4, #132]	@ zero_extendqisi2
 658 005a 94F88550 		ldrb	r5, [r4, #133]	@ zero_extendqisi2
 659 005e 94F88210 		ldrb	r1, [r4, #130]	@ zero_extendqisi2
 660 0062 94F88300 		ldrb	r0, [r4, #131]	@ zero_extendqisi2
 661 0066 1204     		lsls	r2, r2, #16
 662 0068 42EA0562 		orr	r2, r2, r5, lsl #24
 663 006c 0A43     		orrs	r2, r2, r1
 664 006e 42EA0020 		orr	r0, r2, r0, lsl #8
 665 0072 20F07F40 		bic	r0, r0, #-16777216
 666              		.loc 1 2151 0
 667 0076 C01A     		subs	r0, r0, r3
 668 0078 18BF     		it	ne
 669 007a 0120     		movne	r0, #1
 670 007c 70BD     		pop	{r4, r5, r6, pc}
 671              	.LVL70:
 672              	.L81:
 673 007e 00BF     		.align	2
ARM GAS  /tmp/ccZHgRNF.s 			page 13


 674              	.L80:
 675 0080 55AAFFFF 		.word	-21931
 676 0084 46415400 		.word	5521734
 677              	.LBE172:
 678              	.LBE171:
 679              		.cfi_endproc
 680              	.LFE266:
 681              		.size	check_fs, .-check_fs
 682 0088 AFF30080 		.section	.text.find_volume,"ax",%progbits
 682      AFF30080 
 683              		.align	2
 684              		.p2align 4,,15
 685              		.thumb
 686              		.thumb_func
 687              		.type	find_volume, %function
 688              	find_volume:
 689              	.LFB267:
 690              		.loc 1 2169 0
 691              		.cfi_startproc
 692              		@ args = 0, pretend = 0, frame = 16
 693              		@ frame_needed = 0, uses_anonymous_args = 0
 694              	.LVL71:
 695 0000 2DE9F041 		push	{r4, r5, r6, r7, r8, lr}
 696              		.cfi_def_cfa_offset 24
 697              		.cfi_offset 4, -24
 698              		.cfi_offset 5, -20
 699              		.cfi_offset 6, -16
 700              		.cfi_offset 7, -12
 701              		.cfi_offset 8, -8
 702              		.cfi_offset 14, -4
 703 0004 0546     		mov	r5, r0
 704              		.loc 1 2179 0
 705 0006 0023     		movs	r3, #0
 706              		.loc 1 2169 0
 707 0008 84B0     		sub	sp, sp, #16
 708              		.cfi_def_cfa_offset 40
 709              		.loc 1 2180 0
 710 000a 0846     		mov	r0, r1
 711              	.LVL72:
 712              		.loc 1 2179 0
 713 000c 2B60     		str	r3, [r5]
 714              		.loc 1 2169 0
 715 000e 1746     		mov	r7, r2
 716              		.loc 1 2180 0
 717 0010 FFF7FEFF 		bl	get_ldnumber
 718              	.LVL73:
 719              		.loc 1 2181 0
 720 0014 061E     		subs	r6, r0, #0
 721 0016 17DB     		blt	.L106
 722              		.loc 1 2184 0
 723 0018 BE4B     		ldr	r3, .L149
 724 001a 53F82640 		ldr	r4, [r3, r6, lsl #2]
 725              	.LVL74:
 726              		.loc 1 2185 0
 727 001e BCB1     		cbz	r4, .L107
 728              		.loc 1 2188 0
 729 0020 2C60     		str	r4, [r5]
ARM GAS  /tmp/ccZHgRNF.s 			page 14


 730              		.loc 1 2190 0
 731 0022 2378     		ldrb	r3, [r4]	@ zero_extendqisi2
 732 0024 23B1     		cbz	r3, .L84
 733              		.loc 1 2191 0
 734 0026 6078     		ldrb	r0, [r4, #1]	@ zero_extendqisi2
 735              	.LVL75:
 736 0028 FFF7FEFF 		bl	disk_status
 737              	.LVL76:
 738              		.loc 1 2192 0
 739 002c C207     		lsls	r2, r0, #31
 740 002e 13D5     		bpl	.L143
 741              	.LVL77:
 742              	.L84:
 743              		.loc 1 2202 0
 744 0030 0023     		movs	r3, #0
 745              		.loc 1 2203 0
 746 0032 F0B2     		uxtb	r0, r6
 747              		.loc 1 2202 0
 748 0034 2370     		strb	r3, [r4]
 749              		.loc 1 2203 0
 750 0036 6070     		strb	r0, [r4, #1]
 751              		.loc 1 2204 0
 752 0038 FFF7FEFF 		bl	disk_initialize
 753              	.LVL78:
 754              		.loc 1 2205 0
 755 003c C307     		lsls	r3, r0, #31
 756 003e 13D5     		bpl	.L144
 757              		.loc 1 2206 0
 758 0040 0320     		movs	r0, #3
 759              	.LVL79:
 760              	.L140:
 761              		.loc 1 2325 0
 762 0042 04B0     		add	sp, sp, #16
 763              		@ sp needed
 764 0044 BDE8F081 		pop	{r4, r5, r6, r7, r8, pc}
 765              	.LVL80:
 766              	.L106:
 767              		.loc 1 2181 0
 768 0048 0B20     		movs	r0, #11
 769              	.LVL81:
 770              		.loc 1 2325 0
 771 004a 04B0     		add	sp, sp, #16
 772              		@ sp needed
 773 004c BDE8F081 		pop	{r4, r5, r6, r7, r8, pc}
 774              	.LVL82:
 775              	.L107:
 776              		.loc 1 2185 0
 777 0050 0C20     		movs	r0, #12
 778              	.LVL83:
 779              		.loc 1 2325 0
 780 0052 04B0     		add	sp, sp, #16
 781              		@ sp needed
 782 0054 BDE8F081 		pop	{r4, r5, r6, r7, r8, pc}
 783              	.LVL84:
 784              	.L143:
 785              		.loc 1 2193 0
 786 0058 002F     		cmp	r7, #0
ARM GAS  /tmp/ccZHgRNF.s 			page 15


 787 005a 37D0     		beq	.L108
 788              		.loc 1 2194 0 discriminator 1
 789 005c 10F0040F 		tst	r0, #4
 790 0060 0CBF     		ite	eq
 791 0062 0020     		moveq	r0, #0
 792 0064 0A20     		movne	r0, #10
 793              	.LVL85:
 794 0066 ECE7     		b	.L140
 795              	.LVL86:
 796              	.L144:
 797              		.loc 1 2207 0
 798 0068 1FB1     		cbz	r7, .L85
 799              		.loc 1 2207 0 is_stmt 0 discriminator 1
 800 006a 4607     		lsls	r6, r0, #29
 801              	.LVL87:
 802 006c 01D5     		bpl	.L85
 803              		.loc 1 2208 0 is_stmt 1
 804 006e 0A20     		movs	r0, #10
 805              	.LVL88:
 806 0070 E7E7     		b	.L140
 807              	.LVL89:
 808              	.L85:
 809              		.loc 1 2215 0
 810 0072 2046     		mov	r0, r4
 811              	.LVL90:
 812 0074 0021     		movs	r1, #0
 813 0076 FFF7FEFF 		bl	check_fs
 814              	.LVL91:
 815              		.loc 1 2216 0
 816 007a 0128     		cmp	r0, #1
 817 007c 06D0     		beq	.L145
 818              		.loc 1 2214 0
 819 007e 0026     		movs	r6, #0
 820              	.LVL92:
 821              	.L86:
 822              		.loc 1 2231 0
 823 0080 0328     		cmp	r0, #3
 824 0082 00F0C580 		beq	.L115
 825              		.loc 1 2232 0
 826 0086 48B3     		cbz	r0, .L93
 827              	.LVL93:
 828              	.L94:
 829 0088 0D20     		movs	r0, #13
 830 008a DAE7     		b	.L140
 831              	.LVL94:
 832              	.L145:
 833              		.loc 1 2216 0
 834 008c ADF10402 		sub	r2, sp, #4
 835 0090 04F5F973 		add	r3, r4, #498
 836 0094 03AF     		add	r7, sp, #12
 837              	.LVL95:
 838              	.L89:
 839              	.LBB173:
 840              	.LBB174:
 841              		.loc 1 2222 0
 842 0096 1978     		ldrb	r1, [r3]	@ zero_extendqisi2
 843 0098 49B1     		cbz	r1, .L87
ARM GAS  /tmp/ccZHgRNF.s 			page 16


 844              		.loc 1 2222 0 is_stmt 0 discriminator 1
 845 009a 9979     		ldrb	r1, [r3, #6]	@ zero_extendqisi2
 846 009c DE79     		ldrb	r6, [r3, #7]	@ zero_extendqisi2
 847 009e 1D79     		ldrb	r5, [r3, #4]	@ zero_extendqisi2
 848 00a0 5879     		ldrb	r0, [r3, #5]	@ zero_extendqisi2
 849 00a2 0904     		lsls	r1, r1, #16
 850 00a4 41EA0661 		orr	r1, r1, r6, lsl #24
 851 00a8 2943     		orrs	r1, r1, r5
 852 00aa 41EA0021 		orr	r1, r1, r0, lsl #8
 853              	.L87:
 854              		.loc 1 2222 0 discriminator 3
 855 00ae 42F8041F 		str	r1, [r2, #4]!
 856              	.LVL96:
 857              	.LBE174:
 858              		.loc 1 2220 0 is_stmt 1 discriminator 3
 859 00b2 BA42     		cmp	r2, r7
 860 00b4 03F11003 		add	r3, r3, #16
 861              	.LVL97:
 862 00b8 EDD1     		bne	.L89
 863              		.loc 1 2220 0 is_stmt 0
 864 00ba ADF10405 		sub	r5, sp, #4
 865              	.LVL98:
 866              	.L92:
 867              		.loc 1 2227 0 is_stmt 1
 868 00be 55F8046F 		ldr	r6, [r5, #4]!
 869              	.LVL99:
 870              		.loc 1 2228 0
 871 00c2 2EB9     		cbnz	r6, .L146
 872 00c4 0220     		movs	r0, #2
 873              	.L90:
 874              		.loc 1 2229 0 discriminator 1
 875 00c6 AF42     		cmp	r7, r5
 876 00c8 F9D1     		bne	.L92
 877 00ca D9E7     		b	.L86
 878              	.LVL100:
 879              	.L108:
 880              	.LBE173:
 881              		.loc 1 2195 0
 882 00cc 3846     		mov	r0, r7
 883              	.LVL101:
 884 00ce B8E7     		b	.L140
 885              	.LVL102:
 886              	.L146:
 887              	.LBB175:
 888              		.loc 1 2228 0 discriminator 1
 889 00d0 2046     		mov	r0, r4
 890 00d2 3146     		mov	r1, r6
 891 00d4 FFF7FEFF 		bl	check_fs
 892              	.LVL103:
 893              		.loc 1 2229 0 discriminator 1
 894 00d8 0028     		cmp	r0, #0
 895 00da F4D1     		bne	.L90
 896              	.LVL104:
 897              	.L93:
 898              	.LBE175:
 899              		.loc 1 2236 0
 900 00dc 94F83C20 		ldrb	r2, [r4, #60]	@ zero_extendqisi2
ARM GAS  /tmp/ccZHgRNF.s 			page 17


 901 00e0 94F83B30 		ldrb	r3, [r4, #59]	@ zero_extendqisi2
 902 00e4 43EA0223 		orr	r3, r3, r2, lsl #8
 903 00e8 B3F5007F 		cmp	r3, #512
 904 00ec CCD1     		bne	.L94
 905              		.loc 1 2239 0
 906 00ee 94F84720 		ldrb	r2, [r4, #71]	@ zero_extendqisi2
 907 00f2 94F84630 		ldrb	r3, [r4, #70]	@ zero_extendqisi2
 908              	.LVL105:
 909              		.loc 1 2240 0
 910 00f6 53EA0223 		orrs	r3, r3, r2, lsl #8
 911              	.LVL106:
 912 00fa 0DD1     		bne	.L95
 913              		.loc 1 2240 0 is_stmt 0 discriminator 1
 914 00fc 94F85610 		ldrb	r1, [r4, #86]	@ zero_extendqisi2
 915 0100 94F85700 		ldrb	r0, [r4, #87]	@ zero_extendqisi2
 916 0104 94F85430 		ldrb	r3, [r4, #84]	@ zero_extendqisi2
 917              	.LVL107:
 918 0108 94F85520 		ldrb	r2, [r4, #85]	@ zero_extendqisi2
 919              	.LVL108:
 920 010c 0904     		lsls	r1, r1, #16
 921 010e 41EA0061 		orr	r1, r1, r0, lsl #24
 922 0112 0B43     		orrs	r3, r3, r1
 923 0114 43EA0223 		orr	r3, r3, r2, lsl #8
 924              	.LVL109:
 925              	.L95:
 926              		.loc 1 2243 0 is_stmt 1
 927 0118 94F84020 		ldrb	r2, [r4, #64]	@ zero_extendqisi2
 928              		.loc 1 2241 0
 929 011c A361     		str	r3, [r4, #24]
 930              		.loc 1 2244 0
 931 011e 511E     		subs	r1, r2, #1
 932 0120 0129     		cmp	r1, #1
 933              		.loc 1 2243 0
 934 0122 E270     		strb	r2, [r4, #3]
 935              		.loc 1 2244 0
 936 0124 B0D8     		bhi	.L94
 937              	.LVL110:
 938              		.loc 1 2248 0
 939 0126 94F83D00 		ldrb	r0, [r4, #61]	@ zero_extendqisi2
 940 012a A070     		strb	r0, [r4, #2]
 941              		.loc 1 2249 0
 942 012c 0028     		cmp	r0, #0
 943 012e ABD0     		beq	.L94
 944              		.loc 1 2249 0 is_stmt 0 discriminator 1
 945 0130 411E     		subs	r1, r0, #1
 946 0132 0142     		tst	r1, r0
 947 0134 A8D1     		bne	.L94
 948              		.loc 1 2252 0 is_stmt 1
 949 0136 94F84250 		ldrb	r5, [r4, #66]	@ zero_extendqisi2
 950 013a 94F84110 		ldrb	r1, [r4, #65]	@ zero_extendqisi2
 951 013e 41EA0521 		orr	r1, r1, r5, lsl #8
 952              		.loc 1 2253 0
 953 0142 0D07     		lsls	r5, r1, #28
 954              		.loc 1 2252 0
 955 0144 2181     		strh	r1, [r4, #8]	@ movhi
 956              		.loc 1 2253 0
 957 0146 9FD1     		bne	.L94
ARM GAS  /tmp/ccZHgRNF.s 			page 18


 958              		.loc 1 2256 0
 959 0148 94F84470 		ldrb	r7, [r4, #68]	@ zero_extendqisi2
 960 014c 94F84350 		ldrb	r5, [r4, #67]	@ zero_extendqisi2
 961              	.LVL111:
 962              		.loc 1 2257 0
 963 0150 55EA0725 		orrs	r5, r5, r7, lsl #8
 964              	.LVL112:
 965 0154 0FD1     		bne	.L96
 966              		.loc 1 2257 0 is_stmt 0 discriminator 1
 967 0156 94F852C0 		ldrb	ip, [r4, #82]	@ zero_extendqisi2
 968 015a 94F85380 		ldrb	r8, [r4, #83]	@ zero_extendqisi2
 969 015e 94F85050 		ldrb	r5, [r4, #80]	@ zero_extendqisi2
 970              	.LVL113:
 971 0162 94F85170 		ldrb	r7, [r4, #81]	@ zero_extendqisi2
 972              	.LVL114:
 973 0166 4FEA0C4C 		lsl	ip, ip, #16
 974 016a 4CEA086C 		orr	ip, ip, r8, lsl #24
 975 016e 4CEA0505 		orr	r5, ip, r5
 976 0172 45EA0725 		orr	r5, r5, r7, lsl #8
 977              	.LVL115:
 978              	.L96:
 979              		.loc 1 2259 0 is_stmt 1
 980 0176 94F83FC0 		ldrb	ip, [r4, #63]	@ zero_extendqisi2
 981 017a 94F83E70 		ldrb	r7, [r4, #62]	@ zero_extendqisi2
 982              	.LVL116:
 983              		.loc 1 2260 0
 984 017e 57EA0C2C 		orrs	ip, r7, ip, lsl #8
 985              	.LVL117:
 986 0182 81D0     		beq	.L94
 987              		.loc 1 2246 0
 988 0184 02FB03F2 		mul	r2, r2, r3
 989              	.LVL118:
 990              		.loc 1 2263 0
 991 0188 0CEB1117 		add	r7, ip, r1, lsr #4
 992              	.LVL119:
 993 018c 1744     		add	r7, r7, r2
 994              	.LVL120:
 995              		.loc 1 2264 0
 996 018e BD42     		cmp	r5, r7
 997 0190 FFF47AAF 		bcc	.L94
 998              		.loc 1 2265 0
 999 0194 ED1B     		subs	r5, r5, r7
 1000              	.LVL121:
 1001 0196 B5FBF0F0 		udiv	r0, r5, r0
 1002              	.LVL122:
 1003              		.loc 1 2266 0
 1004 019a 0028     		cmp	r0, #0
 1005 019c 3FF474AF 		beq	.L94
 1006              	.LVL123:
 1007              		.loc 1 2268 0
 1008 01a0 40F6F575 		movw	r5, #4085
 1009 01a4 A842     		cmp	r0, r5
 1010 01a6 40F2B280 		bls	.L116
 1011              	.LVL124:
 1012              		.loc 1 2269 0
 1013 01aa 4FF6F575 		movw	r5, #65525
 1014 01ae A842     		cmp	r0, r5
ARM GAS  /tmp/ccZHgRNF.s 			page 19


 1015 01b0 00F29080 		bhi	.L98
 1016              		.loc 1 2268 0
 1017 01b4 0225     		movs	r5, #2
 1018              	.LVL125:
 1019              	.L97:
 1020              		.loc 1 2272 0
 1021 01b6 0230     		adds	r0, r0, #2
 1022              	.LVL126:
 1023              		.loc 1 2274 0
 1024 01b8 B444     		add	ip, ip, r6
 1025              		.loc 1 2275 0
 1026 01ba 3744     		add	r7, r7, r6
 1027              	.LVL127:
 1028              		.loc 1 2272 0
 1029 01bc 6061     		str	r0, [r4, #20]
 1030              		.loc 1 2274 0
 1031 01be C4F820C0 		str	ip, [r4, #32]
 1032              		.loc 1 2275 0
 1033 01c2 A762     		str	r7, [r4, #40]
 1034              		.loc 1 2273 0
 1035 01c4 E661     		str	r6, [r4, #28]
 1036              		.loc 1 2281 0
 1037 01c6 0029     		cmp	r1, #0
 1038 01c8 3FF45EAF 		beq	.L94
 1039              		.loc 1 2282 0
 1040 01cc 6244     		add	r2, r2, ip
 1041              	.LVL128:
 1042              		.loc 1 2284 0
 1043 01ce 022D     		cmp	r5, #2
 1044              		.loc 1 2282 0
 1045 01d0 6262     		str	r2, [r4, #36]
 1046              		.loc 1 2284 0
 1047 01d2 7DD0     		beq	.L147
 1048              		.loc 1 2284 0 is_stmt 0 discriminator 2
 1049 01d4 00EB4002 		add	r2, r0, r0, lsl #1
 1050 01d8 00F00100 		and	r0, r0, #1
 1051              	.LVL129:
 1052 01dc 00EB5200 		add	r0, r0, r2, lsr #1
 1053 01e0 0125     		movs	r5, #1
 1054              	.LVL130:
 1055              	.L99:
 1056              		.loc 1 2286 0 is_stmt 1
 1057 01e2 00F2FF10 		addw	r0, r0, #511
 1058              	.LVL131:
 1059 01e6 B3EB502F 		cmp	r3, r0, lsr #9
 1060 01ea FFF44DAF 		bcc	.L94
 1061              		.loc 1 2291 0
 1062 01ee 4FF0FF33 		mov	r3, #-1
 1063              	.LVL132:
 1064              		.loc 1 2294 0
 1065 01f2 8022     		movs	r2, #128
 1066              		.loc 1 2296 0
 1067 01f4 032D     		cmp	r5, #3
 1068              		.loc 1 2291 0
 1069 01f6 2361     		str	r3, [r4, #16]
 1070 01f8 E360     		str	r3, [r4, #12]
 1071              		.loc 1 2294 0
ARM GAS  /tmp/ccZHgRNF.s 			page 20


 1072 01fa 6271     		strb	r2, [r4, #5]
 1073              		.loc 1 2296 0
 1074 01fc 0AD0     		beq	.L148
 1075              	.LVL133:
 1076              	.L102:
 1077              		.loc 1 2316 0
 1078 01fe 464A     		ldr	r2, .L149+4
 1079              		.loc 1 2315 0
 1080 0200 2570     		strb	r5, [r4]
 1081              		.loc 1 2316 0
 1082 0202 1388     		ldrh	r3, [r2]
 1083 0204 0133     		adds	r3, r3, #1
 1084 0206 9BB2     		uxth	r3, r3
 1085 0208 1380     		strh	r3, [r2]	@ movhi
 1086 020a E380     		strh	r3, [r4, #6]	@ movhi
 1087              		.loc 1 2324 0
 1088 020c 0020     		movs	r0, #0
 1089 020e 18E7     		b	.L140
 1090              	.LVL134:
 1091              	.L115:
 1092              		.loc 1 2231 0
 1093 0210 0120     		movs	r0, #1
 1094              	.LVL135:
 1095 0212 16E7     		b	.L140
 1096              	.LVL136:
 1097              	.L148:
 1098              		.loc 1 2297 0
 1099 0214 94F86120 		ldrb	r2, [r4, #97]	@ zero_extendqisi2
 1100 0218 94F86030 		ldrb	r3, [r4, #96]	@ zero_extendqisi2
 1101 021c 43EA0223 		orr	r3, r3, r2, lsl #8
 1102 0220 012B     		cmp	r3, #1
 1103 0222 ECD1     		bne	.L102
 1104              		.loc 1 2298 0
 1105 0224 711C     		adds	r1, r6, #1
 1106 0226 2046     		mov	r0, r4
 1107              	.LVL137:
 1108 0228 FFF7FEFF 		bl	move_window
 1109              	.LVL138:
 1110 022c 0028     		cmp	r0, #0
 1111 022e E6D1     		bne	.L102
 1112              		.loc 1 2301 0
 1113 0230 94F82F12 		ldrb	r1, [r4, #559]	@ zero_extendqisi2
 1114 0234 94F82E22 		ldrb	r2, [r4, #558]	@ zero_extendqisi2
 1115 0238 384B     		ldr	r3, .L149+8
 1116              		.loc 1 2300 0
 1117 023a 6071     		strb	r0, [r4, #5]
 1118              		.loc 1 2301 0
 1119 023c 42EA0122 		orr	r2, r2, r1, lsl #8
 1120 0240 12B2     		sxth	r2, r2
 1121 0242 9A42     		cmp	r2, r3
 1122 0244 DBD1     		bne	.L102
 1123              		.loc 1 2302 0
 1124 0246 94F83200 		ldrb	r0, [r4, #50]	@ zero_extendqisi2
 1125 024a 94F83360 		ldrb	r6, [r4, #51]	@ zero_extendqisi2
 1126              	.LVL139:
 1127 024e 94F83020 		ldrb	r2, [r4, #48]	@ zero_extendqisi2
 1128 0252 94F83110 		ldrb	r1, [r4, #49]	@ zero_extendqisi2
ARM GAS  /tmp/ccZHgRNF.s 			page 21


 1129 0256 324B     		ldr	r3, .L149+12
 1130 0258 0004     		lsls	r0, r0, #16
 1131 025a 40EA0660 		orr	r0, r0, r6, lsl #24
 1132 025e 0243     		orrs	r2, r2, r0
 1133 0260 42EA0122 		orr	r2, r2, r1, lsl #8
 1134 0264 9A42     		cmp	r2, r3
 1135 0266 CAD1     		bne	.L102
 1136              		.loc 1 2303 0
 1137 0268 94F81602 		ldrb	r0, [r4, #534]	@ zero_extendqisi2
 1138 026c 94F81762 		ldrb	r6, [r4, #535]	@ zero_extendqisi2
 1139 0270 94F81422 		ldrb	r2, [r4, #532]	@ zero_extendqisi2
 1140 0274 94F81512 		ldrb	r1, [r4, #533]	@ zero_extendqisi2
 1141 0278 0004     		lsls	r0, r0, #16
 1142 027a 03F1FF53 		add	r3, r3, #534773760
 1143 027e 40EA0660 		orr	r0, r0, r6, lsl #24
 1144 0282 03F50053 		add	r3, r3, #8192
 1145 0286 0243     		orrs	r2, r2, r0
 1146 0288 2033     		adds	r3, r3, #32
 1147 028a 42EA0122 		orr	r2, r2, r1, lsl #8
 1148 028e 9A42     		cmp	r2, r3
 1149 0290 B5D1     		bne	.L102
 1150              		.loc 1 2306 0
 1151 0292 94F81A72 		ldrb	r7, [r4, #538]	@ zero_extendqisi2
 1152              		.loc 1 2309 0
 1153 0296 94F81E62 		ldrb	r6, [r4, #542]	@ zero_extendqisi2
 1154              		.loc 1 2306 0
 1155 029a 94F81B82 		ldrb	r8, [r4, #539]	@ zero_extendqisi2
 1156              		.loc 1 2309 0
 1157 029e 94F81FC2 		ldrb	ip, [r4, #543]	@ zero_extendqisi2
 1158              		.loc 1 2306 0
 1159 02a2 94F81822 		ldrb	r2, [r4, #536]	@ zero_extendqisi2
 1160              		.loc 1 2309 0
 1161 02a6 94F81C32 		ldrb	r3, [r4, #540]	@ zero_extendqisi2
 1162              		.loc 1 2306 0
 1163 02aa 94F81902 		ldrb	r0, [r4, #537]	@ zero_extendqisi2
 1164              		.loc 1 2309 0
 1165 02ae 94F81D12 		ldrb	r1, [r4, #541]	@ zero_extendqisi2
 1166              		.loc 1 2306 0
 1167 02b2 3F04     		lsls	r7, r7, #16
 1168              		.loc 1 2309 0
 1169 02b4 3604     		lsls	r6, r6, #16
 1170              		.loc 1 2306 0
 1171 02b6 47EA0867 		orr	r7, r7, r8, lsl #24
 1172              		.loc 1 2309 0
 1173 02ba 46EA0C66 		orr	r6, r6, ip, lsl #24
 1174              		.loc 1 2306 0
 1175 02be 3A43     		orrs	r2, r2, r7
 1176              		.loc 1 2309 0
 1177 02c0 3343     		orrs	r3, r3, r6
 1178              		.loc 1 2306 0
 1179 02c2 42EA0022 		orr	r2, r2, r0, lsl #8
 1180              		.loc 1 2309 0
 1181 02c6 43EA0123 		orr	r3, r3, r1, lsl #8
 1182              		.loc 1 2306 0
 1183 02ca 2261     		str	r2, [r4, #16]
 1184              		.loc 1 2309 0
 1185 02cc E360     		str	r3, [r4, #12]
ARM GAS  /tmp/ccZHgRNF.s 			page 22


 1186 02ce 96E7     		b	.L102
 1187              	.LVL140:
 1188              	.L147:
 1189              		.loc 1 2284 0 discriminator 1
 1190 02d0 4000     		lsls	r0, r0, #1
 1191              	.LVL141:
 1192 02d2 86E7     		b	.L99
 1193              	.LVL142:
 1194              	.L98:
 1195              		.loc 1 2272 0
 1196 02d4 0230     		adds	r0, r0, #2
 1197              	.LVL143:
 1198              		.loc 1 2274 0
 1199 02d6 06EB0C02 		add	r2, r6, ip
 1200              		.loc 1 2275 0
 1201 02da 3744     		add	r7, r7, r6
 1202              	.LVL144:
 1203              		.loc 1 2272 0
 1204 02dc 6061     		str	r0, [r4, #20]
 1205              		.loc 1 2274 0
 1206 02de 2262     		str	r2, [r4, #32]
 1207              		.loc 1 2275 0
 1208 02e0 A762     		str	r7, [r4, #40]
 1209              		.loc 1 2273 0
 1210 02e2 E661     		str	r6, [r4, #28]
 1211              		.loc 1 2277 0
 1212 02e4 0029     		cmp	r1, #0
 1213 02e6 7FF4CFAE 		bne	.L94
 1214              		.loc 1 2278 0
 1215 02ea 94F85E50 		ldrb	r5, [r4, #94]	@ zero_extendqisi2
 1216 02ee 94F85F70 		ldrb	r7, [r4, #95]	@ zero_extendqisi2
 1217 02f2 94F85C20 		ldrb	r2, [r4, #92]	@ zero_extendqisi2
 1218 02f6 94F85D10 		ldrb	r1, [r4, #93]	@ zero_extendqisi2
 1219              	.LVL145:
 1220 02fa 2D04     		lsls	r5, r5, #16
 1221 02fc 45EA0765 		orr	r5, r5, r7, lsl #24
 1222 0300 2A43     		orrs	r2, r2, r5
 1223 0302 42EA0122 		orr	r2, r2, r1, lsl #8
 1224              		.loc 1 2279 0
 1225 0306 8000     		lsls	r0, r0, #2
 1226              	.LVL146:
 1227              		.loc 1 2278 0
 1228 0308 6262     		str	r2, [r4, #36]
 1229              		.loc 1 2269 0
 1230 030a 0325     		movs	r5, #3
 1231 030c 69E7     		b	.L99
 1232              	.LVL147:
 1233              	.L116:
 1234              		.loc 1 2267 0
 1235 030e 0125     		movs	r5, #1
 1236 0310 51E7     		b	.L97
 1237              	.L150:
 1238 0312 00BF     		.align	2
 1239              	.L149:
 1240 0314 00000000 		.word	.LANCHOR0
 1241 0318 00000000 		.word	.LANCHOR1
 1242 031c 55AAFFFF 		.word	-21931
ARM GAS  /tmp/ccZHgRNF.s 			page 23


 1243 0320 52526141 		.word	1096897106
 1244              		.cfi_endproc
 1245              	.LFE267:
 1246              		.size	find_volume, .-find_volume
 1247              		.section	.text.get_fat.part.6,"ax",%progbits
 1248              		.align	2
 1249              		.p2align 4,,15
 1250              		.thumb
 1251              		.thumb_func
 1252              		.type	get_fat.part.6, %function
 1253              	get_fat.part.6:
 1254              	.LFB293:
 1255              		.loc 1 865 0
 1256              		.cfi_startproc
 1257              		@ args = 0, pretend = 0, frame = 0
 1258              		@ frame_needed = 0, uses_anonymous_args = 0
 1259              	.LVL148:
 1260 0000 F8B5     		push	{r3, r4, r5, r6, r7, lr}
 1261              		.cfi_def_cfa_offset 24
 1262              		.cfi_offset 3, -24
 1263              		.cfi_offset 4, -20
 1264              		.cfi_offset 5, -16
 1265              		.cfi_offset 6, -12
 1266              		.cfi_offset 7, -8
 1267              		.cfi_offset 14, -4
 1268              		.loc 1 877 0
 1269 0002 0378     		ldrb	r3, [r0]	@ zero_extendqisi2
 1270 0004 022B     		cmp	r3, #2
 1271              		.loc 1 865 0
 1272 0006 0446     		mov	r4, r0
 1273 0008 0D46     		mov	r5, r1
 1274              		.loc 1 877 0
 1275 000a 2CD0     		beq	.L153
 1276 000c 032B     		cmp	r3, #3
 1277 000e 0ED0     		beq	.L154
 1278 0010 012B     		cmp	r3, #1
 1279 0012 01D0     		beq	.L161
 1280              		.loc 1 897 0
 1281 0014 0120     		movs	r0, #1
 1282              	.LVL149:
 1283              		.loc 1 901 0
 1284 0016 F8BD     		pop	{r3, r4, r5, r6, r7, pc}
 1285              	.LVL150:
 1286              	.L161:
 1287              		.loc 1 880 0
 1288 0018 016A     		ldr	r1, [r0, #32]
 1289              	.LVL151:
 1290              		.loc 1 879 0
 1291 001a 05EB5506 		add	r6, r5, r5, lsr #1
 1292              	.LVL152:
 1293              		.loc 1 880 0
 1294 001e 01EB5621 		add	r1, r1, r6, lsr #9
 1295 0022 FFF7FEFF 		bl	move_window
 1296              	.LVL153:
 1297 0026 88B3     		cbz	r0, .L156
 1298              	.LVL154:
 1299              	.L157:
ARM GAS  /tmp/ccZHgRNF.s 			page 24


 1300              		.loc 1 900 0
 1301 0028 4FF0FF30 		mov	r0, #-1
 1302 002c F8BD     		pop	{r3, r4, r5, r6, r7, pc}
 1303              	.LVL155:
 1304              	.L154:
 1305              		.loc 1 892 0
 1306 002e 016A     		ldr	r1, [r0, #32]
 1307              	.LVL156:
 1308 0030 01EBD511 		add	r1, r1, r5, lsr #7
 1309 0034 FFF7FEFF 		bl	move_window
 1310              	.LVL157:
 1311 0038 0028     		cmp	r0, #0
 1312 003a F5D1     		bne	.L157
 1313              		.loc 1 893 0
 1314 003c AD00     		lsls	r5, r5, #2
 1315              	.LVL158:
 1316 003e 05F4FE75 		and	r5, r5, #508
 1317 0042 05F13003 		add	r3, r5, #48
 1318 0046 2344     		add	r3, r3, r4
 1319              	.LVL159:
 1320              		.loc 1 894 0
 1321 0048 2C44     		add	r4, r4, r5
 1322              	.LVL160:
 1323 004a D878     		ldrb	r0, [r3, #3]	@ zero_extendqisi2
 1324 004c 9978     		ldrb	r1, [r3, #2]	@ zero_extendqisi2
 1325 004e 5A78     		ldrb	r2, [r3, #1]	@ zero_extendqisi2
 1326 0050 94F83030 		ldrb	r3, [r4, #48]	@ zero_extendqisi2
 1327              	.LVL161:
 1328 0054 0006     		lsls	r0, r0, #24
 1329 0056 40EA0140 		orr	r0, r0, r1, lsl #16
 1330 005a 40EA0220 		orr	r0, r0, r2, lsl #8
 1331 005e 1843     		orrs	r0, r0, r3
 1332 0060 20F07040 		bic	r0, r0, #-268435456
 1333 0064 F8BD     		pop	{r3, r4, r5, r6, r7, pc}
 1334              	.LVL162:
 1335              	.L153:
 1336              		.loc 1 887 0
 1337 0066 016A     		ldr	r1, [r0, #32]
 1338              	.LVL163:
 1339 0068 01EB1521 		add	r1, r1, r5, lsr #8
 1340 006c FFF7FEFF 		bl	move_window
 1341              	.LVL164:
 1342 0070 0028     		cmp	r0, #0
 1343 0072 D9D1     		bne	.L157
 1344              		.loc 1 888 0
 1345 0074 6D00     		lsls	r5, r5, #1
 1346              	.LVL165:
 1347 0076 05F4FF75 		and	r5, r5, #510
 1348              	.LVL166:
 1349              		.loc 1 889 0
 1350 007a 6319     		adds	r3, r4, r5
 1351 007c 1C46     		mov	r4, r3
 1352              	.LVL167:
 1353 007e 93F83030 		ldrb	r3, [r3, #48]	@ zero_extendqisi2
 1354 0082 94F83100 		ldrb	r0, [r4, #49]	@ zero_extendqisi2
 1355 0086 43EA0020 		orr	r0, r3, r0, lsl #8
 1356 008a F8BD     		pop	{r3, r4, r5, r6, r7, pc}
ARM GAS  /tmp/ccZHgRNF.s 			page 25


 1357              	.LVL168:
 1358              	.L156:
 1359              		.loc 1 881 0
 1360 008c C6F30803 		ubfx	r3, r6, #0, #9
 1361              		.loc 1 882 0
 1362 0090 216A     		ldr	r1, [r4, #32]
 1363              		.loc 1 881 0
 1364 0092 2344     		add	r3, r3, r4
 1365 0094 0136     		adds	r6, r6, #1
 1366              	.LVL169:
 1367              		.loc 1 882 0
 1368 0096 01EB5621 		add	r1, r1, r6, lsr #9
 1369 009a 2046     		mov	r0, r4
 1370              		.loc 1 881 0
 1371 009c 93F83070 		ldrb	r7, [r3, #48]	@ zero_extendqisi2
 1372              	.LVL170:
 1373              		.loc 1 882 0
 1374 00a0 FFF7FEFF 		bl	move_window
 1375              	.LVL171:
 1376 00a4 0028     		cmp	r0, #0
 1377 00a6 BFD1     		bne	.L157
 1378              		.loc 1 883 0
 1379 00a8 C6F30806 		ubfx	r6, r6, #0, #9
 1380              	.LVL172:
 1381 00ac 3444     		add	r4, r4, r6
 1382              	.LVL173:
 1383 00ae 94F83030 		ldrb	r3, [r4, #48]	@ zero_extendqisi2
 1384 00b2 47EA0320 		orr	r0, r7, r3, lsl #8
 1385              	.LVL174:
 1386              		.loc 1 884 0
 1387 00b6 EB07     		lsls	r3, r5, #31
 1388 00b8 4CBF     		ite	mi
 1389 00ba 0009     		lsrmi	r0, r0, #4
 1390              	.LVL175:
 1391 00bc C0F30B00 		ubfxpl	r0, r0, #0, #12
 1392 00c0 F8BD     		pop	{r3, r4, r5, r6, r7, pc}
 1393              		.cfi_endproc
 1394              	.LFE293:
 1395              		.size	get_fat.part.6, .-get_fat.part.6
 1396 00c2 00BFAFF3 		.section	.text.dir_sdi,"ax",%progbits
 1396      0080AFF3 
 1396      0080AFF3 
 1396      0080
 1397              		.align	2
 1398              		.p2align 4,,15
 1399              		.thumb
 1400              		.thumb_func
 1401              		.type	dir_sdi, %function
 1402              	dir_sdi:
 1403              	.LFB253:
 1404              		.loc 1 1121 0
 1405              		.cfi_startproc
 1406              		@ args = 0, pretend = 0, frame = 0
 1407              		@ frame_needed = 0, uses_anonymous_args = 0
 1408              	.LVL176:
 1409              		.loc 1 1127 0
 1410 0000 8368     		ldr	r3, [r0, #8]
ARM GAS  /tmp/ccZHgRNF.s 			page 26


 1411              		.loc 1 1121 0
 1412 0002 70B5     		push	{r4, r5, r6, lr}
 1413              		.cfi_def_cfa_offset 16
 1414              		.cfi_offset 4, -16
 1415              		.cfi_offset 5, -12
 1416              		.cfi_offset 6, -8
 1417              		.cfi_offset 14, -4
 1418              		.loc 1 1121 0
 1419 0004 0446     		mov	r4, r0
 1420              	.LVL177:
 1421              		.loc 1 1128 0
 1422 0006 012B     		cmp	r3, #1
 1423              		.loc 1 1121 0
 1424 0008 0D46     		mov	r5, r1
 1425              		.loc 1 1126 0
 1426 000a E180     		strh	r1, [r4, #6]	@ movhi
 1427              		.loc 1 1128 0
 1428 000c 03D0     		beq	.L181
 1429              		.loc 1 1128 0 is_stmt 0 discriminator 1
 1430 000e 0068     		ldr	r0, [r0]
 1431              	.LVL178:
 1432 0010 4269     		ldr	r2, [r0, #20]
 1433 0012 9342     		cmp	r3, r2
 1434 0014 01D3     		bcc	.L182
 1435              	.LVL179:
 1436              	.L181:
 1437              		.loc 1 1150 0 is_stmt 1
 1438 0016 0220     		movs	r0, #2
 1439 0018 70BD     		pop	{r4, r5, r6, pc}
 1440              	.LVL180:
 1441              	.L182:
 1442              		.loc 1 1130 0
 1443 001a C3B9     		cbnz	r3, .L166
 1444              		.loc 1 1130 0 is_stmt 0 discriminator 1
 1445 001c 0178     		ldrb	r1, [r0]	@ zero_extendqisi2
 1446              	.LVL181:
 1447 001e 0329     		cmp	r1, #3
 1448 0020 11D0     		beq	.L183
 1449              	.LVL182:
 1450              	.L167:
 1451              		.loc 1 1134 0 is_stmt 1
 1452 0022 0289     		ldrh	r2, [r0, #8]
 1453 0024 9542     		cmp	r5, r2
 1454 0026 F6D2     		bcs	.L181
 1455              		.loc 1 1136 0
 1456 0028 426A     		ldr	r2, [r0, #36]
 1457              	.LVL183:
 1458              	.L168:
 1459              		.loc 1 1149 0
 1460 002a E360     		str	r3, [r4, #12]
 1461              		.loc 1 1150 0
 1462 002c 002A     		cmp	r2, #0
 1463 002e F2D0     		beq	.L181
 1464              		.loc 1 1152 0
 1465 0030 05F00F03 		and	r3, r5, #15
 1466              	.LVL184:
 1467 0034 00EB4310 		add	r0, r0, r3, lsl #5
ARM GAS  /tmp/ccZHgRNF.s 			page 27


 1468              		.loc 1 1151 0
 1469 0038 02EB1512 		add	r2, r2, r5, lsr #4
 1470              	.LVL185:
 1471              		.loc 1 1152 0
 1472 003c 3030     		adds	r0, r0, #48
 1473 003e 6061     		str	r0, [r4, #20]
 1474              		.loc 1 1151 0
 1475 0040 2261     		str	r2, [r4, #16]
 1476              		.loc 1 1154 0
 1477 0042 0020     		movs	r0, #0
 1478 0044 70BD     		pop	{r4, r5, r6, pc}
 1479              	.LVL186:
 1480              	.L183:
 1481              		.loc 1 1131 0
 1482 0046 416A     		ldr	r1, [r0, #36]
 1483              	.LVL187:
 1484              		.loc 1 1133 0
 1485 0048 0029     		cmp	r1, #0
 1486 004a EAD0     		beq	.L167
 1487 004c 0B46     		mov	r3, r1
 1488              	.LVL188:
 1489              	.L166:
 1490              		.loc 1 1139 0
 1491 004e 8678     		ldrb	r6, [r0, #2]	@ zero_extendqisi2
 1492 0050 3601     		lsls	r6, r6, #4
 1493              	.LVL189:
 1494              		.loc 1 1140 0
 1495 0052 B542     		cmp	r5, r6
 1496 0054 19D3     		bcc	.L169
 1497              	.LVL190:
 1498              	.LBB176:
 1499              	.LBB177:
 1500              		.loc 1 874 0
 1501 0056 012B     		cmp	r3, #1
 1502 0058 DDD9     		bls	.L181
 1503 005a 9A42     		cmp	r2, r3
 1504 005c C6EB0505 		rsb	r5, r6, r5
 1505              	.LVL191:
 1506 0060 D9D9     		bls	.L181
 1507 0062 08E0     		b	.L172
 1508              	.LVL192:
 1509              	.L184:
 1510              	.LBE177:
 1511              	.LBE176:
 1512              		.loc 1 1143 0
 1513 0064 0128     		cmp	r0, #1
 1514 0066 D6D9     		bls	.L181
 1515              		.loc 1 1143 0 is_stmt 0 discriminator 1
 1516 0068 2068     		ldr	r0, [r4]
 1517              	.LVL193:
 1518 006a 4269     		ldr	r2, [r0, #20]
 1519 006c 9A42     		cmp	r2, r3
 1520 006e D2D9     		bls	.L181
 1521              		.loc 1 1140 0 is_stmt 1
 1522 0070 AE42     		cmp	r6, r5
 1523 0072 0AD8     		bhi	.L169
 1524 0074 0D46     		mov	r5, r1
ARM GAS  /tmp/ccZHgRNF.s 			page 28


 1525              	.L172:
 1526              	.LBB180:
 1527              	.LBB178:
 1528 0076 1946     		mov	r1, r3
 1529 0078 FFF7FEFF 		bl	get_fat.part.6
 1530              	.LVL194:
 1531              	.LBE178:
 1532              	.LBE180:
 1533              		.loc 1 1142 0
 1534 007c 421C     		adds	r2, r0, #1
 1535              	.LBB181:
 1536              	.LBB179:
 1537 007e 0346     		mov	r3, r0
 1538              	.LVL195:
 1539 0080 C6EB0501 		rsb	r1, r6, r5
 1540              	.LBE179:
 1541              	.LBE181:
 1542 0084 EED1     		bne	.L184
 1543 0086 0120     		movs	r0, #1
 1544              	.LVL196:
 1545 0088 70BD     		pop	{r4, r5, r6, pc}
 1546              	.LVL197:
 1547              	.L169:
 1548              	.LBB182:
 1549              	.LBB183:
 1550              		.loc 1 853 0
 1551 008a 023A     		subs	r2, r2, #2
 1552              		.loc 1 852 0
 1553 008c 991E     		subs	r1, r3, #2
 1554              	.LVL198:
 1555              		.loc 1 853 0
 1556 008e 9142     		cmp	r1, r2
 1557 0090 04D2     		bcs	.L171
 1558              		.loc 1 854 0
 1559 0092 8678     		ldrb	r6, [r0, #2]	@ zero_extendqisi2
 1560              	.LVL199:
 1561 0094 826A     		ldr	r2, [r0, #40]
 1562 0096 06FB0122 		mla	r2, r6, r1, r2
 1563 009a C6E7     		b	.L168
 1564              	.LVL200:
 1565              	.L171:
 1566              	.LBE183:
 1567              	.LBE182:
 1568              		.loc 1 1149 0
 1569 009c E360     		str	r3, [r4, #12]
 1570 009e BAE7     		b	.L181
 1571              		.cfi_endproc
 1572              	.LFE253:
 1573              		.size	dir_sdi, .-dir_sdi
 1574              		.section	.text.dir_remove,"ax",%progbits
 1575              		.align	2
 1576              		.p2align 4,,15
 1577              		.thumb
 1578              		.thumb_func
 1579              		.type	dir_remove, %function
 1580              	dir_remove:
 1581              	.LFB261:
ARM GAS  /tmp/ccZHgRNF.s 			page 29


 1582              		.loc 1 1691 0
 1583              		.cfi_startproc
 1584              		@ args = 0, pretend = 0, frame = 0
 1585              		@ frame_needed = 0, uses_anonymous_args = 0
 1586              	.LVL201:
 1587 0000 10B5     		push	{r4, lr}
 1588              		.cfi_def_cfa_offset 8
 1589              		.cfi_offset 4, -8
 1590              		.cfi_offset 14, -4
 1591              		.loc 1 1712 0
 1592 0002 C188     		ldrh	r1, [r0, #6]
 1593              		.loc 1 1691 0
 1594 0004 0446     		mov	r4, r0
 1595              		.loc 1 1712 0
 1596 0006 FFF7FEFF 		bl	dir_sdi
 1597              	.LVL202:
 1598              		.loc 1 1713 0
 1599 000a 00B1     		cbz	r0, .L191
 1600              	.LVL203:
 1601              	.L186:
 1602              		.loc 1 1724 0
 1603 000c 10BD     		pop	{r4, pc}
 1604              	.LVL204:
 1605              	.L191:
 1606              	.LBB188:
 1607              	.LBB189:
 1608              		.loc 1 1714 0
 1609 000e 2068     		ldr	r0, [r4]
 1610              	.LVL205:
 1611 0010 2169     		ldr	r1, [r4, #16]
 1612 0012 FFF7FEFF 		bl	move_window
 1613              	.LVL206:
 1614              		.loc 1 1715 0
 1615 0016 0028     		cmp	r0, #0
 1616 0018 F8D1     		bne	.L186
 1617              		.loc 1 1716 0
 1618 001a 6369     		ldr	r3, [r4, #20]
 1619              	.LVL207:
 1620              	.LBB190:
 1621              	.LBB191:
 1622              		.loc 1 583 0
 1623 001c 0146     		mov	r1, r0
 1624 001e 03F12002 		add	r2, r3, #32
 1625              	.LVL208:
 1626              	.L189:
 1627 0022 03F8011B 		strb	r1, [r3], #1
 1628              	.LVL209:
 1629              		.loc 1 582 0
 1630 0026 9342     		cmp	r3, r2
 1631 0028 FBD1     		bne	.L189
 1632              	.LBE191:
 1633              	.LBE190:
 1634              		.loc 1 1717 0
 1635 002a 6369     		ldr	r3, [r4, #20]
 1636              	.LVL210:
 1637 002c E522     		movs	r2, #229
 1638              	.LVL211:
ARM GAS  /tmp/ccZHgRNF.s 			page 30


 1639 002e 1A70     		strb	r2, [r3]
 1640              		.loc 1 1718 0
 1641 0030 2368     		ldr	r3, [r4]
 1642 0032 0122     		movs	r2, #1
 1643 0034 1A71     		strb	r2, [r3, #4]
 1644              	.LVL212:
 1645              	.LBE189:
 1646              	.LBE188:
 1647              		.loc 1 1724 0
 1648 0036 10BD     		pop	{r4, pc}
 1649              		.cfi_endproc
 1650              	.LFE261:
 1651              		.size	dir_remove, .-dir_remove
 1652 0038 AFF30080 		.section	.text.put_fat.part.8,"ax",%progbits
 1652      AFF30080 
 1653              		.align	2
 1654              		.p2align 4,,15
 1655              		.thumb
 1656              		.thumb_func
 1657              		.type	put_fat.part.8, %function
 1658              	put_fat.part.8:
 1659              	.LFB295:
 1660              		.loc 1 911 0
 1661              		.cfi_startproc
 1662              		@ args = 0, pretend = 0, frame = 0
 1663              		@ frame_needed = 0, uses_anonymous_args = 0
 1664              	.LVL213:
 1665 0000 F8B5     		push	{r3, r4, r5, r6, r7, lr}
 1666              		.cfi_def_cfa_offset 24
 1667              		.cfi_offset 3, -24
 1668              		.cfi_offset 4, -20
 1669              		.cfi_offset 5, -16
 1670              		.cfi_offset 6, -12
 1671              		.cfi_offset 7, -8
 1672              		.cfi_offset 14, -4
 1673              		.loc 1 926 0
 1674 0002 0378     		ldrb	r3, [r0]	@ zero_extendqisi2
 1675 0004 022B     		cmp	r3, #2
 1676              		.loc 1 911 0
 1677 0006 0446     		mov	r4, r0
 1678 0008 0D46     		mov	r5, r1
 1679 000a 1646     		mov	r6, r2
 1680              		.loc 1 926 0
 1681 000c 59D0     		beq	.L194
 1682 000e 032B     		cmp	r3, #3
 1683 0010 38D0     		beq	.L195
 1684 0012 012B     		cmp	r3, #1
 1685 0014 03D0     		beq	.L203
 1686              		.loc 1 957 0
 1687 0016 0220     		movs	r0, #2
 1688              	.LVL214:
 1689              	.L193:
 1690              		.loc 1 959 0
 1691 0018 0123     		movs	r3, #1
 1692 001a 2371     		strb	r3, [r4, #4]
 1693              		.loc 1 963 0
 1694 001c F8BD     		pop	{r3, r4, r5, r6, r7, pc}
ARM GAS  /tmp/ccZHgRNF.s 			page 31


 1695              	.LVL215:
 1696              	.L203:
 1697              		.loc 1 929 0
 1698 001e 016A     		ldr	r1, [r0, #32]
 1699              	.LVL216:
 1700              		.loc 1 928 0
 1701 0020 05EB5507 		add	r7, r5, r5, lsr #1
 1702              	.LVL217:
 1703              		.loc 1 929 0
 1704 0024 01EB5721 		add	r1, r1, r7, lsr #9
 1705 0028 FFF7FEFF 		bl	move_window
 1706              	.LVL218:
 1707              		.loc 1 930 0
 1708 002c 0028     		cmp	r0, #0
 1709 002e F3D1     		bne	.L193
 1710              		.loc 1 931 0
 1711 0030 C7F30803 		ubfx	r3, r7, #0, #9
 1712              	.LVL219:
 1713              		.loc 1 932 0
 1714 0034 15F00105 		ands	r5, r5, #1
 1715              	.LVL220:
 1716 0038 2344     		add	r3, r3, r4
 1717              	.LVL221:
 1718 003a F2B2     		uxtb	r2, r6
 1719 003c 06D0     		beq	.L198
 1720 003e 93F83010 		ldrb	r1, [r3, #48]	@ zero_extendqisi2
 1721 0042 01F00F01 		and	r1, r1, #15
 1722 0046 41EA0212 		orr	r2, r1, r2, lsl #4
 1723 004a D2B2     		uxtb	r2, r2
 1724              	.L198:
 1725              		.loc 1 935 0
 1726 004c 216A     		ldr	r1, [r4, #32]
 1727              		.loc 1 932 0
 1728 004e 83F83020 		strb	r2, [r3, #48]
 1729              		.loc 1 933 0
 1730 0052 0137     		adds	r7, r7, #1
 1731              	.LVL222:
 1732              		.loc 1 934 0
 1733 0054 0123     		movs	r3, #1
 1734              		.loc 1 935 0
 1735 0056 01EB5721 		add	r1, r1, r7, lsr #9
 1736              		.loc 1 934 0
 1737 005a 2371     		strb	r3, [r4, #4]
 1738              		.loc 1 935 0
 1739 005c 2046     		mov	r0, r4
 1740              	.LVL223:
 1741 005e FFF7FEFF 		bl	move_window
 1742              	.LVL224:
 1743              		.loc 1 936 0
 1744 0062 0028     		cmp	r0, #0
 1745 0064 D8D1     		bne	.L193
 1746              		.loc 1 937 0
 1747 0066 C7F30807 		ubfx	r7, r7, #0, #9
 1748              	.LVL225:
 1749              		.loc 1 938 0
 1750 006a 002D     		cmp	r5, #0
 1751 006c 3DD1     		bne	.L204
ARM GAS  /tmp/ccZHgRNF.s 			page 32


 1752 006e 2744     		add	r7, r7, r4
 1753              	.LVL226:
 1754 0070 C6F30326 		ubfx	r6, r6, #8, #4
 1755              	.LVL227:
 1756 0074 97F83030 		ldrb	r3, [r7, #48]	@ zero_extendqisi2
 1757 0078 23F00F03 		bic	r3, r3, #15
 1758 007c 1E43     		orrs	r6, r6, r3
 1759              	.L200:
 1760 007e 87F83060 		strb	r6, [r7, #48]
 1761 0082 C9E7     		b	.L193
 1762              	.LVL228:
 1763              	.L195:
 1764              		.loc 1 949 0
 1765 0084 016A     		ldr	r1, [r0, #32]
 1766              	.LVL229:
 1767 0086 01EBD511 		add	r1, r1, r5, lsr #7
 1768 008a FFF7FEFF 		bl	move_window
 1769              	.LVL230:
 1770              		.loc 1 950 0
 1771 008e 0028     		cmp	r0, #0
 1772 0090 C2D1     		bne	.L193
 1773              		.loc 1 951 0
 1774 0092 AD00     		lsls	r5, r5, #2
 1775              	.LVL231:
 1776 0094 05F4FE75 		and	r5, r5, #508
 1777 0098 05F13003 		add	r3, r5, #48
 1778 009c 2344     		add	r3, r3, r4
 1779              	.LVL232:
 1780              		.loc 1 952 0
 1781 009e 2544     		add	r5, r5, r4
 1782 00a0 DA78     		ldrb	r2, [r3, #3]	@ zero_extendqisi2
 1783 00a2 1206     		lsls	r2, r2, #24
 1784 00a4 02F07042 		and	r2, r2, #-268435456
 1785 00a8 1643     		orrs	r6, r6, r2
 1786              	.LVL233:
 1787              		.loc 1 953 0
 1788 00aa C6F30727 		ubfx	r7, r6, #8, #8
 1789 00ae 310C     		lsrs	r1, r6, #16
 1790 00b0 320E     		lsrs	r2, r6, #24
 1791 00b2 85F83060 		strb	r6, [r5, #48]
 1792 00b6 5F70     		strb	r7, [r3, #1]
 1793 00b8 9970     		strb	r1, [r3, #2]
 1794 00ba DA70     		strb	r2, [r3, #3]
 1795              		.loc 1 959 0
 1796 00bc 0123     		movs	r3, #1
 1797              	.LVL234:
 1798 00be 2371     		strb	r3, [r4, #4]
 1799              		.loc 1 963 0
 1800 00c0 F8BD     		pop	{r3, r4, r5, r6, r7, pc}
 1801              	.LVL235:
 1802              	.L194:
 1803              		.loc 1 942 0
 1804 00c2 016A     		ldr	r1, [r0, #32]
 1805              	.LVL236:
 1806 00c4 01EB1521 		add	r1, r1, r5, lsr #8
 1807 00c8 FFF7FEFF 		bl	move_window
 1808              	.LVL237:
ARM GAS  /tmp/ccZHgRNF.s 			page 33


 1809              		.loc 1 943 0
 1810 00cc 0028     		cmp	r0, #0
 1811 00ce A3D1     		bne	.L193
 1812              		.loc 1 944 0
 1813 00d0 6D00     		lsls	r5, r5, #1
 1814              	.LVL238:
 1815 00d2 05F4FF75 		and	r5, r5, #510
 1816              	.LVL239:
 1817              		.loc 1 945 0
 1818 00d6 6219     		adds	r2, r4, r5
 1819 00d8 C6F30723 		ubfx	r3, r6, #8, #8
 1820 00dc 82F83130 		strb	r3, [r2, #49]
 1821              		.loc 1 959 0
 1822 00e0 0123     		movs	r3, #1
 1823              		.loc 1 945 0
 1824 00e2 82F83060 		strb	r6, [r2, #48]
 1825              		.loc 1 959 0
 1826 00e6 2371     		strb	r3, [r4, #4]
 1827              		.loc 1 963 0
 1828 00e8 F8BD     		pop	{r3, r4, r5, r6, r7, pc}
 1829              	.LVL240:
 1830              	.L204:
 1831              		.loc 1 938 0
 1832 00ea C6F30716 		ubfx	r6, r6, #4, #8
 1833              	.LVL241:
 1834 00ee 2744     		add	r7, r7, r4
 1835              	.LVL242:
 1836 00f0 C5E7     		b	.L200
 1837              		.cfi_endproc
 1838              	.LFE295:
 1839              		.size	put_fat.part.8, .-put_fat.part.8
 1840 00f2 00BFAFF3 		.section	.text.create_chain,"ax",%progbits
 1840      0080AFF3 
 1840      0080AFF3 
 1840      0080
 1841              		.align	2
 1842              		.p2align 4,,15
 1843              		.thumb
 1844              		.thumb_func
 1845              		.type	create_chain, %function
 1846              	create_chain:
 1847              	.LFB252:
 1848              		.loc 1 1031 0
 1849              		.cfi_startproc
 1850              		@ args = 0, pretend = 0, frame = 0
 1851              		@ frame_needed = 0, uses_anonymous_args = 0
 1852              	.LVL243:
 1853 0000 F8B5     		push	{r3, r4, r5, r6, r7, lr}
 1854              		.cfi_def_cfa_offset 24
 1855              		.cfi_offset 3, -24
 1856              		.cfi_offset 4, -20
 1857              		.cfi_offset 5, -16
 1858              		.cfi_offset 6, -12
 1859              		.cfi_offset 7, -8
 1860              		.cfi_offset 14, -4
 1861              		.loc 1 1031 0
 1862 0002 0546     		mov	r5, r0
ARM GAS  /tmp/ccZHgRNF.s 			page 34


 1863              		.loc 1 1036 0
 1864 0004 0F46     		mov	r7, r1
 1865 0006 E9B9     		cbnz	r1, .L206
 1866              		.loc 1 1037 0
 1867 0008 C668     		ldr	r6, [r0, #12]
 1868              	.LVL244:
 1869 000a 4369     		ldr	r3, [r0, #20]
 1870              		.loc 1 1038 0
 1871 000c 56BB     		cbnz	r6, .L207
 1872 000e 0126     		movs	r6, #1
 1873              	.LVL245:
 1874              	.L208:
 1875 0010 3446     		mov	r4, r6
 1876 0012 10E0     		b	.L219
 1877              	.LVL246:
 1878              	.L241:
 1879              		.loc 1 1053 0
 1880 0014 012E     		cmp	r6, #1
 1881 0016 2ED9     		bls	.L218
 1882              	.LBB192:
 1883              	.LBB193:
 1884              		.loc 1 874 0
 1885 0018 022B     		cmp	r3, #2
 1886 001a 11D9     		bls	.L236
 1887              	.LBE193:
 1888              	.LBE192:
 1889              		.loc 1 1052 0
 1890 001c 0224     		movs	r4, #2
 1891              	.LVL247:
 1892              	.L215:
 1893              	.LBB196:
 1894              	.LBB194:
 1895 001e 2846     		mov	r0, r5
 1896 0020 2146     		mov	r1, r4
 1897 0022 FFF7FEFF 		bl	get_fat.part.6
 1898              	.LVL248:
 1899              	.LBE194:
 1900              	.LBE196:
 1901              		.loc 1 1056 0
 1902 0026 40B3     		cbz	r0, .L216
 1903              		.loc 1 1057 0
 1904 0028 411C     		adds	r1, r0, #1
 1905 002a 21D0     		beq	.L217
 1906              		.loc 1 1057 0 is_stmt 0 discriminator 1
 1907 002c 0128     		cmp	r0, #1
 1908 002e 07D0     		beq	.L236
 1909              		.loc 1 1059 0 is_stmt 1
 1910 0030 A642     		cmp	r6, r4
 1911 0032 20D0     		beq	.L218
 1912 0034 6B69     		ldr	r3, [r5, #20]
 1913              	.LVL249:
 1914              	.L219:
 1915              		.loc 1 1050 0
 1916 0036 0134     		adds	r4, r4, #1
 1917              	.LVL250:
 1918              		.loc 1 1051 0
 1919 0038 9C42     		cmp	r4, r3
ARM GAS  /tmp/ccZHgRNF.s 			page 35


 1920 003a EBD2     		bcs	.L241
 1921              	.LBB197:
 1922              	.LBB195:
 1923              		.loc 1 874 0
 1924 003c 012C     		cmp	r4, #1
 1925 003e EED8     		bhi	.L215
 1926              	.LVL251:
 1927              	.L236:
 1928              	.LBE195:
 1929              	.LBE197:
 1930              		.loc 1 1073 0
 1931 0040 0120     		movs	r0, #1
 1932              	.L231:
 1933              		.loc 1 1077 0
 1934 0042 F8BD     		pop	{r3, r4, r5, r6, r7, pc}
 1935              	.LVL252:
 1936              	.L206:
 1937              	.LBB198:
 1938              	.LBB199:
 1939              		.loc 1 874 0
 1940 0044 0129     		cmp	r1, #1
 1941 0046 FBD9     		bls	.L236
 1942 0048 4369     		ldr	r3, [r0, #20]
 1943 004a 9942     		cmp	r1, r3
 1944 004c F8D2     		bcs	.L236
 1945 004e FFF7FEFF 		bl	get_fat.part.6
 1946              	.LVL253:
 1947              	.LBE199:
 1948              	.LBE198:
 1949              		.loc 1 1042 0
 1950 0052 0128     		cmp	r0, #1
 1951 0054 F4D9     		bls	.L236
 1952              		.loc 1 1043 0
 1953 0056 441C     		adds	r4, r0, #1
 1954 0058 0AD0     		beq	.L217
 1955              		.loc 1 1044 0
 1956 005a 6B69     		ldr	r3, [r5, #20]
 1957 005c 8342     		cmp	r3, r0
 1958 005e F0D8     		bhi	.L231
 1959 0060 3E46     		mov	r6, r7
 1960 0062 D5E7     		b	.L208
 1961              	.LVL254:
 1962              	.L207:
 1963              		.loc 1 1038 0 discriminator 2
 1964 0064 9E42     		cmp	r6, r3
 1965 0066 28BF     		it	cs
 1966 0068 0126     		movcs	r6, #1
 1967              	.LVL255:
 1968 006a D1E7     		b	.L208
 1969              	.LVL256:
 1970              	.L225:
 1971              		.loc 1 1073 0
 1972 006c 0128     		cmp	r0, #1
 1973 006e E7D1     		bne	.L236
 1974              	.LVL257:
 1975              	.L217:
 1976              		.loc 1 1042 0
ARM GAS  /tmp/ccZHgRNF.s 			page 36


 1977 0070 4FF0FF30 		mov	r0, #-1
 1978 0074 F8BD     		pop	{r3, r4, r5, r6, r7, pc}
 1979              	.LVL258:
 1980              	.L218:
 1981              		.loc 1 1053 0
 1982 0076 0020     		movs	r0, #0
 1983 0078 F8BD     		pop	{r3, r4, r5, r6, r7, pc}
 1984              	.LVL259:
 1985              	.L216:
 1986              	.LBB200:
 1987              	.LBB201:
 1988              		.loc 1 922 0
 1989 007a 6B69     		ldr	r3, [r5, #20]
 1990 007c A342     		cmp	r3, r4
 1991 007e DFD9     		bls	.L236
 1992 0080 2846     		mov	r0, r5
 1993 0082 2146     		mov	r1, r4
 1994 0084 6FF07042 		mvn	r2, #-268435456
 1995 0088 FFF7FEFF 		bl	put_fat.part.8
 1996              	.LVL260:
 1997              	.LBE201:
 1998              	.LBE200:
 1999              		.loc 1 1063 0
 2000 008c 0028     		cmp	r0, #0
 2001 008e EDD1     		bne	.L225
 2002              		.loc 1 1063 0 is_stmt 0 discriminator 1
 2003 0090 5FB1     		cbz	r7, .L224
 2004              	.LVL261:
 2005              	.LBB202:
 2006              	.LBB203:
 2007              		.loc 1 922 0 is_stmt 1
 2008 0092 012F     		cmp	r7, #1
 2009 0094 D4D9     		bls	.L236
 2010 0096 6B69     		ldr	r3, [r5, #20]
 2011 0098 9F42     		cmp	r7, r3
 2012 009a D1D2     		bcs	.L236
 2013 009c 3946     		mov	r1, r7
 2014 009e 2846     		mov	r0, r5
 2015              	.LVL262:
 2016 00a0 2246     		mov	r2, r4
 2017 00a2 FFF7FEFF 		bl	put_fat.part.8
 2018              	.LVL263:
 2019              	.LBE203:
 2020              	.LBE202:
 2021              		.loc 1 1066 0
 2022 00a6 0028     		cmp	r0, #0
 2023 00a8 E0D1     		bne	.L225
 2024              	.LVL264:
 2025              	.L224:
 2026              		.loc 1 1068 0
 2027 00aa 2B69     		ldr	r3, [r5, #16]
 2028              		.loc 1 1067 0
 2029 00ac EC60     		str	r4, [r5, #12]
 2030              		.loc 1 1068 0
 2031 00ae 5A1C     		adds	r2, r3, #1
 2032 00b0 07D0     		beq	.L242
 2033              		.loc 1 1070 0
ARM GAS  /tmp/ccZHgRNF.s 			page 37


 2034 00b2 6A79     		ldrb	r2, [r5, #5]	@ zero_extendqisi2
 2035 00b4 42F00102 		orr	r2, r2, #1
 2036              		.loc 1 1069 0
 2037 00b8 013B     		subs	r3, r3, #1
 2038              		.loc 1 1070 0
 2039 00ba 6A71     		strb	r2, [r5, #5]
 2040              		.loc 1 1069 0
 2041 00bc 2B61     		str	r3, [r5, #16]
 2042              		.loc 1 1070 0
 2043 00be 2046     		mov	r0, r4
 2044 00c0 F8BD     		pop	{r3, r4, r5, r6, r7, pc}
 2045              	.LVL265:
 2046              	.L242:
 2047 00c2 2046     		mov	r0, r4
 2048 00c4 F8BD     		pop	{r3, r4, r5, r6, r7, pc}
 2049              		.cfi_endproc
 2050              	.LFE252:
 2051              		.size	create_chain, .-create_chain
 2052 00c6 00BFAFF3 		.section	.text.dir_next,"ax",%progbits
 2052      0080AFF3 
 2052      0080
 2053              		.align	2
 2054              		.p2align 4,,15
 2055              		.thumb
 2056              		.thumb_func
 2057              		.type	dir_next, %function
 2058              	dir_next:
 2059              	.LFB254:
 2060              		.loc 1 1169 0
 2061              		.cfi_startproc
 2062              		@ args = 0, pretend = 0, frame = 0
 2063              		@ frame_needed = 0, uses_anonymous_args = 0
 2064              	.LVL266:
 2065 0000 2DE9F047 		push	{r4, r5, r6, r7, r8, r9, r10, lr}
 2066              		.cfi_def_cfa_offset 32
 2067              		.cfi_offset 4, -32
 2068              		.cfi_offset 5, -28
 2069              		.cfi_offset 6, -24
 2070              		.cfi_offset 7, -20
 2071              		.cfi_offset 8, -16
 2072              		.cfi_offset 9, -12
 2073              		.cfi_offset 10, -8
 2074              		.cfi_offset 14, -4
 2075              		.loc 1 1174 0
 2076 0004 C588     		ldrh	r5, [r0, #6]
 2077 0006 0135     		adds	r5, r5, #1
 2078              	.LVL267:
 2079              		.loc 1 1175 0
 2080 0008 ABB2     		uxth	r3, r5
 2081              		.loc 1 1169 0
 2082 000a 0446     		mov	r4, r0
 2083 000c 0E46     		mov	r6, r1
 2084              		.loc 1 1175 0
 2085 000e 13B9     		cbnz	r3, .L244
 2086              	.LVL268:
 2087              	.L246:
 2088              		.loc 1 1176 0
ARM GAS  /tmp/ccZHgRNF.s 			page 38


 2089 0010 0420     		movs	r0, #4
 2090 0012 BDE8F087 		pop	{r4, r5, r6, r7, r8, r9, r10, pc}
 2091              	.LVL269:
 2092              	.L244:
 2093              		.loc 1 1175 0 discriminator 1
 2094 0016 0369     		ldr	r3, [r0, #16]
 2095 0018 002B     		cmp	r3, #0
 2096 001a F9D0     		beq	.L246
 2097              		.loc 1 1178 0
 2098 001c 15F00F07 		ands	r7, r5, #15
 2099 0020 08D0     		beq	.L247
 2100 0022 0368     		ldr	r3, [r0]
 2101              	.LVL270:
 2102              	.L248:
 2103              		.loc 1 1220 0
 2104 0024 03EB4713 		add	r3, r3, r7, lsl #5
 2105 0028 3033     		adds	r3, r3, #48
 2106 002a 6361     		str	r3, [r4, #20]
 2107              		.loc 1 1219 0
 2108 002c E580     		strh	r5, [r4, #6]	@ movhi
 2109              		.loc 1 1222 0
 2110 002e 0020     		movs	r0, #0
 2111 0030 BDE8F087 		pop	{r4, r5, r6, r7, r8, r9, r10, pc}
 2112              	.LVL271:
 2113              	.L247:
 2114              		.loc 1 1181 0
 2115 0034 C168     		ldr	r1, [r0, #12]
 2116              	.LVL272:
 2117              		.loc 1 1179 0
 2118 0036 0133     		adds	r3, r3, #1
 2119 0038 0361     		str	r3, [r0, #16]
 2120              		.loc 1 1182 0
 2121 003a 0368     		ldr	r3, [r0]
 2122              		.loc 1 1181 0
 2123 003c 61B1     		cbz	r1, .L284
 2124              		.loc 1 1186 0
 2125 003e 9A78     		ldrb	r2, [r3, #2]	@ zero_extendqisi2
 2126 0040 013A     		subs	r2, r2, #1
 2127 0042 12EA1512 		ands	r2, r2, r5, lsr #4
 2128 0046 EDD1     		bne	.L248
 2129              	.LVL273:
 2130              	.LBB204:
 2131              	.LBB205:
 2132              		.loc 1 874 0
 2133 0048 0129     		cmp	r1, #1
 2134 004a 02D9     		bls	.L251
 2135 004c 5A69     		ldr	r2, [r3, #20]
 2136 004e 9142     		cmp	r1, r2
 2137 0050 06D3     		bcc	.L285
 2138              	.LVL274:
 2139              	.L251:
 2140              	.LBE205:
 2141              	.LBE204:
 2142              		.loc 1 1188 0
 2143 0052 0220     		movs	r0, #2
 2144 0054 BDE8F087 		pop	{r4, r5, r6, r7, r8, r9, r10, pc}
 2145              	.LVL275:
ARM GAS  /tmp/ccZHgRNF.s 			page 39


 2146              	.L284:
 2147              		.loc 1 1182 0
 2148 0058 1A89     		ldrh	r2, [r3, #8]
 2149 005a 9542     		cmp	r5, r2
 2150 005c D8D2     		bcs	.L246
 2151 005e E1E7     		b	.L248
 2152              	.LVL276:
 2153              	.L285:
 2154              	.LBB208:
 2155              	.LBB206:
 2156 0060 1846     		mov	r0, r3
 2157              	.LVL277:
 2158 0062 FFF7FEFF 		bl	get_fat.part.6
 2159              	.LVL278:
 2160              	.LBE206:
 2161              	.LBE208:
 2162              		.loc 1 1188 0
 2163 0066 0128     		cmp	r0, #1
 2164              	.LBB209:
 2165              	.LBB207:
 2166 0068 8046     		mov	r8, r0
 2167              	.LBE207:
 2168              	.LBE209:
 2169 006a F2D9     		bls	.L251
 2170              		.loc 1 1189 0
 2171 006c B0F1FF3F 		cmp	r0, #-1
 2172 0070 1BD0     		beq	.L254
 2173              		.loc 1 1190 0
 2174 0072 2368     		ldr	r3, [r4]
 2175 0074 5A69     		ldr	r2, [r3, #20]
 2176 0076 8242     		cmp	r2, r0
 2177 0078 0CD9     		bls	.L283
 2178 007a 861E     		subs	r6, r0, #2
 2179              	.LVL279:
 2180              	.L253:
 2181              	.LBB210:
 2182              	.LBB211:
 2183              		.loc 1 853 0
 2184 007c 023A     		subs	r2, r2, #2
 2185 007e 9642     		cmp	r6, r2
 2186              	.LBE211:
 2187              	.LBE210:
 2188              		.loc 1 1213 0
 2189 0080 C4F80C80 		str	r8, [r4, #12]
 2190              	.LVL280:
 2191              	.LBB213:
 2192              	.LBB212:
 2193              		.loc 1 854 0
 2194 0084 3BBF     		ittet	cc
 2195 0086 9978     		ldrbcc	r1, [r3, #2]	@ zero_extendqisi2
 2196 0088 9A6A     		ldrcc	r2, [r3, #40]
 2197              		.loc 1 853 0
 2198 008a 0026     		movcs	r6, #0
 2199              	.LVL281:
 2200              		.loc 1 854 0
 2201 008c 01FB0626 		mlacc	r6, r1, r6, r2
 2202              	.LBE212:
ARM GAS  /tmp/ccZHgRNF.s 			page 40


 2203              	.LBE213:
 2204              		.loc 1 1214 0
 2205 0090 2661     		str	r6, [r4, #16]
 2206 0092 C7E7     		b	.L248
 2207              	.LVL282:
 2208              	.L283:
 2209              	.LBB214:
 2210              		.loc 1 1193 0
 2211 0094 002E     		cmp	r6, #0
 2212 0096 BBD0     		beq	.L246
 2213              		.loc 1 1194 0
 2214 0098 1846     		mov	r0, r3
 2215 009a E168     		ldr	r1, [r4, #12]
 2216 009c FFF7FEFF 		bl	create_chain
 2217              	.LVL283:
 2218              		.loc 1 1195 0
 2219 00a0 8046     		mov	r8, r0
 2220 00a2 28B9     		cbnz	r0, .L286
 2221 00a4 0720     		movs	r0, #7
 2222              	.LVL284:
 2223              	.LBE214:
 2224              		.loc 1 1223 0
 2225 00a6 BDE8F087 		pop	{r4, r5, r6, r7, r8, r9, r10, pc}
 2226              	.LVL285:
 2227              	.L254:
 2228              		.loc 1 1189 0
 2229 00aa 0120     		movs	r0, #1
 2230 00ac BDE8F087 		pop	{r4, r5, r6, r7, r8, r9, r10, pc}
 2231              	.LVL286:
 2232              	.L286:
 2233              	.LBB225:
 2234              		.loc 1 1196 0
 2235 00b0 0128     		cmp	r0, #1
 2236 00b2 CED0     		beq	.L251
 2237              		.loc 1 1197 0
 2238 00b4 B0F1FF3F 		cmp	r0, #-1
 2239 00b8 F7D0     		beq	.L254
 2240              		.loc 1 1199 0
 2241 00ba 2068     		ldr	r0, [r4]
 2242              	.LVL287:
 2243              	.LBB215:
 2244              	.LBB216:
 2245              		.loc 1 763 0
 2246 00bc 0379     		ldrb	r3, [r0, #4]	@ zero_extendqisi2
 2247 00be 002B     		cmp	r3, #0
 2248 00c0 2FD1     		bne	.L255
 2249              	.LVL288:
 2250              	.L257:
 2251              	.LBE216:
 2252              	.LBE215:
 2253              		.loc 1 1200 0
 2254 00c2 00F13003 		add	r3, r0, #48
 2255              	.LVL289:
 2256              	.LBB218:
 2257              	.LBB219:
 2258              		.loc 1 583 0
 2259 00c6 0022     		movs	r2, #0
ARM GAS  /tmp/ccZHgRNF.s 			page 41


 2260 00c8 00F50C70 		add	r0, r0, #560
 2261              	.LVL290:
 2262              	.L256:
 2263 00cc 03F8012B 		strb	r2, [r3], #1
 2264              	.LVL291:
 2265              		.loc 1 582 0
 2266 00d0 8342     		cmp	r3, r0
 2267 00d2 FBD1     		bne	.L256
 2268              	.LBE219:
 2269              	.LBE218:
 2270              		.loc 1 1201 0
 2271 00d4 2068     		ldr	r0, [r4]
 2272              	.LVL292:
 2273              	.LBB220:
 2274              	.LBB221:
 2275              		.loc 1 853 0
 2276 00d6 4369     		ldr	r3, [r0, #20]
 2277              	.LVL293:
 2278              		.loc 1 852 0
 2279 00d8 A8F10206 		sub	r6, r8, #2
 2280              	.LVL294:
 2281              		.loc 1 853 0
 2282 00dc 023B     		subs	r3, r3, #2
 2283 00de 9E42     		cmp	r6, r3
 2284              		.loc 1 854 0
 2285 00e0 3BBF     		ittet	cc
 2286 00e2 836A     		ldrcc	r3, [r0, #40]
 2287 00e4 8278     		ldrbcc	r2, [r0, #2]	@ zero_extendqisi2
 2288              		.loc 1 853 0
 2289 00e6 0023     		movcs	r3, #0
 2290              		.loc 1 854 0
 2291 00e8 02FB0633 		mlacc	r3, r2, r6, r3
 2292              	.LBE221:
 2293              	.LBE220:
 2294              		.loc 1 1201 0
 2295 00ec C362     		str	r3, [r0, #44]
 2296              	.LVL295:
 2297              		.loc 1 1202 0
 2298 00ee 4FF00009 		mov	r9, #0
 2299              		.loc 1 1203 0
 2300 00f2 4FF0010A 		mov	r10, #1
 2301              		.loc 1 1202 0
 2302 00f6 04E0     		b	.L260
 2303              	.LVL296:
 2304              	.L262:
 2305              		.loc 1 1205 0
 2306 00f8 C36A     		ldr	r3, [r0, #44]
 2307 00fa 0133     		adds	r3, r3, #1
 2308 00fc C362     		str	r3, [r0, #44]
 2309              		.loc 1 1202 0
 2310 00fe 09F10109 		add	r9, r9, #1
 2311              	.LVL297:
 2312              	.L260:
 2313              		.loc 1 1202 0 is_stmt 0 discriminator 1
 2314 0102 8278     		ldrb	r2, [r0, #2]	@ zero_extendqisi2
 2315 0104 9145     		cmp	r9, r2
 2316 0106 0346     		mov	r3, r0
ARM GAS  /tmp/ccZHgRNF.s 			page 42


 2317 0108 11D2     		bcs	.L287
 2318              		.loc 1 1203 0 is_stmt 1
 2319 010a 80F804A0 		strb	r10, [r0, #4]
 2320              		.loc 1 1204 0
 2321 010e 2068     		ldr	r0, [r4]
 2322              	.LVL298:
 2323              	.LBB222:
 2324              	.LBB223:
 2325              		.loc 1 763 0
 2326 0110 0379     		ldrb	r3, [r0, #4]	@ zero_extendqisi2
 2327 0112 002B     		cmp	r3, #0
 2328 0114 F0D0     		beq	.L262
 2329 0116 FFF7FEFF 		bl	sync_window.part.3
 2330              	.LVL299:
 2331              	.LBE223:
 2332              	.LBE222:
 2333              		.loc 1 1204 0
 2334 011a 0028     		cmp	r0, #0
 2335 011c C5D1     		bne	.L254
 2336 011e 2068     		ldr	r0, [r4]
 2337 0120 EAE7     		b	.L262
 2338              	.LVL300:
 2339              	.L255:
 2340              	.LBB224:
 2341              	.LBB217:
 2342 0122 FFF7FEFF 		bl	sync_window.part.3
 2343              	.LVL301:
 2344              	.LBE217:
 2345              	.LBE224:
 2346              		.loc 1 1199 0
 2347 0126 0028     		cmp	r0, #0
 2348 0128 BFD1     		bne	.L254
 2349 012a 2068     		ldr	r0, [r4]
 2350 012c C9E7     		b	.L257
 2351              	.LVL302:
 2352              	.L287:
 2353              		.loc 1 1207 0
 2354 012e C16A     		ldr	r1, [r0, #44]
 2355 0130 4269     		ldr	r2, [r0, #20]
 2356 0132 C9EB0101 		rsb	r1, r9, r1
 2357 0136 C162     		str	r1, [r0, #44]
 2358 0138 A0E7     		b	.L253
 2359              	.LBE225:
 2360              		.cfi_endproc
 2361              	.LFE254:
 2362              		.size	dir_next, .-dir_next
 2363 013a 00BFAFF3 		.section	.text.follow_path,"ax",%progbits
 2363      0080
 2364              		.align	2
 2365              		.p2align 4,,15
 2366              		.thumb
 2367              		.thumb_func
 2368              		.type	follow_path, %function
 2369              	follow_path:
 2370              	.LFB264:
 2371              		.loc 1 2019 0
 2372              		.cfi_startproc
ARM GAS  /tmp/ccZHgRNF.s 			page 43


 2373              		@ args = 0, pretend = 0, frame = 0
 2374              		@ frame_needed = 0, uses_anonymous_args = 0
 2375              	.LVL303:
 2376 0000 2DE9F84F 		push	{r3, r4, r5, r6, r7, r8, r9, r10, fp, lr}
 2377              		.cfi_def_cfa_offset 40
 2378              		.cfi_offset 3, -40
 2379              		.cfi_offset 4, -36
 2380              		.cfi_offset 5, -32
 2381              		.cfi_offset 6, -28
 2382              		.cfi_offset 7, -24
 2383              		.cfi_offset 8, -20
 2384              		.cfi_offset 9, -16
 2385              		.cfi_offset 10, -12
 2386              		.cfi_offset 11, -8
 2387              		.cfi_offset 14, -4
 2388              		.loc 1 2031 0
 2389 0004 0B78     		ldrb	r3, [r1]	@ zero_extendqisi2
 2390 0006 2F2B     		cmp	r3, #47
 2391              		.loc 1 2019 0
 2392 0008 0F46     		mov	r7, r1
 2393 000a 8246     		mov	r10, r0
 2394              		.loc 1 2031 0
 2395 000c 64D0     		beq	.L289
 2396              		.loc 1 2031 0 is_stmt 0 discriminator 1
 2397 000e 5C2B     		cmp	r3, #92
 2398 0010 62D0     		beq	.L289
 2399              		.loc 1 2033 0 is_stmt 1
 2400 0012 0024     		movs	r4, #0
 2401 0014 CAF80840 		str	r4, [r10, #8]
 2402              		.loc 1 2036 0
 2403 0018 3B78     		ldrb	r3, [r7]	@ zero_extendqisi2
 2404 001a 1F2B     		cmp	r3, #31
 2405 001c 63D9     		bls	.L357
 2406              	.LVL304:
 2407              	.L291:
 2408 001e DAF818C0 		ldr	ip, [r10, #24]
 2409              	.LBB238:
 2410              	.LBB239:
 2411              		.loc 1 1965 0
 2412 0022 DFF8D481 		ldr	r8, .L366+4
 2413              	.LVL305:
 2414 0026 01E0     		b	.L293
 2415              	.LVL306:
 2416              	.L294:
 2417 0028 17F8013F 		ldrb	r3, [r7, #1]!	@ zero_extendqisi2
 2418              	.LVL307:
 2419              	.L293:
 2420              		.loc 1 1937 0
 2421 002c 2F2B     		cmp	r3, #47
 2422 002e FBD0     		beq	.L294
 2423 0030 5C2B     		cmp	r3, #92
 2424 0032 F9D0     		beq	.L294
 2425              	.LVL308:
 2426 0034 0CF10B01 		add	r1, ip, #11
 2427 0038 6346     		mov	r3, ip
 2428              	.LBB240:
 2429              	.LBB241:
ARM GAS  /tmp/ccZHgRNF.s 			page 44


 2430              		.loc 1 583 0
 2431 003a 2022     		movs	r2, #32
 2432              	.LVL309:
 2433              	.L297:
 2434 003c 03F8012B 		strb	r2, [r3], #1
 2435              	.LVL310:
 2436              		.loc 1 582 0
 2437 0040 8B42     		cmp	r3, r1
 2438 0042 FBD1     		bne	.L297
 2439 0044 0024     		movs	r4, #0
 2440 0046 2046     		mov	r0, r4
 2441 0048 2546     		mov	r5, r4
 2442 004a 0826     		movs	r6, #8
 2443              	.LVL311:
 2444              	.L296:
 2445              	.LBE241:
 2446              	.LBE240:
 2447              		.loc 1 1955 0
 2448 004c 0130     		adds	r0, r0, #1
 2449              	.LVL312:
 2450 004e 07EB0009 		add	r9, r7, r0
 2451 0052 19F8012C 		ldrb	r2, [r9, #-1]	@ zero_extendqisi2
 2452              	.LVL313:
 2453              		.loc 1 1956 0
 2454 0056 202A     		cmp	r2, #32
 2455 0058 24D9     		bls	.L298
 2456              	.LVL314:
 2457              	.L361:
 2458 005a 2F2A     		cmp	r2, #47
 2459 005c 37D0     		beq	.L299
 2460 005e 5C2A     		cmp	r2, #92
 2461 0060 35D0     		beq	.L299
 2462              		.loc 1 1957 0
 2463 0062 2E2A     		cmp	r2, #46
 2464 0064 00F0BE80 		beq	.L300
 2465 0068 B442     		cmp	r4, r6
 2466 006a 1ED2     		bcs	.L332
 2467              		.loc 1 1962 0
 2468 006c 1106     		lsls	r1, r2, #24
 2469 006e 28D4     		bmi	.L358
 2470              	.L303:
 2471              	.LVL315:
 2472              	.LBB242:
 2473              	.LBB243:
 2474              		.loc 1 599 0
 2475 0070 222A     		cmp	r2, #34
 2476 0072 1AD0     		beq	.L332
 2477 0074 5F49     		ldr	r1, .L366
 2478 0076 01E0     		b	.L326
 2479              	.LVL316:
 2480              	.L359:
 2481 0078 9A42     		cmp	r2, r3
 2482 007a 16D0     		beq	.L332
 2483              	.LVL317:
 2484              	.L326:
 2485 007c 11F8013F 		ldrb	r3, [r1, #1]!	@ zero_extendqisi2
 2486              	.LVL318:
ARM GAS  /tmp/ccZHgRNF.s 			page 45


 2487 0080 002B     		cmp	r3, #0
 2488 0082 F9D1     		bne	.L359
 2489              	.LBE243:
 2490              	.LBE242:
 2491              		.loc 1 1981 0
 2492 0084 A2F14103 		sub	r3, r2, #65
 2493 0088 192B     		cmp	r3, #25
 2494 008a 11D8     		bhi	.L360
 2495              		.loc 1 1982 0
 2496 008c 45F00205 		orr	r5, r5, #2
 2497              	.LVL319:
 2498              	.L306:
 2499              		.loc 1 1955 0
 2500 0090 0130     		adds	r0, r0, #1
 2501              	.LVL320:
 2502              		.loc 1 1988 0
 2503 0092 0CF80420 		strb	r2, [ip, r4]
 2504 0096 07EB0009 		add	r9, r7, r0
 2505 009a 0134     		adds	r4, r4, #1
 2506              	.LVL321:
 2507              		.loc 1 1955 0
 2508 009c 19F8012C 		ldrb	r2, [r9, #-1]	@ zero_extendqisi2
 2509              	.LVL322:
 2510              		.loc 1 1956 0
 2511 00a0 202A     		cmp	r2, #32
 2512 00a2 DAD8     		bhi	.L361
 2513              	.LVL323:
 2514              	.L298:
 2515              		.loc 1 1991 0
 2516 00a4 4F46     		mov	r7, r9
 2517              	.LVL324:
 2518              		.loc 1 1992 0
 2519 00a6 0423     		movs	r3, #4
 2520              	.LVL325:
 2521              		.loc 1 1994 0
 2522 00a8 2CBB     		cbnz	r4, .L362
 2523              	.LVL326:
 2524              	.L332:
 2525              	.LBB245:
 2526              	.LBB244:
 2527              		.loc 1 599 0
 2528 00aa 0620     		movs	r0, #6
 2529              	.LVL327:
 2530 00ac BDE8F88F 		pop	{r3, r4, r5, r6, r7, r8, r9, r10, fp, pc}
 2531              	.LVL328:
 2532              	.L360:
 2533              	.LBE244:
 2534              	.LBE245:
 2535              		.loc 1 1984 0
 2536 00b0 A2F16103 		sub	r3, r2, #97
 2537 00b4 192B     		cmp	r3, #25
 2538 00b6 EBD8     		bhi	.L306
 2539              		.loc 1 1985 0
 2540 00b8 203A     		subs	r2, r2, #32
 2541              	.LVL329:
 2542 00ba D2B2     		uxtb	r2, r2
 2543              	.LVL330:
ARM GAS  /tmp/ccZHgRNF.s 			page 46


 2544 00bc 45F00105 		orr	r5, r5, #1
 2545              	.LVL331:
 2546 00c0 E6E7     		b	.L306
 2547              	.LVL332:
 2548              	.L358:
 2549              		.loc 1 1965 0
 2550 00c2 803A     		subs	r2, r2, #128
 2551              		.loc 1 1963 0
 2552 00c4 45F00305 		orr	r5, r5, #3
 2553              	.LVL333:
 2554              		.loc 1 1965 0
 2555 00c8 18F80220 		ldrb	r2, [r8, r2]	@ zero_extendqisi2
 2556              	.LVL334:
 2557 00cc D0E7     		b	.L303
 2558              	.LVL335:
 2559              	.L299:
 2560              		.loc 1 1991 0
 2561 00ce 4F46     		mov	r7, r9
 2562              	.LVL336:
 2563              		.loc 1 1992 0
 2564 00d0 0023     		movs	r3, #0
 2565              	.LVL337:
 2566              		.loc 1 1994 0
 2567 00d2 002C     		cmp	r4, #0
 2568 00d4 E9D0     		beq	.L332
 2569              	.LVL338:
 2570 00d6 0EE0     		b	.L362
 2571              	.LVL339:
 2572              	.L289:
 2573              	.LBE239:
 2574              	.LBE238:
 2575              		.loc 1 2032 0
 2576 00d8 0137     		adds	r7, r7, #1
 2577              	.LVL340:
 2578              		.loc 1 2033 0
 2579 00da 0024     		movs	r4, #0
 2580 00dc CAF80840 		str	r4, [r10, #8]
 2581              		.loc 1 2036 0
 2582 00e0 3B78     		ldrb	r3, [r7]	@ zero_extendqisi2
 2583 00e2 1F2B     		cmp	r3, #31
 2584 00e4 9BD8     		bhi	.L291
 2585              	.L357:
 2586              		.loc 1 2037 0
 2587 00e6 5046     		mov	r0, r10
 2588              	.LVL341:
 2589 00e8 2146     		mov	r1, r4
 2590 00ea FFF7FEFF 		bl	dir_sdi
 2591              	.LVL342:
 2592              		.loc 1 2038 0
 2593 00ee CAF81440 		str	r4, [r10, #20]
 2594 00f2 BDE8F88F 		pop	{r3, r4, r5, r6, r7, r8, r9, r10, fp, pc}
 2595              	.LVL343:
 2596              	.L362:
 2597              	.LBB248:
 2598              	.LBB246:
 2599              		.loc 1 1995 0
 2600 00f6 9CF80020 		ldrb	r2, [ip]	@ zero_extendqisi2
ARM GAS  /tmp/ccZHgRNF.s 			page 47


 2601 00fa E52A     		cmp	r2, #229
 2602 00fc 04BF     		itt	eq
 2603 00fe 0522     		moveq	r2, #5
 2604 0100 8CF80020 		strbeq	r2, [ip]
 2605              		.loc 1 1997 0
 2606 0104 082E     		cmp	r6, #8
 2607 0106 04BF     		itt	eq
 2608 0108 AD00     		lsleq	r5, r5, #2
 2609 010a EDB2     		uxtbeq	r5, r5
 2610              	.LVL344:
 2611              		.loc 1 1998 0
 2612 010c 05F00302 		and	r2, r5, #3
 2613 0110 012A     		cmp	r2, #1
 2614              		.loc 1 1999 0
 2615 0112 05F00C05 		and	r5, r5, #12
 2616              	.LVL345:
 2617              		.loc 1 1998 0
 2618 0116 08BF     		it	eq
 2619 0118 43F01003 		orreq	r3, r3, #16
 2620              	.LVL346:
 2621              		.loc 1 1999 0
 2622 011c 042D     		cmp	r5, #4
 2623 011e 08BF     		it	eq
 2624 0120 43F00803 		orreq	r3, r3, #8
 2625              	.LVL347:
 2626              		.loc 1 2001 0
 2627 0124 8CF80B30 		strb	r3, [ip, #11]
 2628              	.LVL348:
 2629              	.LBE246:
 2630              	.LBE248:
 2631              	.LBB249:
 2632              	.LBB250:
 2633              		.loc 1 1500 0
 2634 0128 5046     		mov	r0, r10
 2635              	.LVL349:
 2636 012a 0021     		movs	r1, #0
 2637 012c FFF7FEFF 		bl	dir_sdi
 2638              	.LVL350:
 2639              		.loc 1 1501 0
 2640 0130 0028     		cmp	r0, #0
 2641 0132 3AD1     		bne	.L311
 2642              	.LVL351:
 2643              	.L317:
 2644              		.loc 1 1507 0
 2645 0134 DAF80000 		ldr	r0, [r10]
 2646              	.LVL352:
 2647 0138 DAF81010 		ldr	r1, [r10, #16]
 2648 013c FFF7FEFF 		bl	move_window
 2649              	.LVL353:
 2650              		.loc 1 1508 0
 2651 0140 98BB     		cbnz	r0, .L311
 2652              		.loc 1 1509 0
 2653 0142 DAF81410 		ldr	r1, [r10, #20]
 2654              	.LVL354:
 2655              		.loc 1 1510 0
 2656 0146 0A78     		ldrb	r2, [r1]	@ zero_extendqisi2
 2657              	.LVL355:
ARM GAS  /tmp/ccZHgRNF.s 			page 48


 2658              		.loc 1 1511 0
 2659 0148 002A     		cmp	r2, #0
 2660 014a 3CD0     		beq	.L312
 2661              		.loc 1 1534 0
 2662 014c 91F80BB0 		ldrb	fp, [r1, #11]	@ zero_extendqisi2
 2663 0150 1BF0080F 		tst	fp, #8
 2664 0154 23D1     		bne	.L313
 2665 0156 DAF818C0 		ldr	ip, [r10, #24]
 2666              	.LVL356:
 2667 015a 0D46     		mov	r5, r1
 2668 015c 0CF10B06 		add	r6, ip, #11
 2669 0160 6346     		mov	r3, ip
 2670 0162 01E0     		b	.L314
 2671              	.LVL357:
 2672              	.L363:
 2673 0164 15F8012F 		ldrb	r2, [r5, #1]!	@ zero_extendqisi2
 2674              	.LVL358:
 2675              	.L314:
 2676              	.LBB251:
 2677              	.LBB252:
 2678              		.loc 1 592 0
 2679 0168 13F8014B 		ldrb	r4, [r3], #1	@ zero_extendqisi2
 2680              	.LVL359:
 2681 016c 9442     		cmp	r4, r2
 2682 016e 16D1     		bne	.L313
 2683 0170 B342     		cmp	r3, r6
 2684 0172 F7D1     		bne	.L363
 2685              	.LVL360:
 2686              	.LBE252:
 2687              	.LBE251:
 2688              	.LBE250:
 2689              	.LBE249:
 2690              		.loc 1 2057 0
 2691 0174 9CF80B30 		ldrb	r3, [ip, #11]	@ zero_extendqisi2
 2692              	.LVL361:
 2693 0178 5B07     		lsls	r3, r3, #29
 2694 017a 31D4     		bmi	.L364
 2695              	.LVL362:
 2696              		.loc 1 2059 0
 2697 017c 1BF0100F 		tst	fp, #16
 2698 0180 2BD0     		beq	.L330
 2699              	.LVL363:
 2700              		.loc 1 2062 0
 2701 0182 DAF80020 		ldr	r2, [r10]
 2702              	.LBB254:
 2703              	.LBB255:
 2704              		.loc 1 1277 0
 2705 0186 C87E     		ldrb	r0, [r1, #27]	@ zero_extendqisi2
 2706              	.LVL364:
 2707              		.loc 1 1278 0
 2708 0188 1278     		ldrb	r2, [r2]	@ zero_extendqisi2
 2709              		.loc 1 1277 0
 2710 018a 8B7E     		ldrb	r3, [r1, #26]	@ zero_extendqisi2
 2711              		.loc 1 1278 0
 2712 018c 032A     		cmp	r2, #3
 2713              		.loc 1 1277 0
 2714 018e 43EA0023 		orr	r3, r3, r0, lsl #8
ARM GAS  /tmp/ccZHgRNF.s 			page 49


 2715              	.LVL365:
 2716              		.loc 1 1278 0
 2717 0192 11D0     		beq	.L365
 2718              	.L318:
 2719              	.LBE255:
 2720              	.LBE254:
 2721              		.loc 1 2062 0
 2722 0194 CAF80830 		str	r3, [r10, #8]
 2723              	.LVL366:
 2724 0198 99F80030 		ldrb	r3, [r9]	@ zero_extendqisi2
 2725              	.LVL367:
 2726              		.loc 1 2063 0
 2727 019c 46E7     		b	.L293
 2728              	.LVL368:
 2729              	.L313:
 2730              	.LBB257:
 2731              	.LBB253:
 2732              		.loc 1 1537 0
 2733 019e 5046     		mov	r0, r10
 2734              	.LVL369:
 2735 01a0 0021     		movs	r1, #0
 2736              	.LVL370:
 2737 01a2 FFF7FEFF 		bl	dir_next
 2738              	.LVL371:
 2739              		.loc 1 1538 0
 2740 01a6 0028     		cmp	r0, #0
 2741 01a8 C4D0     		beq	.L317
 2742              	.L311:
 2743              	.LBE253:
 2744              	.LBE257:
 2745              		.loc 1 2044 0
 2746 01aa DAF81830 		ldr	r3, [r10, #24]
 2747              		.loc 1 2046 0
 2748 01ae 0428     		cmp	r0, #4
 2749              		.loc 1 2044 0
 2750 01b0 DB7A     		ldrb	r3, [r3, #11]	@ zero_extendqisi2
 2751              	.LVL372:
 2752              		.loc 1 2046 0
 2753 01b2 0BD0     		beq	.L324
 2754              		.loc 1 2067 0
 2755 01b4 BDE8F88F 		pop	{r3, r4, r5, r6, r7, r8, r9, r10, fp, pc}
 2756              	.LVL373:
 2757              	.L365:
 2758              	.LBB258:
 2759              	.LBB256:
 2760              		.loc 1 1279 0
 2761 01b8 487D     		ldrb	r0, [r1, #21]	@ zero_extendqisi2
 2762 01ba 0A7D     		ldrb	r2, [r1, #20]	@ zero_extendqisi2
 2763 01bc 42EA0022 		orr	r2, r2, r0, lsl #8
 2764 01c0 43EA0243 		orr	r3, r3, r2, lsl #16
 2765              	.LVL374:
 2766 01c4 E6E7     		b	.L318
 2767              	.LVL375:
 2768              	.L312:
 2769              	.LBE256:
 2770              	.LBE258:
 2771              		.loc 1 2044 0
ARM GAS  /tmp/ccZHgRNF.s 			page 50


 2772 01c6 DAF81830 		ldr	r3, [r10, #24]
 2773 01ca DB7A     		ldrb	r3, [r3, #11]	@ zero_extendqisi2
 2774              	.LVL376:
 2775              	.L324:
 2776              		.loc 1 2052 0
 2777 01cc 13F0040F 		tst	r3, #4
 2778 01d0 0CBF     		ite	eq
 2779 01d2 0520     		moveq	r0, #5
 2780 01d4 0420     		movne	r0, #4
 2781              	.LVL377:
 2782 01d6 BDE8F88F 		pop	{r3, r4, r5, r6, r7, r8, r9, r10, fp, pc}
 2783              	.LVL378:
 2784              	.L330:
 2785              		.loc 1 2060 0
 2786 01da 0520     		movs	r0, #5
 2787              	.LVL379:
 2788 01dc BDE8F88F 		pop	{r3, r4, r5, r6, r7, r8, r9, r10, fp, pc}
 2789              	.LVL380:
 2790              	.L364:
 2791 01e0 BDE8F88F 		pop	{r3, r4, r5, r6, r7, r8, r9, r10, fp, pc}
 2792              	.LVL381:
 2793              	.L300:
 2794              	.LBB259:
 2795              	.LBB247:
 2796              		.loc 1 1958 0
 2797 01e4 082E     		cmp	r6, #8
 2798 01e6 7FF460AF 		bne	.L332
 2799              	.LVL382:
 2800              		.loc 1 1960 0
 2801 01ea AD00     		lsls	r5, r5, #2
 2802              		.loc 1 1959 0
 2803 01ec 3446     		mov	r4, r6
 2804              		.loc 1 1960 0
 2805 01ee EDB2     		uxtb	r5, r5
 2806              	.LVL383:
 2807              		.loc 1 1959 0
 2808 01f0 0B26     		movs	r6, #11
 2809 01f2 2BE7     		b	.L296
 2810              	.L367:
 2811              		.align	2
 2812              	.L366:
 2813 01f4 00000000 		.word	.LC0
 2814 01f8 00000000 		.word	.LANCHOR2
 2815              	.LBE247:
 2816              	.LBE259:
 2817              		.cfi_endproc
 2818              	.LFE264:
 2819              		.size	follow_path, .-follow_path
 2820 01fc AFF30080 		.section	.text.remove_chain.part.10,"ax",%progbits
 2821              		.align	2
 2822              		.p2align 4,,15
 2823              		.thumb
 2824              		.thumb_func
 2825              		.type	remove_chain.part.10, %function
 2826              	remove_chain.part.10:
 2827              	.LFB297:
 2828              		.loc 1 974 0
ARM GAS  /tmp/ccZHgRNF.s 			page 51


 2829              		.cfi_startproc
 2830              		@ args = 0, pretend = 0, frame = 0
 2831              		@ frame_needed = 0, uses_anonymous_args = 0
 2832              	.LVL384:
 2833 0000 70B5     		push	{r4, r5, r6, lr}
 2834              		.cfi_def_cfa_offset 16
 2835              		.cfi_offset 4, -16
 2836              		.cfi_offset 5, -12
 2837              		.cfi_offset 6, -8
 2838              		.cfi_offset 14, -4
 2839              		.loc 1 974 0
 2840 0002 0446     		mov	r4, r0
 2841 0004 0D46     		mov	r5, r1
 2842              	.LVL385:
 2843              		.loc 1 990 0
 2844 0006 6369     		ldr	r3, [r4, #20]
 2845 0008 9D42     		cmp	r5, r3
 2846 000a 23D2     		bcs	.L376
 2847              	.LVL386:
 2848              	.L375:
 2849              	.LBB260:
 2850              	.LBB261:
 2851              		.loc 1 874 0
 2852 000c 012D     		cmp	r5, #1
 2853 000e 0CD9     		bls	.L373
 2854 0010 2046     		mov	r0, r4
 2855 0012 2946     		mov	r1, r5
 2856 0014 FFF7FEFF 		bl	get_fat.part.6
 2857              	.LVL387:
 2858              	.LBE261:
 2859              	.LBE260:
 2860              		.loc 1 992 0
 2861 0018 0646     		mov	r6, r0
 2862 001a D8B1     		cbz	r0, .L376
 2863              		.loc 1 993 0
 2864 001c 0128     		cmp	r0, #1
 2865 001e 04D0     		beq	.L373
 2866              		.loc 1 994 0
 2867 0020 411C     		adds	r1, r0, #1
 2868 0022 19D0     		beq	.L377
 2869              	.LBB262:
 2870              	.LBB263:
 2871              		.loc 1 922 0
 2872 0024 6369     		ldr	r3, [r4, #20]
 2873 0026 9D42     		cmp	r5, r3
 2874 0028 01D3     		bcc	.L384
 2875              	.LVL388:
 2876              	.L373:
 2877              	.LBE263:
 2878              	.LBE262:
 2879              		.loc 1 993 0
 2880 002a 0220     		movs	r0, #2
 2881 002c 70BD     		pop	{r4, r5, r6, pc}
 2882              	.LVL389:
 2883              	.L384:
 2884              	.LBB265:
 2885              	.LBB264:
ARM GAS  /tmp/ccZHgRNF.s 			page 52


 2886 002e 2946     		mov	r1, r5
 2887 0030 2046     		mov	r0, r4
 2888 0032 0022     		movs	r2, #0
 2889 0034 FFF7FEFF 		bl	put_fat.part.8
 2890              	.LVL390:
 2891              	.LBE264:
 2892              	.LBE265:
 2893              		.loc 1 996 0
 2894 0038 78B9     		cbnz	r0, .L371
 2895              		.loc 1 997 0
 2896 003a 2369     		ldr	r3, [r4, #16]
 2897 003c 5A1C     		adds	r2, r3, #1
 2898 003e 05D0     		beq	.L374
 2899              		.loc 1 999 0
 2900 0040 6279     		ldrb	r2, [r4, #5]	@ zero_extendqisi2
 2901              		.loc 1 998 0
 2902 0042 0133     		adds	r3, r3, #1
 2903              		.loc 1 999 0
 2904 0044 42F00102 		orr	r2, r2, #1
 2905              		.loc 1 998 0
 2906 0048 2361     		str	r3, [r4, #16]
 2907              		.loc 1 999 0
 2908 004a 6271     		strb	r2, [r4, #5]
 2909              	.L374:
 2910              		.loc 1 990 0
 2911 004c 6369     		ldr	r3, [r4, #20]
 2912              		.loc 1 974 0
 2913 004e 3546     		mov	r5, r6
 2914              	.LVL391:
 2915              		.loc 1 990 0
 2916 0050 9D42     		cmp	r5, r3
 2917 0052 DBD3     		bcc	.L375
 2918              	.LVL392:
 2919              	.L376:
 2920              		.loc 1 974 0
 2921 0054 0020     		movs	r0, #0
 2922 0056 70BD     		pop	{r4, r5, r6, pc}
 2923              	.LVL393:
 2924              	.L377:
 2925              		.loc 1 994 0
 2926 0058 0120     		movs	r0, #1
 2927              	.LVL394:
 2928              	.L371:
 2929              		.loc 1 1016 0
 2930 005a 70BD     		pop	{r4, r5, r6, pc}
 2931              		.cfi_endproc
 2932              	.LFE297:
 2933              		.size	remove_chain.part.10, .-remove_chain.part.10
 2934 005c AFF30080 		.section	.text.dir_read.constprop.11,"ax",%progbits
 2935              		.align	2
 2936              		.p2align 4,,15
 2937              		.thumb
 2938              		.thumb_func
 2939              		.type	dir_read.constprop.11, %function
 2940              	dir_read.constprop.11:
 2941              	.LFB299:
 2942              		.loc 1 1551 0
ARM GAS  /tmp/ccZHgRNF.s 			page 53


 2943              		.cfi_startproc
 2944              		@ args = 0, pretend = 0, frame = 0
 2945              		@ frame_needed = 0, uses_anonymous_args = 0
 2946              	.LVL395:
 2947 0000 38B5     		push	{r3, r4, r5, lr}
 2948              		.cfi_def_cfa_offset 16
 2949              		.cfi_offset 3, -16
 2950              		.cfi_offset 4, -12
 2951              		.cfi_offset 5, -8
 2952              		.cfi_offset 14, -4
 2953              		.loc 1 1551 0
 2954 0002 0446     		mov	r4, r0
 2955              		.loc 1 1562 0
 2956 0004 0420     		movs	r0, #4
 2957              	.LVL396:
 2958 0006 17E0     		b	.L386
 2959              	.L390:
 2960              		.loc 1 1564 0
 2961 0008 2068     		ldr	r0, [r4]
 2962 000a FFF7FEFF 		bl	move_window
 2963              	.LVL397:
 2964              		.loc 1 1565 0
 2965 000e 0546     		mov	r5, r0
 2966              		.loc 1 1592 0
 2967 0010 0021     		movs	r1, #0
 2968 0012 2046     		mov	r0, r4
 2969              	.LVL398:
 2970              		.loc 1 1565 0
 2971 0014 CDB9     		cbnz	r5, .L391
 2972              	.LVL399:
 2973              		.loc 1 1566 0
 2974 0016 6269     		ldr	r2, [r4, #20]
 2975              	.LVL400:
 2976              		.loc 1 1567 0
 2977 0018 1378     		ldrb	r3, [r2]	@ zero_extendqisi2
 2978              	.LVL401:
 2979              		.loc 1 1568 0
 2980 001a ABB1     		cbz	r3, .L392
 2981              		.loc 1 1569 0
 2982 001c D27A     		ldrb	r2, [r2, #11]	@ zero_extendqisi2
 2983              	.LVL402:
 2984              		.loc 1 1589 0
 2985 001e E52B     		cmp	r3, #229
 2986              		.loc 1 1569 0
 2987 0020 02F03F02 		and	r2, r2, #63
 2988              	.LVL403:
 2989              		.loc 1 1589 0
 2990 0024 05D0     		beq	.L388
 2991 0026 2E2B     		cmp	r3, #46
 2992 0028 03D0     		beq	.L388
 2993 002a 0F2A     		cmp	r2, #15
 2994 002c 01D0     		beq	.L388
 2995 002e 082A     		cmp	r2, #8
 2996 0030 08D1     		bne	.L398
 2997              	.L388:
 2998              		.loc 1 1592 0
 2999 0032 FFF7FEFF 		bl	dir_next
ARM GAS  /tmp/ccZHgRNF.s 			page 54


 3000              	.LVL404:
 3001              		.loc 1 1593 0
 3002 0036 60B9     		cbnz	r0, .L393
 3003              	.LVL405:
 3004              	.L386:
 3005              		.loc 1 1563 0
 3006 0038 2369     		ldr	r3, [r4, #16]
 3007              		.loc 1 1564 0
 3008 003a 1946     		mov	r1, r3
 3009              		.loc 1 1563 0
 3010 003c 002B     		cmp	r3, #0
 3011 003e E3D1     		bne	.L390
 3012              	.LVL406:
 3013              		.loc 1 1596 0
 3014 0040 0546     		mov	r5, r0
 3015 0042 10B9     		cbnz	r0, .L391
 3016              	.LVL407:
 3017              	.L398:
 3018              		.loc 1 1599 0
 3019 0044 2846     		mov	r0, r5
 3020 0046 38BD     		pop	{r3, r4, r5, pc}
 3021              	.LVL408:
 3022              	.L392:
 3023              		.loc 1 1568 0
 3024 0048 0425     		movs	r5, #4
 3025              	.LVL409:
 3026              	.L391:
 3027              		.loc 1 1596 0
 3028 004a 0023     		movs	r3, #0
 3029 004c 2361     		str	r3, [r4, #16]
 3030              	.LVL410:
 3031              	.L407:
 3032              		.loc 1 1599 0
 3033 004e 2846     		mov	r0, r5
 3034 0050 38BD     		pop	{r3, r4, r5, pc}
 3035              	.LVL411:
 3036              	.L393:
 3037              		.loc 1 1596 0
 3038 0052 0023     		movs	r3, #0
 3039              		.loc 1 1592 0
 3040 0054 0546     		mov	r5, r0
 3041              	.LVL412:
 3042              		.loc 1 1596 0
 3043 0056 2361     		str	r3, [r4, #16]
 3044 0058 F9E7     		b	.L407
 3045              		.cfi_endproc
 3046              	.LFE299:
 3047              		.size	dir_read.constprop.11, .-dir_read.constprop.11
 3048 005a 00BFAFF3 		.section	.text.dir_register,"ax",%progbits
 3048      0080
 3049              		.align	2
 3050              		.p2align 4,,15
 3051              		.thumb
 3052              		.thumb_func
 3053              		.type	dir_register, %function
 3054              	dir_register:
 3055              	.LFB260:
ARM GAS  /tmp/ccZHgRNF.s 			page 55


 3056              		.loc 1 1613 0
 3057              		.cfi_startproc
 3058              		@ args = 0, pretend = 0, frame = 0
 3059              		@ frame_needed = 0, uses_anonymous_args = 0
 3060              	.LVL413:
 3061 0000 38B5     		push	{r3, r4, r5, lr}
 3062              		.cfi_def_cfa_offset 16
 3063              		.cfi_offset 3, -16
 3064              		.cfi_offset 4, -12
 3065              		.cfi_offset 5, -8
 3066              		.cfi_offset 14, -4
 3067              	.LBB274:
 3068              	.LBB275:
 3069              		.loc 1 1243 0
 3070 0002 0021     		movs	r1, #0
 3071              	.LBE275:
 3072              	.LBE274:
 3073              		.loc 1 1613 0
 3074 0004 0446     		mov	r4, r0
 3075              	.LVL414:
 3076              	.LBB277:
 3077              	.LBB276:
 3078              		.loc 1 1243 0
 3079 0006 FFF7FEFF 		bl	dir_sdi
 3080              	.LVL415:
 3081              		.loc 1 1244 0
 3082 000a 38B1     		cbz	r0, .L414
 3083              	.L409:
 3084              		.loc 1 1257 0
 3085 000c 0428     		cmp	r0, #4
 3086 000e 08BF     		it	eq
 3087 0010 0720     		moveq	r0, #7
 3088              	.LVL416:
 3089 0012 38BD     		pop	{r3, r4, r5, pc}
 3090              	.LVL417:
 3091              	.L426:
 3092              		.loc 1 1254 0
 3093 0014 FFF7FEFF 		bl	dir_next
 3094              	.LVL418:
 3095              		.loc 1 1255 0
 3096 0018 0028     		cmp	r0, #0
 3097 001a F7D1     		bne	.L409
 3098              	.LVL419:
 3099              	.L414:
 3100              		.loc 1 1247 0
 3101 001c 2068     		ldr	r0, [r4]
 3102              	.LVL420:
 3103 001e 2169     		ldr	r1, [r4, #16]
 3104 0020 FFF7FEFF 		bl	move_window
 3105              	.LVL421:
 3106              		.loc 1 1248 0
 3107 0024 0028     		cmp	r0, #0
 3108 0026 F1D1     		bne	.L409
 3109              		.loc 1 1249 0
 3110 0028 6369     		ldr	r3, [r4, #20]
 3111 002a 1B78     		ldrb	r3, [r3]	@ zero_extendqisi2
 3112 002c E52B     		cmp	r3, #229
ARM GAS  /tmp/ccZHgRNF.s 			page 56


 3113 002e 03D0     		beq	.L413
 3114              		.loc 1 1254 0
 3115 0030 2046     		mov	r0, r4
 3116              	.LVL422:
 3117 0032 0121     		movs	r1, #1
 3118              		.loc 1 1249 0
 3119 0034 002B     		cmp	r3, #0
 3120 0036 EDD1     		bne	.L426
 3121              	.L413:
 3122              	.LVL423:
 3123              	.LBE276:
 3124              	.LBE277:
 3125              	.LBB278:
 3126              	.LBB279:
 3127              		.loc 1 1665 0
 3128 0038 2068     		ldr	r0, [r4]
 3129 003a 2169     		ldr	r1, [r4, #16]
 3130 003c FFF7FEFF 		bl	move_window
 3131              	.LVL424:
 3132              		.loc 1 1666 0
 3133 0040 A8B9     		cbnz	r0, .L427
 3134              		.loc 1 1667 0
 3135 0042 6369     		ldr	r3, [r4, #20]
 3136              	.LVL425:
 3137              	.LBB280:
 3138              	.LBB281:
 3139              		.loc 1 583 0
 3140 0044 0146     		mov	r1, r0
 3141 0046 03F12002 		add	r2, r3, #32
 3142              	.LVL426:
 3143              	.L417:
 3144 004a 03F8011B 		strb	r1, [r3], #1
 3145              	.LVL427:
 3146              		.loc 1 582 0
 3147 004e 9342     		cmp	r3, r2
 3148 0050 FBD1     		bne	.L417
 3149              	.LBE281:
 3150              	.LBE280:
 3151              		.loc 1 1668 0
 3152 0052 A369     		ldr	r3, [r4, #24]
 3153              	.LVL428:
 3154 0054 6269     		ldr	r2, [r4, #20]
 3155              	.LVL429:
 3156 0056 03F10B05 		add	r5, r3, #11
 3157              	.LVL430:
 3158              	.L419:
 3159              	.LBB282:
 3160              	.LBB283:
 3161              		.loc 1 574 0
 3162 005a 13F8011B 		ldrb	r1, [r3], #1	@ zero_extendqisi2
 3163              	.LVL431:
 3164 005e 02F8011B 		strb	r1, [r2], #1
 3165              	.LVL432:
 3166              		.loc 1 573 0
 3167 0062 AB42     		cmp	r3, r5
 3168 0064 F9D1     		bne	.L419
 3169              	.LBE283:
ARM GAS  /tmp/ccZHgRNF.s 			page 57


 3170              	.LBE282:
 3171              		.loc 1 1672 0
 3172 0066 2368     		ldr	r3, [r4]
 3173              	.LVL433:
 3174 0068 0122     		movs	r2, #1
 3175              	.LVL434:
 3176 006a 1A71     		strb	r2, [r3, #4]
 3177              	.LVL435:
 3178              	.LBE279:
 3179              	.LBE278:
 3180              		.loc 1 1677 0
 3181 006c 38BD     		pop	{r3, r4, r5, pc}
 3182              	.LVL436:
 3183              	.L427:
 3184 006e 38BD     		pop	{r3, r4, r5, pc}
 3185              		.cfi_endproc
 3186              	.LFE260:
 3187              		.size	dir_register, .-dir_register
 3188              		.section	.text.clust2sect,"ax",%progbits
 3189              		.align	2
 3190              		.p2align 4,,15
 3191              		.global	clust2sect
 3192              		.thumb
 3193              		.thumb_func
 3194              		.type	clust2sect, %function
 3195              	clust2sect:
 3196              	.LFB248:
 3197              		.loc 1 851 0
 3198              		.cfi_startproc
 3199              		@ args = 0, pretend = 0, frame = 0
 3200              		@ frame_needed = 0, uses_anonymous_args = 0
 3201              		@ link register save eliminated.
 3202              	.LVL437:
 3203              		.loc 1 853 0
 3204 0000 4369     		ldr	r3, [r0, #20]
 3205              		.loc 1 852 0
 3206 0002 0239     		subs	r1, r1, #2
 3207              	.LVL438:
 3208              		.loc 1 853 0
 3209 0004 023B     		subs	r3, r3, #2
 3210 0006 9942     		cmp	r1, r3
 3211              		.loc 1 854 0
 3212 0008 3DBF     		ittte	cc
 3213 000a 8278     		ldrbcc	r2, [r0, #2]	@ zero_extendqisi2
 3214 000c 836A     		ldrcc	r3, [r0, #40]
 3215 000e 02FB0130 		mlacc	r0, r2, r1, r3
 3216              	.LVL439:
 3217              		.loc 1 853 0
 3218 0012 0020     		movcs	r0, #0
 3219              		.loc 1 855 0
 3220 0014 7047     		bx	lr
 3221              		.cfi_endproc
 3222              	.LFE248:
 3223              		.size	clust2sect, .-clust2sect
 3224 0016 00BFAFF3 		.section	.text.get_fat,"ax",%progbits
 3224      0080AFF3 
 3224      0080
ARM GAS  /tmp/ccZHgRNF.s 			page 58


 3225              		.align	2
 3226              		.p2align 4,,15
 3227              		.global	get_fat
 3228              		.thumb
 3229              		.thumb_func
 3230              		.type	get_fat, %function
 3231              	get_fat:
 3232              	.LFB249:
 3233              		.loc 1 869 0
 3234              		.cfi_startproc
 3235              		@ args = 0, pretend = 0, frame = 0
 3236              		@ frame_needed = 0, uses_anonymous_args = 0
 3237              		@ link register save eliminated.
 3238              	.LVL440:
 3239              		.loc 1 874 0
 3240 0000 0129     		cmp	r1, #1
 3241 0002 04D9     		bls	.L432
 3242              		.loc 1 874 0 is_stmt 0 discriminator 1
 3243 0004 4269     		ldr	r2, [r0, #20]
 3244 0006 9142     		cmp	r1, r2
 3245 0008 01D2     		bcs	.L432
 3246 000a FFF7FEBF 		b	get_fat.part.6
 3247              	.LVL441:
 3248              	.L432:
 3249              		.loc 1 901 0 is_stmt 1
 3250 000e 0120     		movs	r0, #1
 3251              	.LVL442:
 3252 0010 7047     		bx	lr
 3253              		.cfi_endproc
 3254              	.LFE249:
 3255              		.size	get_fat, .-get_fat
 3256 0012 00BFAFF3 		.section	.text.put_fat,"ax",%progbits
 3256      0080AFF3 
 3256      0080AFF3 
 3256      0080
 3257              		.align	2
 3258              		.p2align 4,,15
 3259              		.global	put_fat
 3260              		.thumb
 3261              		.thumb_func
 3262              		.type	put_fat, %function
 3263              	put_fat:
 3264              	.LFB250:
 3265              		.loc 1 916 0
 3266              		.cfi_startproc
 3267              		@ args = 0, pretend = 0, frame = 0
 3268              		@ frame_needed = 0, uses_anonymous_args = 0
 3269              		@ link register save eliminated.
 3270              	.LVL443:
 3271              		.loc 1 922 0
 3272 0000 0129     		cmp	r1, #1
 3273              		.loc 1 916 0
 3274 0002 10B4     		push	{r4}
 3275              		.cfi_def_cfa_offset 4
 3276              		.cfi_offset 4, -4
 3277              		.loc 1 922 0
 3278 0004 02D9     		bls	.L436
ARM GAS  /tmp/ccZHgRNF.s 			page 59


 3279              		.loc 1 922 0 is_stmt 0 discriminator 1
 3280 0006 4469     		ldr	r4, [r0, #20]
 3281 0008 A142     		cmp	r1, r4
 3282 000a 03D3     		bcc	.L439
 3283              	.L436:
 3284              		.loc 1 963 0 is_stmt 1
 3285 000c 0220     		movs	r0, #2
 3286              	.LVL444:
 3287 000e 5DF8044B 		ldr	r4, [sp], #4
 3288 0012 7047     		bx	lr
 3289              	.LVL445:
 3290              	.L439:
 3291 0014 5DF8044B 		ldr	r4, [sp], #4
 3292 0018 FFF7FEBF 		b	put_fat.part.8
 3293              	.LVL446:
 3294              		.cfi_endproc
 3295              	.LFE250:
 3296              		.size	put_fat, .-put_fat
 3297 001c AFF30080 		.section	.text.f_mount,"ax",%progbits
 3298              		.align	2
 3299              		.p2align 4,,15
 3300              		.global	f_mount
 3301              		.thumb
 3302              		.thumb_func
 3303              		.type	f_mount, %function
 3304              	f_mount:
 3305              	.LFB269:
 3306              		.loc 1 2373 0
 3307              		.cfi_startproc
 3308              		@ args = 0, pretend = 0, frame = 16
 3309              		@ frame_needed = 0, uses_anonymous_args = 0
 3310              	.LVL447:
 3311 0000 30B5     		push	{r4, r5, lr}
 3312              		.cfi_def_cfa_offset 12
 3313              		.cfi_offset 4, -12
 3314              		.cfi_offset 5, -8
 3315              		.cfi_offset 14, -4
 3316 0002 85B0     		sub	sp, sp, #20
 3317              		.cfi_def_cfa_offset 32
 3318              		.loc 1 2377 0
 3319 0004 04AB     		add	r3, sp, #16
 3320              		.loc 1 2373 0
 3321 0006 0190     		str	r0, [sp, #4]
 3322              		.loc 1 2377 0
 3323 0008 43F8041D 		str	r1, [r3, #-4]!
 3324              		.loc 1 2380 0
 3325 000c 1846     		mov	r0, r3
 3326              	.LVL448:
 3327              		.loc 1 2373 0
 3328 000e 0091     		str	r1, [sp]
 3329 0010 1546     		mov	r5, r2
 3330              		.loc 1 2380 0
 3331 0012 FFF7FEFF 		bl	get_ldnumber
 3332              	.LVL449:
 3333              		.loc 1 2381 0
 3334 0016 011E     		subs	r1, r0, #0
 3335 0018 10DB     		blt	.L444
ARM GAS  /tmp/ccZHgRNF.s 			page 60


 3336              		.loc 1 2382 0
 3337 001a 0F4C     		ldr	r4, .L451
 3338 001c 54F82130 		ldr	r3, [r4, r1, lsl #2]
 3339              	.LVL450:
 3340              		.loc 1 2384 0
 3341 0020 0BB1     		cbz	r3, .L442
 3342              		.loc 1 2391 0
 3343 0022 0022     		movs	r2, #0
 3344 0024 1A70     		strb	r2, [r3]
 3345              	.L442:
 3346              		.loc 1 2394 0
 3347 0026 019B     		ldr	r3, [sp, #4]
 3348              	.LVL451:
 3349 0028 5BB1     		cbz	r3, .L443
 3350              		.loc 1 2395 0
 3351 002a 0022     		movs	r2, #0
 3352              		.loc 1 2402 0
 3353 002c 012D     		cmp	r5, #1
 3354              		.loc 1 2395 0
 3355 002e 1A70     		strb	r2, [r3]
 3356              		.loc 1 2400 0
 3357 0030 44F82130 		str	r3, [r4, r1, lsl #2]
 3358              		.loc 1 2402 0
 3359 0034 09D0     		beq	.L450
 3360 0036 1046     		mov	r0, r2
 3361              	.LVL452:
 3362              	.L449:
 3363              		.loc 1 2406 0
 3364 0038 05B0     		add	sp, sp, #20
 3365              	.LVL453:
 3366              		@ sp needed
 3367 003a 30BD     		pop	{r4, r5, pc}
 3368              	.LVL454:
 3369              	.L444:
 3370              		.loc 1 2381 0
 3371 003c 0B20     		movs	r0, #11
 3372              	.LVL455:
 3373              		.loc 1 2406 0
 3374 003e 05B0     		add	sp, sp, #20
 3375              	.LVL456:
 3376              		@ sp needed
 3377 0040 30BD     		pop	{r4, r5, pc}
 3378              	.LVL457:
 3379              	.L443:
 3380              		.loc 1 2400 0
 3381 0042 44F82130 		str	r3, [r4, r1, lsl #2]
 3382              		.loc 1 2402 0
 3383 0046 1846     		mov	r0, r3
 3384              	.LVL458:
 3385 0048 F6E7     		b	.L449
 3386              	.LVL459:
 3387              	.L450:
 3388              		.loc 1 2404 0
 3389 004a 01A8     		add	r0, sp, #4
 3390              	.LVL460:
 3391 004c 6946     		mov	r1, sp
 3392              	.LVL461:
ARM GAS  /tmp/ccZHgRNF.s 			page 61


 3393 004e FFF7FEFF 		bl	find_volume
 3394              	.LVL462:
 3395              		.loc 1 2406 0
 3396 0052 05B0     		add	sp, sp, #20
 3397              	.LVL463:
 3398              		@ sp needed
 3399 0054 30BD     		pop	{r4, r5, pc}
 3400              	.LVL464:
 3401              	.L452:
 3402 0056 00BF     		.align	2
 3403              	.L451:
 3404 0058 00000000 		.word	.LANCHOR0
 3405              		.cfi_endproc
 3406              	.LFE269:
 3407              		.size	f_mount, .-f_mount
 3408 005c AFF30080 		.section	.text.f_open,"ax",%progbits
 3409              		.align	2
 3410              		.p2align 4,,15
 3411              		.global	f_open
 3412              		.thumb
 3413              		.thumb_func
 3414              		.type	f_open, %function
 3415              	f_open:
 3416              	.LFB270:
 3417              		.loc 1 2420 0
 3418              		.cfi_startproc
 3419              		@ args = 0, pretend = 0, frame = 48
 3420              		@ frame_needed = 0, uses_anonymous_args = 0
 3421              	.LVL465:
 3422 0000 2DE9F041 		push	{r4, r5, r6, r7, r8, lr}
 3423              		.cfi_def_cfa_offset 24
 3424              		.cfi_offset 4, -24
 3425              		.cfi_offset 5, -20
 3426              		.cfi_offset 6, -16
 3427              		.cfi_offset 7, -12
 3428              		.cfi_offset 8, -8
 3429              		.cfi_offset 14, -4
 3430 0004 8CB0     		sub	sp, sp, #48
 3431              		.cfi_def_cfa_offset 72
 3432              		.loc 1 2427 0
 3433 0006 0446     		mov	r4, r0
 3434              		.loc 1 2420 0
 3435 0008 0191     		str	r1, [sp, #4]
 3436 000a 1546     		mov	r5, r2
 3437              		.loc 1 2427 0
 3438 000c 58B1     		cbz	r0, .L474
 3439              		.loc 1 2428 0
 3440 000e 0023     		movs	r3, #0
 3441 0010 0360     		str	r3, [r0]
 3442              	.LVL466:
 3443              		.loc 1 2433 0
 3444 0012 01A9     		add	r1, sp, #4
 3445              	.LVL467:
 3446 0014 05A8     		add	r0, sp, #20
 3447              	.LVL468:
 3448 0016 02F01E02 		and	r2, r2, #30
 3449              	.LVL469:
ARM GAS  /tmp/ccZHgRNF.s 			page 62


 3450 001a FFF7FEFF 		bl	find_volume
 3451              	.LVL470:
 3452              		.loc 1 2438 0
 3453 001e 30B1     		cbz	r0, .L494
 3454              	.LVL471:
 3455              	.L490:
 3456              		.loc 1 2541 0
 3457 0020 0CB0     		add	sp, sp, #48
 3458              		@ sp needed
 3459 0022 BDE8F081 		pop	{r4, r5, r6, r7, r8, pc}
 3460              	.LVL472:
 3461              	.L474:
 3462              		.loc 1 2427 0
 3463 0026 0920     		movs	r0, #9
 3464              	.LVL473:
 3465              		.loc 1 2541 0
 3466 0028 0CB0     		add	sp, sp, #48
 3467              		@ sp needed
 3468 002a BDE8F081 		pop	{r4, r5, r6, r7, r8, pc}
 3469              	.LVL474:
 3470              	.L494:
 3471              		.loc 1 2439 0
 3472 002e 02AB     		add	r3, sp, #8
 3473              		.loc 1 2440 0
 3474 0030 05A8     		add	r0, sp, #20
 3475              	.LVL475:
 3476 0032 0199     		ldr	r1, [sp, #4]
 3477              		.loc 1 2439 0
 3478 0034 0B93     		str	r3, [sp, #44]
 3479              		.loc 1 2440 0
 3480 0036 FFF7FEFF 		bl	follow_path
 3481              	.LVL476:
 3482              		.loc 1 2432 0
 3483 003a 05F01F07 		and	r7, r5, #31
 3484              		.loc 1 2441 0
 3485 003e 0A9E     		ldr	r6, [sp, #40]
 3486              	.LVL477:
 3487              		.loc 1 2443 0
 3488 0040 80B1     		cbz	r0, .L495
 3489              	.LVL478:
 3490              	.L455:
 3491              		.loc 1 2452 0
 3492 0042 15F01C0F 		tst	r5, #28
 3493 0046 EBD0     		beq	.L490
 3494              	.LBB284:
 3495              		.loc 1 2456 0
 3496 0048 0428     		cmp	r0, #4
 3497 004a E9D1     		bne	.L490
 3498              		.loc 1 2460 0
 3499 004c 05A8     		add	r0, sp, #20
 3500              	.LVL479:
 3501 004e FFF7FEFF 		bl	dir_register
 3502              	.LVL480:
 3503              		.loc 1 2462 0
 3504 0052 47F00807 		orr	r7, r7, #8
 3505              	.LVL481:
 3506              		.loc 1 2463 0
ARM GAS  /tmp/ccZHgRNF.s 			page 63


 3507 0056 0A9E     		ldr	r6, [sp, #40]
 3508              		.loc 1 2473 0
 3509 0058 0028     		cmp	r0, #0
 3510 005a E1D1     		bne	.L490
 3511              	.LVL482:
 3512              	.L457:
 3513              		.loc 1 2473 0 is_stmt 0 discriminator 1
 3514 005c 3807     		lsls	r0, r7, #28
 3515 005e 49D4     		bmi	.L496
 3516 0060 059B     		ldr	r3, [sp, #20]
 3517 0062 16E0     		b	.L468
 3518              	.LVL483:
 3519              	.L495:
 3520              	.LBE284:
 3521              		.loc 1 2444 0 is_stmt 1
 3522 0064 002E     		cmp	r6, #0
 3523 0066 3BD0     		beq	.L497
 3524              	.LVL484:
 3525              		.loc 1 2452 0
 3526 0068 15F01C0F 		tst	r5, #28
 3527 006c 3AD1     		bne	.L470
 3528              		.loc 1 2493 0
 3529 006e F37A     		ldrb	r3, [r6, #11]	@ zero_extendqisi2
 3530 0070 D906     		lsls	r1, r3, #27
 3531 0072 05D4     		bmi	.L480
 3532              		.loc 1 2496 0
 3533 0074 AA07     		lsls	r2, r5, #30
 3534 0076 05D5     		bpl	.L493
 3535              		.loc 1 2496 0 is_stmt 0 discriminator 1
 3536 0078 DB07     		lsls	r3, r3, #31
 3537 007a 03D5     		bpl	.L493
 3538              	.L481:
 3539              		.loc 1 2497 0 is_stmt 1
 3540 007c 0720     		movs	r0, #7
 3541              	.LVL485:
 3542 007e CFE7     		b	.L490
 3543              	.LVL486:
 3544              	.L480:
 3545              		.loc 1 2494 0
 3546 0080 0420     		movs	r0, #4
 3547 0082 CDE7     		b	.L490
 3548              	.L493:
 3549              	.LVL487:
 3550 0084 05F00802 		and	r2, r5, #8
 3551 0088 D2B2     		uxtb	r2, r2
 3552 008a 059B     		ldr	r3, [sp, #20]
 3553              		.loc 1 2502 0
 3554 008c 0AB1     		cbz	r2, .L468
 3555              	.LVL488:
 3556              	.L462:
 3557              		.loc 1 2503 0
 3558 008e 47F02007 		orr	r7, r7, #32
 3559              	.LVL489:
 3560              	.L468:
 3561              		.loc 1 2504 0
 3562 0092 DA6A     		ldr	r2, [r3, #44]
 3563 0094 E261     		str	r2, [r4, #28]
ARM GAS  /tmp/ccZHgRNF.s 			page 64


 3564              		.loc 1 2527 0
 3565 0096 0022     		movs	r2, #0
 3566              		.loc 1 2505 0
 3567 0098 2662     		str	r6, [r4, #32]
 3568              		.loc 1 2526 0
 3569 009a A771     		strb	r7, [r4, #6]
 3570              		.loc 1 2527 0
 3571 009c E271     		strb	r2, [r4, #7]
 3572              	.LVL490:
 3573              	.LBB299:
 3574              	.LBB300:
 3575              		.loc 1 1278 0
 3576 009e 1978     		ldrb	r1, [r3]	@ zero_extendqisi2
 3577              		.loc 1 1277 0
 3578 00a0 F07E     		ldrb	r0, [r6, #27]	@ zero_extendqisi2
 3579 00a2 B27E     		ldrb	r2, [r6, #26]	@ zero_extendqisi2
 3580              		.loc 1 1278 0
 3581 00a4 0329     		cmp	r1, #3
 3582              		.loc 1 1277 0
 3583 00a6 42EA0022 		orr	r2, r2, r0, lsl #8
 3584              	.LVL491:
 3585              		.loc 1 1278 0
 3586 00aa 12D0     		beq	.L498
 3587              	.L467:
 3588              	.LBE300:
 3589              	.LBE299:
 3590              		.loc 1 2528 0
 3591 00ac 2261     		str	r2, [r4, #16]
 3592              		.loc 1 2529 0
 3593 00ae B77F     		ldrb	r7, [r6, #30]	@ zero_extendqisi2
 3594              	.LVL492:
 3595 00b0 F57F     		ldrb	r5, [r6, #31]	@ zero_extendqisi2
 3596 00b2 307F     		ldrb	r0, [r6, #28]	@ zero_extendqisi2
 3597 00b4 717F     		ldrb	r1, [r6, #29]	@ zero_extendqisi2
 3598              		.loc 1 2536 0
 3599 00b6 DA88     		ldrh	r2, [r3, #6]
 3600              	.LVL493:
 3601              		.loc 1 2535 0
 3602 00b8 2360     		str	r3, [r4]
 3603              		.loc 1 2529 0
 3604 00ba 3B04     		lsls	r3, r7, #16
 3605              	.LVL494:
 3606 00bc 43EA0563 		orr	r3, r3, r5, lsl #24
 3607 00c0 0343     		orrs	r3, r3, r0
 3608 00c2 43EA0123 		orr	r3, r3, r1, lsl #8
 3609              		.loc 1 2530 0
 3610 00c6 0020     		movs	r0, #0
 3611              		.loc 1 2529 0
 3612 00c8 E360     		str	r3, [r4, #12]
 3613              		.loc 1 2536 0
 3614 00ca A280     		strh	r2, [r4, #4]	@ movhi
 3615              		.loc 1 2530 0
 3616 00cc A060     		str	r0, [r4, #8]
 3617              		.loc 1 2531 0
 3618 00ce A061     		str	r0, [r4, #24]
 3619 00d0 A6E7     		b	.L490
 3620              	.LVL495:
ARM GAS  /tmp/ccZHgRNF.s 			page 65


 3621              	.L498:
 3622              	.LBB302:
 3623              	.LBB301:
 3624              		.loc 1 1279 0
 3625 00d2 707D     		ldrb	r0, [r6, #21]	@ zero_extendqisi2
 3626 00d4 317D     		ldrb	r1, [r6, #20]	@ zero_extendqisi2
 3627 00d6 41EA0021 		orr	r1, r1, r0, lsl #8
 3628 00da 42EA0142 		orr	r2, r2, r1, lsl #16
 3629              	.LVL496:
 3630 00de E5E7     		b	.L467
 3631              	.LVL497:
 3632              	.L497:
 3633              	.LBE301:
 3634              	.LBE302:
 3635              		.loc 1 2445 0
 3636 00e0 0620     		movs	r0, #6
 3637              	.LVL498:
 3638 00e2 AEE7     		b	.L455
 3639              	.LVL499:
 3640              	.L470:
 3641              	.LBB303:
 3642              		.loc 1 2466 0
 3643 00e4 F37A     		ldrb	r3, [r6, #11]	@ zero_extendqisi2
 3644 00e6 13F0110F 		tst	r3, #17
 3645 00ea C7D1     		bne	.L481
 3646              		.loc 1 2469 0
 3647 00ec 6D07     		lsls	r5, r5, #29
 3648              	.LVL500:
 3649 00ee B5D5     		bpl	.L457
 3650              		.loc 1 2470 0
 3651 00f0 0820     		movs	r0, #8
 3652 00f2 95E7     		b	.L490
 3653              	.LVL501:
 3654              	.L496:
 3655              		.loc 1 2474 0
 3656 00f4 FFF7FEFF 		bl	get_fattime
 3657              	.LVL502:
 3658              		.loc 1 2476 0
 3659 00f8 0022     		movs	r2, #0
 3660              		.loc 1 2475 0
 3661 00fa 050C     		lsrs	r5, r0, #16
 3662 00fc 010E     		lsrs	r1, r0, #24
 3663 00fe C0F3072C 		ubfx	ip, r0, #8, #8
 3664              		.loc 1 2478 0
 3665 0102 059B     		ldr	r3, [sp, #20]
 3666              	.LVL503:
 3667              		.loc 1 2475 0
 3668 0104 3574     		strb	r5, [r6, #16]
 3669 0106 7174     		strb	r1, [r6, #17]
 3670 0108 B073     		strb	r0, [r6, #14]
 3671 010a 86F80FC0 		strb	ip, [r6, #15]
 3672              		.loc 1 2476 0
 3673 010e F272     		strb	r2, [r6, #11]
 3674              		.loc 1 2477 0
 3675 0110 3277     		strb	r2, [r6, #28]
 3676 0112 7277     		strb	r2, [r6, #29]
 3677 0114 B277     		strb	r2, [r6, #30]
ARM GAS  /tmp/ccZHgRNF.s 			page 66


 3678 0116 F277     		strb	r2, [r6, #31]
 3679              	.LBB285:
 3680              	.LBB286:
 3681              		.loc 1 1278 0
 3682 0118 1A78     		ldrb	r2, [r3]	@ zero_extendqisi2
 3683              		.loc 1 1277 0
 3684 011a F57E     		ldrb	r5, [r6, #27]	@ zero_extendqisi2
 3685 011c B17E     		ldrb	r1, [r6, #26]	@ zero_extendqisi2
 3686              		.loc 1 1278 0
 3687 011e 032A     		cmp	r2, #3
 3688              		.loc 1 1277 0
 3689 0120 41EA0525 		orr	r5, r1, r5, lsl #8
 3690              	.LVL504:
 3691              		.loc 1 1278 0
 3692 0124 11D0     		beq	.L499
 3693              	.L461:
 3694              	.LVL505:
 3695              	.LBE286:
 3696              	.LBE285:
 3697              	.LBB288:
 3698              	.LBB289:
 3699              		.loc 1 1292 0
 3700 0126 0022     		movs	r2, #0
 3701              	.LBE289:
 3702              	.LBE288:
 3703              		.loc 1 2480 0
 3704 0128 0121     		movs	r1, #1
 3705              	.LBB291:
 3706              	.LBB290:
 3707              		.loc 1 1292 0
 3708 012a B276     		strb	r2, [r6, #26]
 3709 012c F276     		strb	r2, [r6, #27]
 3710              		.loc 1 1293 0
 3711 012e 3275     		strb	r2, [r6, #20]
 3712 0130 7275     		strb	r2, [r6, #21]
 3713              	.LBE290:
 3714              	.LBE291:
 3715              		.loc 1 2480 0
 3716 0132 1971     		strb	r1, [r3, #4]
 3717              		.loc 1 2481 0
 3718 0134 002D     		cmp	r5, #0
 3719 0136 AAD0     		beq	.L462
 3720              	.LBB292:
 3721              	.LBB293:
 3722              		.loc 1 985 0
 3723 0138 8D42     		cmp	r5, r1
 3724              	.LBE293:
 3725              	.LBE292:
 3726              		.loc 1 2482 0
 3727 013a D3F82C80 		ldr	r8, [r3, #44]
 3728              	.LVL506:
 3729              	.LBB296:
 3730              	.LBB294:
 3731              		.loc 1 985 0
 3732 013e 02D9     		bls	.L479
 3733 0140 5A69     		ldr	r2, [r3, #20]
 3734 0142 9542     		cmp	r5, r2
ARM GAS  /tmp/ccZHgRNF.s 			page 67


 3735 0144 08D3     		bcc	.L500
 3736              	.L479:
 3737 0146 0220     		movs	r0, #2
 3738 0148 6AE7     		b	.L490
 3739              	.LVL507:
 3740              	.L499:
 3741              	.LBE294:
 3742              	.LBE296:
 3743              	.LBB297:
 3744              	.LBB287:
 3745              		.loc 1 1279 0
 3746 014a 717D     		ldrb	r1, [r6, #21]	@ zero_extendqisi2
 3747 014c 327D     		ldrb	r2, [r6, #20]	@ zero_extendqisi2
 3748 014e 42EA0122 		orr	r2, r2, r1, lsl #8
 3749 0152 45EA0245 		orr	r5, r5, r2, lsl #16
 3750              	.LVL508:
 3751 0156 E6E7     		b	.L461
 3752              	.LVL509:
 3753              	.L500:
 3754              	.LBE287:
 3755              	.LBE297:
 3756              	.LBB298:
 3757              	.LBB295:
 3758 0158 1846     		mov	r0, r3
 3759 015a 2946     		mov	r1, r5
 3760 015c FFF7FEFF 		bl	remove_chain.part.10
 3761              	.LVL510:
 3762              	.LBE295:
 3763              	.LBE298:
 3764              		.loc 1 2484 0
 3765 0160 0028     		cmp	r0, #0
 3766 0162 7FF45DAF 		bne	.L490
 3767              		.loc 1 2485 0
 3768 0166 0598     		ldr	r0, [sp, #20]
 3769              	.LVL511:
 3770 0168 013D     		subs	r5, r5, #1
 3771              	.LVL512:
 3772              		.loc 1 2486 0
 3773 016a 4146     		mov	r1, r8
 3774              		.loc 1 2485 0
 3775 016c C560     		str	r5, [r0, #12]
 3776              		.loc 1 2486 0
 3777 016e FFF7FEFF 		bl	move_window
 3778              	.LVL513:
 3779              	.LBE303:
 3780              		.loc 1 2501 0
 3781 0172 0028     		cmp	r0, #0
 3782 0174 7FF454AF 		bne	.L490
 3783 0178 059B     		ldr	r3, [sp, #20]
 3784 017a 88E7     		b	.L462
 3785              		.cfi_endproc
 3786              	.LFE270:
 3787              		.size	f_open, .-f_open
 3788 017c AFF30080 		.section	.text.f_read,"ax",%progbits
 3789              		.align	2
 3790              		.p2align 4,,15
 3791              		.global	f_read
ARM GAS  /tmp/ccZHgRNF.s 			page 68


 3792              		.thumb
 3793              		.thumb_func
 3794              		.type	f_read, %function
 3795              	f_read:
 3796              	.LFB271:
 3797              		.loc 1 2556 0
 3798              		.cfi_startproc
 3799              		@ args = 0, pretend = 0, frame = 0
 3800              		@ frame_needed = 0, uses_anonymous_args = 0
 3801              	.LVL514:
 3802 0000 2DE9F84F 		push	{r3, r4, r5, r6, r7, r8, r9, r10, fp, lr}
 3803              		.cfi_def_cfa_offset 40
 3804              		.cfi_offset 3, -40
 3805              		.cfi_offset 4, -36
 3806              		.cfi_offset 5, -32
 3807              		.cfi_offset 6, -28
 3808              		.cfi_offset 7, -24
 3809              		.cfi_offset 8, -20
 3810              		.cfi_offset 9, -16
 3811              		.cfi_offset 10, -12
 3812              		.cfi_offset 11, -8
 3813              		.cfi_offset 14, -4
 3814              		.loc 1 2556 0
 3815 0004 9946     		mov	r9, r3
 3816              		.loc 1 2563 0
 3817 0006 0023     		movs	r3, #0
 3818              	.LVL515:
 3819 0008 C9F80030 		str	r3, [r9]
 3820              		.loc 1 2556 0
 3821 000c 8B46     		mov	fp, r1
 3822              	.LVL516:
 3823 000e 1446     		mov	r4, r2
 3824 0010 0746     		mov	r7, r0
 3825              		.loc 1 2565 0
 3826 0012 FFF7FEFF 		bl	validate
 3827              	.LVL517:
 3828              		.loc 1 2566 0
 3829 0016 28B9     		cbnz	r0, .L502
 3830              		.loc 1 2567 0
 3831 0018 F879     		ldrb	r0, [r7, #7]	@ zero_extendqisi2
 3832              	.LVL518:
 3833 001a 18B9     		cbnz	r0, .L502
 3834              		.loc 1 2569 0
 3835 001c BB79     		ldrb	r3, [r7, #6]	@ zero_extendqisi2
 3836 001e D807     		lsls	r0, r3, #31
 3837 0020 02D4     		bmi	.L545
 3838              		.loc 1 2570 0
 3839 0022 0720     		movs	r0, #7
 3840              	.L502:
 3841              		.loc 1 2641 0
 3842 0024 BDE8F88F 		pop	{r3, r4, r5, r6, r7, r8, r9, r10, fp, pc}
 3843              	.LVL519:
 3844              	.L545:
 3845              		.loc 1 2571 0
 3846 0028 BB68     		ldr	r3, [r7, #8]
 3847 002a FA68     		ldr	r2, [r7, #12]
 3848 002c D21A     		subs	r2, r2, r3
ARM GAS  /tmp/ccZHgRNF.s 			page 69


 3849              	.LVL520:
 3850 002e 9442     		cmp	r4, r2
 3851 0030 34BF     		ite	cc
 3852 0032 A046     		movcc	r8, r4
 3853 0034 9046     		movcs	r8, r2
 3854              	.LVL521:
 3855              		.loc 1 2618 0
 3856 0036 07F1240A 		add	r10, r7, #36
 3857              		.loc 1 2574 0
 3858 003a B8F1000F 		cmp	r8, #0
 3859 003e 47D0     		beq	.L527
 3860              	.LVL522:
 3861              	.L528:
 3862              		.loc 1 2576 0
 3863 0040 C3F30804 		ubfx	r4, r3, #0, #9
 3864 0044 002C     		cmp	r4, #0
 3865 0046 63D1     		bne	.L504
 3866              		.loc 1 2577 0
 3867 0048 3868     		ldr	r0, [r7]
 3868 004a 8278     		ldrb	r2, [r0, #2]	@ zero_extendqisi2
 3869 004c 013A     		subs	r2, r2, #1
 3870 004e 02EA5322 		and	r2, r2, r3, lsr #9
 3871              	.LVL523:
 3872              		.loc 1 2578 0
 3873 0052 12F0FF06 		ands	r6, r2, #255
 3874 0056 6ED0     		beq	.L505
 3875 0058 7B69     		ldr	r3, [r7, #20]
 3876              	.LVL524:
 3877              	.L506:
 3878              	.LBB304:
 3879              	.LBB305:
 3880              		.loc 1 853 0
 3881 005a 4269     		ldr	r2, [r0, #20]
 3882              		.loc 1 852 0
 3883 005c 023B     		subs	r3, r3, #2
 3884              	.LVL525:
 3885              		.loc 1 853 0
 3886 005e 023A     		subs	r2, r2, #2
 3887 0060 9342     		cmp	r3, r2
 3888 0062 77D2     		bcs	.L512
 3889              		.loc 1 854 0
 3890 0064 8278     		ldrb	r2, [r0, #2]	@ zero_extendqisi2
 3891 0066 846A     		ldr	r4, [r0, #40]
 3892 0068 02FB0344 		mla	r4, r2, r3, r4
 3893              	.LBE305:
 3894              	.LBE304:
 3895              		.loc 1 2594 0
 3896 006c 002C     		cmp	r4, #0
 3897 006e 71D0     		beq	.L512
 3898              		.loc 1 2597 0
 3899 0070 5FEA5825 		lsrs	r5, r8, #9
 3900              		.loc 1 2595 0
 3901 0074 3444     		add	r4, r4, r6
 3902              	.LVL526:
 3903              		.loc 1 2597 0
 3904 0076 2ED0     		beq	.L514
 3905              		.loc 1 2598 0
ARM GAS  /tmp/ccZHgRNF.s 			page 70


 3906 0078 7319     		adds	r3, r6, r5
 3907              	.LVL527:
 3908 007a 9342     		cmp	r3, r2
 3909              		.loc 1 2599 0
 3910 007c 88BF     		it	hi
 3911 007e C6EB0205 		rsbhi	r5, r6, r2
 3912              	.LVL528:
 3913              		.loc 1 2600 0
 3914 0082 4078     		ldrb	r0, [r0, #1]	@ zero_extendqisi2
 3915              	.LVL529:
 3916 0084 5946     		mov	r1, fp
 3917 0086 2246     		mov	r2, r4
 3918 0088 2B46     		mov	r3, r5
 3919 008a FFF7FEFF 		bl	disk_read
 3920              	.LVL530:
 3921 008e 0028     		cmp	r0, #0
 3922 0090 64D1     		bne	.L544
 3923              		.loc 1 2607 0
 3924 0092 BB79     		ldrb	r3, [r7, #6]	@ zero_extendqisi2
 3925 0094 5A06     		lsls	r2, r3, #25
 3926 0096 0ED5     		bpl	.L519
 3927              		.loc 1 2607 0 is_stmt 0 discriminator 1
 3928 0098 BB69     		ldr	r3, [r7, #24]
 3929 009a 1C1B     		subs	r4, r3, r4
 3930              	.LVL531:
 3931 009c A542     		cmp	r5, r4
 3932 009e 0AD9     		bls	.L519
 3933              		.loc 1 2608 0 is_stmt 1
 3934 00a0 0BEB4424 		add	r4, fp, r4, lsl #9
 3935 00a4 04F50073 		add	r3, r4, #512
 3936 00a8 5246     		mov	r2, r10
 3937              	.LVL532:
 3938              	.L520:
 3939              	.LBB306:
 3940              	.LBB307:
 3941              		.loc 1 574 0
 3942 00aa 12F8011B 		ldrb	r1, [r2], #1	@ zero_extendqisi2
 3943              	.LVL533:
 3944 00ae 04F8011B 		strb	r1, [r4], #1
 3945              	.LVL534:
 3946              		.loc 1 573 0
 3947 00b2 9C42     		cmp	r4, r3
 3948 00b4 F9D1     		bne	.L520
 3949              	.LVL535:
 3950              	.L519:
 3951 00b6 BB68     		ldr	r3, [r7, #8]
 3952              	.LBE307:
 3953              	.LBE306:
 3954              		.loc 1 2611 0
 3955 00b8 6A02     		lsls	r2, r5, #9
 3956              	.LVL536:
 3957              	.L518:
 3958              		.loc 1 2575 0
 3959 00ba D9F80010 		ldr	r1, [r9]
 3960 00be 1344     		add	r3, r3, r2
 3961 00c0 1144     		add	r1, r1, r2
 3962              		.loc 1 2574 0
ARM GAS  /tmp/ccZHgRNF.s 			page 71


 3963 00c2 B8EB0208 		subs	r8, r8, r2
 3964              	.LVL537:
 3965              		.loc 1 2575 0
 3966 00c6 BB60     		str	r3, [r7, #8]
 3967 00c8 9344     		add	fp, fp, r2
 3968              	.LVL538:
 3969 00ca C9F80010 		str	r1, [r9]
 3970              		.loc 1 2574 0
 3971 00ce B7D1     		bne	.L528
 3972              	.LVL539:
 3973              	.L527:
 3974              		.loc 1 2640 0
 3975 00d0 0020     		movs	r0, #0
 3976 00d2 BDE8F88F 		pop	{r3, r4, r5, r6, r7, r8, r9, r10, fp, pc}
 3977              	.LVL540:
 3978              	.L514:
 3979              		.loc 1 2615 0
 3980 00d6 BA69     		ldr	r2, [r7, #24]
 3981 00d8 A242     		cmp	r2, r4
 3982 00da 15D0     		beq	.L521
 3983              		.loc 1 2617 0
 3984 00dc BB79     		ldrb	r3, [r7, #6]	@ zero_extendqisi2
 3985              	.LVL541:
 3986 00de 5B06     		lsls	r3, r3, #25
 3987 00e0 0BD5     		bpl	.L523
 3988              		.loc 1 2618 0
 3989 00e2 4078     		ldrb	r0, [r0, #1]	@ zero_extendqisi2
 3990              	.LVL542:
 3991 00e4 5146     		mov	r1, r10
 3992 00e6 0123     		movs	r3, #1
 3993 00e8 FFF7FEFF 		bl	disk_write
 3994              	.LVL543:
 3995 00ec 0028     		cmp	r0, #0
 3996 00ee 35D1     		bne	.L544
 3997              		.loc 1 2620 0
 3998 00f0 BB79     		ldrb	r3, [r7, #6]	@ zero_extendqisi2
 3999 00f2 3868     		ldr	r0, [r7]
 4000 00f4 23F04003 		bic	r3, r3, #64
 4001 00f8 BB71     		strb	r3, [r7, #6]
 4002              	.L523:
 4003              		.loc 1 2623 0
 4004 00fa 4078     		ldrb	r0, [r0, #1]	@ zero_extendqisi2
 4005 00fc 5146     		mov	r1, r10
 4006 00fe 2246     		mov	r2, r4
 4007 0100 0123     		movs	r3, #1
 4008 0102 FFF7FEFF 		bl	disk_read
 4009              	.LVL544:
 4010 0106 48BB     		cbnz	r0, .L544
 4011              	.L521:
 4012 0108 BB68     		ldr	r3, [r7, #8]
 4013              		.loc 1 2627 0
 4014 010a BC61     		str	r4, [r7, #24]
 4015 010c C3F30804 		ubfx	r4, r3, #0, #9
 4016              	.LVL545:
 4017              	.L504:
 4018              		.loc 1 2629 0
 4019 0110 C4F50072 		rsb	r2, r4, #512
ARM GAS  /tmp/ccZHgRNF.s 			page 72


 4020              	.LVL546:
 4021 0114 4245     		cmp	r2, r8
 4022 0116 28BF     		it	cs
 4023 0118 4246     		movcs	r2, r8
 4024              	.LVL547:
 4025              		.loc 1 2636 0
 4026 011a 3C44     		add	r4, r4, r7
 4027 011c 2434     		adds	r4, r4, #36
 4028              	.LVL548:
 4029              	.LBB308:
 4030              	.LBB309:
 4031              		.loc 1 573 0
 4032 011e 002A     		cmp	r2, #0
 4033 0120 CBD0     		beq	.L518
 4034 0122 A318     		adds	r3, r4, r2
 4035 0124 5D46     		mov	r5, fp
 4036              	.LVL549:
 4037              	.L526:
 4038              		.loc 1 574 0
 4039 0126 14F8016B 		ldrb	r6, [r4], #1	@ zero_extendqisi2
 4040              	.LVL550:
 4041 012a 05F8016B 		strb	r6, [r5], #1
 4042              	.LVL551:
 4043              		.loc 1 573 0
 4044 012e 9C42     		cmp	r4, r3
 4045 0130 F9D1     		bne	.L526
 4046 0132 BB68     		ldr	r3, [r7, #8]
 4047 0134 C1E7     		b	.L518
 4048              	.LVL552:
 4049              	.L505:
 4050              	.LBE309:
 4051              	.LBE308:
 4052              		.loc 1 2579 0
 4053 0136 3BB9     		cbnz	r3, .L507
 4054              		.loc 1 2580 0
 4055 0138 3B69     		ldr	r3, [r7, #16]
 4056              	.LVL553:
 4057              	.L508:
 4058              		.loc 1 2589 0
 4059 013a 012B     		cmp	r3, #1
 4060 013c 0AD9     		bls	.L512
 4061              		.loc 1 2590 0
 4062 013e 591C     		adds	r1, r3, #1
 4063 0140 0CD0     		beq	.L544
 4064 0142 3868     		ldr	r0, [r7]
 4065              		.loc 1 2591 0
 4066 0144 7B61     		str	r3, [r7, #20]
 4067 0146 88E7     		b	.L506
 4068              	.LVL554:
 4069              	.L507:
 4070              		.loc 1 2587 0
 4071 0148 7969     		ldr	r1, [r7, #20]
 4072              	.LVL555:
 4073              	.LBB310:
 4074              	.LBB311:
 4075              		.loc 1 874 0
 4076 014a 0129     		cmp	r1, #1
ARM GAS  /tmp/ccZHgRNF.s 			page 73


 4077 014c 02D9     		bls	.L512
 4078 014e 4369     		ldr	r3, [r0, #20]
 4079 0150 9942     		cmp	r1, r3
 4080 0152 07D3     		bcc	.L546
 4081              	.LVL556:
 4082              	.L512:
 4083              	.LBE311:
 4084              	.LBE310:
 4085              		.loc 1 2594 0 discriminator 1
 4086 0154 0220     		movs	r0, #2
 4087 0156 F871     		strb	r0, [r7, #7]
 4088 0158 BDE8F88F 		pop	{r3, r4, r5, r6, r7, r8, r9, r10, fp, pc}
 4089              	.LVL557:
 4090              	.L544:
 4091              		.loc 1 2624 0
 4092 015c 0120     		movs	r0, #1
 4093 015e F871     		strb	r0, [r7, #7]
 4094 0160 BDE8F88F 		pop	{r3, r4, r5, r6, r7, r8, r9, r10, fp, pc}
 4095              	.LVL558:
 4096              	.L546:
 4097              	.LBB313:
 4098              	.LBB312:
 4099 0164 FFF7FEFF 		bl	get_fat.part.6
 4100              	.LVL559:
 4101 0168 0346     		mov	r3, r0
 4102 016a E6E7     		b	.L508
 4103              	.LBE312:
 4104              	.LBE313:
 4105              		.cfi_endproc
 4106              	.LFE271:
 4107              		.size	f_read, .-f_read
 4108 016c AFF30080 		.section	.text.f_write,"ax",%progbits
 4109              		.align	2
 4110              		.p2align 4,,15
 4111              		.global	f_write
 4112              		.thumb
 4113              		.thumb_func
 4114              		.type	f_write, %function
 4115              	f_write:
 4116              	.LFB272:
 4117              		.loc 1 2657 0
 4118              		.cfi_startproc
 4119              		@ args = 0, pretend = 0, frame = 8
 4120              		@ frame_needed = 0, uses_anonymous_args = 0
 4121              	.LVL560:
 4122 0000 2DE9F04F 		push	{r4, r5, r6, r7, r8, r9, r10, fp, lr}
 4123              		.cfi_def_cfa_offset 36
 4124              		.cfi_offset 4, -36
 4125              		.cfi_offset 5, -32
 4126              		.cfi_offset 6, -28
 4127              		.cfi_offset 7, -24
 4128              		.cfi_offset 8, -20
 4129              		.cfi_offset 9, -16
 4130              		.cfi_offset 10, -12
 4131              		.cfi_offset 11, -8
 4132              		.cfi_offset 14, -4
 4133 0004 9A46     		mov	r10, r3
ARM GAS  /tmp/ccZHgRNF.s 			page 74


 4134              		.loc 1 2665 0
 4135 0006 0023     		movs	r3, #0
 4136              	.LVL561:
 4137              		.loc 1 2657 0
 4138 0008 83B0     		sub	sp, sp, #12
 4139              		.cfi_def_cfa_offset 48
 4140              		.loc 1 2665 0
 4141 000a CAF80030 		str	r3, [r10]
 4142              		.loc 1 2657 0
 4143 000e 0C46     		mov	r4, r1
 4144 0010 9046     		mov	r8, r2
 4145 0012 0746     		mov	r7, r0
 4146              	.LVL562:
 4147              		.loc 1 2667 0
 4148 0014 FFF7FEFF 		bl	validate
 4149              	.LVL563:
 4150              		.loc 1 2668 0
 4151 0018 28B9     		cbnz	r0, .L548
 4152              		.loc 1 2669 0
 4153 001a F879     		ldrb	r0, [r7, #7]	@ zero_extendqisi2
 4154              	.LVL564:
 4155 001c 18B9     		cbnz	r0, .L548
 4156              		.loc 1 2671 0
 4157 001e BB79     		ldrb	r3, [r7, #6]	@ zero_extendqisi2
 4158 0020 9807     		lsls	r0, r3, #30
 4159 0022 03D4     		bmi	.L593
 4160              		.loc 1 2672 0
 4161 0024 0720     		movs	r0, #7
 4162              	.LVL565:
 4163              	.L548:
 4164              		.loc 1 2764 0
 4165 0026 03B0     		add	sp, sp, #12
 4166              		@ sp needed
 4167 0028 BDE8F08F 		pop	{r4, r5, r6, r7, r8, r9, r10, fp, pc}
 4168              	.LVL566:
 4169              	.L593:
 4170              		.loc 1 2673 0
 4171 002c BE68     		ldr	r6, [r7, #8]
 4172 002e 18EB060F 		cmn	r8, r6
 4173 0032 08D3     		bcc	.L594
 4174              	.LVL567:
 4175              	.L549:
 4176              		.loc 1 2760 0
 4177 0034 FA68     		ldr	r2, [r7, #12]
 4178              		.loc 1 2761 0
 4179 0036 43F02003 		orr	r3, r3, #32
 4180              		.loc 1 2760 0
 4181 003a B242     		cmp	r2, r6
 4182 003c 38BF     		it	cc
 4183 003e FE60     		strcc	r6, [r7, #12]
 4184              		.loc 1 2761 0
 4185 0040 BB71     		strb	r3, [r7, #6]
 4186              		.loc 1 2763 0
 4187 0042 0020     		movs	r0, #0
 4188 0044 EFE7     		b	.L548
 4189              	.LVL568:
 4190              	.L594:
ARM GAS  /tmp/ccZHgRNF.s 			page 75


 4191              		.loc 1 2675 0 discriminator 1
 4192 0046 B8F1000F 		cmp	r8, #0
 4193 004a F3D0     		beq	.L549
 4194              		.loc 1 2741 0
 4195 004c 07F12403 		add	r3, r7, #36
 4196 0050 0193     		str	r3, [sp, #4]
 4197              	.LVL569:
 4198              	.L576:
 4199              		.loc 1 2677 0
 4200 0052 C6F30805 		ubfx	r5, r6, #0, #9
 4201 0056 002D     		cmp	r5, #0
 4202 0058 6DD1     		bne	.L550
 4203              		.loc 1 2678 0
 4204 005a 3B68     		ldr	r3, [r7]
 4205 005c 9D78     		ldrb	r5, [r3, #2]	@ zero_extendqisi2
 4206 005e 013D     		subs	r5, r5, #1
 4207 0060 05EA5625 		and	r5, r5, r6, lsr #9
 4208              	.LVL570:
 4209              		.loc 1 2679 0
 4210 0064 15F0FF05 		ands	r5, r5, #255
 4211              	.LVL571:
 4212 0068 10D1     		bne	.L551
 4213              		.loc 1 2680 0
 4214 006a 002E     		cmp	r6, #0
 4215 006c 40F08C80 		bne	.L552
 4216              		.loc 1 2681 0
 4217 0070 3869     		ldr	r0, [r7, #16]
 4218              	.LVL572:
 4219              		.loc 1 2682 0
 4220 0072 0028     		cmp	r0, #0
 4221 0074 00F09280 		beq	.L595
 4222              	.LVL573:
 4223              	.L553:
 4224              		.loc 1 2693 0
 4225 0078 0128     		cmp	r0, #1
 4226 007a 00F0A180 		beq	.L560
 4227              		.loc 1 2694 0
 4228 007e 411C     		adds	r1, r0, #1
 4229 0080 7FD0     		beq	.L571
 4230              		.loc 1 2696 0
 4231 0082 3B69     		ldr	r3, [r7, #16]
 4232              		.loc 1 2695 0
 4233 0084 7861     		str	r0, [r7, #20]
 4234              		.loc 1 2696 0
 4235 0086 002B     		cmp	r3, #0
 4236 0088 78D0     		beq	.L557
 4237 008a 3B68     		ldr	r3, [r7]
 4238              	.LVL574:
 4239              	.L551:
 4240              		.loc 1 2702 0
 4241 008c BA79     		ldrb	r2, [r7, #6]	@ zero_extendqisi2
 4242 008e 5206     		lsls	r2, r2, #25
 4243 0090 67D4     		bmi	.L596
 4244              	.L558:
 4245              	.LVL575:
 4246              	.LBB314:
 4247              	.LBB315:
ARM GAS  /tmp/ccZHgRNF.s 			page 76


 4248              		.loc 1 852 0
 4249 0092 7969     		ldr	r1, [r7, #20]
 4250              		.loc 1 853 0
 4251 0094 5A69     		ldr	r2, [r3, #20]
 4252              		.loc 1 852 0
 4253 0096 A1F1020C 		sub	ip, r1, #2
 4254              	.LVL576:
 4255              		.loc 1 853 0
 4256 009a 023A     		subs	r2, r2, #2
 4257 009c 9445     		cmp	ip, r2
 4258 009e 80F08F80 		bcs	.L560
 4259              		.loc 1 854 0
 4260 00a2 9978     		ldrb	r1, [r3, #2]	@ zero_extendqisi2
 4261 00a4 9A6A     		ldr	r2, [r3, #40]
 4262 00a6 0CFB0122 		mla	r2, ip, r1, r2
 4263              	.LBE315:
 4264              	.LBE314:
 4265              		.loc 1 2709 0
 4266 00aa 002A     		cmp	r2, #0
 4267 00ac 00F08880 		beq	.L560
 4268              		.loc 1 2712 0
 4269 00b0 5FEA582B 		lsrs	fp, r8, #9
 4270              		.loc 1 2710 0
 4271 00b4 05EB0209 		add	r9, r5, r2
 4272              	.LVL577:
 4273              		.loc 1 2712 0
 4274 00b8 32D0     		beq	.L562
 4275              		.loc 1 2713 0
 4276 00ba 05EB0B02 		add	r2, r5, fp
 4277 00be 8A42     		cmp	r2, r1
 4278              		.loc 1 2714 0
 4279 00c0 88BF     		it	hi
 4280 00c2 C5EB010B 		rsbhi	fp, r5, r1
 4281              	.LVL578:
 4282              		.loc 1 2715 0
 4283 00c6 5878     		ldrb	r0, [r3, #1]	@ zero_extendqisi2
 4284 00c8 2146     		mov	r1, r4
 4285 00ca 4A46     		mov	r2, r9
 4286 00cc 5B46     		mov	r3, fp
 4287              	.LVL579:
 4288 00ce FFF7FEFF 		bl	disk_write
 4289              	.LVL580:
 4290 00d2 0028     		cmp	r0, #0
 4291 00d4 55D1     		bne	.L571
 4292              		.loc 1 2724 0
 4293 00d6 BD69     		ldr	r5, [r7, #24]
 4294 00d8 C9EB050C 		rsb	ip, r9, r5
 4295 00dc E345     		cmp	fp, ip
 4296 00de 0ED9     		bls	.L565
 4297              		.loc 1 2725 0
 4298 00e0 04EB4C25 		add	r5, r4, ip, lsl #9
 4299              	.LVL581:
 4300 00e4 019E     		ldr	r6, [sp, #4]
 4301 00e6 05F50073 		add	r3, r5, #512
 4302              	.LVL582:
 4303              	.L567:
 4304              	.LBB316:
ARM GAS  /tmp/ccZHgRNF.s 			page 77


 4305              	.LBB317:
 4306              		.loc 1 574 0
 4307 00ea 15F8012B 		ldrb	r2, [r5], #1	@ zero_extendqisi2
 4308              	.LVL583:
 4309 00ee 06F8012B 		strb	r2, [r6], #1
 4310              	.LVL584:
 4311              		.loc 1 573 0
 4312 00f2 9D42     		cmp	r5, r3
 4313 00f4 F9D1     		bne	.L567
 4314              	.LBE317:
 4315              	.LBE316:
 4316              		.loc 1 2726 0
 4317 00f6 BB79     		ldrb	r3, [r7, #6]	@ zero_extendqisi2
 4318              	.LVL585:
 4319 00f8 23F04003 		bic	r3, r3, #64
 4320 00fc BB71     		strb	r3, [r7, #6]
 4321              	.LVL586:
 4322              	.L565:
 4323              		.loc 1 2730 0
 4324 00fe 4FEA4B22 		lsl	r2, fp, #9
 4325              	.LVL587:
 4326 0102 BE68     		ldr	r6, [r7, #8]
 4327 0104 A318     		adds	r3, r4, r2
 4328              	.LVL588:
 4329              	.L568:
 4330              		.loc 1 2676 0
 4331 0106 DAF80010 		ldr	r1, [r10]
 4332 010a 1644     		add	r6, r6, r2
 4333 010c 1144     		add	r1, r1, r2
 4334              		.loc 1 2675 0
 4335 010e B8EB0208 		subs	r8, r8, r2
 4336              	.LVL589:
 4337              		.loc 1 2676 0
 4338 0112 BE60     		str	r6, [r7, #8]
 4339 0114 1C46     		mov	r4, r3
 4340 0116 CAF80010 		str	r1, [r10]
 4341              		.loc 1 2675 0
 4342 011a 9AD1     		bne	.L576
 4343 011c BB79     		ldrb	r3, [r7, #6]	@ zero_extendqisi2
 4344              	.LVL590:
 4345 011e 89E7     		b	.L549
 4346              	.LVL591:
 4347              	.L562:
 4348              		.loc 1 2739 0
 4349 0120 BA69     		ldr	r2, [r7, #24]
 4350              		.loc 1 2740 0
 4351 0122 BE68     		ldr	r6, [r7, #8]
 4352              		.loc 1 2739 0
 4353 0124 4A45     		cmp	r2, r9
 4354 0126 02D0     		beq	.L570
 4355              		.loc 1 2740 0
 4356 0128 FA68     		ldr	r2, [r7, #12]
 4357 012a 9642     		cmp	r6, r2
 4358 012c 3ED3     		bcc	.L597
 4359              	.LVL592:
 4360              	.L570:
 4361              		.loc 1 2745 0
ARM GAS  /tmp/ccZHgRNF.s 			page 78


 4362 012e C7F81890 		str	r9, [r7, #24]
 4363 0132 C6F30805 		ubfx	r5, r6, #0, #9
 4364              	.LVL593:
 4365              	.L550:
 4366              		.loc 1 2747 0
 4367 0136 C5F50072 		rsb	r2, r5, #512
 4368              	.LVL594:
 4369 013a 4245     		cmp	r2, r8
 4370 013c 28BF     		it	cs
 4371 013e 4246     		movcs	r2, r8
 4372              	.LVL595:
 4373              		.loc 1 2755 0
 4374 0140 3D44     		add	r5, r5, r7
 4375 0142 2435     		adds	r5, r5, #36
 4376              	.LVL596:
 4377 0144 2346     		mov	r3, r4
 4378              	.LBB318:
 4379              	.LBB319:
 4380              		.loc 1 573 0
 4381 0146 3AB1     		cbz	r2, .L572
 4382 0148 A318     		adds	r3, r4, r2
 4383              	.LVL597:
 4384              	.L574:
 4385              		.loc 1 574 0
 4386 014a 14F8016B 		ldrb	r6, [r4], #1	@ zero_extendqisi2
 4387              	.LVL598:
 4388 014e 05F8016B 		strb	r6, [r5], #1
 4389              	.LVL599:
 4390              		.loc 1 573 0
 4391 0152 9C42     		cmp	r4, r3
 4392 0154 F9D1     		bne	.L574
 4393 0156 BE68     		ldr	r6, [r7, #8]
 4394              	.LVL600:
 4395              	.L572:
 4396              	.LBE319:
 4397              	.LBE318:
 4398              		.loc 1 2756 0
 4399 0158 B979     		ldrb	r1, [r7, #6]	@ zero_extendqisi2
 4400 015a 41F04001 		orr	r1, r1, #64
 4401 015e B971     		strb	r1, [r7, #6]
 4402 0160 D1E7     		b	.L568
 4403              	.LVL601:
 4404              	.L596:
 4405              		.loc 1 2703 0
 4406 0162 5878     		ldrb	r0, [r3, #1]	@ zero_extendqisi2
 4407 0164 BA69     		ldr	r2, [r7, #24]
 4408 0166 0199     		ldr	r1, [sp, #4]
 4409 0168 0123     		movs	r3, #1
 4410 016a FFF7FEFF 		bl	disk_write
 4411              	.LVL602:
 4412 016e 40B9     		cbnz	r0, .L571
 4413              		.loc 1 2705 0
 4414 0170 BA79     		ldrb	r2, [r7, #6]	@ zero_extendqisi2
 4415 0172 3B68     		ldr	r3, [r7]
 4416 0174 22F04002 		bic	r2, r2, #64
 4417 0178 BA71     		strb	r2, [r7, #6]
 4418 017a 8AE7     		b	.L558
ARM GAS  /tmp/ccZHgRNF.s 			page 79


 4419              	.LVL603:
 4420              	.L557:
 4421 017c 3B68     		ldr	r3, [r7]
 4422              		.loc 1 2696 0 discriminator 1
 4423 017e 3861     		str	r0, [r7, #16]
 4424 0180 84E7     		b	.L551
 4425              	.LVL604:
 4426              	.L571:
 4427              		.loc 1 2742 0
 4428 0182 0120     		movs	r0, #1
 4429 0184 F871     		strb	r0, [r7, #7]
 4430 0186 4EE7     		b	.L548
 4431              	.LVL605:
 4432              	.L552:
 4433              		.loc 1 2690 0
 4434 0188 1846     		mov	r0, r3
 4435 018a 7969     		ldr	r1, [r7, #20]
 4436 018c FFF7FEFF 		bl	create_chain
 4437              	.LVL606:
 4438              		.loc 1 2692 0
 4439 0190 0028     		cmp	r0, #0
 4440 0192 7FF471AF 		bne	.L553
 4441              	.L598:
 4442 0196 BE68     		ldr	r6, [r7, #8]
 4443 0198 BB79     		ldrb	r3, [r7, #6]	@ zero_extendqisi2
 4444 019a 4BE7     		b	.L549
 4445              	.LVL607:
 4446              	.L595:
 4447              		.loc 1 2683 0
 4448 019c 1846     		mov	r0, r3
 4449              	.LVL608:
 4450 019e 2946     		mov	r1, r5
 4451 01a0 FFF7FEFF 		bl	create_chain
 4452              	.LVL609:
 4453              		.loc 1 2692 0
 4454 01a4 0028     		cmp	r0, #0
 4455 01a6 7FF467AF 		bne	.L553
 4456 01aa F4E7     		b	.L598
 4457              	.LVL610:
 4458              	.L597:
 4459              		.loc 1 2741 0 discriminator 1
 4460 01ac 5878     		ldrb	r0, [r3, #1]	@ zero_extendqisi2
 4461 01ae 0199     		ldr	r1, [sp, #4]
 4462 01b0 4A46     		mov	r2, r9
 4463 01b2 0123     		movs	r3, #1
 4464              	.LVL611:
 4465 01b4 FFF7FEFF 		bl	disk_read
 4466              	.LVL612:
 4467              		.loc 1 2740 0 discriminator 1
 4468 01b8 0028     		cmp	r0, #0
 4469 01ba E2D1     		bne	.L571
 4470 01bc BE68     		ldr	r6, [r7, #8]
 4471 01be B6E7     		b	.L570
 4472              	.LVL613:
 4473              	.L560:
 4474              		.loc 1 2709 0 discriminator 1
 4475 01c0 0220     		movs	r0, #2
ARM GAS  /tmp/ccZHgRNF.s 			page 80


 4476 01c2 F871     		strb	r0, [r7, #7]
 4477 01c4 2FE7     		b	.L548
 4478              		.cfi_endproc
 4479              	.LFE272:
 4480              		.size	f_write, .-f_write
 4481 01c6 00BFAFF3 		.section	.text.f_sync,"ax",%progbits
 4481      0080AFF3 
 4481      0080
 4482              		.align	2
 4483              		.p2align 4,,15
 4484              		.global	f_sync
 4485              		.thumb
 4486              		.thumb_func
 4487              		.type	f_sync, %function
 4488              	f_sync:
 4489              	.LFB273:
 4490              		.loc 1 2776 0
 4491              		.cfi_startproc
 4492              		@ args = 0, pretend = 0, frame = 0
 4493              		@ frame_needed = 0, uses_anonymous_args = 0
 4494              	.LVL614:
 4495 0000 70B5     		push	{r4, r5, r6, lr}
 4496              		.cfi_def_cfa_offset 16
 4497              		.cfi_offset 4, -16
 4498              		.cfi_offset 5, -12
 4499              		.cfi_offset 6, -8
 4500              		.cfi_offset 14, -4
 4501              		.loc 1 2776 0
 4502 0002 0446     		mov	r4, r0
 4503              		.loc 1 2782 0
 4504 0004 FFF7FEFF 		bl	validate
 4505              	.LVL615:
 4506              		.loc 1 2783 0
 4507 0008 D8B9     		cbnz	r0, .L600
 4508              		.loc 1 2784 0
 4509 000a A279     		ldrb	r2, [r4, #6]	@ zero_extendqisi2
 4510 000c 02F02003 		and	r3, r2, #32
 4511 0010 03F0FF00 		and	r0, r3, #255
 4512              	.LVL616:
 4513 0014 ABB1     		cbz	r3, .L600
 4514              		.loc 1 2787 0
 4515 0016 5306     		lsls	r3, r2, #25
 4516 0018 0DD5     		bpl	.L601
 4517              		.loc 1 2788 0
 4518 001a 2146     		mov	r1, r4
 4519 001c A269     		ldr	r2, [r4, #24]
 4520 001e 51F8240B 		ldr	r0, [r1], #36
 4521 0022 0123     		movs	r3, #1
 4522 0024 4078     		ldrb	r0, [r0, #1]	@ zero_extendqisi2
 4523 0026 FFF7FEFF 		bl	disk_write
 4524              	.LVL617:
 4525 002a 0028     		cmp	r0, #0
 4526 002c 39D1     		bne	.L604
 4527              		.loc 1 2790 0
 4528 002e A379     		ldrb	r3, [r4, #6]	@ zero_extendqisi2
 4529 0030 23F04003 		bic	r3, r3, #64
 4530 0034 A371     		strb	r3, [r4, #6]
ARM GAS  /tmp/ccZHgRNF.s 			page 81


 4531              	.L601:
 4532              		.loc 1 2794 0
 4533 0036 2068     		ldr	r0, [r4]
 4534 0038 E169     		ldr	r1, [r4, #28]
 4535 003a FFF7FEFF 		bl	move_window
 4536              	.LVL618:
 4537              		.loc 1 2795 0
 4538 003e 0646     		mov	r6, r0
 4539 0040 00B1     		cbz	r0, .L609
 4540              	.LVL619:
 4541              	.L600:
 4542              		.loc 1 2811 0
 4543 0042 70BD     		pop	{r4, r5, r6, pc}
 4544              	.LVL620:
 4545              	.L609:
 4546              		.loc 1 2796 0
 4547 0044 256A     		ldr	r5, [r4, #32]
 4548              	.LVL621:
 4549              		.loc 1 2797 0
 4550 0046 EB7A     		ldrb	r3, [r5, #11]	@ zero_extendqisi2
 4551 0048 43F02003 		orr	r3, r3, #32
 4552 004c EB72     		strb	r3, [r5, #11]
 4553              		.loc 1 2798 0
 4554 004e E368     		ldr	r3, [r4, #12]
 4555 0050 2B77     		strb	r3, [r5, #28]
 4556 0052 A389     		ldrh	r3, [r4, #12]
 4557 0054 1B0A     		lsrs	r3, r3, #8
 4558 0056 6B77     		strb	r3, [r5, #29]
 4559 0058 E389     		ldrh	r3, [r4, #14]
 4560 005a AB77     		strb	r3, [r5, #30]
 4561 005c E37B     		ldrb	r3, [r4, #15]	@ zero_extendqisi2
 4562 005e EB77     		strb	r3, [r5, #31]
 4563              		.loc 1 2799 0
 4564 0060 2369     		ldr	r3, [r4, #16]
 4565              	.LVL622:
 4566              	.LBB320:
 4567              	.LBB321:
 4568              		.loc 1 1292 0
 4569 0062 AB76     		strb	r3, [r5, #26]
 4570              		.loc 1 1293 0
 4571 0064 1A0C     		lsrs	r2, r3, #16
 4572 0066 110A     		lsrs	r1, r2, #8
 4573              		.loc 1 1292 0
 4574 0068 C3F30723 		ubfx	r3, r3, #8, #8
 4575              	.LVL623:
 4576 006c EB76     		strb	r3, [r5, #27]
 4577              		.loc 1 1293 0
 4578 006e 2A75     		strb	r2, [r5, #20]
 4579 0070 6975     		strb	r1, [r5, #21]
 4580              	.LBE321:
 4581              	.LBE320:
 4582              		.loc 1 2800 0
 4583 0072 FFF7FEFF 		bl	get_fattime
 4584              	.LVL624:
 4585              		.loc 1 2801 0
 4586 0076 C0F30721 		ubfx	r1, r0, #8, #8
 4587 007a 020C     		lsrs	r2, r0, #16
ARM GAS  /tmp/ccZHgRNF.s 			page 82


 4588 007c 030E     		lsrs	r3, r0, #24
 4589 007e 2A76     		strb	r2, [r5, #24]
 4590 0080 A875     		strb	r0, [r5, #22]
 4591              		.loc 1 2802 0
 4592 0082 AE74     		strb	r6, [r5, #18]
 4593 0084 EE74     		strb	r6, [r5, #19]
 4594              		.loc 1 2801 0
 4595 0086 E975     		strb	r1, [r5, #23]
 4596 0088 6B76     		strb	r3, [r5, #25]
 4597              		.loc 1 2803 0
 4598 008a A179     		ldrb	r1, [r4, #6]	@ zero_extendqisi2
 4599              		.loc 1 2804 0
 4600 008c 2368     		ldr	r3, [r4]
 4601              		.loc 1 2803 0
 4602 008e 21F02001 		bic	r1, r1, #32
 4603              		.loc 1 2804 0
 4604 0092 0122     		movs	r2, #1
 4605              		.loc 1 2803 0
 4606 0094 A171     		strb	r1, [r4, #6]
 4607              		.loc 1 2804 0
 4608 0096 1A71     		strb	r2, [r3, #4]
 4609              		.loc 1 2805 0
 4610 0098 2068     		ldr	r0, [r4]
 4611              	.LVL625:
 4612              		.loc 1 2811 0
 4613 009a BDE87040 		pop	{r4, r5, r6, lr}
 4614              	.LVL626:
 4615              		.loc 1 2805 0
 4616 009e FFF7FEBF 		b	sync_fs
 4617              	.LVL627:
 4618              	.L604:
 4619              		.loc 1 2789 0
 4620 00a2 0120     		movs	r0, #1
 4621 00a4 70BD     		pop	{r4, r5, r6, pc}
 4622              		.cfi_endproc
 4623              	.LFE273:
 4624              		.size	f_sync, .-f_sync
 4625 00a6 00BFAFF3 		.section	.text.f_close,"ax",%progbits
 4625      0080AFF3 
 4625      0080
 4626              		.align	2
 4627              		.p2align 4,,15
 4628              		.global	f_close
 4629              		.thumb
 4630              		.thumb_func
 4631              		.type	f_close, %function
 4632              	f_close:
 4633              	.LFB274:
 4634              		.loc 1 2825 0
 4635              		.cfi_startproc
 4636              		@ args = 0, pretend = 0, frame = 0
 4637              		@ frame_needed = 0, uses_anonymous_args = 0
 4638              	.LVL628:
 4639 0000 10B5     		push	{r4, lr}
 4640              		.cfi_def_cfa_offset 8
 4641              		.cfi_offset 4, -8
 4642              		.cfi_offset 14, -4
ARM GAS  /tmp/ccZHgRNF.s 			page 83


 4643              		.loc 1 2825 0
 4644 0002 0446     		mov	r4, r0
 4645              		.loc 1 2830 0
 4646 0004 FFF7FEFF 		bl	f_sync
 4647              	.LVL629:
 4648              		.loc 1 2831 0
 4649 0008 00B1     		cbz	r0, .L612
 4650              	.L611:
 4651              		.loc 1 2850 0
 4652 000a 10BD     		pop	{r4, pc}
 4653              	.LVL630:
 4654              	.L612:
 4655              		.loc 1 2834 0
 4656 000c 2046     		mov	r0, r4
 4657              	.LVL631:
 4658 000e FFF7FEFF 		bl	validate
 4659              	.LVL632:
 4660              		.loc 1 2835 0
 4661 0012 0028     		cmp	r0, #0
 4662 0014 F9D1     		bne	.L611
 4663              		.loc 1 2843 0
 4664 0016 2060     		str	r0, [r4]
 4665              		.loc 1 2850 0
 4666 0018 10BD     		pop	{r4, pc}
 4667              		.cfi_endproc
 4668              	.LFE274:
 4669              		.size	f_close, .-f_close
 4670 001a 00BFAFF3 		.section	.text.f_lseek,"ax",%progbits
 4670      0080
 4671              		.align	2
 4672              		.p2align 4,,15
 4673              		.global	f_lseek
 4674              		.thumb
 4675              		.thumb_func
 4676              		.type	f_lseek, %function
 4677              	f_lseek:
 4678              	.LFB275:
 4679              		.loc 1 2998 0
 4680              		.cfi_startproc
 4681              		@ args = 0, pretend = 0, frame = 0
 4682              		@ frame_needed = 0, uses_anonymous_args = 0
 4683              	.LVL633:
 4684 0000 70B5     		push	{r4, r5, r6, lr}
 4685              		.cfi_def_cfa_offset 16
 4686              		.cfi_offset 4, -16
 4687              		.cfi_offset 5, -12
 4688              		.cfi_offset 6, -8
 4689              		.cfi_offset 14, -4
 4690              		.loc 1 2998 0
 4691 0002 0D46     		mov	r5, r1
 4692 0004 0446     		mov	r4, r0
 4693              		.loc 1 3002 0
 4694 0006 FFF7FEFF 		bl	validate
 4695              	.LVL634:
 4696              		.loc 1 3003 0
 4697 000a 0028     		cmp	r0, #0
 4698 000c 44D1     		bne	.L614
ARM GAS  /tmp/ccZHgRNF.s 			page 84


 4699              		.loc 1 3004 0
 4700 000e E079     		ldrb	r0, [r4, #7]	@ zero_extendqisi2
 4701              	.LVL635:
 4702 0010 0028     		cmp	r0, #0
 4703 0012 41D1     		bne	.L614
 4704              	.LBB322:
 4705              		.loc 1 3068 0
 4706 0014 E368     		ldr	r3, [r4, #12]
 4707 0016 AB42     		cmp	r3, r5
 4708 0018 04D2     		bcs	.L615
 4709              		.loc 1 3070 0
 4710 001a A279     		ldrb	r2, [r4, #6]	@ zero_extendqisi2
 4711 001c 12F0020F 		tst	r2, #2
 4712 0020 08BF     		it	eq
 4713 0022 1D46     		moveq	r5, r3
 4714              	.LVL636:
 4715              	.L615:
 4716              		.loc 1 3075 0
 4717 0024 0023     		movs	r3, #0
 4718              		.loc 1 3074 0
 4719 0026 A268     		ldr	r2, [r4, #8]
 4720              	.LVL637:
 4721              		.loc 1 3075 0
 4722 0028 A360     		str	r3, [r4, #8]
 4723              		.loc 1 3076 0
 4724 002a 002D     		cmp	r5, #0
 4725 002c 35D0     		beq	.L643
 4726              		.loc 1 3077 0
 4727 002e 2068     		ldr	r0, [r4]
 4728 0030 8678     		ldrb	r6, [r0, #2]	@ zero_extendqisi2
 4729 0032 7602     		lsls	r6, r6, #9
 4730              	.LVL638:
 4731              		.loc 1 3078 0
 4732 0034 3AB1     		cbz	r2, .L616
 4733              		.loc 1 3079 0 discriminator 1
 4734 0036 013A     		subs	r2, r2, #1
 4735              	.LVL639:
 4736 0038 691E     		subs	r1, r5, #1
 4737 003a B2FBF6F3 		udiv	r3, r2, r6
 4738 003e B1FBF6F1 		udiv	r1, r1, r6
 4739              		.loc 1 3078 0 discriminator 1
 4740 0042 9942     		cmp	r1, r3
 4741 0044 73D2     		bcs	.L652
 4742              	.LVL640:
 4743              	.L616:
 4744              		.loc 1 3084 0
 4745 0046 2169     		ldr	r1, [r4, #16]
 4746              	.LVL641:
 4747              		.loc 1 3086 0
 4748 0048 0029     		cmp	r1, #0
 4749 004a 7BD0     		beq	.L653
 4750              	.L618:
 4751              		.loc 1 3093 0
 4752 004c 6161     		str	r1, [r4, #20]
 4753              	.L617:
 4754              		.loc 1 3095 0
 4755 004e 31BB     		cbnz	r1, .L621
ARM GAS  /tmp/ccZHgRNF.s 			page 85


 4756 0050 A368     		ldr	r3, [r4, #8]
 4757              		.loc 1 3075 0
 4758 0052 0D46     		mov	r5, r1
 4759              	.LVL642:
 4760              	.L622:
 4761              		.loc 1 3120 0
 4762 0054 C3F30802 		ubfx	r2, r3, #0, #9
 4763 0058 002A     		cmp	r2, #0
 4764 005a 7CD0     		beq	.L650
 4765              		.loc 1 3120 0 is_stmt 0 discriminator 1
 4766 005c A269     		ldr	r2, [r4, #24]
 4767 005e AA42     		cmp	r2, r5
 4768 0060 79D0     		beq	.L650
 4769              		.loc 1 3123 0 is_stmt 1
 4770 0062 A379     		ldrb	r3, [r4, #6]	@ zero_extendqisi2
 4771 0064 5B06     		lsls	r3, r3, #25
 4772 0066 56D4     		bmi	.L636
 4773 0068 04F12406 		add	r6, r4, #36
 4774              	.L637:
 4775              		.loc 1 3129 0
 4776 006c 2368     		ldr	r3, [r4]
 4777 006e 3146     		mov	r1, r6
 4778 0070 5878     		ldrb	r0, [r3, #1]	@ zero_extendqisi2
 4779 0072 2A46     		mov	r2, r5
 4780 0074 0123     		movs	r3, #1
 4781 0076 FFF7FEFF 		bl	disk_read
 4782              	.LVL643:
 4783 007a 0028     		cmp	r0, #0
 4784 007c 54D1     		bne	.L651
 4785 007e A368     		ldr	r3, [r4, #8]
 4786 0080 E268     		ldr	r2, [r4, #12]
 4787              		.loc 1 3132 0
 4788 0082 A561     		str	r5, [r4, #24]
 4789              	.L634:
 4790              		.loc 1 3135 0
 4791 0084 9A42     		cmp	r2, r3
 4792 0086 06D2     		bcs	.L645
 4793              		.loc 1 3137 0
 4794 0088 A279     		ldrb	r2, [r4, #6]	@ zero_extendqisi2
 4795              		.loc 1 3136 0
 4796 008a E360     		str	r3, [r4, #12]
 4797              		.loc 1 3137 0
 4798 008c 42F02003 		orr	r3, r2, #32
 4799 0090 A371     		strb	r3, [r4, #6]
 4800 0092 0020     		movs	r0, #0
 4801 0094 70BD     		pop	{r4, r5, r6, pc}
 4802              	.LVL644:
 4803              	.L645:
 4804 0096 0020     		movs	r0, #0
 4805              	.LVL645:
 4806              	.L614:
 4807              	.LBE322:
 4808              		.loc 1 3143 0
 4809 0098 70BD     		pop	{r4, r5, r6, pc}
 4810              	.LVL646:
 4811              	.L643:
 4812              	.LBB329:
ARM GAS  /tmp/ccZHgRNF.s 			page 86


 4813 009a 2846     		mov	r0, r5
 4814 009c 70BD     		pop	{r4, r5, r6, pc}
 4815              	.LVL647:
 4816              	.L621:
 4817              		.loc 1 3096 0 discriminator 1
 4818 009e B542     		cmp	r5, r6
 4819 00a0 5ED9     		bls	.L649
 4820 00a2 2068     		ldr	r0, [r4]
 4821              	.L630:
 4822              	.LVL648:
 4823              		.loc 1 3098 0
 4824 00a4 A379     		ldrb	r3, [r4, #6]	@ zero_extendqisi2
 4825 00a6 9B07     		lsls	r3, r3, #30
 4826              		.loc 1 3110 0
 4827 00a8 C6EB0505 		rsb	r5, r6, r5
 4828              	.LVL649:
 4829              		.loc 1 3098 0
 4830 00ac 07D4     		bmi	.L654
 4831              	.LBB323:
 4832              	.LBB324:
 4833              		.loc 1 874 0
 4834 00ae 0129     		cmp	r1, #1
 4835 00b0 02D9     		bls	.L631
 4836 00b2 4369     		ldr	r3, [r0, #20]
 4837 00b4 8B42     		cmp	r3, r1
 4838 00b6 2AD8     		bhi	.L655
 4839              	.LVL650:
 4840              	.L631:
 4841              	.LBE324:
 4842              	.LBE323:
 4843              		.loc 1 3115 0 discriminator 1
 4844 00b8 0220     		movs	r0, #2
 4845 00ba E071     		strb	r0, [r4, #7]
 4846 00bc 70BD     		pop	{r4, r5, r6, pc}
 4847              	.LVL651:
 4848              	.L654:
 4849              		.loc 1 3099 0
 4850 00be FFF7FEFF 		bl	create_chain
 4851              	.LVL652:
 4852              		.loc 1 3100 0
 4853 00c2 0146     		mov	r1, r0
 4854 00c4 0028     		cmp	r0, #0
 4855 00c6 4AD0     		beq	.L656
 4856              	.LVL653:
 4857              	.L626:
 4858              		.loc 1 3106 0
 4859 00c8 4A1C     		adds	r2, r1, #1
 4860 00ca 2DD0     		beq	.L651
 4861              		.loc 1 3107 0
 4862 00cc 0129     		cmp	r1, #1
 4863 00ce F3D9     		bls	.L631
 4864              		.loc 1 3107 0 is_stmt 0 discriminator 2
 4865 00d0 2068     		ldr	r0, [r4]
 4866 00d2 4369     		ldr	r3, [r0, #20]
 4867 00d4 9942     		cmp	r1, r3
 4868 00d6 EFD2     		bcs	.L631
 4869              		.loc 1 3109 0 is_stmt 1
ARM GAS  /tmp/ccZHgRNF.s 			page 87


 4870 00d8 A368     		ldr	r3, [r4, #8]
 4871              		.loc 1 3108 0
 4872 00da 6161     		str	r1, [r4, #20]
 4873              		.loc 1 3109 0
 4874 00dc 3344     		add	r3, r3, r6
 4875              		.loc 1 3096 0
 4876 00de AE42     		cmp	r6, r5
 4877              		.loc 1 3109 0
 4878 00e0 A360     		str	r3, [r4, #8]
 4879              		.loc 1 3096 0
 4880 00e2 DFD3     		bcc	.L630
 4881              	.LVL654:
 4882              	.L624:
 4883              		.loc 1 3112 0
 4884 00e4 2B44     		add	r3, r3, r5
 4885              		.loc 1 3113 0
 4886 00e6 C5F30802 		ubfx	r2, r5, #0, #9
 4887              		.loc 1 3112 0
 4888 00ea A360     		str	r3, [r4, #8]
 4889              		.loc 1 3113 0
 4890 00ec 002A     		cmp	r2, #0
 4891 00ee 34D0     		beq	.L644
 4892              		.loc 1 3114 0
 4893 00f0 2668     		ldr	r6, [r4]
 4894              	.LVL655:
 4895              	.LBB326:
 4896              	.LBB327:
 4897              		.loc 1 853 0
 4898 00f2 7069     		ldr	r0, [r6, #20]
 4899              		.loc 1 852 0
 4900 00f4 8A1E     		subs	r2, r1, #2
 4901              	.LVL656:
 4902              		.loc 1 853 0
 4903 00f6 0238     		subs	r0, r0, #2
 4904 00f8 8242     		cmp	r2, r0
 4905 00fa DDD2     		bcs	.L631
 4906              		.loc 1 854 0
 4907 00fc B078     		ldrb	r0, [r6, #2]	@ zero_extendqisi2
 4908 00fe B16A     		ldr	r1, [r6, #40]
 4909              	.LVL657:
 4910 0100 00FB0212 		mla	r2, r0, r2, r1
 4911              	.LVL658:
 4912              	.LBE327:
 4913              	.LBE326:
 4914              		.loc 1 3115 0
 4915 0104 002A     		cmp	r2, #0
 4916 0106 D7D0     		beq	.L631
 4917              		.loc 1 3116 0
 4918 0108 02EB5525 		add	r5, r2, r5, lsr #9
 4919              	.LVL659:
 4920 010c A2E7     		b	.L622
 4921              	.LVL660:
 4922              	.L655:
 4923              	.LBB328:
 4924              	.LBB325:
 4925 010e FFF7FEFF 		bl	get_fat.part.6
 4926              	.LVL661:
ARM GAS  /tmp/ccZHgRNF.s 			page 88


 4927 0112 0146     		mov	r1, r0
 4928 0114 D8E7     		b	.L626
 4929              	.LVL662:
 4930              	.L636:
 4931              	.LBE325:
 4932              	.LBE328:
 4933              		.loc 1 3124 0
 4934 0116 2368     		ldr	r3, [r4]
 4935 0118 04F12406 		add	r6, r4, #36
 4936 011c 5878     		ldrb	r0, [r3, #1]	@ zero_extendqisi2
 4937 011e 3146     		mov	r1, r6
 4938 0120 0123     		movs	r3, #1
 4939 0122 FFF7FEFF 		bl	disk_write
 4940              	.LVL663:
 4941 0126 40B1     		cbz	r0, .L638
 4942              	.LVL664:
 4943              	.L651:
 4944              		.loc 1 3130 0
 4945 0128 0120     		movs	r0, #1
 4946 012a E071     		strb	r0, [r4, #7]
 4947 012c 70BD     		pop	{r4, r5, r6, pc}
 4948              	.LVL665:
 4949              	.L652:
 4950              		.loc 1 3080 0
 4951 012e 7342     		negs	r3, r6
 4952 0130 1A40     		ands	r2, r2, r3
 4953              	.LVL666:
 4954 0132 A260     		str	r2, [r4, #8]
 4955              		.loc 1 3081 0
 4956 0134 AD1A     		subs	r5, r5, r2
 4957              	.LVL667:
 4958              		.loc 1 3082 0
 4959 0136 6169     		ldr	r1, [r4, #20]
 4960              	.LVL668:
 4961 0138 89E7     		b	.L617
 4962              	.LVL669:
 4963              	.L638:
 4964              		.loc 1 3126 0
 4965 013a A379     		ldrb	r3, [r4, #6]	@ zero_extendqisi2
 4966 013c 23F04003 		bic	r3, r3, #64
 4967 0140 A371     		strb	r3, [r4, #6]
 4968 0142 93E7     		b	.L637
 4969              	.LVL670:
 4970              	.L653:
 4971              		.loc 1 3087 0
 4972 0144 FFF7FEFF 		bl	create_chain
 4973              	.LVL671:
 4974              		.loc 1 3088 0
 4975 0148 0128     		cmp	r0, #1
 4976              		.loc 1 3087 0
 4977 014a 0146     		mov	r1, r0
 4978              	.LVL672:
 4979              		.loc 1 3088 0
 4980 014c B4D0     		beq	.L631
 4981              		.loc 1 3089 0
 4982 014e 421C     		adds	r2, r0, #1
 4983 0150 EAD0     		beq	.L651
ARM GAS  /tmp/ccZHgRNF.s 			page 89


 4984              		.loc 1 3090 0
 4985 0152 2061     		str	r0, [r4, #16]
 4986 0154 7AE7     		b	.L618
 4987              	.LVL673:
 4988              	.L650:
 4989 0156 E268     		ldr	r2, [r4, #12]
 4990 0158 94E7     		b	.L634
 4991              	.LVL674:
 4992              	.L644:
 4993              		.loc 1 3075 0
 4994 015a 1546     		mov	r5, r2
 4995              	.LVL675:
 4996 015c 7AE7     		b	.L622
 4997              	.LVL676:
 4998              	.L656:
 4999              		.loc 1 3100 0
 5000 015e 3546     		mov	r5, r6
 5001              	.LVL677:
 5002              	.L649:
 5003 0160 A368     		ldr	r3, [r4, #8]
 5004 0162 BFE7     		b	.L624
 5005              	.LBE329:
 5006              		.cfi_endproc
 5007              	.LFE275:
 5008              		.size	f_lseek, .-f_lseek
 5009 0164 AFF30080 		.section	.text.f_opendir,"ax",%progbits
 5009      AFF30080 
 5009      AFF30080 
 5010              		.align	2
 5011              		.p2align 4,,15
 5012              		.global	f_opendir
 5013              		.thumb
 5014              		.thumb_func
 5015              		.type	f_opendir, %function
 5016              	f_opendir:
 5017              	.LFB276:
 5018              		.loc 1 3156 0
 5019              		.cfi_startproc
 5020              		@ args = 0, pretend = 0, frame = 24
 5021              		@ frame_needed = 0, uses_anonymous_args = 0
 5022              	.LVL678:
 5023 0000 30B5     		push	{r4, r5, lr}
 5024              		.cfi_def_cfa_offset 12
 5025              		.cfi_offset 4, -12
 5026              		.cfi_offset 5, -8
 5027              		.cfi_offset 14, -4
 5028 0002 87B0     		sub	sp, sp, #28
 5029              		.cfi_def_cfa_offset 40
 5030              		.loc 1 3162 0
 5031 0004 0446     		mov	r4, r0
 5032              		.loc 1 3156 0
 5033 0006 0191     		str	r1, [sp, #4]
 5034              		.loc 1 3162 0
 5035 0008 48B1     		cbz	r0, .L665
 5036              		.loc 1 3165 0
 5037 000a 02A8     		add	r0, sp, #8
 5038              	.LVL679:
ARM GAS  /tmp/ccZHgRNF.s 			page 90


 5039 000c 01A9     		add	r1, sp, #4
 5040              	.LVL680:
 5041 000e 0022     		movs	r2, #0
 5042 0010 FFF7FEFF 		bl	find_volume
 5043              	.LVL681:
 5044              		.loc 1 3166 0
 5045 0014 30B1     		cbz	r0, .L670
 5046              	.LVL682:
 5047              	.L662:
 5048              		.loc 1 3196 0 discriminator 1
 5049 0016 0023     		movs	r3, #0
 5050 0018 2360     		str	r3, [r4]
 5051              	.LVL683:
 5052              	.L669:
 5053              		.loc 1 3199 0
 5054 001a 07B0     		add	sp, sp, #28
 5055              		@ sp needed
 5056 001c 30BD     		pop	{r4, r5, pc}
 5057              	.LVL684:
 5058              	.L665:
 5059              		.loc 1 3162 0
 5060 001e 0920     		movs	r0, #9
 5061              	.LVL685:
 5062              		.loc 1 3199 0
 5063 0020 07B0     		add	sp, sp, #28
 5064              		@ sp needed
 5065 0022 30BD     		pop	{r4, r5, pc}
 5066              	.LVL686:
 5067              	.L670:
 5068              		.loc 1 3167 0
 5069 0024 029B     		ldr	r3, [sp, #8]
 5070 0026 2360     		str	r3, [r4]
 5071              		.loc 1 3168 0
 5072 0028 03AB     		add	r3, sp, #12
 5073 002a A361     		str	r3, [r4, #24]
 5074              		.loc 1 3169 0
 5075 002c 2046     		mov	r0, r4
 5076              	.LVL687:
 5077 002e 0199     		ldr	r1, [sp, #4]
 5078 0030 FFF7FEFF 		bl	follow_path
 5079              	.LVL688:
 5080              		.loc 1 3171 0
 5081 0034 98B9     		cbnz	r0, .L660
 5082              		.loc 1 3172 0
 5083 0036 6369     		ldr	r3, [r4, #20]
 5084 0038 C3B1     		cbz	r3, .L661
 5085              		.loc 1 3173 0
 5086 003a DA7A     		ldrb	r2, [r3, #11]	@ zero_extendqisi2
 5087 003c D206     		lsls	r2, r2, #27
 5088 003e 13D5     		bpl	.L666
 5089              		.loc 1 3174 0
 5090 0040 029A     		ldr	r2, [sp, #8]
 5091              	.LVL689:
 5092              	.LBB330:
 5093              	.LBB331:
 5094              		.loc 1 1277 0
 5095 0042 DD7E     		ldrb	r5, [r3, #27]	@ zero_extendqisi2
ARM GAS  /tmp/ccZHgRNF.s 			page 91


 5096              		.loc 1 1278 0
 5097 0044 1078     		ldrb	r0, [r2]	@ zero_extendqisi2
 5098              	.LVL690:
 5099              		.loc 1 1277 0
 5100 0046 997E     		ldrb	r1, [r3, #26]	@ zero_extendqisi2
 5101              		.loc 1 1278 0
 5102 0048 0328     		cmp	r0, #3
 5103              		.loc 1 1277 0
 5104 004a 41EA0521 		orr	r1, r1, r5, lsl #8
 5105              	.LVL691:
 5106              		.loc 1 1278 0
 5107 004e 0FD0     		beq	.L671
 5108              	.LVL692:
 5109              	.L663:
 5110              	.LBE331:
 5111              	.LBE330:
 5112              		.loc 1 3174 0
 5113 0050 A160     		str	r1, [r4, #8]
 5114              	.LVL693:
 5115              	.L664:
 5116              		.loc 1 3179 0
 5117 0052 D388     		ldrh	r3, [r2, #6]
 5118 0054 A380     		strh	r3, [r4, #4]	@ movhi
 5119              		.loc 1 3180 0
 5120 0056 2046     		mov	r0, r4
 5121 0058 0021     		movs	r1, #0
 5122 005a FFF7FEFF 		bl	dir_sdi
 5123              	.LVL694:
 5124              	.L660:
 5125              		.loc 1 3194 0
 5126 005e 0428     		cmp	r0, #4
 5127 0060 02D0     		beq	.L666
 5128              		.loc 1 3196 0
 5129 0062 0028     		cmp	r0, #0
 5130 0064 D9D0     		beq	.L669
 5131 0066 D6E7     		b	.L662
 5132              	.LVL695:
 5133              	.L666:
 5134              		.loc 1 3176 0
 5135 0068 0520     		movs	r0, #5
 5136 006a D4E7     		b	.L662
 5137              	.LVL696:
 5138              	.L661:
 5139 006c 029A     		ldr	r2, [sp, #8]
 5140 006e F0E7     		b	.L664
 5141              	.LVL697:
 5142              	.L671:
 5143              	.LBB333:
 5144              	.LBB332:
 5145              		.loc 1 1279 0
 5146 0070 587D     		ldrb	r0, [r3, #21]	@ zero_extendqisi2
 5147 0072 1B7D     		ldrb	r3, [r3, #20]	@ zero_extendqisi2
 5148              	.LVL698:
 5149 0074 43EA0023 		orr	r3, r3, r0, lsl #8
 5150 0078 41EA0341 		orr	r1, r1, r3, lsl #16
 5151              	.LVL699:
 5152 007c E8E7     		b	.L663
ARM GAS  /tmp/ccZHgRNF.s 			page 92


 5153              	.LBE332:
 5154              	.LBE333:
 5155              		.cfi_endproc
 5156              	.LFE276:
 5157              		.size	f_opendir, .-f_opendir
 5158 007e 00BF     		.section	.text.f_closedir,"ax",%progbits
 5159              		.align	2
 5160              		.p2align 4,,15
 5161              		.global	f_closedir
 5162              		.thumb
 5163              		.thumb_func
 5164              		.type	f_closedir, %function
 5165              	f_closedir:
 5166              	.LFB277:
 5167              		.loc 1 3211 0
 5168              		.cfi_startproc
 5169              		@ args = 0, pretend = 0, frame = 0
 5170              		@ frame_needed = 0, uses_anonymous_args = 0
 5171              	.LVL700:
 5172 0000 10B5     		push	{r4, lr}
 5173              		.cfi_def_cfa_offset 8
 5174              		.cfi_offset 4, -8
 5175              		.cfi_offset 14, -4
 5176              		.loc 1 3211 0
 5177 0002 0446     		mov	r4, r0
 5178              		.loc 1 3215 0
 5179 0004 FFF7FEFF 		bl	validate
 5180              	.LVL701:
 5181              		.loc 1 3216 0
 5182 0008 00B9     		cbnz	r0, .L673
 5183              		.loc 1 3225 0
 5184 000a 2060     		str	r0, [r4]
 5185              	.L673:
 5186              		.loc 1 3231 0
 5187 000c 10BD     		pop	{r4, pc}
 5188              		.cfi_endproc
 5189              	.LFE277:
 5190              		.size	f_closedir, .-f_closedir
 5191 000e 00BF     		.section	.text.f_readdir,"ax",%progbits
 5192              		.align	2
 5193              		.p2align 4,,15
 5194              		.global	f_readdir
 5195              		.thumb
 5196              		.thumb_func
 5197              		.type	f_readdir, %function
 5198              	f_readdir:
 5199              	.LFB278:
 5200              		.loc 1 3244 0
 5201              		.cfi_startproc
 5202              		@ args = 0, pretend = 0, frame = 16
 5203              		@ frame_needed = 0, uses_anonymous_args = 0
 5204              	.LVL702:
 5205 0000 70B5     		push	{r4, r5, r6, lr}
 5206              		.cfi_def_cfa_offset 16
 5207              		.cfi_offset 4, -16
 5208              		.cfi_offset 5, -12
 5209              		.cfi_offset 6, -8
ARM GAS  /tmp/ccZHgRNF.s 			page 93


 5210              		.cfi_offset 14, -4
 5211 0002 84B0     		sub	sp, sp, #16
 5212              		.cfi_def_cfa_offset 32
 5213              		.loc 1 3244 0
 5214 0004 0E46     		mov	r6, r1
 5215 0006 0546     		mov	r5, r0
 5216              		.loc 1 3249 0
 5217 0008 FFF7FEFF 		bl	validate
 5218              	.LVL703:
 5219              		.loc 1 3250 0
 5220 000c 0446     		mov	r4, r0
 5221 000e 48B9     		cbnz	r0, .L675
 5222              		.loc 1 3251 0
 5223 0010 DEB1     		cbz	r6, .L681
 5224              		.loc 1 3254 0
 5225 0012 01AB     		add	r3, sp, #4
 5226 0014 AB61     		str	r3, [r5, #24]
 5227              		.loc 1 3255 0
 5228 0016 2846     		mov	r0, r5
 5229              	.LVL704:
 5230 0018 FFF7FEFF 		bl	dir_read.constprop.11
 5231              	.LVL705:
 5232              		.loc 1 3256 0
 5233 001c 0428     		cmp	r0, #4
 5234 001e 04D0     		beq	.L682
 5235              		.loc 1 3260 0
 5236 0020 C8B1     		cbz	r0, .L683
 5237              	.LVL706:
 5238              	.L680:
 5239 0022 0446     		mov	r4, r0
 5240              	.L675:
 5241              	.LVL707:
 5242              		.loc 1 3273 0
 5243 0024 2046     		mov	r0, r4
 5244 0026 04B0     		add	sp, sp, #16
 5245              		@ sp needed
 5246 0028 70BD     		pop	{r4, r5, r6, pc}
 5247              	.LVL708:
 5248              	.L682:
 5249              		.loc 1 3257 0
 5250 002a 2C61     		str	r4, [r5, #16]
 5251              	.LVL709:
 5252 002c 2046     		mov	r0, r4
 5253              	.LVL710:
 5254              	.L678:
 5255              		.loc 1 3261 0
 5256 002e 3246     		mov	r2, r6
 5257 0030 05F11401 		add	r1, r5, #20
 5258 0034 FFF7FEFF 		bl	get_fileinfo.isra.1
 5259              	.LVL711:
 5260              		.loc 1 3262 0
 5261 0038 2846     		mov	r0, r5
 5262 003a 0021     		movs	r1, #0
 5263 003c FFF7FEFF 		bl	dir_next
 5264              	.LVL712:
 5265              		.loc 1 3263 0
 5266 0040 0428     		cmp	r0, #4
ARM GAS  /tmp/ccZHgRNF.s 			page 94


 5267 0042 EED1     		bne	.L680
 5268              		.loc 1 3264 0
 5269 0044 0023     		movs	r3, #0
 5270 0046 2B61     		str	r3, [r5, #16]
 5271              	.LVL713:
 5272 0048 ECE7     		b	.L675
 5273              	.LVL714:
 5274              	.L681:
 5275              		.loc 1 3252 0
 5276 004a 2146     		mov	r1, r4
 5277 004c 2846     		mov	r0, r5
 5278              	.LVL715:
 5279 004e FFF7FEFF 		bl	dir_sdi
 5280              	.LVL716:
 5281 0052 0446     		mov	r4, r0
 5282              	.LVL717:
 5283 0054 E6E7     		b	.L675
 5284              	.L683:
 5285 0056 2869     		ldr	r0, [r5, #16]
 5286              	.LVL718:
 5287 0058 E9E7     		b	.L678
 5288              		.cfi_endproc
 5289              	.LFE278:
 5290              		.size	f_readdir, .-f_readdir
 5291 005a 00BFAFF3 		.section	.text.f_stat,"ax",%progbits
 5291      0080
 5292              		.align	2
 5293              		.p2align 4,,15
 5294              		.global	f_stat
 5295              		.thumb
 5296              		.thumb_func
 5297              		.type	f_stat, %function
 5298              	f_stat:
 5299              	.LFB279:
 5300              		.loc 1 3286 0
 5301              		.cfi_startproc
 5302              		@ args = 0, pretend = 0, frame = 48
 5303              		@ frame_needed = 0, uses_anonymous_args = 0
 5304              	.LVL719:
 5305 0000 30B5     		push	{r4, r5, lr}
 5306              		.cfi_def_cfa_offset 12
 5307              		.cfi_offset 4, -12
 5308              		.cfi_offset 5, -8
 5309              		.cfi_offset 14, -4
 5310 0002 8DB0     		sub	sp, sp, #52
 5311              		.cfi_def_cfa_offset 64
 5312              		.loc 1 3286 0
 5313 0004 0D46     		mov	r5, r1
 5314 0006 0190     		str	r0, [sp, #4]
 5315              		.loc 1 3293 0
 5316 0008 01A9     		add	r1, sp, #4
 5317              	.LVL720:
 5318 000a 05A8     		add	r0, sp, #20
 5319              	.LVL721:
 5320 000c 0022     		movs	r2, #0
 5321 000e FFF7FEFF 		bl	find_volume
 5322              	.LVL722:
ARM GAS  /tmp/ccZHgRNF.s 			page 95


 5323              		.loc 1 3294 0
 5324 0012 0446     		mov	r4, r0
 5325 0014 10B1     		cbz	r0, .L690
 5326              	.L685:
 5327              	.LVL723:
 5328              		.loc 1 3308 0
 5329 0016 2046     		mov	r0, r4
 5330 0018 0DB0     		add	sp, sp, #52
 5331              		@ sp needed
 5332 001a 30BD     		pop	{r4, r5, pc}
 5333              	.LVL724:
 5334              	.L690:
 5335              		.loc 1 3295 0
 5336 001c 02AB     		add	r3, sp, #8
 5337              		.loc 1 3296 0
 5338 001e 05A8     		add	r0, sp, #20
 5339              	.LVL725:
 5340 0020 0199     		ldr	r1, [sp, #4]
 5341              		.loc 1 3295 0
 5342 0022 0B93     		str	r3, [sp, #44]
 5343              		.loc 1 3296 0
 5344 0024 FFF7FEFF 		bl	follow_path
 5345              	.LVL726:
 5346              		.loc 1 3297 0
 5347 0028 0446     		mov	r4, r0
 5348 002a 0028     		cmp	r0, #0
 5349 002c F3D1     		bne	.L685
 5350              		.loc 1 3298 0
 5351 002e 0A9B     		ldr	r3, [sp, #40]
 5352 0030 4BB1     		cbz	r3, .L686
 5353              		.loc 1 3299 0
 5354 0032 002D     		cmp	r5, #0
 5355 0034 EFD0     		beq	.L685
 5356              		.loc 1 3299 0 is_stmt 0 discriminator 1
 5357 0036 0998     		ldr	r0, [sp, #36]
 5358              	.LVL727:
 5359 0038 2A46     		mov	r2, r5
 5360 003a 0AA9     		add	r1, sp, #40
 5361 003c FFF7FEFF 		bl	get_fileinfo.isra.1
 5362              	.LVL728:
 5363              		.loc 1 3308 0 is_stmt 1 discriminator 1
 5364 0040 2046     		mov	r0, r4
 5365 0042 0DB0     		add	sp, sp, #52
 5366              		@ sp needed
 5367 0044 30BD     		pop	{r4, r5, pc}
 5368              	.LVL729:
 5369              	.L686:
 5370              		.loc 1 3301 0
 5371 0046 0624     		movs	r4, #6
 5372 0048 E5E7     		b	.L685
 5373              		.cfi_endproc
 5374              	.LFE279:
 5375              		.size	f_stat, .-f_stat
 5376 004a 00BFAFF3 		.section	.text.f_getfree,"ax",%progbits
 5376      0080
 5377              		.align	2
 5378              		.p2align 4,,15
ARM GAS  /tmp/ccZHgRNF.s 			page 96


 5379              		.global	f_getfree
 5380              		.thumb
 5381              		.thumb_func
 5382              		.type	f_getfree, %function
 5383              	f_getfree:
 5384              	.LFB280:
 5385              		.loc 1 3322 0
 5386              		.cfi_startproc
 5387              		@ args = 0, pretend = 0, frame = 8
 5388              		@ frame_needed = 0, uses_anonymous_args = 0
 5389              	.LVL730:
 5390 0000 2DE9F04F 		push	{r4, r5, r6, r7, r8, r9, r10, fp, lr}
 5391              		.cfi_def_cfa_offset 36
 5392              		.cfi_offset 4, -36
 5393              		.cfi_offset 5, -32
 5394              		.cfi_offset 6, -28
 5395              		.cfi_offset 7, -24
 5396              		.cfi_offset 8, -20
 5397              		.cfi_offset 9, -16
 5398              		.cfi_offset 10, -12
 5399              		.cfi_offset 11, -8
 5400              		.cfi_offset 14, -4
 5401 0004 83B0     		sub	sp, sp, #12
 5402              		.cfi_def_cfa_offset 48
 5403              		.loc 1 3322 0
 5404 0006 02AB     		add	r3, sp, #8
 5405 0008 1446     		mov	r4, r2
 5406 000a 43F8040D 		str	r0, [r3, #-4]!
 5407 000e 8846     		mov	r8, r1
 5408              		.loc 1 3331 0
 5409 0010 1046     		mov	r0, r2
 5410              	.LVL731:
 5411 0012 1946     		mov	r1, r3
 5412              	.LVL732:
 5413 0014 0022     		movs	r2, #0
 5414              	.LVL733:
 5415 0016 FFF7FEFF 		bl	find_volume
 5416              	.LVL734:
 5417              		.loc 1 3332 0
 5418 001a 2568     		ldr	r5, [r4]
 5419              	.LVL735:
 5420              		.loc 1 3333 0
 5421 001c 8246     		mov	r10, r0
 5422 001e 60BB     		cbnz	r0, .L713
 5423              		.loc 1 3335 0
 5424 0020 6C69     		ldr	r4, [r5, #20]
 5425              	.LVL736:
 5426 0022 2B69     		ldr	r3, [r5, #16]
 5427 0024 A21E     		subs	r2, r4, #2
 5428 0026 9342     		cmp	r3, r2
 5429 0028 2BD9     		bls	.L717
 5430              		.loc 1 3339 0
 5431 002a 95F80090 		ldrb	r9, [r5]	@ zero_extendqisi2
 5432              	.LVL737:
 5433              		.loc 1 3341 0
 5434 002e B9F1010F 		cmp	r9, #1
 5435 0032 44D0     		beq	.L718
ARM GAS  /tmp/ccZHgRNF.s 			page 97


 5436              	.LVL738:
 5437              		.loc 1 3351 0
 5438 0034 D5F820C0 		ldr	ip, [r5, #32]
 5439              	.LVL739:
 5440              		.loc 1 3352 0
 5441 0038 0346     		mov	r3, r0
 5442 003a 0246     		mov	r2, r0
 5443              		.loc 1 3340 0
 5444 003c 0646     		mov	r6, r0
 5445              	.LVL740:
 5446              	.L706:
 5447              		.loc 1 3354 0
 5448 003e 32B3     		cbz	r2, .L719
 5449              		.loc 1 3360 0
 5450 0040 B9F1020F 		cmp	r9, #2
 5451 0044 32D0     		beq	.L720
 5452              	.L702:
 5453              		.loc 1 3364 0
 5454 0046 9F78     		ldrb	r7, [r3, #2]	@ zero_extendqisi2
 5455 0048 93F803B0 		ldrb	fp, [r3, #3]	@ zero_extendqisi2
 5456 004c 1878     		ldrb	r0, [r3]	@ zero_extendqisi2
 5457 004e 5978     		ldrb	r1, [r3, #1]	@ zero_extendqisi2
 5458 0050 3F04     		lsls	r7, r7, #16
 5459 0052 47EA0B67 		orr	r7, r7, fp, lsl #24
 5460 0056 0743     		orrs	r7, r7, r0
 5461 0058 47EA0127 		orr	r7, r7, r1, lsl #8
 5462 005c 27F07047 		bic	r7, r7, #-268435456
 5463 0060 07B9     		cbnz	r7, .L705
 5464              		.loc 1 3364 0 is_stmt 0 discriminator 1
 5465 0062 0136     		adds	r6, r6, #1
 5466              	.LVL741:
 5467              	.L705:
 5468              		.loc 1 3365 0 is_stmt 1
 5469 0064 0433     		adds	r3, r3, #4
 5470              	.LVL742:
 5471 0066 043A     		subs	r2, r2, #4
 5472              	.LVL743:
 5473              	.L704:
 5474              		.loc 1 3367 0
 5475 0068 013C     		subs	r4, r4, #1
 5476              	.LVL744:
 5477 006a E8D1     		bne	.L706
 5478              	.LVL745:
 5479              	.L698:
 5480              		.loc 1 3370 0
 5481 006c 6B79     		ldrb	r3, [r5, #5]	@ zero_extendqisi2
 5482              		.loc 1 3369 0
 5483 006e 2E61     		str	r6, [r5, #16]
 5484              		.loc 1 3370 0
 5485 0070 43F00103 		orr	r3, r3, #1
 5486 0074 6B71     		strb	r3, [r5, #5]
 5487              		.loc 1 3371 0
 5488 0076 C8F80060 		str	r6, [r8]
 5489              	.LVL746:
 5490              	.L713:
 5491              		.loc 1 3375 0
 5492 007a 5046     		mov	r0, r10
ARM GAS  /tmp/ccZHgRNF.s 			page 98


 5493 007c 03B0     		add	sp, sp, #12
 5494              		@ sp needed
 5495 007e BDE8F08F 		pop	{r4, r5, r6, r7, r8, r9, r10, fp, pc}
 5496              	.LVL747:
 5497              	.L717:
 5498 0082 5046     		mov	r0, r10
 5499              	.LVL748:
 5500              		.loc 1 3336 0
 5501 0084 C8F80030 		str	r3, [r8]
 5502              		.loc 1 3375 0
 5503 0088 03B0     		add	sp, sp, #12
 5504              		@ sp needed
 5505 008a BDE8F08F 		pop	{r4, r5, r6, r7, r8, r9, r10, fp, pc}
 5506              	.LVL749:
 5507              	.L719:
 5508              		.loc 1 3355 0
 5509 008e 2846     		mov	r0, r5
 5510 0090 6146     		mov	r1, ip
 5511 0092 0CF10107 		add	r7, ip, #1
 5512              	.LVL750:
 5513 0096 FFF7FEFF 		bl	move_window
 5514              	.LVL751:
 5515              		.loc 1 3356 0
 5516 009a B8B9     		cbnz	r0, .L711
 5517              	.LVL752:
 5518              		.loc 1 3360 0
 5519 009c B9F1020F 		cmp	r9, #2
 5520              		.loc 1 3355 0
 5521 00a0 BC46     		mov	ip, r7
 5522              		.loc 1 3357 0
 5523 00a2 05F13003 		add	r3, r5, #48
 5524              	.LVL753:
 5525              		.loc 1 3358 0
 5526 00a6 4FF40072 		mov	r2, #512
 5527              	.LVL754:
 5528              		.loc 1 3360 0
 5529 00aa CCD1     		bne	.L702
 5530              	.LVL755:
 5531              	.L720:
 5532              		.loc 1 3361 0
 5533 00ac 5878     		ldrb	r0, [r3, #1]	@ zero_extendqisi2
 5534 00ae 1978     		ldrb	r1, [r3]	@ zero_extendqisi2
 5535 00b0 51EA0021 		orrs	r1, r1, r0, lsl #8
 5536 00b4 08BF     		it	eq
 5537 00b6 0136     		addeq	r6, r6, #1
 5538              	.LVL756:
 5539              		.loc 1 3362 0
 5540 00b8 0233     		adds	r3, r3, #2
 5541              	.LVL757:
 5542 00ba 023A     		subs	r2, r2, #2
 5543              	.LVL758:
 5544 00bc D4E7     		b	.L704
 5545              	.LVL759:
 5546              	.L718:
 5547              	.LBB334:
 5548              	.LBB335:
 5549              		.loc 1 874 0
ARM GAS  /tmp/ccZHgRNF.s 			page 99


 5550 00be 022C     		cmp	r4, #2
 5551 00c0 98BF     		it	ls
 5552 00c2 0646     		movls	r6, r0
 5553 00c4 04D8     		bhi	.L721
 5554              	.LVL760:
 5555              	.L696:
 5556              	.LBE335:
 5557              	.LBE334:
 5558              		.loc 1 3346 0
 5559 00c6 4FF0020A 		mov	r10, #2
 5560 00ca CFE7     		b	.L698
 5561              	.LVL761:
 5562              	.L711:
 5563              		.loc 1 3355 0
 5564 00cc 8246     		mov	r10, r0
 5565 00ce CDE7     		b	.L698
 5566              	.LVL762:
 5567              	.L721:
 5568              	.LBB338:
 5569              	.LBB336:
 5570              		.loc 1 874 0
 5571 00d0 0224     		movs	r4, #2
 5572 00d2 0646     		mov	r6, r0
 5573 00d4 08E0     		b	.L707
 5574              	.LVL763:
 5575              	.L722:
 5576              	.LBE336:
 5577              	.LBE338:
 5578              		.loc 1 3346 0
 5579 00d6 0128     		cmp	r0, #1
 5580 00d8 F5D0     		beq	.L696
 5581              		.loc 1 3347 0
 5582 00da 00B9     		cbnz	r0, .L699
 5583              		.loc 1 3347 0 is_stmt 0 discriminator 1
 5584 00dc 0136     		adds	r6, r6, #1
 5585              	.LVL764:
 5586              	.L699:
 5587              		.loc 1 3348 0 is_stmt 1
 5588 00de 6B69     		ldr	r3, [r5, #20]
 5589 00e0 9C42     		cmp	r4, r3
 5590 00e2 C3D2     		bcs	.L698
 5591              	.LBB339:
 5592              	.LBB337:
 5593              		.loc 1 874 0
 5594 00e4 012C     		cmp	r4, #1
 5595 00e6 EED9     		bls	.L696
 5596              	.LVL765:
 5597              	.L707:
 5598 00e8 2146     		mov	r1, r4
 5599 00ea 2846     		mov	r0, r5
 5600 00ec FFF7FEFF 		bl	get_fat.part.6
 5601              	.LVL766:
 5602              	.LBE337:
 5603              	.LBE339:
 5604              		.loc 1 3345 0
 5605 00f0 431C     		adds	r3, r0, #1
 5606              		.loc 1 3348 0
ARM GAS  /tmp/ccZHgRNF.s 			page 100


 5607 00f2 04F10104 		add	r4, r4, #1
 5608              	.LVL767:
 5609              		.loc 1 3345 0
 5610 00f6 EED1     		bne	.L722
 5611 00f8 4FF0010A 		mov	r10, #1
 5612 00fc B6E7     		b	.L698
 5613              		.cfi_endproc
 5614              	.LFE280:
 5615              		.size	f_getfree, .-f_getfree
 5616 00fe 00BF     		.section	.text.f_truncate,"ax",%progbits
 5617              		.align	2
 5618              		.p2align 4,,15
 5619              		.global	f_truncate
 5620              		.thumb
 5621              		.thumb_func
 5622              		.type	f_truncate, %function
 5623              	f_truncate:
 5624              	.LFB281:
 5625              		.loc 1 3387 0
 5626              		.cfi_startproc
 5627              		@ args = 0, pretend = 0, frame = 0
 5628              		@ frame_needed = 0, uses_anonymous_args = 0
 5629              	.LVL768:
 5630 0000 70B5     		push	{r4, r5, r6, lr}
 5631              		.cfi_def_cfa_offset 16
 5632              		.cfi_offset 4, -16
 5633              		.cfi_offset 5, -12
 5634              		.cfi_offset 6, -8
 5635              		.cfi_offset 14, -4
 5636              		.loc 1 3387 0
 5637 0002 0546     		mov	r5, r0
 5638              		.loc 1 3392 0
 5639 0004 FFF7FEFF 		bl	validate
 5640              	.LVL769:
 5641              		.loc 1 3393 0
 5642 0008 0446     		mov	r4, r0
 5643 000a 10B9     		cbnz	r0, .L751
 5644              		.loc 1 3394 0
 5645 000c EB79     		ldrb	r3, [r5, #7]	@ zero_extendqisi2
 5646 000e 13B1     		cbz	r3, .L758
 5647 0010 1C46     		mov	r4, r3
 5648              	.LVL770:
 5649              	.L751:
 5650              		.loc 1 3431 0
 5651 0012 2046     		mov	r0, r4
 5652 0014 70BD     		pop	{r4, r5, r6, pc}
 5653              	.LVL771:
 5654              	.L758:
 5655              		.loc 1 3397 0
 5656 0016 AA79     		ldrb	r2, [r5, #6]	@ zero_extendqisi2
 5657 0018 9107     		lsls	r1, r2, #30
 5658 001a 24D5     		bpl	.L742
 5659              	.LVL772:
 5660              		.loc 1 3402 0
 5661 001c AB68     		ldr	r3, [r5, #8]
 5662 001e E968     		ldr	r1, [r5, #12]
 5663 0020 9942     		cmp	r1, r3
ARM GAS  /tmp/ccZHgRNF.s 			page 101


 5664 0022 F6D9     		bls	.L751
 5665              		.loc 1 3404 0
 5666 0024 42F02002 		orr	r2, r2, #32
 5667 0028 AA71     		strb	r2, [r5, #6]
 5668              		.loc 1 3403 0
 5669 002a EB60     		str	r3, [r5, #12]
 5670              		.loc 1 3405 0
 5671 002c F3B9     		cbnz	r3, .L726
 5672              		.loc 1 3406 0
 5673 002e 2969     		ldr	r1, [r5, #16]
 5674 0030 2868     		ldr	r0, [r5]
 5675              	.LVL773:
 5676              	.LBB340:
 5677              	.LBB341:
 5678              		.loc 1 985 0
 5679 0032 0129     		cmp	r1, #1
 5680 0034 02D9     		bls	.L744
 5681 0036 4369     		ldr	r3, [r0, #20]
 5682 0038 9942     		cmp	r1, r3
 5683 003a 28D3     		bcc	.L759
 5684              	.L744:
 5685              		.loc 1 986 0
 5686 003c 0220     		movs	r0, #2
 5687              	.LVL774:
 5688              	.L727:
 5689              	.LBE341:
 5690              	.LBE340:
 5691              		.loc 1 3407 0
 5692 003e 0023     		movs	r3, #0
 5693 0040 2B61     		str	r3, [r5, #16]
 5694              	.LVL775:
 5695              	.L728:
 5696              		.loc 1 3419 0
 5697 0042 08BB     		cbnz	r0, .L747
 5698              	.LVL776:
 5699              	.L740:
 5700 0044 AB79     		ldrb	r3, [r5, #6]	@ zero_extendqisi2
 5701 0046 5B06     		lsls	r3, r3, #25
 5702 0048 E3D5     		bpl	.L751
 5703              		.loc 1 3420 0
 5704 004a 2946     		mov	r1, r5
 5705 004c AA69     		ldr	r2, [r5, #24]
 5706 004e 51F8240B 		ldr	r0, [r1], #36
 5707 0052 0123     		movs	r3, #1
 5708 0054 4078     		ldrb	r0, [r0, #1]	@ zero_extendqisi2
 5709 0056 FFF7FEFF 		bl	disk_write
 5710              	.LVL777:
 5711 005a 90B9     		cbnz	r0, .L748
 5712              		.loc 1 3423 0
 5713 005c AB79     		ldrb	r3, [r5, #6]	@ zero_extendqisi2
 5714 005e 23F04003 		bic	r3, r3, #64
 5715 0062 AB71     		strb	r3, [r5, #6]
 5716 0064 D5E7     		b	.L751
 5717              	.LVL778:
 5718              	.L742:
 5719              		.loc 1 3398 0
 5720 0066 0724     		movs	r4, #7
ARM GAS  /tmp/ccZHgRNF.s 			page 102


 5721              	.LVL779:
 5722              		.loc 1 3431 0
 5723 0068 2046     		mov	r0, r4
 5724 006a 70BD     		pop	{r4, r5, r6, pc}
 5725              	.LVL780:
 5726              	.L726:
 5727              		.loc 1 3409 0
 5728 006c 6969     		ldr	r1, [r5, #20]
 5729 006e 2868     		ldr	r0, [r5]
 5730              	.LVL781:
 5731              	.LBB343:
 5732              	.LBB344:
 5733              		.loc 1 874 0
 5734 0070 0129     		cmp	r1, #1
 5735 0072 02D9     		bls	.L729
 5736 0074 4369     		ldr	r3, [r0, #20]
 5737 0076 9942     		cmp	r1, r3
 5738 0078 0CD3     		bcc	.L760
 5739              	.LVL782:
 5740              	.L729:
 5741              	.LBE344:
 5742              	.LBE343:
 5743              		.loc 1 3412 0
 5744 007a 0224     		movs	r4, #2
 5745              	.LVL783:
 5746              		.loc 1 3427 0
 5747 007c EC71     		strb	r4, [r5, #7]
 5748              	.LVL784:
 5749              	.L761:
 5750              		.loc 1 3431 0
 5751 007e 2046     		mov	r0, r4
 5752 0080 70BD     		pop	{r4, r5, r6, pc}
 5753              	.LVL785:
 5754              	.L748:
 5755              		.loc 1 3421 0
 5756 0082 0124     		movs	r4, #1
 5757              	.LVL786:
 5758              		.loc 1 3427 0
 5759 0084 EC71     		strb	r4, [r5, #7]
 5760 0086 FAE7     		b	.L761
 5761              	.LVL787:
 5762              	.L747:
 5763 0088 0446     		mov	r4, r0
 5764              	.LVL788:
 5765 008a EC71     		strb	r4, [r5, #7]
 5766 008c F7E7     		b	.L761
 5767              	.LVL789:
 5768              	.L759:
 5769              	.LBB347:
 5770              	.LBB342:
 5771 008e FFF7FEFF 		bl	remove_chain.part.10
 5772              	.LVL790:
 5773 0092 D4E7     		b	.L727
 5774              	.LVL791:
 5775              	.L760:
 5776              	.LBE342:
 5777              	.LBE347:
ARM GAS  /tmp/ccZHgRNF.s 			page 103


 5778              	.LBB348:
 5779              	.LBB345:
 5780 0094 FFF7FEFF 		bl	get_fat.part.6
 5781              	.LVL792:
 5782              	.LBE345:
 5783              	.LBE348:
 5784              		.loc 1 3411 0
 5785 0098 421C     		adds	r2, r0, #1
 5786              	.LBB349:
 5787              	.LBB346:
 5788 009a 0646     		mov	r6, r0
 5789              	.LBE346:
 5790              	.LBE349:
 5791 009c F1D0     		beq	.L748
 5792              		.loc 1 3412 0
 5793 009e 0128     		cmp	r0, #1
 5794 00a0 EBD0     		beq	.L729
 5795              		.loc 1 3413 0
 5796 00a2 2868     		ldr	r0, [r5]
 5797 00a4 4369     		ldr	r3, [r0, #20]
 5798 00a6 B342     		cmp	r3, r6
 5799 00a8 CCD9     		bls	.L740
 5800              		.loc 1 3414 0
 5801 00aa 6969     		ldr	r1, [r5, #20]
 5802              	.LVL793:
 5803              	.LBB350:
 5804              	.LBB351:
 5805              		.loc 1 922 0
 5806 00ac 0129     		cmp	r1, #1
 5807 00ae E4D9     		bls	.L729
 5808 00b0 8B42     		cmp	r3, r1
 5809 00b2 E2D9     		bls	.L729
 5810 00b4 6FF07042 		mvn	r2, #-268435456
 5811 00b8 FFF7FEFF 		bl	put_fat.part.8
 5812              	.LVL794:
 5813              	.LBE351:
 5814              	.LBE350:
 5815              		.loc 1 3415 0
 5816 00bc 0028     		cmp	r0, #0
 5817 00be E3D1     		bne	.L747
 5818              	.LBB352:
 5819              	.LBB353:
 5820              		.loc 1 985 0 discriminator 1
 5821 00c0 012E     		cmp	r6, #1
 5822              	.LBE353:
 5823              	.LBE352:
 5824              		.loc 1 3415 0 discriminator 1
 5825 00c2 2868     		ldr	r0, [r5]
 5826              	.LVL795:
 5827              	.LBB355:
 5828              	.LBB354:
 5829              		.loc 1 985 0 discriminator 1
 5830 00c4 D9D9     		bls	.L729
 5831              		.loc 1 985 0 is_stmt 0
 5832 00c6 4369     		ldr	r3, [r0, #20]
 5833 00c8 9E42     		cmp	r6, r3
 5834 00ca D6D2     		bcs	.L729
ARM GAS  /tmp/ccZHgRNF.s 			page 104


 5835 00cc 3146     		mov	r1, r6
 5836 00ce FFF7FEFF 		bl	remove_chain.part.10
 5837              	.LVL796:
 5838 00d2 B6E7     		b	.L728
 5839              	.LBE354:
 5840              	.LBE355:
 5841              		.cfi_endproc
 5842              	.LFE281:
 5843              		.size	f_truncate, .-f_truncate
 5844 00d4 AFF30080 		.section	.text.f_unlink,"ax",%progbits
 5844      AFF30080 
 5844      AFF30080 
 5845              		.align	2
 5846              		.p2align 4,,15
 5847              		.global	f_unlink
 5848              		.thumb
 5849              		.thumb_func
 5850              		.type	f_unlink, %function
 5851              	f_unlink:
 5852              	.LFB282:
 5853              		.loc 1 3443 0 is_stmt 1
 5854              		.cfi_startproc
 5855              		@ args = 0, pretend = 0, frame = 80
 5856              		@ frame_needed = 0, uses_anonymous_args = 0
 5857              	.LVL797:
 5858 0000 30B5     		push	{r4, r5, lr}
 5859              		.cfi_def_cfa_offset 12
 5860              		.cfi_offset 4, -12
 5861              		.cfi_offset 5, -8
 5862              		.cfi_offset 14, -4
 5863 0002 95B0     		sub	sp, sp, #84
 5864              		.cfi_def_cfa_offset 96
 5865              		.loc 1 3452 0
 5866 0004 01A9     		add	r1, sp, #4
 5867              		.loc 1 3443 0
 5868 0006 0190     		str	r0, [sp, #4]
 5869              		.loc 1 3452 0
 5870 0008 0122     		movs	r2, #1
 5871 000a 06A8     		add	r0, sp, #24
 5872              	.LVL798:
 5873 000c FFF7FEFF 		bl	find_volume
 5874              	.LVL799:
 5875              		.loc 1 3453 0
 5876 0010 08B1     		cbz	r0, .L790
 5877              	.LVL800:
 5878              	.L782:
 5879              		.loc 1 3501 0
 5880 0012 15B0     		add	sp, sp, #84
 5881              		@ sp needed
 5882 0014 30BD     		pop	{r4, r5, pc}
 5883              	.LVL801:
 5884              	.L790:
 5885              		.loc 1 3454 0
 5886 0016 03AB     		add	r3, sp, #12
 5887              		.loc 1 3455 0
 5888 0018 06A8     		add	r0, sp, #24
 5889              	.LVL802:
ARM GAS  /tmp/ccZHgRNF.s 			page 105


 5890 001a 0199     		ldr	r1, [sp, #4]
 5891              		.loc 1 3454 0
 5892 001c 0C93     		str	r3, [sp, #48]
 5893              		.loc 1 3455 0
 5894 001e FFF7FEFF 		bl	follow_path
 5895              	.LVL803:
 5896              		.loc 1 3461 0
 5897 0022 0028     		cmp	r0, #0
 5898 0024 F5D1     		bne	.L782
 5899              		.loc 1 3462 0
 5900 0026 0B9B     		ldr	r3, [sp, #44]
 5901              	.LVL804:
 5902              		.loc 1 3463 0
 5903 0028 002B     		cmp	r3, #0
 5904 002a 4AD0     		beq	.L773
 5905              		.loc 1 3466 0
 5906 002c DA7A     		ldrb	r2, [r3, #11]	@ zero_extendqisi2
 5907              		.loc 1 3467 0
 5908 002e 12F0010F 		tst	r2, #1
 5909 0032 0CBF     		ite	eq
 5910 0034 0020     		moveq	r0, #0
 5911 0036 0720     		movne	r0, #7
 5912              	.LVL805:
 5913              	.L764:
 5914              		.loc 1 3469 0
 5915 0038 069A     		ldr	r2, [sp, #24]
 5916              	.LBB356:
 5917              	.LBB357:
 5918              		.loc 1 1277 0
 5919 003a DD7E     		ldrb	r5, [r3, #27]	@ zero_extendqisi2
 5920              		.loc 1 1278 0
 5921 003c 1278     		ldrb	r2, [r2]	@ zero_extendqisi2
 5922              		.loc 1 1277 0
 5923 003e 997E     		ldrb	r1, [r3, #26]	@ zero_extendqisi2
 5924              		.loc 1 1278 0
 5925 0040 032A     		cmp	r2, #3
 5926              		.loc 1 1277 0
 5927 0042 41EA0525 		orr	r5, r1, r5, lsl #8
 5928              	.LVL806:
 5929              		.loc 1 1278 0
 5930 0046 2AD0     		beq	.L791
 5931              	.LBE357:
 5932              	.LBE356:
 5933              		.loc 1 3470 0
 5934 0048 0028     		cmp	r0, #0
 5935 004a E2D1     		bne	.L782
 5936              	.L793:
 5937              		.loc 1 3470 0 is_stmt 0 discriminator 1
 5938 004c DB7A     		ldrb	r3, [r3, #11]	@ zero_extendqisi2
 5939              	.LVL807:
 5940 004e DB06     		lsls	r3, r3, #27
 5941 0050 17D5     		bpl	.L767
 5942              		.loc 1 3471 0 is_stmt 1
 5943 0052 012D     		cmp	r5, #1
 5944 0054 21D9     		bls	.L775
 5945 0056 0DA8     		add	r0, sp, #52
 5946              	.LVL808:
ARM GAS  /tmp/ccZHgRNF.s 			page 106


 5947 0058 0346     		mov	r3, r0
 5948 005a 06AC     		add	r4, sp, #24
 5949              	.LVL809:
 5950              	.L769:
 5951              	.LBB359:
 5952              	.LBB360:
 5953              		.loc 1 574 0
 5954 005c 14F8012B 		ldrb	r2, [r4], #1	@ zero_extendqisi2
 5955              	.LVL810:
 5956 0060 03F8012B 		strb	r2, [r3], #1
 5957              	.LVL811:
 5958              		.loc 1 573 0
 5959 0064 8442     		cmp	r4, r0
 5960 0066 F9D1     		bne	.L769
 5961              	.LBE360:
 5962              	.LBE359:
 5963              		.loc 1 3476 0
 5964 0068 2046     		mov	r0, r4
 5965 006a 0221     		movs	r1, #2
 5966              		.loc 1 3475 0
 5967 006c 0F95     		str	r5, [sp, #60]
 5968              		.loc 1 3476 0
 5969 006e FFF7FEFF 		bl	dir_sdi
 5970              	.LVL812:
 5971              		.loc 1 3477 0
 5972 0072 0028     		cmp	r0, #0
 5973 0074 CDD1     		bne	.L782
 5974              		.loc 1 3478 0
 5975 0076 2046     		mov	r0, r4
 5976              	.LVL813:
 5977 0078 FFF7FEFF 		bl	dir_read.constprop.11
 5978              	.LVL814:
 5979              		.loc 1 3479 0
 5980 007c 18B3     		cbz	r0, .L776
 5981              		.loc 1 3484 0
 5982 007e 0428     		cmp	r0, #4
 5983 0080 C7D1     		bne	.L782
 5984              	.LVL815:
 5985              	.L767:
 5986              		.loc 1 3489 0
 5987 0082 06A8     		add	r0, sp, #24
 5988 0084 FFF7FEFF 		bl	dir_remove
 5989              	.LVL816:
 5990              		.loc 1 3490 0
 5991 0088 0028     		cmp	r0, #0
 5992 008a C2D1     		bne	.L782
 5993              		.loc 1 3491 0
 5994 008c ADB1     		cbz	r5, .L771
 5995              	.LBB361:
 5996              	.LBB362:
 5997              		.loc 1 985 0
 5998 008e 012D     		cmp	r5, #1
 5999              	.LBE362:
 6000              	.LBE361:
 6001              		.loc 1 3492 0
 6002 0090 0698     		ldr	r0, [sp, #24]
 6003              	.LVL817:
ARM GAS  /tmp/ccZHgRNF.s 			page 107


 6004              	.LBB365:
 6005              	.LBB363:
 6006              		.loc 1 985 0
 6007 0092 02D9     		bls	.L775
 6008 0094 4369     		ldr	r3, [r0, #20]
 6009 0096 9D42     		cmp	r5, r3
 6010 0098 0AD3     		bcc	.L792
 6011              	.LVL818:
 6012              	.L775:
 6013              	.LBE363:
 6014              	.LBE365:
 6015              		.loc 1 3472 0
 6016 009a 0220     		movs	r0, #2
 6017 009c B9E7     		b	.L782
 6018              	.LVL819:
 6019              	.L791:
 6020              	.LBB366:
 6021              	.LBB358:
 6022              		.loc 1 1279 0
 6023 009e 597D     		ldrb	r1, [r3, #21]	@ zero_extendqisi2
 6024 00a0 1A7D     		ldrb	r2, [r3, #20]	@ zero_extendqisi2
 6025 00a2 42EA0122 		orr	r2, r2, r1, lsl #8
 6026 00a6 45EA0245 		orr	r5, r5, r2, lsl #16
 6027              	.LVL820:
 6028              	.LBE358:
 6029              	.LBE366:
 6030              		.loc 1 3470 0
 6031 00aa 0028     		cmp	r0, #0
 6032 00ac B1D1     		bne	.L782
 6033 00ae CDE7     		b	.L793
 6034              	.LVL821:
 6035              	.L792:
 6036              	.LBB367:
 6037              	.LBB364:
 6038 00b0 2946     		mov	r1, r5
 6039 00b2 FFF7FEFF 		bl	remove_chain.part.10
 6040              	.LVL822:
 6041              	.LBE364:
 6042              	.LBE367:
 6043              		.loc 1 3493 0
 6044 00b6 0028     		cmp	r0, #0
 6045 00b8 ABD1     		bne	.L782
 6046              	.LVL823:
 6047              	.L771:
 6048 00ba 0698     		ldr	r0, [sp, #24]
 6049 00bc FFF7FEFF 		bl	sync_fs
 6050              	.LVL824:
 6051 00c0 A7E7     		b	.L782
 6052              	.LVL825:
 6053              	.L773:
 6054              		.loc 1 3464 0
 6055 00c2 0620     		movs	r0, #6
 6056              	.LVL826:
 6057 00c4 B8E7     		b	.L764
 6058              	.LVL827:
 6059              	.L776:
 6060              		.loc 1 3483 0
ARM GAS  /tmp/ccZHgRNF.s 			page 108


 6061 00c6 0720     		movs	r0, #7
 6062              	.LVL828:
 6063 00c8 A3E7     		b	.L782
 6064              		.cfi_endproc
 6065              	.LFE282:
 6066              		.size	f_unlink, .-f_unlink
 6067 00ca 00BFAFF3 		.section	.text.f_mkdir,"ax",%progbits
 6067      0080
 6068              		.align	2
 6069              		.p2align 4,,15
 6070              		.global	f_mkdir
 6071              		.thumb
 6072              		.thumb_func
 6073              		.type	f_mkdir, %function
 6074              	f_mkdir:
 6075              	.LFB283:
 6076              		.loc 1 3513 0
 6077              		.cfi_startproc
 6078              		@ args = 0, pretend = 0, frame = 80
 6079              		@ frame_needed = 0, uses_anonymous_args = 0
 6080              	.LVL829:
 6081 0000 2DE9F04F 		push	{r4, r5, r6, r7, r8, r9, r10, fp, lr}
 6082              		.cfi_def_cfa_offset 36
 6083              		.cfi_offset 4, -36
 6084              		.cfi_offset 5, -32
 6085              		.cfi_offset 6, -28
 6086              		.cfi_offset 7, -24
 6087              		.cfi_offset 8, -20
 6088              		.cfi_offset 9, -16
 6089              		.cfi_offset 10, -12
 6090              		.cfi_offset 11, -8
 6091              		.cfi_offset 14, -4
 6092 0004 95B0     		sub	sp, sp, #84
 6093              		.cfi_def_cfa_offset 120
 6094              		.loc 1 3513 0
 6095 0006 0990     		str	r0, [sp, #36]
 6096              		.loc 1 3517 0
 6097 0008 FFF7FEFF 		bl	get_fattime
 6098              	.LVL830:
 6099              		.loc 1 3522 0
 6100 000c 0122     		movs	r2, #1
 6101              		.loc 1 3517 0
 6102 000e 8046     		mov	r8, r0
 6103              	.LVL831:
 6104              		.loc 1 3522 0
 6105 0010 09A9     		add	r1, sp, #36
 6106              	.LVL832:
 6107 0012 0DA8     		add	r0, sp, #52
 6108              	.LVL833:
 6109 0014 FFF7FEFF 		bl	find_volume
 6110              	.LVL834:
 6111 0018 0246     		mov	r2, r0
 6112 001a 0446     		mov	r4, r0
 6113              	.LVL835:
 6114              		.loc 1 3523 0
 6115 001c 18B1     		cbz	r0, .L836
 6116              	.LVL836:
ARM GAS  /tmp/ccZHgRNF.s 			page 109


 6117              	.L825:
 6118              		.loc 1 3575 0
 6119 001e 1046     		mov	r0, r2
 6120 0020 15B0     		add	sp, sp, #84
 6121              		@ sp needed
 6122 0022 BDE8F08F 		pop	{r4, r5, r6, r7, r8, r9, r10, fp, pc}
 6123              	.LVL837:
 6124              	.L836:
 6125              		.loc 1 3524 0
 6126 0026 0AAB     		add	r3, sp, #40
 6127              		.loc 1 3525 0
 6128 0028 0DA8     		add	r0, sp, #52
 6129              	.LVL838:
 6130 002a 0999     		ldr	r1, [sp, #36]
 6131              		.loc 1 3524 0
 6132 002c 1393     		str	r3, [sp, #76]
 6133              		.loc 1 3525 0
 6134 002e FFF7FEFF 		bl	follow_path
 6135              	.LVL839:
 6136              		.loc 1 3526 0
 6137 0032 0246     		mov	r2, r0
 6138 0034 A0B1     		cbz	r0, .L818
 6139              		.loc 1 3529 0
 6140 0036 0428     		cmp	r0, #4
 6141 0038 F1D1     		bne	.L825
 6142              		.loc 1 3530 0
 6143 003a 2146     		mov	r1, r4
 6144 003c 0D98     		ldr	r0, [sp, #52]
 6145              	.LVL840:
 6146 003e FFF7FEFF 		bl	create_chain
 6147              	.LVL841:
 6148              		.loc 1 3532 0
 6149 0042 0546     		mov	r5, r0
 6150 0044 88B9     		cbnz	r0, .L837
 6151 0046 0722     		movs	r2, #7
 6152              	.LVL842:
 6153              	.L809:
 6154              	.LBB390:
 6155              	.LBB391:
 6156              		.loc 1 985 0
 6157 0048 012D     		cmp	r5, #1
 6158              	.LBE391:
 6159              	.LBE390:
 6160              		.loc 1 3561 0
 6161 004a 0D98     		ldr	r0, [sp, #52]
 6162              	.LVL843:
 6163              	.LBB393:
 6164              	.LBB392:
 6165              		.loc 1 985 0
 6166 004c E7D9     		bls	.L825
 6167 004e 4369     		ldr	r3, [r0, #20]
 6168 0050 9D42     		cmp	r5, r3
 6169 0052 E4D2     		bcs	.L825
 6170 0054 2946     		mov	r1, r5
 6171 0056 0192     		str	r2, [sp, #4]
 6172 0058 FFF7FEFF 		bl	remove_chain.part.10
 6173              	.LVL844:
ARM GAS  /tmp/ccZHgRNF.s 			page 110


 6174 005c 019A     		ldr	r2, [sp, #4]
 6175 005e DEE7     		b	.L825
 6176              	.LVL845:
 6177              	.L818:
 6178              	.LBE392:
 6179              	.LBE393:
 6180              		.loc 1 3526 0
 6181 0060 0822     		movs	r2, #8
 6182              	.LVL846:
 6183              		.loc 1 3575 0
 6184 0062 1046     		mov	r0, r2
 6185 0064 15B0     		add	sp, sp, #84
 6186              		@ sp needed
 6187 0066 BDE8F08F 		pop	{r4, r5, r6, r7, r8, r9, r10, fp, pc}
 6188              	.LVL847:
 6189              	.L837:
 6190              		.loc 1 3533 0
 6191 006a 0128     		cmp	r0, #1
 6192 006c 01D1     		bne	.L838
 6193 006e 0222     		movs	r2, #2
 6194 0070 EAE7     		b	.L809
 6195              	.L838:
 6196              		.loc 1 3534 0
 6197 0072 431C     		adds	r3, r0, #1
 6198 0074 08BF     		it	eq
 6199 0076 0122     		moveq	r2, #1
 6200 0078 E6D0     		beq	.L809
 6201              		.loc 1 3536 0
 6202 007a 0D9E     		ldr	r6, [sp, #52]
 6203              	.LVL848:
 6204              	.LBB394:
 6205              	.LBB395:
 6206              		.loc 1 763 0
 6207 007c 3379     		ldrb	r3, [r6, #4]	@ zero_extendqisi2
 6208 007e 002B     		cmp	r3, #0
 6209 0080 40F0B980 		bne	.L839
 6210              	.LVL849:
 6211              	.L817:
 6212              	.LBE395:
 6213              	.LBE394:
 6214              	.LBB397:
 6215              	.LBB398:
 6216              		.loc 1 853 0
 6217 0084 7269     		ldr	r2, [r6, #20]
 6218              		.loc 1 852 0
 6219 0086 AB1E     		subs	r3, r5, #2
 6220              	.LVL850:
 6221              		.loc 1 853 0
 6222 0088 023A     		subs	r2, r2, #2
 6223 008a 9342     		cmp	r3, r2
 6224              		.loc 1 854 0
 6225 008c 3CBF     		itt	cc
 6226 008e B178     		ldrbcc	r1, [r6, #2]	@ zero_extendqisi2
 6227 0090 B26A     		ldrcc	r2, [r6, #40]
 6228              	.LBE398:
 6229              	.LBE397:
 6230              		.loc 1 3539 0
ARM GAS  /tmp/ccZHgRNF.s 			page 111


 6231 0092 06F13004 		add	r4, r6, #48
 6232              	.LBB400:
 6233              	.LBB399:
 6234              		.loc 1 854 0
 6235 0096 34BF     		ite	cc
 6236 0098 01FB0322 		mlacc	r2, r1, r3, r2
 6237              		.loc 1 853 0
 6238 009c 0022     		movcs	r2, #0
 6239              	.LVL851:
 6240              	.LBE399:
 6241              	.LBE400:
 6242              	.LBB401:
 6243              	.LBB402:
 6244              		.loc 1 580 0
 6245 009e 2146     		mov	r1, r4
 6246 00a0 06F50C79 		add	r9, r6, #560
 6247              		.loc 1 583 0
 6248 00a4 0020     		movs	r0, #0
 6249              	.LVL852:
 6250              	.L801:
 6251 00a6 01F8010B 		strb	r0, [r1], #1
 6252              	.LVL853:
 6253              		.loc 1 582 0
 6254 00aa 4945     		cmp	r1, r9
 6255 00ac FBD1     		bne	.L801
 6256 00ae 06F13B07 		add	r7, r6, #59
 6257 00b2 2146     		mov	r1, r4
 6258              	.LVL854:
 6259              	.LBE402:
 6260              	.LBE401:
 6261              	.LBB403:
 6262              	.LBB404:
 6263              		.loc 1 583 0
 6264 00b4 2020     		movs	r0, #32
 6265              	.L803:
 6266              	.LVL855:
 6267 00b6 01F8010B 		strb	r0, [r1], #1
 6268              	.LVL856:
 6269              		.loc 1 582 0
 6270 00ba B942     		cmp	r1, r7
 6271 00bc FBD1     		bne	.L803
 6272              	.LBE404:
 6273              	.LBE403:
 6274              	.LBB405:
 6275              	.LBB406:
 6276              		.loc 1 1293 0
 6277 00be 290C     		lsrs	r1, r5, #16
 6278              	.LVL857:
 6279 00c0 CBB2     		uxtb	r3, r1
 6280              	.LVL858:
 6281 00c2 0793     		str	r3, [sp, #28]
 6282              	.LBE406:
 6283              	.LBE405:
 6284              		.loc 1 3544 0
 6285 00c4 C8F30723 		ubfx	r3, r8, #8, #8
 6286 00c8 0293     		str	r3, [sp, #8]
 6287 00ca C8F30743 		ubfx	r3, r8, #16, #8
ARM GAS  /tmp/ccZHgRNF.s 			page 112


 6288 00ce 0393     		str	r3, [sp, #12]
 6289              	.LBB411:
 6290              	.LBB407:
 6291              		.loc 1 1292 0
 6292 00d0 EBB2     		uxtb	r3, r5
 6293              		.loc 1 1293 0
 6294 00d2 090A     		lsrs	r1, r1, #8
 6295              		.loc 1 1292 0
 6296 00d4 0593     		str	r3, [sp, #20]
 6297 00d6 C5F30723 		ubfx	r3, r5, #8, #8
 6298              		.loc 1 1293 0
 6299 00da 0891     		str	r1, [sp, #32]
 6300              		.loc 1 1292 0
 6301 00dc 0693     		str	r3, [sp, #24]
 6302              		.loc 1 1293 0
 6303 00de 079B     		ldr	r3, [sp, #28]
 6304 00e0 86F84430 		strb	r3, [r6, #68]
 6305 00e4 089B     		ldr	r3, [sp, #32]
 6306 00e6 86F84530 		strb	r3, [r6, #69]
 6307              	.LBE407:
 6308              	.LBE411:
 6309              		.loc 1 3544 0
 6310 00ea 029B     		ldr	r3, [sp, #8]
 6311 00ec 86F84730 		strb	r3, [r6, #71]
 6312 00f0 039B     		ldr	r3, [sp, #12]
 6313 00f2 86F84830 		strb	r3, [r6, #72]
 6314              	.LBB412:
 6315              	.LBB408:
 6316              		.loc 1 1292 0
 6317 00f6 059B     		ldr	r3, [sp, #20]
 6318 00f8 86F84A30 		strb	r3, [r6, #74]
 6319              	.LBE408:
 6320              	.LBE412:
 6321              		.loc 1 3543 0
 6322 00fc 1021     		movs	r1, #16
 6323              		.loc 1 3544 0
 6324 00fe 5FFA88FB 		uxtb	fp, r8
 6325              		.loc 1 3542 0
 6326 0102 2E27     		movs	r7, #46
 6327              		.loc 1 3544 0
 6328 0104 4FEA1868 		lsr	r8, r8, #24
 6329              	.LVL859:
 6330              	.LBB413:
 6331              	.LBB409:
 6332              		.loc 1 1292 0
 6333 0108 069B     		ldr	r3, [sp, #24]
 6334              	.LBE409:
 6335              	.LBE413:
 6336              		.loc 1 3543 0
 6337 010a 86F83B10 		strb	r1, [r6, #59]
 6338              		.loc 1 3544 0
 6339 010e CDF81080 		str	r8, [sp, #16]
 6340              		.loc 1 3542 0
 6341 0112 86F83070 		strb	r7, [r6, #48]
 6342              		.loc 1 3544 0
 6343 0116 86F846B0 		strb	fp, [r6, #70]
 6344 011a 86F84980 		strb	r8, [r6, #73]
ARM GAS  /tmp/ccZHgRNF.s 			page 113


 6345              	.LVL860:
 6346              	.LBB414:
 6347              	.LBB410:
 6348              		.loc 1 1292 0
 6349 011e 86F84B30 		strb	r3, [r6, #75]
 6350              	.LBE410:
 6351              	.LBE414:
 6352              		.loc 1 3546 0
 6353 0122 06F15001 		add	r1, r6, #80
 6354              	.LVL861:
 6355 0126 2046     		mov	r0, r4
 6356 0128 06F1700E 		add	lr, r6, #112
 6357 012c 01E0     		b	.L805
 6358              	.LVL862:
 6359              	.L840:
 6360 012e 10F8017F 		ldrb	r7, [r0, #1]!	@ zero_extendqisi2
 6361              	.L805:
 6362              	.LBB415:
 6363              	.LBB416:
 6364              		.loc 1 574 0
 6365 0132 01F8017B 		strb	r7, [r1], #1
 6366              	.LVL863:
 6367              		.loc 1 573 0
 6368 0136 7145     		cmp	r1, lr
 6369 0138 F9D1     		bne	.L840
 6370              	.LBE416:
 6371              	.LBE415:
 6372              		.loc 1 3547 0
 6373 013a 2E21     		movs	r1, #46
 6374              	.LVL864:
 6375              		.loc 1 3548 0
 6376 013c 0D98     		ldr	r0, [sp, #52]
 6377              		.loc 1 3547 0
 6378 013e 86F85110 		strb	r1, [r6, #81]
 6379              		.loc 1 3548 0
 6380 0142 0178     		ldrb	r1, [r0]	@ zero_extendqisi2
 6381              		.loc 1 3547 0
 6382 0144 0F9F     		ldr	r7, [sp, #60]
 6383              	.LVL865:
 6384              		.loc 1 3548 0
 6385 0146 0329     		cmp	r1, #3
 6386 0148 4DD0     		beq	.L806
 6387              	.L835:
 6388 014a 390C     		lsrs	r1, r7, #16
 6389 014c 5FFA81FE 		uxtb	lr, r1
 6390 0150 5FFA87FC 		uxtb	ip, r7
 6391 0154 090A     		lsrs	r1, r1, #8
 6392 0156 C7F30727 		ubfx	r7, r7, #8, #8
 6393              	.LVL866:
 6394              	.L807:
 6395              	.LBB417:
 6396              	.LBB418:
 6397              		.loc 1 1292 0
 6398 015a 86F86AC0 		strb	ip, [r6, #106]
 6399 015e 86F86B70 		strb	r7, [r6, #107]
 6400              		.loc 1 1293 0
 6401 0162 86F864E0 		strb	lr, [r6, #100]
ARM GAS  /tmp/ccZHgRNF.s 			page 114


 6402 0166 86F86510 		strb	r1, [r6, #101]
 6403              	.LBE418:
 6404              	.LBE417:
 6405              		.loc 1 3551 0
 6406 016a 8178     		ldrb	r1, [r0, #2]	@ zero_extendqisi2
 6407              	.LVL867:
 6408 016c C9B1     		cbz	r1, .L814
 6409 016e 0139     		subs	r1, r1, #1
 6410              	.LVL868:
 6411 0170 CFB2     		uxtb	r7, r1
 6412 0172 0137     		adds	r7, r7, #1
 6413 0174 1744     		add	r7, r7, r2
 6414              		.loc 1 3553 0
 6415 0176 0126     		movs	r6, #1
 6416              	.LVL869:
 6417              	.LBB419:
 6418              	.LBB420:
 6419              		.loc 1 583 0
 6420 0178 4FF00008 		mov	r8, #0
 6421              	.LVL870:
 6422              	.L815:
 6423              	.LBE420:
 6424              	.LBE419:
 6425              		.loc 1 3552 0
 6426 017c C262     		str	r2, [r0, #44]
 6427              		.loc 1 3553 0
 6428 017e 0671     		strb	r6, [r0, #4]
 6429              		.loc 1 3552 0
 6430 0180 02F1010A 		add	r10, r2, #1
 6431              	.LVL871:
 6432              	.LBB422:
 6433              	.LBB423:
 6434 0184 FFF7FEFF 		bl	sync_window.part.3
 6435              	.LVL872:
 6436              	.LBE423:
 6437              	.LBE422:
 6438              		.loc 1 3555 0
 6439 0188 48B9     		cbnz	r0, .L833
 6440              	.LVL873:
 6441              		.loc 1 3552 0
 6442 018a 2346     		mov	r3, r4
 6443              	.LVL874:
 6444              	.L813:
 6445              	.LBB424:
 6446              	.LBB421:
 6447              		.loc 1 583 0
 6448 018c 03F8018B 		strb	r8, [r3], #1
 6449              	.LVL875:
 6450              		.loc 1 582 0
 6451 0190 4B45     		cmp	r3, r9
 6452 0192 FBD1     		bne	.L813
 6453              	.LVL876:
 6454              	.LBE421:
 6455              	.LBE424:
 6456              		.loc 1 3551 0
 6457 0194 BA45     		cmp	r10, r7
 6458 0196 04D0     		beq	.L814
ARM GAS  /tmp/ccZHgRNF.s 			page 115


 6459              		.loc 1 3552 0
 6460 0198 5246     		mov	r2, r10
 6461 019a 0D98     		ldr	r0, [sp, #52]
 6462 019c EEE7     		b	.L815
 6463              	.LVL877:
 6464              	.L833:
 6465 019e 0246     		mov	r2, r0
 6466 01a0 52E7     		b	.L809
 6467              	.LVL878:
 6468              	.L814:
 6469              		.loc 1 3559 0
 6470 01a2 0DA8     		add	r0, sp, #52
 6471 01a4 FFF7FEFF 		bl	dir_register
 6472              	.LVL879:
 6473              		.loc 1 3560 0
 6474 01a8 0246     		mov	r2, r0
 6475 01aa 0028     		cmp	r0, #0
 6476 01ac 7FF44CAF 		bne	.L809
 6477              		.loc 1 3563 0
 6478 01b0 129B     		ldr	r3, [sp, #72]
 6479              	.LVL880:
 6480              		.loc 1 3565 0
 6481 01b2 029C     		ldr	r4, [sp, #8]
 6482              	.LVL881:
 6483 01b4 DC75     		strb	r4, [r3, #23]
 6484 01b6 039C     		ldr	r4, [sp, #12]
 6485 01b8 1C76     		strb	r4, [r3, #24]
 6486 01ba 049C     		ldr	r4, [sp, #16]
 6487 01bc 5C76     		strb	r4, [r3, #25]
 6488              	.LVL882:
 6489              	.LBB425:
 6490              	.LBB426:
 6491              		.loc 1 1292 0
 6492 01be 059C     		ldr	r4, [sp, #20]
 6493 01c0 9C76     		strb	r4, [r3, #26]
 6494 01c2 069C     		ldr	r4, [sp, #24]
 6495              	.LBE426:
 6496              	.LBE425:
 6497              		.loc 1 3567 0
 6498 01c4 0D9A     		ldr	r2, [sp, #52]
 6499              	.LBB430:
 6500              	.LBB427:
 6501              		.loc 1 1292 0
 6502 01c6 DC76     		strb	r4, [r3, #27]
 6503              		.loc 1 1293 0
 6504 01c8 079C     		ldr	r4, [sp, #28]
 6505 01ca 1C75     		strb	r4, [r3, #20]
 6506              	.LBE427:
 6507              	.LBE430:
 6508              		.loc 1 3564 0
 6509 01cc 1020     		movs	r0, #16
 6510              	.LVL883:
 6511              		.loc 1 3567 0
 6512 01ce 0121     		movs	r1, #1
 6513              	.LBB431:
 6514              	.LBB428:
 6515              		.loc 1 1293 0
ARM GAS  /tmp/ccZHgRNF.s 			page 116


 6516 01d0 089C     		ldr	r4, [sp, #32]
 6517              	.LBE428:
 6518              	.LBE431:
 6519              		.loc 1 3564 0
 6520 01d2 D872     		strb	r0, [r3, #11]
 6521              		.loc 1 3565 0
 6522 01d4 83F816B0 		strb	fp, [r3, #22]
 6523              	.LBB432:
 6524              	.LBB429:
 6525              		.loc 1 1293 0
 6526 01d8 5C75     		strb	r4, [r3, #21]
 6527              	.LBE429:
 6528              	.LBE432:
 6529              		.loc 1 3568 0
 6530 01da 1046     		mov	r0, r2
 6531              		.loc 1 3567 0
 6532 01dc 1171     		strb	r1, [r2, #4]
 6533              		.loc 1 3568 0
 6534 01de FFF7FEFF 		bl	sync_fs
 6535              	.LVL884:
 6536 01e2 0246     		mov	r2, r0
 6537              	.LVL885:
 6538 01e4 1BE7     		b	.L825
 6539              	.LVL886:
 6540              	.L806:
 6541              		.loc 1 3548 0 discriminator 1
 6542 01e6 416A     		ldr	r1, [r0, #36]
 6543 01e8 B942     		cmp	r1, r7
 6544 01ea AED1     		bne	.L835
 6545 01ec 0021     		movs	r1, #0
 6546 01ee 8E46     		mov	lr, r1
 6547 01f0 0F46     		mov	r7, r1
 6548              	.LVL887:
 6549 01f2 8C46     		mov	ip, r1
 6550 01f4 B1E7     		b	.L807
 6551              	.LVL888:
 6552              	.L839:
 6553              	.LBB433:
 6554              	.LBB396:
 6555 01f6 3046     		mov	r0, r6
 6556              	.LVL889:
 6557 01f8 FFF7FEFF 		bl	sync_window.part.3
 6558              	.LVL890:
 6559              	.LBE396:
 6560              	.LBE433:
 6561              		.loc 1 3537 0
 6562 01fc 0246     		mov	r2, r0
 6563 01fe 0028     		cmp	r0, #0
 6564 0200 7FF422AF 		bne	.L809
 6565 0204 0D9E     		ldr	r6, [sp, #52]
 6566              	.LVL891:
 6567 0206 3DE7     		b	.L817
 6568              		.cfi_endproc
 6569              	.LFE283:
 6570              		.size	f_mkdir, .-f_mkdir
 6571 0208 AFF30080 		.section	.text.f_chmod,"ax",%progbits
 6571      AFF30080 
ARM GAS  /tmp/ccZHgRNF.s 			page 117


 6572              		.align	2
 6573              		.p2align 4,,15
 6574              		.global	f_chmod
 6575              		.thumb
 6576              		.thumb_func
 6577              		.type	f_chmod, %function
 6578              	f_chmod:
 6579              	.LFB284:
 6580              		.loc 1 3589 0
 6581              		.cfi_startproc
 6582              		@ args = 0, pretend = 0, frame = 48
 6583              		@ frame_needed = 0, uses_anonymous_args = 0
 6584              	.LVL892:
 6585 0000 30B5     		push	{r4, r5, lr}
 6586              		.cfi_def_cfa_offset 12
 6587              		.cfi_offset 4, -12
 6588              		.cfi_offset 5, -8
 6589              		.cfi_offset 14, -4
 6590 0002 8DB0     		sub	sp, sp, #52
 6591              		.cfi_def_cfa_offset 64
 6592              		.loc 1 3589 0
 6593 0004 0C46     		mov	r4, r1
 6594 0006 0190     		str	r0, [sp, #4]
 6595 0008 1546     		mov	r5, r2
 6596              		.loc 1 3597 0
 6597 000a 05A8     		add	r0, sp, #20
 6598              	.LVL893:
 6599 000c 01A9     		add	r1, sp, #4
 6600              	.LVL894:
 6601 000e 0122     		movs	r2, #1
 6602              	.LVL895:
 6603 0010 FFF7FEFF 		bl	find_volume
 6604              	.LVL896:
 6605              		.loc 1 3598 0
 6606 0014 08B1     		cbz	r0, .L844
 6607              	.L842:
 6608              		.loc 1 3618 0
 6609 0016 0DB0     		add	sp, sp, #52
 6610              		@ sp needed
 6611 0018 30BD     		pop	{r4, r5, pc}
 6612              	.LVL897:
 6613              	.L844:
 6614              		.loc 1 3599 0
 6615 001a 02AB     		add	r3, sp, #8
 6616              		.loc 1 3600 0
 6617 001c 05A8     		add	r0, sp, #20
 6618              	.LVL898:
 6619 001e 0199     		ldr	r1, [sp, #4]
 6620              		.loc 1 3599 0
 6621 0020 0B93     		str	r3, [sp, #44]
 6622              		.loc 1 3600 0
 6623 0022 FFF7FEFF 		bl	follow_path
 6624              	.LVL899:
 6625              		.loc 1 3604 0
 6626 0026 0028     		cmp	r0, #0
 6627 0028 F5D1     		bne	.L842
 6628              		.loc 1 3605 0
ARM GAS  /tmp/ccZHgRNF.s 			page 118


 6629 002a 0A9B     		ldr	r3, [sp, #40]
 6630              	.LVL900:
 6631              		.loc 1 3606 0
 6632 002c 7BB1     		cbz	r3, .L843
 6633              		.loc 1 3610 0
 6634 002e D97A     		ldrb	r1, [r3, #11]	@ zero_extendqisi2
 6635              		.loc 1 3611 0
 6636 0030 059A     		ldr	r2, [sp, #20]
 6637              		.loc 1 3609 0
 6638 0032 05F02705 		and	r5, r5, #39
 6639              	.LVL901:
 6640              		.loc 1 3610 0
 6641 0036 2C40     		ands	r4, r4, r5
 6642 0038 21EA0505 		bic	r5, r1, r5
 6643              	.LVL902:
 6644 003c 2543     		orrs	r5, r5, r4
 6645              		.loc 1 3611 0
 6646 003e 0121     		movs	r1, #1
 6647              		.loc 1 3610 0
 6648 0040 DD72     		strb	r5, [r3, #11]
 6649              		.loc 1 3612 0
 6650 0042 1046     		mov	r0, r2
 6651              	.LVL903:
 6652              		.loc 1 3611 0
 6653 0044 1171     		strb	r1, [r2, #4]
 6654              		.loc 1 3612 0
 6655 0046 FFF7FEFF 		bl	sync_fs
 6656              	.LVL904:
 6657              		.loc 1 3618 0
 6658 004a 0DB0     		add	sp, sp, #52
 6659              		@ sp needed
 6660 004c 30BD     		pop	{r4, r5, pc}
 6661              	.LVL905:
 6662              	.L843:
 6663              		.loc 1 3607 0
 6664 004e 0620     		movs	r0, #6
 6665              	.LVL906:
 6666              		.loc 1 3618 0
 6667 0050 0DB0     		add	sp, sp, #52
 6668              		@ sp needed
 6669 0052 30BD     		pop	{r4, r5, pc}
 6670              		.cfi_endproc
 6671              	.LFE284:
 6672              		.size	f_chmod, .-f_chmod
 6673 0054 AFF30080 		.section	.text.f_utime,"ax",%progbits
 6673      AFF30080 
 6673      AFF30080 
 6674              		.align	2
 6675              		.p2align 4,,15
 6676              		.global	f_utime
 6677              		.thumb
 6678              		.thumb_func
 6679              		.type	f_utime, %function
 6680              	f_utime:
 6681              	.LFB285:
 6682              		.loc 1 3631 0
 6683              		.cfi_startproc
ARM GAS  /tmp/ccZHgRNF.s 			page 119


 6684              		@ args = 0, pretend = 0, frame = 48
 6685              		@ frame_needed = 0, uses_anonymous_args = 0
 6686              	.LVL907:
 6687 0000 10B5     		push	{r4, lr}
 6688              		.cfi_def_cfa_offset 8
 6689              		.cfi_offset 4, -8
 6690              		.cfi_offset 14, -4
 6691 0002 8CB0     		sub	sp, sp, #48
 6692              		.cfi_def_cfa_offset 56
 6693              		.loc 1 3631 0
 6694 0004 0C46     		mov	r4, r1
 6695 0006 0190     		str	r0, [sp, #4]
 6696              		.loc 1 3639 0
 6697 0008 01A9     		add	r1, sp, #4
 6698              	.LVL908:
 6699 000a 05A8     		add	r0, sp, #20
 6700              	.LVL909:
 6701 000c 0122     		movs	r2, #1
 6702 000e FFF7FEFF 		bl	find_volume
 6703              	.LVL910:
 6704              		.loc 1 3640 0
 6705 0012 08B1     		cbz	r0, .L848
 6706              	.L846:
 6707              		.loc 1 3660 0
 6708 0014 0CB0     		add	sp, sp, #48
 6709              		@ sp needed
 6710 0016 10BD     		pop	{r4, pc}
 6711              	.LVL911:
 6712              	.L848:
 6713              		.loc 1 3641 0
 6714 0018 02AB     		add	r3, sp, #8
 6715              		.loc 1 3642 0
 6716 001a 05A8     		add	r0, sp, #20
 6717              	.LVL912:
 6718 001c 0199     		ldr	r1, [sp, #4]
 6719              		.loc 1 3641 0
 6720 001e 0B93     		str	r3, [sp, #44]
 6721              		.loc 1 3642 0
 6722 0020 FFF7FEFF 		bl	follow_path
 6723              	.LVL913:
 6724              		.loc 1 3646 0
 6725 0024 0028     		cmp	r0, #0
 6726 0026 F5D1     		bne	.L846
 6727              		.loc 1 3647 0
 6728 0028 0A9B     		ldr	r3, [sp, #40]
 6729              	.LVL914:
 6730              		.loc 1 3648 0
 6731 002a 8BB1     		cbz	r3, .L847
 6732              		.loc 1 3651 0
 6733 002c E288     		ldrh	r2, [r4, #6]
 6734 002e 9A75     		strb	r2, [r3, #22]
 6735 0030 E188     		ldrh	r1, [r4, #6]
 6736              		.loc 1 3653 0
 6737 0032 059A     		ldr	r2, [sp, #20]
 6738              		.loc 1 3651 0
 6739 0034 090A     		lsrs	r1, r1, #8
 6740 0036 D975     		strb	r1, [r3, #23]
ARM GAS  /tmp/ccZHgRNF.s 			page 120


 6741              		.loc 1 3652 0
 6742 0038 A188     		ldrh	r1, [r4, #4]
 6743 003a 1976     		strb	r1, [r3, #24]
 6744 003c A088     		ldrh	r0, [r4, #4]
 6745              	.LVL915:
 6746              		.loc 1 3653 0
 6747 003e 0121     		movs	r1, #1
 6748              		.loc 1 3652 0
 6749 0040 000A     		lsrs	r0, r0, #8
 6750 0042 5876     		strb	r0, [r3, #25]
 6751              		.loc 1 3654 0
 6752 0044 1046     		mov	r0, r2
 6753              		.loc 1 3653 0
 6754 0046 1171     		strb	r1, [r2, #4]
 6755              		.loc 1 3654 0
 6756 0048 FFF7FEFF 		bl	sync_fs
 6757              	.LVL916:
 6758              		.loc 1 3660 0
 6759 004c 0CB0     		add	sp, sp, #48
 6760              		@ sp needed
 6761 004e 10BD     		pop	{r4, pc}
 6762              	.LVL917:
 6763              	.L847:
 6764              		.loc 1 3649 0
 6765 0050 0620     		movs	r0, #6
 6766              	.LVL918:
 6767              		.loc 1 3660 0
 6768 0052 0CB0     		add	sp, sp, #48
 6769              		@ sp needed
 6770 0054 10BD     		pop	{r4, pc}
 6771              		.cfi_endproc
 6772              	.LFE285:
 6773              		.size	f_utime, .-f_utime
 6774 0056 00BFAFF3 		.section	.text.f_rename,"ax",%progbits
 6774      0080AFF3 
 6774      0080
 6775              		.align	2
 6776              		.p2align 4,,15
 6777              		.global	f_rename
 6778              		.thumb
 6779              		.thumb_func
 6780              		.type	f_rename, %function
 6781              	f_rename:
 6782              	.LFB286:
 6783              		.loc 1 3673 0
 6784              		.cfi_startproc
 6785              		@ args = 0, pretend = 0, frame = 104
 6786              		@ frame_needed = 0, uses_anonymous_args = 0
 6787              	.LVL919:
 6788 0000 30B5     		push	{r4, r5, lr}
 6789              		.cfi_def_cfa_offset 12
 6790              		.cfi_offset 4, -12
 6791              		.cfi_offset 5, -8
 6792              		.cfi_offset 14, -4
 6793 0002 9BB0     		sub	sp, sp, #108
 6794              		.cfi_def_cfa_offset 120
 6795              		.loc 1 3682 0
ARM GAS  /tmp/ccZHgRNF.s 			page 121


 6796 0004 0122     		movs	r2, #1
 6797              		.loc 1 3673 0
 6798 0006 0190     		str	r0, [sp, #4]
 6799 0008 0091     		str	r1, [sp]
 6800              		.loc 1 3682 0
 6801 000a 0CA8     		add	r0, sp, #48
 6802              	.LVL920:
 6803 000c 01A9     		add	r1, sp, #4
 6804              	.LVL921:
 6805 000e FFF7FEFF 		bl	find_volume
 6806              	.LVL922:
 6807              		.loc 1 3683 0
 6808 0012 08B1     		cbz	r0, .L879
 6809              	.LVL923:
 6810              	.L871:
 6811              		.loc 1 3739 0
 6812 0014 1BB0     		add	sp, sp, #108
 6813              	.LVL924:
 6814              		@ sp needed
 6815 0016 30BD     		pop	{r4, r5, pc}
 6816              	.LVL925:
 6817              	.L879:
 6818              		.loc 1 3684 0
 6819 0018 0C9B     		ldr	r3, [sp, #48]
 6820 001a 1393     		str	r3, [sp, #76]
 6821              		.loc 1 3686 0
 6822 001c 0199     		ldr	r1, [sp, #4]
 6823              		.loc 1 3685 0
 6824 001e 03AB     		add	r3, sp, #12
 6825              		.loc 1 3686 0
 6826 0020 0CA8     		add	r0, sp, #48
 6827              	.LVL926:
 6828              		.loc 1 3685 0
 6829 0022 1293     		str	r3, [sp, #72]
 6830              		.loc 1 3686 0
 6831 0024 FFF7FEFF 		bl	follow_path
 6832              	.LVL927:
 6833              		.loc 1 3692 0
 6834 0028 0028     		cmp	r0, #0
 6835 002a F3D1     		bne	.L871
 6836              		.loc 1 3693 0
 6837 002c 119A     		ldr	r2, [sp, #68]
 6838 002e F2B1     		cbz	r2, .L864
 6839              		.loc 1 3696 0
 6840 0030 0B32     		adds	r2, r2, #11
 6841              	.LVL928:
 6842              	.LBB434:
 6843              	.LBB435:
 6844              		.loc 1 563 0
 6845 0032 06AB     		add	r3, sp, #24
 6846              	.LVL929:
 6847 0034 0DF12D00 		add	r0, sp, #45
 6848              	.LVL930:
 6849              	.L852:
 6850              		.loc 1 574 0
 6851 0038 12F8011B 		ldrb	r1, [r2], #1	@ zero_extendqisi2
 6852              	.LVL931:
ARM GAS  /tmp/ccZHgRNF.s 			page 122


 6853 003c 03F8011B 		strb	r1, [r3], #1
 6854              	.LVL932:
 6855              		.loc 1 573 0
 6856 0040 8342     		cmp	r3, r0
 6857 0042 F9D1     		bne	.L852
 6858 0044 13AB     		add	r3, sp, #76
 6859              	.LVL933:
 6860 0046 0CAA     		add	r2, sp, #48
 6861              	.LVL934:
 6862              	.L854:
 6863              	.LBE435:
 6864              	.LBE434:
 6865              	.LBB436:
 6866              	.LBB437:
 6867              		.loc 1 574 0
 6868 0048 12F8011B 		ldrb	r1, [r2], #1	@ zero_extendqisi2
 6869              	.LVL935:
 6870 004c 03F8011B 		strb	r1, [r3], #1
 6871              	.LVL936:
 6872              		.loc 1 573 0
 6873 0050 1AA9     		add	r1, sp, #104
 6874 0052 8B42     		cmp	r3, r1
 6875 0054 F8D1     		bne	.L854
 6876              	.LBE437:
 6877              	.LBE436:
 6878              		.loc 1 3698 0
 6879 0056 6846     		mov	r0, sp
 6880 0058 FFF7FEFF 		bl	get_ldnumber
 6881              	.LVL937:
 6882 005c 0028     		cmp	r0, #0
 6883 005e 08DB     		blt	.L865
 6884              		.loc 1 3699 0
 6885 0060 13A8     		add	r0, sp, #76
 6886 0062 0099     		ldr	r1, [sp]
 6887 0064 FFF7FEFF 		bl	follow_path
 6888              	.LVL938:
 6889              		.loc 1 3702 0
 6890 0068 28B9     		cbnz	r0, .L880
 6891 006a 0820     		movs	r0, #8
 6892              	.LVL939:
 6893 006c D2E7     		b	.L871
 6894              	.LVL940:
 6895              	.L864:
 6896              		.loc 1 3694 0
 6897 006e 0420     		movs	r0, #4
