ARM GAS  /tmp/ccZHgRNF.s 			page 1


   1              		.syntax unified
   2              		.cpu cortex-m4
   3              		.fpu softvfp
   4              		.eabi_attribute 20, 1
   5              		.eabi_attribute 21, 1
   6              		.eabi_attribute 23, 3
   7              		.eabi_attribute 24, 1
   8              		.eabi_attribute 25, 1
   9              		.eabi_attribute 26, 1
  10              		.eabi_attribute 30, 2
  11              		.eabi_attribute 34, 1
  12              		.eabi_attribute 18, 4
  13              		.thumb
  14              		.file	"ff.c"
  15              		.text
  16              	.Ltext0:
  17              		.cfi_sections	.debug_frame
  18              		.section	.text.get_ldnumber,"ax",%progbits
  19              		.align	2
  20              		.p2align 4,,15
  21              		.thumb
  22              		.thumb_func
  23              		.type	get_ldnumber, %function
  24              	get_ldnumber:
  25              	.LFB265:
  26              		.file 1 "../ChibiOS/ext/fatfs/src/ff.c"
  27              		.loc 1 2080 0
  28              		.cfi_startproc
  29              		@ args = 0, pretend = 0, frame = 0
  30              		@ frame_needed = 0, uses_anonymous_args = 0
  31              		@ link register save eliminated.
  32              	.LVL0:
  33 0000 70B4     		push	{r4, r5, r6}
  34              		.cfi_def_cfa_offset 12
  35              		.cfi_offset 4, -12
  36              		.cfi_offset 5, -8
  37              		.cfi_offset 6, -4
  38              		.loc 1 2086 0
  39 0002 0468     		ldr	r4, [r0]
  40 0004 9CB1     		cbz	r4, .L12
  41              	.LVL1:
  42              		.loc 1 2087 0 discriminator 1
  43 0006 2578     		ldrb	r5, [r4]	@ zero_extendqisi2
  44 0008 202D     		cmp	r5, #32
  45 000a 0BD9     		bls	.L9
  46              		.loc 1 2087 0 is_stmt 0
  47 000c 3A2D     		cmp	r5, #58
  48 000e 0ED0     		beq	.L12
  49 0010 661C     		adds	r6, r4, #1
  50 0012 3346     		mov	r3, r6
  51 0014 01E0     		b	.L4
  52              	.LVL2:
  53              	.L15:
  54              		.loc 1 2087 0 discriminator 2
  55 0016 3A2A     		cmp	r2, #58
  56 0018 07D0     		beq	.L14
  57              	.LVL3:
ARM GAS  /tmp/ccZHgRNF.s 			page 2


  58              	.L4:
  59              		.loc 1 2087 0 discriminator 1
  60 001a 1946     		mov	r1, r3
  61              	.LVL4:
  62 001c 13F8012B 		ldrb	r2, [r3], #1	@ zero_extendqisi2
  63              	.LVL5:
  64 0020 202A     		cmp	r2, #32
  65 0022 F8D8     		bhi	.L15
  66              	.LVL6:
  67              	.L9:
  68              		.loc 1 2122 0 is_stmt 1
  69 0024 0020     		movs	r0, #0
  70              	.LVL7:
  71              	.L11:
  72              		.loc 1 2126 0
  73 0026 70BC     		pop	{r4, r5, r6}
  74 0028 7047     		bx	lr
  75              	.LVL8:
  76              	.L14:
  77              		.loc 1 2091 0
  78 002a 8E42     		cmp	r6, r1
  79 002c 03D0     		beq	.L5
  80              	.LVL9:
  81              	.L12:
  82              		.loc 1 2083 0
  83 002e 4FF0FF30 		mov	r0, #-1
  84              	.LVL10:
  85              		.loc 1 2126 0
  86 0032 70BC     		pop	{r4, r5, r6}
  87 0034 7047     		bx	lr
  88              	.LVL11:
  89              	.L5:
  90              		.loc 1 2092 0
  91 0036 302D     		cmp	r5, #48
  92 0038 F9D1     		bne	.L12
  93              	.LVL12:
  94              		.loc 1 2094 0
  95 003a 0234     		adds	r4, r4, #2
  96              	.LVL13:
  97 003c 0460     		str	r4, [r0]
  98              		.loc 1 2090 0
  99 003e 0020     		movs	r0, #0
 100              	.LVL14:
 101 0040 F1E7     		b	.L11
 102              		.cfi_endproc
 103              	.LFE265:
 104              		.size	get_ldnumber, .-get_ldnumber
 105 0042 00BFAFF3 		.section	.text.validate,"ax",%progbits
 105      0080AFF3 
 105      0080AFF3 
 105      0080
 106              		.align	2
 107              		.p2align 4,,15
 108              		.thumb
 109              		.thumb_func
 110              		.type	validate, %function
 111              	validate:
ARM GAS  /tmp/ccZHgRNF.s 			page 3


 112              	.LFB268:
 113              		.loc 1 2338 0
 114              		.cfi_startproc
 115              		@ args = 0, pretend = 0, frame = 0
 116              		@ frame_needed = 0, uses_anonymous_args = 0
 117              	.LVL15:
 118 0000 08B5     		push	{r3, lr}
 119              		.cfi_def_cfa_offset 8
 120              		.cfi_offset 3, -8
 121              		.cfi_offset 14, -4
 122              		.loc 1 2342 0
 123 0002 18B1     		cbz	r0, .L21
 124              		.loc 1 2342 0 is_stmt 0 discriminator 1
 125 0004 0368     		ldr	r3, [r0]
 126 0006 0BB1     		cbz	r3, .L21
 127 0008 1A78     		ldrb	r2, [r3]	@ zero_extendqisi2
 128 000a 0AB9     		cbnz	r2, .L23
 129              	.L21:
 130              		.loc 1 2343 0 is_stmt 1
 131 000c 0920     		movs	r0, #9
 132              	.LVL16:
 133              		.loc 1 2351 0
 134 000e 08BD     		pop	{r3, pc}
 135              	.LVL17:
 136              	.L23:
 137              		.loc 1 2342 0 discriminator 1
 138 0010 8288     		ldrh	r2, [r0, #4]
 139 0012 D988     		ldrh	r1, [r3, #6]
 140 0014 9142     		cmp	r1, r2
 141 0016 F9D1     		bne	.L21
 142              		.loc 1 2347 0
 143 0018 5878     		ldrb	r0, [r3, #1]	@ zero_extendqisi2
 144              	.LVL18:
 145 001a FFF7FEFF 		bl	disk_status
 146              	.LVL19:
 147 001e 10F0010F 		tst	r0, #1
 148              		.loc 1 2348 0
 149 0022 0CBF     		ite	eq
 150 0024 0020     		moveq	r0, #0
 151 0026 0320     		movne	r0, #3
 152 0028 08BD     		pop	{r3, pc}
 153              		.cfi_endproc
 154              	.LFE268:
 155              		.size	validate, .-validate
 156 002a 00BFAFF3 		.section	.text.get_fileinfo.isra.1,"ax",%progbits
 156      0080
 157              		.align	2
 158              		.p2align 4,,15
 159              		.thumb
 160              		.thumb_func
 161              		.type	get_fileinfo.isra.1, %function
 162              	get_fileinfo.isra.1:
 163              	.LFB288:
 164              		.loc 1 1735 0
 165              		.cfi_startproc
 166              		@ args = 0, pretend = 0, frame = 0
 167              		@ frame_needed = 0, uses_anonymous_args = 0
ARM GAS  /tmp/ccZHgRNF.s 			page 4


 168              		@ link register save eliminated.
 169              	.LVL20:
 170 0000 70B4     		push	{r4, r5, r6}
 171              		.cfi_def_cfa_offset 12
 172              		.cfi_offset 4, -12
 173              		.cfi_offset 5, -8
 174              		.cfi_offset 6, -4
 175              		.loc 1 1744 0
 176 0002 02F10904 		add	r4, r2, #9
 177              	.LVL21:
 178              		.loc 1 1745 0
 179 0006 58B3     		cbz	r0, .L25
 180              	.LBB148:
 181              		.loc 1 1746 0
 182 0008 0868     		ldr	r0, [r1]
 183              	.LVL22:
 184              		.loc 1 1753 0
 185 000a 2E25     		movs	r5, #46
 186              		.loc 1 1748 0
 187 000c 0021     		movs	r1, #0
 188              	.LVL23:
 189              	.L30:
 190              		.loc 1 1750 0
 191 000e 0131     		adds	r1, r1, #1
 192              	.LVL24:
 193 0010 4318     		adds	r3, r0, r1
 194 0012 13F8013C 		ldrb	r3, [r3, #-1]	@ zero_extendqisi2
 195              	.LVL25:
 196              		.loc 1 1751 0
 197 0016 202B     		cmp	r3, #32
 198 0018 09D0     		beq	.L26
 199              		.loc 1 1752 0
 200 001a 052B     		cmp	r3, #5
 201 001c 08BF     		it	eq
 202 001e E523     		moveq	r3, #229
 203              	.LVL26:
 204              		.loc 1 1753 0
 205 0020 0929     		cmp	r1, #9
 206 0022 04BF     		itt	eq
 207 0024 2570     		strbeq	r5, [r4]
 208 0026 0134     		addeq	r4, r4, #1
 209              	.LVL27:
 210              		.loc 1 1764 0
 211 0028 0134     		adds	r4, r4, #1
 212              	.LVL28:
 213 002a 04F8013C 		strb	r3, [r4, #-1]
 214              	.LVL29:
 215              	.L26:
 216              		.loc 1 1749 0
 217 002e 0B29     		cmp	r1, #11
 218 0030 EDD1     		bne	.L30
 219              		.loc 1 1766 0
 220 0032 C37A     		ldrb	r3, [r0, #11]	@ zero_extendqisi2
 221 0034 1372     		strb	r3, [r2, #8]
 222              		.loc 1 1767 0
 223 0036 837F     		ldrb	r3, [r0, #30]	@ zero_extendqisi2
 224 0038 C67F     		ldrb	r6, [r0, #31]	@ zero_extendqisi2
ARM GAS  /tmp/ccZHgRNF.s 			page 5


 225 003a 057F     		ldrb	r5, [r0, #28]	@ zero_extendqisi2
 226 003c 417F     		ldrb	r1, [r0, #29]	@ zero_extendqisi2
 227              	.LVL30:
 228 003e 1B04     		lsls	r3, r3, #16
 229 0040 43EA0663 		orr	r3, r3, r6, lsl #24
 230 0044 2B43     		orrs	r3, r3, r5
 231 0046 43EA0123 		orr	r3, r3, r1, lsl #8
 232 004a 1360     		str	r3, [r2]
 233              		.loc 1 1768 0
 234 004c 417E     		ldrb	r1, [r0, #25]	@ zero_extendqisi2
 235 004e 037E     		ldrb	r3, [r0, #24]	@ zero_extendqisi2
 236 0050 43EA0123 		orr	r3, r3, r1, lsl #8
 237 0054 9380     		strh	r3, [r2, #4]	@ movhi
 238              		.loc 1 1769 0
 239 0056 C17D     		ldrb	r1, [r0, #23]	@ zero_extendqisi2
 240 0058 837D     		ldrb	r3, [r0, #22]	@ zero_extendqisi2
 241 005a 43EA0123 		orr	r3, r3, r1, lsl #8
 242 005e D380     		strh	r3, [r2, #6]	@ movhi
 243              	.LVL31:
 244              	.L25:
 245              	.LBE148:
 246              		.loc 1 1771 0
 247 0060 0023     		movs	r3, #0
 248 0062 2370     		strb	r3, [r4]
 249              		.loc 1 1794 0
 250 0064 70BC     		pop	{r4, r5, r6}
 251              	.LVL32:
 252 0066 7047     		bx	lr
 253              		.cfi_endproc
 254              	.LFE288:
 255              		.size	get_fileinfo.isra.1, .-get_fileinfo.isra.1
 256 0068 AFF30080 		.section	.text.sync_window.part.3,"ax",%progbits
 256      AFF30080 
 257              		.align	2
 258              		.p2align 4,,15
 259              		.thumb
 260              		.thumb_func
 261              		.type	sync_window.part.3, %function
 262              	sync_window.part.3:
 263              	.LFB290:
 264              		.loc 1 755 0
 265              		.cfi_startproc
 266              		@ args = 0, pretend = 0, frame = 0
 267              		@ frame_needed = 0, uses_anonymous_args = 0
 268              	.LVL33:
 269 0000 F8B5     		push	{r3, r4, r5, r6, r7, lr}
 270              		.cfi_def_cfa_offset 24
 271              		.cfi_offset 3, -24
 272              		.cfi_offset 4, -20
 273              		.cfi_offset 5, -16
 274              		.cfi_offset 6, -12
 275              		.cfi_offset 7, -8
 276              		.cfi_offset 14, -4
 277              		.loc 1 764 0
 278 0002 C46A     		ldr	r4, [r0, #44]
 279              	.LVL34:
 280              		.loc 1 765 0
ARM GAS  /tmp/ccZHgRNF.s 			page 6


 281 0004 00F13007 		add	r7, r0, #48
 282              		.loc 1 755 0
 283 0008 0546     		mov	r5, r0
 284              		.loc 1 765 0
 285 000a 2246     		mov	r2, r4
 286 000c 4078     		ldrb	r0, [r0, #1]	@ zero_extendqisi2
 287              	.LVL35:
 288 000e 3946     		mov	r1, r7
 289 0010 0123     		movs	r3, #1
 290 0012 FFF7FEFF 		bl	disk_write
 291              	.LVL36:
 292 0016 B0B9     		cbnz	r0, .L44
 293              		.loc 1 768 0
 294 0018 2A6A     		ldr	r2, [r5, #32]
 295 001a AB69     		ldr	r3, [r5, #24]
 296              		.loc 1 767 0
 297 001c 2871     		strb	r0, [r5, #4]
 298              		.loc 1 768 0
 299 001e A21A     		subs	r2, r4, r2
 300 0020 9A42     		cmp	r2, r3
 301 0022 0ED2     		bcs	.L42
 302              		.loc 1 769 0
 303 0024 EE78     		ldrb	r6, [r5, #3]	@ zero_extendqisi2
 304              	.LVL37:
 305 0026 012E     		cmp	r6, #1
 306 0028 01D8     		bhi	.L43
 307 002a 0AE0     		b	.L42
 308              	.L48:
 309 002c AB69     		ldr	r3, [r5, #24]
 310              	.L43:
 311              		.loc 1 770 0
 312 002e 1C44     		add	r4, r4, r3
 313              	.LVL38:
 314              		.loc 1 769 0
 315 0030 013E     		subs	r6, r6, #1
 316              	.LVL39:
 317              		.loc 1 771 0
 318 0032 2246     		mov	r2, r4
 319 0034 6878     		ldrb	r0, [r5, #1]	@ zero_extendqisi2
 320 0036 3946     		mov	r1, r7
 321 0038 0123     		movs	r3, #1
 322 003a FFF7FEFF 		bl	disk_write
 323              	.LVL40:
 324              		.loc 1 769 0
 325 003e 012E     		cmp	r6, #1
 326 0040 F4D1     		bne	.L48
 327              	.LVL41:
 328              	.L42:
 329              		.loc 1 775 0
 330 0042 0020     		movs	r0, #0
 331 0044 F8BD     		pop	{r3, r4, r5, r6, r7, pc}
 332              	.LVL42:
 333              	.L44:
 334              		.loc 1 766 0
 335 0046 0120     		movs	r0, #1
 336              		.loc 1 776 0
 337 0048 F8BD     		pop	{r3, r4, r5, r6, r7, pc}
ARM GAS  /tmp/ccZHgRNF.s 			page 7


 338              		.cfi_endproc
 339              	.LFE290:
 340              		.size	sync_window.part.3, .-sync_window.part.3
 341 004a 00BFAFF3 		.section	.text.sync_fs,"ax",%progbits
 341      0080
 342              		.align	2
 343              		.p2align 4,,15
 344              		.thumb
 345              		.thumb_func
 346              		.type	sync_fs, %function
 347              	sync_fs:
 348              	.LFB247:
 349              		.loc 1 810 0
 350              		.cfi_startproc
 351              		@ args = 0, pretend = 0, frame = 0
 352              		@ frame_needed = 0, uses_anonymous_args = 0
 353              	.LVL43:
 354 0000 2DE9F84F 		push	{r3, r4, r5, r6, r7, r8, r9, r10, fp, lr}
 355              		.cfi_def_cfa_offset 40
 356              		.cfi_offset 3, -40
 357              		.cfi_offset 4, -36
 358              		.cfi_offset 5, -32
 359              		.cfi_offset 6, -28
 360              		.cfi_offset 7, -24
 361              		.cfi_offset 8, -20
 362              		.cfi_offset 9, -16
 363              		.cfi_offset 10, -12
 364              		.cfi_offset 11, -8
 365              		.cfi_offset 14, -4
 366              	.LBB149:
 367              	.LBB150:
 368              		.loc 1 763 0
 369 0004 0379     		ldrb	r3, [r0, #4]	@ zero_extendqisi2
 370              	.LBE150:
 371              	.LBE149:
 372              		.loc 1 810 0
 373 0006 0546     		mov	r5, r0
 374              	.LVL44:
 375              	.LBB153:
 376              	.LBB151:
 377              		.loc 1 763 0
 378 0008 63B9     		cbnz	r3, .L50
 379              	.LVL45:
 380              	.L53:
 381              	.LBE151:
 382              	.LBE153:
 383              		.loc 1 817 0
 384 000a 2B78     		ldrb	r3, [r5]	@ zero_extendqisi2
 385 000c 032B     		cmp	r3, #3
 386 000e 0FD0     		beq	.L62
 387              	.L52:
 388              		.loc 1 831 0
 389 0010 0021     		movs	r1, #0
 390 0012 6878     		ldrb	r0, [r5, #1]	@ zero_extendqisi2
 391 0014 0A46     		mov	r2, r1
 392 0016 FFF7FEFF 		bl	disk_ioctl
 393              	.LVL46:
ARM GAS  /tmp/ccZHgRNF.s 			page 8


 394 001a 0030     		adds	r0, r0, #0
 395 001c 18BF     		it	ne
 396 001e 0120     		movne	r0, #1
 397              	.LVL47:
 398              		.loc 1 836 0
 399 0020 BDE8F88F 		pop	{r3, r4, r5, r6, r7, r8, r9, r10, fp, pc}
 400              	.LVL48:
 401              	.L50:
 402              	.LBB154:
 403              	.LBB152:
 404 0024 FFF7FEFF 		bl	sync_window.part.3
 405              	.LVL49:
 406              	.LBE152:
 407              	.LBE154:
 408              		.loc 1 815 0
 409 0028 0028     		cmp	r0, #0
 410 002a EED0     		beq	.L53
 411              	.LVL50:
 412              		.loc 1 836 0
 413 002c BDE8F88F 		pop	{r3, r4, r5, r6, r7, r8, r9, r10, fp, pc}
 414              	.LVL51:
 415              	.L62:
 416              		.loc 1 817 0 discriminator 1
 417 0030 6B79     		ldrb	r3, [r5, #5]	@ zero_extendqisi2
 418 0032 012B     		cmp	r3, #1
 419 0034 ECD1     		bne	.L52
 420              		.loc 1 819 0
 421 0036 05F13001 		add	r1, r5, #48
 422              	.LVL52:
 423              	.LBB155:
 424              	.LBB156:
 425              		.loc 1 580 0
 426 003a 0B46     		mov	r3, r1
 427 003c 05F50C70 		add	r0, r5, #560
 428              		.loc 1 583 0
 429 0040 0022     		movs	r2, #0
 430              	.LVL53:
 431              	.L56:
 432 0042 03F8012B 		strb	r2, [r3], #1
 433              	.LVL54:
 434              		.loc 1 582 0
 435 0046 8342     		cmp	r3, r0
 436              		.loc 1 583 0
 437 0048 4FF00004 		mov	r4, #0
 438              		.loc 1 582 0
 439 004c F9D1     		bne	.L56
 440              	.LBE156:
 441              	.LBE155:
 442              		.loc 1 823 0
 443 004e 2869     		ldr	r0, [r5, #16]
 444              		.loc 1 824 0
 445 0050 EB68     		ldr	r3, [r5, #12]
 446              	.LVL55:
 447              		.loc 1 826 0
 448 0052 EA69     		ldr	r2, [r5, #28]
 449              		.loc 1 823 0
 450 0054 85F81802 		strb	r0, [r5, #536]
ARM GAS  /tmp/ccZHgRNF.s 			page 9


 451 0058 C0F30727 		ubfx	r7, r0, #8, #8
 452 005c 060C     		lsrs	r6, r0, #16
 453 005e 000E     		lsrs	r0, r0, #24
 454              		.loc 1 821 0
 455 0060 4FF0520E 		mov	lr, #82
 456              		.loc 1 824 0
 457 0064 C3F3072A 		ubfx	r10, r3, #8, #8
 458 0068 4FEA1349 		lsr	r9, r3, #16
 459 006c 4FEA1368 		lsr	r8, r3, #24
 460              		.loc 1 826 0
 461 0070 0132     		adds	r2, r2, #1
 462              		.loc 1 820 0
 463 0072 4FF0550C 		mov	ip, #85
 464              		.loc 1 823 0
 465 0076 85F81972 		strb	r7, [r5, #537]
 466 007a 85F81A62 		strb	r6, [r5, #538]
 467              		.loc 1 821 0
 468 007e 6127     		movs	r7, #97
 469 0080 4126     		movs	r6, #65
 470              		.loc 1 823 0
 471 0082 85F81B02 		strb	r0, [r5, #539]
 472              		.loc 1 820 0
 473 0086 4FF0AA0B 		mov	fp, #170
 474              		.loc 1 822 0
 475 008a 7220     		movs	r0, #114
 476              		.loc 1 824 0
 477 008c 85F81C32 		strb	r3, [r5, #540]
 478              		.loc 1 822 0
 479 0090 85F81402 		strb	r0, [r5, #532]
 480 0094 85F81502 		strb	r0, [r5, #533]
 481              		.loc 1 824 0
 482 0098 85F81DA2 		strb	r10, [r5, #541]
 483 009c 85F81E92 		strb	r9, [r5, #542]
 484 00a0 85F81F82 		strb	r8, [r5, #543]
 485              		.loc 1 826 0
 486 00a4 EA62     		str	r2, [r5, #44]
 487              		.loc 1 820 0
 488 00a6 85F82EC2 		strb	ip, [r5, #558]
 489 00aa 85F82FB2 		strb	fp, [r5, #559]
 490              		.loc 1 821 0
 491 00ae 85F830E0 		strb	lr, [r5, #48]
 492 00b2 85F831E0 		strb	lr, [r5, #49]
 493 00b6 85F83270 		strb	r7, [r5, #50]
 494              		.loc 1 822 0
 495 00ba 85F81772 		strb	r7, [r5, #535]
 496              		.loc 1 821 0
 497 00be 85F83360 		strb	r6, [r5, #51]
 498              		.loc 1 822 0
 499 00c2 85F81662 		strb	r6, [r5, #534]
 500              		.loc 1 827 0
 501 00c6 6878     		ldrb	r0, [r5, #1]	@ zero_extendqisi2
 502 00c8 0123     		movs	r3, #1
 503 00ca FFF7FEFF 		bl	disk_write
 504              	.LVL56:
 505              		.loc 1 828 0
 506 00ce 6C71     		strb	r4, [r5, #5]
 507 00d0 9EE7     		b	.L52
ARM GAS  /tmp/ccZHgRNF.s 			page 10


 508              		.cfi_endproc
 509              	.LFE247:
 510              		.size	sync_fs, .-sync_fs
 511 00d2 00BFAFF3 		.section	.text.move_window,"ax",%progbits
 511      0080AFF3 
 511      0080AFF3 
 511      0080
 512              		.align	2
 513              		.p2align 4,,15
 514              		.thumb
 515              		.thumb_func
 516              		.type	move_window, %function
 517              	move_window:
 518              	.LFB246:
 519              		.loc 1 785 0
 520              		.cfi_startproc
 521              		@ args = 0, pretend = 0, frame = 0
 522              		@ frame_needed = 0, uses_anonymous_args = 0
 523              	.LVL57:
 524 0000 38B5     		push	{r3, r4, r5, lr}
 525              		.cfi_def_cfa_offset 16
 526              		.cfi_offset 3, -16
 527              		.cfi_offset 4, -12
 528              		.cfi_offset 5, -8
 529              		.cfi_offset 14, -4
 530              		.loc 1 786 0
 531 0002 C36A     		ldr	r3, [r0, #44]
 532 0004 8B42     		cmp	r3, r1
 533              		.loc 1 785 0
 534 0006 0446     		mov	r4, r0
 535 0008 0D46     		mov	r5, r1
 536              		.loc 1 786 0
 537 000a 11D0     		beq	.L69
 538              	.LVL58:
 539              	.LBB163:
 540              	.LBB164:
 541              		.loc 1 763 0
 542 000c 0379     		ldrb	r3, [r0, #4]	@ zero_extendqisi2
 543 000e 4BB9     		cbnz	r3, .L65
 544              	.LVL59:
 545              	.L68:
 546              	.LBE164:
 547              	.LBE163:
 548              	.LBB166:
 549              	.LBB167:
 550              		.loc 1 791 0
 551 0010 6078     		ldrb	r0, [r4, #1]	@ zero_extendqisi2
 552 0012 04F13001 		add	r1, r4, #48
 553 0016 2A46     		mov	r2, r5
 554 0018 0123     		movs	r3, #1
 555 001a FFF7FEFF 		bl	disk_read
 556              	.LVL60:
 557 001e 28B9     		cbnz	r0, .L71
 558              		.loc 1 793 0
 559 0020 E562     		str	r5, [r4, #44]
 560 0022 38BD     		pop	{r3, r4, r5, pc}
 561              	.LVL61:
ARM GAS  /tmp/ccZHgRNF.s 			page 11


 562              	.L65:
 563              	.LBE167:
 564              	.LBE166:
 565              	.LBB168:
 566              	.LBB165:
 567 0024 FFF7FEFF 		bl	sync_window.part.3
 568              	.LVL62:
 569              	.LBE165:
 570              	.LBE168:
 571              		.loc 1 788 0
 572 0028 0028     		cmp	r0, #0
 573 002a F1D0     		beq	.L68
 574              	.L71:
 575              		.loc 1 789 0
 576 002c 0120     		movs	r0, #1
 577              		.loc 1 797 0
 578 002e 38BD     		pop	{r3, r4, r5, pc}
 579              	.LVL63:
 580              	.L69:
 581              		.loc 1 796 0
 582 0030 0020     		movs	r0, #0
 583              	.LVL64:
 584 0032 38BD     		pop	{r3, r4, r5, pc}
 585              		.cfi_endproc
 586              	.LFE246:
 587              		.size	move_window, .-move_window
 588 0034 AFF30080 		.section	.text.check_fs,"ax",%progbits
 588      AFF30080 
 588      AFF30080 
 589              		.align	2
 590              		.p2align 4,,15
 591              		.thumb
 592              		.thumb_func
 593              		.type	check_fs, %function
 594              	check_fs:
 595              	.LFB266:
 596              		.loc 1 2140 0
 597              		.cfi_startproc
 598              		@ args = 0, pretend = 0, frame = 0
 599              		@ frame_needed = 0, uses_anonymous_args = 0
 600              	.LVL65:
 601              		.loc 1 2141 0
 602 0000 0022     		movs	r2, #0
 603 0002 4FF0FF33 		mov	r3, #-1
 604              		.loc 1 2140 0
 605 0006 70B5     		push	{r4, r5, r6, lr}
 606              		.cfi_def_cfa_offset 16
 607              		.cfi_offset 4, -16
 608              		.cfi_offset 5, -12
 609              		.cfi_offset 6, -8
 610              		.cfi_offset 14, -4
 611              		.loc 1 2141 0
 612 0008 0271     		strb	r2, [r0, #4]
 613 000a C362     		str	r3, [r0, #44]
 614              		.loc 1 2140 0
 615 000c 0446     		mov	r4, r0
 616              		.loc 1 2142 0
ARM GAS  /tmp/ccZHgRNF.s 			page 12


 617 000e FFF7FEFF 		bl	move_window
 618              	.LVL66:
 619 0012 08B1     		cbz	r0, .L78
 620              		.loc 1 2143 0
 621 0014 0320     		movs	r0, #3
 622 0016 70BD     		pop	{r4, r5, r6, pc}
 623              	.LVL67:
 624              	.L78:
 625              		.loc 1 2145 0
 626 0018 94F82F12 		ldrb	r1, [r4, #559]	@ zero_extendqisi2
 627 001c 94F82E22 		ldrb	r2, [r4, #558]	@ zero_extendqisi2
 628 0020 174B     		ldr	r3, .L80
 629 0022 42EA0122 		orr	r2, r2, r1, lsl #8
 630 0026 12B2     		sxth	r2, r2
 631 0028 9A42     		cmp	r2, r3
 632 002a 01D0     		beq	.L79
 633              		.loc 1 2146 0
 634 002c 0220     		movs	r0, #2
 635              	.L74:
 636              		.loc 1 2154 0
 637 002e 70BD     		pop	{r4, r5, r6, pc}
 638              	.LVL68:
 639              	.L79:
 640              		.loc 1 2148 0
 641 0030 94F86820 		ldrb	r2, [r4, #104]	@ zero_extendqisi2
 642 0034 94F86960 		ldrb	r6, [r4, #105]	@ zero_extendqisi2
 643 0038 94F86650 		ldrb	r5, [r4, #102]	@ zero_extendqisi2
 644 003c 94F86710 		ldrb	r1, [r4, #103]	@ zero_extendqisi2
 645 0040 104B     		ldr	r3, .L80+4
 646 0042 1204     		lsls	r2, r2, #16
 647 0044 42EA0662 		orr	r2, r2, r6, lsl #24
 648 0048 2A43     		orrs	r2, r2, r5
 649 004a 42EA0122 		orr	r2, r2, r1, lsl #8
 650 004e 22F07F42 		bic	r2, r2, #-16777216
 651 0052 9A42     		cmp	r2, r3
 652 0054 EBD0     		beq	.L74
 653              	.LVL69:
 654              	.LBB171:
 655              	.LBB172:
 656              		.loc 1 2150 0
 657 0056 94F88420 		ldrb	r2, [r4, #132]	@ zero_extendqisi2
 658 005a 94F88550 		ldrb	r5, [r4, #133]	@ zero_extendqisi2
 659 005e 94F88210 		ldrb	r1, [r4, #130]	@ zero_extendqisi2
 660 0062 94F88300 		ldrb	r0, [r4, #131]	@ zero_extendqisi2
 661 0066 1204     		lsls	r2, r2, #16
 662 0068 42EA0562 		orr	r2, r2, r5, lsl #24
 663 006c 0A43     		orrs	r2, r2, r1
 664 006e 42EA0020 		orr	r0, r2, r0, lsl #8
 665 0072 20F07F40 		bic	r0, r0, #-16777216
 666              		.loc 1 2151 0
 667 0076 C01A     		subs	r0, r0, r3
 668 0078 18BF     		it	ne
 669 007a 0120     		movne	r0, #1
 670 007c 70BD     		pop	{r4, r5, r6, pc}
 671              	.LVL70:
 672              	.L81:
 673 007e 00BF     		.align	2
ARM GAS  /tmp/ccZHgRNF.s 			page 13


 674              	.L80:
 675 0080 55AAFFFF 		.word	-21931
 676 0084 46415400 		.word	5521734
 677              	.LBE172:
 678              	.LBE171:
 679              		.cfi_endproc
 680              	.LFE266:
 681              		.size	check_fs, .-check_fs
 682 0088 AFF30080 		.section	.text.find_volume,"ax",%progbits
 682      AFF30080 
 683              		.align	2
 684              		.p2align 4,,15
 685              		.thumb
 686              		.thumb_func
 687              		.type	find_volume, %function
 688              	find_volume:
 689              	.LFB267:
 690              		.loc 1 2169 0
 691              		.cfi_startproc
 692              		@ args = 0, pretend = 0, frame = 16
 693              		@ frame_needed = 0, uses_anonymous_args = 0
 694              	.LVL71:
 695 0000 2DE9F041 		push	{r4, r5, r6, r7, r8, lr}
 696              		.cfi_def_cfa_offset 24
 697              		.cfi_offset 4, -24
 698              		.cfi_offset 5, -20
 699              		.cfi_offset 6, -16
 700              		.cfi_offset 7, -12
 701              		.cfi_offset 8, -8
 702              		.cfi_offset 14, -4
 703 0004 0546     		mov	r5, r0
 704              		.loc 1 2179 0
 705 0006 0023     		movs	r3, #0
 706              		.loc 1 2169 0
 707 0008 84B0     		sub	sp, sp, #16
 708              		.cfi_def_cfa_offset 40
 709              		.loc 1 2180 0
 710 000a 0846     		mov	r0, r1
 711              	.LVL72:
 712              		.loc 1 2179 0
 713 000c 2B60     		str	r3, [r5]
 714              		.loc 1 2169 0
 715 000e 1746     		mov	r7, r2
 716              		.loc 1 2180 0
 717 0010 FFF7FEFF 		bl	get_ldnumber
 718              	.LVL73:
 719              		.loc 1 2181 0
 720 0014 061E     		subs	r6, r0, #0
 721 0016 17DB     		blt	.L106
 722              		.loc 1 2184 0
 723 0018 BE4B     		ldr	r3, .L149
 724 001a 53F82640 		ldr	r4, [r3, r6, lsl #2]
 725              	.LVL74:
 726              		.loc 1 2185 0
 727 001e BCB1     		cbz	r4, .L107
 728              		.loc 1 2188 0
 729 0020 2C60     		str	r4, [r5]
ARM GAS  /tmp/ccZHgRNF.s 			page 14


 730              		.loc 1 2190 0
 731 0022 2378     		ldrb	r3, [r4]	@ zero_extendqisi2
 732 0024 23B1     		cbz	r3, .L84
 733              		.loc 1 2191 0
 734 0026 6078     		ldrb	r0, [r4, #1]	@ zero_extendqisi2
 735              	.LVL75:
 736 0028 FFF7FEFF 		bl	disk_status
 737              	.LVL76:
 738              		.loc 1 2192 0
 739 002c C207     		lsls	r2, r0, #31
 740 002e 13D5     		bpl	.L143
 741              	.LVL77:
 742              	.L84:
 743              		.loc 1 2202 0
 744 0030 0023     		movs	r3, #0
 745              		.loc 1 2203 0
 746 0032 F0B2     		uxtb	r0, r6
 747              		.loc 1 2202 0
 748 0034 2370     		strb	r3, [r4]
 749              		.loc 1 2203 0
 750 0036 6070     		strb	r0, [r4, #1]
 751              		.loc 1 2204 0
 752 0038 FFF7FEFF 		bl	disk_initialize
 753              	.LVL78:
 754              		.loc 1 2205 0
 755 003c C307     		lsls	r3, r0, #31
 756 003e 13D5     		bpl	.L144
 757              		.loc 1 2206 0
 758 0040 0320     		movs	r0, #3
 759              	.LVL79:
 760              	.L140:
 761              		.loc 1 2325 0
 762 0042 04B0     		add	sp, sp, #16
 763              		@ sp needed
 764 0044 BDE8F081 		pop	{r4, r5, r6, r7, r8, pc}
 765              	.LVL80:
 766              	.L106:
 767              		.loc 1 2181 0
 768 0048 0B20     		movs	r0, #11
 769              	.LVL81:
 770              		.loc 1 2325 0
 771 004a 04B0     		add	sp, sp, #16
 772              		@ sp needed
 773 004c BDE8F081 		pop	{r4, r5, r6, r7, r8, pc}
 774              	.LVL82:
 775              	.L107:
 776              		.loc 1 2185 0
 777 0050 0C20     		movs	r0, #12
 778              	.LVL83:
 779              		.loc 1 2325 0
 780 0052 04B0     		add	sp, sp, #16
 781              		@ sp needed
 782 0054 BDE8F081 		pop	{r4, r5, r6, r7, r8, pc}
 783              	.LVL84:
 784              	.L143:
 785              		.loc 1 2193 0
 786 0058 002F     		cmp	r7, #0
ARM GAS  /tmp/ccZHgRNF.s 			page 15


 787 005a 37D0     		beq	.L108
 788              		.loc 1 2194 0 discriminator 1
 789 005c 10F0040F 		tst	r0, #4
 790 0060 0CBF     		ite	eq
 791 0062 0020     		moveq	r0, #0
 792 0064 0A20     		movne	r0, #10
 793              	.LVL85:
 794 0066 ECE7     		b	.L140
 795              	.LVL86:
 796              	.L144:
 797              		.loc 1 2207 0
 798 0068 1FB1     		cbz	r7, .L85
 799              		.loc 1 2207 0 is_stmt 0 discriminator 1
 800 006a 4607     		lsls	r6, r0, #29
 801              	.LVL87:
 802 006c 01D5     		bpl	.L85
 803              		.loc 1 2208 0 is_stmt 1
 804 006e 0A20     		movs	r0, #10
 805              	.LVL88:
 806 0070 E7E7     		b	.L140
 807              	.LVL89:
 808              	.L85:
 809              		.loc 1 2215 0
 810 0072 2046     		mov	r0, r4
 811              	.LVL90:
 812 0074 0021     		movs	r1, #0
 813 0076 FFF7FEFF 		bl	check_fs
 814              	.LVL91:
 815              		.loc 1 2216 0
 816 007a 0128     		cmp	r0, #1
 817 007c 06D0     		beq	.L145
 818              		.loc 1 2214 0
 819 007e 0026     		movs	r6, #0
 820              	.LVL92:
 821              	.L86:
 822              		.loc 1 2231 0
 823 0080 0328     		cmp	r0, #3
 824 0082 00F0C580 		beq	.L115
 825              		.loc 1 2232 0
 826 0086 48B3     		cbz	r0, .L93
 827              	.LVL93:
 828              	.L94:
 829 0088 0D20     		movs	r0, #13
 830 008a DAE7     		b	.L140
 831              	.LVL94:
 832              	.L145:
 833              		.loc 1 2216 0
 834 008c ADF10402 		sub	r2, sp, #4
 835 0090 04F5F973 		add	r3, r4, #498
 836 0094 03AF     		add	r7, sp, #12
 837              	.LVL95:
 838              	.L89:
 839              	.LBB173:
 840              	.LBB174:
 841              		.loc 1 2222 0
 842 0096 1978     		ldrb	r1, [r3]	@ zero_extendqisi2
 843 0098 49B1     		cbz	r1, .L87
ARM GAS  /tmp/ccZHgRNF.s 			page 16


 844              		.loc 1 2222 0 is_stmt 0 discriminator 1
 845 009a 9979     		ldrb	r1, [r3, #6]	@ zero_extendqisi2
 846 009c DE79     		ldrb	r6, [r3, #7]	@ zero_extendqisi2
 847 009e 1D79     		ldrb	r5, [r3, #4]	@ zero_extendqisi2
 848 00a0 5879     		ldrb	r0, [r3, #5]	@ zero_extendqisi2
 849 00a2 0904     		lsls	r1, r1, #16
 850 00a4 41EA0661 		orr	r1, r1, r6, lsl #24
 851 00a8 2943     		orrs	r1, r1, r5
 852 00aa 41EA0021 		orr	r1, r1, r0, lsl #8
 853              	.L87:
 854              		.loc 1 2222 0 discriminator 3
 855 00ae 42F8041F 		str	r1, [r2, #4]!
 856              	.LVL96:
 857              	.LBE174:
 858              		.loc 1 2220 0 is_stmt 1 discriminator 3
 859 00b2 BA42     		cmp	r2, r7
 860 00b4 03F11003 		add	r3, r3, #16
 861              	.LVL97:
 862 00b8 EDD1     		bne	.L89
 863              		.loc 1 2220 0 is_stmt 0
 864 00ba ADF10405 		sub	r5, sp, #4
 865              	.LVL98:
 866              	.L92:
 867              		.loc 1 2227 0 is_stmt 1
 868 00be 55F8046F 		ldr	r6, [r5, #4]!
 869              	.LVL99:
 870              		.loc 1 2228 0
 871 00c2 2EB9     		cbnz	r6, .L146
 872 00c4 0220     		movs	r0, #2
 873              	.L90:
 874              		.loc 1 2229 0 discriminator 1
 875 00c6 AF42     		cmp	r7, r5
 876 00c8 F9D1     		bne	.L92
 877 00ca D9E7     		b	.L86
 878              	.LVL100:
 879              	.L108:
 880              	.LBE173:
 881              		.loc 1 2195 0
 882 00cc 3846     		mov	r0, r7
 883              	.LVL101:
 884 00ce B8E7     		b	.L140
 885              	.LVL102:
 886              	.L146:
 887              	.LBB175:
 888              		.loc 1 2228 0 discriminator 1
 889 00d0 2046     		mov	r0, r4
 890 00d2 3146     		mov	r1, r6
 891 00d4 FFF7FEFF 		bl	check_fs
 892              	.LVL103:
 893              		.loc 1 2229 0 discriminator 1
 894 00d8 0028     		cmp	r0, #0
 895 00da F4D1     		bne	.L90
 896              	.LVL104:
 897              	.L93:
 898              	.LBE175:
 899              		.loc 1 2236 0
 900 00dc 94F83C20 		ldrb	r2, [r4, #60]	@ zero_extendqisi2
ARM GAS  /tmp/ccZHgRNF.s 			page 17


 901 00e0 94F83B30 		ldrb	r3, [r4, #59]	@ zero_extendqisi2
 902 00e4 43EA0223 		orr	r3, r3, r2, lsl #8
 903 00e8 B3F5007F 		cmp	r3, #512
 904 00ec CCD1     		bne	.L94
 905              		.loc 1 2239 0
 906 00ee 94F84720 		ldrb	r2, [r4, #71]	@ zero_extendqisi2
 907 00f2 94F84630 		ldrb	r3, [r4, #70]	@ zero_extendqisi2
 908              	.LVL105:
 909              		.loc 1 2240 0
 910 00f6 53EA0223 		orrs	r3, r3, r2, lsl #8
 911              	.LVL106:
 912 00fa 0DD1     		bne	.L95
 913              		.loc 1 2240 0 is_stmt 0 discriminator 1
 914 00fc 94F85610 		ldrb	r1, [r4, #86]	@ zero_extendqisi2
 915 0100 94F85700 		ldrb	r0, [r4, #87]	@ zero_extendqisi2
 916 0104 94F85430 		ldrb	r3, [r4, #84]	@ zero_extendqisi2
 917              	.LVL107:
 918 0108 94F85520 		ldrb	r2, [r4, #85]	@ zero_extendqisi2
 919              	.LVL108:
 920 010c 0904     		lsls	r1, r1, #16
 921 010e 41EA0061 		orr	r1, r1, r0, lsl #24
 922 0112 0B43     		orrs	r3, r3, r1
 923 0114 43EA0223 		orr	r3, r3, r2, lsl #8
 924              	.LVL109:
 925              	.L95:
 926              		.loc 1 2243 0 is_stmt 1
 927 0118 94F84020 		ldrb	r2, [r4, #64]	@ zero_extendqisi2
 928              		.loc 1 2241 0
 929 011c A361     		str	r3, [r4, #24]
 930              		.loc 1 2244 0
 931 011e 511E     		subs	r1, r2, #1
 932 0120 0129     		cmp	r1, #1
 933              		.loc 1 2243 0
 934 0122 E270     		strb	r2, [r4, #3]
 935              		.loc 1 2244 0
 936 0124 B0D8     		bhi	.L94
 937              	.LVL110:
 938              		.loc 1 2248 0
 939 0126 94F83D00 		ldrb	r0, [r4, #61]	@ zero_extendqisi2
 940 012a A070     		strb	r0, [r4, #2]
 941              		.loc 1 2249 0
 942 012c 0028     		cmp	r0, #0
 943 012e ABD0     		beq	.L94
 944              		.loc 1 2249 0 is_stmt 0 discriminator 1
 945 0130 411E     		subs	r1, r0, #1
 946 0132 0142     		tst	r1, r0
 947 0134 A8D1     		bne	.L94
 948              		.loc 1 2252 0 is_stmt 1
 949 0136 94F84250 		ldrb	r5, [r4, #66]	@ zero_extendqisi2
 950 013a 94F84110 		ldrb	r1, [r4, #65]	@ zero_extendqisi2
 951 013e 41EA0521 		orr	r1, r1, r5, lsl #8
 952              		.loc 1 2253 0
 953 0142 0D07     		lsls	r5, r1, #28
 954              		.loc 1 2252 0
 955 0144 2181     		strh	r1, [r4, #8]	@ movhi
 956              		.loc 1 2253 0
 957 0146 9FD1     		bne	.L94
ARM GAS  /tmp/ccZHgRNF.s 			page 18


 958              		.loc 1 2256 0
 959 0148 94F84470 		ldrb	r7, [r4, #68]	@ zero_extendqisi2
 960 014c 94F84350 		ldrb	r5, [r4, #67]	@ zero_extendqisi2
 961              	.LVL111:
 962              		.loc 1 2257 0
 963 0150 55EA0725 		orrs	r5, r5, r7, lsl #8
 964              	.LVL112:
 965 0154 0FD1     		bne	.L96
 966              		.loc 1 2257 0 is_stmt 0 discriminator 1
 967 0156 94F852C0 		ldrb	ip, [r4, #82]	@ zero_extendqisi2
 968 015a 94F85380 		ldrb	r8, [r4, #83]	@ zero_extendqisi2
 969 015e 94F85050 		ldrb	r5, [r4, #80]	@ zero_extendqisi2
 970              	.LVL113:
 971 0162 94F85170 		ldrb	r7, [r4, #81]	@ zero_extendqisi2
 972              	.LVL114:
 973 0166 4FEA0C4C 		lsl	ip, ip, #16
 974 016a 4CEA086C 		orr	ip, ip, r8, lsl #24
 975 016e 4CEA0505 		orr	r5, ip, r5
 976 0172 45EA0725 		orr	r5, r5, r7, lsl #8
 977              	.LVL115:
 978              	.L96:
 979              		.loc 1 2259 0 is_stmt 1
 980 0176 94F83FC0 		ldrb	ip, [r4, #63]	@ zero_extendqisi2
 981 017a 94F83E70 		ldrb	r7, [r4, #62]	@ zero_extendqisi2
 982              	.LVL116:
 983              		.loc 1 2260 0
 984 017e 57EA0C2C 		orrs	ip, r7, ip, lsl #8
 985              	.LVL117:
 986 0182 81D0     		beq	.L94
 987              		.loc 1 2246 0
 988 0184 02FB03F2 		mul	r2, r2, r3
 989              	.LVL118:
 990              		.loc 1 2263 0
 991 0188 0CEB1117 		add	r7, ip, r1, lsr #4
 992              	.LVL119:
 993 018c 1744     		add	r7, r7, r2
 994              	.LVL120:
 995              		.loc 1 2264 0
 996 018e BD42     		cmp	r5, r7
 997 0190 FFF47AAF 		bcc	.L94
 998              		.loc 1 2265 0
 999 0194 ED1B     		subs	r5, r5, r7
 1000              	.LVL121:
 1001 0196 B5FBF0F0 		udiv	r0, r5, r0
 1002              	.LVL122:
 1003              		.loc 1 2266 0
 1004 019a 0028     		cmp	r0, #0
 1005 019c 3FF474AF 		beq	.L94
 1006              	.LVL123:
 1007              		.loc 1 2268 0
 1008 01a0 40F6F575 		movw	r5, #4085
 1009 01a4 A842     		cmp	r0, r5
 1010 01a6 40F2B280 		bls	.L116
 1011              	.LVL124:
 1012              		.loc 1 2269 0
 1013 01aa 4FF6F575 		movw	r5, #65525
 1014 01ae A842     		cmp	r0, r5
ARM GAS  /tmp/ccZHgRNF.s 			page 19


 1015 01b0 00F29080 		bhi	.L98
 1016              		.loc 1 2268 0
 1017 01b4 0225     		movs	r5, #2
 1018              	.LVL125:
 1019              	.L97:
 1020              		.loc 1 2272 0
 1021 01b6 0230     		adds	r0, r0, #2
 1022              	.LVL126:
 1023              		.loc 1 2274 0
 1024 01b8 B444     		add	ip, ip, r6
 1025              		.loc 1 2275 0
 1026 01ba 3744     		add	r7, r7, r6
 1027              	.LVL127:
 1028              		.loc 1 2272 0
 1029 01bc 6061     		str	r0, [r4, #20]
 1030              		.loc 1 2274 0
 1031 01be C4F820C0 		str	ip, [r4, #32]
 1032              		.loc 1 2275 0
 1033 01c2 A762     		str	r7, [r4, #40]
 1034              		.loc 1 2273 0
 1035 01c4 E661     		str	r6, [r4, #28]
 1036              		.loc 1 2281 0
 1037 01c6 0029     		cmp	r1, #0
 1038 01c8 3FF45EAF 		beq	.L94
 1039              		.loc 1 2282 0
 1040 01cc 6244     		add	r2, r2, ip
 1041              	.LVL128:
 1042              		.loc 1 2284 0
 1043 01ce 022D     		cmp	r5, #2
 1044              		.loc 1 2282 0
 1045 01d0 6262     		str	r2, [r4, #36]
 1046              		.loc 1 2284 0
 1047 01d2 7DD0     		beq	.L147
 1048              		.loc 1 2284 0 is_stmt 0 discriminator 2
 1049 01d4 00EB4002 		add	r2, r0, r0, lsl #1
 1050 01d8 00F00100 		and	r0, r0, #1
 1051              	.LVL129:
 1052 01dc 00EB5200 		add	r0, r0, r2, lsr #1
 1053 01e0 0125     		movs	r5, #1
 1054              	.LVL130:
 1055              	.L99:
 1056              		.loc 1 2286 0 is_stmt 1
 1057 01e2 00F2FF10 		addw	r0, r0, #511
 1058              	.LVL131:
 1059 01e6 B3EB502F 		cmp	r3, r0, lsr #9
 1060 01ea FFF44DAF 		bcc	.L94
 1061              		.loc 1 2291 0
 1062 01ee 4FF0FF33 		mov	r3, #-1
 1063              	.LVL132:
 1064              		.loc 1 2294 0
 1065 01f2 8022     		movs	r2, #128
 1066              		.loc 1 2296 0
 1067 01f4 032D     		cmp	r5, #3
 1068              		.loc 1 2291 0
 1069 01f6 2361     		str	r3, [r4, #16]
 1070 01f8 E360     		str	r3, [r4, #12]
 1071              		.loc 1 2294 0
ARM GAS  /tmp/ccZHgRNF.s 			page 20


 1072 01fa 6271     		strb	r2, [r4, #5]
 1073              		.loc 1 2296 0
 1074 01fc 0AD0     		beq	.L148
 1075              	.LVL133:
 1076              	.L102:
 1077              		.loc 1 2316 0
 1078 01fe 464A     		ldr	r2, .L149+4
 1079              		.loc 1 2315 0
 1080 0200 2570     		strb	r5, [r4]
 1081              		.loc 1 2316 0
 1082 0202 1388     		ldrh	r3, [r2]
 1083 0204 0133     		adds	r3, r3, #1
 1084 0206 9BB2     		uxth	r3, r3
 1085 0208 1380     		strh	r3, [r2]	@ movhi
 1086 020a E380     		strh	r3, [r4, #6]	@ movhi
 1087              		.loc 1 2324 0
 1088 020c 0020     		movs	r0, #0
 1089 020e 18E7     		b	.L140
 1090              	.LVL134:
 1091              	.L115:
 1092              		.loc 1 2231 0
 1093 0210 0120     		movs	r0, #1
 1094              	.LVL135:
 1095 0212 16E7     		b	.L140
 1096              	.LVL136:
 1097              	.L148:
 1098              		.loc 1 2297 0
 1099 0214 94F86120 		ldrb	r2, [r4, #97]	@ zero_extendqisi2
 1100 0218 94F86030 		ldrb	r3, [r4, #96]	@ zero_extendqisi2
 1101 021c 43EA0223 		orr	r3, r3, r2, lsl #8
 1102 0220 012B     		cmp	r3, #1
 1103 0222 ECD1     		bne	.L102
 1104              		.loc 1 2298 0
 1105 0224 711C     		adds	r1, r6, #1
 1106 0226 2046     		mov	r0, r4
 1107              	.LVL137:
 1108 0228 FFF7FEFF 		bl	move_window
 1109              	.LVL138:
 1110 022c 0028     		cmp	r0, #0
 1111 022e E6D1     		bne	.L102
 1112              		.loc 1 2301 0
 1113 0230 94F82F12 		ldrb	r1, [r4, #559]	@ zero_extendqisi2
 1114 0234 94F82E22 		ldrb	r2, [r4, #558]	@ zero_extendqisi2
 1115 0238 384B     		ldr	r3, .L149+8
 1116              		.loc 1 2300 0
 1117 023a 6071     		strb	r0, [r4, #5]
 1118              		.loc 1 2301 0
 1119 023c 42EA0122 		orr	r2, r2, r1, lsl #8
 1120 0240 12B2     		sxth	r2, r2
 1121 0242 9A42     		cmp	r2, r3
 1122 0244 DBD1     		bne	.L102
 1123              		.loc 1 2302 0
 1124 0246 94F83200 		ldrb	r0, [r4, #50]	@ zero_extendqisi2
 1125 024a 94F83360 		ldrb	r6, [r4, #51]	@ zero_extendqisi2
 1126              	.LVL139:
 1127 024e 94F83020 		ldrb	r2, [r4, #48]	@ zero_extendqisi2
 1128 0252 94F83110 		ldrb	r1, [r4, #49]	@ zero_extendqisi2
ARM GAS  /tmp/ccZHgRNF.s 			page 21


 1129 0256 324B     		ldr	r3, .L149+12
 1130 0258 0004     		lsls	r0, r0, #16
 1131 025a 40EA0660 		orr	r0, r0, r6, lsl #24
 1132 025e 0243     		orrs	r2, r2, r0
 1133 0260 42EA0122 		orr	r2, r2, r1, lsl #8
 1134 0264 9A42     		cmp	r2, r3
 1135 0266 CAD1     		bne	.L102
 1136              		.loc 1 2303 0
 1137 0268 94F81602 		ldrb	r0, [r4, #534]	@ zero_extendqisi2
 1138 026c 94F81762 		ldrb	r6, [r4, #535]	@ zero_extendqisi2
 1139 0270 94F81422 		ldrb	r2, [r4, #532]	@ zero_extendqisi2
 1140 0274 94F81512 		ldrb	r1, [r4, #533]	@ zero_extendqisi2
 1141 0278 0004     		lsls	r0, r0, #16
 1142 027a 03F1FF53 		add	r3, r3, #534773760
 1143 027e 40EA0660 		orr	r0, r0, r6, lsl #24
 1144 0282 03F50053 		add	r3, r3, #8192
 1145 0286 0243     		orrs	r2, r2, r0
 1146 0288 2033     		adds	r3, r3, #32
 1147 028a 42EA0122 		orr	r2, r2, r1, lsl #8
 1148 028e 9A42     		cmp	r2, r3
 1149 0290 B5D1     		bne	.L102
 1150              		.loc 1 2306 0
 1151 0292 94F81A72 		ldrb	r7, [r4, #538]	@ zero_extendqisi2
 1152              		.loc 1 2309 0
 1153 0296 94F81E62 		ldrb	r6, [r4, #542]	@ zero_extendqisi2
 1154              		.loc 1 2306 0
 1155 029a 94F81B82 		ldrb	r8, [r4, #539]	@ zero_extendqisi2
 1156              		.loc 1 2309 0
 1157 029e 94F81FC2 		ldrb	ip, [r4, #543]	@ zero_extendqisi2
 1158              		.loc 1 2306 0
 1159 02a2 94F81822 		ldrb	r2, [r4, #536]	@ zero_extendqisi2
 1160              		.loc 1 2309 0
 1161 02a6 94F81C32 		ldrb	r3, [r4, #540]	@ zero_extendqisi2
 1162              		.loc 1 2306 0
 1163 02aa 94F81902 		ldrb	r0, [r4, #537]	@ zero_extendqisi2
 1164              		.loc 1 2309 0
 1165 02ae 94F81D12 		ldrb	r1, [r4, #541]	@ zero_extendqisi2
 1166              		.loc 1 2306 0
 1167 02b2 3F04     		lsls	r7, r7, #16
 1168              		.loc 1 2309 0
 1169 02b4 3604     		lsls	r6, r6, #16
 1170              		.loc 1 2306 0
 1171 02b6 47EA0867 		orr	r7, r7, r8, lsl #24
 1172              		.loc 1 2309 0
 1173 02ba 46EA0C66 		orr	r6, r6, ip, lsl #24
 1174              		.loc 1 2306 0
 1175 02be 3A43     		orrs	r2, r2, r7
 1176              		.loc 1 2309 0
 1177 02c0 3343     		orrs	r3, r3, r6
 1178              		.loc 1 2306 0
 1179 02c2 42EA0022 		orr	r2, r2, r0, lsl #8
 1180              		.loc 1 2309 0
 1181 02c6 43EA0123 		orr	r3, r3, r1, lsl #8
 1182              		.loc 1 2306 0
 1183 02ca 2261     		str	r2, [r4, #16]
 1184              		.loc 1 2309 0
 1185 02cc E360     		str	r3, [r4, #12]
ARM GAS  /tmp/ccZHgRNF.s 			page 22


 1186 02ce 96E7     		b	.L102
 1187              	.LVL140:
 1188              	.L147:
 1189              		.loc 1 2284 0 discriminator 1
 1190 02d0 4000     		lsls	r0, r0, #1
 1191              	.LVL141:
 1192 02d2 86E7     		b	.L99
 1193              	.LVL142:
 1194              	.L98:
 1195              		.loc 1 2272 0
 1196 02d4 0230     		adds	r0, r0, #2
 1197              	.LVL143:
 1198              		.loc 1 2274 0
 1199 02d6 06EB0C02 		add	r2, r6, ip
 1200              		.loc 1 2275 0
 1201 02da 3744     		add	r7, r7, r6
 1202              	.LVL144:
 1203              		.loc 1 2272 0
 1204 02dc 6061     		str	r0, [r4, #20]
 1205              		.loc 1 2274 0
 1206 02de 2262     		str	r2, [r4, #32]
 1207              		.loc 1 2275 0
 1208 02e0 A762     		str	r7, [r4, #40]
 1209              		.loc 1 2273 0
 1210 02e2 E661     		str	r6, [r4, #28]
 1211              		.loc 1 2277 0
 1212 02e4 0029     		cmp	r1, #0
 1213 02e6 7FF4CFAE 		bne	.L94
 1214              		.loc 1 2278 0
 1215 02ea 94F85E50 		ldrb	r5, [r4, #94]	@ zero_extendqisi2
 1216 02ee 94F85F70 		ldrb	r7, [r4, #95]	@ zero_extendqisi2
 1217 02f2 94F85C20 		ldrb	r2, [r4, #92]	@ zero_extendqisi2
 1218 02f6 94F85D10 		ldrb	r1, [r4, #93]	@ zero_extendqisi2
 1219              	.LVL145:
 1220 02fa 2D04     		lsls	r5, r5, #16
 1221 02fc 45EA0765 		orr	r5, r5, r7, lsl #24
 1222 0300 2A43     		orrs	r2, r2, r5
 1223 0302 42EA0122 		orr	r2, r2, r1, lsl #8
 1224              		.loc 1 2279 0
 1225 0306 8000     		lsls	r0, r0, #2
 1226              	.LVL146:
 1227              		.loc 1 2278 0
 1228 0308 6262     		str	r2, [r4, #36]
 1229              		.loc 1 2269 0
 1230 030a 0325     		movs	r5, #3
 1231 030c 69E7     		b	.L99
 1232              	.LVL147:
 1233              	.L116:
 1234              		.loc 1 2267 0
 1235 030e 0125     		movs	r5, #1
 1236 0310 51E7     		b	.L97
 1237              	.L150:
 1238 0312 00BF     		.align	2
 1239              	.L149:
 1240 0314 00000000 		.word	.LANCHOR0
 1241 0318 00000000 		.word	.LANCHOR1
 1242 031c 55AAFFFF 		.word	-21931
ARM GAS  /tmp/ccZHgRNF.s 			page 23


 1243 0320 52526141 		.word	1096897106
 1244              		.cfi_endproc
 1245              	.LFE267:
 1246              		.size	find_volume, .-find_volume
 1247              		.section	.text.get_fat.part.6,"ax",%progbits
 1248              		.align	2
 1249              		.p2align 4,,15
 1250              		.thumb
 1251              		.thumb_func
 1252              		.type	get_fat.part.6, %function
 1253              	get_fat.part.6:
 1254              	.LFB293:
 1255              		.loc 1 865 0
 1256              		.cfi_startproc
 1257              		@ args = 0, pretend = 0, frame = 0
 1258              		@ frame_needed = 0, uses_anonymous_args = 0
 1259              	.LVL148:
 1260 0000 F8B5     		push	{r3, r4, r5, r6, r7, lr}
 1261              		.cfi_def_cfa_offset 24
 1262              		.cfi_offset 3, -24
 1263              		.cfi_offset 4, -20
 1264              		.cfi_offset 5, -16
 1265              		.cfi_offset 6, -12
 1266              		.cfi_offset 7, -8
 1267              		.cfi_offset 14, -4
 1268              		.loc 1 877 0
 1269 0002 0378     		ldrb	r3, [r0]	@ zero_extendqisi2
 1270 0004 022B     		cmp	r3, #2
 1271              		.loc 1 865 0
 1272 0006 0446     		mov	r4, r0
 1273 0008 0D46     		mov	r5, r1
 1274              		.loc 1 877 0
 1275 000a 2CD0     		beq	.L153
 1276 000c 032B     		cmp	r3, #3
 1277 000e 0ED0     		beq	.L154
 1278 0010 012B     		cmp	r3, #1
 1279 0012 01D0     		beq	.L161
 1280              		.loc 1 897 0
 1281 0014 0120     		movs	r0, #1
 1282              	.LVL149:
 1283              		.loc 1 901 0
 1284 0016 F8BD     		pop	{r3, r4, r5, r6, r7, pc}
 1285              	.LVL150:
 1286              	.L161:
 1287              		.loc 1 880 0
 1288 0018 016A     		ldr	r1, [r0, #32]
 1289              	.LVL151:
 1290              		.loc 1 879 0
 1291 001a 05EB5506 		add	r6, r5, r5, lsr #1
 1292              	.LVL152:
 1293              		.loc 1 880 0
 1294 001e 01EB5621 		add	r1, r1, r6, lsr #9
 1295 0022 FFF7FEFF 		bl	move_window
 1296              	.LVL153:
 1297 0026 88B3     		cbz	r0, .L156
 1298              	.LVL154:
 1299              	.L157:
ARM GAS  /tmp/ccZHgRNF.s 			page 24


 1300              		.loc 1 900 0
 1301 0028 4FF0FF30 		mov	r0, #-1
 1302 002c F8BD     		pop	{r3, r4, r5, r6, r7, pc}
 1303              	.LVL155:
 1304              	.L154:
 1305              		.loc 1 892 0
 1306 002e 016A     		ldr	r1, [r0, #32]
 1307              	.LVL156:
 1308 0030 01EBD511 		add	r1, r1, r5, lsr #7
 1309 0034 FFF7FEFF 		bl	move_window
 1310              	.LVL157:
 1311 0038 0028     		cmp	r0, #0
 1312 003a F5D1     		bne	.L157
 1313              		.loc 1 893 0
 1314 003c AD00     		lsls	r5, r5, #2
 1315              	.LVL158:
 1316 003e 05F4FE75 		and	r5, r5, #508
 1317 0042 05F13003 		add	r3, r5, #48
 1318 0046 2344     		add	r3, r3, r4
 1319              	.LVL159:
 1320              		.loc 1 894 0
 1321 0048 2C44     		add	r4, r4, r5
 1322              	.LVL160:
 1323 004a D878     		ldrb	r0, [r3, #3]	@ zero_extendqisi2
 1324 004c 9978     		ldrb	r1, [r3, #2]	@ zero_extendqisi2
 1325 004e 5A78     		ldrb	r2, [r3, #1]	@ zero_extendqisi2
 1326 0050 94F83030 		ldrb	r3, [r4, #48]	@ zero_extendqisi2
 1327              	.LVL161:
 1328 0054 0006     		lsls	r0, r0, #24
 1329 0056 40EA0140 		orr	r0, r0, r1, lsl #16
 1330 005a 40EA0220 		orr	r0, r0, r2, lsl #8
 1331 005e 1843     		orrs	r0, r0, r3
 1332 0060 20F07040 		bic	r0, r0, #-268435456
 1333 0064 F8BD     		pop	{r3, r4, r5, r6, r7, pc}
 1334              	.LVL162:
 1335              	.L153:
 1336              		.loc 1 887 0
 1337 0066 016A     		ldr	r1, [r0, #32]
 1338              	.LVL163:
 1339 0068 01EB1521 		add	r1, r1, r5, lsr #8
 1340 006c FFF7FEFF 		bl	move_window
 1341              	.LVL164:
 1342 0070 0028     		cmp	r0, #0
 1343 0072 D9D1     		bne	.L157
 1344              		.loc 1 888 0
 1345 0074 6D00     		lsls	r5, r5, #1
 1346              	.LVL165:
 1347 0076 05F4FF75 		and	r5, r5, #510
 1348              	.LVL166:
 1349              		.loc 1 889 0
 1350 007a 6319     		adds	r3, r4, r5
 1351 007c 1C46     		mov	r4, r3
 1352              	.LVL167:
 1353 007e 93F83030 		ldrb	r3, [r3, #48]	@ zero_extendqisi2
 1354 0082 94F83100 		ldrb	r0, [r4, #49]	@ zero_extendqisi2
 1355 0086 43EA0020 		orr	r0, r3, r0, lsl #8
 1356 008a F8BD     		pop	{r3, r4, r5, r6, r7, pc}
ARM GAS  /tmp/ccZHgRNF.s 			page 25


 1357              	.LVL168:
 1358              	.L156:
 1359              		.loc 1 881 0
 1360 008c C6F30803 		ubfx	r3, r6, #0, #9
 1361              		.loc 1 882 0
 1362 0090 216A     		ldr	r1, [r4, #32]
 1363              		.loc 1 881 0
 1364 0092 2344     		add	r3, r3, r4
 1365 0094 0136     		adds	r6, r6, #1
 1366              	.LVL169:
 1367              		.loc 1 882 0
 1368 0096 01EB5621 		add	r1, r1, r6, lsr #9
 1369 009a 2046     		mov	r0, r4
 1370              		.loc 1 881 0
 1371 009c 93F83070 		ldrb	r7, [r3, #48]	@ zero_extendqisi2
 1372              	.LVL170:
 1373              		.loc 1 882 0
 1374 00a0 FFF7FEFF 		bl	move_window
 1375              	.LVL171:
 1376 00a4 0028     		cmp	r0, #0
 1377 00a6 BFD1     		bne	.L157
 1378              		.loc 1 883 0
 1379 00a8 C6F30806 		ubfx	r6, r6, #0, #9
 1380              	.LVL172:
 1381 00ac 3444     		add	r4, r4, r6
 1382              	.LVL173:
 1383 00ae 94F83030 		ldrb	r3, [r4, #48]	@ zero_extendqisi2
 1384 00b2 47EA0320 		orr	r0, r7, r3, lsl #8
 1385              	.LVL174:
 1386              		.loc 1 884 0
 1387 00b6 EB07     		lsls	r3, r5, #31
 1388 00b8 4CBF     		ite	mi
 1389 00ba 0009     		lsrmi	r0, r0, #4
 1390              	.LVL175:
 1391 00bc C0F30B00 		ubfxpl	r0, r0, #0, #12
 1392 00c0 F8BD     		pop	{r3, r4, r5, r6, r7, pc}
 1393              		.cfi_endproc
 1394              	.LFE293:
 1395              		.size	get_fat.part.6, .-get_fat.part.6
 1396 00c2 00BFAFF3 		.section	.text.dir_sdi,"ax",%progbits
 1396      0080AFF3 
 1396      0080AFF3 
 1396      0080
 1397              		.align	2
 1398              		.p2align 4,,15
 1399              		.thumb
 1400              		.thumb_func
 1401              		.type	dir_sdi, %function
 1402              	dir_sdi:
 1403              	.LFB253:
 1404              		.loc 1 1121 0
 1405              		.cfi_startproc
 1406              		@ args = 0, pretend = 0, frame = 0
 1407              		@ frame_needed = 0, uses_anonymous_args = 0
 1408              	.LVL176:
 1409              		.loc 1 1127 0
 1410 0000 8368     		ldr	r3, [r0, #8]
ARM GAS  /tmp/ccZHgRNF.s 			page 26


 1411              		.loc 1 1121 0
 1412 0002 70B5     		push	{r4, r5, r6, lr}
 1413              		.cfi_def_cfa_offset 16
 1414              		.cfi_offset 4, -16
 1415              		.cfi_offset 5, -12
 1416              		.cfi_offset 6, -8
 1417              		.cfi_offset 14, -4
 1418              		.loc 1 1121 0
 1419 0004 0446     		mov	r4, r0
 1420              	.LVL177:
 1421              		.loc 1 1128 0
 1422 0006 012B     		cmp	r3, #1
 1423              		.loc 1 1121 0
 1424 0008 0D46     		mov	r5, r1
 1425              		.loc 1 1126 0
 1426 000a E180     		strh	r1, [r4, #6]	@ movhi
 1427              		.loc 1 1128 0
 1428 000c 03D0     		beq	.L181
 1429              		.loc 1 1128 0 is_stmt 0 discriminator 1
 1430 000e 0068     		ldr	r0, [r0]
 1431              	.LVL178:
 1432 0010 4269     		ldr	r2, [r0, #20]
 1433 0012 9342     		cmp	r3, r2
 1434 0014 01D3     		bcc	.L182
 1435              	.LVL179:
 1436              	.L181:
 1437              		.loc 1 1150 0 is_stmt 1
 1438 0016 0220     		movs	r0, #2
 1439 0018 70BD     		pop	{r4, r5, r6, pc}
 1440              	.LVL180:
 1441              	.L182:
 1442              		.loc 1 1130 0
 1443 001a C3B9     		cbnz	r3, .L166
 1444              		.loc 1 1130 0 is_stmt 0 discriminator 1
 1445 001c 0178     		ldrb	r1, [r0]	@ zero_extendqisi2
 1446              	.LVL181:
 1447 001e 0329     		cmp	r1, #3
 1448 0020 11D0     		beq	.L183
 1449              	.LVL182:
 1450              	.L167:
 1451              		.loc 1 1134 0 is_stmt 1
 1452 0022 0289     		ldrh	r2, [r0, #8]
 1453 0024 9542     		cmp	r5, r2
 1454 0026 F6D2     		bcs	.L181
 1455              		.loc 1 1136 0
 1456 0028 426A     		ldr	r2, [r0, #36]
 1457              	.LVL183:
 1458              	.L168:
 1459              		.loc 1 1149 0
 1460 002a E360     		str	r3, [r4, #12]
 1461              		.loc 1 1150 0
 1462 002c 002A     		cmp	r2, #0
 1463 002e F2D0     		beq	.L181
 1464              		.loc 1 1152 0
 1465 0030 05F00F03 		and	r3, r5, #15
 1466              	.LVL184:
 1467 0034 00EB4310 		add	r0, r0, r3, lsl #5
ARM GAS  /tmp/ccZHgRNF.s 			page 27


 1468              		.loc 1 1151 0
 1469 0038 02EB1512 		add	r2, r2, r5, lsr #4
 1470              	.LVL185:
 1471              		.loc 1 1152 0
 1472 003c 3030     		adds	r0, r0, #48
 1473 003e 6061     		str	r0, [r4, #20]
 1474              		.loc 1 1151 0
 1475 0040 2261     		str	r2, [r4, #16]
 1476              		.loc 1 1154 0
 1477 0042 0020     		movs	r0, #0
 1478 0044 70BD     		pop	{r4, r5, r6, pc}
 1479              	.LVL186:
 1480              	.L183:
 1481              		.loc 1 1131 0
 1482 0046 416A     		ldr	r1, [r0, #36]
 1483              	.LVL187:
 1484              		.loc 1 1133 0
 1485 0048 0029     		cmp	r1, #0
 1486 004a EAD0     		beq	.L167
 1487 004c 0B46     		mov	r3, r1
 1488              	.LVL188:
 1489              	.L166:
 1490              		.loc 1 1139 0
 1491 004e 8678     		ldrb	r6, [r0, #2]	@ zero_extendqisi2
 1492 0050 3601     		lsls	r6, r6, #4
 1493              	.LVL189:
 1494              		.loc 1 1140 0
 1495 0052 B542     		cmp	r5, r6
 1496 0054 19D3     		bcc	.L169
 1497              	.LVL190:
 1498              	.LBB176:
 1499              	.LBB177:
 1500              		.loc 1 874 0
 1501 0056 012B     		cmp	r3, #1
 1502 0058 DDD9     		bls	.L181
 1503 005a 9A42     		cmp	r2, r3
 1504 005c C6EB0505 		rsb	r5, r6, r5
 1505              	.LVL191:
 1506 0060 D9D9     		bls	.L181
 1507 0062 08E0     		b	.L172
 1508              	.LVL192:
 1509              	.L184:
 1510              	.LBE177:
 1511              	.LBE176:
 1512              		.loc 1 1143 0
 1513 0064 0128     		cmp	r0, #1
 1514 0066 D6D9     		bls	.L181
 1515              		.loc 1 1143 0 is_stmt 0 discriminator 1
 1516 0068 2068     		ldr	r0, [r4]
 1517              	.LVL193:
 1518 006a 4269     		ldr	r2, [r0, #20]
 1519 006c 9A42     		cmp	r2, r3
 1520 006e D2D9     		bls	.L181
 1521              		.loc 1 1140 0 is_stmt 1
 1522 0070 AE42     		cmp	r6, r5
 1523 0072 0AD8     		bhi	.L169
 1524 0074 0D46     		mov	r5, r1
ARM GAS  /tmp/ccZHgRNF.s 			page 28


 1525              	.L172:
 1526              	.LBB180:
 1527              	.LBB178:
 1528 0076 1946     		mov	r1, r3
 1529 0078 FFF7FEFF 		bl	get_fat.part.6
 1530              	.LVL194:
 1531              	.LBE178:
 1532              	.LBE180:
 1533              		.loc 1 1142 0
 1534 007c 421C     		adds	r2, r0, #1
 1535              	.LBB181:
 1536              	.LBB179:
 1537 007e 0346     		mov	r3, r0
 1538              	.LVL195:
 1539 0080 C6EB0501 		rsb	r1, r6, r5
 1540              	.LBE179:
 1541              	.LBE181:
 1542 0084 EED1     		bne	.L184
 1543 0086 0120     		movs	r0, #1
 1544              	.LVL196:
 1545 0088 70BD     		pop	{r4, r5, r6, pc}
 1546              	.LVL197:
 1547              	.L169:
 1548              	.LBB182:
 1549              	.LBB183:
 1550              		.loc 1 853 0
 1551 008a 023A     		subs	r2, r2, #2
 1552              		.loc 1 852 0
 1553 008c 991E     		subs	r1, r3, #2
 1554              	.LVL198:
 1555              		.loc 1 853 0
 1556 008e 9142     		cmp	r1, r2
 1557 0090 04D2     		bcs	.L171
 1558              		.loc 1 854 0
 1559 0092 8678     		ldrb	r6, [r0, #2]	@ zero_extendqisi2
 1560              	.LVL199:
 1561 0094 826A     		ldr	r2, [r0, #40]
 1562 0096 06FB0122 		mla	r2, r6, r1, r2
 1563 009a C6E7     		b	.L168
 1564              	.LVL200:
 1565              	.L171:
 1566              	.LBE183:
 1567              	.LBE182:
 1568              		.loc 1 1149 0
 1569 009c E360     		str	r3, [r4, #12]
 1570 009e BAE7     		b	.L181
 1571              		.cfi_endproc
 1572              	.LFE253:
 1573              		.size	dir_sdi, .-dir_sdi
 1574              		.section	.text.dir_remove,"ax",%progbits
 1575              		.align	2
 1576              		.p2align 4,,15
 1577              		.thumb
 1578              		.thumb_func
 1579              		.type	dir_remove, %function
 1580              	dir_remove:
 1581              	.LFB261:
ARM GAS  /tmp/ccZHgRNF.s 			page 29


 1582              		.loc 1 1691 0
 1583              		.cfi_startproc
 1584              		@ args = 0, pretend = 0, frame = 0
 1585              		@ frame_needed = 0, uses_anonymous_args = 0
 1586              	.LVL201:
 1587 0000 10B5     		push	{r4, lr}
 1588              		.cfi_def_cfa_offset 8
 1589              		.cfi_offset 4, -8
 1590              		.cfi_offset 14, -4
 1591              		.loc 1 1712 0
 1592 0002 C188     		ldrh	r1, [r0, #6]
 1593              		.loc 1 1691 0
 1594 0004 0446     		mov	r4, r0
 1595              		.loc 1 1712 0
 1596 0006 FFF7FEFF 		bl	dir_sdi
 1597              	.LVL202:
 1598              		.loc 1 1713 0
 1599 000a 00B1     		cbz	r0, .L191
 1600              	.LVL203:
 1601              	.L186:
 1602              		.loc 1 1724 0
 1603 000c 10BD     		pop	{r4, pc}
 1604              	.LVL204:
 1605              	.L191:
 1606              	.LBB188:
 1607              	.LBB189:
 1608              		.loc 1 1714 0
 1609 000e 2068     		ldr	r0, [r4]
 1610              	.LVL205:
 1611 0010 2169     		ldr	r1, [r4, #16]
 1612 0012 FFF7FEFF 		bl	move_window
 1613              	.LVL206:
 1614              		.loc 1 1715 0
 1615 0016 0028     		cmp	r0, #0
 1616 0018 F8D1     		bne	.L186
 1617              		.loc 1 1716 0
 1618 001a 6369     		ldr	r3, [r4, #20]
 1619              	.LVL207:
 1620              	.LBB190:
 1621              	.LBB191:
 1622              		.loc 1 583 0
 1623 001c 0146     		mov	r1, r0
 1624 001e 03F12002 		add	r2, r3, #32
 1625              	.LVL208:
 1626              	.L189:
 1627 0022 03F8011B 		strb	r1, [r3], #1
 1628              	.LVL209:
 1629              		.loc 1 582 0
 1630 0026 9342     		cmp	r3, r2
 1631 0028 FBD1     		bne	.L189
 1632              	.LBE191:
 1633              	.LBE190:
 1634              		.loc 1 1717 0
 1635 002a 6369     		ldr	r3, [r4, #20]
 1636              	.LVL210:
 1637 002c E522     		movs	r2, #229
 1638              	.LVL211:
ARM GAS  /tmp/ccZHgRNF.s 			page 30


 1639 002e 1A70     		strb	r2, [r3]
 1640              		.loc 1 1718 0
 1641 0030 2368     		ldr	r3, [r4]
 1642 0032 0122     		movs	r2, #1
 1643 0034 1A71     		strb	r2, [r3, #4]
 1644              	.LVL212:
 1645              	.LBE189:
 1646              	.LBE188:
 1647              		.loc 1 1724 0
 1648 0036 10BD     		pop	{r4, pc}
 1649              		.cfi_endproc
 1650              	.LFE261:
 1651              		.size	dir_remove, .-dir_remove
 1652 0038 AFF30080 		.section	.text.put_fat.part.8,"ax",%progbits
 1652      AFF30080 
 1653              		.align	2
 1654              		.p2align 4,,15
 1655              		.thumb
 1656              		.thumb_func
 1657              		.type	put_fat.part.8, %function
 1658              	put_fat.part.8:
 1659              	.LFB295:
 1660              		.loc 1 911 0
 1661              		.cfi_startproc
 1662              		@ args = 0, pretend = 0, frame = 0
 1663              		@ frame_needed = 0, uses_anonymous_args = 0
 1664              	.LVL213:
 1665 0000 F8B5     		push	{r3, r4, r5, r6, r7, lr}
 1666              		.cfi_def_cfa_offset 24
 1667              		.cfi_offset 3, -24
 1668              		.cfi_offset 4, -20
 1669              		.cfi_offset 5, -16
 1670              		.cfi_offset 6, -12
 1671              		.cfi_offset 7, -8
 1672              		.cfi_offset 14, -4
 1673              		.loc 1 926 0
 1674 0002 0378     		ldrb	r3, [r0]	@ zero_extendqisi2
 1675 0004 022B     		cmp	r3, #2
 1676              		.loc 1 911 0
 1677 0006 0446     		mov	r4, r0
 1678 0008 0D46     		mov	r5, r1
 1679 000a 1646     		mov	r6, r2
 1680              		.loc 1 926 0
 1681 000c 59D0     		beq	.L194
 1682 000e 032B     		cmp	r3, #3
 1683 0010 38D0     		beq	.L195
 1684 0012 012B     		cmp	r3, #1
 1685 0014 03D0     		beq	.L203
 1686              		.loc 1 957 0
 1687 0016 0220     		movs	r0, #2
 1688              	.LVL214:
 1689              	.L193:
 1690              		.loc 1 959 0
 1691 0018 0123     		movs	r3, #1
 1692 001a 2371     		strb	r3, [r4, #4]
 1693              		.loc 1 963 0
 1694 001c F8BD     		pop	{r3, r4, r5, r6, r7, pc}
ARM GAS  /tmp/ccZHgRNF.s 			page 31


 1695              	.LVL215:
 1696              	.L203:
 1697              		.loc 1 929 0
 1698 001e 016A     		ldr	r1, [r0, #32]
 1699              	.LVL216:
 1700              		.loc 1 928 0
 1701 0020 05EB5507 		add	r7, r5, r5, lsr #1
 1702              	.LVL217:
 1703              		.loc 1 929 0
 1704 0024 01EB5721 		add	r1, r1, r7, lsr #9
 1705 0028 FFF7FEFF 		bl	move_window
 1706              	.LVL218:
 1707              		.loc 1 930 0
 1708 002c 0028     		cmp	r0, #0
 1709 002e F3D1     		bne	.L193
 1710              		.loc 1 931 0
 1711 0030 C7F30803 		ubfx	r3, r7, #0, #9
 1712              	.LVL219:
 1713              		.loc 1 932 0
 1714 0034 15F00105 		ands	r5, r5, #1
 1715              	.LVL220:
 1716 0038 2344     		add	r3, r3, r4
 1717              	.LVL221:
 1718 003a F2B2     		uxtb	r2, r6
 1719 003c 06D0     		beq	.L198
 1720 003e 93F83010 		ldrb	r1, [r3, #48]	@ zero_extendqisi2
 1721 0042 01F00F01 		and	r1, r1, #15
 1722 0046 41EA0212 		orr	r2, r1, r2, lsl #4
 1723 004a D2B2     		uxtb	r2, r2
 1724              	.L198:
 1725              		.loc 1 935 0
 1726 004c 216A     		ldr	r1, [r4, #32]
 1727              		.loc 1 932 0
 1728 004e 83F83020 		strb	r2, [r3, #48]
 1729              		.loc 1 933 0
 1730 0052 0137     		adds	r7, r7, #1
 1731              	.LVL222:
 1732              		.loc 1 934 0
 1733 0054 0123     		movs	r3, #1
 1734              		.loc 1 935 0
 1735 0056 01EB5721 		add	r1, r1, r7, lsr #9
 1736              		.loc 1 934 0
 1737 005a 2371     		strb	r3, [r4, #4]
 1738              		.loc 1 935 0
 1739 005c 2046     		mov	r0, r4
 1740              	.LVL223:
 1741 005e FFF7FEFF 		bl	move_window
 1742              	.LVL224:
 1743              		.loc 1 936 0
 1744 0062 0028     		cmp	r0, #0
 1745 0064 D8D1     		bne	.L193
 1746              		.loc 1 937 0
 1747 0066 C7F30807 		ubfx	r7, r7, #0, #9
 1748              	.LVL225:
 1749              		.loc 1 938 0
 1750 006a 002D     		cmp	r5, #0
 1751 006c 3DD1     		bne	.L204
ARM GAS  /tmp/ccZHgRNF.s 			page 32


 1752 006e 2744     		add	r7, r7, r4
 1753              	.LVL226:
 1754 0070 C6F30326 		ubfx	r6, r6, #8, #4
 1755              	.LVL227:
 1756 0074 97F83030 		ldrb	r3, [r7, #48]	@ zero_extendqisi2
 1757 0078 23F00F03 		bic	r3, r3, #15
 1758 007c 1E43     		orrs	r6, r6, r3
 1759              	.L200:
 1760 007e 87F83060 		strb	r6, [r7, #48]
 1761 0082 C9E7     		b	.L193
 1762              	.LVL228:
 1763              	.L195:
 1764              		.loc 1 949 0
 1765 0084 016A     		ldr	r1, [r0, #32]
 1766              	.LVL229:
 1767 0086 01EBD511 		add	r1, r1, r5, lsr #7
 1768 008a FFF7FEFF 		bl	move_window
 1769              	.LVL230:
 1770              		.loc 1 950 0
 1771 008e 0028     		cmp	r0, #0
 1772 0090 C2D1     		bne	.L193
 1773              		.loc 1 951 0
 1774 0092 AD00     		lsls	r5, r5, #2
 1775              	.LVL231:
 1776 0094 05F4FE75 		and	r5, r5, #508
 1777 0098 05F13003 		add	r3, r5, #48
 1778 009c 2344     		add	r3, r3, r4
 1779              	.LVL232:
 1780              		.loc 1 952 0
 1781 009e 2544     		add	r5, r5, r4
 1782 00a0 DA78     		ldrb	r2, [r3, #3]	@ zero_extendqisi2
 1783 00a2 1206     		lsls	r2, r2, #24
 1784 00a4 02F07042 		and	r2, r2, #-268435456
 1785 00a8 1643     		orrs	r6, r6, r2
 1786              	.LVL233:
 1787              		.loc 1 953 0
 1788 00aa C6F30727 		ubfx	r7, r6, #8, #8
 1789 00ae 310C     		lsrs	r1, r6, #16
 1790 00b0 320E     		lsrs	r2, r6, #24
 1791 00b2 85F83060 		strb	r6, [r5, #48]
 1792 00b6 5F70     		strb	r7, [r3, #1]
 1793 00b8 9970     		strb	r1, [r3, #2]
 1794 00ba DA70     		strb	r2, [r3, #3]
 1795              		.loc 1 959 0
 1796 00bc 0123     		movs	r3, #1
 1797              	.LVL234:
 1798 00be 2371     		strb	r3, [r4, #4]
 1799              		.loc 1 963 0
 1800 00c0 F8BD     		pop	{r3, r4, r5, r6, r7, pc}
 1801              	.LVL235:
 1802              	.L194:
 1803              		.loc 1 942 0
 1804 00c2 016A     		ldr	r1, [r0, #32]
 1805              	.LVL236:
 1806 00c4 01EB1521 		add	r1, r1, r5, lsr #8
 1807 00c8 FFF7FEFF 		bl	move_window
 1808              	.LVL237:
ARM GAS  /tmp/ccZHgRNF.s 			page 33


 1809              		.loc 1 943 0
 1810 00cc 0028     		cmp	r0, #0
 1811 00ce A3D1     		bne	.L193
 1812              		.loc 1 944 0
 1813 00d0 6D00     		lsls	r5, r5, #1
 1814              	.LVL238:
 1815 00d2 05F4FF75 		and	r5, r5, #510
 1816              	.LVL239:
 1817              		.loc 1 945 0
 1818 00d6 6219     		adds	r2, r4, r5
 1819 00d8 C6F30723 		ubfx	r3, r6, #8, #8
 1820 00dc 82F83130 		strb	r3, [r2, #49]
 1821              		.loc 1 959 0
 1822 00e0 0123     		movs	r3, #1
 1823              		.loc 1 945 0
 1824 00e2 82F83060 		strb	r6, [r2, #48]
 1825              		.loc 1 959 0
 1826 00e6 2371     		strb	r3, [r4, #4]
 1827              		.loc 1 963 0
 1828 00e8 F8BD     		pop	{r3, r4, r5, r6, r7, pc}
 1829              	.LVL240:
 1830              	.L204:
 1831              		.loc 1 938 0
 1832 00ea C6F30716 		ubfx	r6, r6, #4, #8
 1833              	.LVL241:
 1834 00ee 2744     		add	r7, r7, r4
 1835              	.LVL242:
 1836 00f0 C5E7     		b	.L200
 1837              		.cfi_endproc
 1838              	.LFE295:
 1839              		.size	put_fat.part.8, .-put_fat.part.8
 1840 00f2 00BFAFF3 		.section	.text.create_chain,"ax",%progbits
 1840      0080AFF3 
 1840      0080AFF3 
 1840      0080
 1841              		.align	2
 1842              		.p2align 4,,15
 1843              		.thumb
 1844              		.thumb_func
 1845              		.type	create_chain, %function
 1846              	create_chain:
 1847              	.LFB252:
 1848              		.loc 1 1031 0
 1849              		.cfi_startproc
 1850              		@ args = 0, pretend = 0, frame = 0
 1851              		@ frame_needed = 0, uses_anonymous_args = 0
 1852              	.LVL243:
 1853 0000 F8B5     		push	{r3, r4, r5, r6, r7, lr}
 1854              		.cfi_def_cfa_offset 24
 1855              		.cfi_offset 3, -24
 1856              		.cfi_offset 4, -20
 1857              		.cfi_offset 5, -16
 1858              		.cfi_offset 6, -12
 1859              		.cfi_offset 7, -8
 1860              		.cfi_offset 14, -4
 1861              		.loc 1 1031 0
 1862 0002 0546     		mov	r5, r0
ARM GAS  /tmp/ccZHgRNF.s 			page 34


 1863              		.loc 1 1036 0
 1864 0004 0F46     		mov	r7, r1
 1865 0006 E9B9     		cbnz	r1, .L206
 1866              		.loc 1 1037 0
 1867 0008 C668     		ldr	r6, [r0, #12]
 1868              	.LVL244:
 1869 000a 4369     		ldr	r3, [r0, #20]
 1870              		.loc 1 1038 0
 1871 000c 56BB     		cbnz	r6, .L207
 1872 000e 0126     		movs	r6, #1
 1873              	.LVL245:
 1874              	.L208:
 1875 0010 3446     		mov	r4, r6
 1876 0012 10E0     		b	.L219
 1877              	.LVL246:
 1878              	.L241:
 1879              		.loc 1 1053 0
 1880 0014 012E     		cmp	r6, #1
 1881 0016 2ED9     		bls	.L218
 1882              	.LBB192:
 1883              	.LBB193:
 1884              		.loc 1 874 0
 1885 0018 022B     		cmp	r3, #2
 1886 001a 11D9     		bls	.L236
 1887              	.LBE193:
 1888              	.LBE192:
 1889              		.loc 1 1052 0
 1890 001c 0224     		movs	r4, #2
 1891              	.LVL247:
 1892              	.L215:
 1893              	.LBB196:
 1894              	.LBB194:
 1895 001e 2846     		mov	r0, r5
 1896 0020 2146     		mov	r1, r4
 1897 0022 FFF7FEFF 		bl	get_fat.part.6
 1898              	.LVL248:
 1899              	.LBE194:
 1900              	.LBE196:
 1901              		.loc 1 1056 0
 1902 0026 40B3     		cbz	r0, .L216
 1903              		.loc 1 1057 0
 1904 0028 411C     		adds	r1, r0, #1
 1905 002a 21D0     		beq	.L217
 1906              		.loc 1 1057 0 is_stmt 0 discriminator 1
 1907 002c 0128     		cmp	r0, #1
 1908 002e 07D0     		beq	.L236
 1909              		.loc 1 1059 0 is_stmt 1
 1910 0030 A642     		cmp	r6, r4
 1911 0032 20D0     		beq	.L218
 1912 0034 6B69     		ldr	r3, [r5, #20]
 1913              	.LVL249:
 1914              	.L219:
 1915              		.loc 1 1050 0
 1916 0036 0134     		adds	r4, r4, #1
 1917              	.LVL250:
 1918              		.loc 1 1051 0
 1919 0038 9C42     		cmp	r4, r3
ARM GAS  /tmp/ccZHgRNF.s 			page 35


 1920 003a EBD2     		bcs	.L241
 1921              	.LBB197:
 1922              	.LBB195:
 1923              		.loc 1 874 0
 1924 003c 012C     		cmp	r4, #1
 1925 003e EED8     		bhi	.L215
 1926              	.LVL251:
 1927              	.L236:
 1928              	.LBE195:
 1929              	.LBE197:
 1930              		.loc 1 1073 0
 1931 0040 0120     		movs	r0, #1
 1932              	.L231:
 1933              		.loc 1 1077 0
 1934 0042 F8BD     		pop	{r3, r4, r5, r6, r7, pc}
 1935              	.LVL252:
 1936              	.L206:
 1937              	.LBB198:
 1938              	.LBB199:
 1939              		.loc 1 874 0
 1940 0044 0129     		cmp	r1, #1
 1941 0046 FBD9     		bls	.L236
 1942 0048 4369     		ldr	r3, [r0, #20]
 1943 004a 9942     		cmp	r1, r3
 1944 004c F8D2     		bcs	.L236
 1945 004e FFF7FEFF 		bl	get_fat.part.6
 1946              	.LVL253:
 1947              	.LBE199:
 1948              	.LBE198:
 1949              		.loc 1 1042 0
 1950 0052 0128     		cmp	r0, #1
 1951 0054 F4D9     		bls	.L236
 1952              		.loc 1 1043 0
 1953 0056 441C     		adds	r4, r0, #1
 1954 0058 0AD0     		beq	.L217
 1955              		.loc 1 1044 0
 1956 005a 6B69     		ldr	r3, [r5, #20]
 1957 005c 8342     		cmp	r3, r0
 1958 005e F0D8     		bhi	.L231
 1959 0060 3E46     		mov	r6, r7
 1960 0062 D5E7     		b	.L208
 1961              	.LVL254:
 1962              	.L207:
 1963              		.loc 1 1038 0 discriminator 2
 1964 0064 9E42     		cmp	r6, r3
 1965 0066 28BF     		it	cs
 1966 0068 0126     		movcs	r6, #1
 1967              	.LVL255:
 1968 006a D1E7     		b	.L208
 1969              	.LVL256:
 1970              	.L225:
 1971              		.loc 1 1073 0
 1972 006c 0128     		cmp	r0, #1
 1973 006e E7D1     		bne	.L236
 1974              	.LVL257:
 1975              	.L217:
 1976              		.loc 1 1042 0
ARM GAS  /tmp/ccZHgRNF.s 			page 36


 1977 0070 4FF0FF30 		mov	r0, #-1
 1978 0074 F8BD     		pop	{r3, r4, r5, r6, r7, pc}
 1979              	.LVL258:
 1980              	.L218:
 1981              		.loc 1 1053 0
 1982 0076 0020     		movs	r0, #0
 1983 0078 F8BD     		pop	{r3, r4, r5, r6, r7, pc}
 1984              	.LVL259:
 1985              	.L216:
 1986              	.LBB200:
 1987              	.LBB201:
 1988              		.loc 1 922 0
 1989 007a 6B69     		ldr	r3, [r5, #20]
 1990 007c A342     		cmp	r3, r4
 1991 007e DFD9     		bls	.L236
 1992 0080 2846     		mov	r0, r5
 1993 0082 2146     		mov	r1, r4
 1994 0084 6FF07042 		mvn	r2, #-268435456
 1995 0088 FFF7FEFF 		bl	put_fat.part.8
 1996              	.LVL260:
 1997              	.LBE201:
 1998              	.LBE200:
 1999              		.loc 1 1063 0
 2000 008c 0028     		cmp	r0, #0
 2001 008e EDD1     		bne	.L225
 2002              		.loc 1 1063 0 is_stmt 0 discriminator 1
 2003 0090 5FB1     		cbz	r7, .L224
 2004              	.LVL261:
 2005              	.LBB202:
 2006              	.LBB203:
 2007              		.loc 1 922 0 is_stmt 1
 2008 0092 012F     		cmp	r7, #1
 2009 0094 D4D9     		bls	.L236
 2010 0096 6B69     		ldr	r3, [r5, #20]
 2011 0098 9F42     		cmp	r7, r3
 2012 009a D1D2     		bcs	.L236
 2013 009c 3946     		mov	r1, r7
 2014 009e 2846     		mov	r0, r5
 2015              	.LVL262:
 2016 00a0 2246     		mov	r2, r4
 2017 00a2 FFF7FEFF 		bl	put_fat.part.8
 2018              	.LVL263:
 2019              	.LBE203:
 2020              	.LBE202:
 2021              		.loc 1 1066 0
 2022 00a6 0028     		cmp	r0, #0
 2023 00a8 E0D1     		bne	.L225
 2024              	.LVL264:
 2025              	.L224:
 2026              		.loc 1 1068 0
 2027 00aa 2B69     		ldr	r3, [r5, #16]
 2028              		.loc 1 1067 0
 2029 00ac EC60     		str	r4, [r5, #12]
 2030              		.loc 1 1068 0
 2031 00ae 5A1C     		adds	r2, r3, #1
 2032 00b0 07D0     		beq	.L242
 2033              		.loc 1 1070 0
ARM GAS  /tmp/ccZHgRNF.s 			page 37


 2034 00b2 6A79     		ldrb	r2, [r5, #5]	@ zero_extendqisi2
 2035 00b4 42F00102 		orr	r2, r2, #1
 2036              		.loc 1 1069 0
 2037 00b8 013B     		subs	r3, r3, #1
 2038              		.loc 1 1070 0
 2039 00ba 6A71     		strb	r2, [r5, #5]
 2040              		.loc 1 1069 0
 2041 00bc 2B61     		str	r3, [r5, #16]
 2042              		.loc 1 1070 0
 2043 00be 2046     		mov	r0, r4
 2044 00c0 F8BD     		pop	{r3, r4, r5, r6, r7, pc}
 2045              	.LVL265:
 2046              	.L242:
 2047 00c2 2046     		mov	r0, r4
 2048 00c4 F8BD     		pop	{r3, r4, r5, r6, r7, pc}
 2049              		.cfi_endproc
 2050              	.LFE252:
 2051              		.size	create_chain, .-create_chain
 2052 00c6 00BFAFF3 		.section	.text.dir_next,"ax",%progbits
 2052      0080AFF3 
 2052      0080
 2053              		.align	2
 2054              		.p2align 4,,15
 2055              		.thumb
 2056              		.thumb_func
 2057              		.type	dir_next, %function
 2058              	dir_next:
 2059              	.LFB254:
 2060              		.loc 1 1169 0
 2061              		.cfi_startproc
 2062              		@ args = 0, pretend = 0, frame = 0
 2063              		@ frame_needed = 0, uses_anonymous_args = 0
 2064              	.LVL266:
 2065 0000 2DE9F047 		push	{r4, r5, r6, r7, r8, r9, r10, lr}
 2066              		.cfi_def_cfa_offset 32
 2067              		.cfi_offset 4, -32
 2068              		.cfi_offset 5, -28
 2069              		.cfi_offset 6, -24
 2070              		.cfi_offset 7, -20
 2071              		.cfi_offset 8, -16
 2072              		.cfi_offset 9, -12
 2073              		.cfi_offset 10, -8
 2074              		.cfi_offset 14, -4
 2075              		.loc 1 1174 0
 2076 0004 C588     		ldrh	r5, [r0, #6]
 2077 0006 0135     		adds	r5, r5, #1
 2078              	.LVL267:
 2079              		.loc 1 1175 0
 2080 0008 ABB2     		uxth	r3, r5
 2081              		.loc 1 1169 0
 2082 000a 0446     		mov	r4, r0
 2083 000c 0E46     		mov	r6, r1
 2084              		.loc 1 1175 0
 2085 000e 13B9     		cbnz	r3, .L244
 2086              	.LVL268:
 2087              	.L246:
 2088              		.loc 1 1176 0
ARM GAS  /tmp/ccZHgRNF.s 			page 38


 2089 0010 0420     		movs	r0, #4
 2090 0012 BDE8F087 		pop	{r4, r5, r6, r7, r8, r9, r10, pc}
 2091              	.LVL269:
 2092              	.L244:
 2093              		.loc 1 1175 0 discriminator 1
 2094 0016 0369     		ldr	r3, [r0, #16]
 2095 0018 002B     		cmp	r3, #0
 2096 001a F9D0     		beq	.L246
 2097              		.loc 1 1178 0
 2098 001c 15F00F07 		ands	r7, r5, #15
 2099 0020 08D0     		beq	.L247
 2100 0022 0368     		ldr	r3, [r0]
 2101              	.LVL270:
 2102              	.L248:
 2103              		.loc 1 1220 0
 2104 0024 03EB4713 		add	r3, r3, r7, lsl #5
 2105 0028 3033     		adds	r3, r3, #48
 2106 002a 6361     		str	r3, [r4, #20]
 2107              		.loc 1 1219 0
 2108 002c E580     		strh	r5, [r4, #6]	@ movhi
 2109              		.loc 1 1222 0
 2110 002e 0020     		movs	r0, #0
 2111 0030 BDE8F087 		pop	{r4, r5, r6, r7, r8, r9, r10, pc}
 2112              	.LVL271:
 2113              	.L247:
 2114              		.loc 1 1181 0
 2115 0034 C168     		ldr	r1, [r0, #12]
 2116              	.LVL272:
 2117              		.loc 1 1179 0
 2118 0036 0133     		adds	r3, r3, #1
 2119 0038 0361     		str	r3, [r0, #16]
 2120              		.loc 1 1182 0
 2121 003a 0368     		ldr	r3, [r0]
 2122              		.loc 1 1181 0
 2123 003c 61B1     		cbz	r1, .L284
 2124              		.loc 1 1186 0
 2125 003e 9A78     		ldrb	r2, [r3, #2]	@ zero_extendqisi2
 2126 0040 013A     		subs	r2, r2, #1
 2127 0042 12EA1512 		ands	r2, r2, r5, lsr #4
 2128 0046 EDD1     		bne	.L248
 2129              	.LVL273:
 2130              	.LBB204:
 2131              	.LBB205:
 2132              		.loc 1 874 0
 2133 0048 0129     		cmp	r1, #1
 2134 004a 02D9     		bls	.L251
 2135 004c 5A69     		ldr	r2, [r3, #20]
 2136 004e 9142     		cmp	r1, r2
 2137 0050 06D3     		bcc	.L285
 2138              	.LVL274:
 2139              	.L251:
 2140              	.LBE205:
 2141              	.LBE204:
 2142              		.loc 1 1188 0
 2143 0052 0220     		movs	r0, #2
 2144 0054 BDE8F087 		pop	{r4, r5, r6, r7, r8, r9, r10, pc}
 2145              	.LVL275:
ARM GAS  /tmp/ccZHgRNF.s 			page 39


 2146              	.L284:
 2147              		.loc 1 1182 0
 2148 0058 1A89     		ldrh	r2, [r3, #8]
 2149 005a 9542     		cmp	r5, r2
 2150 005c D8D2     		bcs	.L246
 2151 005e E1E7     		b	.L248
 2152              	.LVL276:
 2153              	.L285:
 2154              	.LBB208:
 2155              	.LBB206:
 2156 0060 1846     		mov	r0, r3
 2157              	.LVL277:
 2158 0062 FFF7FEFF 		bl	get_fat.part.6
 2159              	.LVL278:
 2160              	.LBE206:
 2161              	.LBE208:
 2162              		.loc 1 1188 0
 2163 0066 0128     		cmp	r0, #1
 2164              	.LBB209:
 2165              	.LBB207:
 2166 0068 8046     		mov	r8, r0
 2167              	.LBE207:
 2168              	.LBE209:
 2169 006a F2D9     		bls	.L251
 2170              		.loc 1 1189 0
 2171 006c B0F1FF3F 		cmp	r0, #-1
 2172 0070 1BD0     		beq	.L254
 2173              		.loc 1 1190 0
 2174 0072 2368     		ldr	r3, [r4]
 2175 0074 5A69     		ldr	r2, [r3, #20]
 2176 0076 8242     		cmp	r2, r0
 2177 0078 0CD9     		bls	.L283
 2178 007a 861E     		subs	r6, r0, #2
 2179              	.LVL279:
 2180              	.L253:
 2181              	.LBB210:
 2182              	.LBB211:
 2183              		.loc 1 853 0
 2184 007c 023A     		subs	r2, r2, #2
 2185 007e 9642     		cmp	r6, r2
 2186              	.LBE211:
 2187              	.LBE210:
 2188              		.loc 1 1213 0
 2189 0080 C4F80C80 		str	r8, [r4, #12]
 2190              	.LVL280:
 2191              	.LBB213:
 2192              	.LBB212:
 2193              		.loc 1 854 0
 2194 0084 3BBF     		ittet	cc
 2195 0086 9978     		ldrbcc	r1, [r3, #2]	@ zero_extendqisi2
 2196 0088 9A6A     		ldrcc	r2, [r3, #40]
 2197              		.loc 1 853 0
 2198 008a 0026     		movcs	r6, #0
 2199              	.LVL281:
 2200              		.loc 1 854 0
 2201 008c 01FB0626 		mlacc	r6, r1, r6, r2
 2202              	.LBE212:
ARM GAS  /tmp/ccZHgRNF.s 			page 40


 2203              	.LBE213:
 2204              		.loc 1 1214 0
 2205 0090 2661     		str	r6, [r4, #16]
 2206 0092 C7E7     		b	.L248
 2207              	.LVL282:
 2208              	.L283:
 2209              	.LBB214:
 2210              		.loc 1 1193 0
 2211 0094 002E     		cmp	r6, #0
 2212 0096 BBD0     		beq	.L246
 2213              		.loc 1 1194 0
 2214 0098 1846     		mov	r0, r3
 2215 009a E168     		ldr	r1, [r4, #12]
 2216 009c FFF7FEFF 		bl	create_chain
 2217              	.LVL283:
 2218              		.loc 1 1195 0
 2219 00a0 8046     		mov	r8, r0
 2220 00a2 28B9     		cbnz	r0, .L286
 2221 00a4 0720     		movs	r0, #7
 2222              	.LVL284:
 2223              	.LBE214:
 2224              		.loc 1 1223 0
 2225 00a6 BDE8F087 		pop	{r4, r5, r6, r7, r8, r9, r10, pc}
 2226              	.LVL285:
 2227              	.L254:
 2228              		.loc 1 1189 0
 2229 00aa 0120     		movs	r0, #1
 2230 00ac BDE8F087 		pop	{r4, r5, r6, r7, r8, r9, r10, pc}
 2231              	.LVL286:
 2232              	.L286:
 2233              	.LBB225:
 2234              		.loc 1 1196 0
 2235 00b0 0128     		cmp	r0, #1
 2236 00b2 CED0     		beq	.L251
 2237              		.loc 1 1197 0
 2238 00b4 B0F1FF3F 		cmp	r0, #-1
 2239 00b8 F7D0     		beq	.L254
 2240              		.loc 1 1199 0
 2241 00ba 2068     		ldr	r0, [r4]
 2242              	.LVL287:
 2243              	.LBB215:
 2244              	.LBB216:
 2245              		.loc 1 763 0
 2246 00bc 0379     		ldrb	r3, [r0, #4]	@ zero_extendqisi2
 2247 00be 002B     		cmp	r3, #0
 2248 00c0 2FD1     		bne	.L255
 2249              	.LVL288:
 2250              	.L257:
 2251              	.LBE216:
 2252              	.LBE215:
 2253              		.loc 1 1200 0
 2254 00c2 00F13003 		add	r3, r0, #48
 2255              	.LVL289:
 2256              	.LBB218:
 2257              	.LBB219:
 2258              		.loc 1 583 0
 2259 00c6 0022     		movs	r2, #0
ARM GAS  /tmp/ccZHgRNF.s 			page 41


 2260 00c8 00F50C70 		add	r0, r0, #560
 2261              	.LVL290:
 2262              	.L256:
 2263 00cc 03F8012B 		strb	r2, [r3], #1
 2264              	.LVL291:
 2265              		.loc 1 582 0
 2266 00d0 8342     		cmp	r3, r0
 2267 00d2 FBD1     		bne	.L256
 2268              	.LBE219:
 2269              	.LBE218:
 2270              		.loc 1 1201 0
 2271 00d4 2068     		ldr	r0, [r4]
 2272              	.LVL292:
 2273              	.LBB220:
 2274              	.LBB221:
 2275              		.loc 1 853 0
 2276 00d6 4369     		ldr	r3, [r0, #20]
 2277              	.LVL293:
 2278              		.loc 1 852 0
 2279 00d8 A8F10206 		sub	r6, r8, #2
 2280              	.LVL294:
 2281              		.loc 1 853 0
 2282 00dc 023B     		subs	r3, r3, #2
 2283 00de 9E42     		cmp	r6, r3
 2284              		.loc 1 854 0
 2285 00e0 3BBF     		ittet	cc
 2286 00e2 836A     		ldrcc	r3, [r0, #40]
 2287 00e4 8278     		ldrbcc	r2, [r0, #2]	@ zero_extendqisi2
 2288              		.loc 1 853 0
 2289 00e6 0023     		movcs	r3, #0
 2290              		.loc 1 854 0
 2291 00e8 02FB0633 		mlacc	r3, r2, r6, r3
 2292              	.LBE221:
 2293              	.LBE220:
 2294              		.loc 1 1201 0
 2295 00ec C362     		str	r3, [r0, #44]
 2296              	.LVL295:
 2297              		.loc 1 1202 0
 2298 00ee 4FF00009 		mov	r9, #0
 2299              		.loc 1 1203 0
 2300 00f2 4FF0010A 		mov	r10, #1
 2301              		.loc 1 1202 0
 2302 00f6 04E0     		b	.L260
 2303              	.LVL296:
 2304              	.L262:
 2305              		.loc 1 1205 0
 2306 00f8 C36A     		ldr	r3, [r0, #44]
 2307 00fa 0133     		adds	r3, r3, #1
 2308 00fc C362     		str	r3, [r0, #44]
 2309              		.loc 1 1202 0
 2310 00fe 09F10109 		add	r9, r9, #1
 2311              	.LVL297:
 2312              	.L260:
 2313              		.loc 1 1202 0 is_stmt 0 discriminator 1
 2314 0102 8278     		ldrb	r2, [r0, #2]	@ zero_extendqisi2
 2315 0104 9145     		cmp	r9, r2
 2316 0106 0346     		mov	r3, r0
ARM GAS  /tmp/ccZHgRNF.s 			page 42


 2317 0108 11D2     		bcs	.L287
 2318              		.loc 1 1203 0 is_stmt 1
 2319 010a 80F804A0 		strb	r10, [r0, #4]
 2320              		.loc 1 1204 0
 2321 010e 2068     		ldr	r0, [r4]
 2322              	.LVL298:
 2323              	.LBB222:
 2324              	.LBB223:
 2325              		.loc 1 763 0
 2326 0110 0379     		ldrb	r3, [r0, #4]	@ zero_extendqisi2
 2327 0112 002B     		cmp	r3, #0
 2328 0114 F0D0     		beq	.L262
 2329 0116 FFF7FEFF 		bl	sync_window.part.3
 2330              	.LVL299:
 2331              	.LBE223:
 2332              	.LBE222:
 2333              		.loc 1 1204 0
 2334 011a 0028     		cmp	r0, #0
 2335 011c C5D1     		bne	.L254
 2336 011e 2068     		ldr	r0, [r4]
 2337 0120 EAE7     		b	.L262
 2338              	.LVL300:
 2339              	.L255:
 2340              	.LBB224:
 2341              	.LBB217:
 2342 0122 FFF7FEFF 		bl	sync_window.part.3
 2343              	.LVL301:
 2344              	.LBE217:
 2345              	.LBE224:
 2346              		.loc 1 1199 0
 2347 0126 0028     		cmp	r0, #0
 2348 0128 BFD1     		bne	.L254
 2349 012a 2068     		ldr	r0, [r4]
 2350 012c C9E7     		b	.L257
 2351              	.LVL302:
 2352              	.L287:
 2353              		.loc 1 1207 0
 2354 012e C16A     		ldr	r1, [r0, #44]
 2355 0130 4269     		ldr	r2, [r0, #20]
 2356 0132 C9EB0101 		rsb	r1, r9, r1
 2357 0136 C162     		str	r1, [r0, #44]
 2358 0138 A0E7     		b	.L253
 2359              	.LBE225:
 2360              		.cfi_endproc
 2361              	.LFE254:
 2362              		.size	dir_next, .-dir_next
 2363 013a 00BFAFF3 		.section	.text.follow_path,"ax",%progbits
 2363      0080
 2364              		.align	2
 2365              		.p2align 4,,15
 2366              		.thumb
 2367              		.thumb_func
 2368              		.type	follow_path, %function
 2369              	follow_path:
 2370              	.LFB264:
 2371              		.loc 1 2019 0
 2372              		.cfi_startproc
ARM GAS  /tmp/ccZHgRNF.s 			page 43


 2373              		@ args = 0, pretend = 0, frame = 0
 2374              		@ frame_needed = 0, uses_anonymous_args = 0
 2375              	.LVL303:
 2376 0000 2DE9F84F 		push	{r3, r4, r5, r6, r7, r8, r9, r10, fp, lr}
 2377              		.cfi_def_cfa_offset 40
 2378              		.cfi_offset 3, -40
 2379              		.cfi_offset 4, -36
 2380              		.cfi_offset 5, -32
 2381              		.cfi_offset 6, -28
 2382              		.cfi_offset 7, -24
 2383              		.cfi_offset 8, -20
 2384              		.cfi_offset 9, -16
 2385              		.cfi_offset 10, -12
 2386              		.cfi_offset 11, -8
 2387              		.cfi_offset 14, -4
 2388              		.loc 1 2031 0
 2389 0004 0B78     		ldrb	r3, [r1]	@ zero_extendqisi2
 2390 0006 2F2B     		cmp	r3, #47
 2391              		.loc 1 2019 0
 2392 0008 0F46     		mov	r7, r1
 2393 000a 8246     		mov	r10, r0
 2394              		.loc 1 2031 0
 2395 000c 64D0     		beq	.L289
 2396              		.loc 1 2031 0 is_stmt 0 discriminator 1
 2397 000e 5C2B     		cmp	r3, #92
 2398 0010 62D0     		beq	.L289
 2399              		.loc 1 2033 0 is_stmt 1
 2400 0012 0024     		movs	r4, #0
 2401 0014 CAF80840 		str	r4, [r10, #8]
 2402              		.loc 1 2036 0
 2403 0018 3B78     		ldrb	r3, [r7]	@ zero_extendqisi2
 2404 001a 1F2B     		cmp	r3, #31
 2405 001c 63D9     		bls	.L357
 2406              	.LVL304:
 2407              	.L291:
 2408 001e DAF818C0 		ldr	ip, [r10, #24]
 2409              	.LBB238:
 2410              	.LBB239:
 2411              		.loc 1 1965 0
 2412 0022 DFF8D481 		ldr	r8, .L366+4
 2413              	.LVL305:
 2414 0026 01E0     		b	.L293
 2415              	.LVL306:
 2416              	.L294:
 2417 0028 17F8013F 		ldrb	r3, [r7, #1]!	@ zero_extendqisi2
 2418              	.LVL307:
 2419              	.L293:
 2420              		.loc 1 1937 0
 2421 002c 2F2B     		cmp	r3, #47
 2422 002e FBD0     		beq	.L294
 2423 0030 5C2B     		cmp	r3, #92
 2424 0032 F9D0     		beq	.L294
 2425              	.LVL308:
 2426 0034 0CF10B01 		add	r1, ip, #11
 2427 0038 6346     		mov	r3, ip
 2428              	.LBB240:
 2429              	.LBB241:
ARM GAS  /tmp/ccZHgRNF.s 			page 44


 2430              		.loc 1 583 0
 2431 003a 2022     		movs	r2, #32
 2432              	.LVL309:
 2433              	.L297:
 2434 003c 03F8012B 		strb	r2, [r3], #1
 2435              	.LVL310:
 2436              		.loc 1 582 0
 2437 0040 8B42     		cmp	r3, r1
 2438 0042 FBD1     		bne	.L297
 2439 0044 0024     		movs	r4, #0
 2440 0046 2046     		mov	r0, r4
 2441 0048 2546     		mov	r5, r4
 2442 004a 0826     		movs	r6, #8
 2443              	.LVL311:
 2444              	.L296:
 2445              	.LBE241:
 2446              	.LBE240:
 2447              		.loc 1 1955 0
 2448 004c 0130     		adds	r0, r0, #1
 2449              	.LVL312:
 2450 004e 07EB0009 		add	r9, r7, r0
 2451 0052 19F8012C 		ldrb	r2, [r9, #-1]	@ zero_extendqisi2
 2452              	.LVL313:
 2453              		.loc 1 1956 0
 2454 0056 202A     		cmp	r2, #32
 2455 0058 24D9     		bls	.L298
 2456              	.LVL314:
 2457              	.L361:
 2458 005a 2F2A     		cmp	r2, #47
 2459 005c 37D0     		beq	.L299
 2460 005e 5C2A     		cmp	r2, #92
 2461 0060 35D0     		beq	.L299
 2462              		.loc 1 1957 0
 2463 0062 2E2A     		cmp	r2, #46
 2464 0064 00F0BE80 		beq	.L300
 2465 0068 B442     		cmp	r4, r6
 2466 006a 1ED2     		bcs	.L332
 2467              		.loc 1 1962 0
 2468 006c 1106     		lsls	r1, r2, #24
 2469 006e 28D4     		bmi	.L358
 2470              	.L303:
 2471              	.LVL315:
 2472              	.LBB242:
 2473              	.LBB243:
 2474              		.loc 1 599 0
 2475 0070 222A     		cmp	r2, #34
 2476 0072 1AD0     		beq	.L332
 2477 0074 5F49     		ldr	r1, .L366
 2478 0076 01E0     		b	.L326
 2479              	.LVL316:
 2480              	.L359:
 2481 0078 9A42     		cmp	r2, r3
 2482 007a 16D0     		beq	.L332
 2483              	.LVL317:
 2484              	.L326:
 2485 007c 11F8013F 		ldrb	r3, [r1, #1]!	@ zero_extendqisi2
 2486              	.LVL318:
ARM GAS  /tmp/ccZHgRNF.s 			page 45


 2487 0080 002B     		cmp	r3, #0
 2488 0082 F9D1     		bne	.L359
 2489              	.LBE243:
 2490              	.LBE242:
 2491              		.loc 1 1981 0
 2492 0084 A2F14103 		sub	r3, r2, #65
 2493 0088 192B     		cmp	r3, #25
 2494 008a 11D8     		bhi	.L360
 2495              		.loc 1 1982 0
 2496 008c 45F00205 		orr	r5, r5, #2
 2497              	.LVL319:
 2498              	.L306:
 2499              		.loc 1 1955 0
 2500 0090 0130     		adds	r0, r0, #1
 2501              	.LVL320:
 2502              		.loc 1 1988 0
 2503 0092 0CF80420 		strb	r2, [ip, r4]
 2504 0096 07EB0009 		add	r9, r7, r0
 2505 009a 0134     		adds	r4, r4, #1
 2506              	.LVL321:
 2507              		.loc 1 1955 0
 2508 009c 19F8012C 		ldrb	r2, [r9, #-1]	@ zero_extendqisi2
 2509              	.LVL322:
 2510              		.loc 1 1956 0
 2511 00a0 202A     		cmp	r2, #32
 2512 00a2 DAD8     		bhi	.L361
 2513              	.LVL323:
 2514              	.L298:
 2515              		.loc 1 1991 0
 2516 00a4 4F46     		mov	r7, r9
 2517              	.LVL324:
 2518              		.loc 1 1992 0
 2519 00a6 0423     		movs	r3, #4
 2520              	.LVL325:
 2521              		.loc 1 1994 0
 2522 00a8 2CBB     		cbnz	r4, .L362
 2523              	.LVL326:
 2524              	.L332:
 2525              	.LBB245:
 2526              	.LBB244:
 2527              		.loc 1 599 0
 2528 00aa 0620     		movs	r0, #6
 2529              	.LVL327:
 2530 00ac BDE8F88F 		pop	{r3, r4, r5, r6, r7, r8, r9, r10, fp, pc}
 2531              	.LVL328:
 2532              	.L360:
 2533              	.LBE244:
 2534              	.LBE245:
 2535              		.loc 1 1984 0
 2536 00b0 A2F16103 		sub	r3, r2, #97
 2537 00b4 192B     		cmp	r3, #25
 2538 00b6 EBD8     		bhi	.L306
 2539              		.loc 1 1985 0
 2540 00b8 203A     		subs	r2, r2, #32
 2541              	.LVL329:
 2542 00ba D2B2     		uxtb	r2, r2
 2543              	.LVL330:
ARM GAS  /tmp/ccZHgRNF.s 			page 46


 2544 00bc 45F00105 		orr	r5, r5, #1
 2545              	.LVL331:
 2546 00c0 E6E7     		b	.L306
 2547              	.LVL332:
 2548              	.L358:
 2549              		.loc 1 1965 0
 2550 00c2 803A     		subs	r2, r2, #128
 2551              		.loc 1 1963 0
 2552 00c4 45F00305 		orr	r5, r5, #3
 2553              	.LVL333:
 2554              		.loc 1 1965 0
 2555 00c8 18F80220 		ldrb	r2, [r8, r2]	@ zero_extendqisi2
 2556              	.LVL334:
 2557 00cc D0E7     		b	.L303
 2558              	.LVL335:
 2559              	.L299:
 2560              		.loc 1 1991 0
 2561 00ce 4F46     		mov	r7, r9
 2562              	.LVL336:
 2563              		.loc 1 1992 0
 2564 00d0 0023     		movs	r3, #0
 2565              	.LVL337:
 2566              		.loc 1 1994 0
 2567 00d2 002C     		cmp	r4, #0
 2568 00d4 E9D0     		beq	.L332
 2569              	.LVL338:
 2570 00d6 0EE0     		b	.L362
 2571              	.LVL339:
 2572              	.L289:
 2573              	.LBE239:
 2574              	.LBE238:
 2575              		.loc 1 2032 0
 2576 00d8 0137     		adds	r7, r7, #1
 2577              	.LVL340:
 2578              		.loc 1 2033 0
 2579 00da 0024     		movs	r4, #0
 2580 00dc CAF80840 		str	r4, [r10, #8]
 2581              		.loc 1 2036 0
 2582 00e0 3B78     		ldrb	r3, [r7]	@ zero_extendqisi2
 2583 00e2 1F2B     		cmp	r3, #31
 2584 00e4 9BD8     		bhi	.L291
 2585              	.L357:
 2586              		.loc 1 2037 0
 2587 00e6 5046     		mov	r0, r10
 2588              	.LVL341:
 2589 00e8 2146     		mov	r1, r4
 2590 00ea FFF7FEFF 		bl	dir_sdi
 2591              	.LVL342:
 2592              		.loc 1 2038 0
 2593 00ee CAF81440 		str	r4, [r10, #20]
 2594 00f2 BDE8F88F 		pop	{r3, r4, r5, r6, r7, r8, r9, r10, fp, pc}
 2595              	.LVL343:
 2596              	.L362:
 2597              	.LBB248:
 2598              	.LBB246:
 2599              		.loc 1 1995 0
 2600 00f6 9CF80020 		ldrb	r2, [ip]	@ zero_extendqisi2
ARM GAS  /tmp/ccZHgRNF.s 			page 47


 2601 00fa E52A     		cmp	r2, #229
 2602 00fc 04BF     		itt	eq
 2603 00fe 0522     		moveq	r2, #5
 2604 0100 8CF80020 		strbeq	r2, [ip]
 2605              		.loc 1 1997 0
 2606 0104 082E     		cmp	r6, #8
 2607 0106 04BF     		itt	eq
 2608 0108 AD00     		lsleq	r5, r5, #2
 2609 010a EDB2     		uxtbeq	r5, r5
 2610              	.LVL344:
 2611              		.loc 1 1998 0
 2612 010c 05F00302 		and	r2, r5, #3
 2613 0110 012A     		cmp	r2, #1
 2614              		.loc 1 1999 0
 2615 0112 05F00C05 		and	r5, r5, #12
 2616              	.LVL345:
 2617              		.loc 1 1998 0
 2618 0116 08BF     		it	eq
 2619 0118 43F01003 		orreq	r3, r3, #16
 2620              	.LVL346:
 2621              		.loc 1 1999 0
 2622 011c 042D     		cmp	r5, #4
 2623 011e 08BF     		it	eq
 2624 0120 43F00803 		orreq	r3, r3, #8
 2625              	.LVL347:
 2626              		.loc 1 2001 0
 2627 0124 8CF80B30 		strb	r3, [ip, #11]
 2628              	.LVL348:
 2629              	.LBE246:
 2630              	.LBE248:
 2631              	.LBB249:
 2632              	.LBB250:
 2633              		.loc 1 1500 0
 2634 0128 5046     		mov	r0, r10
 2635              	.LVL349:
 2636 012a 0021     		movs	r1, #0
 2637 012c FFF7FEFF 		bl	dir_sdi
 2638              	.LVL350:
 2639              		.loc 1 1501 0
 2640 0130 0028     		cmp	r0, #0
 2641 0132 3AD1     		bne	.L311
 2642              	.LVL351:
 2643              	.L317:
 2644              		.loc 1 1507 0
 2645 0134 DAF80000 		ldr	r0, [r10]
 2646              	.LVL352:
 2647 0138 DAF81010 		ldr	r1, [r10, #16]
 2648 013c FFF7FEFF 		bl	move_window
 2649              	.LVL353:
 2650              		.loc 1 1508 0
 2651 0140 98BB     		cbnz	r0, .L311
 2652              		.loc 1 1509 0
 2653 0142 DAF81410 		ldr	r1, [r10, #20]
 2654              	.LVL354:
 2655              		.loc 1 1510 0
 2656 0146 0A78     		ldrb	r2, [r1]	@ zero_extendqisi2
 2657              	.LVL355:
ARM GAS  /tmp/ccZHgRNF.s 			page 48


 2658              		.loc 1 1511 0
 2659 0148 002A     		cmp	r2, #0
 2660 014a 3CD0     		beq	.L312
 2661              		.loc 1 1534 0
 2662 014c 91F80BB0 		ldrb	fp, [r1, #11]	@ zero_extendqisi2
 2663 0150 1BF0080F 		tst	fp, #8
 2664 0154 23D1     		bne	.L313
 2665 0156 DAF818C0 		ldr	ip, [r10, #24]
 2666              	.LVL356:
 2667 015a 0D46     		mov	r5, r1
 2668 015c 0CF10B06 		add	r6, ip, #11
 2669 0160 6346     		mov	r3, ip
 2670 0162 01E0     		b	.L314
 2671              	.LVL357:
 2672              	.L363:
 2673 0164 15F8012F 		ldrb	r2, [r5, #1]!	@ zero_extendqisi2
 2674              	.LVL358:
 2675              	.L314:
 2676              	.LBB251:
 2677              	.LBB252:
 2678              		.loc 1 592 0
 2679 0168 13F8014B 		ldrb	r4, [r3], #1	@ zero_extendqisi2
 2680              	.LVL359:
 2681 016c 9442     		cmp	r4, r2
 2682 016e 16D1     		bne	.L313
 2683 0170 B342     		cmp	r3, r6
 2684 0172 F7D1     		bne	.L363
 2685              	.LVL360:
 2686              	.LBE252:
 2687              	.LBE251:
 2688              	.LBE250:
 2689              	.LBE249:
 2690              		.loc 1 2057 0
 2691 0174 9CF80B30 		ldrb	r3, [ip, #11]	@ zero_extendqisi2
 2692              	.LVL361:
 2693 0178 5B07     		lsls	r3, r3, #29
 2694 017a 31D4     		bmi	.L364
 2695              	.LVL362:
 2696              		.loc 1 2059 0
 2697 017c 1BF0100F 		tst	fp, #16
 2698 0180 2BD0     		beq	.L330
 2699              	.LVL363:
 2700              		.loc 1 2062 0
 2701 0182 DAF80020 		ldr	r2, [r10]
 2702              	.LBB254:
 2703              	.LBB255:
 2704              		.loc 1 1277 0
 2705 0186 C87E     		ldrb	r0, [r1, #27]	@ zero_extendqisi2
 2706              	.LVL364:
 2707              		.loc 1 1278 0
 2708 0188 1278     		ldrb	r2, [r2]	@ zero_extendqisi2
 2709              		.loc 1 1277 0
 2710 018a 8B7E     		ldrb	r3, [r1, #26]	@ zero_extendqisi2
 2711              		.loc 1 1278 0
 2712 018c 032A     		cmp	r2, #3
 2713              		.loc 1 1277 0
 2714 018e 43EA0023 		orr	r3, r3, r0, lsl #8
ARM GAS  /tmp/ccZHgRNF.s 			page 49


 2715              	.LVL365:
 2716              		.loc 1 1278 0
 2717 0192 11D0     		beq	.L365
 2718              	.L318:
 2719              	.LBE255:
 2720              	.LBE254:
 2721              		.loc 1 2062 0
 2722 0194 CAF80830 		str	r3, [r10, #8]
 2723              	.LVL366:
 2724 0198 99F80030 		ldrb	r3, [r9]	@ zero_extendqisi2
 2725              	.LVL367:
 2726              		.loc 1 2063 0
 2727 019c 46E7     		b	.L293
 2728              	.LVL368:
 2729              	.L313:
 2730              	.LBB257:
 2731              	.LBB253:
 2732              		.loc 1 1537 0
 2733 019e 5046     		mov	r0, r10
 2734              	.LVL369:
 2735 01a0 0021     		movs	r1, #0
 2736              	.LVL370:
 2737 01a2 FFF7FEFF 		bl	dir_next
 2738              	.LVL371:
 2739              		.loc 1 1538 0
 2740 01a6 0028     		cmp	r0, #0
 2741 01a8 C4D0     		beq	.L317
 2742              	.L311:
 2743              	.LBE253:
 2744              	.LBE257:
 2745              		.loc 1 2044 0
 2746 01aa DAF81830 		ldr	r3, [r10, #24]
 2747              		.loc 1 2046 0
 2748 01ae 0428     		cmp	r0, #4
 2749              		.loc 1 2044 0
 2750 01b0 DB7A     		ldrb	r3, [r3, #11]	@ zero_extendqisi2
 2751              	.LVL372:
 2752              		.loc 1 2046 0
 2753 01b2 0BD0     		beq	.L324
 2754              		.loc 1 2067 0
 2755 01b4 BDE8F88F 		pop	{r3, r4, r5, r6, r7, r8, r9, r10, fp, pc}
 2756              	.LVL373:
 2757              	.L365:
 2758              	.LBB258:
 2759              	.LBB256:
 2760              		.loc 1 1279 0
 2761 01b8 487D     		ldrb	r0, [r1, #21]	@ zero_extendqisi2
 2762 01ba 0A7D     		ldrb	r2, [r1, #20]	@ zero_extendqisi2
 2763 01bc 42EA0022 		orr	r2, r2, r0, lsl #8
 2764 01c0 43EA0243 		orr	r3, r3, r2, lsl #16
 2765              	.LVL374:
 2766 01c4 E6E7     		b	.L318
 2767              	.LVL375:
 2768              	.L312:
 2769              	.LBE256:
 2770              	.LBE258:
 2771              		.loc 1 2044 0
ARM GAS  /tmp/ccZHgRNF.s 			page 50


 2772 01c6 DAF81830 		ldr	r3, [r10, #24]
 2773 01ca DB7A     		ldrb	r3, [r3, #11]	@ zero_extendqisi2
 2774              	.LVL376:
 2775              	.L324:
 2776              		.loc 1 2052 0
 2777 01cc 13F0040F 		tst	r3, #4
 2778 01d0 0CBF     		ite	eq
 2779 01d2 0520     		moveq	r0, #5
 2780 01d4 0420     		movne	r0, #4
 2781              	.LVL377:
 2782 01d6 BDE8F88F 		pop	{r3, r4, r5, r6, r7, r8, r9, r10, fp, pc}
 2783              	.LVL378:
 2784              	.L330:
 2785              		.loc 1 2060 0
 2786 01da 0520     		movs	r0, #5
 2787              	.LVL379:
 2788 01dc BDE8F88F 		pop	{r3, r4, r5, r6, r7, r8, r9, r10, fp, pc}
 2789              	.LVL380:
 2790              	.L364:
 2791 01e0 BDE8F88F 		pop	{r3, r4, r5, r6, r7, r8, r9, r10, fp, pc}
 2792              	.LVL381:
 2793              	.L300:
 2794              	.LBB259:
 2795              	.LBB247:
 2796              		.loc 1 1958 0
 2797 01e4 082E     		cmp	r6, #8
 2798 01e6 7FF460AF 		bne	.L332
 2799              	.LVL382:
 2800              		.loc 1 1960 0
 2801 01ea AD00     		lsls	r5, r5, #2
 2802              		.loc 1 1959 0
 2803 01ec 3446     		mov	r4, r6
 2804              		.loc 1 1960 0
 2805 01ee EDB2     		uxtb	r5, r5
 2806              	.LVL383:
 2807              		.loc 1 1959 0
 2808 01f0 0B26     		movs	r6, #11
 2809 01f2 2BE7     		b	.L296
 2810              	.L367:
 2811              		.align	2
 2812              	.L366:
 2813 01f4 00000000 		.word	.LC0
 2814 01f8 00000000 		.word	.LANCHOR2
 2815              	.LBE247:
 2816              	.LBE259:
 2817              		.cfi_endproc
 2818              	.LFE264:
 2819              		.size	follow_path, .-follow_path
 2820 01fc AFF30080 		.section	.text.remove_chain.part.10,"ax",%progbits
 2821              		.align	2
 2822              		.p2align 4,,15
 2823              		.thumb
 2824              		.thumb_func
 2825              		.type	remove_chain.part.10, %function
 2826              	remove_chain.part.10:
 2827              	.LFB297:
 2828              		.loc 1 974 0
ARM GAS  /tmp/ccZHgRNF.s 			page 51


 2829              		.cfi_startproc
 2830              		@ args = 0, pretend = 0, frame = 0
 2831              		@ frame_needed = 0, uses_anonymous_args = 0
 2832              	.LVL384:
 2833 0000 70B5     		push	{r4, r5, r6, lr}
 2834              		.cfi_def_cfa_offset 16
 2835              		.cfi_offset 4, -16
 2836              		.cfi_offset 5, -12
 2837              		.cfi_offset 6, -8
 2838              		.cfi_offset 14, -4
 2839              		.loc 1 974 0
 2840 0002 0446     		mov	r4, r0
 2841 0004 0D46     		mov	r5, r1
 2842              	.LVL385:
 2843              		.loc 1 990 0
 2844 0006 6369     		ldr	r3, [r4, #20]
 2845 0008 9D42     		cmp	r5, r3
 2846 000a 23D2     		bcs	.L376
 2847              	.LVL386:
 2848              	.L375:
 2849              	.LBB260:
 2850              	.LBB261:
 2851              		.loc 1 874 0
 2852 000c 012D     		cmp	r5, #1
 2853 000e 0CD9     		bls	.L373
 2854 0010 2046     		mov	r0, r4
 2855 0012 2946     		mov	r1, r5
 2856 0014 FFF7FEFF 		bl	get_fat.part.6
 2857              	.LVL387:
 2858              	.LBE261:
 2859              	.LBE260:
 2860              		.loc 1 992 0
 2861 0018 0646     		mov	r6, r0
 2862 001a D8B1     		cbz	r0, .L376
 2863              		.loc 1 993 0
 2864 001c 0128     		cmp	r0, #1
 2865 001e 04D0     		beq	.L373
 2866              		.loc 1 994 0
 2867 0020 411C     		adds	r1, r0, #1
 2868 0022 19D0     		beq	.L377
 2869              	.LBB262:
 2870              	.LBB263:
 2871              		.loc 1 922 0
 2872 0024 6369     		ldr	r3, [r4, #20]
 2873 0026 9D42     		cmp	r5, r3
 2874 0028 01D3     		bcc	.L384
 2875              	.LVL388:
 2876              	.L373:
 2877              	.LBE263:
 2878              	.LBE262:
 2879              		.loc 1 993 0
 2880 002a 0220     		movs	r0, #2
 2881 002c 70BD     		pop	{r4, r5, r6, pc}
 2882              	.LVL389:
 2883              	.L384:
 2884              	.LBB265:
 2885              	.LBB264:
ARM GAS  /tmp/ccZHgRNF.s 			page 52


 2886 002e 2946     		mov	r1, r5
 2887 0030 2046     		mov	r0, r4
 2888 0032 0022     		movs	r2, #0
 2889 0034 FFF7FEFF 		bl	put_fat.part.8
 2890              	.LVL390:
 2891              	.LBE264:
 2892              	.LBE265:
 2893              		.loc 1 996 0
 2894 0038 78B9     		cbnz	r0, .L371
 2895              		.loc 1 997 0
 2896 003a 2369     		ldr	r3, [r4, #16]
 2897 003c 5A1C     		adds	r2, r3, #1
 2898 003e 05D0     		beq	.L374
 2899              		.loc 1 999 0
 2900 0040 6279     		ldrb	r2, [r4, #5]	@ zero_extendqisi2
 2901              		.loc 1 998 0
 2902 0042 0133     		adds	r3, r3, #1
 2903              		.loc 1 999 0
 2904 0044 42F00102 		orr	r2, r2, #1
 2905              		.loc 1 998 0
 2906 0048 2361     		str	r3, [r4, #16]
 2907              		.loc 1 999 0
 2908 004a 6271     		strb	r2, [r4, #5]
 2909              	.L374:
 2910              		.loc 1 990 0
 2911 004c 6369     		ldr	r3, [r4, #20]
 2912              		.loc 1 974 0
 2913 004e 3546     		mov	r5, r6
 2914              	.LVL391:
 2915              		.loc 1 990 0
 2916 0050 9D42     		cmp	r5, r3
 2917 0052 DBD3     		bcc	.L375
 2918              	.LVL392:
 2919              	.L376:
 2920              		.loc 1 974 0
 2921 0054 0020     		movs	r0, #0
 2922 0056 70BD     		pop	{r4, r5, r6, pc}
 2923              	.LVL393:
 2924              	.L377:
 2925              		.loc 1 994 0
 2926 0058 0120     		movs	r0, #1
 2927              	.LVL394:
 2928              	.L371:
 2929              		.loc 1 1016 0
 2930 005a 70BD     		pop	{r4, r5, r6, pc}
 2931              		.cfi_endproc
 2932              	.LFE297:
 2933              		.size	remove_chain.part.10, .-remove_chain.part.10
 2934 005c AFF30080 		.section	.text.dir_read.constprop.11,"ax",%progbits
 2935              		.align	2
 2936              		.p2align 4,,15
 2937              		.thumb
 2938              		.thumb_func
 2939              		.type	dir_read.constprop.11, %function
 2940              	dir_read.constprop.11:
 2941              	.LFB299:
 2942              		.loc 1 1551 0
ARM GAS  /tmp/ccZHgRNF.s 			page 53


 2943              		.cfi_startproc
 2944              		@ args = 0, pretend = 0, frame = 0
 2945              		@ frame_needed = 0, uses_anonymous_args = 0
 2946              	.LVL395:
 2947 0000 38B5     		push	{r3, r4, r5, lr}
 2948              		.cfi_def_cfa_offset 16
 2949              		.cfi_offset 3, -16
 2950              		.cfi_offset 4, -12
 2951              		.cfi_offset 5, -8
 2952              		.cfi_offset 14, -4
 2953              		.loc 1 1551 0
 2954 0002 0446     		mov	r4, r0
 2955              		.loc 1 1562 0
 2956 0004 0420     		movs	r0, #4
 2957              	.LVL396:
 2958 0006 17E0     		b	.L386
 2959              	.L390:
 2960              		.loc 1 1564 0
 2961 0008 2068     		ldr	r0, [r4]
 2962 000a FFF7FEFF 		bl	move_window
 2963              	.LVL397:
 2964              		.loc 1 1565 0
 2965 000e 0546     		mov	r5, r0
 2966              		.loc 1 1592 0
 2967 0010 0021     		movs	r1, #0
 2968 0012 2046     		mov	r0, r4
 2969              	.LVL398:
 2970              		.loc 1 1565 0
 2971 0014 CDB9     		cbnz	r5, .L391
 2972              	.LVL399:
 2973              		.loc 1 1566 0
 2974 0016 6269     		ldr	r2, [r4, #20]
 2975              	.LVL400:
 2976              		.loc 1 1567 0
 2977 0018 1378     		ldrb	r3, [r2]	@ zero_extendqisi2
 2978              	.LVL401:
 2979              		.loc 1 1568 0
 2980 001a ABB1     		cbz	r3, .L392
 2981              		.loc 1 1569 0
 2982 001c D27A     		ldrb	r2, [r2, #11]	@ zero_extendqisi2
 2983              	.LVL402:
 2984              		.loc 1 1589 0
 2985 001e E52B     		cmp	r3, #229
 2986              		.loc 1 1569 0
 2987 0020 02F03F02 		and	r2, r2, #63
 2988              	.LVL403:
 2989              		.loc 1 1589 0
 2990 0024 05D0     		beq	.L388
 2991 0026 2E2B     		cmp	r3, #46
 2992 0028 03D0     		beq	.L388
 2993 002a 0F2A     		cmp	r2, #15
 2994 002c 01D0     		beq	.L388
 2995 002e 082A     		cmp	r2, #8
 2996 0030 08D1     		bne	.L398
 2997              	.L388:
 2998              		.loc 1 1592 0
 2999 0032 FFF7FEFF 		bl	dir_next
ARM GAS  /tmp/ccZHgRNF.s 			page 54


 3000              	.LVL404:
 3001              		.loc 1 1593 0
 3002 0036 60B9     		cbnz	r0, .L393
 3003              	.LVL405:
 3004              	.L386:
 3005              		.loc 1 1563 0
 3006 0038 2369     		ldr	r3, [r4, #16]
 3007              		.loc 1 1564 0
 3008 003a 1946     		mov	r1, r3
 3009              		.loc 1 1563 0
 3010 003c 002B     		cmp	r3, #0
 3011 003e E3D1     		bne	.L390
 3012              	.LVL406:
 3013              		.loc 1 1596 0
 3014 0040 0546     		mov	r5, r0
 3015 0042 10B9     		cbnz	r0, .L391
 3016              	.LVL407:
 3017              	.L398:
 3018              		.loc 1 1599 0
 3019 0044 2846     		mov	r0, r5
 3020 0046 38BD     		pop	{r3, r4, r5, pc}
 3021              	.LVL408:
 3022              	.L392:
 3023              		.loc 1 1568 0
 3024 0048 0425     		movs	r5, #4
 3025              	.LVL409:
 3026              	.L391:
 3027              		.loc 1 1596 0
 3028 004a 0023     		movs	r3, #0
 3029 004c 2361     		str	r3, [r4, #16]
 3030              	.LVL410:
 3031              	.L407:
 3032              		.loc 1 1599 0
 3033 004e 2846     		mov	r0, r5
 3034 0050 38BD     		pop	{r3, r4, r5, pc}
 3035              	.LVL411:
 3036              	.L393:
 3037              		.loc 1 1596 0
 3038 0052 0023     		movs	r3, #0
 3039              		.loc 1 1592 0
 3040 0054 0546     		mov	r5, r0
 3041              	.LVL412:
 3042              		.loc 1 1596 0
 3043 0056 2361     		str	r3, [r4, #16]
 3044 0058 F9E7     		b	.L407
 3045              		.cfi_endproc
 3046              	.LFE299:
 3047              		.size	dir_read.constprop.11, .-dir_read.constprop.11
 3048 005a 00BFAFF3 		.section	.text.dir_register,"ax",%progbits
 3048      0080
 3049              		.align	2
 3050              		.p2align 4,,15
 3051              		.thumb
 3052              		.thumb_func
 3053              		.type	dir_register, %function
 3054              	dir_register:
 3055              	.LFB260:
ARM GAS  /tmp/ccZHgRNF.s 			page 55


 3056              		.loc 1 1613 0
 3057              		.cfi_startproc
 3058              		@ args = 0, pretend = 0, frame = 0
 3059              		@ frame_needed = 0, uses_anonymous_args = 0
 3060              	.LVL413:
 3061 0000 38B5     		push	{r3, r4, r5, lr}
 3062              		.cfi_def_cfa_offset 16
 3063              		.cfi_offset 3, -16
 3064              		.cfi_offset 4, -12
 3065              		.cfi_offset 5, -8
 3066              		.cfi_offset 14, -4
 3067              	.LBB274:
 3068              	.LBB275:
 3069              		.loc 1 1243 0
 3070 0002 0021     		movs	r1, #0
 3071              	.LBE275:
 3072              	.LBE274:
 3073              		.loc 1 1613 0
 3074 0004 0446     		mov	r4, r0
 3075              	.LVL414:
 3076              	.LBB277:
 3077              	.LBB276:
 3078              		.loc 1 1243 0
 3079 0006 FFF7FEFF 		bl	dir_sdi
 3080              	.LVL415:
 3081              		.loc 1 1244 0
 3082 000a 38B1     		cbz	r0, .L414
 3083              	.L409:
 3084              		.loc 1 1257 0
 3085 000c 0428     		cmp	r0, #4
 3086 000e 08BF     		it	eq
 3087 0010 0720     		moveq	r0, #7
 3088              	.LVL416:
 3089 0012 38BD     		pop	{r3, r4, r5, pc}
 3090              	.LVL417:
 3091              	.L426:
 3092              		.loc 1 1254 0
 3093 0014 FFF7FEFF 		bl	dir_next
 3094              	.LVL418:
 3095              		.loc 1 1255 0
 3096 0018 0028     		cmp	r0, #0
 3097 001a F7D1     		bne	.L409
 3098              	.LVL419:
 3099              	.L414:
 3100              		.loc 1 1247 0
 3101 001c 2068     		ldr	r0, [r4]
 3102              	.LVL420:
 3103 001e 2169     		ldr	r1, [r4, #16]
 3104 0020 FFF7FEFF 		bl	move_window
 3105              	.LVL421:
 3106              		.loc 1 1248 0
 3107 0024 0028     		cmp	r0, #0
 3108 0026 F1D1     		bne	.L409
 3109              		.loc 1 1249 0
 3110 0028 6369     		ldr	r3, [r4, #20]
 3111 002a 1B78     		ldrb	r3, [r3]	@ zero_extendqisi2
 3112 002c E52B     		cmp	r3, #229
ARM GAS  /tmp/ccZHgRNF.s 			page 56


 3113 002e 03D0     		beq	.L413
 3114              		.loc 1 1254 0
 3115 0030 2046     		mov	r0, r4
 3116              	.LVL422:
 3117 0032 0121     		movs	r1, #1
 3118              		.loc 1 1249 0
 3119 0034 002B     		cmp	r3, #0
 3120 0036 EDD1     		bne	.L426
 3121              	.L413:
 3122              	.LVL423:
 3123              	.LBE276:
 3124              	.LBE277:
 3125              	.LBB278:
 3126              	.LBB279:
 3127              		.loc 1 1665 0
 3128 0038 2068     		ldr	r0, [r4]
 3129 003a 2169     		ldr	r1, [r4, #16]
 3130 003c FFF7FEFF 		bl	move_window
 3131              	.LVL424:
 3132              		.loc 1 1666 0
 3133 0040 A8B9     		cbnz	r0, .L427
 3134              		.loc 1 1667 0
 3135 0042 6369     		ldr	r3, [r4, #20]
 3136              	.LVL425:
 3137              	.LBB280:
 3138              	.LBB281:
 3139              		.loc 1 583 0
 3140 0044 0146     		mov	r1, r0
 3141 0046 03F12002 		add	r2, r3, #32
 3142              	.LVL426:
 3143              	.L417:
 3144 004a 03F8011B 		strb	r1, [r3], #1
 3145              	.LVL427:
 3146              		.loc 1 582 0
 3147 004e 9342     		cmp	r3, r2
 3148 0050 FBD1     		bne	.L417
 3149              	.LBE281:
 3150              	.LBE280:
 3151              		.loc 1 1668 0
 3152 0052 A369     		ldr	r3, [r4, #24]
 3153              	.LVL428:
 3154 0054 6269     		ldr	r2, [r4, #20]
 3155              	.LVL429:
 3156 0056 03F10B05 		add	r5, r3, #11
 3157              	.LVL430:
 3158              	.L419:
 3159              	.LBB282:
 3160              	.LBB283:
 3161              		.loc 1 574 0
 3162 005a 13F8011B 		ldrb	r1, [r3], #1	@ zero_extendqisi2
 3163              	.LVL431:
 3164 005e 02F8011B 		strb	r1, [r2], #1
 3165              	.LVL432:
 3166              		.loc 1 573 0
 3167 0062 AB42     		cmp	r3, r5
 3168 0064 F9D1     		bne	.L419
 3169              	.LBE283:
ARM GAS  /tmp/ccZHgRNF.s 			page 57


 3170              	.LBE282:
 3171              		.loc 1 1672 0
 3172 0066 2368     		ldr	r3, [r4]
 3173              	.LVL433:
 3174 0068 0122     		movs	r2, #1
 3175              	.LVL434:
 3176 006a 1A71     		strb	r2, [r3, #4]
 3177              	.LVL435:
 3178              	.LBE279:
 3179              	.LBE278:
 3180              		.loc 1 1677 0
 3181 006c 38BD     		pop	{r3, r4, r5, pc}
 3182              	.LVL436:
 3183              	.L427:
 3184 006e 38BD     		pop	{r3, r4, r5, pc}
 3185              		.cfi_endproc
 3186              	.LFE260:
 3187              		.size	dir_register, .-dir_register
 3188              		.section	.text.clust2sect,"ax",%progbits
 3189              		.align	2
 3190              		.p2align 4,,15
 3191              		.global	clust2sect
 3192              		.thumb
 3193              		.thumb_func
 3194              		.type	clust2sect, %function
 3195              	clust2sect:
 3196              	.LFB248:
 3197              		.loc 1 851 0
 3198              		.cfi_startproc
 3199              		@ args = 0, pretend = 0, frame = 0
 3200              		@ frame_needed = 0, uses_anonymous_args = 0
 3201              		@ link register save eliminated.
 3202              	.LVL437:
 3203              		.loc 1 853 0
 3204 0000 4369     		ldr	r3, [r0, #20]
 3205              		.loc 1 852 0
 3206 0002 0239     		subs	r1, r1, #2
 3207              	.LVL438:
 3208              		.loc 1 853 0
 3209 0004 023B     		subs	r3, r3, #2
 3210 0006 9942     		cmp	r1, r3
 3211              		.loc 1 854 0
 3212 0008 3DBF     		ittte	cc
 3213 000a 8278     		ldrbcc	r2, [r0, #2]	@ zero_extendqisi2
 3214 000c 836A     		ldrcc	r3, [r0, #40]
 3215 000e 02FB0130 		mlacc	r0, r2, r1, r3
 3216              	.LVL439:
 3217              		.loc 1 853 0
 3218 0012 0020     		movcs	r0, #0
 3219              		.loc 1 855 0
 3220 0014 7047     		bx	lr
 3221              		.cfi_endproc
 3222              	.LFE248:
 3223              		.size	clust2sect, .-clust2sect
 3224 0016 00BFAFF3 		.section	.text.get_fat,"ax",%progbits
 3224      0080AFF3 
 3224      0080
ARM GAS  /tmp/ccZHgRNF.s 			page 58


 3225              		.align	2
 3226              		.p2align 4,,15
 3227              		.global	get_fat
 3228              		.thumb
 3229              		.thumb_func
 3230              		.type	get_fat, %function
 3231              	get_fat:
 3232              	.LFB249:
 3233              		.loc 1 869 0
 3234              		.cfi_startproc
 3235              		@ args = 0, pretend = 0, frame = 0
 3236              		@ frame_needed = 0, uses_anonymous_args = 0
 3237              		@ link register save eliminated.
 3238              	.LVL440:
 3239              		.loc 1 874 0
 3240 0000 0129     		cmp	r1, #1
 3241 0002 04D9     		bls	.L432
 3242              		.loc 1 874 0 is_stmt 0 discriminator 1
 3243 0004 4269     		ldr	r2, [r0, #20]
 3244 0006 9142     		cmp	r1, r2
 3245 0008 01D2     		bcs	.L432
 3246 000a FFF7FEBF 		b	get_fat.part.6
 3247              	.LVL441:
 3248              	.L432:
 3249              		.loc 1 901 0 is_stmt 1
 3250 000e 0120     		movs	r0, #1
 3251              	.LVL442:
 3252 0010 7047     		bx	lr
 3253              		.cfi_endproc
 3254              	.LFE249:
 3255              		.size	get_fat, .-get_fat
 3256 0012 00BFAFF3 		.section	.text.put_fat,"ax",%progbits
 3256      0080AFF3 
 3256      0080AFF3 
 3256      0080
 3257              		.align	2
 3258              		.p2align 4,,15
 3259              		.global	put_fat
 3260              		.thumb
 3261              		.thumb_func
 3262              		.type	put_fat, %function
 3263              	put_fat:
 3264              	.LFB250:
 3265              		.loc 1 916 0
 3266              		.cfi_startproc
 3267              		@ args = 0, pretend = 0, frame = 0
 3268              		@ frame_needed = 0, uses_anonymous_args = 0
 3269              		@ link register save eliminated.
 3270              	.LVL443:
 3271              		.loc 1 922 0
 3272 0000 0129     		cmp	r1, #1
 3273              		.loc 1 916 0
 3274 0002 10B4     		push	{r4}
 3275              		.cfi_def_cfa_offset 4
 3276              		.cfi_offset 4, -4
 3277              		.loc 1 922 0
 3278 0004 02D9     		bls	.L436
ARM GAS  /tmp/ccZHgRNF.s 			page 59


 3279              		.loc 1 922 0 is_stmt 0 discriminator 1
 3280 0006 4469     		ldr	r4, [r0, #20]
 3281 0008 A142     		cmp	r1, r4
 3282 000a 03D3     		bcc	.L439
 3283              	.L436:
 3284              		.loc 1 963 0 is_stmt 1
 3285 000c 0220     		movs	r0, #2
 3286              	.LVL444:
 3287 000e 5DF8044B 		ldr	r4, [sp], #4
 3288 0012 7047     		bx	lr
 3289              	.LVL445:
 3290              	.L439:
 3291 0014 5DF8044B 		ldr	r4, [sp], #4
 3292 0018 FFF7FEBF 		b	put_fat.part.8
 3293              	.LVL446:
 3294              		.cfi_endproc
 3295              	.LFE250:
 3296              		.size	put_fat, .-put_fat
 3297 001c AFF30080 		.section	.text.f_mount,"ax",%progbits
 3298              		.align	2
 3299              		.p2align 4,,15
 3300              		.global	f_mount
 3301              		.thumb
 3302              		.thumb_func
 3303              		.type	f_mount, %function
 3304              	f_mount:
 3305              	.LFB269:
 3306              		.loc 1 2373 0
 3307              		.cfi_startproc
 3308              		@ args = 0, pretend = 0, frame = 16
 3309              		@ frame_needed = 0, uses_anonymous_args = 0
 3310              	.LVL447:
 3311 0000 30B5     		push	{r4, r5, lr}
 3312              		.cfi_def_cfa_offset 12
 3313              		.cfi_offset 4, -12
 3314              		.cfi_offset 5, -8
 3315              		.cfi_offset 14, -4
 3316 0002 85B0     		sub	sp, sp, #20
 3317              		.cfi_def_cfa_offset 32
 3318              		.loc 1 2377 0
 3319 0004 04AB     		add	r3, sp, #16
 3320              		.loc 1 2373 0
 3321 0006 0190     		str	r0, [sp, #4]
 3322              		.loc 1 2377 0
 3323 0008 43F8041D 		str	r1, [r3, #-4]!
 3324              		.loc 1 2380 0
 3325 000c 1846     		mov	r0, r3
 3326              	.LVL448:
 3327              		.loc 1 2373 0
 3328 000e 0091     		str	r1, [sp]
 3329 0010 1546     		mov	r5, r2
 3330              		.loc 1 2380 0
 3331 0012 FFF7FEFF 		bl	get_ldnumber
 3332              	.LVL449:
 3333              		.loc 1 2381 0
 3334 0016 011E     		subs	r1, r0, #0
 3335 0018 10DB     		blt	.L444
ARM GAS  /tmp/ccZHgRNF.s 			page 60


 3336              		.loc 1 2382 0
 3337 001a 0F4C     		ldr	r4, .L451
 3338 001c 54F82130 		ldr	r3, [r4, r1, lsl #2]
 3339              	.LVL450:
 3340              		.loc 1 2384 0
 3341 0020 0BB1     		cbz	r3, .L442
 3342              		.loc 1 2391 0
 3343 0022 0022     		movs	r2, #0
 3344 0024 1A70     		strb	r2, [r3]
 3345              	.L442:
 3346              		.loc 1 2394 0
 3347 0026 019B     		ldr	r3, [sp, #4]
 3348              	.LVL451:
 3349 0028 5BB1     		cbz	r3, .L443
 3350              		.loc 1 2395 0
 3351 002a 0022     		movs	r2, #0
 3352              		.loc 1 2402 0
 3353 002c 012D     		cmp	r5, #1
 3354              		.loc 1 2395 0
 3355 002e 1A70     		strb	r2, [r3]
 3356              		.loc 1 2400 0
 3357 0030 44F82130 		str	r3, [r4, r1, lsl #2]
 3358              		.loc 1 2402 0
 3359 0034 09D0     		beq	.L450
 3360 0036 1046     		mov	r0, r2
 3361              	.LVL452:
 3362              	.L449:
 3363              		.loc 1 2406 0
 3364 0038 05B0     		add	sp, sp, #20
 3365              	.LVL453:
 3366              		@ sp needed
 3367 003a 30BD     		pop	{r4, r5, pc}
 3368              	.LVL454:
 3369              	.L444:
 3370              		.loc 1 2381 0
 3371 003c 0B20     		movs	r0, #11
 3372              	.LVL455:
 3373              		.loc 1 2406 0
 3374 003e 05B0     		add	sp, sp, #20
 3375              	.LVL456:
 3376              		@ sp needed
 3377 0040 30BD     		pop	{r4, r5, pc}
 3378              	.LVL457:
 3379              	.L443:
 3380              		.loc 1 2400 0
 3381 0042 44F82130 		str	r3, [r4, r1, lsl #2]
 3382              		.loc 1 2402 0
 3383 0046 1846     		mov	r0, r3
 3384              	.LVL458:
 3385 0048 F6E7     		b	.L449
 3386              	.LVL459:
 3387              	.L450:
 3388              		.loc 1 2404 0
 3389 004a 01A8     		add	r0, sp, #4
 3390              	.LVL460:
 3391 004c 6946     		mov	r1, sp
 3392              	.LVL461:
ARM GAS  /tmp/ccZHgRNF.s 			page 61


 3393 004e FFF7FEFF 		bl	find_volume
 3394              	.LVL462:
 3395              		.loc 1 2406 0
 3396 0052 05B0     		add	sp, sp, #20
 3397              	.LVL463:
 3398              		@ sp needed
 3399 0054 30BD     		pop	{r4, r5, pc}
 3400              	.LVL464:
 3401              	.L452:
 3402 0056 00BF     		.align	2
 3403              	.L451:
 3404 0058 00000000 		.word	.LANCHOR0
 3405              		.cfi_endproc
 3406              	.LFE269:
 3407              		.size	f_mount, .-f_mount
 3408 005c AFF30080 		.section	.text.f_open,"ax",%progbits
 3409              		.align	2
 3410              		.p2align 4,,15
 3411              		.global	f_open
 3412              		.thumb
 3413              		.thumb_func
 3414              		.type	f_open, %function
 3415              	f_open:
 3416              	.LFB270:
 3417              		.loc 1 2420 0
 3418              		.cfi_startproc
 3419              		@ args = 0, pretend = 0, frame = 48
 3420              		@ frame_needed = 0, uses_anonymous_args = 0
 3421              	.LVL465:
 3422 0000 2DE9F041 		push	{r4, r5, r6, r7, r8, lr}
 3423              		.cfi_def_cfa_offset 24
 3424              		.cfi_offset 4, -24
 3425              		.cfi_offset 5, -20
 3426              		.cfi_offset 6, -16
 3427              		.cfi_offset 7, -12
 3428              		.cfi_offset 8, -8
 3429              		.cfi_offset 14, -4
 3430 0004 8CB0     		sub	sp, sp, #48
 3431              		.cfi_def_cfa_offset 72
 3432              		.loc 1 2427 0
 3433 0006 0446     		mov	r4, r0
 3434              		.loc 1 2420 0
 3435 0008 0191     		str	r1, [sp, #4]
 3436 000a 1546     		mov	r5, r2
 3437              		.loc 1 2427 0
 3438 000c 58B1     		cbz	r0, .L474
 3439              		.loc 1 2428 0
 3440 000e 0023     		movs	r3, #0
 3441 0010 0360     		str	r3, [r0]
 3442              	.LVL466:
 3443              		.loc 1 2433 0
 3444 0012 01A9     		add	r1, sp, #4
 3445              	.LVL467:
 3446 0014 05A8     		add	r0, sp, #20
 3447              	.LVL468:
 3448 0016 02F01E02 		and	r2, r2, #30
 3449              	.LVL469:
ARM GAS  /tmp/ccZHgRNF.s 			page 62


 3450 001a FFF7FEFF 		bl	find_volume
 3451              	.LVL470:
 3452              		.loc 1 2438 0
 3453 001e 30B1     		cbz	r0, .L494
 3454              	.LVL471:
 3455              	.L490:
 3456              		.loc 1 2541 0
 3457 0020 0CB0     		add	sp, sp, #48
 3458              		@ sp needed
 3459 0022 BDE8F081 		pop	{r4, r5, r6, r7, r8, pc}
 3460              	.LVL472:
 3461              	.L474:
 3462              		.loc 1 2427 0
 3463 0026 0920     		movs	r0, #9
 3464              	.LVL473:
 3465              		.loc 1 2541 0
 3466 0028 0CB0     		add	sp, sp, #48
 3467              		@ sp needed
 3468 002a BDE8F081 		pop	{r4, r5, r6, r7, r8, pc}
 3469              	.LVL474:
 3470              	.L494:
 3471              		.loc 1 2439 0
 3472 002e 02AB     		add	r3, sp, #8
 3473              		.loc 1 2440 0
 3474 0030 05A8     		add	r0, sp, #20
 3475              	.LVL475:
 3476 0032 0199     		ldr	r1, [sp, #4]
 3477              		.loc 1 2439 0
 3478 0034 0B93     		str	r3, [sp, #44]
 3479              		.loc 1 2440 0
 3480 0036 FFF7FEFF 		bl	follow_path
 3481              	.LVL476:
 3482              		.loc 1 2432 0
 3483 003a 05F01F07 		and	r7, r5, #31
 3484              		.loc 1 2441 0
 3485 003e 0A9E     		ldr	r6, [sp, #40]
 3486              	.LVL477:
 3487              		.loc 1 2443 0
 3488 0040 80B1     		cbz	r0, .L495
 3489              	.LVL478:
 3490              	.L455:
 3491              		.loc 1 2452 0
 3492 0042 15F01C0F 		tst	r5, #28
 3493 0046 EBD0     		beq	.L490
 3494              	.LBB284:
 3495              		.loc 1 2456 0
 3496 0048 0428     		cmp	r0, #4
 3497 004a E9D1     		bne	.L490
 3498              		.loc 1 2460 0
 3499 004c 05A8     		add	r0, sp, #20
 3500              	.LVL479:
 3501 004e FFF7FEFF 		bl	dir_register
 3502              	.LVL480:
 3503              		.loc 1 2462 0
 3504 0052 47F00807 		orr	r7, r7, #8
 3505              	.LVL481:
 3506              		.loc 1 2463 0
ARM GAS  /tmp/ccZHgRNF.s 			page 63


 3507 0056 0A9E     		ldr	r6, [sp, #40]
 3508              		.loc 1 2473 0
 3509 0058 0028     		cmp	r0, #0
 3510 005a E1D1     		bne	.L490
 3511              	.LVL482:
 3512              	.L457:
 3513              		.loc 1 2473 0 is_stmt 0 discriminator 1
 3514 005c 3807     		lsls	r0, r7, #28
 3515 005e 49D4     		bmi	.L496
 3516 0060 059B     		ldr	r3, [sp, #20]
 3517 0062 16E0     		b	.L468
 3518              	.LVL483:
 3519              	.L495:
 3520              	.LBE284:
 3521              		.loc 1 2444 0 is_stmt 1
 3522 0064 002E     		cmp	r6, #0
 3523 0066 3BD0     		beq	.L497
 3524              	.LVL484:
 3525              		.loc 1 2452 0
 3526 0068 15F01C0F 		tst	r5, #28
 3527 006c 3AD1     		bne	.L470
 3528              		.loc 1 2493 0
 3529 006e F37A     		ldrb	r3, [r6, #11]	@ zero_extendqisi2
 3530 0070 D906     		lsls	r1, r3, #27
 3531 0072 05D4     		bmi	.L480
 3532              		.loc 1 2496 0
 3533 0074 AA07     		lsls	r2, r5, #30
 3534 0076 05D5     		bpl	.L493
 3535              		.loc 1 2496 0 is_stmt 0 discriminator 1
 3536 0078 DB07     		lsls	r3, r3, #31
 3537 007a 03D5     		bpl	.L493
 3538              	.L481:
 3539              		.loc 1 2497 0 is_stmt 1
 3540 007c 0720     		movs	r0, #7
 3541              	.LVL485:
 3542 007e CFE7     		b	.L490
 3543              	.LVL486:
 3544              	.L480:
 3545              		.loc 1 2494 0
 3546 0080 0420     		movs	r0, #4
 3547 0082 CDE7     		b	.L490
 3548              	.L493:
 3549              	.LVL487:
 3550 0084 05F00802 		and	r2, r5, #8
 3551 0088 D2B2     		uxtb	r2, r2
 3552 008a 059B     		ldr	r3, [sp, #20]
 3553              		.loc 1 2502 0
 3554 008c 0AB1     		cbz	r2, .L468
 3555              	.LVL488:
 3556              	.L462:
 3557              		.loc 1 2503 0
 3558 008e 47F02007 		orr	r7, r7, #32
 3559              	.LVL489:
 3560              	.L468:
 3561              		.loc 1 2504 0
 3562 0092 DA6A     		ldr	r2, [r3, #44]
 3563 0094 E261     		str	r2, [r4, #28]
ARM GAS  /tmp/ccZHgRNF.s 			page 64


 3564              		.loc 1 2527 0
 3565 0096 0022     		movs	r2, #0
 3566              		.loc 1 2505 0
 3567 0098 2662     		str	r6, [r4, #32]
 3568              		.loc 1 2526 0
 3569 009a A771     		strb	r7, [r4, #6]
 3570              		.loc 1 2527 0
 3571 009c E271     		strb	r2, [r4, #7]
 3572              	.LVL490:
 3573              	.LBB299:
 3574              	.LBB300:
 3575              		.loc 1 1278 0
 3576 009e 1978     		ldrb	r1, [r3]	@ zero_extendqisi2
 3577              		.loc 1 1277 0
 3578 00a0 F07E     		ldrb	r0, [r6, #27]	@ zero_extendqisi2
 3579 00a2 B27E     		ldrb	r2, [r6, #26]	@ zero_extendqisi2
 3580              		.loc 1 1278 0
 3581 00a4 0329     		cmp	r1, #3
 3582              		.loc 1 1277 0
 3583 00a6 42EA0022 		orr	r2, r2, r0, lsl #8
 3584              	.LVL491:
 3585              		.loc 1 1278 0
 3586 00aa 12D0     		beq	.L498
 3587              	.L467:
 3588              	.LBE300:
 3589              	.LBE299:
 3590              		.loc 1 2528 0
 3591 00ac 2261     		str	r2, [r4, #16]
 3592              		.loc 1 2529 0
 3593 00ae B77F     		ldrb	r7, [r6, #30]	@ zero_extendqisi2
 3594              	.LVL492:
 3595 00b0 F57F     		ldrb	r5, [r6, #31]	@ zero_extendqisi2
 3596 00b2 307F     		ldrb	r0, [r6, #28]	@ zero_extendqisi2
 3597 00b4 717F     		ldrb	r1, [r6, #29]	@ zero_extendqisi2
 3598              		.loc 1 2536 0
 3599 00b6 DA88     		ldrh	r2, [r3, #6]
 3600              	.LVL493:
 3601              		.loc 1 2535 0
 3602 00b8 2360     		str	r3, [r4]
 3603              		.loc 1 2529 0
 3604 00ba 3B04     		lsls	r3, r7, #16
 3605              	.LVL494:
 3606 00bc 43EA0563 		orr	r3, r3, r5, lsl #24
 3607 00c0 0343     		orrs	r3, r3, r0
 3608 00c2 43EA0123 		orr	r3, r3, r1, lsl #8
 3609              		.loc 1 2530 0
 3610 00c6 0020     		movs	r0, #0
 3611              		.loc 1 2529 0
 3612 00c8 E360     		str	r3, [r4, #12]
 3613              		.loc 1 2536 0
 3614 00ca A280     		strh	r2, [r4, #4]	@ movhi
 3615              		.loc 1 2530 0
 3616 00cc A060     		str	r0, [r4, #8]
 3617              		.loc 1 2531 0
 3618 00ce A061     		str	r0, [r4, #24]
 3619 00d0 A6E7     		b	.L490
 3620              	.LVL495:
ARM GAS  /tmp/ccZHgRNF.s 			page 65


 3621              	.L498:
 3622              	.LBB302:
 3623              	.LBB301:
 3624              		.loc 1 1279 0
 3625 00d2 707D     		ldrb	r0, [r6, #21]	@ zero_extendqisi2
 3626 00d4 317D     		ldrb	r1, [r6, #20]	@ zero_extendqisi2
 3627 00d6 41EA0021 		orr	r1, r1, r0, lsl #8
 3628 00da 42EA0142 		orr	r2, r2, r1, lsl #16
 3629              	.LVL496:
 3630 00de E5E7     		b	.L467
 3631              	.LVL497:
 3632              	.L497:
 3633              	.LBE301:
 3634              	.LBE302:
 3635              		.loc 1 2445 0
 3636 00e0 0620     		movs	r0, #6
 3637              	.LVL498:
 3638 00e2 AEE7     		b	.L455
 3639              	.LVL499:
 3640              	.L470:
 3641              	.LBB303:
 3642              		.loc 1 2466 0
 3643 00e4 F37A     		ldrb	r3, [r6, #11]	@ zero_extendqisi2
 3644 00e6 13F0110F 		tst	r3, #17
 3645 00ea C7D1     		bne	.L481
 3646              		.loc 1 2469 0
 3647 00ec 6D07     		lsls	r5, r5, #29
 3648              	.LVL500:
 3649 00ee B5D5     		bpl	.L457
 3650              		.loc 1 2470 0
 3651 00f0 0820     		movs	r0, #8
 3652 00f2 95E7     		b	.L490
 3653              	.LVL501:
 3654              	.L496:
 3655              		.loc 1 2474 0
 3656 00f4 FFF7FEFF 		bl	get_fattime
 3657              	.LVL502:
 3658              		.loc 1 2476 0
 3659 00f8 0022     		movs	r2, #0
 3660              		.loc 1 2475 0
 3661 00fa 050C     		lsrs	r5, r0, #16
 3662 00fc 010E     		lsrs	r1, r0, #24
 3663 00fe C0F3072C 		ubfx	ip, r0, #8, #8
 3664              		.loc 1 2478 0
 3665 0102 059B     		ldr	r3, [sp, #20]
 3666              	.LVL503:
 3667              		.loc 1 2475 0
 3668 0104 3574     		strb	r5, [r6, #16]
 3669 0106 7174     		strb	r1, [r6, #17]
 3670 0108 B073     		strb	r0, [r6, #14]
 3671 010a 86F80FC0 		strb	ip, [r6, #15]
 3672              		.loc 1 2476 0
 3673 010e F272     		strb	r2, [r6, #11]
 3674              		.loc 1 2477 0
 3675 0110 3277     		strb	r2, [r6, #28]
 3676 0112 7277     		strb	r2, [r6, #29]
 3677 0114 B277     		strb	r2, [r6, #30]
ARM GAS  /tmp/ccZHgRNF.s 			page 66


 3678 0116 F277     		strb	r2, [r6, #31]
 3679              	.LBB285:
 3680              	.LBB286:
 3681              		.loc 1 1278 0
 3682 0118 1A78     		ldrb	r2, [r3]	@ zero_extendqisi2
 3683              		.loc 1 1277 0
 3684 011a F57E     		ldrb	r5, [r6, #27]	@ zero_extendqisi2
 3685 011c B17E     		ldrb	r1, [r6, #26]	@ zero_extendqisi2
 3686              		.loc 1 1278 0
 3687 011e 032A     		cmp	r2, #3
 3688              		.loc 1 1277 0
 3689 0120 41EA0525 		orr	r5, r1, r5, lsl #8
 3690              	.LVL504:
 3691              		.loc 1 1278 0
 3692 0124 11D0     		beq	.L499
 3693              	.L461:
 3694              	.LVL505:
 3695              	.LBE286:
 3696              	.LBE285:
 3697              	.LBB288:
 3698              	.LBB289:
 3699              		.loc 1 1292 0
 3700 0126 0022     		movs	r2, #0
 3701              	.LBE289:
 3702              	.LBE288:
 3703              		.loc 1 2480 0
 3704 0128 0121     		movs	r1, #1
 3705              	.LBB291:
 3706              	.LBB290:
 3707              		.loc 1 1292 0
 3708 012a B276     		strb	r2, [r6, #26]
 3709 012c F276     		strb	r2, [r6, #27]
 3710              		.loc 1 1293 0
 3711 012e 3275     		strb	r2, [r6, #20]
 3712 0130 7275     		strb	r2, [r6, #21]
 3713              	.LBE290:
 3714              	.LBE291:
 3715              		.loc 1 2480 0
 3716 0132 1971     		strb	r1, [r3, #4]
 3717              		.loc 1 2481 0
 3718 0134 002D     		cmp	r5, #0
 3719 0136 AAD0     		beq	.L462
 3720              	.LBB292:
 3721              	.LBB293:
 3722              		.loc 1 985 0
 3723 0138 8D42     		cmp	r5, r1
 3724              	.LBE293:
 3725              	.LBE292:
 3726              		.loc 1 2482 0
 3727 013a D3F82C80 		ldr	r8, [r3, #44]
 3728              	.LVL506:
 3729              	.LBB296:
 3730              	.LBB294:
 3731              		.loc 1 985 0
 3732 013e 02D9     		bls	.L479
 3733 0140 5A69     		ldr	r2, [r3, #20]
 3734 0142 9542     		cmp	r5, r2
ARM GAS  /tmp/ccZHgRNF.s 			page 67


 3735 0144 08D3     		bcc	.L500
 3736              	.L479:
 3737 0146 0220     		movs	r0, #2
 3738 0148 6AE7     		b	.L490
 3739              	.LVL507:
 3740              	.L499:
 3741              	.LBE294:
 3742              	.LBE296:
 3743              	.LBB297:
 3744              	.LBB287:
 3745              		.loc 1 1279 0
 3746 014a 717D     		ldrb	r1, [r6, #21]	@ zero_extendqisi2
 3747 014c 327D     		ldrb	r2, [r6, #20]	@ zero_extendqisi2
 3748 014e 42EA0122 		orr	r2, r2, r1, lsl #8
 3749 0152 45EA0245 		orr	r5, r5, r2, lsl #16
 3750              	.LVL508:
 3751 0156 E6E7     		b	.L461
 3752              	.LVL509:
 3753              	.L500:
 3754              	.LBE287:
 3755              	.LBE297:
 3756              	.LBB298:
 3757              	.LBB295:
 3758 0158 1846     		mov	r0, r3
 3759 015a 2946     		mov	r1, r5
 3760 015c FFF7FEFF 		bl	remove_chain.part.10
 3761              	.LVL510:
 3762              	.LBE295:
 3763              	.LBE298:
 3764              		.loc 1 2484 0
 3765 0160 0028     		cmp	r0, #0
 3766 0162 7FF45DAF 		bne	.L490
 3767              		.loc 1 2485 0
 3768 0166 0598     		ldr	r0, [sp, #20]
 3769              	.LVL511:
 3770 0168 013D     		subs	r5, r5, #1
 3771              	.LVL512:
 3772              		.loc 1 2486 0
 3773 016a 4146     		mov	r1, r8
 3774              		.loc 1 2485 0
 3775 016c C560     		str	r5, [r0, #12]
 3776              		.loc 1 2486 0
 3777 016e FFF7FEFF 		bl	move_window
 3778              	.LVL513:
 3779              	.LBE303:
 3780              		.loc 1 2501 0
 3781 0172 0028     		cmp	r0, #0
 3782 0174 7FF454AF 		bne	.L490
 3783 0178 059B     		ldr	r3, [sp, #20]
 3784 017a 88E7     		b	.L462
 3785              		.cfi_endproc
 3786              	.LFE270:
 3787              		.size	f_open, .-f_open
 3788 017c AFF30080 		.section	.text.f_read,"ax",%progbits
 3789              		.align	2
 3790              		.p2align 4,,15
 3791              		.global	f_read
ARM GAS  /tmp/ccZHgRNF.s 			page 68


 3792              		.thumb
 3793              		.thumb_func
 3794              		.type	f_read, %function
 3795              	f_read:
 3796              	.LFB271:
 3797              		.loc 1 2556 0
 3798              		.cfi_startproc
 3799              		@ args = 0, pretend = 0, frame = 0
 3800              		@ frame_needed = 0, uses_anonymous_args = 0
 3801              	.LVL514:
 3802 0000 2DE9F84F 		push	{r3, r4, r5, r6, r7, r8, r9, r10, fp, lr}
 3803              		.cfi_def_cfa_offset 40
 3804              		.cfi_offset 3, -40
 3805              		.cfi_offset 4, -36
 3806              		.cfi_offset 5, -32
 3807              		.cfi_offset 6, -28
 3808              		.cfi_offset 7, -24
 3809              		.cfi_offset 8, -20
 3810              		.cfi_offset 9, -16
 3811              		.cfi_offset 10, -12
 3812              		.cfi_offset 11, -8
 3813              		.cfi_offset 14, -4
 3814              		.loc 1 2556 0
 3815 0004 9946     		mov	r9, r3
 3816              		.loc 1 2563 0
 3817 0006 0023     		movs	r3, #0
 3818              	.LVL515:
 3819 0008 C9F80030 		str	r3, [r9]
 3820              		.loc 1 2556 0
 3821 000c 8B46     		mov	fp, r1
 3822              	.LVL516:
 3823 000e 1446     		mov	r4, r2
 3824 0010 0746     		mov	r7, r0
 3825              		.loc 1 2565 0
 3826 0012 FFF7FEFF 		bl	validate
 3827              	.LVL517:
 3828              		.loc 1 2566 0
 3829 0016 28B9     		cbnz	r0, .L502
 3830              		.loc 1 2567 0
 3831 0018 F879     		ldrb	r0, [r7, #7]	@ zero_extendqisi2
 3832              	.LVL518:
 3833 001a 18B9     		cbnz	r0, .L502
 3834              		.loc 1 2569 0
 3835 001c BB79     		ldrb	r3, [r7, #6]	@ zero_extendqisi2
 3836 001e D807     		lsls	r0, r3, #31
 3837 0020 02D4     		bmi	.L545
 3838              		.loc 1 2570 0
 3839 0022 0720     		movs	r0, #7
 3840              	.L502:
 3841              		.loc 1 2641 0
 3842 0024 BDE8F88F 		pop	{r3, r4, r5, r6, r7, r8, r9, r10, fp, pc}
 3843              	.LVL519:
 3844              	.L545:
 3845              		.loc 1 2571 0
 3846 0028 BB68     		ldr	r3, [r7, #8]
 3847 002a FA68     		ldr	r2, [r7, #12]
 3848 002c D21A     		subs	r2, r2, r3
ARM GAS  /tmp/ccZHgRNF.s 			page 69


 3849              	.LVL520:
 3850 002e 9442     		cmp	r4, r2
 3851 0030 34BF     		ite	cc
 3852 0032 A046     		movcc	r8, r4
 3853 0034 9046     		movcs	r8, r2
 3854              	.LVL521:
 3855              		.loc 1 2618 0
 3856 0036 07F1240A 		add	r10, r7, #36
 3857              		.loc 1 2574 0
 3858 003a B8F1000F 		cmp	r8, #0
 3859 003e 47D0     		beq	.L527
 3860              	.LVL522:
 3861              	.L528:
 3862              		.loc 1 2576 0
 3863 0040 C3F30804 		ubfx	r4, r3, #0, #9
 3864 0044 002C     		cmp	r4, #0
 3865 0046 63D1     		bne	.L504
 3866              		.loc 1 2577 0
 3867 0048 3868     		ldr	r0, [r7]
 3868 004a 8278     		ldrb	r2, [r0, #2]	@ zero_extendqisi2
 3869 004c 013A     		subs	r2, r2, #1
 3870 004e 02EA5322 		and	r2, r2, r3, lsr #9
 3871              	.LVL523:
 3872              		.loc 1 2578 0
 3873 0052 12F0FF06 		ands	r6, r2, #255
 3874 0056 6ED0     		beq	.L505
 3875 0058 7B69     		ldr	r3, [r7, #20]
 3876              	.LVL524:
 3877              	.L506:
 3878              	.LBB304:
 3879              	.LBB305:
 3880              		.loc 1 853 0
 3881 005a 4269     		ldr	r2, [r0, #20]
 3882              		.loc 1 852 0
 3883 005c 023B     		subs	r3, r3, #2
 3884              	.LVL525:
 3885              		.loc 1 853 0
 3886 005e 023A     		subs	r2, r2, #2
 3887 0060 9342     		cmp	r3, r2
 3888 0062 77D2     		bcs	.L512
 3889              		.loc 1 854 0
 3890 0064 8278     		ldrb	r2, [r0, #2]	@ zero_extendqisi2
 3891 0066 846A     		ldr	r4, [r0, #40]
 3892 0068 02FB0344 		mla	r4, r2, r3, r4
 3893              	.LBE305:
 3894              	.LBE304:
 3895              		.loc 1 2594 0
 3896 006c 002C     		cmp	r4, #0
 3897 006e 71D0     		beq	.L512
 3898              		.loc 1 2597 0
 3899 0070 5FEA5825 		lsrs	r5, r8, #9
 3900              		.loc 1 2595 0
 3901 0074 3444     		add	r4, r4, r6
 3902              	.LVL526:
 3903              		.loc 1 2597 0
 3904 0076 2ED0     		beq	.L514
 3905              		.loc 1 2598 0
ARM GAS  /tmp/ccZHgRNF.s 			page 70


 3906 0078 7319     		adds	r3, r6, r5
 3907              	.LVL527:
 3908 007a 9342     		cmp	r3, r2
 3909              		.loc 1 2599 0
 3910 007c 88BF     		it	hi
 3911 007e C6EB0205 		rsbhi	r5, r6, r2
 3912              	.LVL528:
 3913              		.loc 1 2600 0
 3914 0082 4078     		ldrb	r0, [r0, #1]	@ zero_extendqisi2
 3915              	.LVL529:
 3916 0084 5946     		mov	r1, fp
 3917 0086 2246     		mov	r2, r4
 3918 0088 2B46     		mov	r3, r5
 3919 008a FFF7FEFF 		bl	disk_read
 3920              	.LVL530:
 3921 008e 0028     		cmp	r0, #0
 3922 0090 64D1     		bne	.L544
 3923              		.loc 1 2607 0
 3924 0092 BB79     		ldrb	r3, [r7, #6]	@ zero_extendqisi2
 3925 0094 5A06     		lsls	r2, r3, #25
 3926 0096 0ED5     		bpl	.L519
 3927              		.loc 1 2607 0 is_stmt 0 discriminator 1
 3928 0098 BB69     		ldr	r3, [r7, #24]
 3929 009a 1C1B     		subs	r4, r3, r4
 3930              	.LVL531:
 3931 009c A542     		cmp	r5, r4
 3932 009e 0AD9     		bls	.L519
 3933              		.loc 1 2608 0 is_stmt 1
 3934 00a0 0BEB4424 		add	r4, fp, r4, lsl #9
 3935 00a4 04F50073 		add	r3, r4, #512
 3936 00a8 5246     		mov	r2, r10
 3937              	.LVL532:
 3938              	.L520:
 3939              	.LBB306:
 3940              	.LBB307:
 3941              		.loc 1 574 0
 3942 00aa 12F8011B 		ldrb	r1, [r2], #1	@ zero_extendqisi2
 3943              	.LVL533:
 3944 00ae 04F8011B 		strb	r1, [r4], #1
 3945              	.LVL534:
 3946              		.loc 1 573 0
 3947 00b2 9C42     		cmp	r4, r3
 3948 00b4 F9D1     		bne	.L520
 3949              	.LVL535:
 3950              	.L519:
 3951 00b6 BB68     		ldr	r3, [r7, #8]
 3952              	.LBE307:
 3953              	.LBE306:
 3954              		.loc 1 2611 0
 3955 00b8 6A02     		lsls	r2, r5, #9
 3956              	.LVL536:
 3957              	.L518:
 3958              		.loc 1 2575 0
 3959 00ba D9F80010 		ldr	r1, [r9]
 3960 00be 1344     		add	r3, r3, r2
 3961 00c0 1144     		add	r1, r1, r2
 3962              		.loc 1 2574 0
ARM GAS  /tmp/ccZHgRNF.s 			page 71


 3963 00c2 B8EB0208 		subs	r8, r8, r2
 3964              	.LVL537:
 3965              		.loc 1 2575 0
 3966 00c6 BB60     		str	r3, [r7, #8]
 3967 00c8 9344     		add	fp, fp, r2
 3968              	.LVL538:
 3969 00ca C9F80010 		str	r1, [r9]
 3970              		.loc 1 2574 0
 3971 00ce B7D1     		bne	.L528
 3972              	.LVL539:
 3973              	.L527:
 3974              		.loc 1 2640 0
 3975 00d0 0020     		movs	r0, #0
 3976 00d2 BDE8F88F 		pop	{r3, r4, r5, r6, r7, r8, r9, r10, fp, pc}
 3977              	.LVL540:
 3978              	.L514:
 3979              		.loc 1 2615 0
 3980 00d6 BA69     		ldr	r2, [r7, #24]
 3981 00d8 A242     		cmp	r2, r4
 3982 00da 15D0     		beq	.L521
 3983              		.loc 1 2617 0
 3984 00dc BB79     		ldrb	r3, [r7, #6]	@ zero_extendqisi2
 3985              	.LVL541:
 3986 00de 5B06     		lsls	r3, r3, #25
 3987 00e0 0BD5     		bpl	.L523
 3988              		.loc 1 2618 0
 3989 00e2 4078     		ldrb	r0, [r0, #1]	@ zero_extendqisi2
 3990              	.LVL542:
 3991 00e4 5146     		mov	r1, r10
 3992 00e6 0123     		movs	r3, #1
 3993 00e8 FFF7FEFF 		bl	disk_write
 3994              	.LVL543:
 3995 00ec 0028     		cmp	r0, #0
 3996 00ee 35D1     		bne	.L544
 3997              		.loc 1 2620 0
 3998 00f0 BB79     		ldrb	r3, [r7, #6]	@ zero_extendqisi2
 3999 00f2 3868     		ldr	r0, [r7]
 4000 00f4 23F04003 		bic	r3, r3, #64
 4001 00f8 BB71     		strb	r3, [r7, #6]
 4002              	.L523:
 4003              		.loc 1 2623 0
 4004 00fa 4078     		ldrb	r0, [r0, #1]	@ zero_extendqisi2
 4005 00fc 5146     		mov	r1, r10
 4006 00fe 2246     		mov	r2, r4
 4007 0100 0123     		movs	r3, #1
 4008 0102 FFF7FEFF 		bl	disk_read
 4009              	.LVL544:
 4010 0106 48BB     		cbnz	r0, .L544
 4011              	.L521:
 4012 0108 BB68     		ldr	r3, [r7, #8]
 4013              		.loc 1 2627 0
 4014 010a BC61     		str	r4, [r7, #24]
 4015 010c C3F30804 		ubfx	r4, r3, #0, #9
 4016              	.LVL545:
 4017              	.L504:
 4018              		.loc 1 2629 0
 4019 0110 C4F50072 		rsb	r2, r4, #512
ARM GAS  /tmp/ccZHgRNF.s 			page 72


 4020              	.LVL546:
 4021 0114 4245     		cmp	r2, r8
 4022 0116 28BF     		it	cs
 4023 0118 4246     		movcs	r2, r8
 4024              	.LVL547:
 4025              		.loc 1 2636 0
 4026 011a 3C44     		add	r4, r4, r7
 4027 011c 2434     		adds	r4, r4, #36
 4028              	.LVL548:
 4029              	.LBB308:
 4030              	.LBB309:
 4031              		.loc 1 573 0
 4032 011e 002A     		cmp	r2, #0
 4033 0120 CBD0     		beq	.L518
 4034 0122 A318     		adds	r3, r4, r2
 4035 0124 5D46     		mov	r5, fp
 4036              	.LVL549:
 4037              	.L526:
 4038              		.loc 1 574 0
 4039 0126 14F8016B 		ldrb	r6, [r4], #1	@ zero_extendqisi2
 4040              	.LVL550:
 4041 012a 05F8016B 		strb	r6, [r5], #1
 4042              	.LVL551:
 4043              		.loc 1 573 0
 4044 012e 9C42     		cmp	r4, r3
 4045 0130 F9D1     		bne	.L526
 4046 0132 BB68     		ldr	r3, [r7, #8]
 4047 0134 C1E7     		b	.L518
 4048              	.LVL552:
 4049              	.L505:
 4050              	.LBE309:
 4051              	.LBE308:
 4052              		.loc 1 2579 0
 4053 0136 3BB9     		cbnz	r3, .L507
 4054              		.loc 1 2580 0
 4055 0138 3B69     		ldr	r3, [r7, #16]
 4056              	.LVL553:
 4057              	.L508:
 4058              		.loc 1 2589 0
 4059 013a 012B     		cmp	r3, #1
 4060 013c 0AD9     		bls	.L512
 4061              		.loc 1 2590 0
 4062 013e 591C     		adds	r1, r3, #1
 4063 0140 0CD0     		beq	.L544
 4064 0142 3868     		ldr	r0, [r7]
 4065              		.loc 1 2591 0
 4066 0144 7B61     		str	r3, [r7, #20]
 4067 0146 88E7     		b	.L506
 4068              	.LVL554:
 4069              	.L507:
 4070              		.loc 1 2587 0
 4071 0148 7969     		ldr	r1, [r7, #20]
 4072              	.LVL555:
 4073              	.LBB310:
 4074              	.LBB311:
 4075              		.loc 1 874 0
 4076 014a 0129     		cmp	r1, #1
ARM GAS  /tmp/ccZHgRNF.s 			page 73


 4077 014c 02D9     		bls	.L512
 4078 014e 4369     		ldr	r3, [r0, #20]
 4079 0150 9942     		cmp	r1, r3
 4080 0152 07D3     		bcc	.L546
 4081              	.LVL556:
 4082              	.L512:
 4083              	.LBE311:
 4084              	.LBE310:
 4085              		.loc 1 2594 0 discriminator 1
 4086 0154 0220     		movs	r0, #2
 4087 0156 F871     		strb	r0, [r7, #7]
 4088 0158 BDE8F88F 		pop	{r3, r4, r5, r6, r7, r8, r9, r10, fp, pc}
 4089              	.LVL557:
 4090              	.L544:
 4091              		.loc 1 2624 0
 4092 015c 0120     		movs	r0, #1
 4093 015e F871     		strb	r0, [r7, #7]
 4094 0160 BDE8F88F 		pop	{r3, r4, r5, r6, r7, r8, r9, r10, fp, pc}
 4095              	.LVL558:
 4096              	.L546:
 4097              	.LBB313:
 4098              	.LBB312:
 4099 0164 FFF7FEFF 		bl	get_fat.part.6
 4100              	.LVL559:
 4101 0168 0346     		mov	r3, r0
 4102 016a E6E7     		b	.L508
 4103              	.LBE312:
 4104              	.LBE313:
 4105              		.cfi_endproc
 4106              	.LFE271:
 4107              		.size	f_read, .-f_read
 4108 016c AFF30080 		.section	.text.f_write,"ax",%progbits
 4109              		.align	2
 4110              		.p2align 4,,15
 4111              		.global	f_write
 4112              		.thumb
 4113              		.thumb_func
 4114              		.type	f_write, %function
 4115              	f_write:
 4116              	.LFB272:
 4117              		.loc 1 2657 0
 4118              		.cfi_startproc
 4119              		@ args = 0, pretend = 0, frame = 8
 4120              		@ frame_needed = 0, uses_anonymous_args = 0
 4121              	.LVL560:
 4122 0000 2DE9F04F 		push	{r4, r5, r6, r7, r8, r9, r10, fp, lr}
 4123              		.cfi_def_cfa_offset 36
 4124              		.cfi_offset 4, -36
 4125              		.cfi_offset 5, -32
 4126              		.cfi_offset 6, -28
 4127              		.cfi_offset 7, -24
 4128              		.cfi_offset 8, -20
 4129              		.cfi_offset 9, -16
 4130              		.cfi_offset 10, -12
 4131              		.cfi_offset 11, -8
 4132              		.cfi_offset 14, -4
 4133 0004 9A46     		mov	r10, r3
ARM GAS  /tmp/ccZHgRNF.s 			page 74


 4134              		.loc 1 2665 0
 4135 0006 0023     		movs	r3, #0
 4136              	.LVL561:
 4137              		.loc 1 2657 0
 4138 0008 83B0     		sub	sp, sp, #12
 4139              		.cfi_def_cfa_offset 48
 4140              		.loc 1 2665 0
 4141 000a CAF80030 		str	r3, [r10]
 4142              		.loc 1 2657 0
 4143 000e 0C46     		mov	r4, r1
 4144 0010 9046     		mov	r8, r2
 4145 0012 0746     		mov	r7, r0
 4146              	.LVL562:
 4147              		.loc 1 2667 0
 4148 0014 FFF7FEFF 		bl	validate
 4149              	.LVL563:
 4150              		.loc 1 2668 0
 4151 0018 28B9     		cbnz	r0, .L548
 4152              		.loc 1 2669 0
 4153 001a F879     		ldrb	r0, [r7, #7]	@ zero_extendqisi2
 4154              	.LVL564:
 4155 001c 18B9     		cbnz	r0, .L548
 4156              		.loc 1 2671 0
 4157 001e BB79     		ldrb	r3, [r7, #6]	@ zero_extendqisi2
 4158 0020 9807     		lsls	r0, r3, #30
 4159 0022 03D4     		bmi	.L593
 4160              		.loc 1 2672 0
 4161 0024 0720     		movs	r0, #7
 4162              	.LVL565:
 4163              	.L548:
 4164              		.loc 1 2764 0
 4165 0026 03B0     		add	sp, sp, #12
 4166              		@ sp needed
 4167 0028 BDE8F08F 		pop	{r4, r5, r6, r7, r8, r9, r10, fp, pc}
 4168              	.LVL566:
 4169              	.L593:
 4170              		.loc 1 2673 0
 4171 002c BE68     		ldr	r6, [r7, #8]
 4172 002e 18EB060F 		cmn	r8, r6
 4173 0032 08D3     		bcc	.L594
 4174              	.LVL567:
 4175              	.L549:
 4176              		.loc 1 2760 0
 4177 0034 FA68     		ldr	r2, [r7, #12]
 4178              		.loc 1 2761 0
 4179 0036 43F02003 		orr	r3, r3, #32
 4180              		.loc 1 2760 0
 4181 003a B242     		cmp	r2, r6
 4182 003c 38BF     		it	cc
 4183 003e FE60     		strcc	r6, [r7, #12]
 4184              		.loc 1 2761 0
 4185 0040 BB71     		strb	r3, [r7, #6]
 4186              		.loc 1 2763 0
 4187 0042 0020     		movs	r0, #0
 4188 0044 EFE7     		b	.L548
 4189              	.LVL568:
 4190              	.L594:
ARM GAS  /tmp/ccZHgRNF.s 			page 75


 4191              		.loc 1 2675 0 discriminator 1
 4192 0046 B8F1000F 		cmp	r8, #0
 4193 004a F3D0     		beq	.L549
 4194              		.loc 1 2741 0
 4195 004c 07F12403 		add	r3, r7, #36
 4196 0050 0193     		str	r3, [sp, #4]
 4197              	.LVL569:
 4198              	.L576:
 4199              		.loc 1 2677 0
 4200 0052 C6F30805 		ubfx	r5, r6, #0, #9
 4201 0056 002D     		cmp	r5, #0
 4202 0058 6DD1     		bne	.L550
 4203              		.loc 1 2678 0
 4204 005a 3B68     		ldr	r3, [r7]
 4205 005c 9D78     		ldrb	r5, [r3, #2]	@ zero_extendqisi2
 4206 005e 013D     		subs	r5, r5, #1
 4207 0060 05EA5625 		and	r5, r5, r6, lsr #9
 4208              	.LVL570:
 4209              		.loc 1 2679 0
 4210 0064 15F0FF05 		ands	r5, r5, #255
 4211              	.LVL571:
 4212 0068 10D1     		bne	.L551
 4213              		.loc 1 2680 0
 4214 006a 002E     		cmp	r6, #0
 4215 006c 40F08C80 		bne	.L552
 4216              		.loc 1 2681 0
 4217 0070 3869     		ldr	r0, [r7, #16]
 4218              	.LVL572:
 4219              		.loc 1 2682 0
 4220 0072 0028     		cmp	r0, #0
 4221 0074 00F09280 		beq	.L595
 4222              	.LVL573:
 4223              	.L553:
 4224              		.loc 1 2693 0
 4225 0078 0128     		cmp	r0, #1
 4226 007a 00F0A180 		beq	.L560
 4227              		.loc 1 2694 0
 4228 007e 411C     		adds	r1, r0, #1
 4229 0080 7FD0     		beq	.L571
 4230              		.loc 1 2696 0
 4231 0082 3B69     		ldr	r3, [r7, #16]
 4232              		.loc 1 2695 0
 4233 0084 7861     		str	r0, [r7, #20]
 4234              		.loc 1 2696 0
 4235 0086 002B     		cmp	r3, #0
 4236 0088 78D0     		beq	.L557
 4237 008a 3B68     		ldr	r3, [r7]
 4238              	.LVL574:
 4239              	.L551:
 4240              		.loc 1 2702 0
 4241 008c BA79     		ldrb	r2, [r7, #6]	@ zero_extendqisi2
 4242 008e 5206     		lsls	r2, r2, #25
 4243 0090 67D4     		bmi	.L596
 4244              	.L558:
 4245              	.LVL575:
 4246              	.LBB314:
 4247              	.LBB315:
ARM GAS  /tmp/ccZHgRNF.s 			page 76


 4248              		.loc 1 852 0
 4249 0092 7969     		ldr	r1, [r7, #20]
 4250              		.loc 1 853 0
 4251 0094 5A69     		ldr	r2, [r3, #20]
 4252              		.loc 1 852 0
 4253 0096 A1F1020C 		sub	ip, r1, #2
 4254              	.LVL576:
 4255              		.loc 1 853 0
 4256 009a 023A     		subs	r2, r2, #2
 4257 009c 9445     		cmp	ip, r2
 4258 009e 80F08F80 		bcs	.L560
 4259              		.loc 1 854 0
 4260 00a2 9978     		ldrb	r1, [r3, #2]	@ zero_extendqisi2
 4261 00a4 9A6A     		ldr	r2, [r3, #40]
 4262 00a6 0CFB0122 		mla	r2, ip, r1, r2
 4263              	.LBE315:
 4264              	.LBE314:
 4265              		.loc 1 2709 0
 4266 00aa 002A     		cmp	r2, #0
 4267 00ac 00F08880 		beq	.L560
 4268              		.loc 1 2712 0
 4269 00b0 5FEA582B 		lsrs	fp, r8, #9
 4270              		.loc 1 2710 0
 4271 00b4 05EB0209 		add	r9, r5, r2
 4272              	.LVL577:
 4273              		.loc 1 2712 0
 4274 00b8 32D0     		beq	.L562
 4275              		.loc 1 2713 0
 4276 00ba 05EB0B02 		add	r2, r5, fp
 4277 00be 8A42     		cmp	r2, r1
 4278              		.loc 1 2714 0
 4279 00c0 88BF     		it	hi
 4280 00c2 C5EB010B 		rsbhi	fp, r5, r1
 4281              	.LVL578:
 4282              		.loc 1 2715 0
 4283 00c6 5878     		ldrb	r0, [r3, #1]	@ zero_extendqisi2
 4284 00c8 2146     		mov	r1, r4
 4285 00ca 4A46     		mov	r2, r9
 4286 00cc 5B46     		mov	r3, fp
 4287              	.LVL579:
 4288 00ce FFF7FEFF 		bl	disk_write
 4289              	.LVL580:
 4290 00d2 0028     		cmp	r0, #0
 4291 00d4 55D1     		bne	.L571
 4292              		.loc 1 2724 0
 4293 00d6 BD69     		ldr	r5, [r7, #24]
 4294 00d8 C9EB050C 		rsb	ip, r9, r5
 4295 00dc E345     		cmp	fp, ip
 4296 00de 0ED9     		bls	.L565
 4297              		.loc 1 2725 0
 4298 00e0 04EB4C25 		add	r5, r4, ip, lsl #9
 4299              	.LVL581:
 4300 00e4 019E     		ldr	r6, [sp, #4]
 4301 00e6 05F50073 		add	r3, r5, #512
 4302              	.LVL582:
 4303              	.L567:
 4304              	.LBB316:
ARM GAS  /tmp/ccZHgRNF.s 			page 77


 4305              	.LBB317:
 4306              		.loc 1 574 0
 4307 00ea 15F8012B 		ldrb	r2, [r5], #1	@ zero_extendqisi2
 4308              	.LVL583:
 4309 00ee 06F8012B 		strb	r2, [r6], #1
 4310              	.LVL584:
 4311              		.loc 1 573 0
 4312 00f2 9D42     		cmp	r5, r3
 4313 00f4 F9D1     		bne	.L567
 4314              	.LBE317:
 4315              	.LBE316:
 4316              		.loc 1 2726 0
 4317 00f6 BB79     		ldrb	r3, [r7, #6]	@ zero_extendqisi2
 4318              	.LVL585:
 4319 00f8 23F04003 		bic	r3, r3, #64
 4320 00fc BB71     		strb	r3, [r7, #6]
 4321              	.LVL586:
 4322              	.L565:
 4323              		.loc 1 2730 0
 4324 00fe 4FEA4B22 		lsl	r2, fp, #9
 4325              	.LVL587:
 4326 0102 BE68     		ldr	r6, [r7, #8]
 4327 0104 A318     		adds	r3, r4, r2
 4328              	.LVL588:
 4329              	.L568:
 4330              		.loc 1 2676 0
 4331 0106 DAF80010 		ldr	r1, [r10]
 4332 010a 1644     		add	r6, r6, r2
 4333 010c 1144     		add	r1, r1, r2
 4334              		.loc 1 2675 0
 4335 010e B8EB0208 		subs	r8, r8, r2
 4336              	.LVL589:
 4337              		.loc 1 2676 0
 4338 0112 BE60     		str	r6, [r7, #8]
 4339 0114 1C46     		mov	r4, r3
 4340 0116 CAF80010 		str	r1, [r10]
 4341              		.loc 1 2675 0
 4342 011a 9AD1     		bne	.L576
 4343 011c BB79     		ldrb	r3, [r7, #6]	@ zero_extendqisi2
 4344              	.LVL590:
 4345 011e 89E7     		b	.L549
 4346              	.LVL591:
 4347              	.L562:
 4348              		.loc 1 2739 0
 4349 0120 BA69     		ldr	r2, [r7, #24]
 4350              		.loc 1 2740 0
 4351 0122 BE68     		ldr	r6, [r7, #8]
 4352              		.loc 1 2739 0
 4353 0124 4A45     		cmp	r2, r9
 4354 0126 02D0     		beq	.L570
 4355              		.loc 1 2740 0
 4356 0128 FA68     		ldr	r2, [r7, #12]
 4357 012a 9642     		cmp	r6, r2
 4358 012c 3ED3     		bcc	.L597
 4359              	.LVL592:
 4360              	.L570:
 4361              		.loc 1 2745 0
ARM GAS  /tmp/ccZHgRNF.s 			page 78


 4362 012e C7F81890 		str	r9, [r7, #24]
 4363 0132 C6F30805 		ubfx	r5, r6, #0, #9
 4364              	.LVL593:
 4365              	.L550:
 4366              		.loc 1 2747 0
 4367 0136 C5F50072 		rsb	r2, r5, #512
 4368              	.LVL594:
 4369 013a 4245     		cmp	r2, r8
 4370 013c 28BF     		it	cs
 4371 013e 4246     		movcs	r2, r8
 4372              	.LVL595:
 4373              		.loc 1 2755 0
 4374 0140 3D44     		add	r5, r5, r7
 4375 0142 2435     		adds	r5, r5, #36
 4376              	.LVL596:
 4377 0144 2346     		mov	r3, r4
 4378              	.LBB318:
 4379              	.LBB319:
 4380              		.loc 1 573 0
 4381 0146 3AB1     		cbz	r2, .L572
 4382 0148 A318     		adds	r3, r4, r2
 4383              	.LVL597:
 4384              	.L574:
 4385              		.loc 1 574 0
 4386 014a 14F8016B 		ldrb	r6, [r4], #1	@ zero_extendqisi2
 4387              	.LVL598:
 4388 014e 05F8016B 		strb	r6, [r5], #1
 4389              	.LVL599:
 4390              		.loc 1 573 0
 4391 0152 9C42     		cmp	r4, r3
 4392 0154 F9D1     		bne	.L574
 4393 0156 BE68     		ldr	r6, [r7, #8]
 4394              	.LVL600:
 4395              	.L572:
 4396              	.LBE319:
 4397              	.LBE318:
 4398              		.loc 1 2756 0
 4399 0158 B979     		ldrb	r1, [r7, #6]	@ zero_extendqisi2
 4400 015a 41F04001 		orr	r1, r1, #64
 4401 015e B971     		strb	r1, [r7, #6]
 4402 0160 D1E7     		b	.L568
 4403              	.LVL601:
 4404              	.L596:
 4405              		.loc 1 2703 0
 4406 0162 5878     		ldrb	r0, [r3, #1]	@ zero_extendqisi2
 4407 0164 BA69     		ldr	r2, [r7, #24]
 4408 0166 0199     		ldr	r1, [sp, #4]
 4409 0168 0123     		movs	r3, #1
 4410 016a FFF7FEFF 		bl	disk_write
 4411              	.LVL602:
 4412 016e 40B9     		cbnz	r0, .L571
 4413              		.loc 1 2705 0
 4414 0170 BA79     		ldrb	r2, [r7, #6]	@ zero_extendqisi2
 4415 0172 3B68     		ldr	r3, [r7]
 4416 0174 22F04002 		bic	r2, r2, #64
 4417 0178 BA71     		strb	r2, [r7, #6]
 4418 017a 8AE7     		b	.L558
ARM GAS  /tmp/ccZHgRNF.s 			page 79


 4419              	.LVL603:
 4420              	.L557:
 4421 017c 3B68     		ldr	r3, [r7]
 4422              		.loc 1 2696 0 discriminator 1
 4423 017e 3861     		str	r0, [r7, #16]
 4424 0180 84E7     		b	.L551
 4425              	.LVL604:
 4426              	.L571:
 4427              		.loc 1 2742 0
 4428 0182 0120     		movs	r0, #1
 4429 0184 F871     		strb	r0, [r7, #7]
 4430 0186 4EE7     		b	.L548
 4431              	.LVL605:
 4432              	.L552:
 4433              		.loc 1 2690 0
 4434 0188 1846     		mov	r0, r3
 4435 018a 7969     		ldr	r1, [r7, #20]
 4436 018c FFF7FEFF 		bl	create_chain
 4437              	.LVL606:
 4438              		.loc 1 2692 0
 4439 0190 0028     		cmp	r0, #0
 4440 0192 7FF471AF 		bne	.L553
 4441              	.L598:
 4442 0196 BE68     		ldr	r6, [r7, #8]
 4443 0198 BB79     		ldrb	r3, [r7, #6]	@ zero_extendqisi2
 4444 019a 4BE7     		b	.L549
 4445              	.LVL607:
 4446              	.L595:
 4447              		.loc 1 2683 0
 4448 019c 1846     		mov	r0, r3
 4449              	.LVL608:
 4450 019e 2946     		mov	r1, r5
 4451 01a0 FFF7FEFF 		bl	create_chain
 4452              	.LVL609:
 4453              		.loc 1 2692 0
 4454 01a4 0028     		cmp	r0, #0
 4455 01a6 7FF467AF 		bne	.L553
 4456 01aa F4E7     		b	.L598
 4457              	.LVL610:
 4458              	.L597:
 4459              		.loc 1 2741 0 discriminator 1
 4460 01ac 5878     		ldrb	r0, [r3, #1]	@ zero_extendqisi2
 4461 01ae 0199     		ldr	r1, [sp, #4]
 4462 01b0 4A46     		mov	r2, r9
 4463 01b2 0123     		movs	r3, #1
 4464              	.LVL611:
 4465 01b4 FFF7FEFF 		bl	disk_read
 4466              	.LVL612:
 4467              		.loc 1 2740 0 discriminator 1
 4468 01b8 0028     		cmp	r0, #0
 4469 01ba E2D1     		bne	.L571
 4470 01bc BE68     		ldr	r6, [r7, #8]
 4471 01be B6E7     		b	.L570
 4472              	.LVL613:
 4473              	.L560:
 4474              		.loc 1 2709 0 discriminator 1
 4475 01c0 0220     		movs	r0, #2
ARM GAS  /tmp/ccZHgRNF.s 			page 80


 4476 01c2 F871     		strb	r0, [r7, #7]
 4477 01c4 2FE7     		b	.L548
 4478              		.cfi_endproc
 4479              	.LFE272:
 4480              		.size	f_write, .-f_write
 4481 01c6 00BFAFF3 		.section	.text.f_sync,"ax",%progbits
 4481      0080AFF3 
 4481      0080
 4482              		.align	2
 4483              		.p2align 4,,15
 4484              		.global	f_sync
 4485              		.thumb
 4486              		.thumb_func
 4487              		.type	f_sync, %function
 4488              	f_sync:
 4489              	.LFB273:
 4490              		.loc 1 2776 0
 4491              		.cfi_startproc
 4492              		@ args = 0, pretend = 0, frame = 0
 4493              		@ frame_needed = 0, uses_anonymous_args = 0
 4494              	.LVL614:
 4495 0000 70B5     		push	{r4, r5, r6, lr}
 4496              		.cfi_def_cfa_offset 16
 4497              		.cfi_offset 4, -16
 4498              		.cfi_offset 5, -12
 4499              		.cfi_offset 6, -8
 4500              		.cfi_offset 14, -4
 4501              		.loc 1 2776 0
 4502 0002 0446     		mov	r4, r0
 4503              		.loc 1 2782 0
 4504 0004 FFF7FEFF 		bl	validate
 4505              	.LVL615:
 4506              		.loc 1 2783 0
 4507 0008 D8B9     		cbnz	r0, .L600
 4508              		.loc 1 2784 0
 4509 000a A279     		ldrb	r2, [r4, #6]	@ zero_extendqisi2
 4510 000c 02F02003 		and	r3, r2, #32
 4511 0010 03F0FF00 		and	r0, r3, #255
 4512              	.LVL616:
 4513 0014 ABB1     		cbz	r3, .L600
 4514              		.loc 1 2787 0
 4515 0016 5306     		lsls	r3, r2, #25
 4516 0018 0DD5     		bpl	.L601
 4517              		.loc 1 2788 0
 4518 001a 2146     		mov	r1, r4
 4519 001c A269     		ldr	r2, [r4, #24]
 4520 001e 51F8240B 		ldr	r0, [r1], #36
 4521 0022 0123     		movs	r3, #1
 4522 0024 4078     		ldrb	r0, [r0, #1]	@ zero_extendqisi2
 4523 0026 FFF7FEFF 		bl	disk_write
 4524              	.LVL617:
 4525 002a 0028     		cmp	r0, #0
 4526 002c 39D1     		bne	.L604
 4527              		.loc 1 2790 0
 4528 002e A379     		ldrb	r3, [r4, #6]	@ zero_extendqisi2
 4529 0030 23F04003 		bic	r3, r3, #64
 4530 0034 A371     		strb	r3, [r4, #6]
ARM GAS  /tmp/ccZHgRNF.s 			page 81


 4531              	.L601:
 4532              		.loc 1 2794 0
 4533 0036 2068     		ldr	r0, [r4]
 4534 0038 E169     		ldr	r1, [r4, #28]
 4535 003a FFF7FEFF 		bl	move_window
 4536              	.LVL618:
 4537              		.loc 1 2795 0
 4538 003e 0646     		mov	r6, r0
 4539 0040 00B1     		cbz	r0, .L609
 4540              	.LVL619:
 4541              	.L600:
 4542              		.loc 1 2811 0
 4543 0042 70BD     		pop	{r4, r5, r6, pc}
 4544              	.LVL620:
 4545              	.L609:
 4546              		.loc 1 2796 0
 4547 0044 256A     		ldr	r5, [r4, #32]
 4548              	.LVL621:
 4549              		.loc 1 2797 0
 4550 0046 EB7A     		ldrb	r3, [r5, #11]	@ zero_extendqisi2
 4551 0048 43F02003 		orr	r3, r3, #32
 4552 004c EB72     		strb	r3, [r5, #11]
 4553              		.loc 1 2798 0
 4554 004e E368     		ldr	r3, [r4, #12]
 4555 0050 2B77     		strb	r3, [r5, #28]
 4556 0052 A389     		ldrh	r3, [r4, #12]
 4557 0054 1B0A     		lsrs	r3, r3, #8
 4558 0056 6B77     		strb	r3, [r5, #29]
 4559 0058 E389     		ldrh	r3, [r4, #14]
 4560 005a AB77     		strb	r3, [r5, #30]
 4561 005c E37B     		ldrb	r3, [r4, #15]	@ zero_extendqisi2
 4562 005e EB77     		strb	r3, [r5, #31]
 4563              		.loc 1 2799 0
 4564 0060 2369     		ldr	r3, [r4, #16]
 4565              	.LVL622:
 4566              	.LBB320:
 4567              	.LBB321:
 4568              		.loc 1 1292 0
 4569 0062 AB76     		strb	r3, [r5, #26]
 4570              		.loc 1 1293 0
 4571 0064 1A0C     		lsrs	r2, r3, #16
 4572 0066 110A     		lsrs	r1, r2, #8
 4573              		.loc 1 1292 0
 4574 0068 C3F30723 		ubfx	r3, r3, #8, #8
 4575              	.LVL623:
 4576 006c EB76     		strb	r3, [r5, #27]
 4577              		.loc 1 1293 0
 4578 006e 2A75     		strb	r2, [r5, #20]
 4579 0070 6975     		strb	r1, [r5, #21]
 4580              	.LBE321:
 4581              	.LBE320:
 4582              		.loc 1 2800 0
 4583 0072 FFF7FEFF 		bl	get_fattime
 4584              	.LVL624:
 4585              		.loc 1 2801 0
 4586 0076 C0F30721 		ubfx	r1, r0, #8, #8
 4587 007a 020C     		lsrs	r2, r0, #16
ARM GAS  /tmp/ccZHgRNF.s 			page 82


 4588 007c 030E     		lsrs	r3, r0, #24
 4589 007e 2A76     		strb	r2, [r5, #24]
 4590 0080 A875     		strb	r0, [r5, #22]
 4591              		.loc 1 2802 0
 4592 0082 AE74     		strb	r6, [r5, #18]
 4593 0084 EE74     		strb	r6, [r5, #19]
 4594              		.loc 1 2801 0
 4595 0086 E975     		strb	r1, [r5, #23]
 4596 0088 6B76     		strb	r3, [r5, #25]
 4597              		.loc 1 2803 0
 4598 008a A179     		ldrb	r1, [r4, #6]	@ zero_extendqisi2
 4599              		.loc 1 2804 0
 4600 008c 2368     		ldr	r3, [r4]
 4601              		.loc 1 2803 0
 4602 008e 21F02001 		bic	r1, r1, #32
 4603              		.loc 1 2804 0
 4604 0092 0122     		movs	r2, #1
 4605              		.loc 1 2803 0
 4606 0094 A171     		strb	r1, [r4, #6]
 4607              		.loc 1 2804 0
 4608 0096 1A71     		strb	r2, [r3, #4]
 4609              		.loc 1 2805 0
 4610 0098 2068     		ldr	r0, [r4]
 4611              	.LVL625:
 4612              		.loc 1 2811 0
 4613 009a BDE87040 		pop	{r4, r5, r6, lr}
 4614              	.LVL626:
 4615              		.loc 1 2805 0
 4616 009e FFF7FEBF 		b	sync_fs
 4617              	.LVL627:
 4618              	.L604:
 4619              		.loc 1 2789 0
 4620 00a2 0120     		movs	r0, #1
 4621 00a4 70BD     		pop	{r4, r5, r6, pc}
 4622              		.cfi_endproc
 4623              	.LFE273:
 4624              		.size	f_sync, .-f_sync
 4625 00a6 00BFAFF3 		.section	.text.f_close,"ax",%progbits
 4625      0080AFF3 
 4625      0080
 4626              		.align	2
 4627              		.p2align 4,,15
 4628              		.global	f_close
 4629              		.thumb
 4630              		.thumb_func
 4631              		.type	f_close, %function
 4632              	f_close:
 4633              	.LFB274:
 4634              		.loc 1 2825 0
 4635              		.cfi_startproc
 4636              		@ args = 0, pretend = 0, frame = 0
 4637              		@ frame_needed = 0, uses_anonymous_args = 0
 4638              	.LVL628:
 4639 0000 10B5     		push	{r4, lr}
 4640              		.cfi_def_cfa_offset 8
 4641              		.cfi_offset 4, -8
 4642              		.cfi_offset 14, -4
ARM GAS  /tmp/ccZHgRNF.s 			page 83


 4643              		.loc 1 2825 0
 4644 0002 0446     		mov	r4, r0
 4645              		.loc 1 2830 0
 4646 0004 FFF7FEFF 		bl	f_sync
 4647              	.LVL629:
 4648              		.loc 1 2831 0
 4649 0008 00B1     		cbz	r0, .L612
 4650              	.L611:
 4651              		.loc 1 2850 0
 4652 000a 10BD     		pop	{r4, pc}
 4653              	.LVL630:
 4654              	.L612:
 4655              		.loc 1 2834 0
 4656 000c 2046     		mov	r0, r4
 4657              	.LVL631:
 4658 000e FFF7FEFF 		bl	validate
 4659              	.LVL632:
 4660              		.loc 1 2835 0
 4661 0012 0028     		cmp	r0, #0
 4662 0014 F9D1     		bne	.L611
 4663              		.loc 1 2843 0
 4664 0016 2060     		str	r0, [r4]
 4665              		.loc 1 2850 0
 4666 0018 10BD     		pop	{r4, pc}
 4667              		.cfi_endproc
 4668              	.LFE274:
 4669              		.size	f_close, .-f_close
 4670 001a 00BFAFF3 		.section	.text.f_lseek,"ax",%progbits
 4670      0080
 4671              		.align	2
 4672              		.p2align 4,,15
 4673              		.global	f_lseek
 4674              		.thumb
 4675              		.thumb_func
 4676              		.type	f_lseek, %function
 4677              	f_lseek:
 4678              	.LFB275:
 4679              		.loc 1 2998 0
 4680              		.cfi_startproc
 4681              		@ args = 0, pretend = 0, frame = 0
 4682              		@ frame_needed = 0, uses_anonymous_args = 0
 4683              	.LVL633:
 4684 0000 70B5     		push	{r4, r5, r6, lr}
 4685              		.cfi_def_cfa_offset 16
 4686              		.cfi_offset 4, -16
 4687              		.cfi_offset 5, -12
 4688              		.cfi_offset 6, -8
 4689              		.cfi_offset 14, -4
 4690              		.loc 1 2998 0
 4691 0002 0D46     		mov	r5, r1
 4692 0004 0446     		mov	r4, r0
 4693              		.loc 1 3002 0
 4694 0006 FFF7FEFF 		bl	validate
 4695              	.LVL634:
 4696              		.loc 1 3003 0
 4697 000a 0028     		cmp	r0, #0
 4698 000c 44D1     		bne	.L614
ARM GAS  /tmp/ccZHgRNF.s 			page 84


 4699              		.loc 1 3004 0
 4700 000e E079     		ldrb	r0, [r4, #7]	@ zero_extendqisi2
 4701              	.LVL635:
 4702 0010 0028     		cmp	r0, #0
 4703 0012 41D1     		bne	.L614
 4704              	.LBB322:
 4705              		.loc 1 3068 0
 4706 0014 E368     		ldr	r3, [r4, #12]
 4707 0016 AB42     		cmp	r3, r5
 4708 0018 04D2     		bcs	.L615
 4709              		.loc 1 3070 0
 4710 001a A279     		ldrb	r2, [r4, #6]	@ zero_extendqisi2
 4711 001c 12F0020F 		tst	r2, #2
 4712 0020 08BF     		it	eq
 4713 0022 1D46     		moveq	r5, r3
 4714              	.LVL636:
 4715              	.L615:
 4716              		.loc 1 3075 0
 4717 0024 0023     		movs	r3, #0
 4718              		.loc 1 3074 0
 4719 0026 A268     		ldr	r2, [r4, #8]
 4720              	.LVL637:
 4721              		.loc 1 3075 0
 4722 0028 A360     		str	r3, [r4, #8]
 4723              		.loc 1 3076 0
 4724 002a 002D     		cmp	r5, #0
 4725 002c 35D0     		beq	.L643
 4726              		.loc 1 3077 0
 4727 002e 2068     		ldr	r0, [r4]
 4728 0030 8678     		ldrb	r6, [r0, #2]	@ zero_extendqisi2
 4729 0032 7602     		lsls	r6, r6, #9
 4730              	.LVL638:
 4731              		.loc 1 3078 0
 4732 0034 3AB1     		cbz	r2, .L616
 4733              		.loc 1 3079 0 discriminator 1
 4734 0036 013A     		subs	r2, r2, #1
 4735              	.LVL639:
 4736 0038 691E     		subs	r1, r5, #1
 4737 003a B2FBF6F3 		udiv	r3, r2, r6
 4738 003e B1FBF6F1 		udiv	r1, r1, r6
 4739              		.loc 1 3078 0 discriminator 1
 4740 0042 9942     		cmp	r1, r3
 4741 0044 73D2     		bcs	.L652
 4742              	.LVL640:
 4743              	.L616:
 4744              		.loc 1 3084 0
 4745 0046 2169     		ldr	r1, [r4, #16]
 4746              	.LVL641:
 4747              		.loc 1 3086 0
 4748 0048 0029     		cmp	r1, #0
 4749 004a 7BD0     		beq	.L653
 4750              	.L618:
 4751              		.loc 1 3093 0
 4752 004c 6161     		str	r1, [r4, #20]
 4753              	.L617:
 4754              		.loc 1 3095 0
 4755 004e 31BB     		cbnz	r1, .L621
ARM GAS  /tmp/ccZHgRNF.s 			page 85


 4756 0050 A368     		ldr	r3, [r4, #8]
 4757              		.loc 1 3075 0
 4758 0052 0D46     		mov	r5, r1
 4759              	.LVL642:
 4760              	.L622:
 4761              		.loc 1 3120 0
 4762 0054 C3F30802 		ubfx	r2, r3, #0, #9
 4763 0058 002A     		cmp	r2, #0
 4764 005a 7CD0     		beq	.L650
 4765              		.loc 1 3120 0 is_stmt 0 discriminator 1
 4766 005c A269     		ldr	r2, [r4, #24]
 4767 005e AA42     		cmp	r2, r5
 4768 0060 79D0     		beq	.L650
 4769              		.loc 1 3123 0 is_stmt 1
 4770 0062 A379     		ldrb	r3, [r4, #6]	@ zero_extendqisi2
 4771 0064 5B06     		lsls	r3, r3, #25
 4772 0066 56D4     		bmi	.L636
 4773 0068 04F12406 		add	r6, r4, #36
 4774              	.L637:
 4775              		.loc 1 3129 0
 4776 006c 2368     		ldr	r3, [r4]
 4777 006e 3146     		mov	r1, r6
 4778 0070 5878     		ldrb	r0, [r3, #1]	@ zero_extendqisi2
 4779 0072 2A46     		mov	r2, r5
 4780 0074 0123     		movs	r3, #1
 4781 0076 FFF7FEFF 		bl	disk_read
 4782              	.LVL643:
 4783 007a 0028     		cmp	r0, #0
 4784 007c 54D1     		bne	.L651
 4785 007e A368     		ldr	r3, [r4, #8]
 4786 0080 E268     		ldr	r2, [r4, #12]
 4787              		.loc 1 3132 0
 4788 0082 A561     		str	r5, [r4, #24]
 4789              	.L634:
 4790              		.loc 1 3135 0
 4791 0084 9A42     		cmp	r2, r3
 4792 0086 06D2     		bcs	.L645
 4793              		.loc 1 3137 0
 4794 0088 A279     		ldrb	r2, [r4, #6]	@ zero_extendqisi2
 4795              		.loc 1 3136 0
 4796 008a E360     		str	r3, [r4, #12]
 4797              		.loc 1 3137 0
 4798 008c 42F02003 		orr	r3, r2, #32
 4799 0090 A371     		strb	r3, [r4, #6]
 4800 0092 0020     		movs	r0, #0
 4801 0094 70BD     		pop	{r4, r5, r6, pc}
 4802              	.LVL644:
 4803              	.L645:
 4804 0096 0020     		movs	r0, #0
 4805              	.LVL645:
 4806              	.L614:
 4807              	.LBE322:
 4808              		.loc 1 3143 0
 4809 0098 70BD     		pop	{r4, r5, r6, pc}
 4810              	.LVL646:
 4811              	.L643:
 4812              	.LBB329:
ARM GAS  /tmp/ccZHgRNF.s 			page 86


 4813 009a 2846     		mov	r0, r5
 4814 009c 70BD     		pop	{r4, r5, r6, pc}
 4815              	.LVL647:
 4816              	.L621:
 4817              		.loc 1 3096 0 discriminator 1
 4818 009e B542     		cmp	r5, r6
 4819 00a0 5ED9     		bls	.L649
 4820 00a2 2068     		ldr	r0, [r4]
 4821              	.L630:
 4822              	.LVL648:
 4823              		.loc 1 3098 0
 4824 00a4 A379     		ldrb	r3, [r4, #6]	@ zero_extendqisi2
 4825 00a6 9B07     		lsls	r3, r3, #30
 4826              		.loc 1 3110 0
 4827 00a8 C6EB0505 		rsb	r5, r6, r5
 4828              	.LVL649:
 4829              		.loc 1 3098 0
 4830 00ac 07D4     		bmi	.L654
 4831              	.LBB323:
 4832              	.LBB324:
 4833              		.loc 1 874 0
 4834 00ae 0129     		cmp	r1, #1
 4835 00b0 02D9     		bls	.L631
 4836 00b2 4369     		ldr	r3, [r0, #20]
 4837 00b4 8B42     		cmp	r3, r1
 4838 00b6 2AD8     		bhi	.L655
 4839              	.LVL650:
 4840              	.L631:
 4841              	.LBE324:
 4842              	.LBE323:
 4843              		.loc 1 3115 0 discriminator 1
 4844 00b8 0220     		movs	r0, #2
 4845 00ba E071     		strb	r0, [r4, #7]
 4846 00bc 70BD     		pop	{r4, r5, r6, pc}
 4847              	.LVL651:
 4848              	.L654:
 4849              		.loc 1 3099 0
 4850 00be FFF7FEFF 		bl	create_chain
 4851              	.LVL652:
 4852              		.loc 1 3100 0
 4853 00c2 0146     		mov	r1, r0
 4854 00c4 0028     		cmp	r0, #0
 4855 00c6 4AD0     		beq	.L656
 4856              	.LVL653:
 4857              	.L626:
 4858              		.loc 1 3106 0
 4859 00c8 4A1C     		adds	r2, r1, #1
 4860 00ca 2DD0     		beq	.L651
 4861              		.loc 1 3107 0
 4862 00cc 0129     		cmp	r1, #1
 4863 00ce F3D9     		bls	.L631
 4864              		.loc 1 3107 0 is_stmt 0 discriminator 2
 4865 00d0 2068     		ldr	r0, [r4]
 4866 00d2 4369     		ldr	r3, [r0, #20]
 4867 00d4 9942     		cmp	r1, r3
 4868 00d6 EFD2     		bcs	.L631
 4869              		.loc 1 3109 0 is_stmt 1
ARM GAS  /tmp/ccZHgRNF.s 			page 87


 4870 00d8 A368     		ldr	r3, [r4, #8]
 4871              		.loc 1 3108 0
 4872 00da 6161     		str	r1, [r4, #20]
 4873              		.loc 1 3109 0
 4874 00dc 3344     		add	r3, r3, r6
 4875              		.loc 1 3096 0
 4876 00de AE42     		cmp	r6, r5
 4877              		.loc 1 3109 0
 4878 00e0 A360     		str	r3, [r4, #8]
 4879              		.loc 1 3096 0
 4880 00e2 DFD3     		bcc	.L630
 4881              	.LVL654:
 4882              	.L624:
 4883              		.loc 1 3112 0
 4884 00e4 2B44     		add	r3, r3, r5
 4885              		.loc 1 3113 0
 4886 00e6 C5F30802 		ubfx	r2, r5, #0, #9
 4887              		.loc 1 3112 0
 4888 00ea A360     		str	r3, [r4, #8]
 4889              		.loc 1 3113 0
 4890 00ec 002A     		cmp	r2, #0
 4891 00ee 34D0     		beq	.L644
 4892              		.loc 1 3114 0
 4893 00f0 2668     		ldr	r6, [r4]
 4894              	.LVL655:
 4895              	.LBB326:
 4896              	.LBB327:
 4897              		.loc 1 853 0
 4898 00f2 7069     		ldr	r0, [r6, #20]
 4899              		.loc 1 852 0
 4900 00f4 8A1E     		subs	r2, r1, #2
 4901              	.LVL656:
 4902              		.loc 1 853 0
 4903 00f6 0238     		subs	r0, r0, #2
 4904 00f8 8242     		cmp	r2, r0
 4905 00fa DDD2     		bcs	.L631
 4906              		.loc 1 854 0
 4907 00fc B078     		ldrb	r0, [r6, #2]	@ zero_extendqisi2
 4908 00fe B16A     		ldr	r1, [r6, #40]
 4909              	.LVL657:
 4910 0100 00FB0212 		mla	r2, r0, r2, r1
 4911              	.LVL658:
 4912              	.LBE327:
 4913              	.LBE326:
 4914              		.loc 1 3115 0
 4915 0104 002A     		cmp	r2, #0
 4916 0106 D7D0     		beq	.L631
 4917              		.loc 1 3116 0
 4918 0108 02EB5525 		add	r5, r2, r5, lsr #9
 4919              	.LVL659:
 4920 010c A2E7     		b	.L622
 4921              	.LVL660:
 4922              	.L655:
 4923              	.LBB328:
 4924              	.LBB325:
 4925 010e FFF7FEFF 		bl	get_fat.part.6
 4926              	.LVL661:
ARM GAS  /tmp/ccZHgRNF.s 			page 88


 4927 0112 0146     		mov	r1, r0
 4928 0114 D8E7     		b	.L626
 4929              	.LVL662:
 4930              	.L636:
 4931              	.LBE325:
 4932              	.LBE328:
 4933              		.loc 1 3124 0
 4934 0116 2368     		ldr	r3, [r4]
 4935 0118 04F12406 		add	r6, r4, #36
 4936 011c 5878     		ldrb	r0, [r3, #1]	@ zero_extendqisi2
 4937 011e 3146     		mov	r1, r6
 4938 0120 0123     		movs	r3, #1
 4939 0122 FFF7FEFF 		bl	disk_write
 4940              	.LVL663:
 4941 0126 40B1     		cbz	r0, .L638
 4942              	.LVL664:
 4943              	.L651:
 4944              		.loc 1 3130 0
 4945 0128 0120     		movs	r0, #1
 4946 012a E071     		strb	r0, [r4, #7]
 4947 012c 70BD     		pop	{r4, r5, r6, pc}
 4948              	.LVL665:
 4949              	.L652:
 4950              		.loc 1 3080 0
 4951 012e 7342     		negs	r3, r6
 4952 0130 1A40     		ands	r2, r2, r3
 4953              	.LVL666:
 4954 0132 A260     		str	r2, [r4, #8]
 4955              		.loc 1 3081 0
 4956 0134 AD1A     		subs	r5, r5, r2
 4957              	.LVL667:
 4958              		.loc 1 3082 0
 4959 0136 6169     		ldr	r1, [r4, #20]
 4960              	.LVL668:
 4961 0138 89E7     		b	.L617
 4962              	.LVL669:
 4963              	.L638:
 4964              		.loc 1 3126 0
 4965 013a A379     		ldrb	r3, [r4, #6]	@ zero_extendqisi2
 4966 013c 23F04003 		bic	r3, r3, #64
 4967 0140 A371     		strb	r3, [r4, #6]
 4968 0142 93E7     		b	.L637
 4969              	.LVL670:
 4970              	.L653:
 4971              		.loc 1 3087 0
 4972 0144 FFF7FEFF 		bl	create_chain
 4973              	.LVL671:
 4974              		.loc 1 3088 0
 4975 0148 0128     		cmp	r0, #1
 4976              		.loc 1 3087 0
 4977 014a 0146     		mov	r1, r0
 4978              	.LVL672:
 4979              		.loc 1 3088 0
 4980 014c B4D0     		beq	.L631
 4981              		.loc 1 3089 0
 4982 014e 421C     		adds	r2, r0, #1
 4983 0150 EAD0     		beq	.L651
ARM GAS  /tmp/ccZHgRNF.s 			page 89


 4984              		.loc 1 3090 0
 4985 0152 2061     		str	r0, [r4, #16]
 4986 0154 7AE7     		b	.L618
 4987              	.LVL673:
 4988              	.L650:
 4989 0156 E268     		ldr	r2, [r4, #12]
 4990 0158 94E7     		b	.L634
 4991              	.LVL674:
 4992              	.L644:
 4993              		.loc 1 3075 0
 4994 015a 1546     		mov	r5, r2
 4995              	.LVL675:
 4996 015c 7AE7     		b	.L622
 4997              	.LVL676:
 4998              	.L656:
 4999              		.loc 1 3100 0
 5000 015e 3546     		mov	r5, r6
 5001              	.LVL677:
 5002              	.L649:
 5003 0160 A368     		ldr	r3, [r4, #8]
 5004 0162 BFE7     		b	.L624
 5005              	.LBE329:
 5006              		.cfi_endproc
 5007              	.LFE275:
 5008              		.size	f_lseek, .-f_lseek
 5009 0164 AFF30080 		.section	.text.f_opendir,"ax",%progbits
 5009      AFF30080 
 5009      AFF30080 
 5010              		.align	2
 5011              		.p2align 4,,15
 5012              		.global	f_opendir
 5013              		.thumb
 5014              		.thumb_func
 5015              		.type	f_opendir, %function
 5016              	f_opendir:
 5017              	.LFB276:
 5018              		.loc 1 3156 0
 5019              		.cfi_startproc
 5020              		@ args = 0, pretend = 0, frame = 24
 5021              		@ frame_needed = 0, uses_anonymous_args = 0
 5022              	.LVL678:
 5023 0000 30B5     		push	{r4, r5, lr}
 5024              		.cfi_def_cfa_offset 12
 5025              		.cfi_offset 4, -12
 5026              		.cfi_offset 5, -8
 5027              		.cfi_offset 14, -4
 5028 0002 87B0     		sub	sp, sp, #28
 5029              		.cfi_def_cfa_offset 40
 5030              		.loc 1 3162 0
 5031 0004 0446     		mov	r4, r0
 5032              		.loc 1 3156 0
 5033 0006 0191     		str	r1, [sp, #4]
 5034              		.loc 1 3162 0
 5035 0008 48B1     		cbz	r0, .L665
 5036              		.loc 1 3165 0
 5037 000a 02A8     		add	r0, sp, #8
 5038              	.LVL679:
ARM GAS  /tmp/ccZHgRNF.s 			page 90


 5039 000c 01A9     		add	r1, sp, #4
 5040              	.LVL680:
 5041 000e 0022     		movs	r2, #0
 5042 0010 FFF7FEFF 		bl	find_volume
 5043              	.LVL681:
 5044              		.loc 1 3166 0
 5045 0014 30B1     		cbz	r0, .L670
 5046              	.LVL682:
 5047              	.L662:
 5048              		.loc 1 3196 0 discriminator 1
 5049 0016 0023     		movs	r3, #0
 5050 0018 2360     		str	r3, [r4]
 5051              	.LVL683:
 5052              	.L669:
 5053              		.loc 1 3199 0
 5054 001a 07B0     		add	sp, sp, #28
 5055              		@ sp needed
 5056 001c 30BD     		pop	{r4, r5, pc}
 5057              	.LVL684:
 5058              	.L665:
 5059              		.loc 1 3162 0
 5060 001e 0920     		movs	r0, #9
 5061              	.LVL685:
 5062              		.loc 1 3199 0
 5063 0020 07B0     		add	sp, sp, #28
 5064              		@ sp needed
 5065 0022 30BD     		pop	{r4, r5, pc}
 5066              	.LVL686:
 5067              	.L670:
 5068              		.loc 1 3167 0
 5069 0024 029B     		ldr	r3, [sp, #8]
 5070 0026 2360     		str	r3, [r4]
 5071              		.loc 1 3168 0
 5072 0028 03AB     		add	r3, sp, #12
 5073 002a A361     		str	r3, [r4, #24]
 5074              		.loc 1 3169 0
 5075 002c 2046     		mov	r0, r4
 5076              	.LVL687:
 5077 002e 0199     		ldr	r1, [sp, #4]
 5078 0030 FFF7FEFF 		bl	follow_path
 5079              	.LVL688:
 5080              		.loc 1 3171 0
 5081 0034 98B9     		cbnz	r0, .L660
 5082              		.loc 1 3172 0
 5083 0036 6369     		ldr	r3, [r4, #20]
 5084 0038 C3B1     		cbz	r3, .L661
 5085              		.loc 1 3173 0
 5086 003a DA7A     		ldrb	r2, [r3, #11]	@ zero_extendqisi2
 5087 003c D206     		lsls	r2, r2, #27
 5088 003e 13D5     		bpl	.L666
 5089              		.loc 1 3174 0
 5090 0040 029A     		ldr	r2, [sp, #8]
 5091              	.LVL689:
 5092              	.LBB330:
 5093              	.LBB331:
 5094              		.loc 1 1277 0
 5095 0042 DD7E     		ldrb	r5, [r3, #27]	@ zero_extendqisi2
ARM GAS  /tmp/ccZHgRNF.s 			page 91


 5096              		.loc 1 1278 0
 5097 0044 1078     		ldrb	r0, [r2]	@ zero_extendqisi2
 5098              	.LVL690:
 5099              		.loc 1 1277 0
 5100 0046 997E     		ldrb	r1, [r3, #26]	@ zero_extendqisi2
 5101              		.loc 1 1278 0
 5102 0048 0328     		cmp	r0, #3
 5103              		.loc 1 1277 0
 5104 004a 41EA0521 		orr	r1, r1, r5, lsl #8
 5105              	.LVL691:
 5106              		.loc 1 1278 0
 5107 004e 0FD0     		beq	.L671
 5108              	.LVL692:
 5109              	.L663:
 5110              	.LBE331:
 5111              	.LBE330:
 5112              		.loc 1 3174 0
 5113 0050 A160     		str	r1, [r4, #8]
 5114              	.LVL693:
 5115              	.L664:
 5116              		.loc 1 3179 0
 5117 0052 D388     		ldrh	r3, [r2, #6]
 5118 0054 A380     		strh	r3, [r4, #4]	@ movhi
 5119              		.loc 1 3180 0
 5120 0056 2046     		mov	r0, r4
 5121 0058 0021     		movs	r1, #0
 5122 005a FFF7FEFF 		bl	dir_sdi
 5123              	.LVL694:
 5124              	.L660:
 5125              		.loc 1 3194 0
 5126 005e 0428     		cmp	r0, #4
 5127 0060 02D0     		beq	.L666
 5128              		.loc 1 3196 0
 5129 0062 0028     		cmp	r0, #0
 5130 0064 D9D0     		beq	.L669
 5131 0066 D6E7     		b	.L662
 5132              	.LVL695:
 5133              	.L666:
 5134              		.loc 1 3176 0
 5135 0068 0520     		movs	r0, #5
 5136 006a D4E7     		b	.L662
 5137              	.LVL696:
 5138              	.L661:
 5139 006c 029A     		ldr	r2, [sp, #8]
 5140 006e F0E7     		b	.L664
 5141              	.LVL697:
 5142              	.L671:
 5143              	.LBB333:
 5144              	.LBB332:
 5145              		.loc 1 1279 0
 5146 0070 587D     		ldrb	r0, [r3, #21]	@ zero_extendqisi2
 5147 0072 1B7D     		ldrb	r3, [r3, #20]	@ zero_extendqisi2
 5148              	.LVL698:
 5149 0074 43EA0023 		orr	r3, r3, r0, lsl #8
 5150 0078 41EA0341 		orr	r1, r1, r3, lsl #16
 5151              	.LVL699:
 5152 007c E8E7     		b	.L663
ARM GAS  /tmp/ccZHgRNF.s 			page 92


 5153              	.LBE332:
 5154              	.LBE333:
 5155              		.cfi_endproc
 5156              	.LFE276:
 5157              		.size	f_opendir, .-f_opendir
 5158 007e 00BF     		.section	.text.f_closedir,"ax",%progbits
 5159              		.align	2
 5160              		.p2align 4,,15
 5161              		.global	f_closedir
 5162              		.thumb
 5163              		.thumb_func
 5164              		.type	f_closedir, %function
 5165              	f_closedir:
 5166              	.LFB277:
 5167              		.loc 1 3211 0
 5168              		.cfi_startproc
 5169              		@ args = 0, pretend = 0, frame = 0
 5170              		@ frame_needed = 0, uses_anonymous_args = 0
 5171              	.LVL700:
 5172 0000 10B5     		push	{r4, lr}
 5173              		.cfi_def_cfa_offset 8
 5174              		.cfi_offset 4, -8
 5175              		.cfi_offset 14, -4
 5176              		.loc 1 3211 0
 5177 0002 0446     		mov	r4, r0
 5178              		.loc 1 3215 0
 5179 0004 FFF7FEFF 		bl	validate
 5180              	.LVL701:
 5181              		.loc 1 3216 0
 5182 0008 00B9     		cbnz	r0, .L673
 5183              		.loc 1 3225 0
 5184 000a 2060     		str	r0, [r4]
 5185              	.L673:
 5186              		.loc 1 3231 0
 5187 000c 10BD     		pop	{r4, pc}
 5188              		.cfi_endproc
 5189              	.LFE277:
 5190              		.size	f_closedir, .-f_closedir
 5191 000e 00BF     		.section	.text.f_readdir,"ax",%progbits
 5192              		.align	2
 5193              		.p2align 4,,15
 5194              		.global	f_readdir
 5195              		.thumb
 5196              		.thumb_func
 5197              		.type	f_readdir, %function
 5198              	f_readdir:
 5199              	.LFB278:
 5200              		.loc 1 3244 0
 5201              		.cfi_startproc
 5202              		@ args = 0, pretend = 0, frame = 16
 5203              		@ frame_needed = 0, uses_anonymous_args = 0
 5204              	.LVL702:
 5205 0000 70B5     		push	{r4, r5, r6, lr}
 5206              		.cfi_def_cfa_offset 16
 5207              		.cfi_offset 4, -16
 5208              		.cfi_offset 5, -12
 5209              		.cfi_offset 6, -8
ARM GAS  /tmp/ccZHgRNF.s 			page 93


 5210              		.cfi_offset 14, -4
 5211 0002 84B0     		sub	sp, sp, #16
 5212              		.cfi_def_cfa_offset 32
 5213              		.loc 1 3244 0
 5214 0004 0E46     		mov	r6, r1
 5215 0006 0546     		mov	r5, r0
 5216              		.loc 1 3249 0
 5217 0008 FFF7FEFF 		bl	validate
 5218              	.LVL703:
 5219              		.loc 1 3250 0
 5220 000c 0446     		mov	r4, r0
 5221 000e 48B9     		cbnz	r0, .L675
 5222              		.loc 1 3251 0
 5223 0010 DEB1     		cbz	r6, .L681
 5224              		.loc 1 3254 0
 5225 0012 01AB     		add	r3, sp, #4
 5226 0014 AB61     		str	r3, [r5, #24]
 5227              		.loc 1 3255 0
 5228 0016 2846     		mov	r0, r5
 5229              	.LVL704:
 5230 0018 FFF7FEFF 		bl	dir_read.constprop.11
 5231              	.LVL705:
 5232              		.loc 1 3256 0
 5233 001c 0428     		cmp	r0, #4
 5234 001e 04D0     		beq	.L682
 5235              		.loc 1 3260 0
 5236 0020 C8B1     		cbz	r0, .L683
 5237              	.LVL706:
 5238              	.L680:
 5239 0022 0446     		mov	r4, r0
 5240              	.L675:
 5241              	.LVL707:
 5242              		.loc 1 3273 0
 5243 0024 2046     		mov	r0, r4
 5244 0026 04B0     		add	sp, sp, #16
 5245              		@ sp needed
 5246 0028 70BD     		pop	{r4, r5, r6, pc}
 5247              	.LVL708:
 5248              	.L682:
 5249              		.loc 1 3257 0
 5250 002a 2C61     		str	r4, [r5, #16]
 5251              	.LVL709:
 5252 002c 2046     		mov	r0, r4
 5253              	.LVL710:
 5254              	.L678:
 5255              		.loc 1 3261 0
 5256 002e 3246     		mov	r2, r6
 5257 0030 05F11401 		add	r1, r5, #20
 5258 0034 FFF7FEFF 		bl	get_fileinfo.isra.1
 5259              	.LVL711:
 5260              		.loc 1 3262 0
 5261 0038 2846     		mov	r0, r5
 5262 003a 0021     		movs	r1, #0
 5263 003c FFF7FEFF 		bl	dir_next
 5264              	.LVL712:
 5265              		.loc 1 3263 0
 5266 0040 0428     		cmp	r0, #4
ARM GAS  /tmp/ccZHgRNF.s 			page 94


 5267 0042 EED1     		bne	.L680
 5268              		.loc 1 3264 0
 5269 0044 0023     		movs	r3, #0
 5270 0046 2B61     		str	r3, [r5, #16]
 5271              	.LVL713:
 5272 0048 ECE7     		b	.L675
 5273              	.LVL714:
 5274              	.L681:
 5275              		.loc 1 3252 0
 5276 004a 2146     		mov	r1, r4
 5277 004c 2846     		mov	r0, r5
 5278              	.LVL715:
 5279 004e FFF7FEFF 		bl	dir_sdi
 5280              	.LVL716:
 5281 0052 0446     		mov	r4, r0
 5282              	.LVL717:
 5283 0054 E6E7     		b	.L675
 5284              	.L683:
 5285 0056 2869     		ldr	r0, [r5, #16]
 5286              	.LVL718:
 5287 0058 E9E7     		b	.L678
 5288              		.cfi_endproc
 5289              	.LFE278:
 5290              		.size	f_readdir, .-f_readdir
 5291 005a 00BFAFF3 		.section	.text.f_stat,"ax",%progbits
 5291      0080
 5292              		.align	2
 5293              		.p2align 4,,15
 5294              		.global	f_stat
 5295              		.thumb
 5296              		.thumb_func
 5297              		.type	f_stat, %function
 5298              	f_stat:
 5299              	.LFB279:
 5300              		.loc 1 3286 0
 5301              		.cfi_startproc
 5302              		@ args = 0, pretend = 0, frame = 48
 5303              		@ frame_needed = 0, uses_anonymous_args = 0
 5304              	.LVL719:
 5305 0000 30B5     		push	{r4, r5, lr}
 5306              		.cfi_def_cfa_offset 12
 5307              		.cfi_offset 4, -12
 5308              		.cfi_offset 5, -8
 5309              		.cfi_offset 14, -4
 5310 0002 8DB0     		sub	sp, sp, #52
 5311              		.cfi_def_cfa_offset 64
 5312              		.loc 1 3286 0
 5313 0004 0D46     		mov	r5, r1
 5314 0006 0190     		str	r0, [sp, #4]
 5315              		.loc 1 3293 0
 5316 0008 01A9     		add	r1, sp, #4
 5317              	.LVL720:
 5318 000a 05A8     		add	r0, sp, #20
 5319              	.LVL721:
 5320 000c 0022     		movs	r2, #0
 5321 000e FFF7FEFF 		bl	find_volume
 5322              	.LVL722:
ARM GAS  /tmp/ccZHgRNF.s 			page 95


 5323              		.loc 1 3294 0
 5324 0012 0446     		mov	r4, r0
 5325 0014 10B1     		cbz	r0, .L690
 5326              	.L685:
 5327              	.LVL723:
 5328              		.loc 1 3308 0
 5329 0016 2046     		mov	r0, r4
 5330 0018 0DB0     		add	sp, sp, #52
 5331              		@ sp needed
 5332 001a 30BD     		pop	{r4, r5, pc}
 5333              	.LVL724:
 5334              	.L690:
 5335              		.loc 1 3295 0
 5336 001c 02AB     		add	r3, sp, #8
 5337              		.loc 1 3296 0
 5338 001e 05A8     		add	r0, sp, #20
 5339              	.LVL725:
 5340 0020 0199     		ldr	r1, [sp, #4]
 5341              		.loc 1 3295 0
 5342 0022 0B93     		str	r3, [sp, #44]
 5343              		.loc 1 3296 0
 5344 0024 FFF7FEFF 		bl	follow_path
 5345              	.LVL726:
 5346              		.loc 1 3297 0
 5347 0028 0446     		mov	r4, r0
 5348 002a 0028     		cmp	r0, #0
 5349 002c F3D1     		bne	.L685
 5350              		.loc 1 3298 0
 5351 002e 0A9B     		ldr	r3, [sp, #40]
 5352 0030 4BB1     		cbz	r3, .L686
 5353              		.loc 1 3299 0
 5354 0032 002D     		cmp	r5, #0
 5355 0034 EFD0     		beq	.L685
 5356              		.loc 1 3299 0 is_stmt 0 discriminator 1
 5357 0036 0998     		ldr	r0, [sp, #36]
 5358              	.LVL727:
 5359 0038 2A46     		mov	r2, r5
 5360 003a 0AA9     		add	r1, sp, #40
 5361 003c FFF7FEFF 		bl	get_fileinfo.isra.1
 5362              	.LVL728:
 5363              		.loc 1 3308 0 is_stmt 1 discriminator 1
 5364 0040 2046     		mov	r0, r4
 5365 0042 0DB0     		add	sp, sp, #52
 5366              		@ sp needed
 5367 0044 30BD     		pop	{r4, r5, pc}
 5368              	.LVL729:
 5369              	.L686:
 5370              		.loc 1 3301 0
 5371 0046 0624     		movs	r4, #6
 5372 0048 E5E7     		b	.L685
 5373              		.cfi_endproc
 5374              	.LFE279:
 5375              		.size	f_stat, .-f_stat
 5376 004a 00BFAFF3 		.section	.text.f_getfree,"ax",%progbits
 5376      0080
 5377              		.align	2
 5378              		.p2align 4,,15
ARM GAS  /tmp/ccZHgRNF.s 			page 96


 5379              		.global	f_getfree
 5380              		.thumb
 5381              		.thumb_func
 5382              		.type	f_getfree, %function
 5383              	f_getfree:
 5384              	.LFB280:
 5385              		.loc 1 3322 0
 5386              		.cfi_startproc
 5387              		@ args = 0, pretend = 0, frame = 8
 5388              		@ frame_needed = 0, uses_anonymous_args = 0
 5389              	.LVL730:
 5390 0000 2DE9F04F 		push	{r4, r5, r6, r7, r8, r9, r10, fp, lr}
 5391              		.cfi_def_cfa_offset 36
 5392              		.cfi_offset 4, -36
 5393              		.cfi_offset 5, -32
 5394              		.cfi_offset 6, -28
 5395              		.cfi_offset 7, -24
 5396              		.cfi_offset 8, -20
 5397              		.cfi_offset 9, -16
 5398              		.cfi_offset 10, -12
 5399              		.cfi_offset 11, -8
 5400              		.cfi_offset 14, -4
 5401 0004 83B0     		sub	sp, sp, #12
 5402              		.cfi_def_cfa_offset 48
 5403              		.loc 1 3322 0
 5404 0006 02AB     		add	r3, sp, #8
 5405 0008 1446     		mov	r4, r2
 5406 000a 43F8040D 		str	r0, [r3, #-4]!
 5407 000e 8846     		mov	r8, r1
 5408              		.loc 1 3331 0
 5409 0010 1046     		mov	r0, r2
 5410              	.LVL731:
 5411 0012 1946     		mov	r1, r3
 5412              	.LVL732:
 5413 0014 0022     		movs	r2, #0
 5414              	.LVL733:
 5415 0016 FFF7FEFF 		bl	find_volume
 5416              	.LVL734:
 5417              		.loc 1 3332 0
 5418 001a 2568     		ldr	r5, [r4]
 5419              	.LVL735:
 5420              		.loc 1 3333 0
 5421 001c 8246     		mov	r10, r0
 5422 001e 60BB     		cbnz	r0, .L713
 5423              		.loc 1 3335 0
 5424 0020 6C69     		ldr	r4, [r5, #20]
 5425              	.LVL736:
 5426 0022 2B69     		ldr	r3, [r5, #16]
 5427 0024 A21E     		subs	r2, r4, #2
 5428 0026 9342     		cmp	r3, r2
 5429 0028 2BD9     		bls	.L717
 5430              		.loc 1 3339 0
 5431 002a 95F80090 		ldrb	r9, [r5]	@ zero_extendqisi2
 5432              	.LVL737:
 5433              		.loc 1 3341 0
 5434 002e B9F1010F 		cmp	r9, #1
 5435 0032 44D0     		beq	.L718
ARM GAS  /tmp/ccZHgRNF.s 			page 97


 5436              	.LVL738:
 5437              		.loc 1 3351 0
 5438 0034 D5F820C0 		ldr	ip, [r5, #32]
 5439              	.LVL739:
 5440              		.loc 1 3352 0
 5441 0038 0346     		mov	r3, r0
 5442 003a 0246     		mov	r2, r0
 5443              		.loc 1 3340 0
 5444 003c 0646     		mov	r6, r0
 5445              	.LVL740:
 5446              	.L706:
 5447              		.loc 1 3354 0
 5448 003e 32B3     		cbz	r2, .L719
 5449              		.loc 1 3360 0
 5450 0040 B9F1020F 		cmp	r9, #2
 5451 0044 32D0     		beq	.L720
 5452              	.L702:
 5453              		.loc 1 3364 0
 5454 0046 9F78     		ldrb	r7, [r3, #2]	@ zero_extendqisi2
 5455 0048 93F803B0 		ldrb	fp, [r3, #3]	@ zero_extendqisi2
 5456 004c 1878     		ldrb	r0, [r3]	@ zero_extendqisi2
 5457 004e 5978     		ldrb	r1, [r3, #1]	@ zero_extendqisi2
 5458 0050 3F04     		lsls	r7, r7, #16
 5459 0052 47EA0B67 		orr	r7, r7, fp, lsl #24
 5460 0056 0743     		orrs	r7, r7, r0
 5461 0058 47EA0127 		orr	r7, r7, r1, lsl #8
 5462 005c 27F07047 		bic	r7, r7, #-268435456
 5463 0060 07B9     		cbnz	r7, .L705
 5464              		.loc 1 3364 0 is_stmt 0 discriminator 1
 5465 0062 0136     		adds	r6, r6, #1
 5466              	.LVL741:
 5467              	.L705:
 5468              		.loc 1 3365 0 is_stmt 1
 5469 0064 0433     		adds	r3, r3, #4
 5470              	.LVL742:
 5471 0066 043A     		subs	r2, r2, #4
 5472              	.LVL743:
 5473              	.L704:
 5474              		.loc 1 3367 0
 5475 0068 013C     		subs	r4, r4, #1
 5476              	.LVL744:
 5477 006a E8D1     		bne	.L706
 5478              	.LVL745:
 5479              	.L698:
 5480              		.loc 1 3370 0
 5481 006c 6B79     		ldrb	r3, [r5, #5]	@ zero_extendqisi2
 5482              		.loc 1 3369 0
 5483 006e 2E61     		str	r6, [r5, #16]
 5484              		.loc 1 3370 0
 5485 0070 43F00103 		orr	r3, r3, #1
 5486 0074 6B71     		strb	r3, [r5, #5]
 5487              		.loc 1 3371 0
 5488 0076 C8F80060 		str	r6, [r8]
 5489              	.LVL746:
 5490              	.L713:
 5491              		.loc 1 3375 0
 5492 007a 5046     		mov	r0, r10
ARM GAS  /tmp/ccZHgRNF.s 			page 98


 5493 007c 03B0     		add	sp, sp, #12
 5494              		@ sp needed
 5495 007e BDE8F08F 		pop	{r4, r5, r6, r7, r8, r9, r10, fp, pc}
 5496              	.LVL747:
 5497              	.L717:
 5498 0082 5046     		mov	r0, r10
 5499              	.LVL748:
 5500              		.loc 1 3336 0
 5501 0084 C8F80030 		str	r3, [r8]
 5502              		.loc 1 3375 0
 5503 0088 03B0     		add	sp, sp, #12
 5504              		@ sp needed
 5505 008a BDE8F08F 		pop	{r4, r5, r6, r7, r8, r9, r10, fp, pc}
 5506              	.LVL749:
 5507              	.L719:
 5508              		.loc 1 3355 0
 5509 008e 2846     		mov	r0, r5
 5510 0090 6146     		mov	r1, ip
 5511 0092 0CF10107 		add	r7, ip, #1
 5512              	.LVL750:
 5513 0096 FFF7FEFF 		bl	move_window
 5514              	.LVL751:
 5515              		.loc 1 3356 0
 5516 009a B8B9     		cbnz	r0, .L711
 5517              	.LVL752:
 5518              		.loc 1 3360 0
 5519 009c B9F1020F 		cmp	r9, #2
 5520              		.loc 1 3355 0
 5521 00a0 BC46     		mov	ip, r7
 5522              		.loc 1 3357 0
 5523 00a2 05F13003 		add	r3, r5, #48
 5524              	.LVL753:
 5525              		.loc 1 3358 0
 5526 00a6 4FF40072 		mov	r2, #512
 5527              	.LVL754:
 5528              		.loc 1 3360 0
 5529 00aa CCD1     		bne	.L702
 5530              	.LVL755:
 5531              	.L720:
 5532              		.loc 1 3361 0
 5533 00ac 5878     		ldrb	r0, [r3, #1]	@ zero_extendqisi2
 5534 00ae 1978     		ldrb	r1, [r3]	@ zero_extendqisi2
 5535 00b0 51EA0021 		orrs	r1, r1, r0, lsl #8
 5536 00b4 08BF     		it	eq
 5537 00b6 0136     		addeq	r6, r6, #1
 5538              	.LVL756:
 5539              		.loc 1 3362 0
 5540 00b8 0233     		adds	r3, r3, #2
 5541              	.LVL757:
 5542 00ba 023A     		subs	r2, r2, #2
 5543              	.LVL758:
 5544 00bc D4E7     		b	.L704
 5545              	.LVL759:
 5546              	.L718:
 5547              	.LBB334:
 5548              	.LBB335:
 5549              		.loc 1 874 0
ARM GAS  /tmp/ccZHgRNF.s 			page 99


 5550 00be 022C     		cmp	r4, #2
 5551 00c0 98BF     		it	ls
 5552 00c2 0646     		movls	r6, r0
 5553 00c4 04D8     		bhi	.L721
 5554              	.LVL760:
 5555              	.L696:
 5556              	.LBE335:
 5557              	.LBE334:
 5558              		.loc 1 3346 0
 5559 00c6 4FF0020A 		mov	r10, #2
 5560 00ca CFE7     		b	.L698
 5561              	.LVL761:
 5562              	.L711:
 5563              		.loc 1 3355 0
 5564 00cc 8246     		mov	r10, r0
 5565 00ce CDE7     		b	.L698
 5566              	.LVL762:
 5567              	.L721:
 5568              	.LBB338:
 5569              	.LBB336:
 5570              		.loc 1 874 0
 5571 00d0 0224     		movs	r4, #2
 5572 00d2 0646     		mov	r6, r0
 5573 00d4 08E0     		b	.L707
 5574              	.LVL763:
 5575              	.L722:
 5576              	.LBE336:
 5577              	.LBE338:
 5578              		.loc 1 3346 0
 5579 00d6 0128     		cmp	r0, #1
 5580 00d8 F5D0     		beq	.L696
 5581              		.loc 1 3347 0
 5582 00da 00B9     		cbnz	r0, .L699
 5583              		.loc 1 3347 0 is_stmt 0 discriminator 1
 5584 00dc 0136     		adds	r6, r6, #1
 5585              	.LVL764:
 5586              	.L699:
 5587              		.loc 1 3348 0 is_stmt 1
 5588 00de 6B69     		ldr	r3, [r5, #20]
 5589 00e0 9C42     		cmp	r4, r3
 5590 00e2 C3D2     		bcs	.L698
 5591              	.LBB339:
 5592              	.LBB337:
 5593              		.loc 1 874 0
 5594 00e4 012C     		cmp	r4, #1
 5595 00e6 EED9     		bls	.L696
 5596              	.LVL765:
 5597              	.L707:
 5598 00e8 2146     		mov	r1, r4
 5599 00ea 2846     		mov	r0, r5
 5600 00ec FFF7FEFF 		bl	get_fat.part.6
 5601              	.LVL766:
 5602              	.LBE337:
 5603              	.LBE339:
 5604              		.loc 1 3345 0
 5605 00f0 431C     		adds	r3, r0, #1
 5606              		.loc 1 3348 0
ARM GAS  /tmp/ccZHgRNF.s 			page 100


 5607 00f2 04F10104 		add	r4, r4, #1
 5608              	.LVL767:
 5609              		.loc 1 3345 0
 5610 00f6 EED1     		bne	.L722
 5611 00f8 4FF0010A 		mov	r10, #1
 5612 00fc B6E7     		b	.L698
 5613              		.cfi_endproc
 5614              	.LFE280:
 5615              		.size	f_getfree, .-f_getfree
 5616 00fe 00BF     		.section	.text.f_truncate,"ax",%progbits
 5617              		.align	2
 5618              		.p2align 4,,15
 5619              		.global	f_truncate
 5620              		.thumb
 5621              		.thumb_func
 5622              		.type	f_truncate, %function
 5623              	f_truncate:
 5624              	.LFB281:
 5625              		.loc 1 3387 0
 5626              		.cfi_startproc
 5627              		@ args = 0, pretend = 0, frame = 0
 5628              		@ frame_needed = 0, uses_anonymous_args = 0
 5629              	.LVL768:
 5630 0000 70B5     		push	{r4, r5, r6, lr}
 5631              		.cfi_def_cfa_offset 16
 5632              		.cfi_offset 4, -16
 5633              		.cfi_offset 5, -12
 5634              		.cfi_offset 6, -8
 5635              		.cfi_offset 14, -4
 5636              		.loc 1 3387 0
 5637 0002 0546     		mov	r5, r0
 5638              		.loc 1 3392 0
 5639 0004 FFF7FEFF 		bl	validate
 5640              	.LVL769:
 5641              		.loc 1 3393 0
 5642 0008 0446     		mov	r4, r0
 5643 000a 10B9     		cbnz	r0, .L751
 5644              		.loc 1 3394 0
 5645 000c EB79     		ldrb	r3, [r5, #7]	@ zero_extendqisi2
 5646 000e 13B1     		cbz	r3, .L758
 5647 0010 1C46     		mov	r4, r3
 5648              	.LVL770:
 5649              	.L751:
 5650              		.loc 1 3431 0
 5651 0012 2046     		mov	r0, r4
 5652 0014 70BD     		pop	{r4, r5, r6, pc}
 5653              	.LVL771:
 5654              	.L758:
 5655              		.loc 1 3397 0
 5656 0016 AA79     		ldrb	r2, [r5, #6]	@ zero_extendqisi2
 5657 0018 9107     		lsls	r1, r2, #30
 5658 001a 24D5     		bpl	.L742
 5659              	.LVL772:
 5660              		.loc 1 3402 0
 5661 001c AB68     		ldr	r3, [r5, #8]
 5662 001e E968     		ldr	r1, [r5, #12]
 5663 0020 9942     		cmp	r1, r3
ARM GAS  /tmp/ccZHgRNF.s 			page 101


 5664 0022 F6D9     		bls	.L751
 5665              		.loc 1 3404 0
 5666 0024 42F02002 		orr	r2, r2, #32
 5667 0028 AA71     		strb	r2, [r5, #6]
 5668              		.loc 1 3403 0
 5669 002a EB60     		str	r3, [r5, #12]
 5670              		.loc 1 3405 0
 5671 002c F3B9     		cbnz	r3, .L726
 5672              		.loc 1 3406 0
 5673 002e 2969     		ldr	r1, [r5, #16]
 5674 0030 2868     		ldr	r0, [r5]
 5675              	.LVL773:
 5676              	.LBB340:
 5677              	.LBB341:
 5678              		.loc 1 985 0
 5679 0032 0129     		cmp	r1, #1
 5680 0034 02D9     		bls	.L744
 5681 0036 4369     		ldr	r3, [r0, #20]
 5682 0038 9942     		cmp	r1, r3
 5683 003a 28D3     		bcc	.L759
 5684              	.L744:
 5685              		.loc 1 986 0
 5686 003c 0220     		movs	r0, #2
 5687              	.LVL774:
 5688              	.L727:
 5689              	.LBE341:
 5690              	.LBE340:
 5691              		.loc 1 3407 0
 5692 003e 0023     		movs	r3, #0
 5693 0040 2B61     		str	r3, [r5, #16]
 5694              	.LVL775:
 5695              	.L728:
 5696              		.loc 1 3419 0
 5697 0042 08BB     		cbnz	r0, .L747
 5698              	.LVL776:
 5699              	.L740:
 5700 0044 AB79     		ldrb	r3, [r5, #6]	@ zero_extendqisi2
 5701 0046 5B06     		lsls	r3, r3, #25
 5702 0048 E3D5     		bpl	.L751
 5703              		.loc 1 3420 0
 5704 004a 2946     		mov	r1, r5
 5705 004c AA69     		ldr	r2, [r5, #24]
 5706 004e 51F8240B 		ldr	r0, [r1], #36
 5707 0052 0123     		movs	r3, #1
 5708 0054 4078     		ldrb	r0, [r0, #1]	@ zero_extendqisi2
 5709 0056 FFF7FEFF 		bl	disk_write
 5710              	.LVL777:
 5711 005a 90B9     		cbnz	r0, .L748
 5712              		.loc 1 3423 0
 5713 005c AB79     		ldrb	r3, [r5, #6]	@ zero_extendqisi2
 5714 005e 23F04003 		bic	r3, r3, #64
 5715 0062 AB71     		strb	r3, [r5, #6]
 5716 0064 D5E7     		b	.L751
 5717              	.LVL778:
 5718              	.L742:
 5719              		.loc 1 3398 0
 5720 0066 0724     		movs	r4, #7
ARM GAS  /tmp/ccZHgRNF.s 			page 102


 5721              	.LVL779:
 5722              		.loc 1 3431 0
 5723 0068 2046     		mov	r0, r4
 5724 006a 70BD     		pop	{r4, r5, r6, pc}
 5725              	.LVL780:
 5726              	.L726:
 5727              		.loc 1 3409 0
 5728 006c 6969     		ldr	r1, [r5, #20]
 5729 006e 2868     		ldr	r0, [r5]
 5730              	.LVL781:
 5731              	.LBB343:
 5732              	.LBB344:
 5733              		.loc 1 874 0
 5734 0070 0129     		cmp	r1, #1
 5735 0072 02D9     		bls	.L729
 5736 0074 4369     		ldr	r3, [r0, #20]
 5737 0076 9942     		cmp	r1, r3
 5738 0078 0CD3     		bcc	.L760
 5739              	.LVL782:
 5740              	.L729:
 5741              	.LBE344:
 5742              	.LBE343:
 5743              		.loc 1 3412 0
 5744 007a 0224     		movs	r4, #2
 5745              	.LVL783:
 5746              		.loc 1 3427 0
 5747 007c EC71     		strb	r4, [r5, #7]
 5748              	.LVL784:
 5749              	.L761:
 5750              		.loc 1 3431 0
 5751 007e 2046     		mov	r0, r4
 5752 0080 70BD     		pop	{r4, r5, r6, pc}
 5753              	.LVL785:
 5754              	.L748:
 5755              		.loc 1 3421 0
 5756 0082 0124     		movs	r4, #1
 5757              	.LVL786:
 5758              		.loc 1 3427 0
 5759 0084 EC71     		strb	r4, [r5, #7]
 5760 0086 FAE7     		b	.L761
 5761              	.LVL787:
 5762              	.L747:
 5763 0088 0446     		mov	r4, r0
 5764              	.LVL788:
 5765 008a EC71     		strb	r4, [r5, #7]
 5766 008c F7E7     		b	.L761
 5767              	.LVL789:
 5768              	.L759:
 5769              	.LBB347:
 5770              	.LBB342:
 5771 008e FFF7FEFF 		bl	remove_chain.part.10
 5772              	.LVL790:
 5773 0092 D4E7     		b	.L727
 5774              	.LVL791:
 5775              	.L760:
 5776              	.LBE342:
 5777              	.LBE347:
ARM GAS  /tmp/ccZHgRNF.s 			page 103


 5778              	.LBB348:
 5779              	.LBB345:
 5780 0094 FFF7FEFF 		bl	get_fat.part.6
 5781              	.LVL792:
 5782              	.LBE345:
 5783              	.LBE348:
 5784              		.loc 1 3411 0
 5785 0098 421C     		adds	r2, r0, #1
 5786              	.LBB349:
 5787              	.LBB346:
 5788 009a 0646     		mov	r6, r0
 5789              	.LBE346:
 5790              	.LBE349:
 5791 009c F1D0     		beq	.L748
 5792              		.loc 1 3412 0
 5793 009e 0128     		cmp	r0, #1
 5794 00a0 EBD0     		beq	.L729
 5795              		.loc 1 3413 0
 5796 00a2 2868     		ldr	r0, [r5]
 5797 00a4 4369     		ldr	r3, [r0, #20]
 5798 00a6 B342     		cmp	r3, r6
 5799 00a8 CCD9     		bls	.L740
 5800              		.loc 1 3414 0
 5801 00aa 6969     		ldr	r1, [r5, #20]
 5802              	.LVL793:
 5803              	.LBB350:
 5804              	.LBB351:
 5805              		.loc 1 922 0
 5806 00ac 0129     		cmp	r1, #1
 5807 00ae E4D9     		bls	.L729
 5808 00b0 8B42     		cmp	r3, r1
 5809 00b2 E2D9     		bls	.L729
 5810 00b4 6FF07042 		mvn	r2, #-268435456
 5811 00b8 FFF7FEFF 		bl	put_fat.part.8
 5812              	.LVL794:
 5813              	.LBE351:
 5814              	.LBE350:
 5815              		.loc 1 3415 0
 5816 00bc 0028     		cmp	r0, #0
 5817 00be E3D1     		bne	.L747
 5818              	.LBB352:
 5819              	.LBB353:
 5820              		.loc 1 985 0 discriminator 1
 5821 00c0 012E     		cmp	r6, #1
 5822              	.LBE353:
 5823              	.LBE352:
 5824              		.loc 1 3415 0 discriminator 1
 5825 00c2 2868     		ldr	r0, [r5]
 5826              	.LVL795:
 5827              	.LBB355:
 5828              	.LBB354:
 5829              		.loc 1 985 0 discriminator 1
 5830 00c4 D9D9     		bls	.L729
 5831              		.loc 1 985 0 is_stmt 0
 5832 00c6 4369     		ldr	r3, [r0, #20]
 5833 00c8 9E42     		cmp	r6, r3
 5834 00ca D6D2     		bcs	.L729
ARM GAS  /tmp/ccZHgRNF.s 			page 104


 5835 00cc 3146     		mov	r1, r6
 5836 00ce FFF7FEFF 		bl	remove_chain.part.10
 5837              	.LVL796:
 5838 00d2 B6E7     		b	.L728
 5839              	.LBE354:
 5840              	.LBE355:
 5841              		.cfi_endproc
 5842              	.LFE281:
 5843              		.size	f_truncate, .-f_truncate
 5844 00d4 AFF30080 		.section	.text.f_unlink,"ax",%progbits
 5844      AFF30080 
 5844      AFF30080 
 5845              		.align	2
 5846              		.p2align 4,,15
 5847              		.global	f_unlink
 5848              		.thumb
 5849              		.thumb_func
 5850              		.type	f_unlink, %function
 5851              	f_unlink:
 5852              	.LFB282:
 5853              		.loc 1 3443 0 is_stmt 1
 5854              		.cfi_startproc
 5855              		@ args = 0, pretend = 0, frame = 80
 5856              		@ frame_needed = 0, uses_anonymous_args = 0
 5857              	.LVL797:
 5858 0000 30B5     		push	{r4, r5, lr}
 5859              		.cfi_def_cfa_offset 12
 5860              		.cfi_offset 4, -12
 5861              		.cfi_offset 5, -8
 5862              		.cfi_offset 14, -4
 5863 0002 95B0     		sub	sp, sp, #84
 5864              		.cfi_def_cfa_offset 96
 5865              		.loc 1 3452 0
 5866 0004 01A9     		add	r1, sp, #4
 5867              		.loc 1 3443 0
 5868 0006 0190     		str	r0, [sp, #4]
 5869              		.loc 1 3452 0
 5870 0008 0122     		movs	r2, #1
 5871 000a 06A8     		add	r0, sp, #24
 5872              	.LVL798:
 5873 000c FFF7FEFF 		bl	find_volume
 5874              	.LVL799:
 5875              		.loc 1 3453 0
 5876 0010 08B1     		cbz	r0, .L790
 5877              	.LVL800:
 5878              	.L782:
 5879              		.loc 1 3501 0
 5880 0012 15B0     		add	sp, sp, #84
 5881              		@ sp needed
 5882 0014 30BD     		pop	{r4, r5, pc}
 5883              	.LVL801:
 5884              	.L790:
 5885              		.loc 1 3454 0
 5886 0016 03AB     		add	r3, sp, #12
 5887              		.loc 1 3455 0
 5888 0018 06A8     		add	r0, sp, #24
 5889              	.LVL802:
ARM GAS  /tmp/ccZHgRNF.s 			page 105


 5890 001a 0199     		ldr	r1, [sp, #4]
 5891              		.loc 1 3454 0
 5892 001c 0C93     		str	r3, [sp, #48]
 5893              		.loc 1 3455 0
 5894 001e FFF7FEFF 		bl	follow_path
 5895              	.LVL803:
 5896              		.loc 1 3461 0
 5897 0022 0028     		cmp	r0, #0
 5898 0024 F5D1     		bne	.L782
 5899              		.loc 1 3462 0
 5900 0026 0B9B     		ldr	r3, [sp, #44]
 5901              	.LVL804:
 5902              		.loc 1 3463 0
 5903 0028 002B     		cmp	r3, #0
 5904 002a 4AD0     		beq	.L773
 5905              		.loc 1 3466 0
 5906 002c DA7A     		ldrb	r2, [r3, #11]	@ zero_extendqisi2
 5907              		.loc 1 3467 0
 5908 002e 12F0010F 		tst	r2, #1
 5909 0032 0CBF     		ite	eq
 5910 0034 0020     		moveq	r0, #0
 5911 0036 0720     		movne	r0, #7
 5912              	.LVL805:
 5913              	.L764:
 5914              		.loc 1 3469 0
 5915 0038 069A     		ldr	r2, [sp, #24]
 5916              	.LBB356:
 5917              	.LBB357:
 5918              		.loc 1 1277 0
 5919 003a DD7E     		ldrb	r5, [r3, #27]	@ zero_extendqisi2
 5920              		.loc 1 1278 0
 5921 003c 1278     		ldrb	r2, [r2]	@ zero_extendqisi2
 5922              		.loc 1 1277 0
 5923 003e 997E     		ldrb	r1, [r3, #26]	@ zero_extendqisi2
 5924              		.loc 1 1278 0
 5925 0040 032A     		cmp	r2, #3
 5926              		.loc 1 1277 0
 5927 0042 41EA0525 		orr	r5, r1, r5, lsl #8
 5928              	.LVL806:
 5929              		.loc 1 1278 0
 5930 0046 2AD0     		beq	.L791
 5931              	.LBE357:
 5932              	.LBE356:
 5933              		.loc 1 3470 0
 5934 0048 0028     		cmp	r0, #0
 5935 004a E2D1     		bne	.L782
 5936              	.L793:
 5937              		.loc 1 3470 0 is_stmt 0 discriminator 1
 5938 004c DB7A     		ldrb	r3, [r3, #11]	@ zero_extendqisi2
 5939              	.LVL807:
 5940 004e DB06     		lsls	r3, r3, #27
 5941 0050 17D5     		bpl	.L767
 5942              		.loc 1 3471 0 is_stmt 1
 5943 0052 012D     		cmp	r5, #1
 5944 0054 21D9     		bls	.L775
 5945 0056 0DA8     		add	r0, sp, #52
 5946              	.LVL808:
ARM GAS  /tmp/ccZHgRNF.s 			page 106


 5947 0058 0346     		mov	r3, r0
 5948 005a 06AC     		add	r4, sp, #24
 5949              	.LVL809:
 5950              	.L769:
 5951              	.LBB359:
 5952              	.LBB360:
 5953              		.loc 1 574 0
 5954 005c 14F8012B 		ldrb	r2, [r4], #1	@ zero_extendqisi2
 5955              	.LVL810:
 5956 0060 03F8012B 		strb	r2, [r3], #1
 5957              	.LVL811:
 5958              		.loc 1 573 0
 5959 0064 8442     		cmp	r4, r0
 5960 0066 F9D1     		bne	.L769
 5961              	.LBE360:
 5962              	.LBE359:
 5963              		.loc 1 3476 0
 5964 0068 2046     		mov	r0, r4
 5965 006a 0221     		movs	r1, #2
 5966              		.loc 1 3475 0
 5967 006c 0F95     		str	r5, [sp, #60]
 5968              		.loc 1 3476 0
 5969 006e FFF7FEFF 		bl	dir_sdi
 5970              	.LVL812:
 5971              		.loc 1 3477 0
 5972 0072 0028     		cmp	r0, #0
 5973 0074 CDD1     		bne	.L782
 5974              		.loc 1 3478 0
 5975 0076 2046     		mov	r0, r4
 5976              	.LVL813:
 5977 0078 FFF7FEFF 		bl	dir_read.constprop.11
 5978              	.LVL814:
 5979              		.loc 1 3479 0
 5980 007c 18B3     		cbz	r0, .L776
 5981              		.loc 1 3484 0
 5982 007e 0428     		cmp	r0, #4
 5983 0080 C7D1     		bne	.L782
 5984              	.LVL815:
 5985              	.L767:
 5986              		.loc 1 3489 0
 5987 0082 06A8     		add	r0, sp, #24
 5988 0084 FFF7FEFF 		bl	dir_remove
 5989              	.LVL816:
 5990              		.loc 1 3490 0
 5991 0088 0028     		cmp	r0, #0
 5992 008a C2D1     		bne	.L782
 5993              		.loc 1 3491 0
 5994 008c ADB1     		cbz	r5, .L771
 5995              	.LBB361:
 5996              	.LBB362:
 5997              		.loc 1 985 0
 5998 008e 012D     		cmp	r5, #1
 5999              	.LBE362:
 6000              	.LBE361:
 6001              		.loc 1 3492 0
 6002 0090 0698     		ldr	r0, [sp, #24]
 6003              	.LVL817:
ARM GAS  /tmp/ccZHgRNF.s 			page 107


 6004              	.LBB365:
 6005              	.LBB363:
 6006              		.loc 1 985 0
 6007 0092 02D9     		bls	.L775
 6008 0094 4369     		ldr	r3, [r0, #20]
 6009 0096 9D42     		cmp	r5, r3
 6010 0098 0AD3     		bcc	.L792
 6011              	.LVL818:
 6012              	.L775:
 6013              	.LBE363:
 6014              	.LBE365:
 6015              		.loc 1 3472 0
 6016 009a 0220     		movs	r0, #2
 6017 009c B9E7     		b	.L782
 6018              	.LVL819:
 6019              	.L791:
 6020              	.LBB366:
 6021              	.LBB358:
 6022              		.loc 1 1279 0
 6023 009e 597D     		ldrb	r1, [r3, #21]	@ zero_extendqisi2
 6024 00a0 1A7D     		ldrb	r2, [r3, #20]	@ zero_extendqisi2
 6025 00a2 42EA0122 		orr	r2, r2, r1, lsl #8
 6026 00a6 45EA0245 		orr	r5, r5, r2, lsl #16
 6027              	.LVL820:
 6028              	.LBE358:
 6029              	.LBE366:
 6030              		.loc 1 3470 0
 6031 00aa 0028     		cmp	r0, #0
 6032 00ac B1D1     		bne	.L782
 6033 00ae CDE7     		b	.L793
 6034              	.LVL821:
 6035              	.L792:
 6036              	.LBB367:
 6037              	.LBB364:
 6038 00b0 2946     		mov	r1, r5
 6039 00b2 FFF7FEFF 		bl	remove_chain.part.10
 6040              	.LVL822:
 6041              	.LBE364:
 6042              	.LBE367:
 6043              		.loc 1 3493 0
 6044 00b6 0028     		cmp	r0, #0
 6045 00b8 ABD1     		bne	.L782
 6046              	.LVL823:
 6047              	.L771:
 6048 00ba 0698     		ldr	r0, [sp, #24]
 6049 00bc FFF7FEFF 		bl	sync_fs
 6050              	.LVL824:
 6051 00c0 A7E7     		b	.L782
 6052              	.LVL825:
 6053              	.L773:
 6054              		.loc 1 3464 0
 6055 00c2 0620     		movs	r0, #6
 6056              	.LVL826:
 6057 00c4 B8E7     		b	.L764
 6058              	.LVL827:
 6059              	.L776:
 6060              		.loc 1 3483 0
ARM GAS  /tmp/ccZHgRNF.s 			page 108


 6061 00c6 0720     		movs	r0, #7
 6062              	.LVL828:
 6063 00c8 A3E7     		b	.L782
 6064              		.cfi_endproc
 6065              	.LFE282:
 6066              		.size	f_unlink, .-f_unlink
 6067 00ca 00BFAFF3 		.section	.text.f_mkdir,"ax",%progbits
 6067      0080
 6068              		.align	2
 6069              		.p2align 4,,15
 6070              		.global	f_mkdir
 6071              		.thumb
 6072              		.thumb_func
 6073              		.type	f_mkdir, %function
 6074              	f_mkdir:
 6075              	.LFB283:
 6076              		.loc 1 3513 0
 6077              		.cfi_startproc
 6078              		@ args = 0, pretend = 0, frame = 80
 6079              		@ frame_needed = 0, uses_anonymous_args = 0
 6080              	.LVL829:
 6081 0000 2DE9F04F 		push	{r4, r5, r6, r7, r8, r9, r10, fp, lr}
 6082              		.cfi_def_cfa_offset 36
 6083              		.cfi_offset 4, -36
 6084              		.cfi_offset 5, -32
 6085              		.cfi_offset 6, -28
 6086              		.cfi_offset 7, -24
 6087              		.cfi_offset 8, -20
 6088              		.cfi_offset 9, -16
 6089              		.cfi_offset 10, -12
 6090              		.cfi_offset 11, -8
 6091              		.cfi_offset 14, -4
 6092 0004 95B0     		sub	sp, sp, #84
 6093              		.cfi_def_cfa_offset 120
 6094              		.loc 1 3513 0
 6095 0006 0990     		str	r0, [sp, #36]
 6096              		.loc 1 3517 0
 6097 0008 FFF7FEFF 		bl	get_fattime
 6098              	.LVL830:
 6099              		.loc 1 3522 0
 6100 000c 0122     		movs	r2, #1
 6101              		.loc 1 3517 0
 6102 000e 8046     		mov	r8, r0
 6103              	.LVL831:
 6104              		.loc 1 3522 0
 6105 0010 09A9     		add	r1, sp, #36
 6106              	.LVL832:
 6107 0012 0DA8     		add	r0, sp, #52
 6108              	.LVL833:
 6109 0014 FFF7FEFF 		bl	find_volume
 6110              	.LVL834:
 6111 0018 0246     		mov	r2, r0
 6112 001a 0446     		mov	r4, r0
 6113              	.LVL835:
 6114              		.loc 1 3523 0
 6115 001c 18B1     		cbz	r0, .L836
 6116              	.LVL836:
ARM GAS  /tmp/ccZHgRNF.s 			page 109


 6117              	.L825:
 6118              		.loc 1 3575 0
 6119 001e 1046     		mov	r0, r2
 6120 0020 15B0     		add	sp, sp, #84
 6121              		@ sp needed
 6122 0022 BDE8F08F 		pop	{r4, r5, r6, r7, r8, r9, r10, fp, pc}
 6123              	.LVL837:
 6124              	.L836:
 6125              		.loc 1 3524 0
 6126 0026 0AAB     		add	r3, sp, #40
 6127              		.loc 1 3525 0
 6128 0028 0DA8     		add	r0, sp, #52
 6129              	.LVL838:
 6130 002a 0999     		ldr	r1, [sp, #36]
 6131              		.loc 1 3524 0
 6132 002c 1393     		str	r3, [sp, #76]
 6133              		.loc 1 3525 0
 6134 002e FFF7FEFF 		bl	follow_path
 6135              	.LVL839:
 6136              		.loc 1 3526 0
 6137 0032 0246     		mov	r2, r0
 6138 0034 A0B1     		cbz	r0, .L818
 6139              		.loc 1 3529 0
 6140 0036 0428     		cmp	r0, #4
 6141 0038 F1D1     		bne	.L825
 6142              		.loc 1 3530 0
 6143 003a 2146     		mov	r1, r4
 6144 003c 0D98     		ldr	r0, [sp, #52]
 6145              	.LVL840:
 6146 003e FFF7FEFF 		bl	create_chain
 6147              	.LVL841:
 6148              		.loc 1 3532 0
 6149 0042 0546     		mov	r5, r0
 6150 0044 88B9     		cbnz	r0, .L837
 6151 0046 0722     		movs	r2, #7
 6152              	.LVL842:
 6153              	.L809:
 6154              	.LBB390:
 6155              	.LBB391:
 6156              		.loc 1 985 0
 6157 0048 012D     		cmp	r5, #1
 6158              	.LBE391:
 6159              	.LBE390:
 6160              		.loc 1 3561 0
 6161 004a 0D98     		ldr	r0, [sp, #52]
 6162              	.LVL843:
 6163              	.LBB393:
 6164              	.LBB392:
 6165              		.loc 1 985 0
 6166 004c E7D9     		bls	.L825
 6167 004e 4369     		ldr	r3, [r0, #20]
 6168 0050 9D42     		cmp	r5, r3
 6169 0052 E4D2     		bcs	.L825
 6170 0054 2946     		mov	r1, r5
 6171 0056 0192     		str	r2, [sp, #4]
 6172 0058 FFF7FEFF 		bl	remove_chain.part.10
 6173              	.LVL844:
ARM GAS  /tmp/ccZHgRNF.s 			page 110


 6174 005c 019A     		ldr	r2, [sp, #4]
 6175 005e DEE7     		b	.L825
 6176              	.LVL845:
 6177              	.L818:
 6178              	.LBE392:
 6179              	.LBE393:
 6180              		.loc 1 3526 0
 6181 0060 0822     		movs	r2, #8
 6182              	.LVL846:
 6183              		.loc 1 3575 0
 6184 0062 1046     		mov	r0, r2
 6185 0064 15B0     		add	sp, sp, #84
 6186              		@ sp needed
 6187 0066 BDE8F08F 		pop	{r4, r5, r6, r7, r8, r9, r10, fp, pc}
 6188              	.LVL847:
 6189              	.L837:
 6190              		.loc 1 3533 0
 6191 006a 0128     		cmp	r0, #1
 6192 006c 01D1     		bne	.L838
 6193 006e 0222     		movs	r2, #2
 6194 0070 EAE7     		b	.L809
 6195              	.L838:
 6196              		.loc 1 3534 0
 6197 0072 431C     		adds	r3, r0, #1
 6198 0074 08BF     		it	eq
 6199 0076 0122     		moveq	r2, #1
 6200 0078 E6D0     		beq	.L809
 6201              		.loc 1 3536 0
 6202 007a 0D9E     		ldr	r6, [sp, #52]
 6203              	.LVL848:
 6204              	.LBB394:
 6205              	.LBB395:
 6206              		.loc 1 763 0
 6207 007c 3379     		ldrb	r3, [r6, #4]	@ zero_extendqisi2
 6208 007e 002B     		cmp	r3, #0
 6209 0080 40F0B980 		bne	.L839
 6210              	.LVL849:
 6211              	.L817:
 6212              	.LBE395:
 6213              	.LBE394:
 6214              	.LBB397:
 6215              	.LBB398:
 6216              		.loc 1 853 0
 6217 0084 7269     		ldr	r2, [r6, #20]
 6218              		.loc 1 852 0
 6219 0086 AB1E     		subs	r3, r5, #2
 6220              	.LVL850:
 6221              		.loc 1 853 0
 6222 0088 023A     		subs	r2, r2, #2
 6223 008a 9342     		cmp	r3, r2
 6224              		.loc 1 854 0
 6225 008c 3CBF     		itt	cc
 6226 008e B178     		ldrbcc	r1, [r6, #2]	@ zero_extendqisi2
 6227 0090 B26A     		ldrcc	r2, [r6, #40]
 6228              	.LBE398:
 6229              	.LBE397:
 6230              		.loc 1 3539 0
ARM GAS  /tmp/ccZHgRNF.s 			page 111


 6231 0092 06F13004 		add	r4, r6, #48
 6232              	.LBB400:
 6233              	.LBB399:
 6234              		.loc 1 854 0
 6235 0096 34BF     		ite	cc
 6236 0098 01FB0322 		mlacc	r2, r1, r3, r2
 6237              		.loc 1 853 0
 6238 009c 0022     		movcs	r2, #0
 6239              	.LVL851:
 6240              	.LBE399:
 6241              	.LBE400:
 6242              	.LBB401:
 6243              	.LBB402:
 6244              		.loc 1 580 0
 6245 009e 2146     		mov	r1, r4
 6246 00a0 06F50C79 		add	r9, r6, #560
 6247              		.loc 1 583 0
 6248 00a4 0020     		movs	r0, #0
 6249              	.LVL852:
 6250              	.L801:
 6251 00a6 01F8010B 		strb	r0, [r1], #1
 6252              	.LVL853:
 6253              		.loc 1 582 0
 6254 00aa 4945     		cmp	r1, r9
 6255 00ac FBD1     		bne	.L801
 6256 00ae 06F13B07 		add	r7, r6, #59
 6257 00b2 2146     		mov	r1, r4
 6258              	.LVL854:
 6259              	.LBE402:
 6260              	.LBE401:
 6261              	.LBB403:
 6262              	.LBB404:
 6263              		.loc 1 583 0
 6264 00b4 2020     		movs	r0, #32
 6265              	.L803:
 6266              	.LVL855:
 6267 00b6 01F8010B 		strb	r0, [r1], #1
 6268              	.LVL856:
 6269              		.loc 1 582 0
 6270 00ba B942     		cmp	r1, r7
 6271 00bc FBD1     		bne	.L803
 6272              	.LBE404:
 6273              	.LBE403:
 6274              	.LBB405:
 6275              	.LBB406:
 6276              		.loc 1 1293 0
 6277 00be 290C     		lsrs	r1, r5, #16
 6278              	.LVL857:
 6279 00c0 CBB2     		uxtb	r3, r1
 6280              	.LVL858:
 6281 00c2 0793     		str	r3, [sp, #28]
 6282              	.LBE406:
 6283              	.LBE405:
 6284              		.loc 1 3544 0
 6285 00c4 C8F30723 		ubfx	r3, r8, #8, #8
 6286 00c8 0293     		str	r3, [sp, #8]
 6287 00ca C8F30743 		ubfx	r3, r8, #16, #8
ARM GAS  /tmp/ccZHgRNF.s 			page 112


 6288 00ce 0393     		str	r3, [sp, #12]
 6289              	.LBB411:
 6290              	.LBB407:
 6291              		.loc 1 1292 0
 6292 00d0 EBB2     		uxtb	r3, r5
 6293              		.loc 1 1293 0
 6294 00d2 090A     		lsrs	r1, r1, #8
 6295              		.loc 1 1292 0
 6296 00d4 0593     		str	r3, [sp, #20]
 6297 00d6 C5F30723 		ubfx	r3, r5, #8, #8
 6298              		.loc 1 1293 0
 6299 00da 0891     		str	r1, [sp, #32]
 6300              		.loc 1 1292 0
 6301 00dc 0693     		str	r3, [sp, #24]
 6302              		.loc 1 1293 0
 6303 00de 079B     		ldr	r3, [sp, #28]
 6304 00e0 86F84430 		strb	r3, [r6, #68]
 6305 00e4 089B     		ldr	r3, [sp, #32]
 6306 00e6 86F84530 		strb	r3, [r6, #69]
 6307              	.LBE407:
 6308              	.LBE411:
 6309              		.loc 1 3544 0
 6310 00ea 029B     		ldr	r3, [sp, #8]
 6311 00ec 86F84730 		strb	r3, [r6, #71]
 6312 00f0 039B     		ldr	r3, [sp, #12]
 6313 00f2 86F84830 		strb	r3, [r6, #72]
 6314              	.LBB412:
 6315              	.LBB408:
 6316              		.loc 1 1292 0
 6317 00f6 059B     		ldr	r3, [sp, #20]
 6318 00f8 86F84A30 		strb	r3, [r6, #74]
 6319              	.LBE408:
 6320              	.LBE412:
 6321              		.loc 1 3543 0
 6322 00fc 1021     		movs	r1, #16
 6323              		.loc 1 3544 0
 6324 00fe 5FFA88FB 		uxtb	fp, r8
 6325              		.loc 1 3542 0
 6326 0102 2E27     		movs	r7, #46
 6327              		.loc 1 3544 0
 6328 0104 4FEA1868 		lsr	r8, r8, #24
 6329              	.LVL859:
 6330              	.LBB413:
 6331              	.LBB409:
 6332              		.loc 1 1292 0
 6333 0108 069B     		ldr	r3, [sp, #24]
 6334              	.LBE409:
 6335              	.LBE413:
 6336              		.loc 1 3543 0
 6337 010a 86F83B10 		strb	r1, [r6, #59]
 6338              		.loc 1 3544 0
 6339 010e CDF81080 		str	r8, [sp, #16]
 6340              		.loc 1 3542 0
 6341 0112 86F83070 		strb	r7, [r6, #48]
 6342              		.loc 1 3544 0
 6343 0116 86F846B0 		strb	fp, [r6, #70]
 6344 011a 86F84980 		strb	r8, [r6, #73]
ARM GAS  /tmp/ccZHgRNF.s 			page 113


 6345              	.LVL860:
 6346              	.LBB414:
 6347              	.LBB410:
 6348              		.loc 1 1292 0
 6349 011e 86F84B30 		strb	r3, [r6, #75]
 6350              	.LBE410:
 6351              	.LBE414:
 6352              		.loc 1 3546 0
 6353 0122 06F15001 		add	r1, r6, #80
 6354              	.LVL861:
 6355 0126 2046     		mov	r0, r4
 6356 0128 06F1700E 		add	lr, r6, #112
 6357 012c 01E0     		b	.L805
 6358              	.LVL862:
 6359              	.L840:
 6360 012e 10F8017F 		ldrb	r7, [r0, #1]!	@ zero_extendqisi2
 6361              	.L805:
 6362              	.LBB415:
 6363              	.LBB416:
 6364              		.loc 1 574 0
 6365 0132 01F8017B 		strb	r7, [r1], #1
 6366              	.LVL863:
 6367              		.loc 1 573 0
 6368 0136 7145     		cmp	r1, lr
 6369 0138 F9D1     		bne	.L840
 6370              	.LBE416:
 6371              	.LBE415:
 6372              		.loc 1 3547 0
 6373 013a 2E21     		movs	r1, #46
 6374              	.LVL864:
 6375              		.loc 1 3548 0
 6376 013c 0D98     		ldr	r0, [sp, #52]
 6377              		.loc 1 3547 0
 6378 013e 86F85110 		strb	r1, [r6, #81]
 6379              		.loc 1 3548 0
 6380 0142 0178     		ldrb	r1, [r0]	@ zero_extendqisi2
 6381              		.loc 1 3547 0
 6382 0144 0F9F     		ldr	r7, [sp, #60]
 6383              	.LVL865:
 6384              		.loc 1 3548 0
 6385 0146 0329     		cmp	r1, #3
 6386 0148 4DD0     		beq	.L806
 6387              	.L835:
 6388 014a 390C     		lsrs	r1, r7, #16
 6389 014c 5FFA81FE 		uxtb	lr, r1
 6390 0150 5FFA87FC 		uxtb	ip, r7
 6391 0154 090A     		lsrs	r1, r1, #8
 6392 0156 C7F30727 		ubfx	r7, r7, #8, #8
 6393              	.LVL866:
 6394              	.L807:
 6395              	.LBB417:
 6396              	.LBB418:
 6397              		.loc 1 1292 0
 6398 015a 86F86AC0 		strb	ip, [r6, #106]
 6399 015e 86F86B70 		strb	r7, [r6, #107]
 6400              		.loc 1 1293 0
 6401 0162 86F864E0 		strb	lr, [r6, #100]
ARM GAS  /tmp/ccZHgRNF.s 			page 114


 6402 0166 86F86510 		strb	r1, [r6, #101]
 6403              	.LBE418:
 6404              	.LBE417:
 6405              		.loc 1 3551 0
 6406 016a 8178     		ldrb	r1, [r0, #2]	@ zero_extendqisi2
 6407              	.LVL867:
 6408 016c C9B1     		cbz	r1, .L814
 6409 016e 0139     		subs	r1, r1, #1
 6410              	.LVL868:
 6411 0170 CFB2     		uxtb	r7, r1
 6412 0172 0137     		adds	r7, r7, #1
 6413 0174 1744     		add	r7, r7, r2
 6414              		.loc 1 3553 0
 6415 0176 0126     		movs	r6, #1
 6416              	.LVL869:
 6417              	.LBB419:
 6418              	.LBB420:
 6419              		.loc 1 583 0
 6420 0178 4FF00008 		mov	r8, #0
 6421              	.LVL870:
 6422              	.L815:
 6423              	.LBE420:
 6424              	.LBE419:
 6425              		.loc 1 3552 0
 6426 017c C262     		str	r2, [r0, #44]
 6427              		.loc 1 3553 0
 6428 017e 0671     		strb	r6, [r0, #4]
 6429              		.loc 1 3552 0
 6430 0180 02F1010A 		add	r10, r2, #1
 6431              	.LVL871:
 6432              	.LBB422:
 6433              	.LBB423:
 6434 0184 FFF7FEFF 		bl	sync_window.part.3
 6435              	.LVL872:
 6436              	.LBE423:
 6437              	.LBE422:
 6438              		.loc 1 3555 0
 6439 0188 48B9     		cbnz	r0, .L833
 6440              	.LVL873:
 6441              		.loc 1 3552 0
 6442 018a 2346     		mov	r3, r4
 6443              	.LVL874:
 6444              	.L813:
 6445              	.LBB424:
 6446              	.LBB421:
 6447              		.loc 1 583 0
 6448 018c 03F8018B 		strb	r8, [r3], #1
 6449              	.LVL875:
 6450              		.loc 1 582 0
 6451 0190 4B45     		cmp	r3, r9
 6452 0192 FBD1     		bne	.L813
 6453              	.LVL876:
 6454              	.LBE421:
 6455              	.LBE424:
 6456              		.loc 1 3551 0
 6457 0194 BA45     		cmp	r10, r7
 6458 0196 04D0     		beq	.L814
ARM GAS  /tmp/ccZHgRNF.s 			page 115


 6459              		.loc 1 3552 0
 6460 0198 5246     		mov	r2, r10
 6461 019a 0D98     		ldr	r0, [sp, #52]
 6462 019c EEE7     		b	.L815
 6463              	.LVL877:
 6464              	.L833:
 6465 019e 0246     		mov	r2, r0
 6466 01a0 52E7     		b	.L809
 6467              	.LVL878:
 6468              	.L814:
 6469              		.loc 1 3559 0
 6470 01a2 0DA8     		add	r0, sp, #52
 6471 01a4 FFF7FEFF 		bl	dir_register
 6472              	.LVL879:
 6473              		.loc 1 3560 0
 6474 01a8 0246     		mov	r2, r0
 6475 01aa 0028     		cmp	r0, #0
 6476 01ac 7FF44CAF 		bne	.L809
 6477              		.loc 1 3563 0
 6478 01b0 129B     		ldr	r3, [sp, #72]
 6479              	.LVL880:
 6480              		.loc 1 3565 0
 6481 01b2 029C     		ldr	r4, [sp, #8]
 6482              	.LVL881:
 6483 01b4 DC75     		strb	r4, [r3, #23]
 6484 01b6 039C     		ldr	r4, [sp, #12]
 6485 01b8 1C76     		strb	r4, [r3, #24]
 6486 01ba 049C     		ldr	r4, [sp, #16]
 6487 01bc 5C76     		strb	r4, [r3, #25]
 6488              	.LVL882:
 6489              	.LBB425:
 6490              	.LBB426:
 6491              		.loc 1 1292 0
 6492 01be 059C     		ldr	r4, [sp, #20]
 6493 01c0 9C76     		strb	r4, [r3, #26]
 6494 01c2 069C     		ldr	r4, [sp, #24]
 6495              	.LBE426:
 6496              	.LBE425:
 6497              		.loc 1 3567 0
 6498 01c4 0D9A     		ldr	r2, [sp, #52]
 6499              	.LBB430:
 6500              	.LBB427:
 6501              		.loc 1 1292 0
 6502 01c6 DC76     		strb	r4, [r3, #27]
 6503              		.loc 1 1293 0
 6504 01c8 079C     		ldr	r4, [sp, #28]
 6505 01ca 1C75     		strb	r4, [r3, #20]
 6506              	.LBE427:
 6507              	.LBE430:
 6508              		.loc 1 3564 0
 6509 01cc 1020     		movs	r0, #16
 6510              	.LVL883:
 6511              		.loc 1 3567 0
 6512 01ce 0121     		movs	r1, #1
 6513              	.LBB431:
 6514              	.LBB428:
 6515              		.loc 1 1293 0
ARM GAS  /tmp/ccZHgRNF.s 			page 116


 6516 01d0 089C     		ldr	r4, [sp, #32]
 6517              	.LBE428:
 6518              	.LBE431:
 6519              		.loc 1 3564 0
 6520 01d2 D872     		strb	r0, [r3, #11]
 6521              		.loc 1 3565 0
 6522 01d4 83F816B0 		strb	fp, [r3, #22]
 6523              	.LBB432:
 6524              	.LBB429:
 6525              		.loc 1 1293 0
 6526 01d8 5C75     		strb	r4, [r3, #21]
 6527              	.LBE429:
 6528              	.LBE432:
 6529              		.loc 1 3568 0
 6530 01da 1046     		mov	r0, r2
 6531              		.loc 1 3567 0
 6532 01dc 1171     		strb	r1, [r2, #4]
 6533              		.loc 1 3568 0
 6534 01de FFF7FEFF 		bl	sync_fs
 6535              	.LVL884:
 6536 01e2 0246     		mov	r2, r0
 6537              	.LVL885:
 6538 01e4 1BE7     		b	.L825
 6539              	.LVL886:
 6540              	.L806:
 6541              		.loc 1 3548 0 discriminator 1
 6542 01e6 416A     		ldr	r1, [r0, #36]
 6543 01e8 B942     		cmp	r1, r7
 6544 01ea AED1     		bne	.L835
 6545 01ec 0021     		movs	r1, #0
 6546 01ee 8E46     		mov	lr, r1
 6547 01f0 0F46     		mov	r7, r1
 6548              	.LVL887:
 6549 01f2 8C46     		mov	ip, r1
 6550 01f4 B1E7     		b	.L807
 6551              	.LVL888:
 6552              	.L839:
 6553              	.LBB433:
 6554              	.LBB396:
 6555 01f6 3046     		mov	r0, r6
 6556              	.LVL889:
 6557 01f8 FFF7FEFF 		bl	sync_window.part.3
 6558              	.LVL890:
 6559              	.LBE396:
 6560              	.LBE433:
 6561              		.loc 1 3537 0
 6562 01fc 0246     		mov	r2, r0
 6563 01fe 0028     		cmp	r0, #0
 6564 0200 7FF422AF 		bne	.L809
 6565 0204 0D9E     		ldr	r6, [sp, #52]
 6566              	.LVL891:
 6567 0206 3DE7     		b	.L817
 6568              		.cfi_endproc
 6569              	.LFE283:
 6570              		.size	f_mkdir, .-f_mkdir
 6571 0208 AFF30080 		.section	.text.f_chmod,"ax",%progbits
 6571      AFF30080 
ARM GAS  /tmp/ccZHgRNF.s 			page 117


 6572              		.align	2
 6573              		.p2align 4,,15
 6574              		.global	f_chmod
 6575              		.thumb
 6576              		.thumb_func
 6577              		.type	f_chmod, %function
 6578              	f_chmod:
 6579              	.LFB284:
 6580              		.loc 1 3589 0
 6581              		.cfi_startproc
 6582              		@ args = 0, pretend = 0, frame = 48
 6583              		@ frame_needed = 0, uses_anonymous_args = 0
 6584              	.LVL892:
 6585 0000 30B5     		push	{r4, r5, lr}
 6586              		.cfi_def_cfa_offset 12
 6587              		.cfi_offset 4, -12
 6588              		.cfi_offset 5, -8
 6589              		.cfi_offset 14, -4
 6590 0002 8DB0     		sub	sp, sp, #52
 6591              		.cfi_def_cfa_offset 64
 6592              		.loc 1 3589 0
 6593 0004 0C46     		mov	r4, r1
 6594 0006 0190     		str	r0, [sp, #4]
 6595 0008 1546     		mov	r5, r2
 6596              		.loc 1 3597 0
 6597 000a 05A8     		add	r0, sp, #20
 6598              	.LVL893:
 6599 000c 01A9     		add	r1, sp, #4
 6600              	.LVL894:
 6601 000e 0122     		movs	r2, #1
 6602              	.LVL895:
 6603 0010 FFF7FEFF 		bl	find_volume
 6604              	.LVL896:
 6605              		.loc 1 3598 0
 6606 0014 08B1     		cbz	r0, .L844
 6607              	.L842:
 6608              		.loc 1 3618 0
 6609 0016 0DB0     		add	sp, sp, #52
 6610              		@ sp needed
 6611 0018 30BD     		pop	{r4, r5, pc}
 6612              	.LVL897:
 6613              	.L844:
 6614              		.loc 1 3599 0
 6615 001a 02AB     		add	r3, sp, #8
 6616              		.loc 1 3600 0
 6617 001c 05A8     		add	r0, sp, #20
 6618              	.LVL898:
 6619 001e 0199     		ldr	r1, [sp, #4]
 6620              		.loc 1 3599 0
 6621 0020 0B93     		str	r3, [sp, #44]
 6622              		.loc 1 3600 0
 6623 0022 FFF7FEFF 		bl	follow_path
 6624              	.LVL899:
 6625              		.loc 1 3604 0
 6626 0026 0028     		cmp	r0, #0
 6627 0028 F5D1     		bne	.L842
 6628              		.loc 1 3605 0
ARM GAS  /tmp/ccZHgRNF.s 			page 118


 6629 002a 0A9B     		ldr	r3, [sp, #40]
 6630              	.LVL900:
 6631              		.loc 1 3606 0
 6632 002c 7BB1     		cbz	r3, .L843
 6633              		.loc 1 3610 0
 6634 002e D97A     		ldrb	r1, [r3, #11]	@ zero_extendqisi2
 6635              		.loc 1 3611 0
 6636 0030 059A     		ldr	r2, [sp, #20]
 6637              		.loc 1 3609 0
 6638 0032 05F02705 		and	r5, r5, #39
 6639              	.LVL901:
 6640              		.loc 1 3610 0
 6641 0036 2C40     		ands	r4, r4, r5
 6642 0038 21EA0505 		bic	r5, r1, r5
 6643              	.LVL902:
 6644 003c 2543     		orrs	r5, r5, r4
 6645              		.loc 1 3611 0
 6646 003e 0121     		movs	r1, #1
 6647              		.loc 1 3610 0
 6648 0040 DD72     		strb	r5, [r3, #11]
 6649              		.loc 1 3612 0
 6650 0042 1046     		mov	r0, r2
 6651              	.LVL903:
 6652              		.loc 1 3611 0
 6653 0044 1171     		strb	r1, [r2, #4]
 6654              		.loc 1 3612 0
 6655 0046 FFF7FEFF 		bl	sync_fs
 6656              	.LVL904:
 6657              		.loc 1 3618 0
 6658 004a 0DB0     		add	sp, sp, #52
 6659              		@ sp needed
 6660 004c 30BD     		pop	{r4, r5, pc}
 6661              	.LVL905:
 6662              	.L843:
 6663              		.loc 1 3607 0
 6664 004e 0620     		movs	r0, #6
 6665              	.LVL906:
 6666              		.loc 1 3618 0
 6667 0050 0DB0     		add	sp, sp, #52
 6668              		@ sp needed
 6669 0052 30BD     		pop	{r4, r5, pc}
 6670              		.cfi_endproc
 6671              	.LFE284:
 6672              		.size	f_chmod, .-f_chmod
 6673 0054 AFF30080 		.section	.text.f_utime,"ax",%progbits
 6673      AFF30080 
 6673      AFF30080 
 6674              		.align	2
 6675              		.p2align 4,,15
 6676              		.global	f_utime
 6677              		.thumb
 6678              		.thumb_func
 6679              		.type	f_utime, %function
 6680              	f_utime:
 6681              	.LFB285:
 6682              		.loc 1 3631 0
 6683              		.cfi_startproc
ARM GAS  /tmp/ccZHgRNF.s 			page 119


 6684              		@ args = 0, pretend = 0, frame = 48
 6685              		@ frame_needed = 0, uses_anonymous_args = 0
 6686              	.LVL907:
 6687 0000 10B5     		push	{r4, lr}
 6688              		.cfi_def_cfa_offset 8
 6689              		.cfi_offset 4, -8
 6690              		.cfi_offset 14, -4
 6691 0002 8CB0     		sub	sp, sp, #48
 6692              		.cfi_def_cfa_offset 56
 6693              		.loc 1 3631 0
 6694 0004 0C46     		mov	r4, r1
 6695 0006 0190     		str	r0, [sp, #4]
 6696              		.loc 1 3639 0
 6697 0008 01A9     		add	r1, sp, #4
 6698              	.LVL908:
 6699 000a 05A8     		add	r0, sp, #20
 6700              	.LVL909:
 6701 000c 0122     		movs	r2, #1
 6702 000e FFF7FEFF 		bl	find_volume
 6703              	.LVL910:
 6704              		.loc 1 3640 0
 6705 0012 08B1     		cbz	r0, .L848
 6706              	.L846:
 6707              		.loc 1 3660 0
 6708 0014 0CB0     		add	sp, sp, #48
 6709              		@ sp needed
 6710 0016 10BD     		pop	{r4, pc}
 6711              	.LVL911:
 6712              	.L848:
 6713              		.loc 1 3641 0
 6714 0018 02AB     		add	r3, sp, #8
 6715              		.loc 1 3642 0
 6716 001a 05A8     		add	r0, sp, #20
 6717              	.LVL912:
 6718 001c 0199     		ldr	r1, [sp, #4]
 6719              		.loc 1 3641 0
 6720 001e 0B93     		str	r3, [sp, #44]
 6721              		.loc 1 3642 0
 6722 0020 FFF7FEFF 		bl	follow_path
 6723              	.LVL913:
 6724              		.loc 1 3646 0
 6725 0024 0028     		cmp	r0, #0
 6726 0026 F5D1     		bne	.L846
 6727              		.loc 1 3647 0
 6728 0028 0A9B     		ldr	r3, [sp, #40]
 6729              	.LVL914:
 6730              		.loc 1 3648 0
 6731 002a 8BB1     		cbz	r3, .L847
 6732              		.loc 1 3651 0
 6733 002c E288     		ldrh	r2, [r4, #6]
 6734 002e 9A75     		strb	r2, [r3, #22]
 6735 0030 E188     		ldrh	r1, [r4, #6]
 6736              		.loc 1 3653 0
 6737 0032 059A     		ldr	r2, [sp, #20]
 6738              		.loc 1 3651 0
 6739 0034 090A     		lsrs	r1, r1, #8
 6740 0036 D975     		strb	r1, [r3, #23]
ARM GAS  /tmp/ccZHgRNF.s 			page 120


 6741              		.loc 1 3652 0
 6742 0038 A188     		ldrh	r1, [r4, #4]
 6743 003a 1976     		strb	r1, [r3, #24]
 6744 003c A088     		ldrh	r0, [r4, #4]
 6745              	.LVL915:
 6746              		.loc 1 3653 0
 6747 003e 0121     		movs	r1, #1
 6748              		.loc 1 3652 0
 6749 0040 000A     		lsrs	r0, r0, #8
 6750 0042 5876     		strb	r0, [r3, #25]
 6751              		.loc 1 3654 0
 6752 0044 1046     		mov	r0, r2
 6753              		.loc 1 3653 0
 6754 0046 1171     		strb	r1, [r2, #4]
 6755              		.loc 1 3654 0
 6756 0048 FFF7FEFF 		bl	sync_fs
 6757              	.LVL916:
 6758              		.loc 1 3660 0
 6759 004c 0CB0     		add	sp, sp, #48
 6760              		@ sp needed
 6761 004e 10BD     		pop	{r4, pc}
 6762              	.LVL917:
 6763              	.L847:
 6764              		.loc 1 3649 0
 6765 0050 0620     		movs	r0, #6
 6766              	.LVL918:
 6767              		.loc 1 3660 0
 6768 0052 0CB0     		add	sp, sp, #48
 6769              		@ sp needed
 6770 0054 10BD     		pop	{r4, pc}
 6771              		.cfi_endproc
 6772              	.LFE285:
 6773              		.size	f_utime, .-f_utime
 6774 0056 00BFAFF3 		.section	.text.f_rename,"ax",%progbits
 6774      0080AFF3 
 6774      0080
 6775              		.align	2
 6776              		.p2align 4,,15
 6777              		.global	f_rename
 6778              		.thumb
 6779              		.thumb_func
 6780              		.type	f_rename, %function
 6781              	f_rename:
 6782              	.LFB286:
 6783              		.loc 1 3673 0
 6784              		.cfi_startproc
 6785              		@ args = 0, pretend = 0, frame = 104
 6786              		@ frame_needed = 0, uses_anonymous_args = 0
 6787              	.LVL919:
 6788 0000 30B5     		push	{r4, r5, lr}
 6789              		.cfi_def_cfa_offset 12
 6790              		.cfi_offset 4, -12
 6791              		.cfi_offset 5, -8
 6792              		.cfi_offset 14, -4
 6793 0002 9BB0     		sub	sp, sp, #108
 6794              		.cfi_def_cfa_offset 120
 6795              		.loc 1 3682 0
ARM GAS  /tmp/ccZHgRNF.s 			page 121


 6796 0004 0122     		movs	r2, #1
 6797              		.loc 1 3673 0
 6798 0006 0190     		str	r0, [sp, #4]
 6799 0008 0091     		str	r1, [sp]
 6800              		.loc 1 3682 0
 6801 000a 0CA8     		add	r0, sp, #48
 6802              	.LVL920:
 6803 000c 01A9     		add	r1, sp, #4
 6804              	.LVL921:
 6805 000e FFF7FEFF 		bl	find_volume
 6806              	.LVL922:
 6807              		.loc 1 3683 0
 6808 0012 08B1     		cbz	r0, .L879
 6809              	.LVL923:
 6810              	.L871:
 6811              		.loc 1 3739 0
 6812 0014 1BB0     		add	sp, sp, #108
 6813              	.LVL924:
 6814              		@ sp needed
 6815 0016 30BD     		pop	{r4, r5, pc}
 6816              	.LVL925:
 6817              	.L879:
 6818              		.loc 1 3684 0
 6819 0018 0C9B     		ldr	r3, [sp, #48]
 6820 001a 1393     		str	r3, [sp, #76]
 6821              		.loc 1 3686 0
 6822 001c 0199     		ldr	r1, [sp, #4]
 6823              		.loc 1 3685 0
 6824 001e 03AB     		add	r3, sp, #12
 6825              		.loc 1 3686 0
 6826 0020 0CA8     		add	r0, sp, #48
 6827              	.LVL926:
 6828              		.loc 1 3685 0
 6829 0022 1293     		str	r3, [sp, #72]
 6830              		.loc 1 3686 0
 6831 0024 FFF7FEFF 		bl	follow_path
 6832              	.LVL927:
 6833              		.loc 1 3692 0
 6834 0028 0028     		cmp	r0, #0
 6835 002a F3D1     		bne	.L871
 6836              		.loc 1 3693 0
 6837 002c 119A     		ldr	r2, [sp, #68]
 6838 002e F2B1     		cbz	r2, .L864
 6839              		.loc 1 3696 0
 6840 0030 0B32     		adds	r2, r2, #11
 6841              	.LVL928:
 6842              	.LBB434:
 6843              	.LBB435:
 6844              		.loc 1 563 0
 6845 0032 06AB     		add	r3, sp, #24
 6846              	.LVL929:
 6847 0034 0DF12D00 		add	r0, sp, #45
 6848              	.LVL930:
 6849              	.L852:
 6850              		.loc 1 574 0
 6851 0038 12F8011B 		ldrb	r1, [r2], #1	@ zero_extendqisi2
 6852              	.LVL931:
ARM GAS  /tmp/ccZHgRNF.s 			page 122


 6853 003c 03F8011B 		strb	r1, [r3], #1
 6854              	.LVL932:
 6855              		.loc 1 573 0
 6856 0040 8342     		cmp	r3, r0
 6857 0042 F9D1     		bne	.L852
 6858 0044 13AB     		add	r3, sp, #76
 6859              	.LVL933:
 6860 0046 0CAA     		add	r2, sp, #48
 6861              	.LVL934:
 6862              	.L854:
 6863              	.LBE435:
 6864              	.LBE434:
 6865              	.LBB436:
 6866              	.LBB437:
 6867              		.loc 1 574 0
 6868 0048 12F8011B 		ldrb	r1, [r2], #1	@ zero_extendqisi2
 6869              	.LVL935:
 6870 004c 03F8011B 		strb	r1, [r3], #1
 6871              	.LVL936:
 6872              		.loc 1 573 0
 6873 0050 1AA9     		add	r1, sp, #104
 6874 0052 8B42     		cmp	r3, r1
 6875 0054 F8D1     		bne	.L854
 6876              	.LBE437:
 6877              	.LBE436:
 6878              		.loc 1 3698 0
 6879 0056 6846     		mov	r0, sp
 6880 0058 FFF7FEFF 		bl	get_ldnumber
 6881              	.LVL937:
 6882 005c 0028     		cmp	r0, #0
 6883 005e 08DB     		blt	.L865
 6884              		.loc 1 3699 0
 6885 0060 13A8     		add	r0, sp, #76
 6886 0062 0099     		ldr	r1, [sp]
 6887 0064 FFF7FEFF 		bl	follow_path
 6888              	.LVL938:
 6889              		.loc 1 3702 0
 6890 0068 28B9     		cbnz	r0, .L880
 6891 006a 0820     		movs	r0, #8
 6892              	.LVL939:
 6893 006c D2E7     		b	.L871
 6894              	.LVL940:
 6895              	.L864:
 6896              		.loc 1 3694 0
 6897 006e 0420     		movs	r0, #4
 6898              	.LVL941:
 6899 0070 D0E7     		b	.L871
 6900              	.LVL942:
 6901              	.L865:
 6902              		.loc 1 3701 0
 6903 0072 0B20     		movs	r0, #11
 6904 0074 CEE7     		b	.L871
 6905              	.LVL943:
 6906              	.L880:
 6907              		.loc 1 3703 0
 6908 0076 0428     		cmp	r0, #4
 6909 0078 CCD1     		bne	.L871
ARM GAS  /tmp/ccZHgRNF.s 			page 123


 6910              		.loc 1 3705 0
 6911 007a 13A8     		add	r0, sp, #76
 6912              	.LVL944:
 6913 007c FFF7FEFF 		bl	dir_register
 6914              	.LVL945:
 6915              		.loc 1 3706 0
 6916 0080 0028     		cmp	r0, #0
 6917 0082 C7D1     		bne	.L871
 6918              		.loc 1 3707 0
 6919 0084 189C     		ldr	r4, [sp, #96]
 6920              	.LVL946:
 6921              	.LBB438:
 6922              	.LBB439:
 6923              		.loc 1 564 0
 6924 0086 0DF11A02 		add	r2, sp, #26
 6925              	.LBE439:
 6926              	.LBE438:
 6927              		.loc 1 3708 0
 6928 008a 04F10D03 		add	r3, r4, #13
 6929              	.LVL947:
 6930 008e 04F12000 		add	r0, r4, #32
 6931              	.LVL948:
 6932              	.L856:
 6933              	.LBB441:
 6934              	.LBB440:
 6935              		.loc 1 574 0
 6936 0092 12F8011B 		ldrb	r1, [r2], #1	@ zero_extendqisi2
 6937              	.LVL949:
 6938 0096 03F8011B 		strb	r1, [r3], #1
 6939              	.LVL950:
 6940              		.loc 1 573 0
 6941 009a 8342     		cmp	r3, r0
 6942 009c F9D1     		bne	.L856
 6943              	.LBE440:
 6944              	.LBE441:
 6945              		.loc 1 3709 0
 6946 009e 9DF81820 		ldrb	r2, [sp, #24]	@ zero_extendqisi2
 6947              	.LVL951:
 6948              		.loc 1 3710 0
 6949 00a2 0C98     		ldr	r0, [sp, #48]
 6950              		.loc 1 3709 0
 6951 00a4 42F02002 		orr	r2, r2, #32
 6952              		.loc 1 3710 0
 6953 00a8 0123     		movs	r3, #1
 6954              	.LVL952:
 6955              		.loc 1 3709 0
 6956 00aa E272     		strb	r2, [r4, #11]
 6957              		.loc 1 3710 0
 6958 00ac 0371     		strb	r3, [r0, #4]
 6959              		.loc 1 3711 0
 6960 00ae 0E9A     		ldr	r2, [sp, #56]
 6961 00b0 159B     		ldr	r3, [sp, #84]
 6962 00b2 9A42     		cmp	r2, r3
 6963 00b4 1CD0     		beq	.L862
 6964              		.loc 1 3711 0 is_stmt 0 discriminator 1
 6965 00b6 E37A     		ldrb	r3, [r4, #11]	@ zero_extendqisi2
 6966 00b8 DB06     		lsls	r3, r3, #27
ARM GAS  /tmp/ccZHgRNF.s 			page 124


 6967 00ba 19D5     		bpl	.L862
 6968              	.LVL953:
 6969              	.LBB442:
 6970              	.LBB443:
 6971              		.loc 1 1278 0 is_stmt 1
 6972 00bc 0278     		ldrb	r2, [r0]	@ zero_extendqisi2
 6973              		.loc 1 1277 0
 6974 00be E17E     		ldrb	r1, [r4, #27]	@ zero_extendqisi2
 6975 00c0 A37E     		ldrb	r3, [r4, #26]	@ zero_extendqisi2
 6976              		.loc 1 1278 0
 6977 00c2 032A     		cmp	r2, #3
 6978              		.loc 1 1277 0
 6979 00c4 43EA0123 		orr	r3, r3, r1, lsl #8
 6980              	.LVL954:
 6981              		.loc 1 1278 0
 6982 00c8 1DD0     		beq	.L881
 6983              	.L858:
 6984              	.LVL955:
 6985              	.LBE443:
 6986              	.LBE442:
 6987              	.LBB445:
 6988              	.LBB446:
 6989              		.loc 1 853 0
 6990 00ca 4269     		ldr	r2, [r0, #20]
 6991              		.loc 1 852 0
 6992 00cc 023B     		subs	r3, r3, #2
 6993              	.LVL956:
 6994              		.loc 1 853 0
 6995 00ce 023A     		subs	r2, r2, #2
 6996 00d0 9342     		cmp	r3, r2
 6997 00d2 16D2     		bcs	.L868
 6998              		.loc 1 854 0
 6999 00d4 8178     		ldrb	r1, [r0, #2]	@ zero_extendqisi2
 7000 00d6 826A     		ldr	r2, [r0, #40]
 7001 00d8 01FB0321 		mla	r1, r1, r3, r2
 7002              	.LBE446:
 7003              	.LBE445:
 7004              		.loc 1 3713 0
 7005 00dc 89B1     		cbz	r1, .L868
 7006              		.loc 1 3716 0
 7007 00de FFF7FEFF 		bl	move_window
 7008              	.LVL957:
 7009              		.loc 1 3717 0
 7010 00e2 0C9B     		ldr	r3, [sp, #48]
 7011              	.LVL958:
 7012              		.loc 1 3718 0
 7013 00e4 0028     		cmp	r0, #0
 7014 00e6 95D1     		bne	.L871
 7015              		.loc 1 3718 0 is_stmt 0 discriminator 1
 7016 00e8 93F85120 		ldrb	r2, [r3, #81]	@ zero_extendqisi2
 7017 00ec 2E2A     		cmp	r2, #46
 7018 00ee 11D0     		beq	.L882
 7019              	.LVL959:
 7020              	.L862:
 7021              		.loc 1 3726 0 is_stmt 1
 7022 00f0 0CA8     		add	r0, sp, #48
 7023 00f2 FFF7FEFF 		bl	dir_remove
ARM GAS  /tmp/ccZHgRNF.s 			page 125


 7024              	.LVL960:
 7025              		.loc 1 3727 0
 7026 00f6 0028     		cmp	r0, #0
 7027 00f8 8CD1     		bne	.L871
 7028              		.loc 1 3728 0
 7029 00fa 0C98     		ldr	r0, [sp, #48]
 7030              	.LVL961:
 7031 00fc FFF7FEFF 		bl	sync_fs
 7032              	.LVL962:
 7033 0100 88E7     		b	.L871
 7034              	.LVL963:
 7035              	.L868:
 7036              		.loc 1 3714 0
 7037 0102 0220     		movs	r0, #2
 7038              	.LVL964:
 7039 0104 86E7     		b	.L871
 7040              	.LVL965:
 7041              	.L881:
 7042              	.LBB447:
 7043              	.LBB444:
 7044              		.loc 1 1279 0
 7045 0106 617D     		ldrb	r1, [r4, #21]	@ zero_extendqisi2
 7046 0108 227D     		ldrb	r2, [r4, #20]	@ zero_extendqisi2
 7047 010a 42EA0122 		orr	r2, r2, r1, lsl #8
 7048 010e 43EA0243 		orr	r3, r3, r2, lsl #16
 7049              	.LVL966:
 7050 0112 DAE7     		b	.L858
 7051              	.LVL967:
 7052              	.L882:
 7053              	.LBE444:
 7054              	.LBE447:
 7055              		.loc 1 3719 0
 7056 0114 1A78     		ldrb	r2, [r3]	@ zero_extendqisi2
 7057 0116 032A     		cmp	r2, #3
 7058 0118 159A     		ldr	r2, [sp, #84]
 7059 011a 0FD0     		beq	.L878
 7060              	.L860:
 7061              		.loc 1 3719 0 is_stmt 0 discriminator 1
 7062 011c 1046     		mov	r0, r2
 7063              	.LVL968:
 7064              	.L861:
 7065              	.LBB448:
 7066              	.LBB449:
 7067              		.loc 1 1293 0 is_stmt 1 discriminator 3
 7068 011e 020C     		lsrs	r2, r0, #16
 7069 0120 150A     		lsrs	r5, r2, #8
 7070              		.loc 1 1292 0 discriminator 3
 7071 0122 C0F30724 		ubfx	r4, r0, #8, #8
 7072              	.LVL969:
 7073              	.LBE449:
 7074              	.LBE448:
 7075              		.loc 1 3721 0 discriminator 3
 7076 0126 0121     		movs	r1, #1
 7077              	.LBB451:
 7078              	.LBB450:
 7079              		.loc 1 1292 0 discriminator 3
 7080 0128 83F86A00 		strb	r0, [r3, #106]
ARM GAS  /tmp/ccZHgRNF.s 			page 126


 7081              		.loc 1 1293 0 discriminator 3
 7082 012c 83F86420 		strb	r2, [r3, #100]
 7083 0130 83F86550 		strb	r5, [r3, #101]
 7084              		.loc 1 1292 0 discriminator 3
 7085 0134 83F86B40 		strb	r4, [r3, #107]
 7086              	.LBE450:
 7087              	.LBE451:
 7088              		.loc 1 3721 0 discriminator 3
 7089 0138 1971     		strb	r1, [r3, #4]
 7090 013a D9E7     		b	.L862
 7091              	.LVL970:
 7092              	.L878:
 7093              		.loc 1 3719 0 discriminator 2
 7094 013c 596A     		ldr	r1, [r3, #36]
 7095 013e 8A42     		cmp	r2, r1
 7096 0140 ECD1     		bne	.L860
 7097 0142 ECE7     		b	.L861
 7098              		.cfi_endproc
 7099              	.LFE286:
 7100              		.size	f_rename, .-f_rename
 7101 0144 AFF30080 		.section	.bss.Fsid,"aw",%nobits
 7101      AFF30080 
 7101      AFF30080 
 7102              		.align	1
 7103              		.set	.LANCHOR1,. + 0
 7104              		.type	Fsid, %object
 7105              		.size	Fsid, 2
 7106              	Fsid:
 7107 0000 0000     		.space	2
 7108              		.section	.rodata.str1.4,"aMS",%progbits,1
 7109              		.align	2
 7110              	.LC0:
 7111 0000 222A2B2C 		.ascii	"\"*+,:;<=>?[]|\177\000"
 7111      3A3B3C3D 
 7111      3E3F5B5D 
 7111      7C7F00
 7112 000f 00       		.section	.rodata.ExCvt,"a",%progbits
 7113              		.align	2
 7114              		.set	.LANCHOR2,. + 0
 7115              		.type	ExCvt, %object
 7116              		.size	ExCvt, 128
 7117              	ExCvt:
 7118 0000 80       		.byte	-128
 7119 0001 81       		.byte	-127
 7120 0002 82       		.byte	-126
 7121 0003 83       		.byte	-125
 7122 0004 84       		.byte	-124
 7123 0005 85       		.byte	-123
 7124 0006 86       		.byte	-122
 7125 0007 87       		.byte	-121
 7126 0008 88       		.byte	-120
 7127 0009 89       		.byte	-119
 7128 000a 8A       		.byte	-118
 7129 000b 8B       		.byte	-117
 7130 000c 8C       		.byte	-116
 7131 000d 8D       		.byte	-115
 7132 000e 8E       		.byte	-114
ARM GAS  /tmp/ccZHgRNF.s 			page 127


 7133 000f 8F       		.byte	-113
 7134 0010 90       		.byte	-112
 7135 0011 91       		.byte	-111
 7136 0012 92       		.byte	-110
 7137 0013 93       		.byte	-109
 7138 0014 94       		.byte	-108
 7139 0015 95       		.byte	-107
 7140 0016 96       		.byte	-106
 7141 0017 97       		.byte	-105
 7142 0018 98       		.byte	-104
 7143 0019 99       		.byte	-103
 7144 001a AD       		.byte	-83
 7145 001b 9B       		.byte	-101
 7146 001c 8C       		.byte	-116
 7147 001d 9D       		.byte	-99
 7148 001e AE       		.byte	-82
 7149 001f 9F       		.byte	-97
 7150 0020 A0       		.byte	-96
 7151 0021 21       		.byte	33
 7152 0022 A2       		.byte	-94
 7153 0023 A3       		.byte	-93
 7154 0024 A4       		.byte	-92
 7155 0025 A5       		.byte	-91
 7156 0026 A6       		.byte	-90
 7157 0027 A7       		.byte	-89
 7158 0028 A8       		.byte	-88
 7159 0029 A9       		.byte	-87
 7160 002a AA       		.byte	-86
 7161 002b AB       		.byte	-85
 7162 002c AC       		.byte	-84
 7163 002d AD       		.byte	-83
 7164 002e AE       		.byte	-82
 7165 002f AF       		.byte	-81
 7166 0030 B0       		.byte	-80
 7167 0031 B1       		.byte	-79
 7168 0032 B2       		.byte	-78
 7169 0033 B3       		.byte	-77
 7170 0034 B4       		.byte	-76
 7171 0035 B5       		.byte	-75
 7172 0036 B6       		.byte	-74
 7173 0037 B7       		.byte	-73
 7174 0038 B8       		.byte	-72
 7175 0039 B9       		.byte	-71
 7176 003a BA       		.byte	-70
 7177 003b BB       		.byte	-69
 7178 003c BC       		.byte	-68
 7179 003d BD       		.byte	-67
 7180 003e BE       		.byte	-66
 7181 003f BF       		.byte	-65
 7182 0040 C0       		.byte	-64
 7183 0041 C1       		.byte	-63
 7184 0042 C2       		.byte	-62
 7185 0043 C3       		.byte	-61
 7186 0044 C4       		.byte	-60
 7187 0045 C5       		.byte	-59
 7188 0046 C6       		.byte	-58
 7189 0047 C7       		.byte	-57
ARM GAS  /tmp/ccZHgRNF.s 			page 128


 7190 0048 C8       		.byte	-56
 7191 0049 C9       		.byte	-55
 7192 004a CA       		.byte	-54
 7193 004b CB       		.byte	-53
 7194 004c CC       		.byte	-52
 7195 004d CD       		.byte	-51
 7196 004e CE       		.byte	-50
 7197 004f CF       		.byte	-49
 7198 0050 D0       		.byte	-48
 7199 0051 D1       		.byte	-47
 7200 0052 D2       		.byte	-46
 7201 0053 D3       		.byte	-45
 7202 0054 D4       		.byte	-44
 7203 0055 D5       		.byte	-43
 7204 0056 D6       		.byte	-42
 7205 0057 D7       		.byte	-41
 7206 0058 D8       		.byte	-40
 7207 0059 D9       		.byte	-39
 7208 005a DA       		.byte	-38
 7209 005b DB       		.byte	-37
 7210 005c DC       		.byte	-36
 7211 005d DD       		.byte	-35
 7212 005e DE       		.byte	-34
 7213 005f DF       		.byte	-33
 7214 0060 C0       		.byte	-64
 7215 0061 C1       		.byte	-63
 7216 0062 C2       		.byte	-62
 7217 0063 C3       		.byte	-61
 7218 0064 C4       		.byte	-60
 7219 0065 C5       		.byte	-59
 7220 0066 C6       		.byte	-58
 7221 0067 C7       		.byte	-57
 7222 0068 C8       		.byte	-56
 7223 0069 C9       		.byte	-55
 7224 006a CA       		.byte	-54
 7225 006b CB       		.byte	-53
 7226 006c CC       		.byte	-52
 7227 006d CD       		.byte	-51
 7228 006e CE       		.byte	-50
 7229 006f CF       		.byte	-49
 7230 0070 D0       		.byte	-48
 7231 0071 D1       		.byte	-47
 7232 0072 D2       		.byte	-46
 7233 0073 D3       		.byte	-45
 7234 0074 D4       		.byte	-44
 7235 0075 D5       		.byte	-43
 7236 0076 D6       		.byte	-42
 7237 0077 F7       		.byte	-9
 7238 0078 D8       		.byte	-40
 7239 0079 D9       		.byte	-39
 7240 007a DA       		.byte	-38
 7241 007b DB       		.byte	-37
 7242 007c DC       		.byte	-36
 7243 007d DD       		.byte	-35
 7244 007e DE       		.byte	-34
 7245 007f 9F       		.byte	-97
 7246              		.section	.bss.FatFs,"aw",%nobits
ARM GAS  /tmp/ccZHgRNF.s 			page 129


 7247              		.align	2
 7248              		.set	.LANCHOR0,. + 0
 7249              		.type	FatFs, %object
 7250              		.size	FatFs, 4
 7251              	FatFs:
 7252 0000 00000000 		.space	4
 7253              		.text
 7254              	.Letext0:
 7255              		.file 2 "../ChibiOS/ext/fatfs/src/integer.h"
 7256              		.file 3 "/nfs/nfs5/home/research/hardware/arm2/gcc-arm-embedded/gcc-arm-none-eabi-4_8-2014q2/lib/g
 7257              		.file 4 "/nfs/nfs5/home/research/hardware/arm2/gcc-arm-embedded/gcc-arm-none-eabi-4_8-2014q2/arm-n
 7258              		.file 5 "/nfs/nfs5/home/research/hardware/arm2/gcc-arm-embedded/gcc-arm-none-eabi-4_8-2014q2/arm-n
 7259              		.file 6 "../ChibiOS/os/rt/ports/ARMCMx/compilers/GCC/chtypes.h"
 7260              		.file 7 "../ChibiOS/os/rt/include/chsystypes.h"
 7261              		.file 8 "../ChibiOS/os/rt/include/chschd.h"
 7262              		.file 9 "../ChibiOS/os/rt/ports/ARMCMx/chcore.h"
 7263              		.file 10 "../ChibiOS/os/rt/ports/ARMCMx/chcore_v7m.h"
 7264              		.file 11 "../ChibiOS/os/rt/include/chtm.h"
 7265              		.file 12 "../ChibiOS/os/rt/include/chsem.h"
 7266              		.file 13 "../ChibiOS/os/rt/include/chmtx.h"
 7267              		.file 14 "../ChibiOS/ext/fatfs/src/ff.h"
 7268              		.file 15 "../ChibiOS/ext/fatfs/src/diskio.h"
 7269              		.file 16 "../ChibiOS/os/ext/CMSIS/include/core_cm4.h"
 7270              		.section	.debug_info,"",%progbits
 7271              	.Ldebug_info0:
 7272 0000 40390000 		.4byte	0x3940
 7273 0004 0400     		.2byte	0x4
 7274 0006 00000000 		.4byte	.Ldebug_abbrev0
 7275 000a 04       		.byte	0x4
 7276 000b 01       		.uleb128 0x1
 7277 000c 55050000 		.4byte	.LASF251
 7278 0010 01       		.byte	0x1
 7279 0011 92080000 		.4byte	.LASF252
 7280 0015 FE030000 		.4byte	.LASF253
 7281 0019 18040000 		.4byte	.Ldebug_ranges0+0x418
 7282 001d 00000000 		.4byte	0
 7283 0021 00000000 		.4byte	.Ldebug_line0
 7284 0025 02       		.uleb128 0x2
 7285 0026 24010000 		.4byte	.LASF2
 7286 002a 02       		.byte	0x2
 7287 002b 10       		.byte	0x10
 7288 002c 30000000 		.4byte	0x30
 7289 0030 03       		.uleb128 0x3
 7290 0031 01       		.byte	0x1
 7291 0032 08       		.byte	0x8
 7292 0033 81020000 		.4byte	.LASF0
 7293 0037 03       		.uleb128 0x3
 7294 0038 02       		.byte	0x2
 7295 0039 05       		.byte	0x5
 7296 003a F3080000 		.4byte	.LASF1
 7297 003e 02       		.uleb128 0x2
 7298 003f 58070000 		.4byte	.LASF3
 7299 0043 02       		.byte	0x2
 7300 0044 14       		.byte	0x14
 7301 0045 49000000 		.4byte	0x49
 7302 0049 03       		.uleb128 0x3
 7303 004a 02       		.byte	0x2
ARM GAS  /tmp/ccZHgRNF.s 			page 130


 7304 004b 07       		.byte	0x7
 7305 004c E7090000 		.4byte	.LASF4
 7306 0050 04       		.uleb128 0x4
 7307 0051 04       		.byte	0x4
 7308 0052 05       		.byte	0x5
 7309 0053 696E7400 		.ascii	"int\000"
 7310 0057 02       		.uleb128 0x2
 7311 0058 53030000 		.4byte	.LASF5
 7312 005c 02       		.byte	0x2
 7313 005d 19       		.byte	0x19
 7314 005e 62000000 		.4byte	0x62
 7315 0062 03       		.uleb128 0x3
 7316 0063 04       		.byte	0x4
 7317 0064 07       		.byte	0x7
 7318 0065 75060000 		.4byte	.LASF6
 7319 0069 03       		.uleb128 0x3
 7320 006a 04       		.byte	0x4
 7321 006b 05       		.byte	0x5
 7322 006c 7F010000 		.4byte	.LASF7
 7323 0070 02       		.uleb128 0x2
 7324 0071 F0060000 		.4byte	.LASF8
 7325 0075 02       		.byte	0x2
 7326 0076 1D       		.byte	0x1d
 7327 0077 7B000000 		.4byte	0x7b
 7328 007b 03       		.uleb128 0x3
 7329 007c 04       		.byte	0x4
 7330 007d 07       		.byte	0x7
 7331 007e 4D040000 		.4byte	.LASF9
 7332 0082 02       		.uleb128 0x2
 7333 0083 08000000 		.4byte	.LASF10
 7334 0087 03       		.byte	0x3
 7335 0088 D4       		.byte	0xd4
 7336 0089 62000000 		.4byte	0x62
 7337 008d 03       		.uleb128 0x3
 7338 008e 01       		.byte	0x1
 7339 008f 06       		.byte	0x6
 7340 0090 1B020000 		.4byte	.LASF11
 7341 0094 02       		.uleb128 0x2
 7342 0095 1A010000 		.4byte	.LASF12
 7343 0099 04       		.byte	0x4
 7344 009a 1C       		.byte	0x1c
 7345 009b 30000000 		.4byte	0x30
 7346 009f 02       		.uleb128 0x2
 7347 00a0 260A0000 		.4byte	.LASF13
 7348 00a4 04       		.byte	0x4
 7349 00a5 37       		.byte	0x37
 7350 00a6 69000000 		.4byte	0x69
 7351 00aa 02       		.uleb128 0x2
 7352 00ab 17050000 		.4byte	.LASF14
 7353 00af 04       		.byte	0x4
 7354 00b0 38       		.byte	0x38
 7355 00b1 7B000000 		.4byte	0x7b
 7356 00b5 03       		.uleb128 0x3
 7357 00b6 08       		.byte	0x8
 7358 00b7 05       		.byte	0x5
 7359 00b8 22050000 		.4byte	.LASF15
 7360 00bc 02       		.uleb128 0x2
ARM GAS  /tmp/ccZHgRNF.s 			page 131


 7361 00bd 42040000 		.4byte	.LASF16
 7362 00c1 04       		.byte	0x4
 7363 00c2 4E       		.byte	0x4e
 7364 00c3 C7000000 		.4byte	0xc7
 7365 00c7 03       		.uleb128 0x3
 7366 00c8 08       		.byte	0x8
 7367 00c9 07       		.byte	0x7
 7368 00ca D5070000 		.4byte	.LASF17
 7369 00ce 02       		.uleb128 0x2
 7370 00cf 2E020000 		.4byte	.LASF18
 7371 00d3 05       		.byte	0x5
 7372 00d4 2A       		.byte	0x2a
 7373 00d5 94000000 		.4byte	0x94
 7374 00d9 02       		.uleb128 0x2
 7375 00da 56000000 		.4byte	.LASF19
 7376 00de 05       		.byte	0x5
 7377 00df 41       		.byte	0x41
 7378 00e0 9F000000 		.4byte	0x9f
 7379 00e4 02       		.uleb128 0x2
 7380 00e5 B6090000 		.4byte	.LASF20
 7381 00e9 05       		.byte	0x5
 7382 00ea 42       		.byte	0x42
 7383 00eb AA000000 		.4byte	0xaa
 7384 00ef 02       		.uleb128 0x2
 7385 00f0 06090000 		.4byte	.LASF21
 7386 00f4 05       		.byte	0x5
 7387 00f5 4E       		.byte	0x4e
 7388 00f6 BC000000 		.4byte	0xbc
 7389 00fa 02       		.uleb128 0x2
 7390 00fb 9C060000 		.4byte	.LASF22
 7391 00ff 06       		.byte	0x6
 7392 0100 39       		.byte	0x39
 7393 0101 E4000000 		.4byte	0xe4
 7394 0105 02       		.uleb128 0x2
 7395 0106 82080000 		.4byte	.LASF23
 7396 010a 06       		.byte	0x6
 7397 010b 3C       		.byte	0x3c
 7398 010c CE000000 		.4byte	0xce
 7399 0110 02       		.uleb128 0x2
 7400 0111 9E010000 		.4byte	.LASF24
 7401 0115 06       		.byte	0x6
 7402 0116 3D       		.byte	0x3d
 7403 0117 CE000000 		.4byte	0xce
 7404 011b 02       		.uleb128 0x2
 7405 011c 7F090000 		.4byte	.LASF25
 7406 0120 06       		.byte	0x6
 7407 0121 3E       		.byte	0x3e
 7408 0122 CE000000 		.4byte	0xce
 7409 0126 02       		.uleb128 0x2
 7410 0127 3D000000 		.4byte	.LASF26
 7411 012b 06       		.byte	0x6
 7412 012c 40       		.byte	0x40
 7413 012d E4000000 		.4byte	0xe4
 7414 0131 02       		.uleb128 0x2
 7415 0132 F4070000 		.4byte	.LASF27
 7416 0136 06       		.byte	0x6
 7417 0137 41       		.byte	0x41
ARM GAS  /tmp/ccZHgRNF.s 			page 132


 7418 0138 D9000000 		.4byte	0xd9
 7419 013c 02       		.uleb128 0x2
 7420 013d 3C020000 		.4byte	.LASF28
 7421 0141 06       		.byte	0x6
 7422 0142 43       		.byte	0x43
 7423 0143 E4000000 		.4byte	0xe4
 7424 0147 02       		.uleb128 0x2
 7425 0148 81030000 		.4byte	.LASF29
 7426 014c 06       		.byte	0x6
 7427 014d 45       		.byte	0x45
 7428 014e D9000000 		.4byte	0xd9
 7429 0152 02       		.uleb128 0x2
 7430 0153 1F000000 		.4byte	.LASF30
 7431 0157 07       		.byte	0x7
 7432 0158 33       		.byte	0x33
 7433 0159 E4000000 		.4byte	0xe4
 7434 015d 02       		.uleb128 0x2
 7435 015e 26070000 		.4byte	.LASF31
 7436 0162 07       		.byte	0x7
 7437 0163 3F       		.byte	0x3f
 7438 0164 68010000 		.4byte	0x168
 7439 0168 05       		.uleb128 0x5
 7440 0169 74040000 		.4byte	.LASF50
 7441 016d 40       		.byte	0x40
 7442 016e 08       		.byte	0x8
 7443 016f C2       		.byte	0xc2
 7444 0170 48020000 		.4byte	0x248
 7445 0174 06       		.uleb128 0x6
 7446 0175 88010000 		.4byte	.LASF32
 7447 0179 08       		.byte	0x8
 7448 017a C3       		.byte	0xc3
 7449 017b 53020000 		.4byte	0x253
 7450 017f 00       		.byte	0
 7451 0180 06       		.uleb128 0x6
 7452 0181 8F010000 		.4byte	.LASF33
 7453 0185 08       		.byte	0x8
 7454 0186 C5       		.byte	0xc5
 7455 0187 53020000 		.4byte	0x253
 7456 018b 04       		.byte	0x4
 7457 018c 06       		.uleb128 0x6
 7458 018d 3B030000 		.4byte	.LASF34
 7459 0191 08       		.byte	0x8
 7460 0192 C7       		.byte	0xc7
 7461 0193 26010000 		.4byte	0x126
 7462 0197 08       		.byte	0x8
 7463 0198 06       		.uleb128 0x6
 7464 0199 37000000 		.4byte	.LASF35
 7465 019d 08       		.byte	0x8
 7466 019e C8       		.byte	0xc8
 7467 019f 83040000 		.4byte	0x483
 7468 01a3 0C       		.byte	0xc
 7469 01a4 06       		.uleb128 0x6
 7470 01a5 6E010000 		.4byte	.LASF36
 7471 01a9 08       		.byte	0x8
 7472 01aa CA       		.byte	0xca
 7473 01ab 53020000 		.4byte	0x253
 7474 01af 10       		.byte	0x10
ARM GAS  /tmp/ccZHgRNF.s 			page 133


 7475 01b0 06       		.uleb128 0x6
 7476 01b1 EC070000 		.4byte	.LASF37
 7477 01b5 08       		.byte	0x8
 7478 01b6 CB       		.byte	0xcb
 7479 01b7 53020000 		.4byte	0x253
 7480 01bb 14       		.byte	0x14
 7481 01bc 06       		.uleb128 0x6
 7482 01bd 470A0000 		.4byte	.LASF38
 7483 01c1 08       		.byte	0x8
 7484 01c2 D2       		.byte	0xd2
 7485 01c3 0E060000 		.4byte	0x60e
 7486 01c7 18       		.byte	0x18
 7487 01c8 06       		.uleb128 0x6
 7488 01c9 6E0A0000 		.4byte	.LASF39
 7489 01cd 08       		.byte	0x8
 7490 01ce DD       		.byte	0xdd
 7491 01cf 10010000 		.4byte	0x110
 7492 01d3 1C       		.byte	0x1c
 7493 01d4 06       		.uleb128 0x6
 7494 01d5 5E060000 		.4byte	.LASF40
 7495 01d9 08       		.byte	0x8
 7496 01da E1       		.byte	0xe1
 7497 01db 05010000 		.4byte	0x105
 7498 01df 1D       		.byte	0x1d
 7499 01e0 06       		.uleb128 0x6
 7500 01e1 BC060000 		.4byte	.LASF41
 7501 01e5 08       		.byte	0x8
 7502 01e6 E6       		.byte	0xe6
 7503 01e7 1B010000 		.4byte	0x11b
 7504 01eb 1E       		.byte	0x1e
 7505 01ec 07       		.uleb128 0x7
 7506 01ed 705F7500 		.ascii	"p_u\000"
 7507 01f1 08       		.byte	0x8
 7508 01f2 3701     		.2byte	0x137
 7509 01f4 3D050000 		.4byte	0x53d
 7510 01f8 20       		.byte	0x20
 7511 01f9 08       		.uleb128 0x8
 7512 01fa 54060000 		.4byte	.LASF42
 7513 01fe 08       		.byte	0x8
 7514 01ff 3C01     		.2byte	0x13c
 7515 0201 59020000 		.4byte	0x259
 7516 0205 24       		.byte	0x24
 7517 0206 08       		.uleb128 0x8
 7518 0207 45000000 		.4byte	.LASF43
 7519 020b 08       		.byte	0x8
 7520 020c 4201     		.2byte	0x142
 7521 020e 7D020000 		.4byte	0x27d
 7522 0212 28       		.byte	0x28
 7523 0213 08       		.uleb128 0x8
 7524 0214 AF030000 		.4byte	.LASF44
 7525 0218 08       		.byte	0x8
 7526 0219 4801     		.2byte	0x148
 7527 021b 3C010000 		.4byte	0x13c
 7528 021f 30       		.byte	0x30
 7529 0220 08       		.uleb128 0x8
 7530 0221 B7010000 		.4byte	.LASF45
 7531 0225 08       		.byte	0x8
ARM GAS  /tmp/ccZHgRNF.s 			page 134


 7532 0226 4F01     		.2byte	0x14f
 7533 0228 08060000 		.4byte	0x608
 7534 022c 34       		.byte	0x34
 7535 022d 08       		.uleb128 0x8
 7536 022e 5D070000 		.4byte	.LASF46
 7537 0232 08       		.byte	0x8
 7538 0233 5301     		.2byte	0x153
 7539 0235 26010000 		.4byte	0x126
 7540 0239 38       		.byte	0x38
 7541 023a 08       		.uleb128 0x8
 7542 023b A4060000 		.4byte	.LASF47
 7543 023f 08       		.byte	0x8
 7544 0240 5A01     		.2byte	0x15a
 7545 0242 30030000 		.4byte	0x330
 7546 0246 3C       		.byte	0x3c
 7547 0247 00       		.byte	0
 7548 0248 02       		.uleb128 0x2
 7549 0249 3A070000 		.4byte	.LASF48
 7550 024d 07       		.byte	0x7
 7551 024e 44       		.byte	0x44
 7552 024f 53020000 		.4byte	0x253
 7553 0253 09       		.uleb128 0x9
 7554 0254 04       		.byte	0x4
 7555 0255 5D010000 		.4byte	0x15d
 7556 0259 02       		.uleb128 0x2
 7557 025a 87090000 		.4byte	.LASF49
 7558 025e 07       		.byte	0x7
 7559 025f 49       		.byte	0x49
 7560 0260 64020000 		.4byte	0x264
 7561 0264 05       		.uleb128 0x5
 7562 0265 F5040000 		.4byte	.LASF51
 7563 0269 04       		.byte	0x4
 7564 026a 08       		.byte	0x8
 7565 026b B0       		.byte	0xb0
 7566 026c 7D020000 		.4byte	0x27d
 7567 0270 06       		.uleb128 0x6
 7568 0271 88010000 		.4byte	.LASF32
 7569 0275 08       		.byte	0x8
 7570 0276 B1       		.byte	0xb1
 7571 0277 53020000 		.4byte	0x253
 7572 027b 00       		.byte	0
 7573 027c 00       		.byte	0
 7574 027d 02       		.uleb128 0x2
 7575 027e A7010000 		.4byte	.LASF52
 7576 0282 07       		.byte	0x7
 7577 0283 50       		.byte	0x50
 7578 0284 88020000 		.4byte	0x288
 7579 0288 05       		.uleb128 0x5
 7580 0289 FA070000 		.4byte	.LASF53
 7581 028d 08       		.byte	0x8
 7582 028e 08       		.byte	0x8
 7583 028f B7       		.byte	0xb7
 7584 0290 AD020000 		.4byte	0x2ad
 7585 0294 06       		.uleb128 0x6
 7586 0295 88010000 		.4byte	.LASF32
 7587 0299 08       		.byte	0x8
 7588 029a B8       		.byte	0xb8
ARM GAS  /tmp/ccZHgRNF.s 			page 135


 7589 029b 53020000 		.4byte	0x253
 7590 029f 00       		.byte	0
 7591 02a0 06       		.uleb128 0x6
 7592 02a1 8F010000 		.4byte	.LASF33
 7593 02a5 08       		.byte	0x8
 7594 02a6 B9       		.byte	0xb9
 7595 02a7 53020000 		.4byte	0x253
 7596 02ab 04       		.byte	0x4
 7597 02ac 00       		.byte	0
 7598 02ad 02       		.uleb128 0x2
 7599 02ae C3040000 		.4byte	.LASF54
 7600 02b2 07       		.byte	0x7
 7601 02b3 57       		.byte	0x57
 7602 02b4 B8020000 		.4byte	0x2b8
 7603 02b8 0A       		.uleb128 0xa
 7604 02b9 DA030000 		.4byte	.LASF55
 7605 02bd 1C       		.byte	0x1c
 7606 02be 08       		.byte	0x8
 7607 02bf 9201     		.2byte	0x192
 7608 02c1 14030000 		.4byte	0x314
 7609 02c5 08       		.uleb128 0x8
 7610 02c6 74080000 		.4byte	.LASF56
 7611 02ca 08       		.byte	0x8
 7612 02cb 9301     		.2byte	0x193
 7613 02cd 7D020000 		.4byte	0x27d
 7614 02d1 00       		.byte	0
 7615 02d2 08       		.uleb128 0x8
 7616 02d3 36090000 		.4byte	.LASF57
 7617 02d7 08       		.byte	0x8
 7618 02d8 9401     		.2byte	0x194
 7619 02da 26010000 		.4byte	0x126
 7620 02de 08       		.byte	0x8
 7621 02df 08       		.uleb128 0x8
 7622 02e0 50000000 		.4byte	.LASF58
 7623 02e4 08       		.byte	0x8
 7624 02e5 9601     		.2byte	0x196
 7625 02e7 83040000 		.4byte	0x483
 7626 02eb 0C       		.byte	0xc
 7627 02ec 08       		.uleb128 0x8
 7628 02ed D5020000 		.4byte	.LASF59
 7629 02f1 08       		.byte	0x8
 7630 02f2 9901     		.2byte	0x199
 7631 02f4 53020000 		.4byte	0x253
 7632 02f8 10       		.byte	0x10
 7633 02f9 08       		.uleb128 0x8
 7634 02fa B0080000 		.4byte	.LASF60
 7635 02fe 08       		.byte	0x8
 7636 02ff 9A01     		.2byte	0x19a
 7637 0301 53020000 		.4byte	0x253
 7638 0305 14       		.byte	0x14
 7639 0306 08       		.uleb128 0x8
 7640 0307 28080000 		.4byte	.LASF61
 7641 030b 08       		.byte	0x8
 7642 030c 9D01     		.2byte	0x19d
 7643 030e 53020000 		.4byte	0x253
 7644 0312 18       		.byte	0x18
 7645 0313 00       		.byte	0
ARM GAS  /tmp/ccZHgRNF.s 			page 136


 7646 0314 02       		.uleb128 0x2
 7647 0315 5E000000 		.4byte	.LASF62
 7648 0319 07       		.byte	0x7
 7649 031a 5C       		.byte	0x5c
 7650 031b 1F030000 		.4byte	0x31f
 7651 031f 09       		.uleb128 0x9
 7652 0320 04       		.byte	0x4
 7653 0321 25030000 		.4byte	0x325
 7654 0325 0B       		.uleb128 0xb
 7655 0326 30030000 		.4byte	0x330
 7656 032a 0C       		.uleb128 0xc
 7657 032b 30030000 		.4byte	0x330
 7658 032f 00       		.byte	0
 7659 0330 0D       		.uleb128 0xd
 7660 0331 04       		.byte	0x4
 7661 0332 02       		.uleb128 0x2
 7662 0333 B3040000 		.4byte	.LASF63
 7663 0337 07       		.byte	0x7
 7664 0338 61       		.byte	0x61
 7665 0339 3D030000 		.4byte	0x33d
 7666 033d 0A       		.uleb128 0xa
 7667 033e B2070000 		.4byte	.LASF64
 7668 0342 14       		.byte	0x14
 7669 0343 08       		.byte	0x8
 7670 0344 6D01     		.2byte	0x16d
 7671 0346 8C030000 		.4byte	0x38c
 7672 034a 08       		.uleb128 0x8
 7673 034b 3E050000 		.4byte	.LASF65
 7674 034f 08       		.byte	0x8
 7675 0350 6E01     		.2byte	0x16e
 7676 0352 20060000 		.4byte	0x620
 7677 0356 00       		.byte	0
 7678 0357 08       		.uleb128 0x8
 7679 0358 46050000 		.4byte	.LASF66
 7680 035c 08       		.byte	0x8
 7681 035d 6F01     		.2byte	0x16f
 7682 035f 20060000 		.4byte	0x620
 7683 0363 04       		.byte	0x4
 7684 0364 08       		.uleb128 0x8
 7685 0365 8E070000 		.4byte	.LASF67
 7686 0369 08       		.byte	0x8
 7687 036a 7001     		.2byte	0x170
 7688 036c 52010000 		.4byte	0x152
 7689 0370 08       		.byte	0x8
 7690 0371 08       		.uleb128 0x8
 7691 0372 A7030000 		.4byte	.LASF68
 7692 0376 08       		.byte	0x8
 7693 0377 7101     		.2byte	0x171
 7694 0379 14030000 		.4byte	0x314
 7695 037d 0C       		.byte	0xc
 7696 037e 08       		.uleb128 0x8
 7697 037f 0A010000 		.4byte	.LASF69
 7698 0383 08       		.byte	0x8
 7699 0384 7301     		.2byte	0x173
 7700 0386 30030000 		.4byte	0x330
 7701 038a 10       		.byte	0x10
 7702 038b 00       		.byte	0
ARM GAS  /tmp/ccZHgRNF.s 			page 137


 7703 038c 02       		.uleb128 0x2
 7704 038d 90040000 		.4byte	.LASF70
 7705 0391 07       		.byte	0x7
 7706 0392 66       		.byte	0x66
 7707 0393 97030000 		.4byte	0x397
 7708 0397 0A       		.uleb128 0xa
 7709 0398 6C000000 		.4byte	.LASF71
 7710 039c 10       		.byte	0x10
 7711 039d 08       		.byte	0x8
 7712 039e 7D01     		.2byte	0x17d
 7713 03a0 D9030000 		.4byte	0x3d9
 7714 03a4 08       		.uleb128 0x8
 7715 03a5 3E050000 		.4byte	.LASF65
 7716 03a9 08       		.byte	0x8
 7717 03aa 7E01     		.2byte	0x17e
 7718 03ac 20060000 		.4byte	0x620
 7719 03b0 00       		.byte	0
 7720 03b1 08       		.uleb128 0x8
 7721 03b2 46050000 		.4byte	.LASF66
 7722 03b6 08       		.byte	0x8
 7723 03b7 8001     		.2byte	0x180
 7724 03b9 20060000 		.4byte	0x620
 7725 03bd 04       		.byte	0x4
 7726 03be 08       		.uleb128 0x8
 7727 03bf 8E070000 		.4byte	.LASF67
 7728 03c3 08       		.byte	0x8
 7729 03c4 8201     		.2byte	0x182
 7730 03c6 52010000 		.4byte	0x152
 7731 03ca 08       		.byte	0x8
 7732 03cb 08       		.uleb128 0x8
 7733 03cc DB090000 		.4byte	.LASF72
 7734 03d0 08       		.byte	0x8
 7735 03d1 8A01     		.2byte	0x18a
 7736 03d3 52010000 		.4byte	0x152
 7737 03d7 0C       		.byte	0xc
 7738 03d8 00       		.byte	0
 7739 03d9 02       		.uleb128 0x2
 7740 03da DD020000 		.4byte	.LASF73
 7741 03de 07       		.byte	0x7
 7742 03df 6B       		.byte	0x6b
 7743 03e0 E4030000 		.4byte	0x3e4
 7744 03e4 0A       		.uleb128 0xa
 7745 03e5 3D090000 		.4byte	.LASF74
 7746 03e9 04       		.byte	0x4
 7747 03ea 08       		.byte	0x8
 7748 03eb A401     		.2byte	0x1a4
 7749 03ed FF030000 		.4byte	0x3ff
 7750 03f1 08       		.uleb128 0x8
 7751 03f2 97020000 		.4byte	.LASF75
 7752 03f6 08       		.byte	0x8
 7753 03f7 AC01     		.2byte	0x1ac
 7754 03f9 26060000 		.4byte	0x626
 7755 03fd 00       		.byte	0
 7756 03fe 00       		.byte	0
 7757 03ff 02       		.uleb128 0x2
 7758 0400 090A0000 		.4byte	.LASF76
 7759 0404 07       		.byte	0x7
ARM GAS  /tmp/ccZHgRNF.s 			page 138


 7760 0405 70       		.byte	0x70
 7761 0406 0A040000 		.4byte	0x40a
 7762 040a 0E       		.uleb128 0xe
 7763 040b AC090000 		.4byte	.LASF77
 7764 040f 5001     		.2byte	0x150
 7765 0411 08       		.byte	0x8
 7766 0412 C401     		.2byte	0x1c4
 7767 0414 66040000 		.4byte	0x466
 7768 0418 08       		.uleb128 0x8
 7769 0419 7C080000 		.4byte	.LASF78
 7770 041d 08       		.byte	0x8
 7771 041e C801     		.2byte	0x1c8
 7772 0420 AD020000 		.4byte	0x2ad
 7773 0424 00       		.byte	0
 7774 0425 08       		.uleb128 0x8
 7775 0426 67090000 		.4byte	.LASF79
 7776 042a 08       		.byte	0x8
 7777 042b CC01     		.2byte	0x1cc
 7778 042d 8C030000 		.4byte	0x38c
 7779 0431 1C       		.byte	0x1c
 7780 0432 07       		.uleb128 0x7
 7781 0433 64626700 		.ascii	"dbg\000"
 7782 0437 08       		.byte	0x8
 7783 0438 D001     		.2byte	0x1d0
 7784 043a D9030000 		.4byte	0x3d9
 7785 043e 2C       		.byte	0x2c
 7786 043f 08       		.uleb128 0x8
 7787 0440 58080000 		.4byte	.LASF80
 7788 0444 08       		.byte	0x8
 7789 0445 D401     		.2byte	0x1d4
 7790 0447 5D010000 		.4byte	0x15d
 7791 044b 30       		.byte	0x30
 7792 044c 07       		.uleb128 0x7
 7793 044d 746D00   		.ascii	"tm\000"
 7794 0450 08       		.byte	0x8
 7795 0451 D901     		.2byte	0x1d9
 7796 0453 32050000 		.4byte	0x532
 7797 0457 70       		.byte	0x70
 7798 0458 08       		.uleb128 0x8
 7799 0459 66060000 		.4byte	.LASF81
 7800 045d 08       		.byte	0x8
 7801 045e E501     		.2byte	0x1e5
 7802 0460 2B060000 		.4byte	0x62b
 7803 0464 78       		.byte	0x78
 7804 0465 00       		.byte	0
 7805 0466 03       		.uleb128 0x3
 7806 0467 04       		.byte	0x4
 7807 0468 07       		.byte	0x7
 7808 0469 0F000000 		.4byte	.LASF82
 7809 046d 02       		.uleb128 0x2
 7810 046e D4010000 		.4byte	.LASF83
 7811 0472 09       		.byte	0x9
 7812 0473 65       		.byte	0x65
 7813 0474 30030000 		.4byte	0x330
 7814 0478 02       		.uleb128 0x2
 7815 0479 58030000 		.4byte	.LASF84
 7816 047d 09       		.byte	0x9
ARM GAS  /tmp/ccZHgRNF.s 			page 139


 7817 047e 6D       		.byte	0x6d
 7818 047f EF000000 		.4byte	0xef
 7819 0483 05       		.uleb128 0x5
 7820 0484 48020000 		.4byte	.LASF85
 7821 0488 04       		.byte	0x4
 7822 0489 09       		.byte	0x9
 7823 048a 89       		.byte	0x89
 7824 048b 9C040000 		.4byte	0x49c
 7825 048f 0F       		.uleb128 0xf
 7826 0490 72313300 		.ascii	"r13\000"
 7827 0494 09       		.byte	0x9
 7828 0495 8A       		.byte	0x8a
 7829 0496 17050000 		.4byte	0x517
 7830 049a 00       		.byte	0
 7831 049b 00       		.byte	0
 7832 049c 05       		.uleb128 0x5
 7833 049d 70070000 		.4byte	.LASF86
 7834 04a1 24       		.byte	0x24
 7835 04a2 0A       		.byte	0xa
 7836 04a3 FD       		.byte	0xfd
 7837 04a4 17050000 		.4byte	0x517
 7838 04a8 07       		.uleb128 0x7
 7839 04a9 723400   		.ascii	"r4\000"
 7840 04ac 0A       		.byte	0xa
 7841 04ad 1001     		.2byte	0x110
 7842 04af 6D040000 		.4byte	0x46d
 7843 04b3 00       		.byte	0
 7844 04b4 07       		.uleb128 0x7
 7845 04b5 723500   		.ascii	"r5\000"
 7846 04b8 0A       		.byte	0xa
 7847 04b9 1101     		.2byte	0x111
 7848 04bb 6D040000 		.4byte	0x46d
 7849 04bf 04       		.byte	0x4
 7850 04c0 07       		.uleb128 0x7
 7851 04c1 723600   		.ascii	"r6\000"
 7852 04c4 0A       		.byte	0xa
 7853 04c5 1201     		.2byte	0x112
 7854 04c7 6D040000 		.4byte	0x46d
 7855 04cb 08       		.byte	0x8
 7856 04cc 07       		.uleb128 0x7
 7857 04cd 723700   		.ascii	"r7\000"
 7858 04d0 0A       		.byte	0xa
 7859 04d1 1301     		.2byte	0x113
 7860 04d3 6D040000 		.4byte	0x46d
 7861 04d7 0C       		.byte	0xc
 7862 04d8 07       		.uleb128 0x7
 7863 04d9 723800   		.ascii	"r8\000"
 7864 04dc 0A       		.byte	0xa
 7865 04dd 1401     		.2byte	0x114
 7866 04df 6D040000 		.4byte	0x46d
 7867 04e3 10       		.byte	0x10
 7868 04e4 07       		.uleb128 0x7
 7869 04e5 723900   		.ascii	"r9\000"
 7870 04e8 0A       		.byte	0xa
 7871 04e9 1501     		.2byte	0x115
 7872 04eb 6D040000 		.4byte	0x46d
 7873 04ef 14       		.byte	0x14
ARM GAS  /tmp/ccZHgRNF.s 			page 140


 7874 04f0 07       		.uleb128 0x7
 7875 04f1 72313000 		.ascii	"r10\000"
 7876 04f5 0A       		.byte	0xa
 7877 04f6 1601     		.2byte	0x116
 7878 04f8 6D040000 		.4byte	0x46d
 7879 04fc 18       		.byte	0x18
 7880 04fd 07       		.uleb128 0x7
 7881 04fe 72313100 		.ascii	"r11\000"
 7882 0502 0A       		.byte	0xa
 7883 0503 1701     		.2byte	0x117
 7884 0505 6D040000 		.4byte	0x46d
 7885 0509 1C       		.byte	0x1c
 7886 050a 07       		.uleb128 0x7
 7887 050b 6C7200   		.ascii	"lr\000"
 7888 050e 0A       		.byte	0xa
 7889 050f 1801     		.2byte	0x118
 7890 0511 6D040000 		.4byte	0x46d
 7891 0515 20       		.byte	0x20
 7892 0516 00       		.byte	0
 7893 0517 09       		.uleb128 0x9
 7894 0518 04       		.byte	0x4
 7895 0519 9C040000 		.4byte	0x49c
 7896 051d 10       		.uleb128 0x10
 7897 051e 04       		.byte	0x4
 7898 051f 0B       		.byte	0xb
 7899 0520 38       		.byte	0x38
 7900 0521 32050000 		.4byte	0x532
 7901 0525 06       		.uleb128 0x6
 7902 0526 D8060000 		.4byte	.LASF87
 7903 052a 0B       		.byte	0xb
 7904 052b 3C       		.byte	0x3c
 7905 052c FA000000 		.4byte	0xfa
 7906 0530 00       		.byte	0
 7907 0531 00       		.byte	0
 7908 0532 02       		.uleb128 0x2
 7909 0533 B8080000 		.4byte	.LASF88
 7910 0537 0B       		.byte	0xb
 7911 0538 3D       		.byte	0x3d
 7912 0539 1D050000 		.4byte	0x51d
 7913 053d 11       		.uleb128 0x11
 7914 053e 04       		.byte	0x4
 7915 053f 08       		.byte	0x8
 7916 0540 FA       		.byte	0xfa
 7917 0541 A6050000 		.4byte	0x5a6
 7918 0545 12       		.uleb128 0x12
 7919 0546 CE090000 		.4byte	.LASF89
 7920 054a 08       		.byte	0x8
 7921 054b 0101     		.2byte	0x101
 7922 054d 31010000 		.4byte	0x131
 7923 0551 12       		.uleb128 0x12
 7924 0552 11010000 		.4byte	.LASF90
 7925 0556 08       		.byte	0x8
 7926 0557 0801     		.2byte	0x108
 7927 0559 31010000 		.4byte	0x131
 7928 055d 12       		.uleb128 0x12
 7929 055e 42030000 		.4byte	.LASF91
 7930 0562 08       		.byte	0x8
ARM GAS  /tmp/ccZHgRNF.s 			page 141


 7931 0563 0F01     		.2byte	0x10f
 7932 0565 30030000 		.4byte	0x330
 7933 0569 12       		.uleb128 0x12
 7934 056a 64020000 		.4byte	.LASF92
 7935 056e 08       		.byte	0x8
 7936 056f 1601     		.2byte	0x116
 7937 0571 A6050000 		.4byte	0x5a6
 7938 0575 12       		.uleb128 0x12
 7939 0576 68070000 		.4byte	.LASF93
 7940 057a 08       		.byte	0x8
 7941 057b 1B01     		.2byte	0x11b
 7942 057d 31010000 		.4byte	0x131
 7943 0581 12       		.uleb128 0x12
 7944 0582 18000000 		.4byte	.LASF94
 7945 0586 08       		.byte	0x8
 7946 0587 2401     		.2byte	0x124
 7947 0589 D1050000 		.4byte	0x5d1
 7948 058d 12       		.uleb128 0x12
 7949 058e BA030000 		.4byte	.LASF95
 7950 0592 08       		.byte	0x8
 7951 0593 2D01     		.2byte	0x12d
 7952 0595 08060000 		.4byte	0x608
 7953 0599 12       		.uleb128 0x12
 7954 059a 27020000 		.4byte	.LASF96
 7955 059e 08       		.byte	0x8
 7956 059f 3501     		.2byte	0x135
 7957 05a1 3C010000 		.4byte	0x13c
 7958 05a5 00       		.byte	0
 7959 05a6 09       		.uleb128 0x9
 7960 05a7 04       		.byte	0x4
 7961 05a8 48020000 		.4byte	0x248
 7962 05ac 05       		.uleb128 0x5
 7963 05ad 67040000 		.4byte	.LASF97
 7964 05b1 0C       		.byte	0xc
 7965 05b2 0C       		.byte	0xc
 7966 05b3 34       		.byte	0x34
 7967 05b4 D1050000 		.4byte	0x5d1
 7968 05b8 06       		.uleb128 0x6
 7969 05b9 C9080000 		.4byte	.LASF98
 7970 05bd 0C       		.byte	0xc
 7971 05be 35       		.byte	0x35
 7972 05bf 7D020000 		.4byte	0x27d
 7973 05c3 00       		.byte	0
 7974 05c4 06       		.uleb128 0x6
 7975 05c5 C3070000 		.4byte	.LASF99
 7976 05c9 0C       		.byte	0xc
 7977 05ca 37       		.byte	0x37
 7978 05cb 47010000 		.4byte	0x147
 7979 05cf 08       		.byte	0x8
 7980 05d0 00       		.byte	0
 7981 05d1 09       		.uleb128 0x9
 7982 05d2 04       		.byte	0x4
 7983 05d3 AC050000 		.4byte	0x5ac
 7984 05d7 05       		.uleb128 0x5
 7985 05d8 1A090000 		.4byte	.LASF100
 7986 05dc 10       		.byte	0x10
 7987 05dd 0D       		.byte	0xd
ARM GAS  /tmp/ccZHgRNF.s 			page 142


 7988 05de 39       		.byte	0x39
 7989 05df 08060000 		.4byte	0x608
 7990 05e3 06       		.uleb128 0x6
 7991 05e4 30050000 		.4byte	.LASF101
 7992 05e8 0D       		.byte	0xd
 7993 05e9 3A       		.byte	0x3a
 7994 05ea 7D020000 		.4byte	0x27d
 7995 05ee 00       		.byte	0
 7996 05ef 06       		.uleb128 0x6
 7997 05f0 02010000 		.4byte	.LASF102
 7998 05f4 0D       		.byte	0xd
 7999 05f5 3C       		.byte	0x3c
 8000 05f6 53020000 		.4byte	0x253
 8001 05fa 08       		.byte	0x8
 8002 05fb 06       		.uleb128 0x6
 8003 05fc 540A0000 		.4byte	.LASF103
 8004 0600 0D       		.byte	0xd
 8005 0601 3E       		.byte	0x3e
 8006 0602 46060000 		.4byte	0x646
 8007 0606 0C       		.byte	0xc
 8008 0607 00       		.byte	0
 8009 0608 09       		.uleb128 0x9
 8010 0609 04       		.byte	0x4
 8011 060a D7050000 		.4byte	0x5d7
 8012 060e 09       		.uleb128 0x9
 8013 060f 04       		.byte	0x4
 8014 0610 14060000 		.4byte	0x614
 8015 0614 13       		.uleb128 0x13
 8016 0615 19060000 		.4byte	0x619
 8017 0619 03       		.uleb128 0x3
 8018 061a 01       		.byte	0x1
 8019 061b 08       		.byte	0x8
 8020 061c 13030000 		.4byte	.LASF104
 8021 0620 09       		.uleb128 0x9
 8022 0621 04       		.byte	0x4
 8023 0622 32030000 		.4byte	0x332
 8024 0626 14       		.uleb128 0x14
 8025 0627 0E060000 		.4byte	0x60e
 8026 062b 15       		.uleb128 0x15
 8027 062c 78040000 		.4byte	0x478
 8028 0630 3B060000 		.4byte	0x63b
 8029 0634 16       		.uleb128 0x16
 8030 0635 66040000 		.4byte	0x466
 8031 0639 1A       		.byte	0x1a
 8032 063a 00       		.byte	0
 8033 063b 02       		.uleb128 0x2
 8034 063c 77090000 		.4byte	.LASF105
 8035 0640 0D       		.byte	0xd
 8036 0641 34       		.byte	0x34
 8037 0642 D7050000 		.4byte	0x5d7
 8038 0646 09       		.uleb128 0x9
 8039 0647 04       		.byte	0x4
 8040 0648 3B060000 		.4byte	0x63b
 8041 064c 02       		.uleb128 0x2
 8042 064d BE000000 		.4byte	.LASF106
 8043 0651 0E       		.byte	0xe
 8044 0652 42       		.byte	0x42
ARM GAS  /tmp/ccZHgRNF.s 			page 143


 8045 0653 19060000 		.4byte	0x619
 8046 0657 17       		.uleb128 0x17
 8047 0658 3002     		.2byte	0x230
 8048 065a 0E       		.byte	0xe
 8049 065b 4D       		.byte	0x4d
 8050 065c 38070000 		.4byte	0x738
 8051 0660 06       		.uleb128 0x6
 8052 0661 AD020000 		.4byte	.LASF107
 8053 0665 0E       		.byte	0xe
 8054 0666 4E       		.byte	0x4e
 8055 0667 25000000 		.4byte	0x25
 8056 066b 00       		.byte	0
 8057 066c 0F       		.uleb128 0xf
 8058 066d 64727600 		.ascii	"drv\000"
 8059 0671 0E       		.byte	0xe
 8060 0672 4F       		.byte	0x4f
 8061 0673 25000000 		.4byte	0x25
 8062 0677 01       		.byte	0x1
 8063 0678 06       		.uleb128 0x6
 8064 0679 41060000 		.4byte	.LASF108
 8065 067d 0E       		.byte	0xe
 8066 067e 50       		.byte	0x50
 8067 067f 25000000 		.4byte	0x25
 8068 0683 02       		.byte	0x2
 8069 0684 06       		.uleb128 0x6
 8070 0685 E9060000 		.4byte	.LASF109
 8071 0689 0E       		.byte	0xe
 8072 068a 51       		.byte	0x51
 8073 068b 25000000 		.4byte	0x25
 8074 068f 03       		.byte	0x3
 8075 0690 06       		.uleb128 0x6
 8076 0691 4E0A0000 		.4byte	.LASF110
 8077 0695 0E       		.byte	0xe
 8078 0696 52       		.byte	0x52
 8079 0697 25000000 		.4byte	0x25
 8080 069b 04       		.byte	0x4
 8081 069c 06       		.uleb128 0x6
 8082 069d AC060000 		.4byte	.LASF111
 8083 06a1 0E       		.byte	0xe
 8084 06a2 53       		.byte	0x53
 8085 06a3 25000000 		.4byte	0x25
 8086 06a7 05       		.byte	0x5
 8087 06a8 0F       		.uleb128 0xf
 8088 06a9 696400   		.ascii	"id\000"
 8089 06ac 0E       		.byte	0xe
 8090 06ad 54       		.byte	0x54
 8091 06ae 3E000000 		.4byte	0x3e
 8092 06b2 06       		.byte	0x6
 8093 06b3 06       		.uleb128 0x6
 8094 06b4 A8070000 		.4byte	.LASF112
 8095 06b8 0E       		.byte	0xe
 8096 06b9 55       		.byte	0x55
 8097 06ba 3E000000 		.4byte	0x3e
 8098 06be 08       		.byte	0x8
 8099 06bf 06       		.uleb128 0x6
 8100 06c0 CD060000 		.4byte	.LASF113
 8101 06c4 0E       		.byte	0xe
ARM GAS  /tmp/ccZHgRNF.s 			page 144


 8102 06c5 5D       		.byte	0x5d
 8103 06c6 70000000 		.4byte	0x70
 8104 06ca 0C       		.byte	0xc
 8105 06cb 06       		.uleb128 0x6
 8106 06cc 5A010000 		.4byte	.LASF114
 8107 06d0 0E       		.byte	0xe
 8108 06d1 5E       		.byte	0x5e
 8109 06d2 70000000 		.4byte	0x70
 8110 06d6 10       		.byte	0x10
 8111 06d7 06       		.uleb128 0x6
 8112 06d8 32030000 		.4byte	.LASF115
 8113 06dc 0E       		.byte	0xe
 8114 06dd 63       		.byte	0x63
 8115 06de 70000000 		.4byte	0x70
 8116 06e2 14       		.byte	0x14
 8117 06e3 06       		.uleb128 0x6
 8118 06e4 9C000000 		.4byte	.LASF116
 8119 06e8 0E       		.byte	0xe
 8120 06e9 64       		.byte	0x64
 8121 06ea 70000000 		.4byte	0x70
 8122 06ee 18       		.byte	0x18
 8123 06ef 06       		.uleb128 0x6
 8124 06f0 3D080000 		.4byte	.LASF117
 8125 06f4 0E       		.byte	0xe
 8126 06f5 65       		.byte	0x65
 8127 06f6 70000000 		.4byte	0x70
 8128 06fa 1C       		.byte	0x1c
 8129 06fb 06       		.uleb128 0x6
 8130 06fc D0040000 		.4byte	.LASF118
 8131 0700 0E       		.byte	0xe
 8132 0701 66       		.byte	0x66
 8133 0702 70000000 		.4byte	0x70
 8134 0706 20       		.byte	0x20
 8135 0707 06       		.uleb128 0x6
 8136 0708 8F020000 		.4byte	.LASF119
 8137 070c 0E       		.byte	0xe
 8138 070d 67       		.byte	0x67
 8139 070e 70000000 		.4byte	0x70
 8140 0712 24       		.byte	0x24
 8141 0713 06       		.uleb128 0x6
 8142 0714 6E090000 		.4byte	.LASF120
 8143 0718 0E       		.byte	0xe
 8144 0719 68       		.byte	0x68
 8145 071a 70000000 		.4byte	0x70
 8146 071e 28       		.byte	0x28
 8147 071f 06       		.uleb128 0x6
 8148 0720 00000000 		.4byte	.LASF121
 8149 0724 0E       		.byte	0xe
 8150 0725 69       		.byte	0x69
 8151 0726 70000000 		.4byte	0x70
 8152 072a 2C       		.byte	0x2c
 8153 072b 0F       		.uleb128 0xf
 8154 072c 77696E00 		.ascii	"win\000"
 8155 0730 0E       		.byte	0xe
 8156 0731 6A       		.byte	0x6a
 8157 0732 38070000 		.4byte	0x738
 8158 0736 30       		.byte	0x30
ARM GAS  /tmp/ccZHgRNF.s 			page 145


 8159 0737 00       		.byte	0
 8160 0738 15       		.uleb128 0x15
 8161 0739 25000000 		.4byte	0x25
 8162 073d 49070000 		.4byte	0x749
 8163 0741 18       		.uleb128 0x18
 8164 0742 66040000 		.4byte	0x466
 8165 0746 FF01     		.2byte	0x1ff
 8166 0748 00       		.byte	0
 8167 0749 02       		.uleb128 0x2
 8168 074a 14090000 		.4byte	.LASF122
 8169 074e 0E       		.byte	0xe
 8170 074f 6B       		.byte	0x6b
 8171 0750 57060000 		.4byte	0x657
 8172 0754 17       		.uleb128 0x17
 8173 0755 2402     		.2byte	0x224
 8174 0757 0E       		.byte	0xe
 8175 0758 71       		.byte	0x71
 8176 0759 EC070000 		.4byte	0x7ec
 8177 075d 0F       		.uleb128 0xf
 8178 075e 667300   		.ascii	"fs\000"
 8179 0761 0E       		.byte	0xe
 8180 0762 72       		.byte	0x72
 8181 0763 EC070000 		.4byte	0x7ec
 8182 0767 00       		.byte	0
 8183 0768 0F       		.uleb128 0xf
 8184 0769 696400   		.ascii	"id\000"
 8185 076c 0E       		.byte	0xe
 8186 076d 73       		.byte	0x73
 8187 076e 3E000000 		.4byte	0x3e
 8188 0772 04       		.byte	0x4
 8189 0773 06       		.uleb128 0x6
 8190 0774 C3060000 		.4byte	.LASF123
 8191 0778 0E       		.byte	0xe
 8192 0779 74       		.byte	0x74
 8193 077a 25000000 		.4byte	0x25
 8194 077e 06       		.byte	0x6
 8195 077f 0F       		.uleb128 0xf
 8196 0780 65727200 		.ascii	"err\000"
 8197 0784 0E       		.byte	0xe
 8198 0785 75       		.byte	0x75
 8199 0786 25000000 		.4byte	0x25
 8200 078a 07       		.byte	0x7
 8201 078b 06       		.uleb128 0x6
 8202 078c 32000000 		.4byte	.LASF124
 8203 0790 0E       		.byte	0xe
 8204 0791 76       		.byte	0x76
 8205 0792 70000000 		.4byte	0x70
 8206 0796 08       		.byte	0x8
 8207 0797 06       		.uleb128 0x6
 8208 0798 9C000000 		.4byte	.LASF116
 8209 079c 0E       		.byte	0xe
 8210 079d 77       		.byte	0x77
 8211 079e 70000000 		.4byte	0x70
 8212 07a2 0C       		.byte	0xc
 8213 07a3 06       		.uleb128 0x6
 8214 07a4 6D080000 		.4byte	.LASF125
 8215 07a8 0E       		.byte	0xe
ARM GAS  /tmp/ccZHgRNF.s 			page 146


 8216 07a9 78       		.byte	0x78
 8217 07aa 70000000 		.4byte	0x70
 8218 07ae 10       		.byte	0x10
 8219 07af 06       		.uleb128 0x6
 8220 07b0 FE010000 		.4byte	.LASF126
 8221 07b4 0E       		.byte	0xe
 8222 07b5 79       		.byte	0x79
 8223 07b6 70000000 		.4byte	0x70
 8224 07ba 14       		.byte	0x14
 8225 07bb 06       		.uleb128 0x6
 8226 07bc 23090000 		.4byte	.LASF127
 8227 07c0 0E       		.byte	0xe
 8228 07c1 7A       		.byte	0x7a
 8229 07c2 70000000 		.4byte	0x70
 8230 07c6 18       		.byte	0x18
 8231 07c7 06       		.uleb128 0x6
 8232 07c8 50020000 		.4byte	.LASF128
 8233 07cc 0E       		.byte	0xe
 8234 07cd 7C       		.byte	0x7c
 8235 07ce 70000000 		.4byte	0x70
 8236 07d2 1C       		.byte	0x1c
 8237 07d3 06       		.uleb128 0x6
 8238 07d4 8A080000 		.4byte	.LASF129
 8239 07d8 0E       		.byte	0xe
 8240 07d9 7D       		.byte	0x7d
 8241 07da F2070000 		.4byte	0x7f2
 8242 07de 20       		.byte	0x20
 8243 07df 0F       		.uleb128 0xf
 8244 07e0 62756600 		.ascii	"buf\000"
 8245 07e4 0E       		.byte	0xe
 8246 07e5 86       		.byte	0x86
 8247 07e6 38070000 		.4byte	0x738
 8248 07ea 24       		.byte	0x24
 8249 07eb 00       		.byte	0
 8250 07ec 09       		.uleb128 0x9
 8251 07ed 04       		.byte	0x4
 8252 07ee 49070000 		.4byte	0x749
 8253 07f2 09       		.uleb128 0x9
 8254 07f3 04       		.byte	0x4
 8255 07f4 25000000 		.4byte	0x25
 8256 07f8 19       		.uleb128 0x19
 8257 07f9 46494C00 		.ascii	"FIL\000"
 8258 07fd 0E       		.byte	0xe
 8259 07fe 88       		.byte	0x88
 8260 07ff 54070000 		.4byte	0x754
 8261 0803 10       		.uleb128 0x10
 8262 0804 1C       		.byte	0x1c
 8263 0805 0E       		.byte	0xe
 8264 0806 8E       		.byte	0x8e
 8265 0807 69080000 		.4byte	0x869
 8266 080b 0F       		.uleb128 0xf
 8267 080c 667300   		.ascii	"fs\000"
 8268 080f 0E       		.byte	0xe
 8269 0810 8F       		.byte	0x8f
 8270 0811 EC070000 		.4byte	0x7ec
 8271 0815 00       		.byte	0
 8272 0816 0F       		.uleb128 0xf
ARM GAS  /tmp/ccZHgRNF.s 			page 147


 8273 0817 696400   		.ascii	"id\000"
 8274 081a 0E       		.byte	0xe
 8275 081b 90       		.byte	0x90
 8276 081c 3E000000 		.4byte	0x3e
 8277 0820 04       		.byte	0x4
 8278 0821 06       		.uleb128 0x6
 8279 0822 F8030000 		.4byte	.LASF130
 8280 0826 0E       		.byte	0xe
 8281 0827 91       		.byte	0x91
 8282 0828 3E000000 		.4byte	0x3e
 8283 082c 06       		.byte	0x6
 8284 082d 06       		.uleb128 0x6
 8285 082e 6D080000 		.4byte	.LASF125
 8286 0832 0E       		.byte	0xe
 8287 0833 92       		.byte	0x92
 8288 0834 70000000 		.4byte	0x70
 8289 0838 08       		.byte	0x8
 8290 0839 06       		.uleb128 0x6
 8291 083a FE010000 		.4byte	.LASF126
 8292 083e 0E       		.byte	0xe
 8293 083f 93       		.byte	0x93
 8294 0840 70000000 		.4byte	0x70
 8295 0844 0C       		.byte	0xc
 8296 0845 06       		.uleb128 0x6
 8297 0846 45010000 		.4byte	.LASF131
 8298 084a 0E       		.byte	0xe
 8299 084b 94       		.byte	0x94
 8300 084c 70000000 		.4byte	0x70
 8301 0850 10       		.byte	0x10
 8302 0851 0F       		.uleb128 0xf
 8303 0852 64697200 		.ascii	"dir\000"
 8304 0856 0E       		.byte	0xe
 8305 0857 95       		.byte	0x95
 8306 0858 F2070000 		.4byte	0x7f2
 8307 085c 14       		.byte	0x14
 8308 085d 0F       		.uleb128 0xf
 8309 085e 666E00   		.ascii	"fn\000"
 8310 0861 0E       		.byte	0xe
 8311 0862 96       		.byte	0x96
 8312 0863 F2070000 		.4byte	0x7f2
 8313 0867 18       		.byte	0x18
 8314 0868 00       		.byte	0
 8315 0869 19       		.uleb128 0x19
 8316 086a 44495200 		.ascii	"DIR\000"
 8317 086e 0E       		.byte	0xe
 8318 086f 9E       		.byte	0x9e
 8319 0870 03080000 		.4byte	0x803
 8320 0874 10       		.uleb128 0x10
 8321 0875 18       		.byte	0x18
 8322 0876 0E       		.byte	0xe
 8323 0877 A4       		.byte	0xa4
 8324 0878 B9080000 		.4byte	0x8b9
 8325 087c 06       		.uleb128 0x6
 8326 087d 9C000000 		.4byte	.LASF116
 8327 0881 0E       		.byte	0xe
 8328 0882 A5       		.byte	0xa5
 8329 0883 70000000 		.4byte	0x70
ARM GAS  /tmp/ccZHgRNF.s 			page 148


 8330 0887 00       		.byte	0
 8331 0888 06       		.uleb128 0x6
 8332 0889 CF070000 		.4byte	.LASF132
 8333 088d 0E       		.byte	0xe
 8334 088e A6       		.byte	0xa6
 8335 088f 3E000000 		.4byte	0x3e
 8336 0893 04       		.byte	0x4
 8337 0894 06       		.uleb128 0x6
 8338 0895 29010000 		.4byte	.LASF133
 8339 0899 0E       		.byte	0xe
 8340 089a A7       		.byte	0xa7
 8341 089b 3E000000 		.4byte	0x3e
 8342 089f 06       		.byte	0x6
 8343 08a0 06       		.uleb128 0x6
 8344 08a1 15070000 		.4byte	.LASF134
 8345 08a5 0E       		.byte	0xe
 8346 08a6 A8       		.byte	0xa8
 8347 08a7 25000000 		.4byte	0x25
 8348 08ab 08       		.byte	0x8
 8349 08ac 06       		.uleb128 0x6
 8350 08ad 38050000 		.4byte	.LASF135
 8351 08b1 0E       		.byte	0xe
 8352 08b2 A9       		.byte	0xa9
 8353 08b3 B9080000 		.4byte	0x8b9
 8354 08b7 09       		.byte	0x9
 8355 08b8 00       		.byte	0
 8356 08b9 15       		.uleb128 0x15
 8357 08ba 4C060000 		.4byte	0x64c
 8358 08be C9080000 		.4byte	0x8c9
 8359 08c2 16       		.uleb128 0x16
 8360 08c3 66040000 		.4byte	0x466
 8361 08c7 0C       		.byte	0xc
 8362 08c8 00       		.byte	0
 8363 08c9 02       		.uleb128 0x2
 8364 08ca 660A0000 		.4byte	.LASF136
 8365 08ce 0E       		.byte	0xe
 8366 08cf AE       		.byte	0xae
 8367 08d0 74080000 		.4byte	0x874
 8368 08d4 1A       		.uleb128 0x1a
 8369 08d5 01       		.byte	0x1
 8370 08d6 0E       		.byte	0xe
 8371 08d7 B4       		.byte	0xb4
 8372 08d8 55090000 		.4byte	0x955
 8373 08dc 1B       		.uleb128 0x1b
 8374 08dd C8090000 		.4byte	.LASF137
 8375 08e1 00       		.sleb128 0
 8376 08e2 1B       		.uleb128 0x1b
 8377 08e3 A0090000 		.4byte	.LASF138
 8378 08e7 01       		.sleb128 1
 8379 08e8 1B       		.uleb128 0x1b
 8380 08e9 E5010000 		.4byte	.LASF139
 8381 08ed 02       		.sleb128 2
 8382 08ee 1B       		.uleb128 0x1b
 8383 08ef C8020000 		.4byte	.LASF140
 8384 08f3 03       		.sleb128 3
 8385 08f4 1B       		.uleb128 0x1b
 8386 08f5 2F070000 		.4byte	.LASF141
ARM GAS  /tmp/ccZHgRNF.s 			page 149


 8387 08f9 04       		.sleb128 4
 8388 08fa 1B       		.uleb128 0x1b
 8389 08fb 87030000 		.4byte	.LASF142
 8390 08ff 05       		.sleb128 5
 8391 0900 1B       		.uleb128 0x1b
 8392 0901 2F010000 		.4byte	.LASF143
 8393 0905 06       		.sleb128 6
 8394 0906 1B       		.uleb128 0x1b
 8395 0907 49030000 		.4byte	.LASF144
 8396 090b 07       		.sleb128 7
 8397 090c 1B       		.uleb128 0x1b
 8398 090d FA090000 		.4byte	.LASF145
 8399 0911 08       		.sleb128 8
 8400 0912 1B       		.uleb128 0x1b
 8401 0913 7C070000 		.4byte	.LASF146
 8402 0917 09       		.sleb128 9
 8403 0918 1B       		.uleb128 0x1b
 8404 0919 C1010000 		.4byte	.LASF147
 8405 091d 0A       		.sleb128 10
 8406 091e 1B       		.uleb128 0x1b
 8407 091f C9030000 		.4byte	.LASF148
 8408 0923 0B       		.sleb128 11
 8409 0924 1B       		.uleb128 0x1b
 8410 0925 F6060000 		.4byte	.LASF149
 8411 0929 0C       		.sleb128 12
 8412 092a 1B       		.uleb128 0x1b
 8413 092b 150A0000 		.4byte	.LASF150
 8414 092f 0D       		.sleb128 13
 8415 0930 1B       		.uleb128 0x1b
 8416 0931 05070000 		.4byte	.LASF151
 8417 0935 0E       		.sleb128 14
 8418 0936 1B       		.uleb128 0x1b
 8419 0937 32080000 		.4byte	.LASF152
 8420 093b 0F       		.sleb128 15
 8421 093c 1B       		.uleb128 0x1b
 8422 093d 0D050000 		.4byte	.LASF153
 8423 0941 10       		.sleb128 16
 8424 0942 1B       		.uleb128 0x1b
 8425 0943 89060000 		.4byte	.LASF154
 8426 0947 11       		.sleb128 17
 8427 0948 1B       		.uleb128 0x1b
 8428 0949 6A020000 		.4byte	.LASF155
 8429 094d 12       		.sleb128 18
 8430 094e 1B       		.uleb128 0x1b
 8431 094f CE000000 		.4byte	.LASF156
 8432 0953 13       		.sleb128 19
 8433 0954 00       		.byte	0
 8434 0955 02       		.uleb128 0x2
 8435 0956 92030000 		.4byte	.LASF157
 8436 095a 0E       		.byte	0xe
 8437 095b C9       		.byte	0xc9
 8438 095c D4080000 		.4byte	0x8d4
 8439 0960 02       		.uleb128 0x2
 8440 0961 4C060000 		.4byte	.LASF158
 8441 0965 0F       		.byte	0xf
 8442 0966 13       		.byte	0x13
 8443 0967 25000000 		.4byte	0x25
ARM GAS  /tmp/ccZHgRNF.s 			page 150


 8444 096b 1A       		.uleb128 0x1a
 8445 096c 01       		.byte	0x1
 8446 096d 0F       		.byte	0xf
 8447 096e 16       		.byte	0x16
 8448 096f 92090000 		.4byte	0x992
 8449 0973 1B       		.uleb128 0x1b
 8450 0974 B5060000 		.4byte	.LASF159
 8451 0978 00       		.sleb128 0
 8452 0979 1B       		.uleb128 0x1b
 8453 097a 50010000 		.4byte	.LASF160
 8454 097e 01       		.sleb128 1
 8455 097f 1B       		.uleb128 0x1b
 8456 0980 4E080000 		.4byte	.LASF161
 8457 0984 02       		.sleb128 2
 8458 0985 1B       		.uleb128 0x1b
 8459 0986 9D070000 		.4byte	.LASF162
 8460 098a 03       		.sleb128 3
 8461 098b 1B       		.uleb128 0x1b
 8462 098c 59020000 		.4byte	.LASF163
 8463 0990 04       		.sleb128 4
 8464 0991 00       		.byte	0
 8465 0992 02       		.uleb128 0x2
 8466 0993 FF020000 		.4byte	.LASF164
 8467 0997 0F       		.byte	0xf
 8468 0998 1C       		.byte	0x1c
 8469 0999 6B090000 		.4byte	0x96b
 8470 099d 1C       		.uleb128 0x1c
 8471 099e 29000000 		.4byte	.LASF167
 8472 09a2 01       		.byte	0x1
 8473 09a3 F604     		.2byte	0x4f6
 8474 09a5 70000000 		.4byte	0x70
 8475 09a9 01       		.byte	0x1
 8476 09aa D1090000 		.4byte	0x9d1
 8477 09ae 1D       		.uleb128 0x1d
 8478 09af 667300   		.ascii	"fs\000"
 8479 09b2 01       		.byte	0x1
 8480 09b3 F704     		.2byte	0x4f7
 8481 09b5 EC070000 		.4byte	0x7ec
 8482 09b9 1D       		.uleb128 0x1d
 8483 09ba 64697200 		.ascii	"dir\000"
 8484 09be 01       		.byte	0x1
 8485 09bf F804     		.2byte	0x4f8
 8486 09c1 F2070000 		.4byte	0x7f2
 8487 09c5 1E       		.uleb128 0x1e
 8488 09c6 636C00   		.ascii	"cl\000"
 8489 09c9 01       		.byte	0x1
 8490 09ca FB04     		.2byte	0x4fb
 8491 09cc 70000000 		.4byte	0x70
 8492 09d0 00       		.byte	0
 8493 09d1 1F       		.uleb128 0x1f
 8494 09d2 29090000 		.4byte	.LASF165
 8495 09d6 01       		.byte	0x1
 8496 09d7 C706     		.2byte	0x6c7
 8497 09d9 01       		.byte	0x1
 8498 09da 220A0000 		.4byte	0xa22
 8499 09de 1D       		.uleb128 0x1d
 8500 09df 647000   		.ascii	"dp\000"
ARM GAS  /tmp/ccZHgRNF.s 			page 151


 8501 09e2 01       		.byte	0x1
 8502 09e3 C806     		.2byte	0x6c8
 8503 09e5 220A0000 		.4byte	0xa22
 8504 09e9 1D       		.uleb128 0x1d
 8505 09ea 666E6F00 		.ascii	"fno\000"
 8506 09ee 01       		.byte	0x1
 8507 09ef C906     		.2byte	0x6c9
 8508 09f1 280A0000 		.4byte	0xa28
 8509 09f5 1E       		.uleb128 0x1e
 8510 09f6 6900     		.ascii	"i\000"
 8511 09f8 01       		.byte	0x1
 8512 09f9 CC06     		.2byte	0x6cc
 8513 09fb 57000000 		.4byte	0x57
 8514 09ff 1E       		.uleb128 0x1e
 8515 0a00 7000     		.ascii	"p\000"
 8516 0a02 01       		.byte	0x1
 8517 0a03 CD06     		.2byte	0x6cd
 8518 0a05 2E0A0000 		.4byte	0xa2e
 8519 0a09 1E       		.uleb128 0x1e
 8520 0a0a 6300     		.ascii	"c\000"
 8521 0a0c 01       		.byte	0x1
 8522 0a0d CD06     		.2byte	0x6cd
 8523 0a0f 4C060000 		.4byte	0x64c
 8524 0a13 20       		.uleb128 0x20
 8525 0a14 1E       		.uleb128 0x1e
 8526 0a15 64697200 		.ascii	"dir\000"
 8527 0a19 01       		.byte	0x1
 8528 0a1a D206     		.2byte	0x6d2
 8529 0a1c F2070000 		.4byte	0x7f2
 8530 0a20 00       		.byte	0
 8531 0a21 00       		.byte	0
 8532 0a22 09       		.uleb128 0x9
 8533 0a23 04       		.byte	0x4
 8534 0a24 69080000 		.4byte	0x869
 8535 0a28 09       		.uleb128 0x9
 8536 0a29 04       		.byte	0x4
 8537 0a2a C9080000 		.4byte	0x8c9
 8538 0a2e 09       		.uleb128 0x9
 8539 0a2f 04       		.byte	0x4
 8540 0a30 4C060000 		.4byte	0x64c
 8541 0a34 1F       		.uleb128 0x1f
 8542 0a35 6E030000 		.4byte	.LASF166
 8543 0a39 01       		.byte	0x1
 8544 0a3a 4302     		.2byte	0x243
 8545 0a3c 01       		.byte	0x1
 8546 0a3d 700A0000 		.4byte	0xa70
 8547 0a41 1D       		.uleb128 0x1d
 8548 0a42 64737400 		.ascii	"dst\000"
 8549 0a46 01       		.byte	0x1
 8550 0a47 4302     		.2byte	0x243
 8551 0a49 30030000 		.4byte	0x330
 8552 0a4d 1D       		.uleb128 0x1d
 8553 0a4e 76616C00 		.ascii	"val\000"
 8554 0a52 01       		.byte	0x1
 8555 0a53 4302     		.2byte	0x243
 8556 0a55 50000000 		.4byte	0x50
 8557 0a59 1D       		.uleb128 0x1d
ARM GAS  /tmp/ccZHgRNF.s 			page 152


 8558 0a5a 636E7400 		.ascii	"cnt\000"
 8559 0a5e 01       		.byte	0x1
 8560 0a5f 4302     		.2byte	0x243
 8561 0a61 57000000 		.4byte	0x57
 8562 0a65 1E       		.uleb128 0x1e
 8563 0a66 6400     		.ascii	"d\000"
 8564 0a68 01       		.byte	0x1
 8565 0a69 4402     		.2byte	0x244
 8566 0a6b F2070000 		.4byte	0x7f2
 8567 0a6f 00       		.byte	0
 8568 0a70 1C       		.uleb128 0x1c
 8569 0a71 DD010000 		.4byte	.LASF168
 8570 0a75 01       		.byte	0x1
 8571 0a76 5602     		.2byte	0x256
 8572 0a78 50000000 		.4byte	0x50
 8573 0a7c 01       		.byte	0x1
 8574 0a7d 9A0A0000 		.4byte	0xa9a
 8575 0a81 1D       		.uleb128 0x1d
 8576 0a82 73747200 		.ascii	"str\000"
 8577 0a86 01       		.byte	0x1
 8578 0a87 5602     		.2byte	0x256
 8579 0a89 0E060000 		.4byte	0x60e
 8580 0a8d 1D       		.uleb128 0x1d
 8581 0a8e 63687200 		.ascii	"chr\000"
 8582 0a92 01       		.byte	0x1
 8583 0a93 5602     		.2byte	0x256
 8584 0a95 50000000 		.4byte	0x50
 8585 0a99 00       		.byte	0
 8586 0a9a 1C       		.uleb128 0x1c
 8587 0a9b 0B080000 		.4byte	.LASF169
 8588 0a9f 01       		.byte	0x1
 8589 0aa0 0D07     		.2byte	0x70d
 8590 0aa2 55090000 		.4byte	0x955
 8591 0aa6 01       		.byte	0x1
 8592 0aa7 170B0000 		.4byte	0xb17
 8593 0aab 1D       		.uleb128 0x1d
 8594 0aac 647000   		.ascii	"dp\000"
 8595 0aaf 01       		.byte	0x1
 8596 0ab0 0E07     		.2byte	0x70e
 8597 0ab2 220A0000 		.4byte	0xa22
 8598 0ab6 21       		.uleb128 0x21
 8599 0ab7 67000000 		.4byte	.LASF170
 8600 0abb 01       		.byte	0x1
 8601 0abc 0F07     		.2byte	0x70f
 8602 0abe 170B0000 		.4byte	0xb17
 8603 0ac2 1E       		.uleb128 0x1e
 8604 0ac3 6200     		.ascii	"b\000"
 8605 0ac5 01       		.byte	0x1
 8606 0ac6 8C07     		.2byte	0x78c
 8607 0ac8 25000000 		.4byte	0x25
 8608 0acc 1E       		.uleb128 0x1e
 8609 0acd 6300     		.ascii	"c\000"
 8610 0acf 01       		.byte	0x1
 8611 0ad0 8C07     		.2byte	0x78c
 8612 0ad2 25000000 		.4byte	0x25
 8613 0ad6 1E       		.uleb128 0x1e
 8614 0ad7 6400     		.ascii	"d\000"
ARM GAS  /tmp/ccZHgRNF.s 			page 153


 8615 0ad9 01       		.byte	0x1
 8616 0ada 8C07     		.2byte	0x78c
 8617 0adc 25000000 		.4byte	0x25
 8618 0ae0 1E       		.uleb128 0x1e
 8619 0ae1 73666E00 		.ascii	"sfn\000"
 8620 0ae5 01       		.byte	0x1
 8621 0ae6 8C07     		.2byte	0x78c
 8622 0ae8 F2070000 		.4byte	0x7f2
 8623 0aec 1E       		.uleb128 0x1e
 8624 0aed 6E6900   		.ascii	"ni\000"
 8625 0af0 01       		.byte	0x1
 8626 0af1 8D07     		.2byte	0x78d
 8627 0af3 57000000 		.4byte	0x57
 8628 0af7 1E       		.uleb128 0x1e
 8629 0af8 736900   		.ascii	"si\000"
 8630 0afb 01       		.byte	0x1
 8631 0afc 8D07     		.2byte	0x78d
 8632 0afe 57000000 		.4byte	0x57
 8633 0b02 1E       		.uleb128 0x1e
 8634 0b03 6900     		.ascii	"i\000"
 8635 0b05 01       		.byte	0x1
 8636 0b06 8D07     		.2byte	0x78d
 8637 0b08 57000000 		.4byte	0x57
 8638 0b0c 1E       		.uleb128 0x1e
 8639 0b0d 7000     		.ascii	"p\000"
 8640 0b0f 01       		.byte	0x1
 8641 0b10 8E07     		.2byte	0x78e
 8642 0b12 0E060000 		.4byte	0x60e
 8643 0b16 00       		.byte	0
 8644 0b17 09       		.uleb128 0x9
 8645 0b18 04       		.byte	0x4
 8646 0b19 1D0B0000 		.4byte	0xb1d
 8647 0b1d 09       		.uleb128 0x9
 8648 0b1e 04       		.byte	0x4
 8649 0b1f 230B0000 		.4byte	0xb23
 8650 0b23 13       		.uleb128 0x13
 8651 0b24 4C060000 		.4byte	0x64c
 8652 0b28 1C       		.uleb128 0x1c
 8653 0b29 E9040000 		.4byte	.LASF171
 8654 0b2d 01       		.byte	0x1
 8655 0b2e F302     		.2byte	0x2f3
 8656 0b30 55090000 		.4byte	0x955
 8657 0b34 01       		.byte	0x1
 8658 0b35 5C0B0000 		.4byte	0xb5c
 8659 0b39 1D       		.uleb128 0x1d
 8660 0b3a 667300   		.ascii	"fs\000"
 8661 0b3d 01       		.byte	0x1
 8662 0b3e F402     		.2byte	0x2f4
 8663 0b40 EC070000 		.4byte	0x7ec
 8664 0b44 22       		.uleb128 0x22
 8665 0b45 15020000 		.4byte	.LASF172
 8666 0b49 01       		.byte	0x1
 8667 0b4a F702     		.2byte	0x2f7
 8668 0b4c 70000000 		.4byte	0x70
 8669 0b50 1E       		.uleb128 0x1e
 8670 0b51 6E6600   		.ascii	"nf\000"
 8671 0b54 01       		.byte	0x1
ARM GAS  /tmp/ccZHgRNF.s 			page 154


 8672 0b55 F802     		.2byte	0x2f8
 8673 0b57 57000000 		.4byte	0x57
 8674 0b5b 00       		.byte	0
 8675 0b5c 1C       		.uleb128 0x1c
 8676 0b5d EA000000 		.4byte	.LASF173
 8677 0b61 01       		.byte	0x1
 8678 0b62 0D03     		.2byte	0x30d
 8679 0b64 55090000 		.4byte	0x955
 8680 0b68 01       		.byte	0x1
 8681 0b69 850B0000 		.4byte	0xb85
 8682 0b6d 1D       		.uleb128 0x1d
 8683 0b6e 667300   		.ascii	"fs\000"
 8684 0b71 01       		.byte	0x1
 8685 0b72 0E03     		.2byte	0x30e
 8686 0b74 EC070000 		.4byte	0x7ec
 8687 0b78 21       		.uleb128 0x21
 8688 0b79 82060000 		.4byte	.LASF174
 8689 0b7d 01       		.byte	0x1
 8690 0b7e 0F03     		.2byte	0x30f
 8691 0b80 70000000 		.4byte	0x70
 8692 0b84 00       		.byte	0
 8693 0b85 1C       		.uleb128 0x1c
 8694 0b86 65010000 		.4byte	.LASF175
 8695 0b8a 01       		.byte	0x1
 8696 0b8b 5808     		.2byte	0x858
 8697 0b8d 25000000 		.4byte	0x25
 8698 0b91 01       		.byte	0x1
 8699 0b92 AE0B0000 		.4byte	0xbae
 8700 0b96 1D       		.uleb128 0x1d
 8701 0b97 667300   		.ascii	"fs\000"
 8702 0b9a 01       		.byte	0x1
 8703 0b9b 5908     		.2byte	0x859
 8704 0b9d EC070000 		.4byte	0x7ec
 8705 0ba1 21       		.uleb128 0x21
 8706 0ba2 45010000 		.4byte	.LASF131
 8707 0ba6 01       		.byte	0x1
 8708 0ba7 5A08     		.2byte	0x85a
 8709 0ba9 70000000 		.4byte	0x70
 8710 0bad 00       		.byte	0
 8711 0bae 23       		.uleb128 0x23
 8712 0baf 04020000 		.4byte	.LASF177
 8713 0bb3 01       		.byte	0x1
 8714 0bb4 6103     		.2byte	0x361
 8715 0bb6 70000000 		.4byte	0x70
 8716 0bba 01       		.byte	0x1
 8717 0bbb F70B0000 		.4byte	0xbf7
 8718 0bbf 1D       		.uleb128 0x1d
 8719 0bc0 667300   		.ascii	"fs\000"
 8720 0bc3 01       		.byte	0x1
 8721 0bc4 6203     		.2byte	0x362
 8722 0bc6 EC070000 		.4byte	0x7ec
 8723 0bca 21       		.uleb128 0x21
 8724 0bcb AE040000 		.4byte	.LASF176
 8725 0bcf 01       		.byte	0x1
 8726 0bd0 6303     		.2byte	0x363
 8727 0bd2 70000000 		.4byte	0x70
 8728 0bd6 1E       		.uleb128 0x1e
ARM GAS  /tmp/ccZHgRNF.s 			page 155


 8729 0bd7 776300   		.ascii	"wc\000"
 8730 0bda 01       		.byte	0x1
 8731 0bdb 6603     		.2byte	0x366
 8732 0bdd 57000000 		.4byte	0x57
 8733 0be1 1E       		.uleb128 0x1e
 8734 0be2 626300   		.ascii	"bc\000"
 8735 0be5 01       		.byte	0x1
 8736 0be6 6603     		.2byte	0x366
 8737 0be8 57000000 		.4byte	0x57
 8738 0bec 1E       		.uleb128 0x1e
 8739 0bed 7000     		.ascii	"p\000"
 8740 0bef 01       		.byte	0x1
 8741 0bf0 6703     		.2byte	0x367
 8742 0bf2 F2070000 		.4byte	0x7f2
 8743 0bf6 00       		.byte	0
 8744 0bf7 23       		.uleb128 0x23
 8745 0bf8 DE040000 		.4byte	.LASF178
 8746 0bfc 01       		.byte	0x1
 8747 0bfd 4F03     		.2byte	0x34f
 8748 0bff 70000000 		.4byte	0x70
 8749 0c03 01       		.byte	0x1
 8750 0c04 200C0000 		.4byte	0xc20
 8751 0c08 1D       		.uleb128 0x1d
 8752 0c09 667300   		.ascii	"fs\000"
 8753 0c0c 01       		.byte	0x1
 8754 0c0d 5003     		.2byte	0x350
 8755 0c0f EC070000 		.4byte	0x7ec
 8756 0c13 21       		.uleb128 0x21
 8757 0c14 AE040000 		.4byte	.LASF176
 8758 0c18 01       		.byte	0x1
 8759 0c19 5103     		.2byte	0x351
 8760 0c1b 70000000 		.4byte	0x70
 8761 0c1f 00       		.byte	0
 8762 0c20 1C       		.uleb128 0x1c
 8763 0c21 76030000 		.4byte	.LASF179
 8764 0c25 01       		.byte	0x1
 8765 0c26 9806     		.2byte	0x698
 8766 0c28 55090000 		.4byte	0x955
 8767 0c2c 01       		.byte	0x1
 8768 0c2d 490C0000 		.4byte	0xc49
 8769 0c31 1D       		.uleb128 0x1d
 8770 0c32 647000   		.ascii	"dp\000"
 8771 0c35 01       		.byte	0x1
 8772 0c36 9906     		.2byte	0x699
 8773 0c38 220A0000 		.4byte	0xa22
 8774 0c3c 1E       		.uleb128 0x1e
 8775 0c3d 72657300 		.ascii	"res\000"
 8776 0c41 01       		.byte	0x1
 8777 0c42 9C06     		.2byte	0x69c
 8778 0c44 55090000 		.4byte	0x955
 8779 0c48 00       		.byte	0
 8780 0c49 23       		.uleb128 0x23
 8781 0c4a A6040000 		.4byte	.LASF180
 8782 0c4e 01       		.byte	0x1
 8783 0c4f 8F03     		.2byte	0x38f
 8784 0c51 55090000 		.4byte	0x955
 8785 0c55 01       		.byte	0x1
ARM GAS  /tmp/ccZHgRNF.s 			page 156


 8786 0c56 9F0C0000 		.4byte	0xc9f
 8787 0c5a 1D       		.uleb128 0x1d
 8788 0c5b 667300   		.ascii	"fs\000"
 8789 0c5e 01       		.byte	0x1
 8790 0c5f 9003     		.2byte	0x390
 8791 0c61 EC070000 		.4byte	0x7ec
 8792 0c65 21       		.uleb128 0x21
 8793 0c66 AE040000 		.4byte	.LASF176
 8794 0c6a 01       		.byte	0x1
 8795 0c6b 9103     		.2byte	0x391
 8796 0c6d 70000000 		.4byte	0x70
 8797 0c71 1D       		.uleb128 0x1d
 8798 0c72 76616C00 		.ascii	"val\000"
 8799 0c76 01       		.byte	0x1
 8800 0c77 9203     		.2byte	0x392
 8801 0c79 70000000 		.4byte	0x70
 8802 0c7d 1E       		.uleb128 0x1e
 8803 0c7e 626300   		.ascii	"bc\000"
 8804 0c81 01       		.byte	0x1
 8805 0c82 9503     		.2byte	0x395
 8806 0c84 57000000 		.4byte	0x57
 8807 0c88 1E       		.uleb128 0x1e
 8808 0c89 7000     		.ascii	"p\000"
 8809 0c8b 01       		.byte	0x1
 8810 0c8c 9603     		.2byte	0x396
 8811 0c8e F2070000 		.4byte	0x7f2
 8812 0c92 1E       		.uleb128 0x1e
 8813 0c93 72657300 		.ascii	"res\000"
 8814 0c97 01       		.byte	0x1
 8815 0c98 9703     		.2byte	0x397
 8816 0c9a 55090000 		.4byte	0x955
 8817 0c9e 00       		.byte	0
 8818 0c9f 1C       		.uleb128 0x1c
 8819 0ca0 C1030000 		.4byte	.LASF181
 8820 0ca4 01       		.byte	0x1
 8821 0ca5 4C02     		.2byte	0x24c
 8822 0ca7 50000000 		.4byte	0x50
 8823 0cab 01       		.byte	0x1
 8824 0cac F30C0000 		.4byte	0xcf3
 8825 0cb0 1D       		.uleb128 0x1d
 8826 0cb1 64737400 		.ascii	"dst\000"
 8827 0cb5 01       		.byte	0x1
 8828 0cb6 4C02     		.2byte	0x24c
 8829 0cb8 F30C0000 		.4byte	0xcf3
 8830 0cbc 1D       		.uleb128 0x1d
 8831 0cbd 73726300 		.ascii	"src\000"
 8832 0cc1 01       		.byte	0x1
 8833 0cc2 4C02     		.2byte	0x24c
 8834 0cc4 F30C0000 		.4byte	0xcf3
 8835 0cc8 1D       		.uleb128 0x1d
 8836 0cc9 636E7400 		.ascii	"cnt\000"
 8837 0ccd 01       		.byte	0x1
 8838 0cce 4C02     		.2byte	0x24c
 8839 0cd0 57000000 		.4byte	0x57
 8840 0cd4 1E       		.uleb128 0x1e
 8841 0cd5 6400     		.ascii	"d\000"
 8842 0cd7 01       		.byte	0x1
ARM GAS  /tmp/ccZHgRNF.s 			page 157


 8843 0cd8 4D02     		.2byte	0x24d
 8844 0cda FA0C0000 		.4byte	0xcfa
 8845 0cde 1E       		.uleb128 0x1e
 8846 0cdf 7300     		.ascii	"s\000"
 8847 0ce1 01       		.byte	0x1
 8848 0ce2 4D02     		.2byte	0x24d
 8849 0ce4 FA0C0000 		.4byte	0xcfa
 8850 0ce8 1E       		.uleb128 0x1e
 8851 0ce9 7200     		.ascii	"r\000"
 8852 0ceb 01       		.byte	0x1
 8853 0cec 4E02     		.2byte	0x24e
 8854 0cee 50000000 		.4byte	0x50
 8855 0cf2 00       		.byte	0
 8856 0cf3 09       		.uleb128 0x9
 8857 0cf4 04       		.byte	0x4
 8858 0cf5 F90C0000 		.4byte	0xcf9
 8859 0cf9 24       		.uleb128 0x24
 8860 0cfa 09       		.uleb128 0x9
 8861 0cfb 04       		.byte	0x4
 8862 0cfc 000D0000 		.4byte	0xd00
 8863 0d00 13       		.uleb128 0x13
 8864 0d01 25000000 		.4byte	0x25
 8865 0d05 1F       		.uleb128 0x1f
 8866 0d06 05050000 		.4byte	.LASF182
 8867 0d0a 01       		.byte	0x1
 8868 0d0b 3202     		.2byte	0x232
 8869 0d0d 01       		.byte	0x1
 8870 0d0e 4B0D0000 		.4byte	0xd4b
 8871 0d12 1D       		.uleb128 0x1d
 8872 0d13 64737400 		.ascii	"dst\000"
 8873 0d17 01       		.byte	0x1
 8874 0d18 3202     		.2byte	0x232
 8875 0d1a 30030000 		.4byte	0x330
 8876 0d1e 1D       		.uleb128 0x1d
 8877 0d1f 73726300 		.ascii	"src\000"
 8878 0d23 01       		.byte	0x1
 8879 0d24 3202     		.2byte	0x232
 8880 0d26 F30C0000 		.4byte	0xcf3
 8881 0d2a 1D       		.uleb128 0x1d
 8882 0d2b 636E7400 		.ascii	"cnt\000"
 8883 0d2f 01       		.byte	0x1
 8884 0d30 3202     		.2byte	0x232
 8885 0d32 57000000 		.4byte	0x57
 8886 0d36 1E       		.uleb128 0x1e
 8887 0d37 6400     		.ascii	"d\000"
 8888 0d39 01       		.byte	0x1
 8889 0d3a 3302     		.2byte	0x233
 8890 0d3c F2070000 		.4byte	0x7f2
 8891 0d40 1E       		.uleb128 0x1e
 8892 0d41 7300     		.ascii	"s\000"
 8893 0d43 01       		.byte	0x1
 8894 0d44 3402     		.2byte	0x234
 8895 0d46 FA0C0000 		.4byte	0xcfa
 8896 0d4a 00       		.byte	0
 8897 0d4b 1C       		.uleb128 0x1c
 8898 0d4c 7E040000 		.4byte	.LASF183
 8899 0d50 01       		.byte	0x1
ARM GAS  /tmp/ccZHgRNF.s 			page 158


 8900 0d51 4A06     		.2byte	0x64a
 8901 0d53 55090000 		.4byte	0x955
 8902 0d57 01       		.byte	0x1
 8903 0d58 740D0000 		.4byte	0xd74
 8904 0d5c 1D       		.uleb128 0x1d
 8905 0d5d 647000   		.ascii	"dp\000"
 8906 0d60 01       		.byte	0x1
 8907 0d61 4B06     		.2byte	0x64b
 8908 0d63 220A0000 		.4byte	0xa22
 8909 0d67 1E       		.uleb128 0x1e
 8910 0d68 72657300 		.ascii	"res\000"
 8911 0d6c 01       		.byte	0x1
 8912 0d6d 4E06     		.2byte	0x64e
 8913 0d6f 55090000 		.4byte	0x955
 8914 0d73 00       		.byte	0
 8915 0d74 1C       		.uleb128 0x1c
 8916 0d75 9A030000 		.4byte	.LASF184
 8917 0d79 01       		.byte	0x1
 8918 0d7a CE03     		.2byte	0x3ce
 8919 0d7c 55090000 		.4byte	0x955
 8920 0d80 01       		.byte	0x1
 8921 0d81 B50D0000 		.4byte	0xdb5
 8922 0d85 1D       		.uleb128 0x1d
 8923 0d86 667300   		.ascii	"fs\000"
 8924 0d89 01       		.byte	0x1
 8925 0d8a CF03     		.2byte	0x3cf
 8926 0d8c EC070000 		.4byte	0x7ec
 8927 0d90 21       		.uleb128 0x21
 8928 0d91 AE040000 		.4byte	.LASF176
 8929 0d95 01       		.byte	0x1
 8930 0d96 D003     		.2byte	0x3d0
 8931 0d98 70000000 		.4byte	0x70
 8932 0d9c 1E       		.uleb128 0x1e
 8933 0d9d 72657300 		.ascii	"res\000"
 8934 0da1 01       		.byte	0x1
 8935 0da2 D303     		.2byte	0x3d3
 8936 0da4 55090000 		.4byte	0x955
 8937 0da8 1E       		.uleb128 0x1e
 8938 0da9 6E787400 		.ascii	"nxt\000"
 8939 0dad 01       		.byte	0x1
 8940 0dae D403     		.2byte	0x3d4
 8941 0db0 70000000 		.4byte	0x70
 8942 0db4 00       		.byte	0
 8943 0db5 1F       		.uleb128 0x1f
 8944 0db6 BF090000 		.4byte	.LASF185
 8945 0dba 01       		.byte	0x1
 8946 0dbb 0705     		.2byte	0x507
 8947 0dbd 01       		.byte	0x1
 8948 0dbe DA0D0000 		.4byte	0xdda
 8949 0dc2 1D       		.uleb128 0x1d
 8950 0dc3 64697200 		.ascii	"dir\000"
 8951 0dc7 01       		.byte	0x1
 8952 0dc8 0805     		.2byte	0x508
 8953 0dca F2070000 		.4byte	0x7f2
 8954 0dce 1D       		.uleb128 0x1d
 8955 0dcf 636C00   		.ascii	"cl\000"
 8956 0dd2 01       		.byte	0x1
ARM GAS  /tmp/ccZHgRNF.s 			page 159


 8957 0dd3 0905     		.2byte	0x509
 8958 0dd5 70000000 		.4byte	0x70
 8959 0dd9 00       		.byte	0
 8960 0dda 1C       		.uleb128 0x1c
 8961 0ddb DF060000 		.4byte	.LASF186
 8962 0ddf 01       		.byte	0x1
 8963 0de0 D204     		.2byte	0x4d2
 8964 0de2 55090000 		.4byte	0x955
 8965 0de6 01       		.byte	0x1
 8966 0de7 190E0000 		.4byte	0xe19
 8967 0deb 1D       		.uleb128 0x1d
 8968 0dec 647000   		.ascii	"dp\000"
 8969 0def 01       		.byte	0x1
 8970 0df0 D304     		.2byte	0x4d3
 8971 0df2 220A0000 		.4byte	0xa22
 8972 0df6 21       		.uleb128 0x21
 8973 0df7 610A0000 		.4byte	.LASF187
 8974 0dfb 01       		.byte	0x1
 8975 0dfc D404     		.2byte	0x4d4
 8976 0dfe 57000000 		.4byte	0x57
 8977 0e02 1E       		.uleb128 0x1e
 8978 0e03 72657300 		.ascii	"res\000"
 8979 0e07 01       		.byte	0x1
 8980 0e08 D704     		.2byte	0x4d7
 8981 0e0a 55090000 		.4byte	0x955
 8982 0e0e 1E       		.uleb128 0x1e
 8983 0e0f 6E00     		.ascii	"n\000"
 8984 0e11 01       		.byte	0x1
 8985 0e12 D804     		.2byte	0x4d8
 8986 0e14 57000000 		.4byte	0x57
 8987 0e18 00       		.byte	0
 8988 0e19 1C       		.uleb128 0x1c
 8989 0e1a 1D070000 		.4byte	.LASF188
 8990 0e1e 01       		.byte	0x1
 8991 0e1f 0F06     		.2byte	0x60f
 8992 0e21 55090000 		.4byte	0x955
 8993 0e25 01       		.byte	0x1
 8994 0e26 6E0E0000 		.4byte	0xe6e
 8995 0e2a 1D       		.uleb128 0x1d
 8996 0e2b 647000   		.ascii	"dp\000"
 8997 0e2e 01       		.byte	0x1
 8998 0e2f 1006     		.2byte	0x610
 8999 0e31 220A0000 		.4byte	0xa22
 9000 0e35 1D       		.uleb128 0x1d
 9001 0e36 766F6C00 		.ascii	"vol\000"
 9002 0e3a 01       		.byte	0x1
 9003 0e3b 1106     		.2byte	0x611
 9004 0e3d 50000000 		.4byte	0x50
 9005 0e41 1E       		.uleb128 0x1e
 9006 0e42 72657300 		.ascii	"res\000"
 9007 0e46 01       		.byte	0x1
 9008 0e47 1406     		.2byte	0x614
 9009 0e49 55090000 		.4byte	0x955
 9010 0e4d 1E       		.uleb128 0x1e
 9011 0e4e 6100     		.ascii	"a\000"
 9012 0e50 01       		.byte	0x1
 9013 0e51 1506     		.2byte	0x615
ARM GAS  /tmp/ccZHgRNF.s 			page 160


 9014 0e53 25000000 		.4byte	0x25
 9015 0e57 1E       		.uleb128 0x1e
 9016 0e58 6300     		.ascii	"c\000"
 9017 0e5a 01       		.byte	0x1
 9018 0e5b 1506     		.2byte	0x615
 9019 0e5d 25000000 		.4byte	0x25
 9020 0e61 1E       		.uleb128 0x1e
 9021 0e62 64697200 		.ascii	"dir\000"
 9022 0e66 01       		.byte	0x1
 9023 0e67 1506     		.2byte	0x615
 9024 0e69 F2070000 		.4byte	0x7f2
 9025 0e6d 00       		.byte	0
 9026 0e6e 25       		.uleb128 0x25
 9027 0e6f 83000000 		.4byte	.LASF189
 9028 0e73 01       		.byte	0x1
 9029 0e74 1D08     		.2byte	0x81d
 9030 0e76 50000000 		.4byte	0x50
 9031 0e7a 00000000 		.4byte	.LFB265
 9032 0e7e 42000000 		.4byte	.LFE265-.LFB265
 9033 0e82 01       		.uleb128 0x1
 9034 0e83 9C       		.byte	0x9c
 9035 0e84 D50E0000 		.4byte	0xed5
 9036 0e88 26       		.uleb128 0x26
 9037 0e89 67000000 		.4byte	.LASF170
 9038 0e8d 01       		.byte	0x1
 9039 0e8e 1E08     		.2byte	0x81e
 9040 0e90 170B0000 		.4byte	0xb17
 9041 0e94 00000000 		.4byte	.LLST0
 9042 0e98 27       		.uleb128 0x27
 9043 0e99 747000   		.ascii	"tp\000"
 9044 0e9c 01       		.byte	0x1
 9045 0e9d 2108     		.2byte	0x821
 9046 0e9f 1D0B0000 		.4byte	0xb1d
 9047 0ea3 53000000 		.4byte	.LLST1
 9048 0ea7 27       		.uleb128 0x27
 9049 0ea8 747400   		.ascii	"tt\000"
 9050 0eab 01       		.byte	0x1
 9051 0eac 2108     		.2byte	0x821
 9052 0eae 1D0B0000 		.4byte	0xb1d
 9053 0eb2 71000000 		.4byte	.LLST2
 9054 0eb6 27       		.uleb128 0x27
 9055 0eb7 6900     		.ascii	"i\000"
 9056 0eb9 01       		.byte	0x1
 9057 0eba 2208     		.2byte	0x822
 9058 0ebc 57000000 		.4byte	0x57
 9059 0ec0 E0000000 		.4byte	.LLST3
 9060 0ec4 27       		.uleb128 0x27
 9061 0ec5 766F6C00 		.ascii	"vol\000"
 9062 0ec9 01       		.byte	0x1
 9063 0eca 2308     		.2byte	0x823
 9064 0ecc 50000000 		.4byte	0x50
 9065 0ed0 0E010000 		.4byte	.LLST4
 9066 0ed4 00       		.byte	0
 9067 0ed5 25       		.uleb128 0x25
 9068 0ed6 0C020000 		.4byte	.LASF190
 9069 0eda 01       		.byte	0x1
 9070 0edb 1F09     		.2byte	0x91f
ARM GAS  /tmp/ccZHgRNF.s 			page 161


 9071 0edd 55090000 		.4byte	0x955
 9072 0ee1 00000000 		.4byte	.LFB268
 9073 0ee5 2A000000 		.4byte	.LFE268-.LFB268
 9074 0ee9 01       		.uleb128 0x1
 9075 0eea 9C       		.byte	0x9c
 9076 0eeb 190F0000 		.4byte	0xf19
 9077 0eef 28       		.uleb128 0x28
 9078 0ef0 6F626A00 		.ascii	"obj\000"
 9079 0ef4 01       		.byte	0x1
 9080 0ef5 2009     		.2byte	0x920
 9081 0ef7 30030000 		.4byte	0x330
 9082 0efb 43010000 		.4byte	.LLST5
 9083 0eff 27       		.uleb128 0x27
 9084 0f00 66696C00 		.ascii	"fil\000"
 9085 0f04 01       		.byte	0x1
 9086 0f05 2309     		.2byte	0x923
 9087 0f07 190F0000 		.4byte	0xf19
 9088 0f0b 43010000 		.4byte	.LLST5
 9089 0f0f 29       		.uleb128 0x29
 9090 0f10 1E000000 		.4byte	.LVL19
 9091 0f14 A6380000 		.4byte	0x38a6
 9092 0f18 00       		.byte	0
 9093 0f19 09       		.uleb128 0x9
 9094 0f1a 04       		.byte	0x4
 9095 0f1b F8070000 		.4byte	0x7f8
 9096 0f1f 2A       		.uleb128 0x2a
 9097 0f20 D1090000 		.4byte	0x9d1
 9098 0f24 00000000 		.4byte	.LFB288
 9099 0f28 68000000 		.4byte	.LFE288-.LFB288
 9100 0f2c 01       		.uleb128 0x1
 9101 0f2d 9C       		.byte	0x9c
 9102 0f2e 800F0000 		.4byte	0xf80
 9103 0f32 2B       		.uleb128 0x2b
 9104 0f33 E9090000 		.4byte	0x9e9
 9105 0f37 01       		.uleb128 0x1
 9106 0f38 52       		.byte	0x52
 9107 0f39 2B       		.uleb128 0x2b
 9108 0f3a DE090000 		.4byte	0x9de
 9109 0f3e 06       		.uleb128 0x6
 9110 0f3f FA       		.byte	0xfa
 9111 0f40 DE090000 		.4byte	0x9de
 9112 0f44 9F       		.byte	0x9f
 9113 0f45 2B       		.uleb128 0x2b
 9114 0f46 DE090000 		.4byte	0x9de
 9115 0f4a 06       		.uleb128 0x6
 9116 0f4b FA       		.byte	0xfa
 9117 0f4c DE090000 		.4byte	0x9de
 9118 0f50 9F       		.byte	0x9f
 9119 0f51 2C       		.uleb128 0x2c
 9120 0f52 F5090000 		.4byte	0x9f5
 9121 0f56 7D010000 		.4byte	.LLST7
 9122 0f5a 2C       		.uleb128 0x2c
 9123 0f5b FF090000 		.4byte	0x9ff
 9124 0f5f 9C010000 		.4byte	.LLST8
 9125 0f63 2C       		.uleb128 0x2c
 9126 0f64 090A0000 		.4byte	0xa09
 9127 0f68 C7010000 		.4byte	.LLST9
ARM GAS  /tmp/ccZHgRNF.s 			page 162


 9128 0f6c 2D       		.uleb128 0x2d
 9129 0f6d 08000000 		.4byte	.LBB148
 9130 0f71 58000000 		.4byte	.LBE148-.LBB148
 9131 0f75 2C       		.uleb128 0x2c
 9132 0f76 140A0000 		.4byte	0xa14
 9133 0f7a EB010000 		.4byte	.LLST10
 9134 0f7e 00       		.byte	0
 9135 0f7f 00       		.byte	0
 9136 0f80 2A       		.uleb128 0x2a
 9137 0f81 280B0000 		.4byte	0xb28
 9138 0f85 00000000 		.4byte	.LFB290
 9139 0f89 4A000000 		.4byte	.LFE290-.LFB290
 9140 0f8d 01       		.uleb128 0x1
 9141 0f8e 9C       		.byte	0x9c
 9142 0f8f E70F0000 		.4byte	0xfe7
 9143 0f93 2E       		.uleb128 0x2e
 9144 0f94 390B0000 		.4byte	0xb39
 9145 0f98 FE010000 		.4byte	.LLST11
 9146 0f9c 2F       		.uleb128 0x2f
 9147 0f9d 440B0000 		.4byte	0xb44
 9148 0fa1 01       		.uleb128 0x1
 9149 0fa2 54       		.byte	0x54
 9150 0fa3 2C       		.uleb128 0x2c
 9151 0fa4 500B0000 		.4byte	0xb50
 9152 0fa8 1C020000 		.4byte	.LLST12
 9153 0fac 30       		.uleb128 0x30
 9154 0fad 16000000 		.4byte	.LVL36
 9155 0fb1 BB380000 		.4byte	0x38bb
 9156 0fb5 CB0F0000 		.4byte	0xfcb
 9157 0fb9 31       		.uleb128 0x31
 9158 0fba 01       		.uleb128 0x1
 9159 0fbb 53       		.byte	0x53
 9160 0fbc 01       		.uleb128 0x1
 9161 0fbd 31       		.byte	0x31
 9162 0fbe 31       		.uleb128 0x31
 9163 0fbf 01       		.uleb128 0x1
 9164 0fc0 52       		.byte	0x52
 9165 0fc1 02       		.uleb128 0x2
 9166 0fc2 74       		.byte	0x74
 9167 0fc3 00       		.sleb128 0
 9168 0fc4 31       		.uleb128 0x31
 9169 0fc5 01       		.uleb128 0x1
 9170 0fc6 51       		.byte	0x51
 9171 0fc7 02       		.uleb128 0x2
 9172 0fc8 77       		.byte	0x77
 9173 0fc9 00       		.sleb128 0
 9174 0fca 00       		.byte	0
 9175 0fcb 32       		.uleb128 0x32
 9176 0fcc 3E000000 		.4byte	.LVL40
 9177 0fd0 BB380000 		.4byte	0x38bb
 9178 0fd4 31       		.uleb128 0x31
 9179 0fd5 01       		.uleb128 0x1
 9180 0fd6 53       		.byte	0x53
 9181 0fd7 01       		.uleb128 0x1
 9182 0fd8 31       		.byte	0x31
 9183 0fd9 31       		.uleb128 0x31
 9184 0fda 01       		.uleb128 0x1
ARM GAS  /tmp/ccZHgRNF.s 			page 163


 9185 0fdb 52       		.byte	0x52
 9186 0fdc 02       		.uleb128 0x2
 9187 0fdd 74       		.byte	0x74
 9188 0fde 00       		.sleb128 0
 9189 0fdf 31       		.uleb128 0x31
 9190 0fe0 01       		.uleb128 0x1
 9191 0fe1 51       		.byte	0x51
 9192 0fe2 02       		.uleb128 0x2
 9193 0fe3 77       		.byte	0x77
 9194 0fe4 00       		.sleb128 0
 9195 0fe5 00       		.byte	0
 9196 0fe6 00       		.byte	0
 9197 0fe7 25       		.uleb128 0x25
 9198 0fe8 B6000000 		.4byte	.LASF191
 9199 0fec 01       		.byte	0x1
 9200 0fed 2703     		.2byte	0x327
 9201 0fef 55090000 		.4byte	0x955
 9202 0ff3 00000000 		.4byte	.LFB247
 9203 0ff7 D2000000 		.4byte	.LFE247-.LFB247
 9204 0ffb 01       		.uleb128 0x1
 9205 0ffc 9C       		.byte	0x9c
 9206 0ffd BF100000 		.4byte	0x10bf
 9207 1001 28       		.uleb128 0x28
 9208 1002 667300   		.ascii	"fs\000"
 9209 1005 01       		.byte	0x1
 9210 1006 2803     		.2byte	0x328
 9211 1008 EC070000 		.4byte	0x7ec
 9212 100c 47020000 		.4byte	.LLST13
 9213 1010 27       		.uleb128 0x27
 9214 1011 72657300 		.ascii	"res\000"
 9215 1015 01       		.byte	0x1
 9216 1016 2B03     		.2byte	0x32b
 9217 1018 55090000 		.4byte	0x955
 9218 101c 7B020000 		.4byte	.LLST14
 9219 1020 33       		.uleb128 0x33
 9220 1021 280B0000 		.4byte	0xb28
 9221 1025 04000000 		.4byte	.LBB149
 9222 1029 00000000 		.4byte	.Ldebug_ranges0+0
 9223 102d 01       		.byte	0x1
 9224 102e 2E03     		.2byte	0x32e
 9225 1030 57100000 		.4byte	0x1057
 9226 1034 2E       		.uleb128 0x2e
 9227 1035 390B0000 		.4byte	0xb39
 9228 1039 99020000 		.4byte	.LLST15
 9229 103d 34       		.uleb128 0x34
 9230 103e 00000000 		.4byte	.Ldebug_ranges0+0
 9231 1042 35       		.uleb128 0x35
 9232 1043 440B0000 		.4byte	0xb44
 9233 1047 35       		.uleb128 0x35
 9234 1048 500B0000 		.4byte	0xb50
 9235 104c 29       		.uleb128 0x29
 9236 104d 28000000 		.4byte	.LVL49
 9237 1051 800F0000 		.4byte	0xf80
 9238 1055 00       		.byte	0
 9239 1056 00       		.byte	0
 9240 1057 36       		.uleb128 0x36
 9241 1058 340A0000 		.4byte	0xa34
ARM GAS  /tmp/ccZHgRNF.s 			page 164


 9242 105c 3A000000 		.4byte	.LBB155
 9243 1060 14000000 		.4byte	.LBE155-.LBB155
 9244 1064 01       		.byte	0x1
 9245 1065 3303     		.2byte	0x333
 9246 1067 97100000 		.4byte	0x1097
 9247 106b 2E       		.uleb128 0x2e
 9248 106c 590A0000 		.4byte	0xa59
 9249 1070 CD020000 		.4byte	.LLST16
 9250 1074 37       		.uleb128 0x37
 9251 1075 4D0A0000 		.4byte	0xa4d
 9252 1079 00       		.byte	0
 9253 107a 2E       		.uleb128 0x2e
 9254 107b 410A0000 		.4byte	0xa41
 9255 107f E3020000 		.4byte	.LLST17
 9256 1083 2D       		.uleb128 0x2d
 9257 1084 3A000000 		.4byte	.LBB156
 9258 1088 14000000 		.4byte	.LBE156-.LBB156
 9259 108c 2C       		.uleb128 0x2c
 9260 108d 650A0000 		.4byte	0xa65
 9261 1091 03030000 		.4byte	.LLST18
 9262 1095 00       		.byte	0
 9263 1096 00       		.byte	0
 9264 1097 30       		.uleb128 0x30
 9265 1098 1A000000 		.4byte	.LVL46
 9266 109c DF380000 		.4byte	0x38df
 9267 10a0 AF100000 		.4byte	0x10af
 9268 10a4 31       		.uleb128 0x31
 9269 10a5 01       		.uleb128 0x1
 9270 10a6 52       		.byte	0x52
 9271 10a7 01       		.uleb128 0x1
 9272 10a8 30       		.byte	0x30
 9273 10a9 31       		.uleb128 0x31
 9274 10aa 01       		.uleb128 0x1
 9275 10ab 51       		.byte	0x51
 9276 10ac 01       		.uleb128 0x1
 9277 10ad 30       		.byte	0x30
 9278 10ae 00       		.byte	0
 9279 10af 32       		.uleb128 0x32
 9280 10b0 CE000000 		.4byte	.LVL56
 9281 10b4 BB380000 		.4byte	0x38bb
 9282 10b8 31       		.uleb128 0x31
 9283 10b9 01       		.uleb128 0x1
 9284 10ba 53       		.byte	0x53
 9285 10bb 01       		.uleb128 0x1
 9286 10bc 31       		.byte	0x31
 9287 10bd 00       		.byte	0
 9288 10be 00       		.byte	0
 9289 10bf 2A       		.uleb128 0x2a
 9290 10c0 5C0B0000 		.4byte	0xb5c
 9291 10c4 00000000 		.4byte	.LFB246
 9292 10c8 34000000 		.4byte	.LFE246-.LFB246
 9293 10cc 01       		.uleb128 0x1
 9294 10cd 9C       		.byte	0x9c
 9295 10ce 53110000 		.4byte	0x1153
 9296 10d2 2E       		.uleb128 0x2e
 9297 10d3 6D0B0000 		.4byte	0xb6d
 9298 10d7 21030000 		.4byte	.LLST19
ARM GAS  /tmp/ccZHgRNF.s 			page 165


 9299 10db 2E       		.uleb128 0x2e
 9300 10dc 780B0000 		.4byte	0xb78
 9301 10e0 6B030000 		.4byte	.LLST20
 9302 10e4 33       		.uleb128 0x33
 9303 10e5 280B0000 		.4byte	0xb28
 9304 10e9 0C000000 		.4byte	.LBB163
 9305 10ed 20000000 		.4byte	.Ldebug_ranges0+0x20
 9306 10f1 01       		.byte	0x1
 9307 10f2 1403     		.2byte	0x314
 9308 10f4 1B110000 		.4byte	0x111b
 9309 10f8 2E       		.uleb128 0x2e
 9310 10f9 390B0000 		.4byte	0xb39
 9311 10fd AA030000 		.4byte	.LLST21
 9312 1101 34       		.uleb128 0x34
 9313 1102 20000000 		.4byte	.Ldebug_ranges0+0x20
 9314 1106 35       		.uleb128 0x35
 9315 1107 440B0000 		.4byte	0xb44
 9316 110b 35       		.uleb128 0x35
 9317 110c 500B0000 		.4byte	0xb50
 9318 1110 29       		.uleb128 0x29
 9319 1111 28000000 		.4byte	.LVL62
 9320 1115 800F0000 		.4byte	0xf80
 9321 1119 00       		.byte	0
 9322 111a 00       		.byte	0
 9323 111b 2D       		.uleb128 0x2d
 9324 111c 10000000 		.4byte	.LBB166
 9325 1120 14000000 		.4byte	.LBE166-.LBB166
 9326 1124 2E       		.uleb128 0x2e
 9327 1125 780B0000 		.4byte	0xb78
 9328 1129 DE030000 		.4byte	.LLST22
 9329 112d 2E       		.uleb128 0x2e
 9330 112e 6D0B0000 		.4byte	0xb6d
 9331 1132 F1030000 		.4byte	.LLST23
 9332 1136 32       		.uleb128 0x32
 9333 1137 1E000000 		.4byte	.LVL60
 9334 113b FE380000 		.4byte	0x38fe
 9335 113f 31       		.uleb128 0x31
 9336 1140 01       		.uleb128 0x1
 9337 1141 53       		.byte	0x53
 9338 1142 01       		.uleb128 0x1
 9339 1143 31       		.byte	0x31
 9340 1144 31       		.uleb128 0x31
 9341 1145 01       		.uleb128 0x1
 9342 1146 52       		.byte	0x52
 9343 1147 02       		.uleb128 0x2
 9344 1148 75       		.byte	0x75
 9345 1149 00       		.sleb128 0
 9346 114a 31       		.uleb128 0x31
 9347 114b 01       		.uleb128 0x1
 9348 114c 51       		.byte	0x51
 9349 114d 02       		.uleb128 0x2
 9350 114e 74       		.byte	0x74
 9351 114f 30       		.sleb128 48
 9352 1150 00       		.byte	0
 9353 1151 00       		.byte	0
 9354 1152 00       		.byte	0
 9355 1153 2A       		.uleb128 0x2a
ARM GAS  /tmp/ccZHgRNF.s 			page 166


 9356 1154 850B0000 		.4byte	0xb85
 9357 1158 00000000 		.4byte	.LFB266
 9358 115c 88000000 		.4byte	.LFE266-.LFB266
 9359 1160 01       		.uleb128 0x1
 9360 1161 9C       		.byte	0x9c
 9361 1162 B1110000 		.4byte	0x11b1
 9362 1166 2E       		.uleb128 0x2e
 9363 1167 960B0000 		.4byte	0xb96
 9364 116b 04040000 		.4byte	.LLST24
 9365 116f 2E       		.uleb128 0x2e
 9366 1170 A10B0000 		.4byte	0xba1
 9367 1174 30040000 		.4byte	.LLST25
 9368 1178 38       		.uleb128 0x38
 9369 1179 56000000 		.4byte	.LBB171
 9370 117d 32000000 		.4byte	.LBE171-.LBB171
 9371 1181 99110000 		.4byte	0x1199
 9372 1185 2B       		.uleb128 0x2b
 9373 1186 A10B0000 		.4byte	0xba1
 9374 118a 04       		.uleb128 0x4
 9375 118b F3       		.byte	0xf3
 9376 118c 01       		.uleb128 0x1
 9377 118d 51       		.byte	0x51
 9378 118e 9F       		.byte	0x9f
 9379 118f 2E       		.uleb128 0x2e
 9380 1190 960B0000 		.4byte	0xb96
 9381 1194 51040000 		.4byte	.LLST26
 9382 1198 00       		.byte	0
 9383 1199 32       		.uleb128 0x32
 9384 119a 12000000 		.4byte	.LVL66
 9385 119e 5C0B0000 		.4byte	0xb5c
 9386 11a2 31       		.uleb128 0x31
 9387 11a3 01       		.uleb128 0x1
 9388 11a4 51       		.byte	0x51
 9389 11a5 03       		.uleb128 0x3
 9390 11a6 F3       		.byte	0xf3
 9391 11a7 01       		.uleb128 0x1
 9392 11a8 51       		.byte	0x51
 9393 11a9 31       		.uleb128 0x31
 9394 11aa 01       		.uleb128 0x1
 9395 11ab 50       		.byte	0x50
 9396 11ac 02       		.uleb128 0x2
 9397 11ad 74       		.byte	0x74
 9398 11ae 00       		.sleb128 0
 9399 11af 00       		.byte	0
 9400 11b0 00       		.byte	0
 9401 11b1 25       		.uleb128 0x25
 9402 11b2 90000000 		.4byte	.LASF192
 9403 11b6 01       		.byte	0x1
 9404 11b7 7408     		.2byte	0x874
 9405 11b9 55090000 		.4byte	0x955
 9406 11bd 00000000 		.4byte	.LFB267
 9407 11c1 24030000 		.4byte	.LFE267-.LFB267
 9408 11c5 01       		.uleb128 0x1
 9409 11c6 9C       		.byte	0x9c
 9410 11c7 61130000 		.4byte	0x1361
 9411 11cb 28       		.uleb128 0x28
 9412 11cc 72667300 		.ascii	"rfs\000"
ARM GAS  /tmp/ccZHgRNF.s 			page 167


 9413 11d0 01       		.byte	0x1
 9414 11d1 7508     		.2byte	0x875
 9415 11d3 61130000 		.4byte	0x1361
 9416 11d7 72040000 		.4byte	.LLST27
 9417 11db 26       		.uleb128 0x26
 9418 11dc 67000000 		.4byte	.LASF170
 9419 11e0 01       		.byte	0x1
 9420 11e1 7608     		.2byte	0x876
 9421 11e3 170B0000 		.4byte	0xb17
 9422 11e7 E9040000 		.4byte	.LLST28
 9423 11eb 26       		.uleb128 0x26
 9424 11ec 36020000 		.4byte	.LASF193
 9425 11f0 01       		.byte	0x1
 9426 11f1 7708     		.2byte	0x877
 9427 11f3 25000000 		.4byte	0x25
 9428 11f7 0A050000 		.4byte	.LLST29
 9429 11fb 27       		.uleb128 0x27
 9430 11fc 666D7400 		.ascii	"fmt\000"
 9431 1200 01       		.byte	0x1
 9432 1201 7A08     		.2byte	0x87a
 9433 1203 25000000 		.4byte	0x25
 9434 1207 2B050000 		.4byte	.LLST30
 9435 120b 27       		.uleb128 0x27
 9436 120c 766F6C00 		.ascii	"vol\000"
 9437 1210 01       		.byte	0x1
 9438 1211 7B08     		.2byte	0x87b
 9439 1213 50000000 		.4byte	0x50
 9440 1217 A5050000 		.4byte	.LLST31
 9441 121b 39       		.uleb128 0x39
 9442 121c C4000000 		.4byte	.LASF194
 9443 1220 01       		.byte	0x1
 9444 1221 7C08     		.2byte	0x87c
 9445 1223 60090000 		.4byte	0x960
 9446 1227 FA050000 		.4byte	.LLST32
 9447 122b 39       		.uleb128 0x39
 9448 122c 4A010000 		.4byte	.LASF195
 9449 1230 01       		.byte	0x1
 9450 1231 7D08     		.2byte	0x87d
 9451 1233 70000000 		.4byte	0x70
 9452 1237 44060000 		.4byte	.LLST33
 9453 123b 39       		.uleb128 0x39
 9454 123c E3000000 		.4byte	.LASF196
 9455 1240 01       		.byte	0x1
 9456 1241 7D08     		.2byte	0x87d
 9457 1243 70000000 		.4byte	0x70
 9458 1247 9B060000 		.4byte	.LLST34
 9459 124b 39       		.uleb128 0x39
 9460 124c 97070000 		.4byte	.LASF197
 9461 1250 01       		.byte	0x1
 9462 1251 7D08     		.2byte	0x87d
 9463 1253 70000000 		.4byte	0x70
 9464 1257 6E070000 		.4byte	.LLST35
 9465 125b 39       		.uleb128 0x39
 9466 125c F1030000 		.4byte	.LASF198
 9467 1260 01       		.byte	0x1
 9468 1261 7D08     		.2byte	0x87d
 9469 1263 70000000 		.4byte	0x70
ARM GAS  /tmp/ccZHgRNF.s 			page 168


 9470 1267 D4070000 		.4byte	.LLST36
 9471 126b 39       		.uleb128 0x39
 9472 126c 3F010000 		.4byte	.LASF199
 9473 1270 01       		.byte	0x1
 9474 1271 7D08     		.2byte	0x87d
 9475 1273 70000000 		.4byte	0x70
 9476 1277 84090000 		.4byte	.LLST37
 9477 127b 39       		.uleb128 0x39
 9478 127c 4E050000 		.4byte	.LASF200
 9479 1280 01       		.byte	0x1
 9480 1281 7D08     		.2byte	0x87d
 9481 1283 70000000 		.4byte	0x70
 9482 1287 040A0000 		.4byte	.LLST38
 9483 128b 39       		.uleb128 0x39
 9484 128c 8B040000 		.4byte	.LASF201
 9485 1290 01       		.byte	0x1
 9486 1291 7E08     		.2byte	0x87e
 9487 1293 3E000000 		.4byte	0x3e
 9488 1297 3E0A0000 		.4byte	.LLST39
 9489 129b 27       		.uleb128 0x27
 9490 129c 667300   		.ascii	"fs\000"
 9491 129f 01       		.byte	0x1
 9492 12a0 7F08     		.2byte	0x87f
 9493 12a2 EC070000 		.4byte	0x7ec
 9494 12a6 C30A0000 		.4byte	.LLST40
 9495 12aa 3A       		.uleb128 0x3a
 9496 12ab 38000000 		.4byte	.Ldebug_ranges0+0x38
 9497 12af FF120000 		.4byte	0x12ff
 9498 12b3 1E       		.uleb128 0x1e
 9499 12b4 6900     		.ascii	"i\000"
 9500 12b6 01       		.byte	0x1
 9501 12b7 A908     		.2byte	0x8a9
 9502 12b9 57000000 		.4byte	0x57
 9503 12bd 3B       		.uleb128 0x3b
 9504 12be 627200   		.ascii	"br\000"
 9505 12c1 01       		.byte	0x1
 9506 12c2 AA08     		.2byte	0x8aa
 9507 12c4 67130000 		.4byte	0x1367
 9508 12c8 02       		.uleb128 0x2
 9509 12c9 91       		.byte	0x91
 9510 12ca 58       		.sleb128 -40
 9511 12cb 38       		.uleb128 0x38
 9512 12cc 96000000 		.4byte	.LBB174
 9513 12d0 1C000000 		.4byte	.LBE174-.LBB174
 9514 12d4 E8120000 		.4byte	0x12e8
 9515 12d8 27       		.uleb128 0x27
 9516 12d9 707400   		.ascii	"pt\000"
 9517 12dc 01       		.byte	0x1
 9518 12dd AD08     		.2byte	0x8ad
 9519 12df F2070000 		.4byte	0x7f2
 9520 12e3 E10A0000 		.4byte	.LLST41
 9521 12e7 00       		.byte	0
 9522 12e8 32       		.uleb128 0x32
 9523 12e9 D8000000 		.4byte	.LVL103
 9524 12ed 850B0000 		.4byte	0xb85
 9525 12f1 31       		.uleb128 0x31
 9526 12f2 01       		.uleb128 0x1
ARM GAS  /tmp/ccZHgRNF.s 			page 169


 9527 12f3 51       		.byte	0x51
 9528 12f4 02       		.uleb128 0x2
 9529 12f5 76       		.byte	0x76
 9530 12f6 00       		.sleb128 0
 9531 12f7 31       		.uleb128 0x31
 9532 12f8 01       		.uleb128 0x1
 9533 12f9 50       		.byte	0x50
 9534 12fa 02       		.uleb128 0x2
 9535 12fb 74       		.byte	0x74
 9536 12fc 00       		.sleb128 0
 9537 12fd 00       		.byte	0
 9538 12fe 00       		.byte	0
 9539 12ff 30       		.uleb128 0x30
 9540 1300 14000000 		.4byte	.LVL73
 9541 1304 6E0E0000 		.4byte	0xe6e
 9542 1308 14130000 		.4byte	0x1314
 9543 130c 31       		.uleb128 0x31
 9544 130d 01       		.uleb128 0x1
 9545 130e 50       		.byte	0x50
 9546 130f 03       		.uleb128 0x3
 9547 1310 F3       		.byte	0xf3
 9548 1311 01       		.uleb128 0x1
 9549 1312 51       		.byte	0x51
 9550 1313 00       		.byte	0
 9551 1314 29       		.uleb128 0x29
 9552 1315 2C000000 		.4byte	.LVL76
 9553 1319 A6380000 		.4byte	0x38a6
 9554 131d 30       		.uleb128 0x30
 9555 131e 3C000000 		.4byte	.LVL78
 9556 1322 22390000 		.4byte	0x3922
 9557 1326 31130000 		.4byte	0x1331
 9558 132a 31       		.uleb128 0x31
 9559 132b 01       		.uleb128 0x1
 9560 132c 50       		.byte	0x50
 9561 132d 02       		.uleb128 0x2
 9562 132e 76       		.byte	0x76
 9563 132f 00       		.sleb128 0
 9564 1330 00       		.byte	0
 9565 1331 30       		.uleb128 0x30
 9566 1332 7A000000 		.4byte	.LVL91
 9567 1336 850B0000 		.4byte	0xb85
 9568 133a 4A130000 		.4byte	0x134a
 9569 133e 31       		.uleb128 0x31
 9570 133f 01       		.uleb128 0x1
 9571 1340 51       		.byte	0x51
 9572 1341 01       		.uleb128 0x1
 9573 1342 30       		.byte	0x30
 9574 1343 31       		.uleb128 0x31
 9575 1344 01       		.uleb128 0x1
 9576 1345 50       		.byte	0x50
 9577 1346 02       		.uleb128 0x2
 9578 1347 74       		.byte	0x74
 9579 1348 00       		.sleb128 0
 9580 1349 00       		.byte	0
 9581 134a 32       		.uleb128 0x32
 9582 134b 2C020000 		.4byte	.LVL138
 9583 134f 5C0B0000 		.4byte	0xb5c
ARM GAS  /tmp/ccZHgRNF.s 			page 170


 9584 1353 31       		.uleb128 0x31
 9585 1354 01       		.uleb128 0x1
 9586 1355 51       		.byte	0x51
 9587 1356 02       		.uleb128 0x2
 9588 1357 76       		.byte	0x76
 9589 1358 01       		.sleb128 1
 9590 1359 31       		.uleb128 0x31
 9591 135a 01       		.uleb128 0x1
 9592 135b 50       		.byte	0x50
 9593 135c 02       		.uleb128 0x2
 9594 135d 74       		.byte	0x74
 9595 135e 00       		.sleb128 0
 9596 135f 00       		.byte	0
 9597 1360 00       		.byte	0
 9598 1361 09       		.uleb128 0x9
 9599 1362 04       		.byte	0x4
 9600 1363 EC070000 		.4byte	0x7ec
 9601 1367 15       		.uleb128 0x15
 9602 1368 70000000 		.4byte	0x70
 9603 136c 77130000 		.4byte	0x1377
 9604 1370 16       		.uleb128 0x16
 9605 1371 66040000 		.4byte	0x466
 9606 1375 03       		.byte	0x3
 9607 1376 00       		.byte	0
 9608 1377 2A       		.uleb128 0x2a
 9609 1378 AE0B0000 		.4byte	0xbae
 9610 137c 00000000 		.4byte	.LFB293
 9611 1380 C2000000 		.4byte	.LFE293-.LFB293
 9612 1384 01       		.uleb128 0x1
 9613 1385 9C       		.byte	0x9c
 9614 1386 04140000 		.4byte	0x1404
 9615 138a 2E       		.uleb128 0x2e
 9616 138b BF0B0000 		.4byte	0xbbf
 9617 138f 030B0000 		.4byte	.LLST42
 9618 1393 2E       		.uleb128 0x2e
 9619 1394 CA0B0000 		.4byte	0xbca
 9620 1398 980B0000 		.4byte	.LLST43
 9621 139c 2C       		.uleb128 0x2c
 9622 139d D60B0000 		.4byte	0xbd6
 9623 13a1 090C0000 		.4byte	.LLST44
 9624 13a5 2C       		.uleb128 0x2c
 9625 13a6 E10B0000 		.4byte	0xbe1
 9626 13aa 430C0000 		.4byte	.LLST45
 9627 13ae 2C       		.uleb128 0x2c
 9628 13af EC0B0000 		.4byte	0xbec
 9629 13b3 A30C0000 		.4byte	.LLST46
 9630 13b7 30       		.uleb128 0x30
 9631 13b8 26000000 		.4byte	.LVL153
 9632 13bc 5C0B0000 		.4byte	0xb5c
 9633 13c0 CB130000 		.4byte	0x13cb
 9634 13c4 31       		.uleb128 0x31
 9635 13c5 01       		.uleb128 0x1
 9636 13c6 50       		.byte	0x50
 9637 13c7 02       		.uleb128 0x2
 9638 13c8 74       		.byte	0x74
 9639 13c9 00       		.sleb128 0
 9640 13ca 00       		.byte	0
ARM GAS  /tmp/ccZHgRNF.s 			page 171


 9641 13cb 30       		.uleb128 0x30
 9642 13cc 38000000 		.4byte	.LVL157
 9643 13d0 5C0B0000 		.4byte	0xb5c
 9644 13d4 DF130000 		.4byte	0x13df
 9645 13d8 31       		.uleb128 0x31
 9646 13d9 01       		.uleb128 0x1
 9647 13da 50       		.byte	0x50
 9648 13db 02       		.uleb128 0x2
 9649 13dc 74       		.byte	0x74
 9650 13dd 00       		.sleb128 0
 9651 13de 00       		.byte	0
 9652 13df 30       		.uleb128 0x30
 9653 13e0 70000000 		.4byte	.LVL164
 9654 13e4 5C0B0000 		.4byte	0xb5c
 9655 13e8 F3130000 		.4byte	0x13f3
 9656 13ec 31       		.uleb128 0x31
 9657 13ed 01       		.uleb128 0x1
 9658 13ee 50       		.byte	0x50
 9659 13ef 02       		.uleb128 0x2
 9660 13f0 74       		.byte	0x74
 9661 13f1 00       		.sleb128 0
 9662 13f2 00       		.byte	0
 9663 13f3 32       		.uleb128 0x32
 9664 13f4 A4000000 		.4byte	.LVL171
 9665 13f8 5C0B0000 		.4byte	0xb5c
 9666 13fc 31       		.uleb128 0x31
 9667 13fd 01       		.uleb128 0x1
 9668 13fe 50       		.byte	0x50
 9669 13ff 02       		.uleb128 0x2
 9670 1400 74       		.byte	0x74
 9671 1401 00       		.sleb128 0
 9672 1402 00       		.byte	0
 9673 1403 00       		.byte	0
 9674 1404 25       		.uleb128 0x25
 9675 1405 55090000 		.4byte	.LASF202
 9676 1409 01       		.byte	0x1
 9677 140a 5D04     		.2byte	0x45d
 9678 140c 55090000 		.4byte	0x955
 9679 1410 00000000 		.4byte	.LFB253
 9680 1414 A0000000 		.4byte	.LFE253-.LFB253
 9681 1418 01       		.uleb128 0x1
 9682 1419 9C       		.byte	0x9c
 9683 141a D3140000 		.4byte	0x14d3
 9684 141e 28       		.uleb128 0x28
 9685 141f 647000   		.ascii	"dp\000"
 9686 1422 01       		.byte	0x1
 9687 1423 5E04     		.2byte	0x45e
 9688 1425 220A0000 		.4byte	0xa22
 9689 1429 EE0C0000 		.4byte	.LLST47
 9690 142d 28       		.uleb128 0x28
 9691 142e 69647800 		.ascii	"idx\000"
 9692 1432 01       		.byte	0x1
 9693 1433 5F04     		.2byte	0x45f
 9694 1435 57000000 		.4byte	0x57
 9695 1439 0C0D0000 		.4byte	.LLST48
 9696 143d 39       		.uleb128 0x39
 9697 143e AE040000 		.4byte	.LASF176
ARM GAS  /tmp/ccZHgRNF.s 			page 172


 9698 1442 01       		.byte	0x1
 9699 1443 6204     		.2byte	0x462
 9700 1445 70000000 		.4byte	0x70
 9701 1449 500D0000 		.4byte	.LLST49
 9702 144d 39       		.uleb128 0x39
 9703 144e 45010000 		.4byte	.LASF131
 9704 1452 01       		.byte	0x1
 9705 1453 6204     		.2byte	0x462
 9706 1455 70000000 		.4byte	0x70
 9707 1459 D20D0000 		.4byte	.LLST50
 9708 145d 27       		.uleb128 0x27
 9709 145e 696300   		.ascii	"ic\000"
 9710 1461 01       		.byte	0x1
 9711 1462 6304     		.2byte	0x463
 9712 1464 57000000 		.4byte	0x57
 9713 1468 F10D0000 		.4byte	.LLST51
 9714 146c 33       		.uleb128 0x33
 9715 146d AE0B0000 		.4byte	0xbae
 9716 1471 56000000 		.4byte	.LBB176
 9717 1475 50000000 		.4byte	.Ldebug_ranges0+0x50
 9718 1479 01       		.byte	0x1
 9719 147a 7504     		.2byte	0x475
 9720 147c B1140000 		.4byte	0x14b1
 9721 1480 2E       		.uleb128 0x2e
 9722 1481 CA0B0000 		.4byte	0xbca
 9723 1485 0F0E0000 		.4byte	.LLST52
 9724 1489 2E       		.uleb128 0x2e
 9725 148a BF0B0000 		.4byte	0xbbf
 9726 148e 2D0E0000 		.4byte	.LLST53
 9727 1492 34       		.uleb128 0x34
 9728 1493 50000000 		.4byte	.Ldebug_ranges0+0x50
 9729 1497 35       		.uleb128 0x35
 9730 1498 D60B0000 		.4byte	0xbd6
 9731 149c 35       		.uleb128 0x35
 9732 149d E10B0000 		.4byte	0xbe1
 9733 14a1 35       		.uleb128 0x35
 9734 14a2 EC0B0000 		.4byte	0xbec
 9735 14a6 29       		.uleb128 0x29
 9736 14a7 7C000000 		.4byte	.LVL194
 9737 14ab 77130000 		.4byte	0x1377
 9738 14af 00       		.byte	0
 9739 14b0 00       		.byte	0
 9740 14b1 3C       		.uleb128 0x3c
 9741 14b2 F70B0000 		.4byte	0xbf7
 9742 14b6 8A000000 		.4byte	.LBB182
 9743 14ba 12000000 		.4byte	.LBE182-.LBB182
 9744 14be 01       		.byte	0x1
 9745 14bf 7B04     		.2byte	0x47b
 9746 14c1 2E       		.uleb128 0x2e
 9747 14c2 130C0000 		.4byte	0xc13
 9748 14c6 4B0E0000 		.4byte	.LLST54
 9749 14ca 2B       		.uleb128 0x2b
 9750 14cb 080C0000 		.4byte	0xc08
 9751 14cf 01       		.uleb128 0x1
 9752 14d0 50       		.byte	0x50
 9753 14d1 00       		.byte	0
 9754 14d2 00       		.byte	0
ARM GAS  /tmp/ccZHgRNF.s 			page 173


 9755 14d3 2A       		.uleb128 0x2a
 9756 14d4 200C0000 		.4byte	0xc20
 9757 14d8 00000000 		.4byte	.LFB261
 9758 14dc 38000000 		.4byte	.LFE261-.LFB261
 9759 14e0 01       		.uleb128 0x1
 9760 14e1 9C       		.byte	0x9c
 9761 14e2 75150000 		.4byte	0x1575
 9762 14e6 2E       		.uleb128 0x2e
 9763 14e7 310C0000 		.4byte	0xc31
 9764 14eb 690E0000 		.4byte	.LLST55
 9765 14ef 2C       		.uleb128 0x2c
 9766 14f0 3C0C0000 		.4byte	0xc3c
 9767 14f4 870E0000 		.4byte	.LLST56
 9768 14f8 38       		.uleb128 0x38
 9769 14f9 0E000000 		.4byte	.LBB188
 9770 14fd 28000000 		.4byte	.LBE188-.LBB188
 9771 1501 64150000 		.4byte	0x1564
 9772 1505 2B       		.uleb128 0x2b
 9773 1506 310C0000 		.4byte	0xc31
 9774 150a 01       		.uleb128 0x1
 9775 150b 54       		.byte	0x54
 9776 150c 2D       		.uleb128 0x2d
 9777 150d 0E000000 		.4byte	.LBB189
 9778 1511 28000000 		.4byte	.LBE189-.LBB189
 9779 1515 2F       		.uleb128 0x2f
 9780 1516 3C0C0000 		.4byte	0xc3c
 9781 151a 01       		.uleb128 0x1
 9782 151b 50       		.byte	0x50
 9783 151c 36       		.uleb128 0x36
 9784 151d 340A0000 		.4byte	0xa34
 9785 1521 1C000000 		.4byte	.LBB190
 9786 1525 0E000000 		.4byte	.LBE190-.LBB190
 9787 1529 01       		.byte	0x1
 9788 152a B406     		.2byte	0x6b4
 9789 152c 59150000 		.4byte	0x1559
 9790 1530 37       		.uleb128 0x37
 9791 1531 590A0000 		.4byte	0xa59
 9792 1535 1F       		.byte	0x1f
 9793 1536 37       		.uleb128 0x37
 9794 1537 4D0A0000 		.4byte	0xa4d
 9795 153b 00       		.byte	0
 9796 153c 2E       		.uleb128 0x2e
 9797 153d 410A0000 		.4byte	0xa41
 9798 1541 A50E0000 		.4byte	.LLST57
 9799 1545 2D       		.uleb128 0x2d
 9800 1546 1C000000 		.4byte	.LBB191
 9801 154a 0E000000 		.4byte	.LBE191-.LBB191
 9802 154e 2C       		.uleb128 0x2c
 9803 154f 650A0000 		.4byte	0xa65
 9804 1553 C50E0000 		.4byte	.LLST58
 9805 1557 00       		.byte	0
 9806 1558 00       		.byte	0
 9807 1559 29       		.uleb128 0x29
 9808 155a 16000000 		.4byte	.LVL206
 9809 155e 5C0B0000 		.4byte	0xb5c
 9810 1562 00       		.byte	0
 9811 1563 00       		.byte	0
ARM GAS  /tmp/ccZHgRNF.s 			page 174


 9812 1564 32       		.uleb128 0x32
 9813 1565 0A000000 		.4byte	.LVL202
 9814 1569 04140000 		.4byte	0x1404
 9815 156d 31       		.uleb128 0x31
 9816 156e 01       		.uleb128 0x1
 9817 156f 50       		.byte	0x50
 9818 1570 02       		.uleb128 0x2
 9819 1571 74       		.byte	0x74
 9820 1572 00       		.sleb128 0
 9821 1573 00       		.byte	0
 9822 1574 00       		.byte	0
 9823 1575 2A       		.uleb128 0x2a
 9824 1576 490C0000 		.4byte	0xc49
 9825 157a 00000000 		.4byte	.LFB295
 9826 157e F2000000 		.4byte	.LFE295-.LFB295
 9827 1582 01       		.uleb128 0x1
 9828 1583 9C       		.byte	0x9c
 9829 1584 0B160000 		.4byte	0x160b
 9830 1588 2E       		.uleb128 0x2e
 9831 1589 5A0C0000 		.4byte	0xc5a
 9832 158d D80E0000 		.4byte	.LLST59
 9833 1591 2E       		.uleb128 0x2e
 9834 1592 650C0000 		.4byte	0xc65
 9835 1596 380F0000 		.4byte	.LLST60
 9836 159a 2E       		.uleb128 0x2e
 9837 159b 710C0000 		.4byte	0xc71
 9838 159f C50F0000 		.4byte	.LLST61
 9839 15a3 2C       		.uleb128 0x2c
 9840 15a4 7D0C0000 		.4byte	0xc7d
 9841 15a8 44100000 		.4byte	.LLST62
 9842 15ac 2C       		.uleb128 0x2c
 9843 15ad 880C0000 		.4byte	0xc88
 9844 15b1 99100000 		.4byte	.LLST63
 9845 15b5 2C       		.uleb128 0x2c
 9846 15b6 920C0000 		.4byte	0xc92
 9847 15ba 7F110000 		.4byte	.LLST64
 9848 15be 30       		.uleb128 0x30
 9849 15bf 2C000000 		.4byte	.LVL218
 9850 15c3 5C0B0000 		.4byte	0xb5c
 9851 15c7 D2150000 		.4byte	0x15d2
 9852 15cb 31       		.uleb128 0x31
 9853 15cc 01       		.uleb128 0x1
 9854 15cd 50       		.byte	0x50
 9855 15ce 02       		.uleb128 0x2
 9856 15cf 74       		.byte	0x74
 9857 15d0 00       		.sleb128 0
 9858 15d1 00       		.byte	0
 9859 15d2 30       		.uleb128 0x30
 9860 15d3 62000000 		.4byte	.LVL224
 9861 15d7 5C0B0000 		.4byte	0xb5c
 9862 15db E6150000 		.4byte	0x15e6
 9863 15df 31       		.uleb128 0x31
 9864 15e0 01       		.uleb128 0x1
 9865 15e1 50       		.byte	0x50
 9866 15e2 02       		.uleb128 0x2
 9867 15e3 74       		.byte	0x74
 9868 15e4 00       		.sleb128 0
ARM GAS  /tmp/ccZHgRNF.s 			page 175


 9869 15e5 00       		.byte	0
 9870 15e6 30       		.uleb128 0x30
 9871 15e7 8E000000 		.4byte	.LVL230
 9872 15eb 5C0B0000 		.4byte	0xb5c
 9873 15ef FA150000 		.4byte	0x15fa
 9874 15f3 31       		.uleb128 0x31
 9875 15f4 01       		.uleb128 0x1
 9876 15f5 50       		.byte	0x50
 9877 15f6 02       		.uleb128 0x2
 9878 15f7 74       		.byte	0x74
 9879 15f8 00       		.sleb128 0
 9880 15f9 00       		.byte	0
 9881 15fa 32       		.uleb128 0x32
 9882 15fb CC000000 		.4byte	.LVL237
 9883 15ff 5C0B0000 		.4byte	0xb5c
 9884 1603 31       		.uleb128 0x31
 9885 1604 01       		.uleb128 0x1
 9886 1605 50       		.byte	0x50
 9887 1606 02       		.uleb128 0x2
 9888 1607 74       		.byte	0x74
 9889 1608 00       		.sleb128 0
 9890 1609 00       		.byte	0
 9891 160a 00       		.byte	0
 9892 160b 25       		.uleb128 0x25
 9893 160c 18030000 		.4byte	.LASF203
 9894 1610 01       		.byte	0x1
 9895 1611 0304     		.2byte	0x403
 9896 1613 70000000 		.4byte	0x70
 9897 1617 00000000 		.4byte	.LFB252
 9898 161b C6000000 		.4byte	.LFE252-.LFB252
 9899 161f 01       		.uleb128 0x1
 9900 1620 9C       		.byte	0x9c
 9901 1621 F5170000 		.4byte	0x17f5
 9902 1625 28       		.uleb128 0x28
 9903 1626 667300   		.ascii	"fs\000"
 9904 1629 01       		.byte	0x1
 9905 162a 0404     		.2byte	0x404
 9906 162c EC070000 		.4byte	0x7ec
 9907 1630 BE110000 		.4byte	.LLST65
 9908 1634 26       		.uleb128 0x26
 9909 1635 AE040000 		.4byte	.LASF176
 9910 1639 01       		.byte	0x1
 9911 163a 0504     		.2byte	0x405
 9912 163c 70000000 		.4byte	0x70
 9913 1640 08120000 		.4byte	.LLST66
 9914 1644 1E       		.uleb128 0x1e
 9915 1645 637300   		.ascii	"cs\000"
 9916 1648 01       		.byte	0x1
 9917 1649 0804     		.2byte	0x408
 9918 164b 70000000 		.4byte	0x70
 9919 164f 27       		.uleb128 0x27
 9920 1650 6E636C00 		.ascii	"ncl\000"
 9921 1654 01       		.byte	0x1
 9922 1655 0804     		.2byte	0x408
 9923 1657 70000000 		.4byte	0x70
 9924 165b 52120000 		.4byte	.LLST67
 9925 165f 27       		.uleb128 0x27
ARM GAS  /tmp/ccZHgRNF.s 			page 176


 9926 1660 73636C00 		.ascii	"scl\000"
 9927 1664 01       		.byte	0x1
 9928 1665 0804     		.2byte	0x408
 9929 1667 70000000 		.4byte	0x70
 9930 166b 9D120000 		.4byte	.LLST68
 9931 166f 27       		.uleb128 0x27
 9932 1670 72657300 		.ascii	"res\000"
 9933 1674 01       		.byte	0x1
 9934 1675 0904     		.2byte	0x409
 9935 1677 55090000 		.4byte	0x955
 9936 167b DD120000 		.4byte	.LLST69
 9937 167f 33       		.uleb128 0x33
 9938 1680 AE0B0000 		.4byte	0xbae
 9939 1684 18000000 		.4byte	.LBB192
 9940 1688 70000000 		.4byte	.Ldebug_ranges0+0x70
 9941 168c 01       		.byte	0x1
 9942 168d 1F04     		.2byte	0x41f
 9943 168f D1160000 		.4byte	0x16d1
 9944 1693 2E       		.uleb128 0x2e
 9945 1694 CA0B0000 		.4byte	0xbca
 9946 1698 FB120000 		.4byte	.LLST70
 9947 169c 2E       		.uleb128 0x2e
 9948 169d BF0B0000 		.4byte	0xbbf
 9949 16a1 3B130000 		.4byte	.LLST71
 9950 16a5 34       		.uleb128 0x34
 9951 16a6 70000000 		.4byte	.Ldebug_ranges0+0x70
 9952 16aa 35       		.uleb128 0x35
 9953 16ab D60B0000 		.4byte	0xbd6
 9954 16af 35       		.uleb128 0x35
 9955 16b0 E10B0000 		.4byte	0xbe1
 9956 16b4 35       		.uleb128 0x35
 9957 16b5 EC0B0000 		.4byte	0xbec
 9958 16b9 32       		.uleb128 0x32
 9959 16ba 26000000 		.4byte	.LVL248
 9960 16be 77130000 		.4byte	0x1377
 9961 16c2 31       		.uleb128 0x31
 9962 16c3 01       		.uleb128 0x1
 9963 16c4 51       		.byte	0x51
 9964 16c5 02       		.uleb128 0x2
 9965 16c6 74       		.byte	0x74
 9966 16c7 00       		.sleb128 0
 9967 16c8 31       		.uleb128 0x31
 9968 16c9 01       		.uleb128 0x1
 9969 16ca 50       		.byte	0x50
 9970 16cb 02       		.uleb128 0x2
 9971 16cc 75       		.byte	0x75
 9972 16cd 00       		.sleb128 0
 9973 16ce 00       		.byte	0
 9974 16cf 00       		.byte	0
 9975 16d0 00       		.byte	0
 9976 16d1 36       		.uleb128 0x36
 9977 16d2 AE0B0000 		.4byte	0xbae
 9978 16d6 44000000 		.4byte	.LBB198
 9979 16da 0E000000 		.4byte	.LBE198-.LBB198
 9980 16de 01       		.byte	0x1
 9981 16df 1104     		.2byte	0x411
 9982 16e1 27170000 		.4byte	0x1727
ARM GAS  /tmp/ccZHgRNF.s 			page 177


 9983 16e5 2E       		.uleb128 0x2e
 9984 16e6 CA0B0000 		.4byte	0xbca
 9985 16ea 64130000 		.4byte	.LLST72
 9986 16ee 2E       		.uleb128 0x2e
 9987 16ef BF0B0000 		.4byte	0xbbf
 9988 16f3 82130000 		.4byte	.LLST73
 9989 16f7 2D       		.uleb128 0x2d
 9990 16f8 44000000 		.4byte	.LBB199
 9991 16fc 0E000000 		.4byte	.LBE199-.LBB199
 9992 1700 35       		.uleb128 0x35
 9993 1701 D60B0000 		.4byte	0xbd6
 9994 1705 35       		.uleb128 0x35
 9995 1706 E10B0000 		.4byte	0xbe1
 9996 170a 35       		.uleb128 0x35
 9997 170b EC0B0000 		.4byte	0xbec
 9998 170f 32       		.uleb128 0x32
 9999 1710 52000000 		.4byte	.LVL253
 10000 1714 77130000 		.4byte	0x1377
 10001 1718 31       		.uleb128 0x31
 10002 1719 01       		.uleb128 0x1
 10003 171a 51       		.byte	0x51
 10004 171b 02       		.uleb128 0x2
 10005 171c 77       		.byte	0x77
 10006 171d 00       		.sleb128 0
 10007 171e 31       		.uleb128 0x31
 10008 171f 01       		.uleb128 0x1
 10009 1720 50       		.byte	0x50
 10010 1721 02       		.uleb128 0x2
 10011 1722 75       		.byte	0x75
 10012 1723 00       		.sleb128 0
 10013 1724 00       		.byte	0
 10014 1725 00       		.byte	0
 10015 1726 00       		.byte	0
 10016 1727 36       		.uleb128 0x36
 10017 1728 490C0000 		.4byte	0xc49
 10018 172c 7A000000 		.4byte	.LBB200
 10019 1730 12000000 		.4byte	.LBE200-.LBB200
 10020 1734 01       		.byte	0x1
 10021 1735 2604     		.2byte	0x426
 10022 1737 93170000 		.4byte	0x1793
 10023 173b 2E       		.uleb128 0x2e
 10024 173c 710C0000 		.4byte	0xc71
 10025 1740 A0130000 		.4byte	.LLST74
 10026 1744 2E       		.uleb128 0x2e
 10027 1745 650C0000 		.4byte	0xc65
 10028 1749 C8130000 		.4byte	.LLST75
 10029 174d 2E       		.uleb128 0x2e
 10030 174e 5A0C0000 		.4byte	0xc5a
 10031 1752 E6130000 		.4byte	.LLST76
 10032 1756 2D       		.uleb128 0x2d
 10033 1757 7A000000 		.4byte	.LBB201
 10034 175b 12000000 		.4byte	.LBE201-.LBB201
 10035 175f 35       		.uleb128 0x35
 10036 1760 7D0C0000 		.4byte	0xc7d
 10037 1764 35       		.uleb128 0x35
 10038 1765 880C0000 		.4byte	0xc88
 10039 1769 2C       		.uleb128 0x2c
ARM GAS  /tmp/ccZHgRNF.s 			page 178


 10040 176a 920C0000 		.4byte	0xc92
 10041 176e 04140000 		.4byte	.LLST77
 10042 1772 32       		.uleb128 0x32
 10043 1773 8C000000 		.4byte	.LVL260
 10044 1777 75150000 		.4byte	0x1575
 10045 177b 31       		.uleb128 0x31
 10046 177c 01       		.uleb128 0x1
 10047 177d 52       		.byte	0x52
 10048 177e 05       		.uleb128 0x5
 10049 177f 0C       		.byte	0xc
 10050 1780 FFFFFF0F 		.4byte	0xfffffff
 10051 1784 31       		.uleb128 0x31
 10052 1785 01       		.uleb128 0x1
 10053 1786 51       		.byte	0x51
 10054 1787 02       		.uleb128 0x2
 10055 1788 74       		.byte	0x74
 10056 1789 00       		.sleb128 0
 10057 178a 31       		.uleb128 0x31
 10058 178b 01       		.uleb128 0x1
 10059 178c 50       		.byte	0x50
 10060 178d 02       		.uleb128 0x2
 10061 178e 75       		.byte	0x75
 10062 178f 00       		.sleb128 0
 10063 1790 00       		.byte	0
 10064 1791 00       		.byte	0
 10065 1792 00       		.byte	0
 10066 1793 3C       		.uleb128 0x3c
 10067 1794 490C0000 		.4byte	0xc49
 10068 1798 92000000 		.4byte	.LBB202
 10069 179c 14000000 		.4byte	.LBE202-.LBB202
 10070 17a0 01       		.byte	0x1
 10071 17a1 2804     		.2byte	0x428
 10072 17a3 2E       		.uleb128 0x2e
 10073 17a4 710C0000 		.4byte	0xc71
 10074 17a8 17140000 		.4byte	.LLST78
 10075 17ac 2E       		.uleb128 0x2e
 10076 17ad 650C0000 		.4byte	0xc65
 10077 17b1 2A140000 		.4byte	.LLST79
 10078 17b5 2E       		.uleb128 0x2e
 10079 17b6 5A0C0000 		.4byte	0xc5a
 10080 17ba 3D140000 		.4byte	.LLST80
 10081 17be 2D       		.uleb128 0x2d
 10082 17bf 92000000 		.4byte	.LBB203
 10083 17c3 14000000 		.4byte	.LBE203-.LBB203
 10084 17c7 35       		.uleb128 0x35
 10085 17c8 7D0C0000 		.4byte	0xc7d
 10086 17cc 35       		.uleb128 0x35
 10087 17cd 880C0000 		.4byte	0xc88
 10088 17d1 35       		.uleb128 0x35
 10089 17d2 920C0000 		.4byte	0xc92
 10090 17d6 32       		.uleb128 0x32
 10091 17d7 A6000000 		.4byte	.LVL263
 10092 17db 75150000 		.4byte	0x1575
 10093 17df 31       		.uleb128 0x31
 10094 17e0 01       		.uleb128 0x1
 10095 17e1 52       		.byte	0x52
 10096 17e2 02       		.uleb128 0x2
ARM GAS  /tmp/ccZHgRNF.s 			page 179


 10097 17e3 74       		.byte	0x74
 10098 17e4 00       		.sleb128 0
 10099 17e5 31       		.uleb128 0x31
 10100 17e6 01       		.uleb128 0x1
 10101 17e7 51       		.byte	0x51
 10102 17e8 02       		.uleb128 0x2
 10103 17e9 77       		.byte	0x77
 10104 17ea 00       		.sleb128 0
 10105 17eb 31       		.uleb128 0x31
 10106 17ec 01       		.uleb128 0x1
 10107 17ed 50       		.byte	0x50
 10108 17ee 02       		.uleb128 0x2
 10109 17ef 75       		.byte	0x75
 10110 17f0 00       		.sleb128 0
 10111 17f1 00       		.byte	0
 10112 17f2 00       		.byte	0
 10113 17f3 00       		.byte	0
 10114 17f4 00       		.byte	0
 10115 17f5 25       		.uleb128 0x25
 10116 17f6 E8030000 		.4byte	.LASF204
 10117 17fa 01       		.byte	0x1
 10118 17fb 8D04     		.2byte	0x48d
 10119 17fd 55090000 		.4byte	0x955
 10120 1801 00000000 		.4byte	.LFB254
 10121 1805 3A010000 		.4byte	.LFE254-.LFB254
 10122 1809 01       		.uleb128 0x1
 10123 180a 9C       		.byte	0x9c
 10124 180b B0190000 		.4byte	0x19b0
 10125 180f 28       		.uleb128 0x28
 10126 1810 647000   		.ascii	"dp\000"
 10127 1813 01       		.byte	0x1
 10128 1814 8E04     		.2byte	0x48e
 10129 1816 220A0000 		.4byte	0xa22
 10130 181a 50140000 		.4byte	.LLST81
 10131 181e 26       		.uleb128 0x26
 10132 181f F6010000 		.4byte	.LASF205
 10133 1823 01       		.byte	0x1
 10134 1824 8F04     		.2byte	0x48f
 10135 1826 50000000 		.4byte	0x50
 10136 182a B0140000 		.4byte	.LLST82
 10137 182e 39       		.uleb128 0x39
 10138 182f AE040000 		.4byte	.LASF176
 10139 1833 01       		.byte	0x1
 10140 1834 9204     		.2byte	0x492
 10141 1836 70000000 		.4byte	0x70
 10142 183a 56150000 		.4byte	.LLST83
 10143 183e 3B       		.uleb128 0x3b
 10144 183f 6900     		.ascii	"i\000"
 10145 1841 01       		.byte	0x1
 10146 1842 9304     		.2byte	0x493
 10147 1844 57000000 		.4byte	0x57
 10148 1848 01       		.uleb128 0x1
 10149 1849 55       		.byte	0x55
 10150 184a 33       		.uleb128 0x33
 10151 184b AE0B0000 		.4byte	0xbae
 10152 184f 48000000 		.4byte	.LBB204
 10153 1853 90000000 		.4byte	.Ldebug_ranges0+0x90
ARM GAS  /tmp/ccZHgRNF.s 			page 180


 10154 1857 01       		.byte	0x1
 10155 1858 A304     		.2byte	0x4a3
 10156 185a 8F180000 		.4byte	0x188f
 10157 185e 2E       		.uleb128 0x2e
 10158 185f CA0B0000 		.4byte	0xbca
 10159 1863 95150000 		.4byte	.LLST84
 10160 1867 2E       		.uleb128 0x2e
 10161 1868 BF0B0000 		.4byte	0xbbf
 10162 186c B3150000 		.4byte	.LLST85
 10163 1870 34       		.uleb128 0x34
 10164 1871 90000000 		.4byte	.Ldebug_ranges0+0x90
 10165 1875 35       		.uleb128 0x35
 10166 1876 D60B0000 		.4byte	0xbd6
 10167 187a 35       		.uleb128 0x35
 10168 187b E10B0000 		.4byte	0xbe1
 10169 187f 35       		.uleb128 0x35
 10170 1880 EC0B0000 		.4byte	0xbec
 10171 1884 29       		.uleb128 0x29
 10172 1885 66000000 		.4byte	.LVL278
 10173 1889 77130000 		.4byte	0x1377
 10174 188d 00       		.byte	0
 10175 188e 00       		.byte	0
 10176 188f 33       		.uleb128 0x33
 10177 1890 F70B0000 		.4byte	0xbf7
 10178 1894 7C000000 		.4byte	.LBB210
 10179 1898 B0000000 		.4byte	.Ldebug_ranges0+0xb0
 10180 189c 01       		.byte	0x1
 10181 189d BE04     		.2byte	0x4be
 10182 189f B6180000 		.4byte	0x18b6
 10183 18a3 2E       		.uleb128 0x2e
 10184 18a4 130C0000 		.4byte	0xc13
 10185 18a8 D1150000 		.4byte	.LLST86
 10186 18ac 2E       		.uleb128 0x2e
 10187 18ad 080C0000 		.4byte	0xc08
 10188 18b1 E4150000 		.4byte	.LLST87
 10189 18b5 00       		.byte	0
 10190 18b6 34       		.uleb128 0x34
 10191 18b7 C8000000 		.4byte	.Ldebug_ranges0+0xc8
 10192 18bb 27       		.uleb128 0x27
 10193 18bc 6300     		.ascii	"c\000"
 10194 18be 01       		.byte	0x1
 10195 18bf A804     		.2byte	0x4a8
 10196 18c1 57000000 		.4byte	0x57
 10197 18c5 F7150000 		.4byte	.LLST88
 10198 18c9 33       		.uleb128 0x33
 10199 18ca 280B0000 		.4byte	0xb28
 10200 18ce BC000000 		.4byte	.LBB215
 10201 18d2 E0000000 		.4byte	.Ldebug_ranges0+0xe0
 10202 18d6 01       		.byte	0x1
 10203 18d7 AF04     		.2byte	0x4af
 10204 18d9 00190000 		.4byte	0x1900
 10205 18dd 2E       		.uleb128 0x2e
 10206 18de 390B0000 		.4byte	0xb39
 10207 18e2 21160000 		.4byte	.LLST89
 10208 18e6 34       		.uleb128 0x34
 10209 18e7 E0000000 		.4byte	.Ldebug_ranges0+0xe0
 10210 18eb 35       		.uleb128 0x35
ARM GAS  /tmp/ccZHgRNF.s 			page 181


 10211 18ec 440B0000 		.4byte	0xb44
 10212 18f0 35       		.uleb128 0x35
 10213 18f1 500B0000 		.4byte	0xb50
 10214 18f5 29       		.uleb128 0x29
 10215 18f6 26010000 		.4byte	.LVL301
 10216 18fa 800F0000 		.4byte	0xf80
 10217 18fe 00       		.byte	0
 10218 18ff 00       		.byte	0
 10219 1900 36       		.uleb128 0x36
 10220 1901 340A0000 		.4byte	0xa34
 10221 1905 C6000000 		.4byte	.LBB218
 10222 1909 0E000000 		.4byte	.LBE218-.LBB218
 10223 190d 01       		.byte	0x1
 10224 190e B004     		.2byte	0x4b0
 10225 1910 43190000 		.4byte	0x1943
 10226 1914 2E       		.uleb128 0x2e
 10227 1915 590A0000 		.4byte	0xa59
 10228 1919 3F160000 		.4byte	.LLST90
 10229 191d 2E       		.uleb128 0x2e
 10230 191e 4D0A0000 		.4byte	0xa4d
 10231 1922 63160000 		.4byte	.LLST91
 10232 1926 2E       		.uleb128 0x2e
 10233 1927 410A0000 		.4byte	0xa41
 10234 192b 83160000 		.4byte	.LLST92
 10235 192f 2D       		.uleb128 0x2d
 10236 1930 C6000000 		.4byte	.LBB219
 10237 1934 0E000000 		.4byte	.LBE219-.LBB219
 10238 1938 2C       		.uleb128 0x2c
 10239 1939 650A0000 		.4byte	0xa65
 10240 193d A4160000 		.4byte	.LLST93
 10241 1941 00       		.byte	0
 10242 1942 00       		.byte	0
 10243 1943 36       		.uleb128 0x36
 10244 1944 F70B0000 		.4byte	0xbf7
 10245 1948 D6000000 		.4byte	.LBB220
 10246 194c 16000000 		.4byte	.LBE220-.LBB220
 10247 1950 01       		.byte	0x1
 10248 1951 B104     		.2byte	0x4b1
 10249 1953 6A190000 		.4byte	0x196a
 10250 1957 2E       		.uleb128 0x2e
 10251 1958 130C0000 		.4byte	0xc13
 10252 195c B7160000 		.4byte	.LLST94
 10253 1960 2E       		.uleb128 0x2e
 10254 1961 080C0000 		.4byte	0xc08
 10255 1965 E0160000 		.4byte	.LLST95
 10256 1969 00       		.byte	0
 10257 196a 36       		.uleb128 0x36
 10258 196b 280B0000 		.4byte	0xb28
 10259 196f 10010000 		.4byte	.LBB222
 10260 1973 0A000000 		.4byte	.LBE222-.LBB222
 10261 1977 01       		.byte	0x1
 10262 1978 B404     		.2byte	0x4b4
 10263 197a A5190000 		.4byte	0x19a5
 10264 197e 2E       		.uleb128 0x2e
 10265 197f 390B0000 		.4byte	0xb39
 10266 1983 F3160000 		.4byte	.LLST96
 10267 1987 2D       		.uleb128 0x2d
ARM GAS  /tmp/ccZHgRNF.s 			page 182


 10268 1988 10010000 		.4byte	.LBB223
 10269 198c 0A000000 		.4byte	.LBE223-.LBB223
 10270 1990 35       		.uleb128 0x35
 10271 1991 440B0000 		.4byte	0xb44
 10272 1995 35       		.uleb128 0x35
 10273 1996 500B0000 		.4byte	0xb50
 10274 199a 29       		.uleb128 0x29
 10275 199b 1A010000 		.4byte	.LVL299
 10276 199f 800F0000 		.4byte	0xf80
 10277 19a3 00       		.byte	0
 10278 19a4 00       		.byte	0
 10279 19a5 29       		.uleb128 0x29
 10280 19a6 A0000000 		.4byte	.LVL283
 10281 19aa 0B160000 		.4byte	0x160b
 10282 19ae 00       		.byte	0
 10283 19af 00       		.byte	0
 10284 19b0 1C       		.uleb128 0x1c
 10285 19b1 E3080000 		.4byte	.LASF206
 10286 19b5 01       		.byte	0x1
 10287 19b6 D205     		.2byte	0x5d2
 10288 19b8 55090000 		.4byte	0x955
 10289 19bc 01       		.byte	0x1
 10290 19bd EF190000 		.4byte	0x19ef
 10291 19c1 1D       		.uleb128 0x1d
 10292 19c2 647000   		.ascii	"dp\000"
 10293 19c5 01       		.byte	0x1
 10294 19c6 D305     		.2byte	0x5d3
 10295 19c8 220A0000 		.4byte	0xa22
 10296 19cc 1E       		.uleb128 0x1e
 10297 19cd 72657300 		.ascii	"res\000"
 10298 19d1 01       		.byte	0x1
 10299 19d2 D605     		.2byte	0x5d6
 10300 19d4 55090000 		.4byte	0x955
 10301 19d8 1E       		.uleb128 0x1e
 10302 19d9 6300     		.ascii	"c\000"
 10303 19db 01       		.byte	0x1
 10304 19dc D705     		.2byte	0x5d7
 10305 19de 25000000 		.4byte	0x25
 10306 19e2 1E       		.uleb128 0x1e
 10307 19e3 64697200 		.ascii	"dir\000"
 10308 19e7 01       		.byte	0x1
 10309 19e8 D705     		.2byte	0x5d7
 10310 19ea F2070000 		.4byte	0x7f2
 10311 19ee 00       		.byte	0
 10312 19ef 25       		.uleb128 0x25
 10313 19f0 AA000000 		.4byte	.LASF207
 10314 19f4 01       		.byte	0x1
 10315 19f5 DF07     		.2byte	0x7df
 10316 19f7 55090000 		.4byte	0x955
 10317 19fb 00000000 		.4byte	.LFB264
 10318 19ff FC010000 		.4byte	.LFE264-.LFB264
 10319 1a03 01       		.uleb128 0x1
 10320 1a04 9C       		.byte	0x9c
 10321 1a05 461C0000 		.4byte	0x1c46
 10322 1a09 28       		.uleb128 0x28
 10323 1a0a 647000   		.ascii	"dp\000"
 10324 1a0d 01       		.byte	0x1
ARM GAS  /tmp/ccZHgRNF.s 			page 183


 10325 1a0e E007     		.2byte	0x7e0
 10326 1a10 220A0000 		.4byte	0xa22
 10327 1a14 06170000 		.4byte	.LLST97
 10328 1a18 26       		.uleb128 0x26
 10329 1a19 67000000 		.4byte	.LASF170
 10330 1a1d 01       		.byte	0x1
 10331 1a1e E107     		.2byte	0x7e1
 10332 1a20 1D0B0000 		.4byte	0xb1d
 10333 1a24 3A170000 		.4byte	.LLST98
 10334 1a28 27       		.uleb128 0x27
 10335 1a29 72657300 		.ascii	"res\000"
 10336 1a2d 01       		.byte	0x1
 10337 1a2e E407     		.2byte	0x7e4
 10338 1a30 55090000 		.4byte	0x955
 10339 1a34 9A170000 		.4byte	.LLST99
 10340 1a38 27       		.uleb128 0x27
 10341 1a39 64697200 		.ascii	"dir\000"
 10342 1a3d 01       		.byte	0x1
 10343 1a3e E507     		.2byte	0x7e5
 10344 1a40 F2070000 		.4byte	0x7f2
 10345 1a44 AD170000 		.4byte	.LLST100
 10346 1a48 27       		.uleb128 0x27
 10347 1a49 6E7300   		.ascii	"ns\000"
 10348 1a4c 01       		.byte	0x1
 10349 1a4d E507     		.2byte	0x7e5
 10350 1a4f 25000000 		.4byte	0x25
 10351 1a53 D6170000 		.4byte	.LLST101
 10352 1a57 33       		.uleb128 0x33
 10353 1a58 9A0A0000 		.4byte	0xa9a
 10354 1a5c 22000000 		.4byte	.LBB238
 10355 1a60 F8000000 		.4byte	.Ldebug_ranges0+0xf8
 10356 1a64 01       		.byte	0x1
 10357 1a65 F907     		.2byte	0x7f9
 10358 1a67 2E1B0000 		.4byte	0x1b2e
 10359 1a6b 2E       		.uleb128 0x2e
 10360 1a6c AB0A0000 		.4byte	0xaab
 10361 1a70 1C180000 		.4byte	.LLST102
 10362 1a74 2E       		.uleb128 0x2e
 10363 1a75 B60A0000 		.4byte	0xab6
 10364 1a79 45180000 		.4byte	.LLST103
 10365 1a7d 34       		.uleb128 0x34
 10366 1a7e F8000000 		.4byte	.Ldebug_ranges0+0xf8
 10367 1a82 2C       		.uleb128 0x2c
 10368 1a83 C20A0000 		.4byte	0xac2
 10369 1a87 6D180000 		.4byte	.LLST104
 10370 1a8b 2C       		.uleb128 0x2c
 10371 1a8c CC0A0000 		.4byte	0xacc
 10372 1a90 B7180000 		.4byte	.LLST105
 10373 1a94 35       		.uleb128 0x35
 10374 1a95 D60A0000 		.4byte	0xad6
 10375 1a99 2C       		.uleb128 0x2c
 10376 1a9a E00A0000 		.4byte	0xae0
 10377 1a9e 3F190000 		.4byte	.LLST106
 10378 1aa2 2C       		.uleb128 0x2c
 10379 1aa3 EC0A0000 		.4byte	0xaec
 10380 1aa7 68190000 		.4byte	.LLST107
 10381 1aab 2C       		.uleb128 0x2c
ARM GAS  /tmp/ccZHgRNF.s 			page 184


 10382 1aac F70A0000 		.4byte	0xaf7
 10383 1ab0 9D190000 		.4byte	.LLST108
 10384 1ab4 2C       		.uleb128 0x2c
 10385 1ab5 020B0000 		.4byte	0xb02
 10386 1ab9 E9190000 		.4byte	.LLST109
 10387 1abd 2C       		.uleb128 0x2c
 10388 1abe 0C0B0000 		.4byte	0xb0c
 10389 1ac2 361A0000 		.4byte	.LLST110
 10390 1ac6 36       		.uleb128 0x36
 10391 1ac7 340A0000 		.4byte	0xa34
 10392 1acb 3A000000 		.4byte	.LBB240
 10393 1acf 12000000 		.4byte	.LBE240-.LBB240
 10394 1ad3 01       		.byte	0x1
 10395 1ad4 9307     		.2byte	0x793
 10396 1ad6 091B0000 		.4byte	0x1b09
 10397 1ada 2E       		.uleb128 0x2e
 10398 1adb 590A0000 		.4byte	0xa59
 10399 1adf 5F1A0000 		.4byte	.LLST111
 10400 1ae3 2E       		.uleb128 0x2e
 10401 1ae4 4D0A0000 		.4byte	0xa4d
 10402 1ae8 731A0000 		.4byte	.LLST112
 10403 1aec 2E       		.uleb128 0x2e
 10404 1aed 410A0000 		.4byte	0xa41
 10405 1af1 3F190000 		.4byte	.LLST106
 10406 1af5 2D       		.uleb128 0x2d
 10407 1af6 3A000000 		.4byte	.LBB241
 10408 1afa 12000000 		.4byte	.LBE241-.LBB241
 10409 1afe 2C       		.uleb128 0x2c
 10410 1aff 650A0000 		.4byte	0xa65
 10411 1b03 951A0000 		.4byte	.LLST114
 10412 1b07 00       		.byte	0
 10413 1b08 00       		.byte	0
 10414 1b09 3D       		.uleb128 0x3d
 10415 1b0a 700A0000 		.4byte	0xa70
 10416 1b0e 70000000 		.4byte	.LBB242
 10417 1b12 18010000 		.4byte	.Ldebug_ranges0+0x118
 10418 1b16 01       		.byte	0x1
 10419 1b17 BB07     		.2byte	0x7bb
 10420 1b19 2E       		.uleb128 0x2e
 10421 1b1a 8D0A0000 		.4byte	0xa8d
 10422 1b1e B31A0000 		.4byte	.LLST115
 10423 1b22 2E       		.uleb128 0x2e
 10424 1b23 810A0000 		.4byte	0xa81
 10425 1b27 EC1A0000 		.4byte	.LLST116
 10426 1b2b 00       		.byte	0
 10427 1b2c 00       		.byte	0
 10428 1b2d 00       		.byte	0
 10429 1b2e 33       		.uleb128 0x33
 10430 1b2f B0190000 		.4byte	0x19b0
 10431 1b33 28010000 		.4byte	.LBB249
 10432 1b37 30010000 		.4byte	.Ldebug_ranges0+0x130
 10433 1b3b 01       		.byte	0x1
 10434 1b3c FB07     		.2byte	0x7fb
 10435 1b3e F91B0000 		.4byte	0x1bf9
 10436 1b42 2E       		.uleb128 0x2e
 10437 1b43 C1190000 		.4byte	0x19c1
 10438 1b47 321B0000 		.4byte	.LLST117
ARM GAS  /tmp/ccZHgRNF.s 			page 185


 10439 1b4b 34       		.uleb128 0x34
 10440 1b4c 30010000 		.4byte	.Ldebug_ranges0+0x130
 10441 1b50 2C       		.uleb128 0x2c
 10442 1b51 CC190000 		.4byte	0x19cc
 10443 1b55 451B0000 		.4byte	.LLST118
 10444 1b59 2C       		.uleb128 0x2c
 10445 1b5a D8190000 		.4byte	0x19d8
 10446 1b5e 9A1B0000 		.4byte	.LLST119
 10447 1b62 2C       		.uleb128 0x2c
 10448 1b63 E2190000 		.4byte	0x19e2
 10449 1b67 DF1B0000 		.4byte	.LLST120
 10450 1b6b 36       		.uleb128 0x36
 10451 1b6c 9F0C0000 		.4byte	0xc9f
 10452 1b70 68010000 		.4byte	.LBB251
 10453 1b74 0C000000 		.4byte	.LBE251-.LBB251
 10454 1b78 01       		.byte	0x1
 10455 1b79 FE05     		.2byte	0x5fe
 10456 1b7b C01B0000 		.4byte	0x1bc0
 10457 1b7f 2E       		.uleb128 0x2e
 10458 1b80 C80C0000 		.4byte	0xcc8
 10459 1b84 141C0000 		.4byte	.LLST121
 10460 1b88 2E       		.uleb128 0x2e
 10461 1b89 BC0C0000 		.4byte	0xcbc
 10462 1b8d 281C0000 		.4byte	.LLST122
 10463 1b91 2E       		.uleb128 0x2e
 10464 1b92 B00C0000 		.4byte	0xcb0
 10465 1b96 511C0000 		.4byte	.LLST123
 10466 1b9a 2D       		.uleb128 0x2d
 10467 1b9b 68010000 		.4byte	.LBB252
 10468 1b9f 0C000000 		.4byte	.LBE252-.LBB252
 10469 1ba3 2C       		.uleb128 0x2c
 10470 1ba4 D40C0000 		.4byte	0xcd4
 10471 1ba8 7A1C0000 		.4byte	.LLST124
 10472 1bac 2C       		.uleb128 0x2c
 10473 1bad DE0C0000 		.4byte	0xcde
 10474 1bb1 8D1C0000 		.4byte	.LLST125
 10475 1bb5 2C       		.uleb128 0x2c
 10476 1bb6 E80C0000 		.4byte	0xce8
 10477 1bba AB1C0000 		.4byte	.LLST126
 10478 1bbe 00       		.byte	0
 10479 1bbf 00       		.byte	0
 10480 1bc0 30       		.uleb128 0x30
 10481 1bc1 30010000 		.4byte	.LVL350
 10482 1bc5 04140000 		.4byte	0x1404
 10483 1bc9 D91B0000 		.4byte	0x1bd9
 10484 1bcd 31       		.uleb128 0x31
 10485 1bce 01       		.uleb128 0x1
 10486 1bcf 51       		.byte	0x51
 10487 1bd0 01       		.uleb128 0x1
 10488 1bd1 30       		.byte	0x30
 10489 1bd2 31       		.uleb128 0x31
 10490 1bd3 01       		.uleb128 0x1
 10491 1bd4 50       		.byte	0x50
 10492 1bd5 02       		.uleb128 0x2
 10493 1bd6 7A       		.byte	0x7a
 10494 1bd7 00       		.sleb128 0
 10495 1bd8 00       		.byte	0
ARM GAS  /tmp/ccZHgRNF.s 			page 186


 10496 1bd9 29       		.uleb128 0x29
 10497 1bda 40010000 		.4byte	.LVL353
 10498 1bde 5C0B0000 		.4byte	0xb5c
 10499 1be2 32       		.uleb128 0x32
 10500 1be3 A6010000 		.4byte	.LVL371
 10501 1be7 F5170000 		.4byte	0x17f5
 10502 1beb 31       		.uleb128 0x31
 10503 1bec 01       		.uleb128 0x1
 10504 1bed 51       		.byte	0x51
 10505 1bee 01       		.uleb128 0x1
 10506 1bef 30       		.byte	0x30
 10507 1bf0 31       		.uleb128 0x31
 10508 1bf1 01       		.uleb128 0x1
 10509 1bf2 50       		.byte	0x50
 10510 1bf3 02       		.uleb128 0x2
 10511 1bf4 7A       		.byte	0x7a
 10512 1bf5 00       		.sleb128 0
 10513 1bf6 00       		.byte	0
 10514 1bf7 00       		.byte	0
 10515 1bf8 00       		.byte	0
 10516 1bf9 33       		.uleb128 0x33
 10517 1bfa 9D090000 		.4byte	0x99d
 10518 1bfe 86010000 		.4byte	.LBB254
 10519 1c02 48010000 		.4byte	.Ldebug_ranges0+0x148
 10520 1c06 01       		.byte	0x1
 10521 1c07 0E08     		.2byte	0x80e
 10522 1c09 2F1C0000 		.4byte	0x1c2f
 10523 1c0d 2E       		.uleb128 0x2e
 10524 1c0e AE090000 		.4byte	0x9ae
 10525 1c12 2B1D0000 		.4byte	.LLST127
 10526 1c16 2E       		.uleb128 0x2e
 10527 1c17 B9090000 		.4byte	0x9b9
 10528 1c1b 4B1D0000 		.4byte	.LLST128
 10529 1c1f 34       		.uleb128 0x34
 10530 1c20 48010000 		.4byte	.Ldebug_ranges0+0x148
 10531 1c24 2C       		.uleb128 0x2c
 10532 1c25 C5090000 		.4byte	0x9c5
 10533 1c29 691D0000 		.4byte	.LLST129
 10534 1c2d 00       		.byte	0
 10535 1c2e 00       		.byte	0
 10536 1c2f 32       		.uleb128 0x32
 10537 1c30 EE000000 		.4byte	.LVL342
 10538 1c34 04140000 		.4byte	0x1404
 10539 1c38 31       		.uleb128 0x31
 10540 1c39 01       		.uleb128 0x1
 10541 1c3a 51       		.byte	0x51
 10542 1c3b 02       		.uleb128 0x2
 10543 1c3c 74       		.byte	0x74
 10544 1c3d 00       		.sleb128 0
 10545 1c3e 31       		.uleb128 0x31
 10546 1c3f 01       		.uleb128 0x1
 10547 1c40 50       		.byte	0x50
 10548 1c41 02       		.uleb128 0x2
 10549 1c42 7A       		.byte	0x7a
 10550 1c43 00       		.sleb128 0
 10551 1c44 00       		.byte	0
 10552 1c45 00       		.byte	0
ARM GAS  /tmp/ccZHgRNF.s 			page 187


 10553 1c46 2A       		.uleb128 0x2a
 10554 1c47 740D0000 		.4byte	0xd74
 10555 1c4b 00000000 		.4byte	.LFB297
 10556 1c4f 5C000000 		.4byte	.LFE297-.LFB297
 10557 1c53 01       		.uleb128 0x1
 10558 1c54 9C       		.byte	0x9c
 10559 1c55 2C1D0000 		.4byte	0x1d2c
 10560 1c59 2E       		.uleb128 0x2e
 10561 1c5a 850D0000 		.4byte	0xd85
 10562 1c5e 931D0000 		.4byte	.LLST130
 10563 1c62 2E       		.uleb128 0x2e
 10564 1c63 900D0000 		.4byte	0xd90
 10565 1c67 B11D0000 		.4byte	.LLST131
 10566 1c6b 2C       		.uleb128 0x2c
 10567 1c6c 9C0D0000 		.4byte	0xd9c
 10568 1c70 CF1D0000 		.4byte	.LLST132
 10569 1c74 35       		.uleb128 0x35
 10570 1c75 A80D0000 		.4byte	0xda8
 10571 1c79 36       		.uleb128 0x36
 10572 1c7a AE0B0000 		.4byte	0xbae
 10573 1c7e 0C000000 		.4byte	.LBB260
 10574 1c82 0C000000 		.4byte	.LBE260-.LBB260
 10575 1c86 01       		.byte	0x1
 10576 1c87 DF03     		.2byte	0x3df
 10577 1c89 CB1C0000 		.4byte	0x1ccb
 10578 1c8d 2E       		.uleb128 0x2e
 10579 1c8e CA0B0000 		.4byte	0xbca
 10580 1c92 FA1D0000 		.4byte	.LLST133
 10581 1c96 3E       		.uleb128 0x3e
 10582 1c97 BF0B0000 		.4byte	0xbbf
 10583 1c9b 2D       		.uleb128 0x2d
 10584 1c9c 0C000000 		.4byte	.LBB261
 10585 1ca0 0C000000 		.4byte	.LBE261-.LBB261
 10586 1ca4 35       		.uleb128 0x35
 10587 1ca5 D60B0000 		.4byte	0xbd6
 10588 1ca9 35       		.uleb128 0x35
 10589 1caa E10B0000 		.4byte	0xbe1
 10590 1cae 35       		.uleb128 0x35
 10591 1caf EC0B0000 		.4byte	0xbec
 10592 1cb3 32       		.uleb128 0x32
 10593 1cb4 18000000 		.4byte	.LVL387
 10594 1cb8 77130000 		.4byte	0x1377
 10595 1cbc 31       		.uleb128 0x31
 10596 1cbd 01       		.uleb128 0x1
 10597 1cbe 51       		.byte	0x51
 10598 1cbf 02       		.uleb128 0x2
 10599 1cc0 75       		.byte	0x75
 10600 1cc1 00       		.sleb128 0
 10601 1cc2 31       		.uleb128 0x31
 10602 1cc3 01       		.uleb128 0x1
 10603 1cc4 50       		.byte	0x50
 10604 1cc5 02       		.uleb128 0x2
 10605 1cc6 74       		.byte	0x74
 10606 1cc7 00       		.sleb128 0
 10607 1cc8 00       		.byte	0
 10608 1cc9 00       		.byte	0
 10609 1cca 00       		.byte	0
ARM GAS  /tmp/ccZHgRNF.s 			page 188


 10610 1ccb 3D       		.uleb128 0x3d
 10611 1ccc 490C0000 		.4byte	0xc49
 10612 1cd0 24000000 		.4byte	.LBB262
 10613 1cd4 60010000 		.4byte	.Ldebug_ranges0+0x160
 10614 1cd8 01       		.byte	0x1
 10615 1cd9 E303     		.2byte	0x3e3
 10616 1cdb 2E       		.uleb128 0x2e
 10617 1cdc 710C0000 		.4byte	0xc71
 10618 1ce0 181E0000 		.4byte	.LLST134
 10619 1ce4 2E       		.uleb128 0x2e
 10620 1ce5 650C0000 		.4byte	0xc65
 10621 1ce9 441E0000 		.4byte	.LLST135
 10622 1ced 2E       		.uleb128 0x2e
 10623 1cee 5A0C0000 		.4byte	0xc5a
 10624 1cf2 6D1E0000 		.4byte	.LLST136
 10625 1cf6 34       		.uleb128 0x34
 10626 1cf7 60010000 		.4byte	.Ldebug_ranges0+0x160
 10627 1cfb 35       		.uleb128 0x35
 10628 1cfc 7D0C0000 		.4byte	0xc7d
 10629 1d00 35       		.uleb128 0x35
 10630 1d01 880C0000 		.4byte	0xc88
 10631 1d05 2C       		.uleb128 0x2c
 10632 1d06 920C0000 		.4byte	0xc92
 10633 1d0a 961E0000 		.4byte	.LLST137
 10634 1d0e 32       		.uleb128 0x32
 10635 1d0f 38000000 		.4byte	.LVL390
 10636 1d13 75150000 		.4byte	0x1575
 10637 1d17 31       		.uleb128 0x31
 10638 1d18 01       		.uleb128 0x1
 10639 1d19 52       		.byte	0x52
 10640 1d1a 01       		.uleb128 0x1
 10641 1d1b 30       		.byte	0x30
 10642 1d1c 31       		.uleb128 0x31
 10643 1d1d 01       		.uleb128 0x1
 10644 1d1e 51       		.byte	0x51
 10645 1d1f 02       		.uleb128 0x2
 10646 1d20 75       		.byte	0x75
 10647 1d21 00       		.sleb128 0
 10648 1d22 31       		.uleb128 0x31
 10649 1d23 01       		.uleb128 0x1
 10650 1d24 50       		.byte	0x50
 10651 1d25 02       		.uleb128 0x2
 10652 1d26 74       		.byte	0x74
 10653 1d27 00       		.sleb128 0
 10654 1d28 00       		.byte	0
 10655 1d29 00       		.byte	0
 10656 1d2a 00       		.byte	0
 10657 1d2b 00       		.byte	0
 10658 1d2c 2A       		.uleb128 0x2a
 10659 1d2d 190E0000 		.4byte	0xe19
 10660 1d31 00000000 		.4byte	.LFB299
 10661 1d35 5A000000 		.4byte	.LFE299-.LFB299
 10662 1d39 01       		.uleb128 0x1
 10663 1d3a 9C       		.byte	0x9c
 10664 1d3b 851D0000 		.4byte	0x1d85
 10665 1d3f 2E       		.uleb128 0x2e
 10666 1d40 2A0E0000 		.4byte	0xe2a
ARM GAS  /tmp/ccZHgRNF.s 			page 189


 10667 1d44 A91E0000 		.4byte	.LLST138
 10668 1d48 2C       		.uleb128 0x2c
 10669 1d49 410E0000 		.4byte	0xe41
 10670 1d4d F31E0000 		.4byte	.LLST139
 10671 1d51 2C       		.uleb128 0x2c
 10672 1d52 4D0E0000 		.4byte	0xe4d
 10673 1d56 3D1F0000 		.4byte	.LLST140
 10674 1d5a 2C       		.uleb128 0x2c
 10675 1d5b 570E0000 		.4byte	0xe57
 10676 1d5f 6A1F0000 		.4byte	.LLST141
 10677 1d63 2C       		.uleb128 0x2c
 10678 1d64 610E0000 		.4byte	0xe61
 10679 1d68 971F0000 		.4byte	.LLST142
 10680 1d6c 37       		.uleb128 0x37
 10681 1d6d 350E0000 		.4byte	0xe35
 10682 1d71 00       		.byte	0
 10683 1d72 29       		.uleb128 0x29
 10684 1d73 0E000000 		.4byte	.LVL397
 10685 1d77 5C0B0000 		.4byte	0xb5c
 10686 1d7b 29       		.uleb128 0x29
 10687 1d7c 36000000 		.4byte	.LVL404
 10688 1d80 F5170000 		.4byte	0x17f5
 10689 1d84 00       		.byte	0
 10690 1d85 2A       		.uleb128 0x2a
 10691 1d86 4B0D0000 		.4byte	0xd4b
 10692 1d8a 00000000 		.4byte	.LFB260
 10693 1d8e 70000000 		.4byte	.LFE260-.LFB260
 10694 1d92 01       		.uleb128 0x1
 10695 1d93 9C       		.byte	0x9c
 10696 1d94 C91E0000 		.4byte	0x1ec9
 10697 1d98 2E       		.uleb128 0x2e
 10698 1d99 5C0D0000 		.4byte	0xd5c
 10699 1d9d C11F0000 		.4byte	.LLST143
 10700 1da1 2C       		.uleb128 0x2c
 10701 1da2 670D0000 		.4byte	0xd67
 10702 1da6 F51F0000 		.4byte	.LLST144
 10703 1daa 33       		.uleb128 0x33
 10704 1dab DA0D0000 		.4byte	0xdda
 10705 1daf 02000000 		.4byte	.LBB274
 10706 1db3 78010000 		.4byte	.Ldebug_ranges0+0x178
 10707 1db7 01       		.byte	0x1
 10708 1db8 7D06     		.2byte	0x67d
 10709 1dba 0E1E0000 		.4byte	0x1e0e
 10710 1dbe 37       		.uleb128 0x37
 10711 1dbf F60D0000 		.4byte	0xdf6
 10712 1dc3 01       		.byte	0x1
 10713 1dc4 2E       		.uleb128 0x2e
 10714 1dc5 EB0D0000 		.4byte	0xdeb
 10715 1dc9 08200000 		.4byte	.LLST145
 10716 1dcd 34       		.uleb128 0x34
 10717 1dce 78010000 		.4byte	.Ldebug_ranges0+0x178
 10718 1dd2 2C       		.uleb128 0x2c
 10719 1dd3 020E0000 		.4byte	0xe02
 10720 1dd7 3C200000 		.4byte	.LLST146
 10721 1ddb 3F       		.uleb128 0x3f
 10722 1ddc 0E0E0000 		.4byte	0xe0e
 10723 1de0 00       		.byte	0
ARM GAS  /tmp/ccZHgRNF.s 			page 190


 10724 1de1 30       		.uleb128 0x30
 10725 1de2 0A000000 		.4byte	.LVL415
 10726 1de6 04140000 		.4byte	0x1404
 10727 1dea FA1D0000 		.4byte	0x1dfa
 10728 1dee 31       		.uleb128 0x31
 10729 1def 01       		.uleb128 0x1
 10730 1df0 51       		.byte	0x51
 10731 1df1 01       		.uleb128 0x1
 10732 1df2 30       		.byte	0x30
 10733 1df3 31       		.uleb128 0x31
 10734 1df4 01       		.uleb128 0x1
 10735 1df5 50       		.byte	0x50
 10736 1df6 02       		.uleb128 0x2
 10737 1df7 74       		.byte	0x74
 10738 1df8 00       		.sleb128 0
 10739 1df9 00       		.byte	0
 10740 1dfa 29       		.uleb128 0x29
 10741 1dfb 18000000 		.4byte	.LVL418
 10742 1dff F5170000 		.4byte	0x17f5
 10743 1e03 29       		.uleb128 0x29
 10744 1e04 24000000 		.4byte	.LVL421
 10745 1e08 5C0B0000 		.4byte	0xb5c
 10746 1e0c 00       		.byte	0
 10747 1e0d 00       		.byte	0
 10748 1e0e 2D       		.uleb128 0x2d
 10749 1e0f 38000000 		.4byte	.LBB278
 10750 1e13 34000000 		.4byte	.LBE278-.LBB278
 10751 1e17 2B       		.uleb128 0x2b
 10752 1e18 5C0D0000 		.4byte	0xd5c
 10753 1e1c 01       		.uleb128 0x1
 10754 1e1d 54       		.byte	0x54
 10755 1e1e 2D       		.uleb128 0x2d
 10756 1e1f 38000000 		.4byte	.LBB279
 10757 1e23 34000000 		.4byte	.LBE279-.LBB279
 10758 1e27 2F       		.uleb128 0x2f
 10759 1e28 670D0000 		.4byte	0xd67
 10760 1e2c 01       		.uleb128 0x1
 10761 1e2d 50       		.byte	0x50
 10762 1e2e 36       		.uleb128 0x36
 10763 1e2f 340A0000 		.4byte	0xa34
 10764 1e33 44000000 		.4byte	.LBB280
 10765 1e37 0E000000 		.4byte	.LBE280-.LBB280
 10766 1e3b 01       		.byte	0x1
 10767 1e3c 8306     		.2byte	0x683
 10768 1e3e 711E0000 		.4byte	0x1e71
 10769 1e42 2E       		.uleb128 0x2e
 10770 1e43 590A0000 		.4byte	0xa59
 10771 1e47 71200000 		.4byte	.LLST147
 10772 1e4b 2E       		.uleb128 0x2e
 10773 1e4c 4D0A0000 		.4byte	0xa4d
 10774 1e50 85200000 		.4byte	.LLST148
 10775 1e54 2E       		.uleb128 0x2e
 10776 1e55 410A0000 		.4byte	0xa41
 10777 1e59 99200000 		.4byte	.LLST149
 10778 1e5d 2D       		.uleb128 0x2d
 10779 1e5e 44000000 		.4byte	.LBB281
 10780 1e62 0E000000 		.4byte	.LBE281-.LBB281
ARM GAS  /tmp/ccZHgRNF.s 			page 191


 10781 1e66 2C       		.uleb128 0x2c
 10782 1e67 650A0000 		.4byte	0xa65
 10783 1e6b B9200000 		.4byte	.LLST150
 10784 1e6f 00       		.byte	0
 10785 1e70 00       		.byte	0
 10786 1e71 36       		.uleb128 0x36
 10787 1e72 050D0000 		.4byte	0xd05
 10788 1e76 5A000000 		.4byte	.LBB282
 10789 1e7a 0C000000 		.4byte	.LBE282-.LBB282
 10790 1e7e 01       		.byte	0x1
 10791 1e7f 8406     		.2byte	0x684
 10792 1e81 BD1E0000 		.4byte	0x1ebd
 10793 1e85 2E       		.uleb128 0x2e
 10794 1e86 2A0D0000 		.4byte	0xd2a
 10795 1e8a CC200000 		.4byte	.LLST151
 10796 1e8e 2E       		.uleb128 0x2e
 10797 1e8f 1E0D0000 		.4byte	0xd1e
 10798 1e93 E0200000 		.4byte	.LLST152
 10799 1e97 2E       		.uleb128 0x2e
 10800 1e98 120D0000 		.4byte	0xd12
 10801 1e9c 00210000 		.4byte	.LLST153
 10802 1ea0 2D       		.uleb128 0x2d
 10803 1ea1 5A000000 		.4byte	.LBB283
 10804 1ea5 0C000000 		.4byte	.LBE283-.LBB283
 10805 1ea9 2C       		.uleb128 0x2c
 10806 1eaa 360D0000 		.4byte	0xd36
 10807 1eae 13210000 		.4byte	.LLST154
 10808 1eb2 2C       		.uleb128 0x2c
 10809 1eb3 400D0000 		.4byte	0xd40
 10810 1eb7 26210000 		.4byte	.LLST155
 10811 1ebb 00       		.byte	0
 10812 1ebc 00       		.byte	0
 10813 1ebd 29       		.uleb128 0x29
 10814 1ebe 40000000 		.4byte	.LVL424
 10815 1ec2 5C0B0000 		.4byte	0xb5c
 10816 1ec6 00       		.byte	0
 10817 1ec7 00       		.byte	0
 10818 1ec8 00       		.byte	0
 10819 1ec9 2A       		.uleb128 0x2a
 10820 1eca F70B0000 		.4byte	0xbf7
 10821 1ece 00000000 		.4byte	.LFB248
 10822 1ed2 16000000 		.4byte	.LFE248-.LFB248
 10823 1ed6 01       		.uleb128 0x1
 10824 1ed7 9C       		.byte	0x9c
 10825 1ed8 EF1E0000 		.4byte	0x1eef
 10826 1edc 2E       		.uleb128 0x2e
 10827 1edd 080C0000 		.4byte	0xc08
 10828 1ee1 51210000 		.4byte	.LLST156
 10829 1ee5 2E       		.uleb128 0x2e
 10830 1ee6 130C0000 		.4byte	0xc13
 10831 1eea 72210000 		.4byte	.LLST157
 10832 1eee 00       		.byte	0
 10833 1eef 2A       		.uleb128 0x2a
 10834 1ef0 AE0B0000 		.4byte	0xbae
 10835 1ef4 00000000 		.4byte	.LFB249
 10836 1ef8 12000000 		.4byte	.LFE249-.LFB249
 10837 1efc 01       		.uleb128 0x1
ARM GAS  /tmp/ccZHgRNF.s 			page 192


 10838 1efd 9C       		.byte	0x9c
 10839 1efe 3C1F0000 		.4byte	0x1f3c
 10840 1f02 2E       		.uleb128 0x2e
 10841 1f03 BF0B0000 		.4byte	0xbbf
 10842 1f07 90210000 		.4byte	.LLST158
 10843 1f0b 2E       		.uleb128 0x2e
 10844 1f0c CA0B0000 		.4byte	0xbca
 10845 1f10 CA210000 		.4byte	.LLST159
 10846 1f14 35       		.uleb128 0x35
 10847 1f15 D60B0000 		.4byte	0xbd6
 10848 1f19 35       		.uleb128 0x35
 10849 1f1a E10B0000 		.4byte	0xbe1
 10850 1f1e 35       		.uleb128 0x35
 10851 1f1f EC0B0000 		.4byte	0xbec
 10852 1f23 40       		.uleb128 0x40
 10853 1f24 0E000000 		.4byte	.LVL441
 10854 1f28 77130000 		.4byte	0x1377
 10855 1f2c 31       		.uleb128 0x31
 10856 1f2d 01       		.uleb128 0x1
 10857 1f2e 51       		.byte	0x51
 10858 1f2f 03       		.uleb128 0x3
 10859 1f30 F3       		.byte	0xf3
 10860 1f31 01       		.uleb128 0x1
 10861 1f32 51       		.byte	0x51
 10862 1f33 31       		.uleb128 0x31
 10863 1f34 01       		.uleb128 0x1
 10864 1f35 50       		.byte	0x50
 10865 1f36 03       		.uleb128 0x3
 10866 1f37 F3       		.byte	0xf3
 10867 1f38 01       		.uleb128 0x1
 10868 1f39 50       		.byte	0x50
 10869 1f3a 00       		.byte	0
 10870 1f3b 00       		.byte	0
 10871 1f3c 2A       		.uleb128 0x2a
 10872 1f3d 490C0000 		.4byte	0xc49
 10873 1f41 00000000 		.4byte	.LFB250
 10874 1f45 1C000000 		.4byte	.LFE250-.LFB250
 10875 1f49 01       		.uleb128 0x1
 10876 1f4a 9C       		.byte	0x9c
 10877 1f4b 831F0000 		.4byte	0x1f83
 10878 1f4f 2E       		.uleb128 0x2e
 10879 1f50 5A0C0000 		.4byte	0xc5a
 10880 1f54 F6210000 		.4byte	.LLST160
 10881 1f58 2E       		.uleb128 0x2e
 10882 1f59 650C0000 		.4byte	0xc65
 10883 1f5d 30220000 		.4byte	.LLST161
 10884 1f61 2E       		.uleb128 0x2e
 10885 1f62 710C0000 		.4byte	0xc71
 10886 1f66 51220000 		.4byte	.LLST162
 10887 1f6a 35       		.uleb128 0x35
 10888 1f6b 7D0C0000 		.4byte	0xc7d
 10889 1f6f 35       		.uleb128 0x35
 10890 1f70 880C0000 		.4byte	0xc88
 10891 1f74 35       		.uleb128 0x35
 10892 1f75 920C0000 		.4byte	0xc92
 10893 1f79 41       		.uleb128 0x41
 10894 1f7a 1C000000 		.4byte	.LVL446
ARM GAS  /tmp/ccZHgRNF.s 			page 193


 10895 1f7e 75150000 		.4byte	0x1575
 10896 1f82 00       		.byte	0
 10897 1f83 42       		.uleb128 0x42
 10898 1f84 5F040000 		.4byte	.LASF208
 10899 1f88 01       		.byte	0x1
 10900 1f89 4009     		.2byte	0x940
 10901 1f8b 55090000 		.4byte	0x955
 10902 1f8f 00000000 		.4byte	.LFB269
 10903 1f93 5C000000 		.4byte	.LFE269-.LFB269
 10904 1f97 01       		.uleb128 0x1
 10905 1f98 9C       		.byte	0x9c
 10906 1f99 33200000 		.4byte	0x2033
 10907 1f9d 28       		.uleb128 0x28
 10908 1f9e 667300   		.ascii	"fs\000"
 10909 1fa1 01       		.byte	0x1
 10910 1fa2 4109     		.2byte	0x941
 10911 1fa4 EC070000 		.4byte	0x7ec
 10912 1fa8 72220000 		.4byte	.LLST163
 10913 1fac 26       		.uleb128 0x26
 10914 1fad 67000000 		.4byte	.LASF170
 10915 1fb1 01       		.byte	0x1
 10916 1fb2 4209     		.2byte	0x942
 10917 1fb4 1D0B0000 		.4byte	0xb1d
 10918 1fb8 B5220000 		.4byte	.LLST164
 10919 1fbc 28       		.uleb128 0x28
 10920 1fbd 6F707400 		.ascii	"opt\000"
 10921 1fc1 01       		.byte	0x1
 10922 1fc2 4309     		.2byte	0x943
 10923 1fc4 25000000 		.4byte	0x25
 10924 1fc8 1C230000 		.4byte	.LLST165
 10925 1fcc 27       		.uleb128 0x27
 10926 1fcd 63667300 		.ascii	"cfs\000"
 10927 1fd1 01       		.byte	0x1
 10928 1fd2 4609     		.2byte	0x946
 10929 1fd4 EC070000 		.4byte	0x7ec
 10930 1fd8 3D230000 		.4byte	.LLST166
 10931 1fdc 27       		.uleb128 0x27
 10932 1fdd 766F6C00 		.ascii	"vol\000"
 10933 1fe1 01       		.byte	0x1
 10934 1fe2 4709     		.2byte	0x947
 10935 1fe4 50000000 		.4byte	0x50
 10936 1fe8 50230000 		.4byte	.LLST167
 10937 1fec 3B       		.uleb128 0x3b
 10938 1fed 72657300 		.ascii	"res\000"
 10939 1ff1 01       		.byte	0x1
 10940 1ff2 4809     		.2byte	0x948
 10941 1ff4 55090000 		.4byte	0x955
 10942 1ff8 01       		.uleb128 0x1
 10943 1ff9 50       		.byte	0x50
 10944 1ffa 3B       		.uleb128 0x3b
 10945 1ffb 727000   		.ascii	"rp\000"
 10946 1ffe 01       		.byte	0x1
 10947 1fff 4909     		.2byte	0x949
 10948 2001 1D0B0000 		.4byte	0xb1d
 10949 2005 02       		.uleb128 0x2
 10950 2006 91       		.byte	0x91
 10951 2007 6C       		.sleb128 -20
ARM GAS  /tmp/ccZHgRNF.s 			page 194


 10952 2008 30       		.uleb128 0x30
 10953 2009 16000000 		.4byte	.LVL449
 10954 200d 6E0E0000 		.4byte	0xe6e
 10955 2011 1C200000 		.4byte	0x201c
 10956 2015 31       		.uleb128 0x31
 10957 2016 01       		.uleb128 0x1
 10958 2017 50       		.byte	0x50
 10959 2018 02       		.uleb128 0x2
 10960 2019 91       		.byte	0x91
 10961 201a 6C       		.sleb128 -20
 10962 201b 00       		.byte	0
 10963 201c 32       		.uleb128 0x32
 10964 201d 52000000 		.4byte	.LVL462
 10965 2021 B1110000 		.4byte	0x11b1
 10966 2025 31       		.uleb128 0x31
 10967 2026 01       		.uleb128 0x1
 10968 2027 51       		.byte	0x51
 10969 2028 02       		.uleb128 0x2
 10970 2029 7D       		.byte	0x7d
 10971 202a 00       		.sleb128 0
 10972 202b 31       		.uleb128 0x31
 10973 202c 01       		.uleb128 0x1
 10974 202d 50       		.byte	0x50
 10975 202e 02       		.uleb128 0x2
 10976 202f 91       		.byte	0x91
 10977 2030 64       		.sleb128 -28
 10978 2031 00       		.byte	0
 10979 2032 00       		.byte	0
 10980 2033 42       		.uleb128 0x42
 10981 2034 FB000000 		.4byte	.LASF209
 10982 2038 01       		.byte	0x1
 10983 2039 6F09     		.2byte	0x96f
 10984 203b 55090000 		.4byte	0x955
 10985 203f 00000000 		.4byte	.LFB270
 10986 2043 7C010000 		.4byte	.LFE270-.LFB270
 10987 2047 01       		.uleb128 0x1
 10988 2048 9C       		.byte	0x9c
 10989 2049 1C220000 		.4byte	0x221c
 10990 204d 28       		.uleb128 0x28
 10991 204e 667000   		.ascii	"fp\000"
 10992 2051 01       		.byte	0x1
 10993 2052 7009     		.2byte	0x970
 10994 2054 190F0000 		.4byte	0xf19
 10995 2058 B0230000 		.4byte	.LLST168
 10996 205c 26       		.uleb128 0x26
 10997 205d 67000000 		.4byte	.LASF170
 10998 2061 01       		.byte	0x1
 10999 2062 7109     		.2byte	0x971
 11000 2064 1D0B0000 		.4byte	0xb1d
 11001 2068 E4230000 		.4byte	.LLST169
 11002 206c 26       		.uleb128 0x26
 11003 206d 0F090000 		.4byte	.LASF210
 11004 2071 01       		.byte	0x1
 11005 2072 7209     		.2byte	0x972
 11006 2074 25000000 		.4byte	0x25
 11007 2078 28240000 		.4byte	.LLST170
 11008 207c 27       		.uleb128 0x27
ARM GAS  /tmp/ccZHgRNF.s 			page 195


 11009 207d 72657300 		.ascii	"res\000"
 11010 2081 01       		.byte	0x1
 11011 2082 7509     		.2byte	0x975
 11012 2084 55090000 		.4byte	0x955
 11013 2088 CC240000 		.4byte	.LLST171
 11014 208c 3B       		.uleb128 0x3b
 11015 208d 646A00   		.ascii	"dj\000"
 11016 2090 01       		.byte	0x1
 11017 2091 7609     		.2byte	0x976
 11018 2093 69080000 		.4byte	0x869
 11019 2097 02       		.uleb128 0x2
 11020 2098 91       		.byte	0x91
 11021 2099 4C       		.sleb128 -52
 11022 209a 27       		.uleb128 0x27
 11023 209b 64697200 		.ascii	"dir\000"
 11024 209f 01       		.byte	0x1
 11025 20a0 7709     		.2byte	0x977
 11026 20a2 F2070000 		.4byte	0x7f2
 11027 20a6 51250000 		.4byte	.LLST172
 11028 20aa 3B       		.uleb128 0x3b
 11029 20ab 73666E00 		.ascii	"sfn\000"
 11030 20af 01       		.byte	0x1
 11031 20b0 7809     		.2byte	0x978
 11032 20b2 1C220000 		.4byte	0x221c
 11033 20b6 02       		.uleb128 0x2
 11034 20b7 91       		.byte	0x91
 11035 20b8 40       		.sleb128 -64
 11036 20b9 3A       		.uleb128 0x3a
 11037 20ba 90010000 		.4byte	.Ldebug_ranges0+0x190
 11038 20be B2210000 		.4byte	0x21b2
 11039 20c2 27       		.uleb128 0x27
 11040 20c3 647700   		.ascii	"dw\000"
 11041 20c6 01       		.byte	0x1
 11042 20c7 9509     		.2byte	0x995
 11043 20c9 70000000 		.4byte	0x70
 11044 20cd 86250000 		.4byte	.LLST173
 11045 20d1 3B       		.uleb128 0x3b
 11046 20d2 636C00   		.ascii	"cl\000"
 11047 20d5 01       		.byte	0x1
 11048 20d6 9509     		.2byte	0x995
 11049 20d8 70000000 		.4byte	0x70
 11050 20dc 01       		.uleb128 0x1
 11051 20dd 55       		.byte	0x55
 11052 20de 33       		.uleb128 0x33
 11053 20df 9D090000 		.4byte	0x99d
 11054 20e3 18010000 		.4byte	.LBB285
 11055 20e7 A8010000 		.4byte	.Ldebug_ranges0+0x1a8
 11056 20eb 01       		.byte	0x1
 11057 20ec AE09     		.2byte	0x9ae
 11058 20ee 12210000 		.4byte	0x2112
 11059 20f2 2E       		.uleb128 0x2e
 11060 20f3 AE090000 		.4byte	0x9ae
 11061 20f7 BA250000 		.4byte	.LLST174
 11062 20fb 2B       		.uleb128 0x2b
 11063 20fc B9090000 		.4byte	0x9b9
 11064 2100 01       		.uleb128 0x1
 11065 2101 56       		.byte	0x56
ARM GAS  /tmp/ccZHgRNF.s 			page 196


 11066 2102 34       		.uleb128 0x34
 11067 2103 A8010000 		.4byte	.Ldebug_ranges0+0x1a8
 11068 2107 2C       		.uleb128 0x2c
 11069 2108 C5090000 		.4byte	0x9c5
 11070 210c CD250000 		.4byte	.LLST175
 11071 2110 00       		.byte	0
 11072 2111 00       		.byte	0
 11073 2112 33       		.uleb128 0x33
 11074 2113 B50D0000 		.4byte	0xdb5
 11075 2117 26010000 		.4byte	.LBB288
 11076 211b C0010000 		.4byte	.Ldebug_ranges0+0x1c0
 11077 211f 01       		.byte	0x1
 11078 2120 AF09     		.2byte	0x9af
 11079 2122 39210000 		.4byte	0x2139
 11080 2126 2E       		.uleb128 0x2e
 11081 2127 CE0D0000 		.4byte	0xdce
 11082 212b ED250000 		.4byte	.LLST176
 11083 212f 2E       		.uleb128 0x2e
 11084 2130 C20D0000 		.4byte	0xdc2
 11085 2134 0D260000 		.4byte	.LLST177
 11086 2138 00       		.byte	0
 11087 2139 33       		.uleb128 0x33
 11088 213a 740D0000 		.4byte	0xd74
 11089 213e 38010000 		.4byte	.LBB292
 11090 2142 D8010000 		.4byte	.Ldebug_ranges0+0x1d8
 11091 2146 01       		.byte	0x1
 11092 2147 B309     		.2byte	0x9b3
 11093 2149 84210000 		.4byte	0x2184
 11094 214d 2E       		.uleb128 0x2e
 11095 214e 900D0000 		.4byte	0xd90
 11096 2152 2B260000 		.4byte	.LLST178
 11097 2156 2E       		.uleb128 0x2e
 11098 2157 850D0000 		.4byte	0xd85
 11099 215b 56260000 		.4byte	.LLST179
 11100 215f 34       		.uleb128 0x34
 11101 2160 D8010000 		.4byte	.Ldebug_ranges0+0x1d8
 11102 2164 2C       		.uleb128 0x2c
 11103 2165 9C0D0000 		.4byte	0xd9c
 11104 2169 74260000 		.4byte	.LLST180
 11105 216d 35       		.uleb128 0x35
 11106 216e A80D0000 		.4byte	0xda8
 11107 2172 32       		.uleb128 0x32
 11108 2173 60010000 		.4byte	.LVL510
 11109 2177 461C0000 		.4byte	0x1c46
 11110 217b 31       		.uleb128 0x31
 11111 217c 01       		.uleb128 0x1
 11112 217d 51       		.byte	0x51
 11113 217e 02       		.uleb128 0x2
 11114 217f 75       		.byte	0x75
 11115 2180 00       		.sleb128 0
 11116 2181 00       		.byte	0
 11117 2182 00       		.byte	0
 11118 2183 00       		.byte	0
 11119 2184 30       		.uleb128 0x30
 11120 2185 52000000 		.4byte	.LVL480
 11121 2189 4B0D0000 		.4byte	0xd4b
 11122 218d 98210000 		.4byte	0x2198
ARM GAS  /tmp/ccZHgRNF.s 			page 197


 11123 2191 31       		.uleb128 0x31
 11124 2192 01       		.uleb128 0x1
 11125 2193 50       		.byte	0x50
 11126 2194 02       		.uleb128 0x2
 11127 2195 91       		.byte	0x91
 11128 2196 4C       		.sleb128 -52
 11129 2197 00       		.byte	0
 11130 2198 29       		.uleb128 0x29
 11131 2199 F8000000 		.4byte	.LVL502
 11132 219d 37390000 		.4byte	0x3937
 11133 21a1 32       		.uleb128 0x32
 11134 21a2 72010000 		.4byte	.LVL513
 11135 21a6 5C0B0000 		.4byte	0xb5c
 11136 21aa 31       		.uleb128 0x31
 11137 21ab 01       		.uleb128 0x1
 11138 21ac 51       		.byte	0x51
 11139 21ad 02       		.uleb128 0x2
 11140 21ae 78       		.byte	0x78
 11141 21af 00       		.sleb128 0
 11142 21b0 00       		.byte	0
 11143 21b1 00       		.byte	0
 11144 21b2 33       		.uleb128 0x33
 11145 21b3 9D090000 		.4byte	0x99d
 11146 21b7 9E000000 		.4byte	.LBB299
 11147 21bb F8010000 		.4byte	.Ldebug_ranges0+0x1f8
 11148 21bf 01       		.byte	0x1
 11149 21c0 E009     		.2byte	0x9e0
 11150 21c2 E8210000 		.4byte	0x21e8
 11151 21c6 2E       		.uleb128 0x2e
 11152 21c7 AE090000 		.4byte	0x9ae
 11153 21cb 87260000 		.4byte	.LLST181
 11154 21cf 2E       		.uleb128 0x2e
 11155 21d0 B9090000 		.4byte	0x9b9
 11156 21d4 B1260000 		.4byte	.LLST182
 11157 21d8 34       		.uleb128 0x34
 11158 21d9 F8010000 		.4byte	.Ldebug_ranges0+0x1f8
 11159 21dd 2C       		.uleb128 0x2c
 11160 21de C5090000 		.4byte	0x9c5
 11161 21e2 C4260000 		.4byte	.LLST183
 11162 21e6 00       		.byte	0
 11163 21e7 00       		.byte	0
 11164 21e8 30       		.uleb128 0x30
 11165 21e9 1E000000 		.4byte	.LVL470
 11166 21ed B1110000 		.4byte	0x11b1
 11167 21f1 0B220000 		.4byte	0x220b
 11168 21f5 31       		.uleb128 0x31
 11169 21f6 01       		.uleb128 0x1
 11170 21f7 52       		.byte	0x52
 11171 21f8 04       		.uleb128 0x4
 11172 21f9 75       		.byte	0x75
 11173 21fa 00       		.sleb128 0
 11174 21fb 4E       		.byte	0x4e
 11175 21fc 1A       		.byte	0x1a
 11176 21fd 31       		.uleb128 0x31
 11177 21fe 01       		.uleb128 0x1
 11178 21ff 51       		.byte	0x51
 11179 2200 03       		.uleb128 0x3
ARM GAS  /tmp/ccZHgRNF.s 			page 198


 11180 2201 91       		.byte	0x91
 11181 2202 BC7F     		.sleb128 -68
 11182 2204 31       		.uleb128 0x31
 11183 2205 01       		.uleb128 0x1
 11184 2206 50       		.byte	0x50
 11185 2207 02       		.uleb128 0x2
 11186 2208 91       		.byte	0x91
 11187 2209 4C       		.sleb128 -52
 11188 220a 00       		.byte	0
 11189 220b 32       		.uleb128 0x32
 11190 220c 3A000000 		.4byte	.LVL476
 11191 2210 EF190000 		.4byte	0x19ef
 11192 2214 31       		.uleb128 0x31
 11193 2215 01       		.uleb128 0x1
 11194 2216 50       		.byte	0x50
 11195 2217 02       		.uleb128 0x2
 11196 2218 91       		.byte	0x91
 11197 2219 4C       		.sleb128 -52
 11198 221a 00       		.byte	0
 11199 221b 00       		.byte	0
 11200 221c 15       		.uleb128 0x15
 11201 221d 25000000 		.4byte	0x25
 11202 2221 2C220000 		.4byte	0x222c
 11203 2225 16       		.uleb128 0x16
 11204 2226 66040000 		.4byte	0x466
 11205 222a 0B       		.byte	0xb
 11206 222b 00       		.byte	0
 11207 222c 42       		.uleb128 0x42
 11208 222d 2B030000 		.4byte	.LASF211
 11209 2231 01       		.byte	0x1
 11210 2232 F609     		.2byte	0x9f6
 11211 2234 55090000 		.4byte	0x955
 11212 2238 00000000 		.4byte	.LFB271
 11213 223c 6C010000 		.4byte	.LFE271-.LFB271
 11214 2240 01       		.uleb128 0x1
 11215 2241 9C       		.byte	0x9c
 11216 2242 70240000 		.4byte	0x2470
 11217 2246 28       		.uleb128 0x28
 11218 2247 667000   		.ascii	"fp\000"
 11219 224a 01       		.byte	0x1
 11220 224b F709     		.2byte	0x9f7
 11221 224d 190F0000 		.4byte	0xf19
 11222 2251 EE260000 		.4byte	.LLST184
 11223 2255 26       		.uleb128 0x26
 11224 2256 47060000 		.4byte	.LASF212
 11225 225a 01       		.byte	0x1
 11226 225b F809     		.2byte	0x9f8
 11227 225d 30030000 		.4byte	0x330
 11228 2261 0C270000 		.4byte	.LLST185
 11229 2265 28       		.uleb128 0x28
 11230 2266 62747200 		.ascii	"btr\000"
 11231 226a 01       		.byte	0x1
 11232 226b F909     		.2byte	0x9f9
 11233 226d 57000000 		.4byte	0x57
 11234 2271 38270000 		.4byte	.LLST186
 11235 2275 28       		.uleb128 0x28
 11236 2276 627200   		.ascii	"br\000"
ARM GAS  /tmp/ccZHgRNF.s 			page 199


 11237 2279 01       		.byte	0x1
 11238 227a FA09     		.2byte	0x9fa
 11239 227c 70240000 		.4byte	0x2470
 11240 2280 6C270000 		.4byte	.LLST187
 11241 2284 27       		.uleb128 0x27
 11242 2285 72657300 		.ascii	"res\000"
 11243 2289 01       		.byte	0x1
 11244 228a FD09     		.2byte	0x9fd
 11245 228c 55090000 		.4byte	0x955
 11246 2290 8A270000 		.4byte	.LLST188
 11247 2294 39       		.uleb128 0x39
 11248 2295 AE040000 		.4byte	.LASF176
 11249 2299 01       		.byte	0x1
 11250 229a FE09     		.2byte	0x9fe
 11251 229c 70000000 		.4byte	0x70
 11252 22a0 9D270000 		.4byte	.LLST189
 11253 22a4 39       		.uleb128 0x39
 11254 22a5 45010000 		.4byte	.LASF131
 11255 22a9 01       		.byte	0x1
 11256 22aa FE09     		.2byte	0x9fe
 11257 22ac 70000000 		.4byte	0x70
 11258 22b0 B0270000 		.4byte	.LLST190
 11259 22b4 39       		.uleb128 0x39
 11260 22b5 400A0000 		.4byte	.LASF213
 11261 22b9 01       		.byte	0x1
 11262 22ba FE09     		.2byte	0x9fe
 11263 22bc 70000000 		.4byte	0x70
 11264 22c0 CE270000 		.4byte	.LLST191
 11265 22c4 39       		.uleb128 0x39
 11266 22c5 C8060000 		.4byte	.LASF214
 11267 22c9 01       		.byte	0x1
 11268 22ca FF09     		.2byte	0x9ff
 11269 22cc 57000000 		.4byte	0x57
 11270 22d0 E1270000 		.4byte	.LLST192
 11271 22d4 27       		.uleb128 0x27
 11272 22d5 636300   		.ascii	"cc\000"
 11273 22d8 01       		.byte	0x1
 11274 22d9 FF09     		.2byte	0x9ff
 11275 22db 57000000 		.4byte	0x57
 11276 22df FF270000 		.4byte	.LLST193
 11277 22e3 39       		.uleb128 0x39
 11278 22e4 5B0A0000 		.4byte	.LASF215
 11279 22e8 01       		.byte	0x1
 11280 22e9 000A     		.2byte	0xa00
 11281 22eb 25000000 		.4byte	0x25
 11282 22ef 1D280000 		.4byte	.LLST194
 11283 22f3 39       		.uleb128 0x39
 11284 22f4 17080000 		.4byte	.LASF216
 11285 22f8 01       		.byte	0x1
 11286 22f9 000A     		.2byte	0xa00
 11287 22fb F2070000 		.4byte	0x7f2
 11288 22ff 51280000 		.4byte	.LLST195
 11289 2303 36       		.uleb128 0x36
 11290 2304 F70B0000 		.4byte	0xbf7
 11291 2308 5A000000 		.4byte	.LBB304
 11292 230c 12000000 		.4byte	.LBE304-.LBB304
 11293 2310 01       		.byte	0x1
ARM GAS  /tmp/ccZHgRNF.s 			page 200


 11294 2311 210A     		.2byte	0xa21
 11295 2313 2A230000 		.4byte	0x232a
 11296 2317 2E       		.uleb128 0x2e
 11297 2318 130C0000 		.4byte	0xc13
 11298 231c 6F280000 		.4byte	.LLST196
 11299 2320 2E       		.uleb128 0x2e
 11300 2321 080C0000 		.4byte	0xc08
 11301 2325 8D280000 		.4byte	.LLST197
 11302 2329 00       		.byte	0
 11303 232a 36       		.uleb128 0x36
 11304 232b 050D0000 		.4byte	0xd05
 11305 232f AA000000 		.4byte	.LBB306
 11306 2333 0E000000 		.4byte	.LBE306-.LBB306
 11307 2337 01       		.byte	0x1
 11308 2338 300A     		.2byte	0xa30
 11309 233a 76230000 		.4byte	0x2376
 11310 233e 2E       		.uleb128 0x2e
 11311 233f 2A0D0000 		.4byte	0xd2a
 11312 2343 AB280000 		.4byte	.LLST198
 11313 2347 2E       		.uleb128 0x2e
 11314 2348 1E0D0000 		.4byte	0xd1e
 11315 234c C1280000 		.4byte	.LLST199
 11316 2350 2E       		.uleb128 0x2e
 11317 2351 120D0000 		.4byte	0xd12
 11318 2355 D4280000 		.4byte	.LLST200
 11319 2359 2D       		.uleb128 0x2d
 11320 235a AA000000 		.4byte	.LBB307
 11321 235e 0E000000 		.4byte	.LBE307-.LBB307
 11322 2362 2C       		.uleb128 0x2c
 11323 2363 360D0000 		.4byte	0xd36
 11324 2367 EA280000 		.4byte	.LLST201
 11325 236b 2C       		.uleb128 0x2c
 11326 236c 400D0000 		.4byte	0xd40
 11327 2370 FD280000 		.4byte	.LLST202
 11328 2374 00       		.byte	0
 11329 2375 00       		.byte	0
 11330 2376 36       		.uleb128 0x36
 11331 2377 050D0000 		.4byte	0xd05
 11332 237b 1E010000 		.4byte	.LBB308
 11333 237f 18000000 		.4byte	.LBE308-.LBB308
 11334 2383 01       		.byte	0x1
 11335 2384 4C0A     		.2byte	0xa4c
 11336 2386 C2230000 		.4byte	0x23c2
 11337 238a 2E       		.uleb128 0x2e
 11338 238b 2A0D0000 		.4byte	0xd2a
 11339 238f 28290000 		.4byte	.LLST203
 11340 2393 2E       		.uleb128 0x2e
 11341 2394 1E0D0000 		.4byte	0xd1e
 11342 2398 3D290000 		.4byte	.LLST204
 11343 239c 2E       		.uleb128 0x2e
 11344 239d 120D0000 		.4byte	0xd12
 11345 23a1 50290000 		.4byte	.LLST205
 11346 23a5 2D       		.uleb128 0x2d
 11347 23a6 1E010000 		.4byte	.LBB309
 11348 23aa 18000000 		.4byte	.LBE309-.LBB309
 11349 23ae 2C       		.uleb128 0x2c
 11350 23af 360D0000 		.4byte	0xd36
ARM GAS  /tmp/ccZHgRNF.s 			page 201


 11351 23b3 63290000 		.4byte	.LLST206
 11352 23b7 2C       		.uleb128 0x2c
 11353 23b8 400D0000 		.4byte	0xd40
 11354 23bc 81290000 		.4byte	.LLST207
 11355 23c0 00       		.byte	0
 11356 23c1 00       		.byte	0
 11357 23c2 33       		.uleb128 0x33
 11358 23c3 AE0B0000 		.4byte	0xbae
 11359 23c7 4A010000 		.4byte	.LBB310
 11360 23cb 10020000 		.4byte	.Ldebug_ranges0+0x210
 11361 23cf 01       		.byte	0x1
 11362 23d0 1B0A     		.2byte	0xa1b
 11363 23d2 07240000 		.4byte	0x2407
 11364 23d6 2E       		.uleb128 0x2e
 11365 23d7 CA0B0000 		.4byte	0xbca
 11366 23db AC290000 		.4byte	.LLST208
 11367 23df 2E       		.uleb128 0x2e
 11368 23e0 BF0B0000 		.4byte	0xbbf
 11369 23e4 CA290000 		.4byte	.LLST209
 11370 23e8 34       		.uleb128 0x34
 11371 23e9 10020000 		.4byte	.Ldebug_ranges0+0x210
 11372 23ed 35       		.uleb128 0x35
 11373 23ee D60B0000 		.4byte	0xbd6
 11374 23f2 35       		.uleb128 0x35
 11375 23f3 E10B0000 		.4byte	0xbe1
 11376 23f7 35       		.uleb128 0x35
 11377 23f8 EC0B0000 		.4byte	0xbec
 11378 23fc 29       		.uleb128 0x29
 11379 23fd 68010000 		.4byte	.LVL559
 11380 2401 77130000 		.4byte	0x1377
 11381 2405 00       		.byte	0
 11382 2406 00       		.byte	0
 11383 2407 30       		.uleb128 0x30
 11384 2408 16000000 		.4byte	.LVL517
 11385 240c D50E0000 		.4byte	0xed5
 11386 2410 1B240000 		.4byte	0x241b
 11387 2414 31       		.uleb128 0x31
 11388 2415 01       		.uleb128 0x1
 11389 2416 50       		.byte	0x50
 11390 2417 02       		.uleb128 0x2
 11391 2418 77       		.byte	0x77
 11392 2419 00       		.sleb128 0
 11393 241a 00       		.byte	0
 11394 241b 30       		.uleb128 0x30
 11395 241c 8E000000 		.4byte	.LVL530
 11396 2420 FE380000 		.4byte	0x38fe
 11397 2424 3B240000 		.4byte	0x243b
 11398 2428 31       		.uleb128 0x31
 11399 2429 01       		.uleb128 0x1
 11400 242a 53       		.byte	0x53
 11401 242b 02       		.uleb128 0x2
 11402 242c 75       		.byte	0x75
 11403 242d 00       		.sleb128 0
 11404 242e 31       		.uleb128 0x31
 11405 242f 01       		.uleb128 0x1
 11406 2430 52       		.byte	0x52
 11407 2431 02       		.uleb128 0x2
ARM GAS  /tmp/ccZHgRNF.s 			page 202


 11408 2432 74       		.byte	0x74
 11409 2433 00       		.sleb128 0
 11410 2434 31       		.uleb128 0x31
 11411 2435 01       		.uleb128 0x1
 11412 2436 51       		.byte	0x51
 11413 2437 02       		.uleb128 0x2
 11414 2438 7B       		.byte	0x7b
 11415 2439 00       		.sleb128 0
 11416 243a 00       		.byte	0
 11417 243b 30       		.uleb128 0x30
 11418 243c EC000000 		.4byte	.LVL543
 11419 2440 BB380000 		.4byte	0x38bb
 11420 2444 54240000 		.4byte	0x2454
 11421 2448 31       		.uleb128 0x31
 11422 2449 01       		.uleb128 0x1
 11423 244a 53       		.byte	0x53
 11424 244b 01       		.uleb128 0x1
 11425 244c 31       		.byte	0x31
 11426 244d 31       		.uleb128 0x31
 11427 244e 01       		.uleb128 0x1
 11428 244f 51       		.byte	0x51
 11429 2450 02       		.uleb128 0x2
 11430 2451 7A       		.byte	0x7a
 11431 2452 00       		.sleb128 0
 11432 2453 00       		.byte	0
 11433 2454 32       		.uleb128 0x32
 11434 2455 06010000 		.4byte	.LVL544
 11435 2459 FE380000 		.4byte	0x38fe
 11436 245d 31       		.uleb128 0x31
 11437 245e 01       		.uleb128 0x1
 11438 245f 53       		.byte	0x53
 11439 2460 01       		.uleb128 0x1
 11440 2461 31       		.byte	0x31
 11441 2462 31       		.uleb128 0x31
 11442 2463 01       		.uleb128 0x1
 11443 2464 52       		.byte	0x52
 11444 2465 02       		.uleb128 0x2
 11445 2466 74       		.byte	0x74
 11446 2467 00       		.sleb128 0
 11447 2468 31       		.uleb128 0x31
 11448 2469 01       		.uleb128 0x1
 11449 246a 51       		.byte	0x51
 11450 246b 02       		.uleb128 0x2
 11451 246c 7A       		.byte	0x7a
 11452 246d 00       		.sleb128 0
 11453 246e 00       		.byte	0
 11454 246f 00       		.byte	0
 11455 2470 09       		.uleb128 0x9
 11456 2471 04       		.byte	0x4
 11457 2472 57000000 		.4byte	0x57
 11458 2476 42       		.uleb128 0x42
 11459 2477 96010000 		.4byte	.LASF217
 11460 247b 01       		.byte	0x1
 11461 247c 5B0A     		.2byte	0xa5b
 11462 247e 55090000 		.4byte	0x955
 11463 2482 00000000 		.4byte	.LFB272
 11464 2486 C6010000 		.4byte	.LFE272-.LFB272
ARM GAS  /tmp/ccZHgRNF.s 			page 203


 11465 248a 01       		.uleb128 0x1
 11466 248b 9C       		.byte	0x9c
 11467 248c 80260000 		.4byte	0x2680
 11468 2490 28       		.uleb128 0x28
 11469 2491 667000   		.ascii	"fp\000"
 11470 2494 01       		.byte	0x1
 11471 2495 5C0A     		.2byte	0xa5c
 11472 2497 190F0000 		.4byte	0xf19
 11473 249b E8290000 		.4byte	.LLST210
 11474 249f 26       		.uleb128 0x26
 11475 24a0 47060000 		.4byte	.LASF212
 11476 24a4 01       		.byte	0x1
 11477 24a5 5D0A     		.2byte	0xa5d
 11478 24a7 F30C0000 		.4byte	0xcf3
 11479 24ab 062A0000 		.4byte	.LLST211
 11480 24af 28       		.uleb128 0x28
 11481 24b0 62747700 		.ascii	"btw\000"
 11482 24b4 01       		.byte	0x1
 11483 24b5 5E0A     		.2byte	0xa5e
 11484 24b7 57000000 		.4byte	0x57
 11485 24bb 642A0000 		.4byte	.LLST212
 11486 24bf 28       		.uleb128 0x28
 11487 24c0 627700   		.ascii	"bw\000"
 11488 24c3 01       		.byte	0x1
 11489 24c4 5F0A     		.2byte	0xa5f
 11490 24c6 70240000 		.4byte	0x2470
 11491 24ca A32A0000 		.4byte	.LLST213
 11492 24ce 27       		.uleb128 0x27
 11493 24cf 72657300 		.ascii	"res\000"
 11494 24d3 01       		.byte	0x1
 11495 24d4 620A     		.2byte	0xa62
 11496 24d6 55090000 		.4byte	0x955
 11497 24da C12A0000 		.4byte	.LLST214
 11498 24de 39       		.uleb128 0x39
 11499 24df AE040000 		.4byte	.LASF176
 11500 24e3 01       		.byte	0x1
 11501 24e4 630A     		.2byte	0xa63
 11502 24e6 70000000 		.4byte	0x70
 11503 24ea D42A0000 		.4byte	.LLST215
 11504 24ee 39       		.uleb128 0x39
 11505 24ef 45010000 		.4byte	.LASF131
 11506 24f3 01       		.byte	0x1
 11507 24f4 630A     		.2byte	0xa63
 11508 24f6 70000000 		.4byte	0x70
 11509 24fa 142B0000 		.4byte	.LLST216
 11510 24fe 39       		.uleb128 0x39
 11511 24ff F6000000 		.4byte	.LASF218
 11512 2503 01       		.byte	0x1
 11513 2504 640A     		.2byte	0xa64
 11514 2506 57000000 		.4byte	0x57
 11515 250a 3D2B0000 		.4byte	.LLST217
 11516 250e 27       		.uleb128 0x27
 11517 250f 636300   		.ascii	"cc\000"
 11518 2512 01       		.byte	0x1
 11519 2513 640A     		.2byte	0xa64
 11520 2515 57000000 		.4byte	0x57
 11521 2519 5B2B0000 		.4byte	.LLST218
ARM GAS  /tmp/ccZHgRNF.s 			page 204


 11522 251d 39       		.uleb128 0x39
 11523 251e 030A0000 		.4byte	.LASF219
 11524 2522 01       		.byte	0x1
 11525 2523 650A     		.2byte	0xa65
 11526 2525 FA0C0000 		.4byte	0xcfa
 11527 2529 842B0000 		.4byte	.LLST219
 11528 252d 39       		.uleb128 0x39
 11529 252e 5B0A0000 		.4byte	.LASF215
 11530 2532 01       		.byte	0x1
 11531 2533 660A     		.2byte	0xa66
 11532 2535 25000000 		.4byte	0x25
 11533 2539 CE2B0000 		.4byte	.LLST220
 11534 253d 36       		.uleb128 0x36
 11535 253e F70B0000 		.4byte	0xbf7
 11536 2542 92000000 		.4byte	.LBB314
 11537 2546 18000000 		.4byte	.LBE314-.LBB314
 11538 254a 01       		.byte	0x1
 11539 254b 940A     		.2byte	0xa94
 11540 254d 64250000 		.4byte	0x2564
 11541 2551 2E       		.uleb128 0x2e
 11542 2552 130C0000 		.4byte	0xc13
 11543 2556 2C2C0000 		.4byte	.LLST221
 11544 255a 2E       		.uleb128 0x2e
 11545 255b 080C0000 		.4byte	0xc08
 11546 255f 612C0000 		.4byte	.LLST222
 11547 2563 00       		.byte	0
 11548 2564 36       		.uleb128 0x36
 11549 2565 050D0000 		.4byte	0xd05
 11550 2569 EA000000 		.4byte	.LBB316
 11551 256d 0C000000 		.4byte	.LBE316-.LBB316
 11552 2571 01       		.byte	0x1
 11553 2572 A50A     		.2byte	0xaa5
 11554 2574 B0250000 		.4byte	0x25b0
 11555 2578 2E       		.uleb128 0x2e
 11556 2579 2A0D0000 		.4byte	0xd2a
 11557 257d 8A2C0000 		.4byte	.LLST223
 11558 2581 2E       		.uleb128 0x2e
 11559 2582 1E0D0000 		.4byte	0xd1e
 11560 2586 A02C0000 		.4byte	.LLST224
 11561 258a 2E       		.uleb128 0x2e
 11562 258b 120D0000 		.4byte	0xd12
 11563 258f D32C0000 		.4byte	.LLST225
 11564 2593 2D       		.uleb128 0x2d
 11565 2594 EA000000 		.4byte	.LBB317
 11566 2598 0C000000 		.4byte	.LBE317-.LBB317
 11567 259c 2C       		.uleb128 0x2c
 11568 259d 360D0000 		.4byte	0xd36
 11569 25a1 E72C0000 		.4byte	.LLST226
 11570 25a5 2C       		.uleb128 0x2c
 11571 25a6 400D0000 		.4byte	0xd40
 11572 25aa 062D0000 		.4byte	.LLST227
 11573 25ae 00       		.byte	0
 11574 25af 00       		.byte	0
 11575 25b0 36       		.uleb128 0x36
 11576 25b1 050D0000 		.4byte	0xd05
 11577 25b5 46010000 		.4byte	.LBB318
 11578 25b9 12000000 		.4byte	.LBE318-.LBB318
ARM GAS  /tmp/ccZHgRNF.s 			page 205


 11579 25bd 01       		.byte	0x1
 11580 25be C30A     		.2byte	0xac3
 11581 25c0 F8250000 		.4byte	0x25f8
 11582 25c4 2E       		.uleb128 0x2e
 11583 25c5 2A0D0000 		.4byte	0xd2a
 11584 25c9 312D0000 		.4byte	.LLST228
 11585 25cd 3E       		.uleb128 0x3e
 11586 25ce 1E0D0000 		.4byte	0xd1e
 11587 25d2 2E       		.uleb128 0x2e
 11588 25d3 120D0000 		.4byte	0xd12
 11589 25d7 462D0000 		.4byte	.LLST229
 11590 25db 2D       		.uleb128 0x2d
 11591 25dc 46010000 		.4byte	.LBB319
 11592 25e0 12000000 		.4byte	.LBE319-.LBB319
 11593 25e4 2C       		.uleb128 0x2c
 11594 25e5 360D0000 		.4byte	0xd36
 11595 25e9 592D0000 		.4byte	.LLST230
 11596 25ed 2C       		.uleb128 0x2c
 11597 25ee 400D0000 		.4byte	0xd40
 11598 25f2 6C2D0000 		.4byte	.LLST231
 11599 25f6 00       		.byte	0
 11600 25f7 00       		.byte	0
 11601 25f8 30       		.uleb128 0x30
 11602 25f9 18000000 		.4byte	.LVL563
 11603 25fd D50E0000 		.4byte	0xed5
 11604 2601 0C260000 		.4byte	0x260c
 11605 2605 31       		.uleb128 0x31
 11606 2606 01       		.uleb128 0x1
 11607 2607 50       		.byte	0x50
 11608 2608 02       		.uleb128 0x2
 11609 2609 77       		.byte	0x77
 11610 260a 00       		.sleb128 0
 11611 260b 00       		.byte	0
 11612 260c 30       		.uleb128 0x30
 11613 260d D2000000 		.4byte	.LVL580
 11614 2611 BB380000 		.4byte	0x38bb
 11615 2615 2C260000 		.4byte	0x262c
 11616 2619 31       		.uleb128 0x31
 11617 261a 01       		.uleb128 0x1
 11618 261b 53       		.byte	0x53
 11619 261c 02       		.uleb128 0x2
 11620 261d 7B       		.byte	0x7b
 11621 261e 00       		.sleb128 0
 11622 261f 31       		.uleb128 0x31
 11623 2620 01       		.uleb128 0x1
 11624 2621 52       		.byte	0x52
 11625 2622 02       		.uleb128 0x2
 11626 2623 79       		.byte	0x79
 11627 2624 00       		.sleb128 0
 11628 2625 31       		.uleb128 0x31
 11629 2626 01       		.uleb128 0x1
 11630 2627 51       		.byte	0x51
 11631 2628 02       		.uleb128 0x2
 11632 2629 74       		.byte	0x74
 11633 262a 00       		.sleb128 0
 11634 262b 00       		.byte	0
 11635 262c 30       		.uleb128 0x30
ARM GAS  /tmp/ccZHgRNF.s 			page 206


 11636 262d 6E010000 		.4byte	.LVL602
 11637 2631 BB380000 		.4byte	0x38bb
 11638 2635 46260000 		.4byte	0x2646
 11639 2639 31       		.uleb128 0x31
 11640 263a 01       		.uleb128 0x1
 11641 263b 53       		.byte	0x53
 11642 263c 01       		.uleb128 0x1
 11643 263d 31       		.byte	0x31
 11644 263e 31       		.uleb128 0x31
 11645 263f 01       		.uleb128 0x1
 11646 2640 51       		.byte	0x51
 11647 2641 03       		.uleb128 0x3
 11648 2642 91       		.byte	0x91
 11649 2643 54       		.sleb128 -44
 11650 2644 06       		.byte	0x6
 11651 2645 00       		.byte	0
 11652 2646 29       		.uleb128 0x29
 11653 2647 90010000 		.4byte	.LVL606
 11654 264b 0B160000 		.4byte	0x160b
 11655 264f 30       		.uleb128 0x30
 11656 2650 A4010000 		.4byte	.LVL609
 11657 2654 0B160000 		.4byte	0x160b
 11658 2658 63260000 		.4byte	0x2663
 11659 265c 31       		.uleb128 0x31
 11660 265d 01       		.uleb128 0x1
 11661 265e 51       		.byte	0x51
 11662 265f 02       		.uleb128 0x2
 11663 2660 75       		.byte	0x75
 11664 2661 00       		.sleb128 0
 11665 2662 00       		.byte	0
 11666 2663 32       		.uleb128 0x32
 11667 2664 B8010000 		.4byte	.LVL612
 11668 2668 FE380000 		.4byte	0x38fe
 11669 266c 31       		.uleb128 0x31
 11670 266d 01       		.uleb128 0x1
 11671 266e 53       		.byte	0x53
 11672 266f 01       		.uleb128 0x1
 11673 2670 31       		.byte	0x31
 11674 2671 31       		.uleb128 0x31
 11675 2672 01       		.uleb128 0x1
 11676 2673 52       		.byte	0x52
 11677 2674 02       		.uleb128 0x2
 11678 2675 79       		.byte	0x79
 11679 2676 00       		.sleb128 0
 11680 2677 31       		.uleb128 0x31
 11681 2678 01       		.uleb128 0x1
 11682 2679 51       		.byte	0x51
 11683 267a 03       		.uleb128 0x3
 11684 267b 91       		.byte	0x91
 11685 267c 54       		.sleb128 -44
 11686 267d 06       		.byte	0x6
 11687 267e 00       		.byte	0
 11688 267f 00       		.byte	0
 11689 2680 42       		.uleb128 0x42
 11690 2681 B5020000 		.4byte	.LASF220
 11691 2685 01       		.byte	0x1
 11692 2686 D50A     		.2byte	0xad5
ARM GAS  /tmp/ccZHgRNF.s 			page 207


 11693 2688 55090000 		.4byte	0x955
 11694 268c 00000000 		.4byte	.LFB273
 11695 2690 A6000000 		.4byte	.LFE273-.LFB273
 11696 2694 01       		.uleb128 0x1
 11697 2695 9C       		.byte	0x9c
 11698 2696 48270000 		.4byte	0x2748
 11699 269a 28       		.uleb128 0x28
 11700 269b 667000   		.ascii	"fp\000"
 11701 269e 01       		.byte	0x1
 11702 269f D60A     		.2byte	0xad6
 11703 26a1 190F0000 		.4byte	0xf19
 11704 26a5 972D0000 		.4byte	.LLST232
 11705 26a9 27       		.uleb128 0x27
 11706 26aa 72657300 		.ascii	"res\000"
 11707 26ae 01       		.byte	0x1
 11708 26af D90A     		.2byte	0xad9
 11709 26b1 55090000 		.4byte	0x955
 11710 26b5 CE2D0000 		.4byte	.LLST233
 11711 26b9 27       		.uleb128 0x27
 11712 26ba 746D00   		.ascii	"tm\000"
 11713 26bd 01       		.byte	0x1
 11714 26be DA0A     		.2byte	0xada
 11715 26c0 70000000 		.4byte	0x70
 11716 26c4 F72D0000 		.4byte	.LLST234
 11717 26c8 27       		.uleb128 0x27
 11718 26c9 64697200 		.ascii	"dir\000"
 11719 26cd 01       		.byte	0x1
 11720 26ce DB0A     		.2byte	0xadb
 11721 26d0 F2070000 		.4byte	0x7f2
 11722 26d4 0A2E0000 		.4byte	.LLST235
 11723 26d8 36       		.uleb128 0x36
 11724 26d9 B50D0000 		.4byte	0xdb5
 11725 26dd 62000000 		.4byte	.LBB320
 11726 26e1 10000000 		.4byte	.LBE320-.LBB320
 11727 26e5 01       		.byte	0x1
 11728 26e6 EF0A     		.2byte	0xaef
 11729 26e8 FF260000 		.4byte	0x26ff
 11730 26ec 2E       		.uleb128 0x2e
 11731 26ed CE0D0000 		.4byte	0xdce
 11732 26f1 1D2E0000 		.4byte	.LLST236
 11733 26f5 2E       		.uleb128 0x2e
 11734 26f6 C20D0000 		.4byte	0xdc2
 11735 26fa 302E0000 		.4byte	.LLST237
 11736 26fe 00       		.byte	0
 11737 26ff 30       		.uleb128 0x30
 11738 2700 08000000 		.4byte	.LVL615
 11739 2704 D50E0000 		.4byte	0xed5
 11740 2708 13270000 		.4byte	0x2713
 11741 270c 31       		.uleb128 0x31
 11742 270d 01       		.uleb128 0x1
 11743 270e 50       		.byte	0x50
 11744 270f 02       		.uleb128 0x2
 11745 2710 74       		.byte	0x74
 11746 2711 00       		.sleb128 0
 11747 2712 00       		.byte	0
 11748 2713 30       		.uleb128 0x30
 11749 2714 2A000000 		.4byte	.LVL617
ARM GAS  /tmp/ccZHgRNF.s 			page 208


 11750 2718 BB380000 		.4byte	0x38bb
 11751 271c 2C270000 		.4byte	0x272c
 11752 2720 31       		.uleb128 0x31
 11753 2721 01       		.uleb128 0x1
 11754 2722 53       		.byte	0x53
 11755 2723 01       		.uleb128 0x1
 11756 2724 31       		.byte	0x31
 11757 2725 31       		.uleb128 0x31
 11758 2726 01       		.uleb128 0x1
 11759 2727 51       		.byte	0x51
 11760 2728 02       		.uleb128 0x2
 11761 2729 74       		.byte	0x74
 11762 272a 24       		.sleb128 36
 11763 272b 00       		.byte	0
 11764 272c 29       		.uleb128 0x29
 11765 272d 3E000000 		.4byte	.LVL618
 11766 2731 5C0B0000 		.4byte	0xb5c
 11767 2735 29       		.uleb128 0x29
 11768 2736 76000000 		.4byte	.LVL624
 11769 273a 37390000 		.4byte	0x3937
 11770 273e 41       		.uleb128 0x41
 11771 273f A2000000 		.4byte	.LVL627
 11772 2743 E70F0000 		.4byte	0xfe7
 11773 2747 00       		.byte	0
 11774 2748 42       		.uleb128 0x42
 11775 2749 3A040000 		.4byte	.LASF221
 11776 274d 01       		.byte	0x1
 11777 274e 060B     		.2byte	0xb06
 11778 2750 55090000 		.4byte	0x955
 11779 2754 00000000 		.4byte	.LFB274
 11780 2758 1A000000 		.4byte	.LFE274-.LFB274
 11781 275c 01       		.uleb128 0x1
 11782 275d 9C       		.byte	0x9c
 11783 275e A6270000 		.4byte	0x27a6
 11784 2762 28       		.uleb128 0x28
 11785 2763 667000   		.ascii	"fp\000"
 11786 2766 01       		.byte	0x1
 11787 2767 070B     		.2byte	0xb07
 11788 2769 190F0000 		.4byte	0xf19
 11789 276d 432E0000 		.4byte	.LLST238
 11790 2771 27       		.uleb128 0x27
 11791 2772 72657300 		.ascii	"res\000"
 11792 2776 01       		.byte	0x1
 11793 2777 0A0B     		.2byte	0xb0a
 11794 2779 55090000 		.4byte	0x955
 11795 277d 612E0000 		.4byte	.LLST239
 11796 2781 30       		.uleb128 0x30
 11797 2782 08000000 		.4byte	.LVL629
 11798 2786 80260000 		.4byte	0x2680
 11799 278a 95270000 		.4byte	0x2795
 11800 278e 31       		.uleb128 0x31
 11801 278f 01       		.uleb128 0x1
 11802 2790 50       		.byte	0x50
 11803 2791 02       		.uleb128 0x2
 11804 2792 74       		.byte	0x74
 11805 2793 00       		.sleb128 0
 11806 2794 00       		.byte	0
ARM GAS  /tmp/ccZHgRNF.s 			page 209


 11807 2795 32       		.uleb128 0x32
 11808 2796 12000000 		.4byte	.LVL632
 11809 279a D50E0000 		.4byte	0xed5
 11810 279e 31       		.uleb128 0x31
 11811 279f 01       		.uleb128 0x1
 11812 27a0 50       		.byte	0x50
 11813 27a1 02       		.uleb128 0x2
 11814 27a2 74       		.byte	0x74
 11815 27a3 00       		.sleb128 0
 11816 27a4 00       		.byte	0
 11817 27a5 00       		.byte	0
 11818 27a6 42       		.uleb128 0x42
 11819 27a7 A2000000 		.4byte	.LASF222
 11820 27ab 01       		.byte	0x1
 11821 27ac B20B     		.2byte	0xbb2
 11822 27ae 55090000 		.4byte	0x955
 11823 27b2 00000000 		.4byte	.LFB275
 11824 27b6 64010000 		.4byte	.LFE275-.LFB275
 11825 27ba 01       		.uleb128 0x1
 11826 27bb 9C       		.byte	0x9c
 11827 27bc 00290000 		.4byte	0x2900
 11828 27c0 28       		.uleb128 0x28
 11829 27c1 667000   		.ascii	"fp\000"
 11830 27c4 01       		.byte	0x1
 11831 27c5 B30B     		.2byte	0xbb3
 11832 27c7 190F0000 		.4byte	0xf19
 11833 27cb 7F2E0000 		.4byte	.LLST240
 11834 27cf 28       		.uleb128 0x28
 11835 27d0 6F667300 		.ascii	"ofs\000"
 11836 27d4 01       		.byte	0x1
 11837 27d5 B40B     		.2byte	0xbb4
 11838 27d7 70000000 		.4byte	0x70
 11839 27db 9D2E0000 		.4byte	.LLST241
 11840 27df 27       		.uleb128 0x27
 11841 27e0 72657300 		.ascii	"res\000"
 11842 27e4 01       		.byte	0x1
 11843 27e5 B70B     		.2byte	0xbb7
 11844 27e7 55090000 		.4byte	0x955
 11845 27eb F22E0000 		.4byte	.LLST242
 11846 27ef 3A       		.uleb128 0x3a
 11847 27f0 28020000 		.4byte	.Ldebug_ranges0+0x228
 11848 27f4 EF280000 		.4byte	0x28ef
 11849 27f8 39       		.uleb128 0x39
 11850 27f9 AE040000 		.4byte	.LASF176
 11851 27fd 01       		.byte	0x1
 11852 27fe FA0B     		.2byte	0xbfa
 11853 2800 70000000 		.4byte	0x70
 11854 2804 052F0000 		.4byte	.LLST243
 11855 2808 27       		.uleb128 0x27
 11856 2809 62637300 		.ascii	"bcs\000"
 11857 280d 01       		.byte	0x1
 11858 280e FA0B     		.2byte	0xbfa
 11859 2810 70000000 		.4byte	0x70
 11860 2814 9E2F0000 		.4byte	.LLST244
 11861 2818 39       		.uleb128 0x39
 11862 2819 25030000 		.4byte	.LASF223
 11863 281d 01       		.byte	0x1
ARM GAS  /tmp/ccZHgRNF.s 			page 210


 11864 281e FA0B     		.2byte	0xbfa
 11865 2820 70000000 		.4byte	0x70
 11866 2824 F32F0000 		.4byte	.LLST245
 11867 2828 39       		.uleb128 0x39
 11868 2829 07030000 		.4byte	.LASF224
 11869 282d 01       		.byte	0x1
 11870 282e FA0B     		.2byte	0xbfa
 11871 2830 70000000 		.4byte	0x70
 11872 2834 86300000 		.4byte	.LLST246
 11873 2838 33       		.uleb128 0x33
 11874 2839 AE0B0000 		.4byte	0xbae
 11875 283d AE000000 		.4byte	.LBB323
 11876 2841 40020000 		.4byte	.Ldebug_ranges0+0x240
 11877 2845 01       		.byte	0x1
 11878 2846 210C     		.2byte	0xc21
 11879 2848 7D280000 		.4byte	0x287d
 11880 284c 2E       		.uleb128 0x2e
 11881 284d CA0B0000 		.4byte	0xbca
 11882 2851 BE300000 		.4byte	.LLST247
 11883 2855 2E       		.uleb128 0x2e
 11884 2856 BF0B0000 		.4byte	0xbbf
 11885 285a E7300000 		.4byte	.LLST248
 11886 285e 34       		.uleb128 0x34
 11887 285f 40020000 		.4byte	.Ldebug_ranges0+0x240
 11888 2863 35       		.uleb128 0x35
 11889 2864 D60B0000 		.4byte	0xbd6
 11890 2868 35       		.uleb128 0x35
 11891 2869 E10B0000 		.4byte	0xbe1
 11892 286d 35       		.uleb128 0x35
 11893 286e EC0B0000 		.4byte	0xbec
 11894 2872 29       		.uleb128 0x29
 11895 2873 12010000 		.4byte	.LVL661
 11896 2877 77130000 		.4byte	0x1377
 11897 287b 00       		.byte	0
 11898 287c 00       		.byte	0
 11899 287d 36       		.uleb128 0x36
 11900 287e F70B0000 		.4byte	0xbf7
 11901 2882 F2000000 		.4byte	.LBB326
 11902 2886 12000000 		.4byte	.LBE326-.LBB326
 11903 288a 01       		.byte	0x1
 11904 288b 2A0C     		.2byte	0xc2a
 11905 288d A4280000 		.4byte	0x28a4
 11906 2891 2E       		.uleb128 0x2e
 11907 2892 130C0000 		.4byte	0xc13
 11908 2896 10310000 		.4byte	.LLST249
 11909 289a 2E       		.uleb128 0x2e
 11910 289b 080C0000 		.4byte	0xc08
 11911 289f 2E310000 		.4byte	.LLST250
 11912 28a3 00       		.byte	0
 11913 28a4 30       		.uleb128 0x30
 11914 28a5 7A000000 		.4byte	.LVL643
 11915 28a9 FE380000 		.4byte	0x38fe
 11916 28ad C3280000 		.4byte	0x28c3
 11917 28b1 31       		.uleb128 0x31
 11918 28b2 01       		.uleb128 0x1
 11919 28b3 53       		.byte	0x53
 11920 28b4 01       		.uleb128 0x1
ARM GAS  /tmp/ccZHgRNF.s 			page 211


 11921 28b5 31       		.byte	0x31
 11922 28b6 31       		.uleb128 0x31
 11923 28b7 01       		.uleb128 0x1
 11924 28b8 52       		.byte	0x52
 11925 28b9 02       		.uleb128 0x2
 11926 28ba 75       		.byte	0x75
 11927 28bb 00       		.sleb128 0
 11928 28bc 31       		.uleb128 0x31
 11929 28bd 01       		.uleb128 0x1
 11930 28be 51       		.byte	0x51
 11931 28bf 02       		.uleb128 0x2
 11932 28c0 76       		.byte	0x76
 11933 28c1 00       		.sleb128 0
 11934 28c2 00       		.byte	0
 11935 28c3 29       		.uleb128 0x29
 11936 28c4 C2000000 		.4byte	.LVL652
 11937 28c8 0B160000 		.4byte	0x160b
 11938 28cc 30       		.uleb128 0x30
 11939 28cd 26010000 		.4byte	.LVL663
 11940 28d1 BB380000 		.4byte	0x38bb
 11941 28d5 E5280000 		.4byte	0x28e5
 11942 28d9 31       		.uleb128 0x31
 11943 28da 01       		.uleb128 0x1
 11944 28db 53       		.byte	0x53
 11945 28dc 01       		.uleb128 0x1
 11946 28dd 31       		.byte	0x31
 11947 28de 31       		.uleb128 0x31
 11948 28df 01       		.uleb128 0x1
 11949 28e0 51       		.byte	0x51
 11950 28e1 02       		.uleb128 0x2
 11951 28e2 76       		.byte	0x76
 11952 28e3 00       		.sleb128 0
 11953 28e4 00       		.byte	0
 11954 28e5 29       		.uleb128 0x29
 11955 28e6 48010000 		.4byte	.LVL671
 11956 28ea 0B160000 		.4byte	0x160b
 11957 28ee 00       		.byte	0
 11958 28ef 32       		.uleb128 0x32
 11959 28f0 0A000000 		.4byte	.LVL634
 11960 28f4 D50E0000 		.4byte	0xed5
 11961 28f8 31       		.uleb128 0x31
 11962 28f9 01       		.uleb128 0x1
 11963 28fa 50       		.byte	0x50
 11964 28fb 02       		.uleb128 0x2
 11965 28fc 74       		.byte	0x74
 11966 28fd 00       		.sleb128 0
 11967 28fe 00       		.byte	0
 11968 28ff 00       		.byte	0
 11969 2900 42       		.uleb128 0x42
 11970 2901 96090000 		.4byte	.LASF225
 11971 2905 01       		.byte	0x1
 11972 2906 500C     		.2byte	0xc50
 11973 2908 55090000 		.4byte	0x955
 11974 290c 00000000 		.4byte	.LFB276
 11975 2910 7E000000 		.4byte	.LFE276-.LFB276
 11976 2914 01       		.uleb128 0x1
 11977 2915 9C       		.byte	0x9c
ARM GAS  /tmp/ccZHgRNF.s 			page 212


 11978 2916 E5290000 		.4byte	0x29e5
 11979 291a 28       		.uleb128 0x28
 11980 291b 647000   		.ascii	"dp\000"
 11981 291e 01       		.byte	0x1
 11982 291f 510C     		.2byte	0xc51
 11983 2921 220A0000 		.4byte	0xa22
 11984 2925 41310000 		.4byte	.LLST251
 11985 2929 26       		.uleb128 0x26
 11986 292a 67000000 		.4byte	.LASF170
 11987 292e 01       		.byte	0x1
 11988 292f 520C     		.2byte	0xc52
 11989 2931 1D0B0000 		.4byte	0xb1d
 11990 2935 75310000 		.4byte	.LLST252
 11991 2939 27       		.uleb128 0x27
 11992 293a 72657300 		.ascii	"res\000"
 11993 293e 01       		.byte	0x1
 11994 293f 550C     		.2byte	0xc55
 11995 2941 55090000 		.4byte	0x955
 11996 2945 B7310000 		.4byte	.LLST253
 11997 2949 3B       		.uleb128 0x3b
 11998 294a 667300   		.ascii	"fs\000"
 11999 294d 01       		.byte	0x1
 12000 294e 560C     		.2byte	0xc56
 12001 2950 EC070000 		.4byte	0x7ec
 12002 2954 02       		.uleb128 0x2
 12003 2955 91       		.byte	0x91
 12004 2956 60       		.sleb128 -32
 12005 2957 3B       		.uleb128 0x3b
 12006 2958 73666E00 		.ascii	"sfn\000"
 12007 295c 01       		.byte	0x1
 12008 295d 570C     		.2byte	0xc57
 12009 295f 1C220000 		.4byte	0x221c
 12010 2963 02       		.uleb128 0x2
 12011 2964 91       		.byte	0x91
 12012 2965 64       		.sleb128 -28
 12013 2966 33       		.uleb128 0x33
 12014 2967 9D090000 		.4byte	0x99d
 12015 296b 42000000 		.4byte	.LBB330
 12016 296f 58020000 		.4byte	.Ldebug_ranges0+0x258
 12017 2973 01       		.byte	0x1
 12018 2974 660C     		.2byte	0xc66
 12019 2976 9C290000 		.4byte	0x299c
 12020 297a 2E       		.uleb128 0x2e
 12021 297b AE090000 		.4byte	0x9ae
 12022 297f 02320000 		.4byte	.LLST254
 12023 2983 2E       		.uleb128 0x2e
 12024 2984 B9090000 		.4byte	0x9b9
 12025 2988 20320000 		.4byte	.LLST255
 12026 298c 34       		.uleb128 0x34
 12027 298d 58020000 		.4byte	.Ldebug_ranges0+0x258
 12028 2991 2C       		.uleb128 0x2c
 12029 2992 C5090000 		.4byte	0x9c5
 12030 2996 56320000 		.4byte	.LLST256
 12031 299a 00       		.byte	0
 12032 299b 00       		.byte	0
 12033 299c 30       		.uleb128 0x30
 12034 299d 14000000 		.4byte	.LVL681
ARM GAS  /tmp/ccZHgRNF.s 			page 213


 12035 29a1 B1110000 		.4byte	0x11b1
 12036 29a5 BB290000 		.4byte	0x29bb
 12037 29a9 31       		.uleb128 0x31
 12038 29aa 01       		.uleb128 0x1
 12039 29ab 52       		.byte	0x52
 12040 29ac 01       		.uleb128 0x1
 12041 29ad 30       		.byte	0x30
 12042 29ae 31       		.uleb128 0x31
 12043 29af 01       		.uleb128 0x1
 12044 29b0 51       		.byte	0x51
 12045 29b1 02       		.uleb128 0x2
 12046 29b2 91       		.byte	0x91
 12047 29b3 5C       		.sleb128 -36
 12048 29b4 31       		.uleb128 0x31
 12049 29b5 01       		.uleb128 0x1
 12050 29b6 50       		.byte	0x50
 12051 29b7 02       		.uleb128 0x2
 12052 29b8 91       		.byte	0x91
 12053 29b9 60       		.sleb128 -32
 12054 29ba 00       		.byte	0
 12055 29bb 30       		.uleb128 0x30
 12056 29bc 34000000 		.4byte	.LVL688
 12057 29c0 EF190000 		.4byte	0x19ef
 12058 29c4 CF290000 		.4byte	0x29cf
 12059 29c8 31       		.uleb128 0x31
 12060 29c9 01       		.uleb128 0x1
 12061 29ca 50       		.byte	0x50
 12062 29cb 02       		.uleb128 0x2
 12063 29cc 74       		.byte	0x74
 12064 29cd 00       		.sleb128 0
 12065 29ce 00       		.byte	0
 12066 29cf 32       		.uleb128 0x32
 12067 29d0 5E000000 		.4byte	.LVL694
 12068 29d4 04140000 		.4byte	0x1404
 12069 29d8 31       		.uleb128 0x31
 12070 29d9 01       		.uleb128 0x1
 12071 29da 51       		.byte	0x51
 12072 29db 01       		.uleb128 0x1
 12073 29dc 30       		.byte	0x30
 12074 29dd 31       		.uleb128 0x31
 12075 29de 01       		.uleb128 0x1
 12076 29df 50       		.byte	0x50
 12077 29e0 02       		.uleb128 0x2
 12078 29e1 74       		.byte	0x74
 12079 29e2 00       		.sleb128 0
 12080 29e3 00       		.byte	0
 12081 29e4 00       		.byte	0
 12082 29e5 42       		.uleb128 0x42
 12083 29e6 1D080000 		.4byte	.LASF226
 12084 29ea 01       		.byte	0x1
 12085 29eb 880C     		.2byte	0xc88
 12086 29ed 55090000 		.4byte	0x955
 12087 29f1 00000000 		.4byte	.LFB277
 12088 29f5 0E000000 		.4byte	.LFE277-.LFB277
 12089 29f9 01       		.uleb128 0x1
 12090 29fa 9C       		.byte	0x9c
 12091 29fb 2D2A0000 		.4byte	0x2a2d
ARM GAS  /tmp/ccZHgRNF.s 			page 214


 12092 29ff 28       		.uleb128 0x28
 12093 2a00 647000   		.ascii	"dp\000"
 12094 2a03 01       		.byte	0x1
 12095 2a04 890C     		.2byte	0xc89
 12096 2a06 220A0000 		.4byte	0xa22
 12097 2a0a 74320000 		.4byte	.LLST257
 12098 2a0e 3B       		.uleb128 0x3b
 12099 2a0f 72657300 		.ascii	"res\000"
 12100 2a13 01       		.byte	0x1
 12101 2a14 8C0C     		.2byte	0xc8c
 12102 2a16 55090000 		.4byte	0x955
 12103 2a1a 01       		.uleb128 0x1
 12104 2a1b 50       		.byte	0x50
 12105 2a1c 32       		.uleb128 0x32
 12106 2a1d 08000000 		.4byte	.LVL701
 12107 2a21 D50E0000 		.4byte	0xed5
 12108 2a25 31       		.uleb128 0x31
 12109 2a26 01       		.uleb128 0x1
 12110 2a27 50       		.byte	0x50
 12111 2a28 02       		.uleb128 0x2
 12112 2a29 74       		.byte	0x74
 12113 2a2a 00       		.sleb128 0
 12114 2a2b 00       		.byte	0
 12115 2a2c 00       		.byte	0
 12116 2a2d 42       		.uleb128 0x42
 12117 2a2e 5D090000 		.4byte	.LASF227
 12118 2a32 01       		.byte	0x1
 12119 2a33 A80C     		.2byte	0xca8
 12120 2a35 55090000 		.4byte	0x955
 12121 2a39 00000000 		.4byte	.LFB278
 12122 2a3d 5A000000 		.4byte	.LFE278-.LFB278
 12123 2a41 01       		.uleb128 0x1
 12124 2a42 9C       		.byte	0x9c
 12125 2a43 FF2A0000 		.4byte	0x2aff
 12126 2a47 28       		.uleb128 0x28
 12127 2a48 647000   		.ascii	"dp\000"
 12128 2a4b 01       		.byte	0x1
 12129 2a4c A90C     		.2byte	0xca9
 12130 2a4e 220A0000 		.4byte	0xa22
 12131 2a52 92320000 		.4byte	.LLST258
 12132 2a56 28       		.uleb128 0x28
 12133 2a57 666E6F00 		.ascii	"fno\000"
 12134 2a5b 01       		.byte	0x1
 12135 2a5c AA0C     		.2byte	0xcaa
 12136 2a5e 280A0000 		.4byte	0xa28
 12137 2a62 B0320000 		.4byte	.LLST259
 12138 2a66 27       		.uleb128 0x27
 12139 2a67 72657300 		.ascii	"res\000"
 12140 2a6b 01       		.byte	0x1
 12141 2a6c AD0C     		.2byte	0xcad
 12142 2a6e 55090000 		.4byte	0x955
 12143 2a72 CE320000 		.4byte	.LLST260
 12144 2a76 3B       		.uleb128 0x3b
 12145 2a77 73666E00 		.ascii	"sfn\000"
 12146 2a7b 01       		.byte	0x1
 12147 2a7c AE0C     		.2byte	0xcae
 12148 2a7e 1C220000 		.4byte	0x221c
ARM GAS  /tmp/ccZHgRNF.s 			page 215


 12149 2a82 02       		.uleb128 0x2
 12150 2a83 91       		.byte	0x91
 12151 2a84 64       		.sleb128 -28
 12152 2a85 30       		.uleb128 0x30
 12153 2a86 0C000000 		.4byte	.LVL703
 12154 2a8a D50E0000 		.4byte	0xed5
 12155 2a8e 992A0000 		.4byte	0x2a99
 12156 2a92 31       		.uleb128 0x31
 12157 2a93 01       		.uleb128 0x1
 12158 2a94 50       		.byte	0x50
 12159 2a95 02       		.uleb128 0x2
 12160 2a96 75       		.byte	0x75
 12161 2a97 00       		.sleb128 0
 12162 2a98 00       		.byte	0
 12163 2a99 30       		.uleb128 0x30
 12164 2a9a 1C000000 		.4byte	.LVL705
 12165 2a9e 2C1D0000 		.4byte	0x1d2c
 12166 2aa2 AD2A0000 		.4byte	0x2aad
 12167 2aa6 31       		.uleb128 0x31
 12168 2aa7 01       		.uleb128 0x1
 12169 2aa8 50       		.byte	0x50
 12170 2aa9 02       		.uleb128 0x2
 12171 2aaa 75       		.byte	0x75
 12172 2aab 00       		.sleb128 0
 12173 2aac 00       		.byte	0
 12174 2aad 30       		.uleb128 0x30
 12175 2aae 38000000 		.4byte	.LVL711
 12176 2ab2 1F0F0000 		.4byte	0xf1f
 12177 2ab6 CF2A0000 		.4byte	0x2acf
 12178 2aba 31       		.uleb128 0x31
 12179 2abb 01       		.uleb128 0x1
 12180 2abc 52       		.byte	0x52
 12181 2abd 02       		.uleb128 0x2
 12182 2abe 76       		.byte	0x76
 12183 2abf 00       		.sleb128 0
 12184 2ac0 31       		.uleb128 0x31
 12185 2ac1 01       		.uleb128 0x1
 12186 2ac2 51       		.byte	0x51
 12187 2ac3 02       		.uleb128 0x2
 12188 2ac4 75       		.byte	0x75
 12189 2ac5 14       		.sleb128 20
 12190 2ac6 43       		.uleb128 0x43
 12191 2ac7 DE090000 		.4byte	0x9de
 12192 2acb 02       		.uleb128 0x2
 12193 2acc 75       		.byte	0x75
 12194 2acd 00       		.sleb128 0
 12195 2ace 00       		.byte	0
 12196 2acf 30       		.uleb128 0x30
 12197 2ad0 40000000 		.4byte	.LVL712
 12198 2ad4 F5170000 		.4byte	0x17f5
 12199 2ad8 E82A0000 		.4byte	0x2ae8
 12200 2adc 31       		.uleb128 0x31
 12201 2add 01       		.uleb128 0x1
 12202 2ade 51       		.byte	0x51
 12203 2adf 01       		.uleb128 0x1
 12204 2ae0 30       		.byte	0x30
 12205 2ae1 31       		.uleb128 0x31
ARM GAS  /tmp/ccZHgRNF.s 			page 216


 12206 2ae2 01       		.uleb128 0x1
 12207 2ae3 50       		.byte	0x50
 12208 2ae4 02       		.uleb128 0x2
 12209 2ae5 75       		.byte	0x75
 12210 2ae6 00       		.sleb128 0
 12211 2ae7 00       		.byte	0
 12212 2ae8 32       		.uleb128 0x32
 12213 2ae9 52000000 		.4byte	.LVL716
 12214 2aed 04140000 		.4byte	0x1404
 12215 2af1 31       		.uleb128 0x31
 12216 2af2 01       		.uleb128 0x1
 12217 2af3 51       		.byte	0x51
 12218 2af4 02       		.uleb128 0x2
 12219 2af5 74       		.byte	0x74
 12220 2af6 00       		.sleb128 0
 12221 2af7 31       		.uleb128 0x31
 12222 2af8 01       		.uleb128 0x1
 12223 2af9 50       		.byte	0x50
 12224 2afa 02       		.uleb128 0x2
 12225 2afb 75       		.byte	0x75
 12226 2afc 00       		.sleb128 0
 12227 2afd 00       		.byte	0
 12228 2afe 00       		.byte	0
 12229 2aff 42       		.uleb128 0x42
 12230 2b00 EC080000 		.4byte	.LASF228
 12231 2b04 01       		.byte	0x1
 12232 2b05 D20C     		.2byte	0xcd2
 12233 2b07 55090000 		.4byte	0x955
 12234 2b0b 00000000 		.4byte	.LFB279
 12235 2b0f 4A000000 		.4byte	.LFE279-.LFB279
 12236 2b13 01       		.uleb128 0x1
 12237 2b14 9C       		.byte	0x9c
 12238 2b15 B82B0000 		.4byte	0x2bb8
 12239 2b19 26       		.uleb128 0x26
 12240 2b1a 67000000 		.4byte	.LASF170
 12241 2b1e 01       		.byte	0x1
 12242 2b1f D30C     		.2byte	0xcd3
 12243 2b21 1D0B0000 		.4byte	0xb1d
 12244 2b25 3B330000 		.4byte	.LLST261
 12245 2b29 28       		.uleb128 0x28
 12246 2b2a 666E6F00 		.ascii	"fno\000"
 12247 2b2e 01       		.byte	0x1
 12248 2b2f D40C     		.2byte	0xcd4
 12249 2b31 280A0000 		.4byte	0xa28
 12250 2b35 66330000 		.4byte	.LLST262
 12251 2b39 27       		.uleb128 0x27
 12252 2b3a 72657300 		.ascii	"res\000"
 12253 2b3e 01       		.byte	0x1
 12254 2b3f D70C     		.2byte	0xcd7
 12255 2b41 55090000 		.4byte	0x955
 12256 2b45 84330000 		.4byte	.LLST263
 12257 2b49 3B       		.uleb128 0x3b
 12258 2b4a 646A00   		.ascii	"dj\000"
 12259 2b4d 01       		.byte	0x1
 12260 2b4e D80C     		.2byte	0xcd8
 12261 2b50 69080000 		.4byte	0x869
 12262 2b54 02       		.uleb128 0x2
ARM GAS  /tmp/ccZHgRNF.s 			page 217


 12263 2b55 91       		.byte	0x91
 12264 2b56 54       		.sleb128 -44
 12265 2b57 3B       		.uleb128 0x3b
 12266 2b58 73666E00 		.ascii	"sfn\000"
 12267 2b5c 01       		.byte	0x1
 12268 2b5d D90C     		.2byte	0xcd9
 12269 2b5f 1C220000 		.4byte	0x221c
 12270 2b63 02       		.uleb128 0x2
 12271 2b64 91       		.byte	0x91
 12272 2b65 48       		.sleb128 -56
 12273 2b66 30       		.uleb128 0x30
 12274 2b67 12000000 		.4byte	.LVL722
 12275 2b6b B1110000 		.4byte	0x11b1
 12276 2b6f 852B0000 		.4byte	0x2b85
 12277 2b73 31       		.uleb128 0x31
 12278 2b74 01       		.uleb128 0x1
 12279 2b75 52       		.byte	0x52
 12280 2b76 01       		.uleb128 0x1
 12281 2b77 30       		.byte	0x30
 12282 2b78 31       		.uleb128 0x31
 12283 2b79 01       		.uleb128 0x1
 12284 2b7a 51       		.byte	0x51
 12285 2b7b 02       		.uleb128 0x2
 12286 2b7c 91       		.byte	0x91
 12287 2b7d 44       		.sleb128 -60
 12288 2b7e 31       		.uleb128 0x31
 12289 2b7f 01       		.uleb128 0x1
 12290 2b80 50       		.byte	0x50
 12291 2b81 02       		.uleb128 0x2
 12292 2b82 91       		.byte	0x91
 12293 2b83 54       		.sleb128 -44
 12294 2b84 00       		.byte	0
 12295 2b85 30       		.uleb128 0x30
 12296 2b86 28000000 		.4byte	.LVL726
 12297 2b8a EF190000 		.4byte	0x19ef
 12298 2b8e 992B0000 		.4byte	0x2b99
 12299 2b92 31       		.uleb128 0x31
 12300 2b93 01       		.uleb128 0x1
 12301 2b94 50       		.byte	0x50
 12302 2b95 02       		.uleb128 0x2
 12303 2b96 91       		.byte	0x91
 12304 2b97 54       		.sleb128 -44
 12305 2b98 00       		.byte	0
 12306 2b99 32       		.uleb128 0x32
 12307 2b9a 40000000 		.4byte	.LVL728
 12308 2b9e 1F0F0000 		.4byte	0xf1f
 12309 2ba2 31       		.uleb128 0x31
 12310 2ba3 01       		.uleb128 0x1
 12311 2ba4 52       		.byte	0x52
 12312 2ba5 02       		.uleb128 0x2
 12313 2ba6 75       		.byte	0x75
 12314 2ba7 00       		.sleb128 0
 12315 2ba8 31       		.uleb128 0x31
 12316 2ba9 01       		.uleb128 0x1
 12317 2baa 51       		.byte	0x51
 12318 2bab 02       		.uleb128 0x2
 12319 2bac 91       		.byte	0x91
ARM GAS  /tmp/ccZHgRNF.s 			page 218


 12320 2bad 68       		.sleb128 -24
 12321 2bae 43       		.uleb128 0x43
 12322 2baf DE090000 		.4byte	0x9de
 12323 2bb3 02       		.uleb128 0x2
 12324 2bb4 91       		.byte	0x91
 12325 2bb5 54       		.sleb128 -44
 12326 2bb6 00       		.byte	0
 12327 2bb7 00       		.byte	0
 12328 2bb8 42       		.uleb128 0x42
 12329 2bb9 63080000 		.4byte	.LASF229
 12330 2bbd 01       		.byte	0x1
 12331 2bbe F50C     		.2byte	0xcf5
 12332 2bc0 55090000 		.4byte	0x955
 12333 2bc4 00000000 		.4byte	.LFB280
 12334 2bc8 FE000000 		.4byte	.LFE280-.LFB280
 12335 2bcc 01       		.uleb128 0x1
 12336 2bcd 9C       		.byte	0x9c
 12337 2bce 0D2D0000 		.4byte	0x2d0d
 12338 2bd2 26       		.uleb128 0x26
 12339 2bd3 67000000 		.4byte	.LASF170
 12340 2bd7 01       		.byte	0x1
 12341 2bd8 F60C     		.2byte	0xcf6
 12342 2bda 1D0B0000 		.4byte	0xb1d
 12343 2bde CE330000 		.4byte	.LLST264
 12344 2be2 26       		.uleb128 0x26
 12345 2be3 3F010000 		.4byte	.LASF199
 12346 2be7 01       		.byte	0x1
 12347 2be8 F70C     		.2byte	0xcf7
 12348 2bea 0D2D0000 		.4byte	0x2d0d
 12349 2bee F9330000 		.4byte	.LLST265
 12350 2bf2 26       		.uleb128 0x26
 12351 2bf3 F0010000 		.4byte	.LASF230
 12352 2bf7 01       		.byte	0x1
 12353 2bf8 F80C     		.2byte	0xcf8
 12354 2bfa 61130000 		.4byte	0x1361
 12355 2bfe 17340000 		.4byte	.LLST266
 12356 2c02 27       		.uleb128 0x27
 12357 2c03 72657300 		.ascii	"res\000"
 12358 2c07 01       		.byte	0x1
 12359 2c08 FB0C     		.2byte	0xcfb
 12360 2c0a 55090000 		.4byte	0x955
 12361 2c0e 4E340000 		.4byte	.LLST267
 12362 2c12 3B       		.uleb128 0x3b
 12363 2c13 667300   		.ascii	"fs\000"
 12364 2c16 01       		.byte	0x1
 12365 2c17 FC0C     		.2byte	0xcfc
 12366 2c19 EC070000 		.4byte	0x7ec
 12367 2c1d 01       		.uleb128 0x1
 12368 2c1e 55       		.byte	0x55
 12369 2c1f 27       		.uleb128 0x27
 12370 2c20 6E00     		.ascii	"n\000"
 12371 2c22 01       		.byte	0x1
 12372 2c23 FD0C     		.2byte	0xcfd
 12373 2c25 70000000 		.4byte	0x70
 12374 2c29 BC340000 		.4byte	.LLST268
 12375 2c2d 39       		.uleb128 0x39
 12376 2c2e AE040000 		.4byte	.LASF176
ARM GAS  /tmp/ccZHgRNF.s 			page 219


 12377 2c32 01       		.byte	0x1
 12378 2c33 FD0C     		.2byte	0xcfd
 12379 2c35 70000000 		.4byte	0x70
 12380 2c39 14350000 		.4byte	.LLST269
 12381 2c3d 39       		.uleb128 0x39
 12382 2c3e 45010000 		.4byte	.LASF131
 12383 2c42 01       		.byte	0x1
 12384 2c43 FD0C     		.2byte	0xcfd
 12385 2c45 70000000 		.4byte	0x70
 12386 2c49 78350000 		.4byte	.LLST270
 12387 2c4d 22       		.uleb128 0x22
 12388 2c4e C4000000 		.4byte	.LASF194
 12389 2c52 01       		.byte	0x1
 12390 2c53 FD0C     		.2byte	0xcfd
 12391 2c55 70000000 		.4byte	0x70
 12392 2c59 27       		.uleb128 0x27
 12393 2c5a 6900     		.ascii	"i\000"
 12394 2c5c 01       		.byte	0x1
 12395 2c5d FE0C     		.2byte	0xcfe
 12396 2c5f 57000000 		.4byte	0x57
 12397 2c63 B7350000 		.4byte	.LLST271
 12398 2c67 27       		.uleb128 0x27
 12399 2c68 66617400 		.ascii	"fat\000"
 12400 2c6c 01       		.byte	0x1
 12401 2c6d FF0C     		.2byte	0xcff
 12402 2c6f 25000000 		.4byte	0x25
 12403 2c73 07360000 		.4byte	.LLST272
 12404 2c77 27       		.uleb128 0x27
 12405 2c78 7000     		.ascii	"p\000"
 12406 2c7a 01       		.byte	0x1
 12407 2c7b FF0C     		.2byte	0xcff
 12408 2c7d F2070000 		.4byte	0x7f2
 12409 2c81 5F360000 		.4byte	.LLST273
 12410 2c85 33       		.uleb128 0x33
 12411 2c86 AE0B0000 		.4byte	0xbae
 12412 2c8a BE000000 		.4byte	.LBB334
 12413 2c8e 70020000 		.4byte	.Ldebug_ranges0+0x270
 12414 2c92 01       		.byte	0x1
 12415 2c93 100D     		.2byte	0xd10
 12416 2c95 D72C0000 		.4byte	0x2cd7
 12417 2c99 2E       		.uleb128 0x2e
 12418 2c9a CA0B0000 		.4byte	0xbca
 12419 2c9e BB360000 		.4byte	.LLST274
 12420 2ca2 2E       		.uleb128 0x2e
 12421 2ca3 BF0B0000 		.4byte	0xbbf
 12422 2ca7 00370000 		.4byte	.LLST275
 12423 2cab 34       		.uleb128 0x34
 12424 2cac 70020000 		.4byte	.Ldebug_ranges0+0x270
 12425 2cb0 35       		.uleb128 0x35
 12426 2cb1 D60B0000 		.4byte	0xbd6
 12427 2cb5 35       		.uleb128 0x35
 12428 2cb6 E10B0000 		.4byte	0xbe1
 12429 2cba 35       		.uleb128 0x35
 12430 2cbb EC0B0000 		.4byte	0xbec
 12431 2cbf 32       		.uleb128 0x32
 12432 2cc0 F0000000 		.4byte	.LVL766
 12433 2cc4 77130000 		.4byte	0x1377
ARM GAS  /tmp/ccZHgRNF.s 			page 220


 12434 2cc8 31       		.uleb128 0x31
 12435 2cc9 01       		.uleb128 0x1
 12436 2cca 51       		.byte	0x51
 12437 2ccb 02       		.uleb128 0x2
 12438 2ccc 74       		.byte	0x74
 12439 2ccd 00       		.sleb128 0
 12440 2cce 31       		.uleb128 0x31
 12441 2ccf 01       		.uleb128 0x1
 12442 2cd0 50       		.byte	0x50
 12443 2cd1 02       		.uleb128 0x2
 12444 2cd2 75       		.byte	0x75
 12445 2cd3 00       		.sleb128 0
 12446 2cd4 00       		.byte	0
 12447 2cd5 00       		.byte	0
 12448 2cd6 00       		.byte	0
 12449 2cd7 30       		.uleb128 0x30
 12450 2cd8 1A000000 		.4byte	.LVL734
 12451 2cdc B1110000 		.4byte	0x11b1
 12452 2ce0 F62C0000 		.4byte	0x2cf6
 12453 2ce4 31       		.uleb128 0x31
 12454 2ce5 01       		.uleb128 0x1
 12455 2ce6 52       		.byte	0x52
 12456 2ce7 01       		.uleb128 0x1
 12457 2ce8 30       		.byte	0x30
 12458 2ce9 31       		.uleb128 0x31
 12459 2cea 01       		.uleb128 0x1
 12460 2ceb 51       		.byte	0x51
 12461 2cec 02       		.uleb128 0x2
 12462 2ced 91       		.byte	0x91
 12463 2cee 54       		.sleb128 -44
 12464 2cef 31       		.uleb128 0x31
 12465 2cf0 01       		.uleb128 0x1
 12466 2cf1 50       		.byte	0x50
 12467 2cf2 02       		.uleb128 0x2
 12468 2cf3 74       		.byte	0x74
 12469 2cf4 00       		.sleb128 0
 12470 2cf5 00       		.byte	0
 12471 2cf6 32       		.uleb128 0x32
 12472 2cf7 9A000000 		.4byte	.LVL751
 12473 2cfb 5C0B0000 		.4byte	0xb5c
 12474 2cff 31       		.uleb128 0x31
 12475 2d00 01       		.uleb128 0x1
 12476 2d01 51       		.byte	0x51
 12477 2d02 02       		.uleb128 0x2
 12478 2d03 77       		.byte	0x77
 12479 2d04 7F       		.sleb128 -1
 12480 2d05 31       		.uleb128 0x31
 12481 2d06 01       		.uleb128 0x1
 12482 2d07 50       		.byte	0x50
 12483 2d08 02       		.uleb128 0x2
 12484 2d09 75       		.byte	0x75
 12485 2d0a 00       		.sleb128 0
 12486 2d0b 00       		.byte	0
 12487 2d0c 00       		.byte	0
 12488 2d0d 09       		.uleb128 0x9
 12489 2d0e 04       		.byte	0x4
 12490 2d0f 70000000 		.4byte	0x70
ARM GAS  /tmp/ccZHgRNF.s 			page 221


 12491 2d13 42       		.uleb128 0x42
 12492 2d14 63030000 		.4byte	.LASF231
 12493 2d18 01       		.byte	0x1
 12494 2d19 380D     		.2byte	0xd38
 12495 2d1b 55090000 		.4byte	0x955
 12496 2d1f 00000000 		.4byte	.LFB281
 12497 2d23 D4000000 		.4byte	.LFE281-.LFB281
 12498 2d27 01       		.uleb128 0x1
 12499 2d28 9C       		.byte	0x9c
 12500 2d29 B02E0000 		.4byte	0x2eb0
 12501 2d2d 28       		.uleb128 0x28
 12502 2d2e 667000   		.ascii	"fp\000"
 12503 2d31 01       		.byte	0x1
 12504 2d32 390D     		.2byte	0xd39
 12505 2d34 190F0000 		.4byte	0xf19
 12506 2d38 29370000 		.4byte	.LLST276
 12507 2d3c 27       		.uleb128 0x27
 12508 2d3d 72657300 		.ascii	"res\000"
 12509 2d41 01       		.byte	0x1
 12510 2d42 3C0D     		.2byte	0xd3c
 12511 2d44 55090000 		.4byte	0x955
 12512 2d48 47370000 		.4byte	.LLST277
 12513 2d4c 1E       		.uleb128 0x1e
 12514 2d4d 6E636C00 		.ascii	"ncl\000"
 12515 2d51 01       		.byte	0x1
 12516 2d52 3D0D     		.2byte	0xd3d
 12517 2d54 70000000 		.4byte	0x70
 12518 2d58 33       		.uleb128 0x33
 12519 2d59 740D0000 		.4byte	0xd74
 12520 2d5d 32000000 		.4byte	.LBB340
 12521 2d61 90020000 		.4byte	.Ldebug_ranges0+0x290
 12522 2d65 01       		.byte	0x1
 12523 2d66 4E0D     		.2byte	0xd4e
 12524 2d68 9C2D0000 		.4byte	0x2d9c
 12525 2d6c 2E       		.uleb128 0x2e
 12526 2d6d 900D0000 		.4byte	0xd90
 12527 2d71 D8370000 		.4byte	.LLST278
 12528 2d75 2E       		.uleb128 0x2e
 12529 2d76 850D0000 		.4byte	0xd85
 12530 2d7a F6370000 		.4byte	.LLST279
 12531 2d7e 34       		.uleb128 0x34
 12532 2d7f 90020000 		.4byte	.Ldebug_ranges0+0x290
 12533 2d83 2C       		.uleb128 0x2c
 12534 2d84 9C0D0000 		.4byte	0xd9c
 12535 2d88 14380000 		.4byte	.LLST280
 12536 2d8c 35       		.uleb128 0x35
 12537 2d8d A80D0000 		.4byte	0xda8
 12538 2d91 29       		.uleb128 0x29
 12539 2d92 92000000 		.4byte	.LVL790
 12540 2d96 461C0000 		.4byte	0x1c46
 12541 2d9a 00       		.byte	0
 12542 2d9b 00       		.byte	0
 12543 2d9c 33       		.uleb128 0x33
 12544 2d9d AE0B0000 		.4byte	0xbae
 12545 2da1 70000000 		.4byte	.LBB343
 12546 2da5 A8020000 		.4byte	.Ldebug_ranges0+0x2a8
 12547 2da9 01       		.byte	0x1
ARM GAS  /tmp/ccZHgRNF.s 			page 222


 12548 2daa 510D     		.2byte	0xd51
 12549 2dac E12D0000 		.4byte	0x2de1
 12550 2db0 2E       		.uleb128 0x2e
 12551 2db1 CA0B0000 		.4byte	0xbca
 12552 2db5 27380000 		.4byte	.LLST281
 12553 2db9 2E       		.uleb128 0x2e
 12554 2dba BF0B0000 		.4byte	0xbbf
 12555 2dbe 45380000 		.4byte	.LLST282
 12556 2dc2 34       		.uleb128 0x34
 12557 2dc3 A8020000 		.4byte	.Ldebug_ranges0+0x2a8
 12558 2dc7 35       		.uleb128 0x35
 12559 2dc8 D60B0000 		.4byte	0xbd6
 12560 2dcc 35       		.uleb128 0x35
 12561 2dcd E10B0000 		.4byte	0xbe1
 12562 2dd1 35       		.uleb128 0x35
 12563 2dd2 EC0B0000 		.4byte	0xbec
 12564 2dd6 29       		.uleb128 0x29
 12565 2dd7 98000000 		.4byte	.LVL792
 12566 2ddb 77130000 		.4byte	0x1377
 12567 2ddf 00       		.byte	0
 12568 2de0 00       		.byte	0
 12569 2de1 36       		.uleb128 0x36
 12570 2de2 490C0000 		.4byte	0xc49
 12571 2de6 AC000000 		.4byte	.LBB350
 12572 2dea 10000000 		.4byte	.LBE350-.LBB350
 12573 2dee 01       		.byte	0x1
 12574 2def 560D     		.2byte	0xd56
 12575 2df1 412E0000 		.4byte	0x2e41
 12576 2df5 44       		.uleb128 0x44
 12577 2df6 710C0000 		.4byte	0xc71
 12578 2dfa FFFFFF0F 		.4byte	0xfffffff
 12579 2dfe 2E       		.uleb128 0x2e
 12580 2dff 650C0000 		.4byte	0xc65
 12581 2e03 63380000 		.4byte	.LLST283
 12582 2e07 2E       		.uleb128 0x2e
 12583 2e08 5A0C0000 		.4byte	0xc5a
 12584 2e0c 76380000 		.4byte	.LLST284
 12585 2e10 2D       		.uleb128 0x2d
 12586 2e11 AC000000 		.4byte	.LBB351
 12587 2e15 10000000 		.4byte	.LBE351-.LBB351
 12588 2e19 35       		.uleb128 0x35
 12589 2e1a 7D0C0000 		.4byte	0xc7d
 12590 2e1e 35       		.uleb128 0x35
 12591 2e1f 880C0000 		.4byte	0xc88
 12592 2e23 2C       		.uleb128 0x2c
 12593 2e24 920C0000 		.4byte	0xc92
 12594 2e28 89380000 		.4byte	.LLST285
 12595 2e2c 32       		.uleb128 0x32
 12596 2e2d BC000000 		.4byte	.LVL794
 12597 2e31 75150000 		.4byte	0x1575
 12598 2e35 31       		.uleb128 0x31
 12599 2e36 01       		.uleb128 0x1
 12600 2e37 52       		.byte	0x52
 12601 2e38 05       		.uleb128 0x5
 12602 2e39 0C       		.byte	0xc
 12603 2e3a FFFFFF0F 		.4byte	0xfffffff
 12604 2e3e 00       		.byte	0
ARM GAS  /tmp/ccZHgRNF.s 			page 223


 12605 2e3f 00       		.byte	0
 12606 2e40 00       		.byte	0
 12607 2e41 33       		.uleb128 0x33
 12608 2e42 740D0000 		.4byte	0xd74
 12609 2e46 C0000000 		.4byte	.LBB352
 12610 2e4a C8020000 		.4byte	.Ldebug_ranges0+0x2c8
 12611 2e4e 01       		.byte	0x1
 12612 2e4f 570D     		.2byte	0xd57
 12613 2e51 862E0000 		.4byte	0x2e86
 12614 2e55 2B       		.uleb128 0x2b
 12615 2e56 900D0000 		.4byte	0xd90
 12616 2e5a 01       		.uleb128 0x1
 12617 2e5b 56       		.byte	0x56
 12618 2e5c 2E       		.uleb128 0x2e
 12619 2e5d 850D0000 		.4byte	0xd85
 12620 2e61 9C380000 		.4byte	.LLST286
 12621 2e65 34       		.uleb128 0x34
 12622 2e66 C8020000 		.4byte	.Ldebug_ranges0+0x2c8
 12623 2e6a 35       		.uleb128 0x35
 12624 2e6b 9C0D0000 		.4byte	0xd9c
 12625 2e6f 35       		.uleb128 0x35
 12626 2e70 A80D0000 		.4byte	0xda8
 12627 2e74 32       		.uleb128 0x32
 12628 2e75 D2000000 		.4byte	.LVL796
 12629 2e79 461C0000 		.4byte	0x1c46
 12630 2e7d 31       		.uleb128 0x31
 12631 2e7e 01       		.uleb128 0x1
 12632 2e7f 51       		.byte	0x51
 12633 2e80 02       		.uleb128 0x2
 12634 2e81 76       		.byte	0x76
 12635 2e82 00       		.sleb128 0
 12636 2e83 00       		.byte	0
 12637 2e84 00       		.byte	0
 12638 2e85 00       		.byte	0
 12639 2e86 30       		.uleb128 0x30
 12640 2e87 08000000 		.4byte	.LVL769
 12641 2e8b D50E0000 		.4byte	0xed5
 12642 2e8f 9A2E0000 		.4byte	0x2e9a
 12643 2e93 31       		.uleb128 0x31
 12644 2e94 01       		.uleb128 0x1
 12645 2e95 50       		.byte	0x50
 12646 2e96 02       		.uleb128 0x2
 12647 2e97 75       		.byte	0x75
 12648 2e98 00       		.sleb128 0
 12649 2e99 00       		.byte	0
 12650 2e9a 32       		.uleb128 0x32
 12651 2e9b 5A000000 		.4byte	.LVL777
 12652 2e9f BB380000 		.4byte	0x38bb
 12653 2ea3 31       		.uleb128 0x31
 12654 2ea4 01       		.uleb128 0x1
 12655 2ea5 53       		.byte	0x53
 12656 2ea6 01       		.uleb128 0x1
 12657 2ea7 31       		.byte	0x31
 12658 2ea8 31       		.uleb128 0x31
 12659 2ea9 01       		.uleb128 0x1
 12660 2eaa 51       		.byte	0x51
 12661 2eab 02       		.uleb128 0x2
ARM GAS  /tmp/ccZHgRNF.s 			page 224


 12662 2eac 75       		.byte	0x75
 12663 2ead 24       		.sleb128 36
 12664 2eae 00       		.byte	0
 12665 2eaf 00       		.byte	0
 12666 2eb0 42       		.uleb128 0x42
 12667 2eb1 76010000 		.4byte	.LASF232
 12668 2eb5 01       		.byte	0x1
 12669 2eb6 700D     		.2byte	0xd70
 12670 2eb8 55090000 		.4byte	0x955
 12671 2ebc 00000000 		.4byte	.LFB282
 12672 2ec0 CA000000 		.4byte	.LFE282-.LFB282
 12673 2ec4 01       		.uleb128 0x1
 12674 2ec5 9C       		.byte	0x9c
 12675 2ec6 7D300000 		.4byte	0x307d
 12676 2eca 26       		.uleb128 0x26
 12677 2ecb 67000000 		.4byte	.LASF170
 12678 2ecf 01       		.byte	0x1
 12679 2ed0 710D     		.2byte	0xd71
 12680 2ed2 1D0B0000 		.4byte	0xb1d
 12681 2ed6 AF380000 		.4byte	.LLST287
 12682 2eda 27       		.uleb128 0x27
 12683 2edb 72657300 		.ascii	"res\000"
 12684 2edf 01       		.byte	0x1
 12685 2ee0 740D     		.2byte	0xd74
 12686 2ee2 55090000 		.4byte	0x955
 12687 2ee6 DB380000 		.4byte	.LLST288
 12688 2eea 3B       		.uleb128 0x3b
 12689 2eeb 646A00   		.ascii	"dj\000"
 12690 2eee 01       		.byte	0x1
 12691 2eef 750D     		.2byte	0xd75
 12692 2ef1 69080000 		.4byte	0x869
 12693 2ef5 03       		.uleb128 0x3
 12694 2ef6 91       		.byte	0x91
 12695 2ef7 B87F     		.sleb128 -72
 12696 2ef9 3B       		.uleb128 0x3b
 12697 2efa 73646A00 		.ascii	"sdj\000"
 12698 2efe 01       		.byte	0x1
 12699 2eff 750D     		.2byte	0xd75
 12700 2f01 69080000 		.4byte	0x869
 12701 2f05 02       		.uleb128 0x2
 12702 2f06 91       		.byte	0x91
 12703 2f07 54       		.sleb128 -44
 12704 2f08 27       		.uleb128 0x27
 12705 2f09 64697200 		.ascii	"dir\000"
 12706 2f0d 01       		.byte	0x1
 12707 2f0e 760D     		.2byte	0xd76
 12708 2f10 F2070000 		.4byte	0x7f2
 12709 2f14 69390000 		.4byte	.LLST289
 12710 2f18 45       		.uleb128 0x45
 12711 2f19 C9070000 		.4byte	.LASF233
 12712 2f1d 01       		.byte	0x1
 12713 2f1e 770D     		.2byte	0xd77
 12714 2f20 70000000 		.4byte	0x70
 12715 2f24 01       		.uleb128 0x1
 12716 2f25 55       		.byte	0x55
 12717 2f26 3B       		.uleb128 0x3b
 12718 2f27 73666E00 		.ascii	"sfn\000"
ARM GAS  /tmp/ccZHgRNF.s 			page 225


 12719 2f2b 01       		.byte	0x1
 12720 2f2c 780D     		.2byte	0xd78
 12721 2f2e 1C220000 		.4byte	0x221c
 12722 2f32 03       		.uleb128 0x3
 12723 2f33 91       		.byte	0x91
 12724 2f34 AC7F     		.sleb128 -84
 12725 2f36 33       		.uleb128 0x33
 12726 2f37 9D090000 		.4byte	0x99d
 12727 2f3b 3A000000 		.4byte	.LBB356
 12728 2f3f E0020000 		.4byte	.Ldebug_ranges0+0x2e0
 12729 2f43 01       		.byte	0x1
 12730 2f44 8D0D     		.2byte	0xd8d
 12731 2f46 6C2F0000 		.4byte	0x2f6c
 12732 2f4a 2E       		.uleb128 0x2e
 12733 2f4b AE090000 		.4byte	0x9ae
 12734 2f4f 9E390000 		.4byte	.LLST290
 12735 2f53 2E       		.uleb128 0x2e
 12736 2f54 B9090000 		.4byte	0x9b9
 12737 2f58 C0390000 		.4byte	.LLST291
 12738 2f5c 34       		.uleb128 0x34
 12739 2f5d E0020000 		.4byte	.Ldebug_ranges0+0x2e0
 12740 2f61 2C       		.uleb128 0x2c
 12741 2f62 C5090000 		.4byte	0x9c5
 12742 2f66 EA390000 		.4byte	.LLST292
 12743 2f6a 00       		.byte	0
 12744 2f6b 00       		.byte	0
 12745 2f6c 36       		.uleb128 0x36
 12746 2f6d 050D0000 		.4byte	0xd05
 12747 2f71 5C000000 		.4byte	.LBB359
 12748 2f75 0C000000 		.4byte	.LBE359-.LBB359
 12749 2f79 01       		.byte	0x1
 12750 2f7a 920D     		.2byte	0xd92
 12751 2f7c B42F0000 		.4byte	0x2fb4
 12752 2f80 2E       		.uleb128 0x2e
 12753 2f81 2A0D0000 		.4byte	0xd2a
 12754 2f85 083A0000 		.4byte	.LLST293
 12755 2f89 2B       		.uleb128 0x2b
 12756 2f8a 1E0D0000 		.4byte	0xd1e
 12757 2f8e 01       		.uleb128 0x1
 12758 2f8f 54       		.byte	0x54
 12759 2f90 2B       		.uleb128 0x2b
 12760 2f91 120D0000 		.4byte	0xd12
 12761 2f95 01       		.uleb128 0x1
 12762 2f96 53       		.byte	0x53
 12763 2f97 2D       		.uleb128 0x2d
 12764 2f98 5C000000 		.4byte	.LBB360
 12765 2f9c 0C000000 		.4byte	.LBE360-.LBB360
 12766 2fa0 2C       		.uleb128 0x2c
 12767 2fa1 360D0000 		.4byte	0xd36
 12768 2fa5 5C3A0000 		.4byte	.LLST294
 12769 2fa9 2C       		.uleb128 0x2c
 12770 2faa 400D0000 		.4byte	0xd40
 12771 2fae 6F3A0000 		.4byte	.LLST295
 12772 2fb2 00       		.byte	0
 12773 2fb3 00       		.byte	0
 12774 2fb4 33       		.uleb128 0x33
 12775 2fb5 740D0000 		.4byte	0xd74
ARM GAS  /tmp/ccZHgRNF.s 			page 226


 12776 2fb9 8E000000 		.4byte	.LBB361
 12777 2fbd F8020000 		.4byte	.Ldebug_ranges0+0x2f8
 12778 2fc1 01       		.byte	0x1
 12779 2fc2 A40D     		.2byte	0xda4
 12780 2fc4 FB2F0000 		.4byte	0x2ffb
 12781 2fc8 2E       		.uleb128 0x2e
 12782 2fc9 900D0000 		.4byte	0xd90
 12783 2fcd A53A0000 		.4byte	.LLST296
 12784 2fd1 2E       		.uleb128 0x2e
 12785 2fd2 850D0000 		.4byte	0xd85
 12786 2fd6 C33A0000 		.4byte	.LLST297
 12787 2fda 34       		.uleb128 0x34
 12788 2fdb F8020000 		.4byte	.Ldebug_ranges0+0x2f8
 12789 2fdf 35       		.uleb128 0x35
 12790 2fe0 9C0D0000 		.4byte	0xd9c
 12791 2fe4 35       		.uleb128 0x35
 12792 2fe5 A80D0000 		.4byte	0xda8
 12793 2fe9 32       		.uleb128 0x32
 12794 2fea B6000000 		.4byte	.LVL822
 12795 2fee 461C0000 		.4byte	0x1c46
 12796 2ff2 31       		.uleb128 0x31
 12797 2ff3 01       		.uleb128 0x1
 12798 2ff4 51       		.byte	0x51
 12799 2ff5 02       		.uleb128 0x2
 12800 2ff6 75       		.byte	0x75
 12801 2ff7 00       		.sleb128 0
 12802 2ff8 00       		.byte	0
 12803 2ff9 00       		.byte	0
 12804 2ffa 00       		.byte	0
 12805 2ffb 30       		.uleb128 0x30
 12806 2ffc 10000000 		.4byte	.LVL799
 12807 3000 B1110000 		.4byte	0x11b1
 12808 3004 1C300000 		.4byte	0x301c
 12809 3008 31       		.uleb128 0x31
 12810 3009 01       		.uleb128 0x1
 12811 300a 52       		.byte	0x52
 12812 300b 01       		.uleb128 0x1
 12813 300c 31       		.byte	0x31
 12814 300d 31       		.uleb128 0x31
 12815 300e 01       		.uleb128 0x1
 12816 300f 51       		.byte	0x51
 12817 3010 03       		.uleb128 0x3
 12818 3011 91       		.byte	0x91
 12819 3012 A47F     		.sleb128 -92
 12820 3014 31       		.uleb128 0x31
 12821 3015 01       		.uleb128 0x1
 12822 3016 50       		.byte	0x50
 12823 3017 03       		.uleb128 0x3
 12824 3018 91       		.byte	0x91
 12825 3019 B87F     		.sleb128 -72
 12826 301b 00       		.byte	0
 12827 301c 30       		.uleb128 0x30
 12828 301d 22000000 		.4byte	.LVL803
 12829 3021 EF190000 		.4byte	0x19ef
 12830 3025 31300000 		.4byte	0x3031
 12831 3029 31       		.uleb128 0x31
 12832 302a 01       		.uleb128 0x1
ARM GAS  /tmp/ccZHgRNF.s 			page 227


 12833 302b 50       		.byte	0x50
 12834 302c 03       		.uleb128 0x3
 12835 302d 91       		.byte	0x91
 12836 302e B87F     		.sleb128 -72
 12837 3030 00       		.byte	0
 12838 3031 30       		.uleb128 0x30
 12839 3032 72000000 		.4byte	.LVL812
 12840 3036 04140000 		.4byte	0x1404
 12841 303a 4A300000 		.4byte	0x304a
 12842 303e 31       		.uleb128 0x31
 12843 303f 01       		.uleb128 0x1
 12844 3040 51       		.byte	0x51
 12845 3041 01       		.uleb128 0x1
 12846 3042 32       		.byte	0x32
 12847 3043 31       		.uleb128 0x31
 12848 3044 01       		.uleb128 0x1
 12849 3045 50       		.byte	0x50
 12850 3046 02       		.uleb128 0x2
 12851 3047 74       		.byte	0x74
 12852 3048 00       		.sleb128 0
 12853 3049 00       		.byte	0
 12854 304a 30       		.uleb128 0x30
 12855 304b 7C000000 		.4byte	.LVL814
 12856 304f 2C1D0000 		.4byte	0x1d2c
 12857 3053 5E300000 		.4byte	0x305e
 12858 3057 31       		.uleb128 0x31
 12859 3058 01       		.uleb128 0x1
 12860 3059 50       		.byte	0x50
 12861 305a 02       		.uleb128 0x2
 12862 305b 74       		.byte	0x74
 12863 305c 00       		.sleb128 0
 12864 305d 00       		.byte	0
 12865 305e 30       		.uleb128 0x30
 12866 305f 88000000 		.4byte	.LVL816
 12867 3063 200C0000 		.4byte	0xc20
 12868 3067 73300000 		.4byte	0x3073
 12869 306b 31       		.uleb128 0x31
 12870 306c 01       		.uleb128 0x1
 12871 306d 50       		.byte	0x50
 12872 306e 03       		.uleb128 0x3
 12873 306f 91       		.byte	0x91
 12874 3070 B87F     		.sleb128 -72
 12875 3072 00       		.byte	0
 12876 3073 29       		.uleb128 0x29
 12877 3074 C0000000 		.4byte	.LVL824
 12878 3078 E70F0000 		.4byte	0xfe7
 12879 307c 00       		.byte	0
 12880 307d 42       		.uleb128 0x42
 12881 307e D1080000 		.4byte	.LASF234
 12882 3082 01       		.byte	0x1
 12883 3083 B60D     		.2byte	0xdb6
 12884 3085 55090000 		.4byte	0x955
 12885 3089 00000000 		.4byte	.LFB283
 12886 308d 08020000 		.4byte	.LFE283-.LFB283
 12887 3091 01       		.uleb128 0x1
 12888 3092 9C       		.byte	0x9c
 12889 3093 FA330000 		.4byte	0x33fa
ARM GAS  /tmp/ccZHgRNF.s 			page 228


 12890 3097 26       		.uleb128 0x26
 12891 3098 67000000 		.4byte	.LASF170
 12892 309c 01       		.byte	0x1
 12893 309d B70D     		.2byte	0xdb7
 12894 309f 1D0B0000 		.4byte	0xb1d
 12895 30a3 E13A0000 		.4byte	.LLST298
 12896 30a7 27       		.uleb128 0x27
 12897 30a8 72657300 		.ascii	"res\000"
 12898 30ac 01       		.byte	0x1
 12899 30ad BA0D     		.2byte	0xdba
 12900 30af 55090000 		.4byte	0x955
 12901 30b3 1A3B0000 		.4byte	.LLST299
 12902 30b7 3B       		.uleb128 0x3b
 12903 30b8 646A00   		.ascii	"dj\000"
 12904 30bb 01       		.byte	0x1
 12905 30bc BB0D     		.2byte	0xdbb
 12906 30be 69080000 		.4byte	0x869
 12907 30c2 03       		.uleb128 0x3
 12908 30c3 91       		.byte	0x91
 12909 30c4 BC7F     		.sleb128 -68
 12910 30c6 27       		.uleb128 0x27
 12911 30c7 64697200 		.ascii	"dir\000"
 12912 30cb 01       		.byte	0x1
 12913 30cc BC0D     		.2byte	0xdbc
 12914 30ce F2070000 		.4byte	0x7f2
 12915 30d2 E23B0000 		.4byte	.LLST300
 12916 30d6 27       		.uleb128 0x27
 12917 30d7 6E00     		.ascii	"n\000"
 12918 30d9 01       		.byte	0x1
 12919 30da BC0D     		.2byte	0xdbc
 12920 30dc 25000000 		.4byte	0x25
 12921 30e0 0B3C0000 		.4byte	.LLST301
 12922 30e4 27       		.uleb128 0x27
 12923 30e5 64736300 		.ascii	"dsc\000"
 12924 30e9 01       		.byte	0x1
 12925 30ea BD0D     		.2byte	0xdbd
 12926 30ec 70000000 		.4byte	0x70
 12927 30f0 2B3C0000 		.4byte	.LLST302
 12928 30f4 27       		.uleb128 0x27
 12929 30f5 64636C00 		.ascii	"dcl\000"
 12930 30f9 01       		.byte	0x1
 12931 30fa BD0D     		.2byte	0xdbd
 12932 30fc 70000000 		.4byte	0x70
 12933 3100 4A3C0000 		.4byte	.LLST303
 12934 3104 27       		.uleb128 0x27
 12935 3105 70636C00 		.ascii	"pcl\000"
 12936 3109 01       		.byte	0x1
 12937 310a BD0D     		.2byte	0xdbd
 12938 310c 70000000 		.4byte	0x70
 12939 3110 943C0000 		.4byte	.LLST304
 12940 3114 27       		.uleb128 0x27
 12941 3115 746D00   		.ascii	"tm\000"
 12942 3118 01       		.byte	0x1
 12943 3119 BD0D     		.2byte	0xdbd
 12944 311b 70000000 		.4byte	0x70
 12945 311f BE3C0000 		.4byte	.LLST305
 12946 3123 3B       		.uleb128 0x3b
ARM GAS  /tmp/ccZHgRNF.s 			page 229


 12947 3124 73666E00 		.ascii	"sfn\000"
 12948 3128 01       		.byte	0x1
 12949 3129 BE0D     		.2byte	0xdbe
 12950 312b 1C220000 		.4byte	0x221c
 12951 312f 03       		.uleb128 0x3
 12952 3130 91       		.byte	0x91
 12953 3131 B07F     		.sleb128 -80
 12954 3133 33       		.uleb128 0x33
 12955 3134 740D0000 		.4byte	0xd74
 12956 3138 48000000 		.4byte	.LBB390
 12957 313c 18030000 		.4byte	.Ldebug_ranges0+0x318
 12958 3140 01       		.byte	0x1
 12959 3141 E90D     		.2byte	0xde9
 12960 3143 7A310000 		.4byte	0x317a
 12961 3147 2E       		.uleb128 0x2e
 12962 3148 900D0000 		.4byte	0xd90
 12963 314c FD3C0000 		.4byte	.LLST306
 12964 3150 2E       		.uleb128 0x2e
 12965 3151 850D0000 		.4byte	0xd85
 12966 3155 103D0000 		.4byte	.LLST307
 12967 3159 34       		.uleb128 0x34
 12968 315a 18030000 		.4byte	.Ldebug_ranges0+0x318
 12969 315e 35       		.uleb128 0x35
 12970 315f 9C0D0000 		.4byte	0xd9c
 12971 3163 35       		.uleb128 0x35
 12972 3164 A80D0000 		.4byte	0xda8
 12973 3168 32       		.uleb128 0x32
 12974 3169 5C000000 		.4byte	.LVL844
 12975 316d 461C0000 		.4byte	0x1c46
 12976 3171 31       		.uleb128 0x31
 12977 3172 01       		.uleb128 0x1
 12978 3173 51       		.byte	0x51
 12979 3174 02       		.uleb128 0x2
 12980 3175 75       		.byte	0x75
 12981 3176 00       		.sleb128 0
 12982 3177 00       		.byte	0
 12983 3178 00       		.byte	0
 12984 3179 00       		.byte	0
 12985 317a 33       		.uleb128 0x33
 12986 317b 280B0000 		.4byte	0xb28
 12987 317f 7C000000 		.4byte	.LBB394
 12988 3183 30030000 		.4byte	.Ldebug_ranges0+0x330
 12989 3187 01       		.byte	0x1
 12990 3188 D00D     		.2byte	0xdd0
 12991 318a B8310000 		.4byte	0x31b8
 12992 318e 2E       		.uleb128 0x2e
 12993 318f 390B0000 		.4byte	0xb39
 12994 3193 233D0000 		.4byte	.LLST308
 12995 3197 34       		.uleb128 0x34
 12996 3198 30030000 		.4byte	.Ldebug_ranges0+0x330
 12997 319c 35       		.uleb128 0x35
 12998 319d 440B0000 		.4byte	0xb44
 12999 31a1 35       		.uleb128 0x35
 13000 31a2 500B0000 		.4byte	0xb50
 13001 31a6 32       		.uleb128 0x32
 13002 31a7 FC010000 		.4byte	.LVL890
 13003 31ab 800F0000 		.4byte	0xf80
ARM GAS  /tmp/ccZHgRNF.s 			page 230


 13004 31af 31       		.uleb128 0x31
 13005 31b0 01       		.uleb128 0x1
 13006 31b1 50       		.byte	0x50
 13007 31b2 02       		.uleb128 0x2
 13008 31b3 76       		.byte	0x76
 13009 31b4 00       		.sleb128 0
 13010 31b5 00       		.byte	0
 13011 31b6 00       		.byte	0
 13012 31b7 00       		.byte	0
 13013 31b8 33       		.uleb128 0x33
 13014 31b9 F70B0000 		.4byte	0xbf7
 13015 31bd 84000000 		.4byte	.LBB397
 13016 31c1 48030000 		.4byte	.Ldebug_ranges0+0x348
 13017 31c5 01       		.byte	0x1
 13018 31c6 D20D     		.2byte	0xdd2
 13019 31c8 DF310000 		.4byte	0x31df
 13020 31cc 2E       		.uleb128 0x2e
 13021 31cd 130C0000 		.4byte	0xc13
 13022 31d1 413D0000 		.4byte	.LLST309
 13023 31d5 2E       		.uleb128 0x2e
 13024 31d6 080C0000 		.4byte	0xc08
 13025 31da 6C3D0000 		.4byte	.LLST310
 13026 31de 00       		.byte	0
 13027 31df 36       		.uleb128 0x36
 13028 31e0 340A0000 		.4byte	0xa34
 13029 31e4 9E000000 		.4byte	.LBB401
 13030 31e8 16000000 		.4byte	.LBE401-.LBB401
 13031 31ec 01       		.byte	0x1
 13032 31ed D40D     		.2byte	0xdd4
 13033 31ef 22320000 		.4byte	0x3222
 13034 31f3 2E       		.uleb128 0x2e
 13035 31f4 590A0000 		.4byte	0xa59
 13036 31f8 983D0000 		.4byte	.LLST311
 13037 31fc 2E       		.uleb128 0x2e
 13038 31fd 4D0A0000 		.4byte	0xa4d
 13039 3201 AE3D0000 		.4byte	.LLST312
 13040 3205 2E       		.uleb128 0x2e
 13041 3206 410A0000 		.4byte	0xa41
 13042 320a C23D0000 		.4byte	.LLST313
 13043 320e 2D       		.uleb128 0x2d
 13044 320f 9E000000 		.4byte	.LBB402
 13045 3213 16000000 		.4byte	.LBE402-.LBB402
 13046 3217 2C       		.uleb128 0x2c
 13047 3218 650A0000 		.4byte	0xa65
 13048 321c EE3D0000 		.4byte	.LLST314
 13049 3220 00       		.byte	0
 13050 3221 00       		.byte	0
 13051 3222 36       		.uleb128 0x36
 13052 3223 340A0000 		.4byte	0xa34
 13053 3227 B4000000 		.4byte	.LBB403
 13054 322b 0A000000 		.4byte	.LBE403-.LBB403
 13055 322f 01       		.byte	0x1
 13056 3230 D50D     		.2byte	0xdd5
 13057 3232 59320000 		.4byte	0x3259
 13058 3236 3E       		.uleb128 0x3e
 13059 3237 590A0000 		.4byte	0xa59
 13060 323b 3E       		.uleb128 0x3e
ARM GAS  /tmp/ccZHgRNF.s 			page 231


 13061 323c 4D0A0000 		.4byte	0xa4d
 13062 3240 3E       		.uleb128 0x3e
 13063 3241 410A0000 		.4byte	0xa41
 13064 3245 2D       		.uleb128 0x2d
 13065 3246 B4000000 		.4byte	.LBB404
 13066 324a 0A000000 		.4byte	.LBE404-.LBB404
 13067 324e 2C       		.uleb128 0x2c
 13068 324f 650A0000 		.4byte	0xa65
 13069 3253 0C3E0000 		.4byte	.LLST315
 13070 3257 00       		.byte	0
 13071 3258 00       		.byte	0
 13072 3259 33       		.uleb128 0x33
 13073 325a B50D0000 		.4byte	0xdb5
 13074 325e BE000000 		.4byte	.LBB405
 13075 3262 60030000 		.4byte	.Ldebug_ranges0+0x360
 13076 3266 01       		.byte	0x1
 13077 3267 D90D     		.2byte	0xdd9
 13078 3269 80320000 		.4byte	0x3280
 13079 326d 2E       		.uleb128 0x2e
 13080 326e CE0D0000 		.4byte	0xdce
 13081 3272 1F3E0000 		.4byte	.LLST316
 13082 3276 2E       		.uleb128 0x2e
 13083 3277 C20D0000 		.4byte	0xdc2
 13084 327b 323E0000 		.4byte	.LLST317
 13085 327f 00       		.byte	0
 13086 3280 36       		.uleb128 0x36
 13087 3281 050D0000 		.4byte	0xd05
 13088 3285 32010000 		.4byte	.LBB415
 13089 3289 08000000 		.4byte	.LBE415-.LBB415
 13090 328d 01       		.byte	0x1
 13091 328e DA0D     		.2byte	0xdda
 13092 3290 CC320000 		.4byte	0x32cc
 13093 3294 2E       		.uleb128 0x2e
 13094 3295 2A0D0000 		.4byte	0xd2a
 13095 3299 5E3E0000 		.4byte	.LLST318
 13096 329d 2E       		.uleb128 0x2e
 13097 329e 1E0D0000 		.4byte	0xd1e
 13098 32a2 723E0000 		.4byte	.LLST319
 13099 32a6 2E       		.uleb128 0x2e
 13100 32a7 120D0000 		.4byte	0xd12
 13101 32ab 9E3E0000 		.4byte	.LLST320
 13102 32af 2D       		.uleb128 0x2d
 13103 32b0 32010000 		.4byte	.LBB416
 13104 32b4 08000000 		.4byte	.LBE416-.LBB416
 13105 32b8 2C       		.uleb128 0x2c
 13106 32b9 360D0000 		.4byte	0xd36
 13107 32bd DB3E0000 		.4byte	.LLST321
 13108 32c1 2C       		.uleb128 0x2c
 13109 32c2 400D0000 		.4byte	0xd40
 13110 32c6 EE3E0000 		.4byte	.LLST322
 13111 32ca 00       		.byte	0
 13112 32cb 00       		.byte	0
 13113 32cc 36       		.uleb128 0x36
 13114 32cd B50D0000 		.4byte	0xdb5
 13115 32d1 5A010000 		.4byte	.LBB417
 13116 32d5 10000000 		.4byte	.LBE417-.LBB417
 13117 32d9 01       		.byte	0x1
ARM GAS  /tmp/ccZHgRNF.s 			page 232


 13118 32da DE0D     		.2byte	0xdde
 13119 32dc EF320000 		.4byte	0x32ef
 13120 32e0 3E       		.uleb128 0x3e
 13121 32e1 CE0D0000 		.4byte	0xdce
 13122 32e5 2E       		.uleb128 0x2e
 13123 32e6 C20D0000 		.4byte	0xdc2
 13124 32ea 013F0000 		.4byte	.LLST323
 13125 32ee 00       		.byte	0
 13126 32ef 33       		.uleb128 0x33
 13127 32f0 340A0000 		.4byte	0xa34
 13128 32f4 78010000 		.4byte	.LBB419
 13129 32f8 90030000 		.4byte	.Ldebug_ranges0+0x390
 13130 32fc 01       		.byte	0x1
 13131 32fd E40D     		.2byte	0xde4
 13132 32ff 26330000 		.4byte	0x3326
 13133 3303 2E       		.uleb128 0x2e
 13134 3304 590A0000 		.4byte	0xa59
 13135 3308 253F0000 		.4byte	.LLST324
 13136 330c 3E       		.uleb128 0x3e
 13137 330d 4D0A0000 		.4byte	0xa4d
 13138 3311 3E       		.uleb128 0x3e
 13139 3312 410A0000 		.4byte	0xa41
 13140 3316 34       		.uleb128 0x34
 13141 3317 90030000 		.4byte	.Ldebug_ranges0+0x390
 13142 331b 2C       		.uleb128 0x2c
 13143 331c 650A0000 		.4byte	0xa65
 13144 3320 3B3F0000 		.4byte	.LLST325
 13145 3324 00       		.byte	0
 13146 3325 00       		.byte	0
 13147 3326 36       		.uleb128 0x36
 13148 3327 280B0000 		.4byte	0xb28
 13149 332b 84010000 		.4byte	.LBB422
 13150 332f 04000000 		.4byte	.LBE422-.LBB422
 13151 3333 01       		.byte	0x1
 13152 3334 E20D     		.2byte	0xde2
 13153 3336 61330000 		.4byte	0x3361
 13154 333a 2E       		.uleb128 0x2e
 13155 333b 390B0000 		.4byte	0xb39
 13156 333f 593F0000 		.4byte	.LLST326
 13157 3343 2D       		.uleb128 0x2d
 13158 3344 84010000 		.4byte	.LBB423
 13159 3348 04000000 		.4byte	.LBE423-.LBB423
 13160 334c 35       		.uleb128 0x35
 13161 334d 440B0000 		.4byte	0xb44
 13162 3351 35       		.uleb128 0x35
 13163 3352 500B0000 		.4byte	0xb50
 13164 3356 29       		.uleb128 0x29
 13165 3357 88010000 		.4byte	.LVL872
 13166 335b 800F0000 		.4byte	0xf80
 13167 335f 00       		.byte	0
 13168 3360 00       		.byte	0
 13169 3361 33       		.uleb128 0x33
 13170 3362 B50D0000 		.4byte	0xdb5
 13171 3366 BE010000 		.4byte	.LBB425
 13172 336a A8030000 		.4byte	.Ldebug_ranges0+0x3a8
 13173 336e 01       		.byte	0x1
 13174 336f EE0D     		.2byte	0xdee
ARM GAS  /tmp/ccZHgRNF.s 			page 233


 13175 3371 88330000 		.4byte	0x3388
 13176 3375 2E       		.uleb128 0x2e
 13177 3376 CE0D0000 		.4byte	0xdce
 13178 337a 6C3F0000 		.4byte	.LLST327
 13179 337e 2E       		.uleb128 0x2e
 13180 337f C20D0000 		.4byte	0xdc2
 13181 3383 7F3F0000 		.4byte	.LLST328
 13182 3387 00       		.byte	0
 13183 3388 29       		.uleb128 0x29
 13184 3389 0C000000 		.4byte	.LVL830
 13185 338d 37390000 		.4byte	0x3937
 13186 3391 30       		.uleb128 0x30
 13187 3392 18000000 		.4byte	.LVL834
 13188 3396 B1110000 		.4byte	0x11b1
 13189 339a B2330000 		.4byte	0x33b2
 13190 339e 31       		.uleb128 0x31
 13191 339f 01       		.uleb128 0x1
 13192 33a0 52       		.byte	0x52
 13193 33a1 01       		.uleb128 0x1
 13194 33a2 31       		.byte	0x31
 13195 33a3 31       		.uleb128 0x31
 13196 33a4 01       		.uleb128 0x1
 13197 33a5 51       		.byte	0x51
 13198 33a6 03       		.uleb128 0x3
 13199 33a7 91       		.byte	0x91
 13200 33a8 AC7F     		.sleb128 -84
 13201 33aa 31       		.uleb128 0x31
 13202 33ab 01       		.uleb128 0x1
 13203 33ac 50       		.byte	0x50
 13204 33ad 03       		.uleb128 0x3
 13205 33ae 91       		.byte	0x91
 13206 33af BC7F     		.sleb128 -68
 13207 33b1 00       		.byte	0
 13208 33b2 30       		.uleb128 0x30
 13209 33b3 32000000 		.4byte	.LVL839
 13210 33b7 EF190000 		.4byte	0x19ef
 13211 33bb C7330000 		.4byte	0x33c7
 13212 33bf 31       		.uleb128 0x31
 13213 33c0 01       		.uleb128 0x1
 13214 33c1 50       		.byte	0x50
 13215 33c2 03       		.uleb128 0x3
 13216 33c3 91       		.byte	0x91
 13217 33c4 BC7F     		.sleb128 -68
 13218 33c6 00       		.byte	0
 13219 33c7 30       		.uleb128 0x30
 13220 33c8 42000000 		.4byte	.LVL841
 13221 33cc 0B160000 		.4byte	0x160b
 13222 33d0 DB330000 		.4byte	0x33db
 13223 33d4 31       		.uleb128 0x31
 13224 33d5 01       		.uleb128 0x1
 13225 33d6 51       		.byte	0x51
 13226 33d7 02       		.uleb128 0x2
 13227 33d8 74       		.byte	0x74
 13228 33d9 00       		.sleb128 0
 13229 33da 00       		.byte	0
 13230 33db 30       		.uleb128 0x30
 13231 33dc A8010000 		.4byte	.LVL879
ARM GAS  /tmp/ccZHgRNF.s 			page 234


 13232 33e0 4B0D0000 		.4byte	0xd4b
 13233 33e4 F0330000 		.4byte	0x33f0
 13234 33e8 31       		.uleb128 0x31
 13235 33e9 01       		.uleb128 0x1
 13236 33ea 50       		.byte	0x50
 13237 33eb 03       		.uleb128 0x3
 13238 33ec 91       		.byte	0x91
 13239 33ed BC7F     		.sleb128 -68
 13240 33ef 00       		.byte	0
 13241 33f0 29       		.uleb128 0x29
 13242 33f1 E2010000 		.4byte	.LVL884
 13243 33f5 E70F0000 		.4byte	0xfe7
 13244 33f9 00       		.byte	0
 13245 33fa 42       		.uleb128 0x42
 13246 33fb 4D090000 		.4byte	.LASF235
 13247 33ff 01       		.byte	0x1
 13248 3400 000E     		.2byte	0xe00
 13249 3402 55090000 		.4byte	0x955
 13250 3406 00000000 		.4byte	.LFB284
 13251 340a 54000000 		.4byte	.LFE284-.LFB284
 13252 340e 01       		.uleb128 0x1
 13253 340f 9C       		.byte	0x9c
 13254 3410 BE340000 		.4byte	0x34be
 13255 3414 26       		.uleb128 0x26
 13256 3415 67000000 		.4byte	.LASF170
 13257 3419 01       		.byte	0x1
 13258 341a 010E     		.2byte	0xe01
 13259 341c 1D0B0000 		.4byte	0xb1d
 13260 3420 923F0000 		.4byte	.LLST329
 13261 3424 26       		.uleb128 0x26
 13262 3425 0D030000 		.4byte	.LASF236
 13263 3429 01       		.byte	0x1
 13264 342a 020E     		.2byte	0xe02
 13265 342c 25000000 		.4byte	0x25
 13266 3430 C93F0000 		.4byte	.LLST330
 13267 3434 26       		.uleb128 0x26
 13268 3435 2F060000 		.4byte	.LASF237
 13269 3439 01       		.byte	0x1
 13270 343a 030E     		.2byte	0xe03
 13271 343c 25000000 		.4byte	0x25
 13272 3440 EA3F0000 		.4byte	.LLST331
 13273 3444 27       		.uleb128 0x27
 13274 3445 72657300 		.ascii	"res\000"
 13275 3449 01       		.byte	0x1
 13276 344a 060E     		.2byte	0xe06
 13277 344c 55090000 		.4byte	0x955
 13278 3450 24400000 		.4byte	.LLST332
 13279 3454 3B       		.uleb128 0x3b
 13280 3455 646A00   		.ascii	"dj\000"
 13281 3458 01       		.byte	0x1
 13282 3459 070E     		.2byte	0xe07
 13283 345b 69080000 		.4byte	0x869
 13284 345f 02       		.uleb128 0x2
 13285 3460 91       		.byte	0x91
 13286 3461 54       		.sleb128 -44
 13287 3462 27       		.uleb128 0x27
 13288 3463 64697200 		.ascii	"dir\000"
ARM GAS  /tmp/ccZHgRNF.s 			page 235


 13289 3467 01       		.byte	0x1
 13290 3468 080E     		.2byte	0xe08
 13291 346a F2070000 		.4byte	0x7f2
 13292 346e 4D400000 		.4byte	.LLST333
 13293 3472 3B       		.uleb128 0x3b
 13294 3473 73666E00 		.ascii	"sfn\000"
 13295 3477 01       		.byte	0x1
 13296 3478 090E     		.2byte	0xe09
 13297 347a 1C220000 		.4byte	0x221c
 13298 347e 02       		.uleb128 0x2
 13299 347f 91       		.byte	0x91
 13300 3480 48       		.sleb128 -56
 13301 3481 30       		.uleb128 0x30
 13302 3482 14000000 		.4byte	.LVL896
 13303 3486 B1110000 		.4byte	0x11b1
 13304 348a A0340000 		.4byte	0x34a0
 13305 348e 31       		.uleb128 0x31
 13306 348f 01       		.uleb128 0x1
 13307 3490 52       		.byte	0x52
 13308 3491 01       		.uleb128 0x1
 13309 3492 31       		.byte	0x31
 13310 3493 31       		.uleb128 0x31
 13311 3494 01       		.uleb128 0x1
 13312 3495 51       		.byte	0x51
 13313 3496 02       		.uleb128 0x2
 13314 3497 91       		.byte	0x91
 13315 3498 44       		.sleb128 -60
 13316 3499 31       		.uleb128 0x31
 13317 349a 01       		.uleb128 0x1
 13318 349b 50       		.byte	0x50
 13319 349c 02       		.uleb128 0x2
 13320 349d 91       		.byte	0x91
 13321 349e 54       		.sleb128 -44
 13322 349f 00       		.byte	0
 13323 34a0 30       		.uleb128 0x30
 13324 34a1 26000000 		.4byte	.LVL899
 13325 34a5 EF190000 		.4byte	0x19ef
 13326 34a9 B4340000 		.4byte	0x34b4
 13327 34ad 31       		.uleb128 0x31
 13328 34ae 01       		.uleb128 0x1
 13329 34af 50       		.byte	0x50
 13330 34b0 02       		.uleb128 0x2
 13331 34b1 91       		.byte	0x91
 13332 34b2 54       		.sleb128 -44
 13333 34b3 00       		.byte	0
 13334 34b4 29       		.uleb128 0x29
 13335 34b5 4A000000 		.4byte	.LVL904
 13336 34b9 E70F0000 		.4byte	0xfe7
 13337 34bd 00       		.byte	0
 13338 34be 42       		.uleb128 0x42
 13339 34bf EC020000 		.4byte	.LASF238
 13340 34c3 01       		.byte	0x1
 13341 34c4 2B0E     		.2byte	0xe2b
 13342 34c6 55090000 		.4byte	0x955
 13343 34ca 00000000 		.4byte	.LFB285
 13344 34ce 56000000 		.4byte	.LFE285-.LFB285
 13345 34d2 01       		.uleb128 0x1
ARM GAS  /tmp/ccZHgRNF.s 			page 236


 13346 34d3 9C       		.byte	0x9c
 13347 34d4 72350000 		.4byte	0x3572
 13348 34d8 26       		.uleb128 0x26
 13349 34d9 67000000 		.4byte	.LASF170
 13350 34dd 01       		.byte	0x1
 13351 34de 2C0E     		.2byte	0xe2c
 13352 34e0 1D0B0000 		.4byte	0xb1d
 13353 34e4 6B400000 		.4byte	.LLST334
 13354 34e8 28       		.uleb128 0x28
 13355 34e9 666E6F00 		.ascii	"fno\000"
 13356 34ed 01       		.byte	0x1
 13357 34ee 2D0E     		.2byte	0xe2d
 13358 34f0 72350000 		.4byte	0x3572
 13359 34f4 96400000 		.4byte	.LLST335
 13360 34f8 27       		.uleb128 0x27
 13361 34f9 72657300 		.ascii	"res\000"
 13362 34fd 01       		.byte	0x1
 13363 34fe 300E     		.2byte	0xe30
 13364 3500 55090000 		.4byte	0x955
 13365 3504 B4400000 		.4byte	.LLST336
 13366 3508 3B       		.uleb128 0x3b
 13367 3509 646A00   		.ascii	"dj\000"
 13368 350c 01       		.byte	0x1
 13369 350d 310E     		.2byte	0xe31
 13370 350f 69080000 		.4byte	0x869
 13371 3513 02       		.uleb128 0x2
 13372 3514 91       		.byte	0x91
 13373 3515 5C       		.sleb128 -36
 13374 3516 27       		.uleb128 0x27
 13375 3517 64697200 		.ascii	"dir\000"
 13376 351b 01       		.byte	0x1
 13377 351c 320E     		.2byte	0xe32
 13378 351e F2070000 		.4byte	0x7f2
 13379 3522 DD400000 		.4byte	.LLST337
 13380 3526 3B       		.uleb128 0x3b
 13381 3527 73666E00 		.ascii	"sfn\000"
 13382 352b 01       		.byte	0x1
 13383 352c 330E     		.2byte	0xe33
 13384 352e 1C220000 		.4byte	0x221c
 13385 3532 02       		.uleb128 0x2
 13386 3533 91       		.byte	0x91
 13387 3534 50       		.sleb128 -48
 13388 3535 30       		.uleb128 0x30
 13389 3536 12000000 		.4byte	.LVL910
 13390 353a B1110000 		.4byte	0x11b1
 13391 353e 54350000 		.4byte	0x3554
 13392 3542 31       		.uleb128 0x31
 13393 3543 01       		.uleb128 0x1
 13394 3544 52       		.byte	0x52
 13395 3545 01       		.uleb128 0x1
 13396 3546 31       		.byte	0x31
 13397 3547 31       		.uleb128 0x31
 13398 3548 01       		.uleb128 0x1
 13399 3549 51       		.byte	0x51
 13400 354a 02       		.uleb128 0x2
 13401 354b 91       		.byte	0x91
 13402 354c 4C       		.sleb128 -52
ARM GAS  /tmp/ccZHgRNF.s 			page 237


 13403 354d 31       		.uleb128 0x31
 13404 354e 01       		.uleb128 0x1
 13405 354f 50       		.byte	0x50
 13406 3550 02       		.uleb128 0x2
 13407 3551 91       		.byte	0x91
 13408 3552 5C       		.sleb128 -36
 13409 3553 00       		.byte	0
 13410 3554 30       		.uleb128 0x30
 13411 3555 24000000 		.4byte	.LVL913
 13412 3559 EF190000 		.4byte	0x19ef
 13413 355d 68350000 		.4byte	0x3568
 13414 3561 31       		.uleb128 0x31
 13415 3562 01       		.uleb128 0x1
 13416 3563 50       		.byte	0x50
 13417 3564 02       		.uleb128 0x2
 13418 3565 91       		.byte	0x91
 13419 3566 5C       		.sleb128 -36
 13420 3567 00       		.byte	0
 13421 3568 29       		.uleb128 0x29
 13422 3569 4C000000 		.4byte	.LVL916
 13423 356d E70F0000 		.4byte	0xfe7
 13424 3571 00       		.byte	0
 13425 3572 09       		.uleb128 0x9
 13426 3573 04       		.byte	0x4
 13427 3574 78350000 		.4byte	0x3578
 13428 3578 13       		.uleb128 0x13
 13429 3579 C9080000 		.4byte	0x8c9
 13430 357d 42       		.uleb128 0x42
 13431 357e 45080000 		.4byte	.LASF239
 13432 3582 01       		.byte	0x1
 13433 3583 550E     		.2byte	0xe55
 13434 3585 55090000 		.4byte	0x955
 13435 3589 00000000 		.4byte	.LFB286
 13436 358d 44010000 		.4byte	.LFE286-.LFB286
 13437 3591 01       		.uleb128 0x1
 13438 3592 9C       		.byte	0x9c
 13439 3593 1F380000 		.4byte	0x381f
 13440 3597 26       		.uleb128 0x26
 13441 3598 FD080000 		.4byte	.LASF240
 13442 359c 01       		.byte	0x1
 13443 359d 560E     		.2byte	0xe56
 13444 359f 1D0B0000 		.4byte	0xb1d
 13445 35a3 FB400000 		.4byte	.LLST338
 13446 35a7 26       		.uleb128 0x26
 13447 35a8 31040000 		.4byte	.LASF241
 13448 35ac 01       		.byte	0x1
 13449 35ad 570E     		.2byte	0xe57
 13450 35af 1D0B0000 		.4byte	0xb1d
 13451 35b3 34410000 		.4byte	.LLST339
 13452 35b7 27       		.uleb128 0x27
 13453 35b8 72657300 		.ascii	"res\000"
 13454 35bc 01       		.byte	0x1
 13455 35bd 5A0E     		.2byte	0xe5a
 13456 35bf 55090000 		.4byte	0x955
 13457 35c3 6C410000 		.4byte	.LLST340
 13458 35c7 3B       		.uleb128 0x3b
 13459 35c8 646A6F00 		.ascii	"djo\000"
ARM GAS  /tmp/ccZHgRNF.s 			page 238


 13460 35cc 01       		.byte	0x1
 13461 35cd 5B0E     		.2byte	0xe5b
 13462 35cf 69080000 		.4byte	0x869
 13463 35d3 03       		.uleb128 0x3
 13464 35d4 91       		.byte	0x91
 13465 35d5 B87F     		.sleb128 -72
 13466 35d7 3B       		.uleb128 0x3b
 13467 35d8 646A6E00 		.ascii	"djn\000"
 13468 35dc 01       		.byte	0x1
 13469 35dd 5B0E     		.2byte	0xe5b
 13470 35df 69080000 		.4byte	0x869
 13471 35e3 02       		.uleb128 0x2
 13472 35e4 91       		.byte	0x91
 13473 35e5 54       		.sleb128 -44
 13474 35e6 3B       		.uleb128 0x3b
 13475 35e7 62756600 		.ascii	"buf\000"
 13476 35eb 01       		.byte	0x1
 13477 35ec 5C0E     		.2byte	0xe5c
 13478 35ee 1F380000 		.4byte	0x381f
 13479 35f2 03       		.uleb128 0x3
 13480 35f3 91       		.byte	0x91
 13481 35f4 A07F     		.sleb128 -96
 13482 35f6 27       		.uleb128 0x27
 13483 35f7 64697200 		.ascii	"dir\000"
 13484 35fb 01       		.byte	0x1
 13485 35fc 5C0E     		.2byte	0xe5c
 13486 35fe F2070000 		.4byte	0x7f2
 13487 3602 10420000 		.4byte	.LLST341
 13488 3606 27       		.uleb128 0x27
 13489 3607 647700   		.ascii	"dw\000"
 13490 360a 01       		.byte	0x1
 13491 360b 5D0E     		.2byte	0xe5d
 13492 360d 70000000 		.4byte	0x70
 13493 3611 4A420000 		.4byte	.LLST342
 13494 3615 3B       		.uleb128 0x3b
 13495 3616 73666E00 		.ascii	"sfn\000"
 13496 361a 01       		.byte	0x1
 13497 361b 5E0E     		.2byte	0xe5e
 13498 361d 1C220000 		.4byte	0x221c
 13499 3621 03       		.uleb128 0x3
 13500 3622 91       		.byte	0x91
 13501 3623 947F     		.sleb128 -108
 13502 3625 36       		.uleb128 0x36
 13503 3626 050D0000 		.4byte	0xd05
 13504 362a 32000000 		.4byte	.LBB434
 13505 362e 16000000 		.4byte	.LBE434-.LBB434
 13506 3632 01       		.byte	0x1
 13507 3633 700E     		.2byte	0xe70
 13508 3635 71360000 		.4byte	0x3671
 13509 3639 2E       		.uleb128 0x2e
 13510 363a 2A0D0000 		.4byte	0xd2a
 13511 363e 5D420000 		.4byte	.LLST343
 13512 3642 2E       		.uleb128 0x2e
 13513 3643 1E0D0000 		.4byte	0xd1e
 13514 3647 AA420000 		.4byte	.LLST344
 13515 364b 2E       		.uleb128 0x2e
 13516 364c 120D0000 		.4byte	0xd12
ARM GAS  /tmp/ccZHgRNF.s 			page 239


 13517 3650 CD420000 		.4byte	.LLST345
 13518 3654 2D       		.uleb128 0x2d
 13519 3655 32000000 		.4byte	.LBB435
 13520 3659 16000000 		.4byte	.LBE435-.LBB435
 13521 365d 2C       		.uleb128 0x2c
 13522 365e 360D0000 		.4byte	0xd36
 13523 3662 0A430000 		.4byte	.LLST346
 13524 3666 2C       		.uleb128 0x2c
 13525 3667 400D0000 		.4byte	0xd40
 13526 366b 2B430000 		.4byte	.LLST347
 13527 366f 00       		.byte	0
 13528 3670 00       		.byte	0
 13529 3671 36       		.uleb128 0x36
 13530 3672 050D0000 		.4byte	0xd05
 13531 3676 48000000 		.4byte	.LBB436
 13532 367a 0E000000 		.4byte	.LBE436-.LBB436
 13533 367e 01       		.byte	0x1
 13534 367f 710E     		.2byte	0xe71
 13535 3681 B9360000 		.4byte	0x36b9
 13536 3685 2E       		.uleb128 0x2e
 13537 3686 2A0D0000 		.4byte	0xd2a
 13538 368a 56430000 		.4byte	.LLST348
 13539 368e 2B       		.uleb128 0x2b
 13540 368f 1E0D0000 		.4byte	0xd1e
 13541 3693 01       		.uleb128 0x1
 13542 3694 52       		.byte	0x52
 13543 3695 2B       		.uleb128 0x2b
 13544 3696 120D0000 		.4byte	0xd12
 13545 369a 01       		.uleb128 0x1
 13546 369b 53       		.byte	0x53
 13547 369c 2D       		.uleb128 0x2d
 13548 369d 48000000 		.4byte	.LBB437
 13549 36a1 0E000000 		.4byte	.LBE437-.LBB437
 13550 36a5 2C       		.uleb128 0x2c
 13551 36a6 360D0000 		.4byte	0xd36
 13552 36aa 97430000 		.4byte	.LLST349
 13553 36ae 2C       		.uleb128 0x2c
 13554 36af 400D0000 		.4byte	0xd40
 13555 36b3 AA430000 		.4byte	.LLST350
 13556 36b7 00       		.byte	0
 13557 36b8 00       		.byte	0
 13558 36b9 33       		.uleb128 0x33
 13559 36ba 050D0000 		.4byte	0xd05
 13560 36be 86000000 		.4byte	.LBB438
 13561 36c2 D0030000 		.4byte	.Ldebug_ranges0+0x3d0
 13562 36c6 01       		.byte	0x1
 13563 36c7 7C0E     		.2byte	0xe7c
 13564 36c9 01370000 		.4byte	0x3701
 13565 36cd 2E       		.uleb128 0x2e
 13566 36ce 2A0D0000 		.4byte	0xd2a
 13567 36d2 D5430000 		.4byte	.LLST351
 13568 36d6 2E       		.uleb128 0x2e
 13569 36d7 1E0D0000 		.4byte	0xd1e
 13570 36db 22440000 		.4byte	.LLST352
 13571 36df 2E       		.uleb128 0x2e
 13572 36e0 120D0000 		.4byte	0xd12
 13573 36e4 43440000 		.4byte	.LLST353
ARM GAS  /tmp/ccZHgRNF.s 			page 240


 13574 36e8 34       		.uleb128 0x34
 13575 36e9 D0030000 		.4byte	.Ldebug_ranges0+0x3d0
 13576 36ed 2C       		.uleb128 0x2c
 13577 36ee 360D0000 		.4byte	0xd36
 13578 36f2 7D440000 		.4byte	.LLST354
 13579 36f6 2C       		.uleb128 0x2c
 13580 36f7 400D0000 		.4byte	0xd40
 13581 36fb 90440000 		.4byte	.LLST355
 13582 36ff 00       		.byte	0
 13583 3700 00       		.byte	0
 13584 3701 33       		.uleb128 0x33
 13585 3702 9D090000 		.4byte	0x99d
 13586 3706 BC000000 		.4byte	.LBB442
 13587 370a E8030000 		.4byte	.Ldebug_ranges0+0x3e8
 13588 370e 01       		.byte	0x1
 13589 370f 800E     		.2byte	0xe80
 13590 3711 37370000 		.4byte	0x3737
 13591 3715 2E       		.uleb128 0x2e
 13592 3716 AE090000 		.4byte	0x9ae
 13593 371a BB440000 		.4byte	.LLST356
 13594 371e 2E       		.uleb128 0x2e
 13595 371f B9090000 		.4byte	0x9b9
 13596 3723 F1440000 		.4byte	.LLST357
 13597 3727 34       		.uleb128 0x34
 13598 3728 E8030000 		.4byte	.Ldebug_ranges0+0x3e8
 13599 372c 2C       		.uleb128 0x2c
 13600 372d C5090000 		.4byte	0x9c5
 13601 3731 1A450000 		.4byte	.LLST358
 13602 3735 00       		.byte	0
 13603 3736 00       		.byte	0
 13604 3737 36       		.uleb128 0x36
 13605 3738 F70B0000 		.4byte	0xbf7
 13606 373c CA000000 		.4byte	.LBB445
 13607 3740 12000000 		.4byte	.LBE445-.LBB445
 13608 3744 01       		.byte	0x1
 13609 3745 800E     		.2byte	0xe80
 13610 3747 5E370000 		.4byte	0x375e
 13611 374b 2E       		.uleb128 0x2e
 13612 374c 130C0000 		.4byte	0xc13
 13613 3750 52450000 		.4byte	.LLST359
 13614 3754 2E       		.uleb128 0x2e
 13615 3755 080C0000 		.4byte	0xc08
 13616 3759 70450000 		.4byte	.LLST360
 13617 375d 00       		.byte	0
 13618 375e 33       		.uleb128 0x33
 13619 375f B50D0000 		.4byte	0xdb5
 13620 3763 1E010000 		.4byte	.LBB448
 13621 3767 00040000 		.4byte	.Ldebug_ranges0+0x400
 13622 376b 01       		.byte	0x1
 13623 376c 880E     		.2byte	0xe88
 13624 376e 85370000 		.4byte	0x3785
 13625 3772 2E       		.uleb128 0x2e
 13626 3773 CE0D0000 		.4byte	0xdce
 13627 3777 4A420000 		.4byte	.LLST342
 13628 377b 2E       		.uleb128 0x2e
 13629 377c C20D0000 		.4byte	0xdc2
 13630 3780 9B450000 		.4byte	.LLST362
ARM GAS  /tmp/ccZHgRNF.s 			page 241


 13631 3784 00       		.byte	0
 13632 3785 30       		.uleb128 0x30
 13633 3786 12000000 		.4byte	.LVL922
 13634 378a B1110000 		.4byte	0x11b1
 13635 378e A6370000 		.4byte	0x37a6
 13636 3792 31       		.uleb128 0x31
 13637 3793 01       		.uleb128 0x1
 13638 3794 52       		.byte	0x52
 13639 3795 01       		.uleb128 0x1
 13640 3796 31       		.byte	0x31
 13641 3797 31       		.uleb128 0x31
 13642 3798 01       		.uleb128 0x1
 13643 3799 51       		.byte	0x51
 13644 379a 03       		.uleb128 0x3
 13645 379b 91       		.byte	0x91
 13646 379c 8C7F     		.sleb128 -116
 13647 379e 31       		.uleb128 0x31
 13648 379f 01       		.uleb128 0x1
 13649 37a0 50       		.byte	0x50
 13650 37a1 03       		.uleb128 0x3
 13651 37a2 91       		.byte	0x91
 13652 37a3 B87F     		.sleb128 -72
 13653 37a5 00       		.byte	0
 13654 37a6 30       		.uleb128 0x30
 13655 37a7 28000000 		.4byte	.LVL927
 13656 37ab EF190000 		.4byte	0x19ef
 13657 37af BB370000 		.4byte	0x37bb
 13658 37b3 31       		.uleb128 0x31
 13659 37b4 01       		.uleb128 0x1
 13660 37b5 50       		.byte	0x50
 13661 37b6 03       		.uleb128 0x3
 13662 37b7 91       		.byte	0x91
 13663 37b8 B87F     		.sleb128 -72
 13664 37ba 00       		.byte	0
 13665 37bb 30       		.uleb128 0x30
 13666 37bc 5C000000 		.4byte	.LVL937
 13667 37c0 6E0E0000 		.4byte	0xe6e
 13668 37c4 CF370000 		.4byte	0x37cf
 13669 37c8 31       		.uleb128 0x31
 13670 37c9 01       		.uleb128 0x1
 13671 37ca 50       		.byte	0x50
 13672 37cb 02       		.uleb128 0x2
 13673 37cc 7D       		.byte	0x7d
 13674 37cd 00       		.sleb128 0
 13675 37ce 00       		.byte	0
 13676 37cf 30       		.uleb128 0x30
 13677 37d0 68000000 		.4byte	.LVL938
 13678 37d4 EF190000 		.4byte	0x19ef
 13679 37d8 E3370000 		.4byte	0x37e3
 13680 37dc 31       		.uleb128 0x31
 13681 37dd 01       		.uleb128 0x1
 13682 37de 50       		.byte	0x50
 13683 37df 02       		.uleb128 0x2
 13684 37e0 91       		.byte	0x91
 13685 37e1 54       		.sleb128 -44
 13686 37e2 00       		.byte	0
 13687 37e3 30       		.uleb128 0x30
ARM GAS  /tmp/ccZHgRNF.s 			page 242


 13688 37e4 80000000 		.4byte	.LVL945
 13689 37e8 4B0D0000 		.4byte	0xd4b
 13690 37ec F7370000 		.4byte	0x37f7
 13691 37f0 31       		.uleb128 0x31
 13692 37f1 01       		.uleb128 0x1
 13693 37f2 50       		.byte	0x50
 13694 37f3 02       		.uleb128 0x2
 13695 37f4 91       		.byte	0x91
 13696 37f5 54       		.sleb128 -44
 13697 37f6 00       		.byte	0
 13698 37f7 29       		.uleb128 0x29
 13699 37f8 E2000000 		.4byte	.LVL957
 13700 37fc 5C0B0000 		.4byte	0xb5c
 13701 3800 30       		.uleb128 0x30
 13702 3801 F6000000 		.4byte	.LVL960
 13703 3805 200C0000 		.4byte	0xc20
 13704 3809 15380000 		.4byte	0x3815
 13705 380d 31       		.uleb128 0x31
 13706 380e 01       		.uleb128 0x1
 13707 380f 50       		.byte	0x50
 13708 3810 03       		.uleb128 0x3
 13709 3811 91       		.byte	0x91
 13710 3812 B87F     		.sleb128 -72
 13711 3814 00       		.byte	0
 13712 3815 29       		.uleb128 0x29
 13713 3816 00010000 		.4byte	.LVL962
 13714 381a E70F0000 		.4byte	0xfe7
 13715 381e 00       		.byte	0
 13716 381f 15       		.uleb128 0x15
 13717 3820 25000000 		.4byte	0x25
 13718 3824 2F380000 		.4byte	0x382f
 13719 3828 16       		.uleb128 0x16
 13720 3829 66040000 		.4byte	0x466
 13721 382d 14       		.byte	0x14
 13722 382e 00       		.byte	0
 13723 382f 15       		.uleb128 0x15
 13724 3830 EC070000 		.4byte	0x7ec
 13725 3834 3F380000 		.4byte	0x383f
 13726 3838 16       		.uleb128 0x16
 13727 3839 66040000 		.4byte	0x466
 13728 383d 00       		.byte	0
 13729 383e 00       		.byte	0
 13730 383f 45       		.uleb128 0x45
 13731 3840 D8040000 		.4byte	.LASF242
 13732 3844 01       		.byte	0x1
 13733 3845 EC01     		.2byte	0x1ec
 13734 3847 2F380000 		.4byte	0x382f
 13735 384b 05       		.uleb128 0x5
 13736 384c 03       		.byte	0x3
 13737 384d 00000000 		.4byte	FatFs
 13738 3851 45       		.uleb128 0x45
 13739 3852 C9000000 		.4byte	.LASF243
 13740 3856 01       		.byte	0x1
 13741 3857 F201     		.2byte	0x1f2
 13742 3859 3E000000 		.4byte	0x3e
 13743 385d 05       		.uleb128 0x5
 13744 385e 03       		.byte	0x3
ARM GAS  /tmp/ccZHgRNF.s 			page 243


 13745 385f 00000000 		.4byte	Fsid
 13746 3863 15       		.uleb128 0x15
 13747 3864 25000000 		.4byte	0x25
 13748 3868 73380000 		.4byte	0x3873
 13749 386c 16       		.uleb128 0x16
 13750 386d 66040000 		.4byte	0x466
 13751 3871 7F       		.byte	0x7f
 13752 3872 00       		.byte	0
 13753 3873 45       		.uleb128 0x45
 13754 3874 D5090000 		.4byte	.LASF244
 13755 3878 01       		.byte	0x1
 13756 3879 1D02     		.2byte	0x21d
 13757 387b 85380000 		.4byte	0x3885
 13758 387f 05       		.uleb128 0x5
 13759 3880 03       		.byte	0x3
 13760 3881 00000000 		.4byte	ExCvt
 13761 3885 13       		.uleb128 0x13
 13762 3886 63380000 		.4byte	0x3863
 13763 388a 46       		.uleb128 0x46
 13764 388b 34060000 		.4byte	.LASF245
 13765 388f 10       		.byte	0x10
 13766 3890 FA06     		.2byte	0x6fa
 13767 3892 96380000 		.4byte	0x3896
 13768 3896 14       		.uleb128 0x14
 13769 3897 D9000000 		.4byte	0xd9
 13770 389b 47       		.uleb128 0x47
 13771 389c 636800   		.ascii	"ch\000"
 13772 389f 08       		.byte	0x8
 13773 38a0 0B02     		.2byte	0x20b
 13774 38a2 FF030000 		.4byte	0x3ff
 13775 38a6 48       		.uleb128 0x48
 13776 38a7 A1020000 		.4byte	.LASF246
 13777 38ab 0F       		.byte	0xf
 13778 38ac 24       		.byte	0x24
 13779 38ad 60090000 		.4byte	0x960
 13780 38b1 BB380000 		.4byte	0x38bb
 13781 38b5 0C       		.uleb128 0xc
 13782 38b6 25000000 		.4byte	0x25
 13783 38ba 00       		.byte	0
 13784 38bb 48       		.uleb128 0x48
 13785 38bc 4D070000 		.4byte	.LASF247
 13786 38c0 0F       		.byte	0xf
 13787 38c1 26       		.byte	0x26
 13788 38c2 92090000 		.4byte	0x992
 13789 38c6 DF380000 		.4byte	0x38df
 13790 38ca 0C       		.uleb128 0xc
 13791 38cb 25000000 		.4byte	0x25
 13792 38cf 0C       		.uleb128 0xc
 13793 38d0 FA0C0000 		.4byte	0xcfa
 13794 38d4 0C       		.uleb128 0xc
 13795 38d5 70000000 		.4byte	0x70
 13796 38d9 0C       		.uleb128 0xc
 13797 38da 57000000 		.4byte	0x57
 13798 38de 00       		.byte	0
 13799 38df 48       		.uleb128 0x48
 13800 38e0 F4020000 		.4byte	.LASF248
 13801 38e4 0F       		.byte	0xf
ARM GAS  /tmp/ccZHgRNF.s 			page 244


 13802 38e5 27       		.byte	0x27
 13803 38e6 92090000 		.4byte	0x992
 13804 38ea FE380000 		.4byte	0x38fe
 13805 38ee 0C       		.uleb128 0xc
 13806 38ef 25000000 		.4byte	0x25
 13807 38f3 0C       		.uleb128 0xc
 13808 38f4 25000000 		.4byte	0x25
 13809 38f8 0C       		.uleb128 0xc
 13810 38f9 30030000 		.4byte	0x330
 13811 38fd 00       		.byte	0
 13812 38fe 48       		.uleb128 0x48
 13813 38ff D9080000 		.4byte	.LASF249
 13814 3903 0F       		.byte	0xf
 13815 3904 25       		.byte	0x25
 13816 3905 92090000 		.4byte	0x992
 13817 3909 22390000 		.4byte	0x3922
 13818 390d 0C       		.uleb128 0xc
 13819 390e 25000000 		.4byte	0x25
 13820 3912 0C       		.uleb128 0xc
 13821 3913 F2070000 		.4byte	0x7f2
 13822 3917 0C       		.uleb128 0xc
 13823 3918 70000000 		.4byte	0x70
 13824 391c 0C       		.uleb128 0xc
 13825 391d 57000000 		.4byte	0x57
 13826 3921 00       		.byte	0
 13827 3922 48       		.uleb128 0x48
 13828 3923 300A0000 		.4byte	.LASF250
 13829 3927 0F       		.byte	0xf
 13830 3928 23       		.byte	0x23
 13831 3929 60090000 		.4byte	0x960
 13832 392d 37390000 		.4byte	0x3937
 13833 3931 0C       		.uleb128 0xc
 13834 3932 25000000 		.4byte	0x25
 13835 3936 00       		.byte	0
 13836 3937 49       		.uleb128 0x49
 13837 3938 BC020000 		.4byte	.LASF254
 13838 393c 0E       		.byte	0xe
 13839 393d 0001     		.2byte	0x100
 13840 393f 70000000 		.4byte	0x70
 13841 3943 00       		.byte	0
 13842              		.section	.debug_abbrev,"",%progbits
 13843              	.Ldebug_abbrev0:
 13844 0000 01       		.uleb128 0x1
 13845 0001 11       		.uleb128 0x11
 13846 0002 01       		.byte	0x1
 13847 0003 25       		.uleb128 0x25
 13848 0004 0E       		.uleb128 0xe
 13849 0005 13       		.uleb128 0x13
 13850 0006 0B       		.uleb128 0xb
 13851 0007 03       		.uleb128 0x3
 13852 0008 0E       		.uleb128 0xe
 13853 0009 1B       		.uleb128 0x1b
 13854 000a 0E       		.uleb128 0xe
 13855 000b 55       		.uleb128 0x55
 13856 000c 17       		.uleb128 0x17
 13857 000d 11       		.uleb128 0x11
 13858 000e 01       		.uleb128 0x1
ARM GAS  /tmp/ccZHgRNF.s 			page 245


 13859 000f 10       		.uleb128 0x10
 13860 0010 17       		.uleb128 0x17
 13861 0011 00       		.byte	0
 13862 0012 00       		.byte	0
 13863 0013 02       		.uleb128 0x2
 13864 0014 16       		.uleb128 0x16
 13865 0015 00       		.byte	0
 13866 0016 03       		.uleb128 0x3
 13867 0017 0E       		.uleb128 0xe
 13868 0018 3A       		.uleb128 0x3a
 13869 0019 0B       		.uleb128 0xb
 13870 001a 3B       		.uleb128 0x3b
 13871 001b 0B       		.uleb128 0xb
 13872 001c 49       		.uleb128 0x49
 13873 001d 13       		.uleb128 0x13
 13874 001e 00       		.byte	0
 13875 001f 00       		.byte	0
 13876 0020 03       		.uleb128 0x3
 13877 0021 24       		.uleb128 0x24
 13878 0022 00       		.byte	0
 13879 0023 0B       		.uleb128 0xb
 13880 0024 0B       		.uleb128 0xb
 13881 0025 3E       		.uleb128 0x3e
 13882 0026 0B       		.uleb128 0xb
 13883 0027 03       		.uleb128 0x3
 13884 0028 0E       		.uleb128 0xe
 13885 0029 00       		.byte	0
 13886 002a 00       		.byte	0
 13887 002b 04       		.uleb128 0x4
 13888 002c 24       		.uleb128 0x24
 13889 002d 00       		.byte	0
 13890 002e 0B       		.uleb128 0xb
 13891 002f 0B       		.uleb128 0xb
 13892 0030 3E       		.uleb128 0x3e
 13893 0031 0B       		.uleb128 0xb
 13894 0032 03       		.uleb128 0x3
 13895 0033 08       		.uleb128 0x8
 13896 0034 00       		.byte	0
 13897 0035 00       		.byte	0
 13898 0036 05       		.uleb128 0x5
 13899 0037 13       		.uleb128 0x13
 13900 0038 01       		.byte	0x1
 13901 0039 03       		.uleb128 0x3
 13902 003a 0E       		.uleb128 0xe
 13903 003b 0B       		.uleb128 0xb
 13904 003c 0B       		.uleb128 0xb
 13905 003d 3A       		.uleb128 0x3a
 13906 003e 0B       		.uleb128 0xb
 13907 003f 3B       		.uleb128 0x3b
 13908 0040 0B       		.uleb128 0xb
 13909 0041 01       		.uleb128 0x1
 13910 0042 13       		.uleb128 0x13
 13911 0043 00       		.byte	0
 13912 0044 00       		.byte	0
 13913 0045 06       		.uleb128 0x6
 13914 0046 0D       		.uleb128 0xd
 13915 0047 00       		.byte	0
ARM GAS  /tmp/ccZHgRNF.s 			page 246


 13916 0048 03       		.uleb128 0x3
 13917 0049 0E       		.uleb128 0xe
 13918 004a 3A       		.uleb128 0x3a
 13919 004b 0B       		.uleb128 0xb
 13920 004c 3B       		.uleb128 0x3b
 13921 004d 0B       		.uleb128 0xb
 13922 004e 49       		.uleb128 0x49
 13923 004f 13       		.uleb128 0x13
 13924 0050 38       		.uleb128 0x38
 13925 0051 0B       		.uleb128 0xb
 13926 0052 00       		.byte	0
 13927 0053 00       		.byte	0
 13928 0054 07       		.uleb128 0x7
 13929 0055 0D       		.uleb128 0xd
 13930 0056 00       		.byte	0
 13931 0057 03       		.uleb128 0x3
 13932 0058 08       		.uleb128 0x8
 13933 0059 3A       		.uleb128 0x3a
 13934 005a 0B       		.uleb128 0xb
 13935 005b 3B       		.uleb128 0x3b
 13936 005c 05       		.uleb128 0x5
 13937 005d 49       		.uleb128 0x49
 13938 005e 13       		.uleb128 0x13
 13939 005f 38       		.uleb128 0x38
 13940 0060 0B       		.uleb128 0xb
 13941 0061 00       		.byte	0
 13942 0062 00       		.byte	0
 13943 0063 08       		.uleb128 0x8
 13944 0064 0D       		.uleb128 0xd
 13945 0065 00       		.byte	0
 13946 0066 03       		.uleb128 0x3
 13947 0067 0E       		.uleb128 0xe
 13948 0068 3A       		.uleb128 0x3a
 13949 0069 0B       		.uleb128 0xb
 13950 006a 3B       		.uleb128 0x3b
 13951 006b 05       		.uleb128 0x5
 13952 006c 49       		.uleb128 0x49
 13953 006d 13       		.uleb128 0x13
 13954 006e 38       		.uleb128 0x38
 13955 006f 0B       		.uleb128 0xb
 13956 0070 00       		.byte	0
 13957 0071 00       		.byte	0
 13958 0072 09       		.uleb128 0x9
 13959 0073 0F       		.uleb128 0xf
 13960 0074 00       		.byte	0
 13961 0075 0B       		.uleb128 0xb
 13962 0076 0B       		.uleb128 0xb
 13963 0077 49       		.uleb128 0x49
 13964 0078 13       		.uleb128 0x13
 13965 0079 00       		.byte	0
 13966 007a 00       		.byte	0
 13967 007b 0A       		.uleb128 0xa
 13968 007c 13       		.uleb128 0x13
 13969 007d 01       		.byte	0x1
 13970 007e 03       		.uleb128 0x3
 13971 007f 0E       		.uleb128 0xe
 13972 0080 0B       		.uleb128 0xb
ARM GAS  /tmp/ccZHgRNF.s 			page 247


 13973 0081 0B       		.uleb128 0xb
 13974 0082 3A       		.uleb128 0x3a
 13975 0083 0B       		.uleb128 0xb
 13976 0084 3B       		.uleb128 0x3b
 13977 0085 05       		.uleb128 0x5
 13978 0086 01       		.uleb128 0x1
 13979 0087 13       		.uleb128 0x13
 13980 0088 00       		.byte	0
 13981 0089 00       		.byte	0
 13982 008a 0B       		.uleb128 0xb
 13983 008b 15       		.uleb128 0x15
 13984 008c 01       		.byte	0x1
 13985 008d 27       		.uleb128 0x27
 13986 008e 19       		.uleb128 0x19
 13987 008f 01       		.uleb128 0x1
 13988 0090 13       		.uleb128 0x13
 13989 0091 00       		.byte	0
 13990 0092 00       		.byte	0
 13991 0093 0C       		.uleb128 0xc
 13992 0094 05       		.uleb128 0x5
 13993 0095 00       		.byte	0
 13994 0096 49       		.uleb128 0x49
 13995 0097 13       		.uleb128 0x13
 13996 0098 00       		.byte	0
 13997 0099 00       		.byte	0
 13998 009a 0D       		.uleb128 0xd
 13999 009b 0F       		.uleb128 0xf
 14000 009c 00       		.byte	0
 14001 009d 0B       		.uleb128 0xb
 14002 009e 0B       		.uleb128 0xb
 14003 009f 00       		.byte	0
 14004 00a0 00       		.byte	0
 14005 00a1 0E       		.uleb128 0xe
 14006 00a2 13       		.uleb128 0x13
 14007 00a3 01       		.byte	0x1
 14008 00a4 03       		.uleb128 0x3
 14009 00a5 0E       		.uleb128 0xe
 14010 00a6 0B       		.uleb128 0xb
 14011 00a7 05       		.uleb128 0x5
 14012 00a8 3A       		.uleb128 0x3a
 14013 00a9 0B       		.uleb128 0xb
 14014 00aa 3B       		.uleb128 0x3b
 14015 00ab 05       		.uleb128 0x5
 14016 00ac 01       		.uleb128 0x1
 14017 00ad 13       		.uleb128 0x13
 14018 00ae 00       		.byte	0
 14019 00af 00       		.byte	0
 14020 00b0 0F       		.uleb128 0xf
 14021 00b1 0D       		.uleb128 0xd
 14022 00b2 00       		.byte	0
 14023 00b3 03       		.uleb128 0x3
 14024 00b4 08       		.uleb128 0x8
 14025 00b5 3A       		.uleb128 0x3a
 14026 00b6 0B       		.uleb128 0xb
 14027 00b7 3B       		.uleb128 0x3b
 14028 00b8 0B       		.uleb128 0xb
 14029 00b9 49       		.uleb128 0x49
ARM GAS  /tmp/ccZHgRNF.s 			page 248


 14030 00ba 13       		.uleb128 0x13
 14031 00bb 38       		.uleb128 0x38
 14032 00bc 0B       		.uleb128 0xb
 14033 00bd 00       		.byte	0
 14034 00be 00       		.byte	0
 14035 00bf 10       		.uleb128 0x10
 14036 00c0 13       		.uleb128 0x13
 14037 00c1 01       		.byte	0x1
 14038 00c2 0B       		.uleb128 0xb
 14039 00c3 0B       		.uleb128 0xb
 14040 00c4 3A       		.uleb128 0x3a
 14041 00c5 0B       		.uleb128 0xb
 14042 00c6 3B       		.uleb128 0x3b
 14043 00c7 0B       		.uleb128 0xb
 14044 00c8 01       		.uleb128 0x1
 14045 00c9 13       		.uleb128 0x13
 14046 00ca 00       		.byte	0
 14047 00cb 00       		.byte	0
 14048 00cc 11       		.uleb128 0x11
 14049 00cd 17       		.uleb128 0x17
 14050 00ce 01       		.byte	0x1
 14051 00cf 0B       		.uleb128 0xb
 14052 00d0 0B       		.uleb128 0xb
 14053 00d1 3A       		.uleb128 0x3a
 14054 00d2 0B       		.uleb128 0xb
 14055 00d3 3B       		.uleb128 0x3b
 14056 00d4 0B       		.uleb128 0xb
 14057 00d5 01       		.uleb128 0x1
 14058 00d6 13       		.uleb128 0x13
 14059 00d7 00       		.byte	0
 14060 00d8 00       		.byte	0
 14061 00d9 12       		.uleb128 0x12
 14062 00da 0D       		.uleb128 0xd
 14063 00db 00       		.byte	0
 14064 00dc 03       		.uleb128 0x3
 14065 00dd 0E       		.uleb128 0xe
 14066 00de 3A       		.uleb128 0x3a
 14067 00df 0B       		.uleb128 0xb
 14068 00e0 3B       		.uleb128 0x3b
 14069 00e1 05       		.uleb128 0x5
 14070 00e2 49       		.uleb128 0x49
 14071 00e3 13       		.uleb128 0x13
 14072 00e4 00       		.byte	0
 14073 00e5 00       		.byte	0
 14074 00e6 13       		.uleb128 0x13
 14075 00e7 26       		.uleb128 0x26
 14076 00e8 00       		.byte	0
 14077 00e9 49       		.uleb128 0x49
 14078 00ea 13       		.uleb128 0x13
 14079 00eb 00       		.byte	0
 14080 00ec 00       		.byte	0
 14081 00ed 14       		.uleb128 0x14
 14082 00ee 35       		.uleb128 0x35
 14083 00ef 00       		.byte	0
 14084 00f0 49       		.uleb128 0x49
 14085 00f1 13       		.uleb128 0x13
 14086 00f2 00       		.byte	0
ARM GAS  /tmp/ccZHgRNF.s 			page 249


 14087 00f3 00       		.byte	0
 14088 00f4 15       		.uleb128 0x15
 14089 00f5 01       		.uleb128 0x1
 14090 00f6 01       		.byte	0x1
 14091 00f7 49       		.uleb128 0x49
 14092 00f8 13       		.uleb128 0x13
 14093 00f9 01       		.uleb128 0x1
 14094 00fa 13       		.uleb128 0x13
 14095 00fb 00       		.byte	0
 14096 00fc 00       		.byte	0
 14097 00fd 16       		.uleb128 0x16
 14098 00fe 21       		.uleb128 0x21
 14099 00ff 00       		.byte	0
 14100 0100 49       		.uleb128 0x49
 14101 0101 13       		.uleb128 0x13
 14102 0102 2F       		.uleb128 0x2f
 14103 0103 0B       		.uleb128 0xb
 14104 0104 00       		.byte	0
 14105 0105 00       		.byte	0
 14106 0106 17       		.uleb128 0x17
 14107 0107 13       		.uleb128 0x13
 14108 0108 01       		.byte	0x1
 14109 0109 0B       		.uleb128 0xb
 14110 010a 05       		.uleb128 0x5
 14111 010b 3A       		.uleb128 0x3a
 14112 010c 0B       		.uleb128 0xb
 14113 010d 3B       		.uleb128 0x3b
 14114 010e 0B       		.uleb128 0xb
 14115 010f 01       		.uleb128 0x1
 14116 0110 13       		.uleb128 0x13
 14117 0111 00       		.byte	0
 14118 0112 00       		.byte	0
 14119 0113 18       		.uleb128 0x18
 14120 0114 21       		.uleb128 0x21
 14121 0115 00       		.byte	0
 14122 0116 49       		.uleb128 0x49
 14123 0117 13       		.uleb128 0x13
 14124 0118 2F       		.uleb128 0x2f
 14125 0119 05       		.uleb128 0x5
 14126 011a 00       		.byte	0
 14127 011b 00       		.byte	0
 14128 011c 19       		.uleb128 0x19
 14129 011d 16       		.uleb128 0x16
 14130 011e 00       		.byte	0
 14131 011f 03       		.uleb128 0x3
 14132 0120 08       		.uleb128 0x8
 14133 0121 3A       		.uleb128 0x3a
 14134 0122 0B       		.uleb128 0xb
 14135 0123 3B       		.uleb128 0x3b
 14136 0124 0B       		.uleb128 0xb
 14137 0125 49       		.uleb128 0x49
 14138 0126 13       		.uleb128 0x13
 14139 0127 00       		.byte	0
 14140 0128 00       		.byte	0
 14141 0129 1A       		.uleb128 0x1a
 14142 012a 04       		.uleb128 0x4
 14143 012b 01       		.byte	0x1
ARM GAS  /tmp/ccZHgRNF.s 			page 250


 14144 012c 0B       		.uleb128 0xb
 14145 012d 0B       		.uleb128 0xb
 14146 012e 3A       		.uleb128 0x3a
 14147 012f 0B       		.uleb128 0xb
 14148 0130 3B       		.uleb128 0x3b
 14149 0131 0B       		.uleb128 0xb
 14150 0132 01       		.uleb128 0x1
 14151 0133 13       		.uleb128 0x13
 14152 0134 00       		.byte	0
 14153 0135 00       		.byte	0
 14154 0136 1B       		.uleb128 0x1b
 14155 0137 28       		.uleb128 0x28
 14156 0138 00       		.byte	0
 14157 0139 03       		.uleb128 0x3
 14158 013a 0E       		.uleb128 0xe
 14159 013b 1C       		.uleb128 0x1c
 14160 013c 0D       		.uleb128 0xd
 14161 013d 00       		.byte	0
 14162 013e 00       		.byte	0
 14163 013f 1C       		.uleb128 0x1c
 14164 0140 2E       		.uleb128 0x2e
 14165 0141 01       		.byte	0x1
 14166 0142 03       		.uleb128 0x3
 14167 0143 0E       		.uleb128 0xe
 14168 0144 3A       		.uleb128 0x3a
 14169 0145 0B       		.uleb128 0xb
 14170 0146 3B       		.uleb128 0x3b
 14171 0147 05       		.uleb128 0x5
 14172 0148 27       		.uleb128 0x27
 14173 0149 19       		.uleb128 0x19
 14174 014a 49       		.uleb128 0x49
 14175 014b 13       		.uleb128 0x13
 14176 014c 20       		.uleb128 0x20
 14177 014d 0B       		.uleb128 0xb
 14178 014e 01       		.uleb128 0x1
 14179 014f 13       		.uleb128 0x13
 14180 0150 00       		.byte	0
 14181 0151 00       		.byte	0
 14182 0152 1D       		.uleb128 0x1d
 14183 0153 05       		.uleb128 0x5
 14184 0154 00       		.byte	0
 14185 0155 03       		.uleb128 0x3
 14186 0156 08       		.uleb128 0x8
 14187 0157 3A       		.uleb128 0x3a
 14188 0158 0B       		.uleb128 0xb
 14189 0159 3B       		.uleb128 0x3b
 14190 015a 05       		.uleb128 0x5
 14191 015b 49       		.uleb128 0x49
 14192 015c 13       		.uleb128 0x13
 14193 015d 00       		.byte	0
 14194 015e 00       		.byte	0
 14195 015f 1E       		.uleb128 0x1e
 14196 0160 34       		.uleb128 0x34
 14197 0161 00       		.byte	0
 14198 0162 03       		.uleb128 0x3
 14199 0163 08       		.uleb128 0x8
 14200 0164 3A       		.uleb128 0x3a
ARM GAS  /tmp/ccZHgRNF.s 			page 251


 14201 0165 0B       		.uleb128 0xb
 14202 0166 3B       		.uleb128 0x3b
 14203 0167 05       		.uleb128 0x5
 14204 0168 49       		.uleb128 0x49
 14205 0169 13       		.uleb128 0x13
 14206 016a 00       		.byte	0
 14207 016b 00       		.byte	0
 14208 016c 1F       		.uleb128 0x1f
 14209 016d 2E       		.uleb128 0x2e
 14210 016e 01       		.byte	0x1
 14211 016f 03       		.uleb128 0x3
 14212 0170 0E       		.uleb128 0xe
 14213 0171 3A       		.uleb128 0x3a
 14214 0172 0B       		.uleb128 0xb
 14215 0173 3B       		.uleb128 0x3b
 14216 0174 05       		.uleb128 0x5
 14217 0175 27       		.uleb128 0x27
 14218 0176 19       		.uleb128 0x19
 14219 0177 20       		.uleb128 0x20
 14220 0178 0B       		.uleb128 0xb
 14221 0179 01       		.uleb128 0x1
 14222 017a 13       		.uleb128 0x13
 14223 017b 00       		.byte	0
 14224 017c 00       		.byte	0
 14225 017d 20       		.uleb128 0x20
 14226 017e 0B       		.uleb128 0xb
 14227 017f 01       		.byte	0x1
 14228 0180 00       		.byte	0
 14229 0181 00       		.byte	0
 14230 0182 21       		.uleb128 0x21
 14231 0183 05       		.uleb128 0x5
 14232 0184 00       		.byte	0
 14233 0185 03       		.uleb128 0x3
 14234 0186 0E       		.uleb128 0xe
 14235 0187 3A       		.uleb128 0x3a
 14236 0188 0B       		.uleb128 0xb
 14237 0189 3B       		.uleb128 0x3b
 14238 018a 05       		.uleb128 0x5
 14239 018b 49       		.uleb128 0x49
 14240 018c 13       		.uleb128 0x13
 14241 018d 00       		.byte	0
 14242 018e 00       		.byte	0
 14243 018f 22       		.uleb128 0x22
 14244 0190 34       		.uleb128 0x34
 14245 0191 00       		.byte	0
 14246 0192 03       		.uleb128 0x3
 14247 0193 0E       		.uleb128 0xe
 14248 0194 3A       		.uleb128 0x3a
 14249 0195 0B       		.uleb128 0xb
 14250 0196 3B       		.uleb128 0x3b
 14251 0197 05       		.uleb128 0x5
 14252 0198 49       		.uleb128 0x49
 14253 0199 13       		.uleb128 0x13
 14254 019a 00       		.byte	0
 14255 019b 00       		.byte	0
 14256 019c 23       		.uleb128 0x23
 14257 019d 2E       		.uleb128 0x2e
ARM GAS  /tmp/ccZHgRNF.s 			page 252


 14258 019e 01       		.byte	0x1
 14259 019f 3F       		.uleb128 0x3f
 14260 01a0 19       		.uleb128 0x19
 14261 01a1 03       		.uleb128 0x3
 14262 01a2 0E       		.uleb128 0xe
 14263 01a3 3A       		.uleb128 0x3a
 14264 01a4 0B       		.uleb128 0xb
 14265 01a5 3B       		.uleb128 0x3b
 14266 01a6 05       		.uleb128 0x5
 14267 01a7 27       		.uleb128 0x27
 14268 01a8 19       		.uleb128 0x19
 14269 01a9 49       		.uleb128 0x49
 14270 01aa 13       		.uleb128 0x13
 14271 01ab 20       		.uleb128 0x20
 14272 01ac 0B       		.uleb128 0xb
 14273 01ad 01       		.uleb128 0x1
 14274 01ae 13       		.uleb128 0x13
 14275 01af 00       		.byte	0
 14276 01b0 00       		.byte	0
 14277 01b1 24       		.uleb128 0x24
 14278 01b2 26       		.uleb128 0x26
 14279 01b3 00       		.byte	0
 14280 01b4 00       		.byte	0
 14281 01b5 00       		.byte	0
 14282 01b6 25       		.uleb128 0x25
 14283 01b7 2E       		.uleb128 0x2e
 14284 01b8 01       		.byte	0x1
 14285 01b9 03       		.uleb128 0x3
 14286 01ba 0E       		.uleb128 0xe
 14287 01bb 3A       		.uleb128 0x3a
 14288 01bc 0B       		.uleb128 0xb
 14289 01bd 3B       		.uleb128 0x3b
 14290 01be 05       		.uleb128 0x5
 14291 01bf 27       		.uleb128 0x27
 14292 01c0 19       		.uleb128 0x19
 14293 01c1 49       		.uleb128 0x49
 14294 01c2 13       		.uleb128 0x13
 14295 01c3 11       		.uleb128 0x11
 14296 01c4 01       		.uleb128 0x1
 14297 01c5 12       		.uleb128 0x12
 14298 01c6 06       		.uleb128 0x6
 14299 01c7 40       		.uleb128 0x40
 14300 01c8 18       		.uleb128 0x18
 14301 01c9 9742     		.uleb128 0x2117
 14302 01cb 19       		.uleb128 0x19
 14303 01cc 01       		.uleb128 0x1
 14304 01cd 13       		.uleb128 0x13
 14305 01ce 00       		.byte	0
 14306 01cf 00       		.byte	0
 14307 01d0 26       		.uleb128 0x26
 14308 01d1 05       		.uleb128 0x5
 14309 01d2 00       		.byte	0
 14310 01d3 03       		.uleb128 0x3
 14311 01d4 0E       		.uleb128 0xe
 14312 01d5 3A       		.uleb128 0x3a
 14313 01d6 0B       		.uleb128 0xb
 14314 01d7 3B       		.uleb128 0x3b
ARM GAS  /tmp/ccZHgRNF.s 			page 253


 14315 01d8 05       		.uleb128 0x5
 14316 01d9 49       		.uleb128 0x49
 14317 01da 13       		.uleb128 0x13
 14318 01db 02       		.uleb128 0x2
 14319 01dc 17       		.uleb128 0x17
 14320 01dd 00       		.byte	0
 14321 01de 00       		.byte	0
 14322 01df 27       		.uleb128 0x27
 14323 01e0 34       		.uleb128 0x34
 14324 01e1 00       		.byte	0
 14325 01e2 03       		.uleb128 0x3
 14326 01e3 08       		.uleb128 0x8
 14327 01e4 3A       		.uleb128 0x3a
 14328 01e5 0B       		.uleb128 0xb
 14329 01e6 3B       		.uleb128 0x3b
 14330 01e7 05       		.uleb128 0x5
 14331 01e8 49       		.uleb128 0x49
 14332 01e9 13       		.uleb128 0x13
 14333 01ea 02       		.uleb128 0x2
 14334 01eb 17       		.uleb128 0x17
 14335 01ec 00       		.byte	0
 14336 01ed 00       		.byte	0
 14337 01ee 28       		.uleb128 0x28
 14338 01ef 05       		.uleb128 0x5
 14339 01f0 00       		.byte	0
 14340 01f1 03       		.uleb128 0x3
 14341 01f2 08       		.uleb128 0x8
 14342 01f3 3A       		.uleb128 0x3a
 14343 01f4 0B       		.uleb128 0xb
 14344 01f5 3B       		.uleb128 0x3b
 14345 01f6 05       		.uleb128 0x5
 14346 01f7 49       		.uleb128 0x49
 14347 01f8 13       		.uleb128 0x13
 14348 01f9 02       		.uleb128 0x2
 14349 01fa 17       		.uleb128 0x17
 14350 01fb 00       		.byte	0
 14351 01fc 00       		.byte	0
 14352 01fd 29       		.uleb128 0x29
 14353 01fe 898201   		.uleb128 0x4109
 14354 0201 00       		.byte	0
 14355 0202 11       		.uleb128 0x11
 14356 0203 01       		.uleb128 0x1
 14357 0204 31       		.uleb128 0x31
 14358 0205 13       		.uleb128 0x13
 14359 0206 00       		.byte	0
 14360 0207 00       		.byte	0
 14361 0208 2A       		.uleb128 0x2a
 14362 0209 2E       		.uleb128 0x2e
 14363 020a 01       		.byte	0x1
 14364 020b 31       		.uleb128 0x31
 14365 020c 13       		.uleb128 0x13
 14366 020d 11       		.uleb128 0x11
 14367 020e 01       		.uleb128 0x1
 14368 020f 12       		.uleb128 0x12
 14369 0210 06       		.uleb128 0x6
 14370 0211 40       		.uleb128 0x40
 14371 0212 18       		.uleb128 0x18
ARM GAS  /tmp/ccZHgRNF.s 			page 254


 14372 0213 9742     		.uleb128 0x2117
 14373 0215 19       		.uleb128 0x19
 14374 0216 01       		.uleb128 0x1
 14375 0217 13       		.uleb128 0x13
 14376 0218 00       		.byte	0
 14377 0219 00       		.byte	0
 14378 021a 2B       		.uleb128 0x2b
 14379 021b 05       		.uleb128 0x5
 14380 021c 00       		.byte	0
 14381 021d 31       		.uleb128 0x31
 14382 021e 13       		.uleb128 0x13
 14383 021f 02       		.uleb128 0x2
 14384 0220 18       		.uleb128 0x18
 14385 0221 00       		.byte	0
 14386 0222 00       		.byte	0
 14387 0223 2C       		.uleb128 0x2c
 14388 0224 34       		.uleb128 0x34
 14389 0225 00       		.byte	0
 14390 0226 31       		.uleb128 0x31
 14391 0227 13       		.uleb128 0x13
 14392 0228 02       		.uleb128 0x2
 14393 0229 17       		.uleb128 0x17
 14394 022a 00       		.byte	0
 14395 022b 00       		.byte	0
 14396 022c 2D       		.uleb128 0x2d
 14397 022d 0B       		.uleb128 0xb
 14398 022e 01       		.byte	0x1
 14399 022f 11       		.uleb128 0x11
 14400 0230 01       		.uleb128 0x1
 14401 0231 12       		.uleb128 0x12
 14402 0232 06       		.uleb128 0x6
 14403 0233 00       		.byte	0
 14404 0234 00       		.byte	0
 14405 0235 2E       		.uleb128 0x2e
 14406 0236 05       		.uleb128 0x5
 14407 0237 00       		.byte	0
 14408 0238 31       		.uleb128 0x31
 14409 0239 13       		.uleb128 0x13
 14410 023a 02       		.uleb128 0x2
 14411 023b 17       		.uleb128 0x17
 14412 023c 00       		.byte	0
 14413 023d 00       		.byte	0
 14414 023e 2F       		.uleb128 0x2f
 14415 023f 34       		.uleb128 0x34
 14416 0240 00       		.byte	0
 14417 0241 31       		.uleb128 0x31
 14418 0242 13       		.uleb128 0x13
 14419 0243 02       		.uleb128 0x2
 14420 0244 18       		.uleb128 0x18
 14421 0245 00       		.byte	0
 14422 0246 00       		.byte	0
 14423 0247 30       		.uleb128 0x30
 14424 0248 898201   		.uleb128 0x4109
 14425 024b 01       		.byte	0x1
 14426 024c 11       		.uleb128 0x11
 14427 024d 01       		.uleb128 0x1
 14428 024e 31       		.uleb128 0x31
ARM GAS  /tmp/ccZHgRNF.s 			page 255


 14429 024f 13       		.uleb128 0x13
 14430 0250 01       		.uleb128 0x1
 14431 0251 13       		.uleb128 0x13
 14432 0252 00       		.byte	0
 14433 0253 00       		.byte	0
 14434 0254 31       		.uleb128 0x31
 14435 0255 8A8201   		.uleb128 0x410a
 14436 0258 00       		.byte	0
 14437 0259 02       		.uleb128 0x2
 14438 025a 18       		.uleb128 0x18
 14439 025b 9142     		.uleb128 0x2111
 14440 025d 18       		.uleb128 0x18
 14441 025e 00       		.byte	0
 14442 025f 00       		.byte	0
 14443 0260 32       		.uleb128 0x32
 14444 0261 898201   		.uleb128 0x4109
 14445 0264 01       		.byte	0x1
 14446 0265 11       		.uleb128 0x11
 14447 0266 01       		.uleb128 0x1
 14448 0267 31       		.uleb128 0x31
 14449 0268 13       		.uleb128 0x13
 14450 0269 00       		.byte	0
 14451 026a 00       		.byte	0
 14452 026b 33       		.uleb128 0x33
 14453 026c 1D       		.uleb128 0x1d
 14454 026d 01       		.byte	0x1
 14455 026e 31       		.uleb128 0x31
 14456 026f 13       		.uleb128 0x13
 14457 0270 52       		.uleb128 0x52
 14458 0271 01       		.uleb128 0x1
 14459 0272 55       		.uleb128 0x55
 14460 0273 17       		.uleb128 0x17
 14461 0274 58       		.uleb128 0x58
 14462 0275 0B       		.uleb128 0xb
 14463 0276 59       		.uleb128 0x59
 14464 0277 05       		.uleb128 0x5
 14465 0278 01       		.uleb128 0x1
 14466 0279 13       		.uleb128 0x13
 14467 027a 00       		.byte	0
 14468 027b 00       		.byte	0
 14469 027c 34       		.uleb128 0x34
 14470 027d 0B       		.uleb128 0xb
 14471 027e 01       		.byte	0x1
 14472 027f 55       		.uleb128 0x55
 14473 0280 17       		.uleb128 0x17
 14474 0281 00       		.byte	0
 14475 0282 00       		.byte	0
 14476 0283 35       		.uleb128 0x35
 14477 0284 34       		.uleb128 0x34
 14478 0285 00       		.byte	0
 14479 0286 31       		.uleb128 0x31
 14480 0287 13       		.uleb128 0x13
 14481 0288 00       		.byte	0
 14482 0289 00       		.byte	0
 14483 028a 36       		.uleb128 0x36
 14484 028b 1D       		.uleb128 0x1d
 14485 028c 01       		.byte	0x1
ARM GAS  /tmp/ccZHgRNF.s 			page 256


 14486 028d 31       		.uleb128 0x31
 14487 028e 13       		.uleb128 0x13
 14488 028f 11       		.uleb128 0x11
 14489 0290 01       		.uleb128 0x1
 14490 0291 12       		.uleb128 0x12
 14491 0292 06       		.uleb128 0x6
 14492 0293 58       		.uleb128 0x58
 14493 0294 0B       		.uleb128 0xb
 14494 0295 59       		.uleb128 0x59
 14495 0296 05       		.uleb128 0x5
 14496 0297 01       		.uleb128 0x1
 14497 0298 13       		.uleb128 0x13
 14498 0299 00       		.byte	0
 14499 029a 00       		.byte	0
 14500 029b 37       		.uleb128 0x37
 14501 029c 05       		.uleb128 0x5
 14502 029d 00       		.byte	0
 14503 029e 31       		.uleb128 0x31
 14504 029f 13       		.uleb128 0x13
 14505 02a0 1C       		.uleb128 0x1c
 14506 02a1 0B       		.uleb128 0xb
 14507 02a2 00       		.byte	0
 14508 02a3 00       		.byte	0
 14509 02a4 38       		.uleb128 0x38
 14510 02a5 0B       		.uleb128 0xb
 14511 02a6 01       		.byte	0x1
 14512 02a7 11       		.uleb128 0x11
 14513 02a8 01       		.uleb128 0x1
 14514 02a9 12       		.uleb128 0x12
 14515 02aa 06       		.uleb128 0x6
 14516 02ab 01       		.uleb128 0x1
 14517 02ac 13       		.uleb128 0x13
 14518 02ad 00       		.byte	0
 14519 02ae 00       		.byte	0
 14520 02af 39       		.uleb128 0x39
 14521 02b0 34       		.uleb128 0x34
 14522 02b1 00       		.byte	0
 14523 02b2 03       		.uleb128 0x3
 14524 02b3 0E       		.uleb128 0xe
 14525 02b4 3A       		.uleb128 0x3a
 14526 02b5 0B       		.uleb128 0xb
 14527 02b6 3B       		.uleb128 0x3b
 14528 02b7 05       		.uleb128 0x5
 14529 02b8 49       		.uleb128 0x49
 14530 02b9 13       		.uleb128 0x13
 14531 02ba 02       		.uleb128 0x2
 14532 02bb 17       		.uleb128 0x17
 14533 02bc 00       		.byte	0
 14534 02bd 00       		.byte	0
 14535 02be 3A       		.uleb128 0x3a
 14536 02bf 0B       		.uleb128 0xb
 14537 02c0 01       		.byte	0x1
 14538 02c1 55       		.uleb128 0x55
 14539 02c2 17       		.uleb128 0x17
 14540 02c3 01       		.uleb128 0x1
 14541 02c4 13       		.uleb128 0x13
 14542 02c5 00       		.byte	0
ARM GAS  /tmp/ccZHgRNF.s 			page 257


 14543 02c6 00       		.byte	0
 14544 02c7 3B       		.uleb128 0x3b
 14545 02c8 34       		.uleb128 0x34
 14546 02c9 00       		.byte	0
 14547 02ca 03       		.uleb128 0x3
 14548 02cb 08       		.uleb128 0x8
 14549 02cc 3A       		.uleb128 0x3a
 14550 02cd 0B       		.uleb128 0xb
 14551 02ce 3B       		.uleb128 0x3b
 14552 02cf 05       		.uleb128 0x5
 14553 02d0 49       		.uleb128 0x49
 14554 02d1 13       		.uleb128 0x13
 14555 02d2 02       		.uleb128 0x2
 14556 02d3 18       		.uleb128 0x18
 14557 02d4 00       		.byte	0
 14558 02d5 00       		.byte	0
 14559 02d6 3C       		.uleb128 0x3c
 14560 02d7 1D       		.uleb128 0x1d
 14561 02d8 01       		.byte	0x1
 14562 02d9 31       		.uleb128 0x31
 14563 02da 13       		.uleb128 0x13
 14564 02db 11       		.uleb128 0x11
 14565 02dc 01       		.uleb128 0x1
 14566 02dd 12       		.uleb128 0x12
 14567 02de 06       		.uleb128 0x6
 14568 02df 58       		.uleb128 0x58
 14569 02e0 0B       		.uleb128 0xb
 14570 02e1 59       		.uleb128 0x59
 14571 02e2 05       		.uleb128 0x5
 14572 02e3 00       		.byte	0
 14573 02e4 00       		.byte	0
 14574 02e5 3D       		.uleb128 0x3d
 14575 02e6 1D       		.uleb128 0x1d
 14576 02e7 01       		.byte	0x1
 14577 02e8 31       		.uleb128 0x31
 14578 02e9 13       		.uleb128 0x13
 14579 02ea 52       		.uleb128 0x52
 14580 02eb 01       		.uleb128 0x1
 14581 02ec 55       		.uleb128 0x55
 14582 02ed 17       		.uleb128 0x17
 14583 02ee 58       		.uleb128 0x58
 14584 02ef 0B       		.uleb128 0xb
 14585 02f0 59       		.uleb128 0x59
 14586 02f1 05       		.uleb128 0x5
 14587 02f2 00       		.byte	0
 14588 02f3 00       		.byte	0
 14589 02f4 3E       		.uleb128 0x3e
 14590 02f5 05       		.uleb128 0x5
 14591 02f6 00       		.byte	0
 14592 02f7 31       		.uleb128 0x31
 14593 02f8 13       		.uleb128 0x13
 14594 02f9 00       		.byte	0
 14595 02fa 00       		.byte	0
 14596 02fb 3F       		.uleb128 0x3f
 14597 02fc 34       		.uleb128 0x34
 14598 02fd 00       		.byte	0
 14599 02fe 31       		.uleb128 0x31
ARM GAS  /tmp/ccZHgRNF.s 			page 258


 14600 02ff 13       		.uleb128 0x13
 14601 0300 1C       		.uleb128 0x1c
 14602 0301 0B       		.uleb128 0xb
 14603 0302 00       		.byte	0
 14604 0303 00       		.byte	0
 14605 0304 40       		.uleb128 0x40
 14606 0305 898201   		.uleb128 0x4109
 14607 0308 01       		.byte	0x1
 14608 0309 11       		.uleb128 0x11
 14609 030a 01       		.uleb128 0x1
 14610 030b 9542     		.uleb128 0x2115
 14611 030d 19       		.uleb128 0x19
 14612 030e 31       		.uleb128 0x31
 14613 030f 13       		.uleb128 0x13
 14614 0310 00       		.byte	0
 14615 0311 00       		.byte	0
 14616 0312 41       		.uleb128 0x41
 14617 0313 898201   		.uleb128 0x4109
 14618 0316 00       		.byte	0
 14619 0317 11       		.uleb128 0x11
 14620 0318 01       		.uleb128 0x1
 14621 0319 9542     		.uleb128 0x2115
 14622 031b 19       		.uleb128 0x19
 14623 031c 31       		.uleb128 0x31
 14624 031d 13       		.uleb128 0x13
 14625 031e 00       		.byte	0
 14626 031f 00       		.byte	0
 14627 0320 42       		.uleb128 0x42
 14628 0321 2E       		.uleb128 0x2e
 14629 0322 01       		.byte	0x1
 14630 0323 3F       		.uleb128 0x3f
 14631 0324 19       		.uleb128 0x19
 14632 0325 03       		.uleb128 0x3
 14633 0326 0E       		.uleb128 0xe
 14634 0327 3A       		.uleb128 0x3a
 14635 0328 0B       		.uleb128 0xb
 14636 0329 3B       		.uleb128 0x3b
 14637 032a 05       		.uleb128 0x5
 14638 032b 27       		.uleb128 0x27
 14639 032c 19       		.uleb128 0x19
 14640 032d 49       		.uleb128 0x49
 14641 032e 13       		.uleb128 0x13
 14642 032f 11       		.uleb128 0x11
 14643 0330 01       		.uleb128 0x1
 14644 0331 12       		.uleb128 0x12
 14645 0332 06       		.uleb128 0x6
 14646 0333 40       		.uleb128 0x40
 14647 0334 18       		.uleb128 0x18
 14648 0335 9742     		.uleb128 0x2117
 14649 0337 19       		.uleb128 0x19
 14650 0338 01       		.uleb128 0x1
 14651 0339 13       		.uleb128 0x13
 14652 033a 00       		.byte	0
 14653 033b 00       		.byte	0
 14654 033c 43       		.uleb128 0x43
 14655 033d 8A8201   		.uleb128 0x410a
 14656 0340 00       		.byte	0
ARM GAS  /tmp/ccZHgRNF.s 			page 259


 14657 0341 31       		.uleb128 0x31
 14658 0342 13       		.uleb128 0x13
 14659 0343 9142     		.uleb128 0x2111
 14660 0345 18       		.uleb128 0x18
 14661 0346 00       		.byte	0
 14662 0347 00       		.byte	0
 14663 0348 44       		.uleb128 0x44
 14664 0349 05       		.uleb128 0x5
 14665 034a 00       		.byte	0
 14666 034b 31       		.uleb128 0x31
 14667 034c 13       		.uleb128 0x13
 14668 034d 1C       		.uleb128 0x1c
 14669 034e 06       		.uleb128 0x6
 14670 034f 00       		.byte	0
 14671 0350 00       		.byte	0
 14672 0351 45       		.uleb128 0x45
 14673 0352 34       		.uleb128 0x34
 14674 0353 00       		.byte	0
 14675 0354 03       		.uleb128 0x3
 14676 0355 0E       		.uleb128 0xe
 14677 0356 3A       		.uleb128 0x3a
 14678 0357 0B       		.uleb128 0xb
 14679 0358 3B       		.uleb128 0x3b
 14680 0359 05       		.uleb128 0x5
 14681 035a 49       		.uleb128 0x49
 14682 035b 13       		.uleb128 0x13
 14683 035c 02       		.uleb128 0x2
 14684 035d 18       		.uleb128 0x18
 14685 035e 00       		.byte	0
 14686 035f 00       		.byte	0
 14687 0360 46       		.uleb128 0x46
 14688 0361 34       		.uleb128 0x34
 14689 0362 00       		.byte	0
 14690 0363 03       		.uleb128 0x3
 14691 0364 0E       		.uleb128 0xe
 14692 0365 3A       		.uleb128 0x3a
 14693 0366 0B       		.uleb128 0xb
 14694 0367 3B       		.uleb128 0x3b
 14695 0368 05       		.uleb128 0x5
 14696 0369 49       		.uleb128 0x49
 14697 036a 13       		.uleb128 0x13
 14698 036b 3F       		.uleb128 0x3f
 14699 036c 19       		.uleb128 0x19
 14700 036d 3C       		.uleb128 0x3c
 14701 036e 19       		.uleb128 0x19
 14702 036f 00       		.byte	0
 14703 0370 00       		.byte	0
 14704 0371 47       		.uleb128 0x47
 14705 0372 34       		.uleb128 0x34
 14706 0373 00       		.byte	0
 14707 0374 03       		.uleb128 0x3
 14708 0375 08       		.uleb128 0x8
 14709 0376 3A       		.uleb128 0x3a
 14710 0377 0B       		.uleb128 0xb
 14711 0378 3B       		.uleb128 0x3b
 14712 0379 05       		.uleb128 0x5
 14713 037a 49       		.uleb128 0x49
ARM GAS  /tmp/ccZHgRNF.s 			page 260


 14714 037b 13       		.uleb128 0x13
 14715 037c 3F       		.uleb128 0x3f
 14716 037d 19       		.uleb128 0x19
 14717 037e 3C       		.uleb128 0x3c
 14718 037f 19       		.uleb128 0x19
 14719 0380 00       		.byte	0
 14720 0381 00       		.byte	0
 14721 0382 48       		.uleb128 0x48
 14722 0383 2E       		.uleb128 0x2e
 14723 0384 01       		.byte	0x1
 14724 0385 3F       		.uleb128 0x3f
 14725 0386 19       		.uleb128 0x19
 14726 0387 03       		.uleb128 0x3
 14727 0388 0E       		.uleb128 0xe
 14728 0389 3A       		.uleb128 0x3a
 14729 038a 0B       		.uleb128 0xb
 14730 038b 3B       		.uleb128 0x3b
 14731 038c 0B       		.uleb128 0xb
 14732 038d 27       		.uleb128 0x27
 14733 038e 19       		.uleb128 0x19
 14734 038f 49       		.uleb128 0x49
 14735 0390 13       		.uleb128 0x13
 14736 0391 3C       		.uleb128 0x3c
 14737 0392 19       		.uleb128 0x19
 14738 0393 01       		.uleb128 0x1
 14739 0394 13       		.uleb128 0x13
 14740 0395 00       		.byte	0
 14741 0396 00       		.byte	0
 14742 0397 49       		.uleb128 0x49
 14743 0398 2E       		.uleb128 0x2e
 14744 0399 00       		.byte	0
 14745 039a 3F       		.uleb128 0x3f
 14746 039b 19       		.uleb128 0x19
 14747 039c 03       		.uleb128 0x3
 14748 039d 0E       		.uleb128 0xe
 14749 039e 3A       		.uleb128 0x3a
 14750 039f 0B       		.uleb128 0xb
 14751 03a0 3B       		.uleb128 0x3b
 14752 03a1 05       		.uleb128 0x5
 14753 03a2 27       		.uleb128 0x27
 14754 03a3 19       		.uleb128 0x19
 14755 03a4 49       		.uleb128 0x49
 14756 03a5 13       		.uleb128 0x13
 14757 03a6 3C       		.uleb128 0x3c
 14758 03a7 19       		.uleb128 0x19
 14759 03a8 00       		.byte	0
 14760 03a9 00       		.byte	0
 14761 03aa 00       		.byte	0
 14762              		.section	.debug_loc,"",%progbits
 14763              	.Ldebug_loc0:
 14764              	.LLST0:
 14765 0000 00000000 		.4byte	.LVL0
 14766 0004 26000000 		.4byte	.LVL7
 14767 0008 0100     		.2byte	0x1
 14768 000a 50       		.byte	0x50
 14769 000b 26000000 		.4byte	.LVL7
 14770 000f 2A000000 		.4byte	.LVL8
ARM GAS  /tmp/ccZHgRNF.s 			page 261


 14771 0013 0400     		.2byte	0x4
 14772 0015 F3       		.byte	0xf3
 14773 0016 01       		.uleb128 0x1
 14774 0017 50       		.byte	0x50
 14775 0018 9F       		.byte	0x9f
 14776 0019 2A000000 		.4byte	.LVL8
 14777 001d 32000000 		.4byte	.LVL10
 14778 0021 0100     		.2byte	0x1
 14779 0023 50       		.byte	0x50
 14780 0024 32000000 		.4byte	.LVL10
 14781 0028 36000000 		.4byte	.LVL11
 14782 002c 0400     		.2byte	0x4
 14783 002e F3       		.byte	0xf3
 14784 002f 01       		.uleb128 0x1
 14785 0030 50       		.byte	0x50
 14786 0031 9F       		.byte	0x9f
 14787 0032 36000000 		.4byte	.LVL11
 14788 0036 40000000 		.4byte	.LVL14
 14789 003a 0100     		.2byte	0x1
 14790 003c 50       		.byte	0x50
 14791 003d 40000000 		.4byte	.LVL14
 14792 0041 42000000 		.4byte	.LFE265
 14793 0045 0400     		.2byte	0x4
 14794 0047 F3       		.byte	0xf3
 14795 0048 01       		.uleb128 0x1
 14796 0049 50       		.byte	0x50
 14797 004a 9F       		.byte	0x9f
 14798 004b 00000000 		.4byte	0
 14799 004f 00000000 		.4byte	0
 14800              	.LLST1:
 14801 0053 2A000000 		.4byte	.LVL8
 14802 0057 2E000000 		.4byte	.LVL9
 14803 005b 0100     		.2byte	0x1
 14804 005d 56       		.byte	0x56
 14805 005e 36000000 		.4byte	.LVL11
 14806 0062 42000000 		.4byte	.LFE265
 14807 0066 0100     		.2byte	0x1
 14808 0068 56       		.byte	0x56
 14809 0069 00000000 		.4byte	0
 14810 006d 00000000 		.4byte	0
 14811              	.LLST2:
 14812 0071 06000000 		.4byte	.LVL1
 14813 0075 16000000 		.4byte	.LVL2
 14814 0079 0100     		.2byte	0x1
 14815 007b 54       		.byte	0x54
 14816 007c 16000000 		.4byte	.LVL2
 14817 0080 1A000000 		.4byte	.LVL3
 14818 0084 0100     		.2byte	0x1
 14819 0086 51       		.byte	0x51
 14820 0087 1A000000 		.4byte	.LVL3
 14821 008b 1C000000 		.4byte	.LVL4
 14822 008f 0300     		.2byte	0x3
 14823 0091 73       		.byte	0x73
 14824 0092 7F       		.sleb128 -1
 14825 0093 9F       		.byte	0x9f
 14826 0094 1C000000 		.4byte	.LVL4
 14827 0098 20000000 		.4byte	.LVL5
ARM GAS  /tmp/ccZHgRNF.s 			page 262


 14828 009c 0100     		.2byte	0x1
 14829 009e 53       		.byte	0x53
 14830 009f 20000000 		.4byte	.LVL5
 14831 00a3 24000000 		.4byte	.LVL6
 14832 00a7 0100     		.2byte	0x1
 14833 00a9 51       		.byte	0x51
 14834 00aa 2A000000 		.4byte	.LVL8
 14835 00ae 2E000000 		.4byte	.LVL9
 14836 00b2 0100     		.2byte	0x1
 14837 00b4 51       		.byte	0x51
 14838 00b5 36000000 		.4byte	.LVL11
 14839 00b9 3A000000 		.4byte	.LVL12
 14840 00bd 0100     		.2byte	0x1
 14841 00bf 51       		.byte	0x51
 14842 00c0 3A000000 		.4byte	.LVL12
 14843 00c4 3C000000 		.4byte	.LVL13
 14844 00c8 0300     		.2byte	0x3
 14845 00ca 74       		.byte	0x74
 14846 00cb 02       		.sleb128 2
 14847 00cc 9F       		.byte	0x9f
 14848 00cd 3C000000 		.4byte	.LVL13
 14849 00d1 42000000 		.4byte	.LFE265
 14850 00d5 0100     		.2byte	0x1
 14851 00d7 54       		.byte	0x54
 14852 00d8 00000000 		.4byte	0
 14853 00dc 00000000 		.4byte	0
 14854              	.LLST3:
 14855 00e0 2A000000 		.4byte	.LVL8
 14856 00e4 2E000000 		.4byte	.LVL9
 14857 00e8 0900     		.2byte	0x9
 14858 00ea 75       		.byte	0x75
 14859 00eb 00       		.sleb128 0
 14860 00ec 08       		.byte	0x8
 14861 00ed FF       		.byte	0xff
 14862 00ee 1A       		.byte	0x1a
 14863 00ef 08       		.byte	0x8
 14864 00f0 30       		.byte	0x30
 14865 00f1 1C       		.byte	0x1c
 14866 00f2 9F       		.byte	0x9f
 14867 00f3 36000000 		.4byte	.LVL11
 14868 00f7 42000000 		.4byte	.LFE265
 14869 00fb 0900     		.2byte	0x9
 14870 00fd 75       		.byte	0x75
 14871 00fe 00       		.sleb128 0
 14872 00ff 08       		.byte	0x8
 14873 0100 FF       		.byte	0xff
 14874 0101 1A       		.byte	0x1a
 14875 0102 08       		.byte	0x8
 14876 0103 30       		.byte	0x30
 14877 0104 1C       		.byte	0x1c
 14878 0105 9F       		.byte	0x9f
 14879 0106 00000000 		.4byte	0
 14880 010a 00000000 		.4byte	0
 14881              	.LLST4:
 14882 010e 00000000 		.4byte	.LVL0
 14883 0112 26000000 		.4byte	.LVL7
 14884 0116 0300     		.2byte	0x3
ARM GAS  /tmp/ccZHgRNF.s 			page 263


 14885 0118 09       		.byte	0x9
 14886 0119 FF       		.byte	0xff
 14887 011a 9F       		.byte	0x9f
 14888 011b 2A000000 		.4byte	.LVL8
 14889 011f 3A000000 		.4byte	.LVL12
 14890 0123 0300     		.2byte	0x3
 14891 0125 09       		.byte	0x9
 14892 0126 FF       		.byte	0xff
 14893 0127 9F       		.byte	0x9f
 14894 0128 3A000000 		.4byte	.LVL12
 14895 012c 42000000 		.4byte	.LFE265
 14896 0130 0900     		.2byte	0x9
 14897 0132 75       		.byte	0x75
 14898 0133 00       		.sleb128 0
 14899 0134 08       		.byte	0x8
 14900 0135 FF       		.byte	0xff
 14901 0136 1A       		.byte	0x1a
 14902 0137 08       		.byte	0x8
 14903 0138 30       		.byte	0x30
 14904 0139 1C       		.byte	0x1c
 14905 013a 9F       		.byte	0x9f
 14906 013b 00000000 		.4byte	0
 14907 013f 00000000 		.4byte	0
 14908              	.LLST5:
 14909 0143 00000000 		.4byte	.LVL15
 14910 0147 0E000000 		.4byte	.LVL16
 14911 014b 0100     		.2byte	0x1
 14912 014d 50       		.byte	0x50
 14913 014e 0E000000 		.4byte	.LVL16
 14914 0152 10000000 		.4byte	.LVL17
 14915 0156 0400     		.2byte	0x4
 14916 0158 F3       		.byte	0xf3
 14917 0159 01       		.uleb128 0x1
 14918 015a 50       		.byte	0x50
 14919 015b 9F       		.byte	0x9f
 14920 015c 10000000 		.4byte	.LVL17
 14921 0160 1A000000 		.4byte	.LVL18
 14922 0164 0100     		.2byte	0x1
 14923 0166 50       		.byte	0x50
 14924 0167 1A000000 		.4byte	.LVL18
 14925 016b 2A000000 		.4byte	.LFE268
 14926 016f 0400     		.2byte	0x4
 14927 0171 F3       		.byte	0xf3
 14928 0172 01       		.uleb128 0x1
 14929 0173 50       		.byte	0x50
 14930 0174 9F       		.byte	0x9f
 14931 0175 00000000 		.4byte	0
 14932 0179 00000000 		.4byte	0
 14933              	.LLST7:
 14934 017d 0A000000 		.4byte	.LVL22
 14935 0181 0E000000 		.4byte	.LVL23
 14936 0185 0200     		.2byte	0x2
 14937 0187 30       		.byte	0x30
 14938 0188 9F       		.byte	0x9f
 14939 0189 0E000000 		.4byte	.LVL23
 14940 018d 3E000000 		.4byte	.LVL30
 14941 0191 0100     		.2byte	0x1
ARM GAS  /tmp/ccZHgRNF.s 			page 264


 14942 0193 51       		.byte	0x51
 14943 0194 00000000 		.4byte	0
 14944 0198 00000000 		.4byte	0
 14945              	.LLST8:
 14946 019c 06000000 		.4byte	.LVL21
 14947 01a0 20000000 		.4byte	.LVL26
 14948 01a4 0100     		.2byte	0x1
 14949 01a6 54       		.byte	0x54
 14950 01a7 20000000 		.4byte	.LVL26
 14951 01ab 2A000000 		.4byte	.LVL28
 14952 01af 0300     		.2byte	0x3
 14953 01b1 74       		.byte	0x74
 14954 01b2 01       		.sleb128 1
 14955 01b3 9F       		.byte	0x9f
 14956 01b4 2A000000 		.4byte	.LVL28
 14957 01b8 66000000 		.4byte	.LVL32
 14958 01bc 0100     		.2byte	0x1
 14959 01be 54       		.byte	0x54
 14960 01bf 00000000 		.4byte	0
 14961 01c3 00000000 		.4byte	0
 14962              	.LLST9:
 14963 01c7 16000000 		.4byte	.LVL25
 14964 01cb 20000000 		.4byte	.LVL26
 14965 01cf 0700     		.2byte	0x7
 14966 01d1 70       		.byte	0x70
 14967 01d2 00       		.sleb128 0
 14968 01d3 71       		.byte	0x71
 14969 01d4 00       		.sleb128 0
 14970 01d5 22       		.byte	0x22
 14971 01d6 31       		.byte	0x31
 14972 01d7 1C       		.byte	0x1c
 14973 01d8 20000000 		.4byte	.LVL26
 14974 01dc 2E000000 		.4byte	.LVL29
 14975 01e0 0100     		.2byte	0x1
 14976 01e2 53       		.byte	0x53
 14977 01e3 00000000 		.4byte	0
 14978 01e7 00000000 		.4byte	0
 14979              	.LLST10:
 14980 01eb 0A000000 		.4byte	.LVL22
 14981 01ef 60000000 		.4byte	.LVL31
 14982 01f3 0100     		.2byte	0x1
 14983 01f5 50       		.byte	0x50
 14984 01f6 00000000 		.4byte	0
 14985 01fa 00000000 		.4byte	0
 14986              	.LLST11:
 14987 01fe 00000000 		.4byte	.LVL33
 14988 0202 0E000000 		.4byte	.LVL35
 14989 0206 0100     		.2byte	0x1
 14990 0208 50       		.byte	0x50
 14991 0209 0E000000 		.4byte	.LVL35
 14992 020d 4A000000 		.4byte	.LFE290
 14993 0211 0100     		.2byte	0x1
 14994 0213 55       		.byte	0x55
 14995 0214 00000000 		.4byte	0
 14996 0218 00000000 		.4byte	0
 14997              	.LLST12:
 14998 021c 26000000 		.4byte	.LVL37
ARM GAS  /tmp/ccZHgRNF.s 			page 265


 14999 0220 32000000 		.4byte	.LVL39
 15000 0224 0100     		.2byte	0x1
 15001 0226 56       		.byte	0x56
 15002 0227 32000000 		.4byte	.LVL39
 15003 022b 3E000000 		.4byte	.LVL40
 15004 022f 0300     		.2byte	0x3
 15005 0231 76       		.byte	0x76
 15006 0232 01       		.sleb128 1
 15007 0233 9F       		.byte	0x9f
 15008 0234 3E000000 		.4byte	.LVL40
 15009 0238 42000000 		.4byte	.LVL41
 15010 023c 0100     		.2byte	0x1
 15011 023e 56       		.byte	0x56
 15012 023f 00000000 		.4byte	0
 15013 0243 00000000 		.4byte	0
 15014              	.LLST13:
 15015 0247 00000000 		.4byte	.LVL43
 15016 024b 0A000000 		.4byte	.LVL45
 15017 024f 0100     		.2byte	0x1
 15018 0251 50       		.byte	0x50
 15019 0252 0A000000 		.4byte	.LVL45
 15020 0256 24000000 		.4byte	.LVL48
 15021 025a 0100     		.2byte	0x1
 15022 025c 55       		.byte	0x55
 15023 025d 24000000 		.4byte	.LVL48
 15024 0261 27000000 		.4byte	.LVL49-1
 15025 0265 0100     		.2byte	0x1
 15026 0267 50       		.byte	0x50
 15027 0268 27000000 		.4byte	.LVL49-1
 15028 026c D2000000 		.4byte	.LFE247
 15029 0270 0100     		.2byte	0x1
 15030 0272 55       		.byte	0x55
 15031 0273 00000000 		.4byte	0
 15032 0277 00000000 		.4byte	0
 15033              	.LLST14:
 15034 027b 20000000 		.4byte	.LVL47
 15035 027f 24000000 		.4byte	.LVL48
 15036 0283 0100     		.2byte	0x1
 15037 0285 50       		.byte	0x50
 15038 0286 2C000000 		.4byte	.LVL50
 15039 028a 30000000 		.4byte	.LVL51
 15040 028e 0100     		.2byte	0x1
 15041 0290 50       		.byte	0x50
 15042 0291 00000000 		.4byte	0
 15043 0295 00000000 		.4byte	0
 15044              	.LLST15:
 15045 0299 08000000 		.4byte	.LVL44
 15046 029d 0A000000 		.4byte	.LVL45
 15047 02a1 0100     		.2byte	0x1
 15048 02a3 50       		.byte	0x50
 15049 02a4 0A000000 		.4byte	.LVL45
 15050 02a8 24000000 		.4byte	.LVL48
 15051 02ac 0100     		.2byte	0x1
 15052 02ae 55       		.byte	0x55
 15053 02af 24000000 		.4byte	.LVL48
 15054 02b3 27000000 		.4byte	.LVL49-1
 15055 02b7 0100     		.2byte	0x1
ARM GAS  /tmp/ccZHgRNF.s 			page 266


 15056 02b9 50       		.byte	0x50
 15057 02ba 27000000 		.4byte	.LVL49-1
 15058 02be D2000000 		.4byte	.LFE247
 15059 02c2 0100     		.2byte	0x1
 15060 02c4 55       		.byte	0x55
 15061 02c5 00000000 		.4byte	0
 15062 02c9 00000000 		.4byte	0
 15063              	.LLST16:
 15064 02cd 3A000000 		.4byte	.LVL52
 15065 02d1 42000000 		.4byte	.LVL53
 15066 02d5 0400     		.2byte	0x4
 15067 02d7 0A       		.byte	0xa
 15068 02d8 FF01     		.2byte	0x1ff
 15069 02da 9F       		.byte	0x9f
 15070 02db 00000000 		.4byte	0
 15071 02df 00000000 		.4byte	0
 15072              	.LLST17:
 15073 02e3 3A000000 		.4byte	.LVL52
 15074 02e7 CD000000 		.4byte	.LVL56-1
 15075 02eb 0100     		.2byte	0x1
 15076 02ed 51       		.byte	0x51
 15077 02ee CD000000 		.4byte	.LVL56-1
 15078 02f2 D2000000 		.4byte	.LFE247
 15079 02f6 0300     		.2byte	0x3
 15080 02f8 75       		.byte	0x75
 15081 02f9 30       		.sleb128 48
 15082 02fa 9F       		.byte	0x9f
 15083 02fb 00000000 		.4byte	0
 15084 02ff 00000000 		.4byte	0
 15085              	.LLST18:
 15086 0303 3A000000 		.4byte	.LVL52
 15087 0307 42000000 		.4byte	.LVL53
 15088 030b 0100     		.2byte	0x1
 15089 030d 51       		.byte	0x51
 15090 030e 42000000 		.4byte	.LVL53
 15091 0312 52000000 		.4byte	.LVL55
 15092 0316 0100     		.2byte	0x1
 15093 0318 53       		.byte	0x53
 15094 0319 00000000 		.4byte	0
 15095 031d 00000000 		.4byte	0
 15096              	.LLST19:
 15097 0321 00000000 		.4byte	.LVL57
 15098 0325 10000000 		.4byte	.LVL59
 15099 0329 0100     		.2byte	0x1
 15100 032b 50       		.byte	0x50
 15101 032c 10000000 		.4byte	.LVL59
 15102 0330 24000000 		.4byte	.LVL61
 15103 0334 0100     		.2byte	0x1
 15104 0336 54       		.byte	0x54
 15105 0337 24000000 		.4byte	.LVL61
 15106 033b 27000000 		.4byte	.LVL62-1
 15107 033f 0100     		.2byte	0x1
 15108 0341 50       		.byte	0x50
 15109 0342 27000000 		.4byte	.LVL62-1
 15110 0346 30000000 		.4byte	.LVL63
 15111 034a 0100     		.2byte	0x1
 15112 034c 54       		.byte	0x54
ARM GAS  /tmp/ccZHgRNF.s 			page 267


 15113 034d 30000000 		.4byte	.LVL63
 15114 0351 32000000 		.4byte	.LVL64
 15115 0355 0100     		.2byte	0x1
 15116 0357 50       		.byte	0x50
 15117 0358 32000000 		.4byte	.LVL64
 15118 035c 34000000 		.4byte	.LFE246
 15119 0360 0100     		.2byte	0x1
 15120 0362 54       		.byte	0x54
 15121 0363 00000000 		.4byte	0
 15122 0367 00000000 		.4byte	0
 15123              	.LLST20:
 15124 036b 00000000 		.4byte	.LVL57
 15125 036f 10000000 		.4byte	.LVL59
 15126 0373 0100     		.2byte	0x1
 15127 0375 51       		.byte	0x51
 15128 0376 10000000 		.4byte	.LVL59
 15129 037a 24000000 		.4byte	.LVL61
 15130 037e 0100     		.2byte	0x1
 15131 0380 55       		.byte	0x55
 15132 0381 24000000 		.4byte	.LVL61
 15133 0385 27000000 		.4byte	.LVL62-1
 15134 0389 0100     		.2byte	0x1
 15135 038b 51       		.byte	0x51
 15136 038c 27000000 		.4byte	.LVL62-1
 15137 0390 30000000 		.4byte	.LVL63
 15138 0394 0100     		.2byte	0x1
 15139 0396 55       		.byte	0x55
 15140 0397 30000000 		.4byte	.LVL63
 15141 039b 34000000 		.4byte	.LFE246
 15142 039f 0100     		.2byte	0x1
 15143 03a1 51       		.byte	0x51
 15144 03a2 00000000 		.4byte	0
 15145 03a6 00000000 		.4byte	0
 15146              	.LLST21:
 15147 03aa 0C000000 		.4byte	.LVL58
 15148 03ae 10000000 		.4byte	.LVL59
 15149 03b2 0100     		.2byte	0x1
 15150 03b4 50       		.byte	0x50
 15151 03b5 10000000 		.4byte	.LVL59
 15152 03b9 24000000 		.4byte	.LVL61
 15153 03bd 0100     		.2byte	0x1
 15154 03bf 54       		.byte	0x54
 15155 03c0 24000000 		.4byte	.LVL61
 15156 03c4 27000000 		.4byte	.LVL62-1
 15157 03c8 0100     		.2byte	0x1
 15158 03ca 50       		.byte	0x50
 15159 03cb 27000000 		.4byte	.LVL62-1
 15160 03cf 30000000 		.4byte	.LVL63
 15161 03d3 0100     		.2byte	0x1
 15162 03d5 54       		.byte	0x54
 15163 03d6 00000000 		.4byte	0
 15164 03da 00000000 		.4byte	0
 15165              	.LLST22:
 15166 03de 10000000 		.4byte	.LVL59
 15167 03e2 24000000 		.4byte	.LVL61
 15168 03e6 0100     		.2byte	0x1
 15169 03e8 55       		.byte	0x55
ARM GAS  /tmp/ccZHgRNF.s 			page 268


 15170 03e9 00000000 		.4byte	0
 15171 03ed 00000000 		.4byte	0
 15172              	.LLST23:
 15173 03f1 10000000 		.4byte	.LVL59
 15174 03f5 24000000 		.4byte	.LVL61
 15175 03f9 0100     		.2byte	0x1
 15176 03fb 54       		.byte	0x54
 15177 03fc 00000000 		.4byte	0
 15178 0400 00000000 		.4byte	0
 15179              	.LLST24:
 15180 0404 00000000 		.4byte	.LVL65
 15181 0408 11000000 		.4byte	.LVL66-1
 15182 040c 0100     		.2byte	0x1
 15183 040e 50       		.byte	0x50
 15184 040f 11000000 		.4byte	.LVL66-1
 15185 0413 7E000000 		.4byte	.LVL70
 15186 0417 0100     		.2byte	0x1
 15187 0419 54       		.byte	0x54
 15188 041a 7E000000 		.4byte	.LVL70
 15189 041e 88000000 		.4byte	.LFE266
 15190 0422 0400     		.2byte	0x4
 15191 0424 F3       		.byte	0xf3
 15192 0425 01       		.uleb128 0x1
 15193 0426 50       		.byte	0x50
 15194 0427 9F       		.byte	0x9f
 15195 0428 00000000 		.4byte	0
 15196 042c 00000000 		.4byte	0
 15197              	.LLST25:
 15198 0430 00000000 		.4byte	.LVL65
 15199 0434 11000000 		.4byte	.LVL66-1
 15200 0438 0100     		.2byte	0x1
 15201 043a 51       		.byte	0x51
 15202 043b 11000000 		.4byte	.LVL66-1
 15203 043f 88000000 		.4byte	.LFE266
 15204 0443 0400     		.2byte	0x4
 15205 0445 F3       		.byte	0xf3
 15206 0446 01       		.uleb128 0x1
 15207 0447 51       		.byte	0x51
 15208 0448 9F       		.byte	0x9f
 15209 0449 00000000 		.4byte	0
 15210 044d 00000000 		.4byte	0
 15211              	.LLST26:
 15212 0451 56000000 		.4byte	.LVL69
 15213 0455 7E000000 		.4byte	.LVL70
 15214 0459 0100     		.2byte	0x1
 15215 045b 54       		.byte	0x54
 15216 045c 7E000000 		.4byte	.LVL70
 15217 0460 88000000 		.4byte	.LFE266
 15218 0464 0400     		.2byte	0x4
 15219 0466 F3       		.byte	0xf3
 15220 0467 01       		.uleb128 0x1
 15221 0468 50       		.byte	0x50
 15222 0469 9F       		.byte	0x9f
 15223 046a 00000000 		.4byte	0
 15224 046e 00000000 		.4byte	0
 15225              	.LLST27:
 15226 0472 00000000 		.4byte	.LVL71
ARM GAS  /tmp/ccZHgRNF.s 			page 269


 15227 0476 0C000000 		.4byte	.LVL72
 15228 047a 0100     		.2byte	0x1
 15229 047c 50       		.byte	0x50
 15230 047d 0C000000 		.4byte	.LVL72
 15231 0481 42000000 		.4byte	.LVL79
 15232 0485 0100     		.2byte	0x1
 15233 0487 55       		.byte	0x55
 15234 0488 42000000 		.4byte	.LVL79
 15235 048c 48000000 		.4byte	.LVL80
 15236 0490 0400     		.2byte	0x4
 15237 0492 F3       		.byte	0xf3
 15238 0493 01       		.uleb128 0x1
 15239 0494 50       		.byte	0x50
 15240 0495 9F       		.byte	0x9f
 15241 0496 48000000 		.4byte	.LVL80
 15242 049a 80000000 		.4byte	.LVL92
 15243 049e 0100     		.2byte	0x1
 15244 04a0 55       		.byte	0x55
 15245 04a1 80000000 		.4byte	.LVL92
 15246 04a5 8C000000 		.4byte	.LVL94
 15247 04a9 0400     		.2byte	0x4
 15248 04ab F3       		.byte	0xf3
 15249 04ac 01       		.uleb128 0x1
 15250 04ad 50       		.byte	0x50
 15251 04ae 9F       		.byte	0x9f
 15252 04af 8C000000 		.4byte	.LVL94
 15253 04b3 96000000 		.4byte	.LVL95
 15254 04b7 0100     		.2byte	0x1
 15255 04b9 55       		.byte	0x55
 15256 04ba 96000000 		.4byte	.LVL95
 15257 04be CC000000 		.4byte	.LVL100
 15258 04c2 0400     		.2byte	0x4
 15259 04c4 F3       		.byte	0xf3
 15260 04c5 01       		.uleb128 0x1
 15261 04c6 50       		.byte	0x50
 15262 04c7 9F       		.byte	0x9f
 15263 04c8 CC000000 		.4byte	.LVL100
 15264 04cc D0000000 		.4byte	.LVL102
 15265 04d0 0100     		.2byte	0x1
 15266 04d2 55       		.byte	0x55
 15267 04d3 D0000000 		.4byte	.LVL102
 15268 04d7 24030000 		.4byte	.LFE267
 15269 04db 0400     		.2byte	0x4
 15270 04dd F3       		.byte	0xf3
 15271 04de 01       		.uleb128 0x1
 15272 04df 50       		.byte	0x50
 15273 04e0 9F       		.byte	0x9f
 15274 04e1 00000000 		.4byte	0
 15275 04e5 00000000 		.4byte	0
 15276              	.LLST28:
 15277 04e9 00000000 		.4byte	.LVL71
 15278 04ed 13000000 		.4byte	.LVL73-1
 15279 04f1 0100     		.2byte	0x1
 15280 04f3 51       		.byte	0x51
 15281 04f4 13000000 		.4byte	.LVL73-1
 15282 04f8 24030000 		.4byte	.LFE267
 15283 04fc 0400     		.2byte	0x4
ARM GAS  /tmp/ccZHgRNF.s 			page 270


 15284 04fe F3       		.byte	0xf3
 15285 04ff 01       		.uleb128 0x1
 15286 0500 51       		.byte	0x51
 15287 0501 9F       		.byte	0x9f
 15288 0502 00000000 		.4byte	0
 15289 0506 00000000 		.4byte	0
 15290              	.LLST29:
 15291 050a 00000000 		.4byte	.LVL71
 15292 050e 13000000 		.4byte	.LVL73-1
 15293 0512 0100     		.2byte	0x1
 15294 0514 52       		.byte	0x52
 15295 0515 13000000 		.4byte	.LVL73-1
 15296 0519 24030000 		.4byte	.LFE267
 15297 051d 0400     		.2byte	0x4
 15298 051f F3       		.byte	0xf3
 15299 0520 01       		.uleb128 0x1
 15300 0521 52       		.byte	0x52
 15301 0522 9F       		.byte	0x9f
 15302 0523 00000000 		.4byte	0
 15303 0527 00000000 		.4byte	0
 15304              	.LLST30:
 15305 052b 7A000000 		.4byte	.LVL91
 15306 052f 88000000 		.4byte	.LVL93
 15307 0533 0100     		.2byte	0x1
 15308 0535 50       		.byte	0x50
 15309 0536 8C000000 		.4byte	.LVL94
 15310 053a 96000000 		.4byte	.LVL95
 15311 053e 0100     		.2byte	0x1
 15312 0540 50       		.byte	0x50
 15313 0541 D8000000 		.4byte	.LVL103
 15314 0545 DC000000 		.4byte	.LVL104
 15315 0549 0100     		.2byte	0x1
 15316 054b 50       		.byte	0x50
 15317 054c A0010000 		.4byte	.LVL123
 15318 0550 AA010000 		.4byte	.LVL124
 15319 0554 0200     		.2byte	0x2
 15320 0556 31       		.byte	0x31
 15321 0557 9F       		.byte	0x9f
 15322 0558 AA010000 		.4byte	.LVL124
 15323 055c B6010000 		.4byte	.LVL125
 15324 0560 0200     		.2byte	0x2
 15325 0562 32       		.byte	0x32
 15326 0563 9F       		.byte	0x9f
 15327 0564 B6010000 		.4byte	.LVL125
 15328 0568 E2010000 		.4byte	.LVL130
 15329 056c 0100     		.2byte	0x1
 15330 056e 55       		.byte	0x55
 15331 056f 10020000 		.4byte	.LVL134
 15332 0573 12020000 		.4byte	.LVL135
 15333 0577 0100     		.2byte	0x1
 15334 0579 50       		.byte	0x50
 15335 057a D0020000 		.4byte	.LVL140
 15336 057e D4020000 		.4byte	.LVL142
 15337 0582 0100     		.2byte	0x1
 15338 0584 55       		.byte	0x55
 15339 0585 D4020000 		.4byte	.LVL142
 15340 0589 0E030000 		.4byte	.LVL147
ARM GAS  /tmp/ccZHgRNF.s 			page 271


 15341 058d 0200     		.2byte	0x2
 15342 058f 33       		.byte	0x33
 15343 0590 9F       		.byte	0x9f
 15344 0591 0E030000 		.4byte	.LVL147
 15345 0595 24030000 		.4byte	.LFE267
 15346 0599 0200     		.2byte	0x2
 15347 059b 31       		.byte	0x31
 15348 059c 9F       		.byte	0x9f
 15349 059d 00000000 		.4byte	0
 15350 05a1 00000000 		.4byte	0
 15351              	.LLST31:
 15352 05a5 14000000 		.4byte	.LVL73
 15353 05a9 28000000 		.4byte	.LVL75
 15354 05ad 0100     		.2byte	0x1
 15355 05af 50       		.byte	0x50
 15356 05b0 28000000 		.4byte	.LVL75
 15357 05b4 42000000 		.4byte	.LVL79
 15358 05b8 0100     		.2byte	0x1
 15359 05ba 56       		.byte	0x56
 15360 05bb 48000000 		.4byte	.LVL80
 15361 05bf 4A000000 		.4byte	.LVL81
 15362 05c3 0100     		.2byte	0x1
 15363 05c5 50       		.byte	0x50
 15364 05c6 4A000000 		.4byte	.LVL81
 15365 05ca 50000000 		.4byte	.LVL82
 15366 05ce 0100     		.2byte	0x1
 15367 05d0 56       		.byte	0x56
 15368 05d1 50000000 		.4byte	.LVL82
 15369 05d5 52000000 		.4byte	.LVL83
 15370 05d9 0100     		.2byte	0x1
 15371 05db 50       		.byte	0x50
 15372 05dc 52000000 		.4byte	.LVL83
 15373 05e0 6C000000 		.4byte	.LVL87
 15374 05e4 0100     		.2byte	0x1
 15375 05e6 56       		.byte	0x56
 15376 05e7 CC000000 		.4byte	.LVL100
 15377 05eb D0000000 		.4byte	.LVL102
 15378 05ef 0100     		.2byte	0x1
 15379 05f1 56       		.byte	0x56
 15380 05f2 00000000 		.4byte	0
 15381 05f6 00000000 		.4byte	0
 15382              	.LLST32:
 15383 05fa 2C000000 		.4byte	.LVL76
 15384 05fe 30000000 		.4byte	.LVL77
 15385 0602 0100     		.2byte	0x1
 15386 0604 50       		.byte	0x50
 15387 0605 3C000000 		.4byte	.LVL78
 15388 0609 42000000 		.4byte	.LVL79
 15389 060d 0100     		.2byte	0x1
 15390 060f 50       		.byte	0x50
 15391 0610 58000000 		.4byte	.LVL84
 15392 0614 66000000 		.4byte	.LVL85
 15393 0618 0100     		.2byte	0x1
 15394 061a 50       		.byte	0x50
 15395 061b 68000000 		.4byte	.LVL86
 15396 061f 70000000 		.4byte	.LVL88
 15397 0623 0100     		.2byte	0x1
ARM GAS  /tmp/ccZHgRNF.s 			page 272


 15398 0625 50       		.byte	0x50
 15399 0626 72000000 		.4byte	.LVL89
 15400 062a 74000000 		.4byte	.LVL90
 15401 062e 0100     		.2byte	0x1
 15402 0630 50       		.byte	0x50
 15403 0631 CC000000 		.4byte	.LVL100
 15404 0635 CE000000 		.4byte	.LVL101
 15405 0639 0100     		.2byte	0x1
 15406 063b 50       		.byte	0x50
 15407 063c 00000000 		.4byte	0
 15408 0640 00000000 		.4byte	0
 15409              	.LLST33:
 15410 0644 72000000 		.4byte	.LVL89
 15411 0648 80000000 		.4byte	.LVL92
 15412 064c 0200     		.2byte	0x2
 15413 064e 30       		.byte	0x30
 15414 064f 9F       		.byte	0x9f
 15415 0650 80000000 		.4byte	.LVL92
 15416 0654 8C000000 		.4byte	.LVL94
 15417 0658 0100     		.2byte	0x1
 15418 065a 56       		.byte	0x56
 15419 065b 8C000000 		.4byte	.LVL94
 15420 065f BE000000 		.4byte	.LVL98
 15421 0663 0200     		.2byte	0x2
 15422 0665 30       		.byte	0x30
 15423 0666 9F       		.byte	0x9f
 15424 0667 C2000000 		.4byte	.LVL99
 15425 066b CC000000 		.4byte	.LVL100
 15426 066f 0100     		.2byte	0x1
 15427 0671 56       		.byte	0x56
 15428 0672 D0000000 		.4byte	.LVL102
 15429 0676 FE010000 		.4byte	.LVL133
 15430 067a 0100     		.2byte	0x1
 15431 067c 56       		.byte	0x56
 15432 067d 10020000 		.4byte	.LVL134
 15433 0681 4E020000 		.4byte	.LVL139
 15434 0685 0100     		.2byte	0x1
 15435 0687 56       		.byte	0x56
 15436 0688 D0020000 		.4byte	.LVL140
 15437 068c 24030000 		.4byte	.LFE267
 15438 0690 0100     		.2byte	0x1
 15439 0692 56       		.byte	0x56
 15440 0693 00000000 		.4byte	0
 15441 0697 00000000 		.4byte	0
 15442              	.LLST34:
 15443 069b F6000000 		.4byte	.LVL105
 15444 069f FA000000 		.4byte	.LVL106
 15445 06a3 0800     		.2byte	0x8
 15446 06a5 72       		.byte	0x72
 15447 06a6 00       		.sleb128 0
 15448 06a7 38       		.byte	0x38
 15449 06a8 24       		.byte	0x24
 15450 06a9 73       		.byte	0x73
 15451 06aa 00       		.sleb128 0
 15452 06ab 21       		.byte	0x21
 15453 06ac 9F       		.byte	0x9f
 15454 06ad FA000000 		.4byte	.LVL106
ARM GAS  /tmp/ccZHgRNF.s 			page 273


 15455 06b1 08010000 		.4byte	.LVL107
 15456 06b5 0100     		.2byte	0x1
 15457 06b7 53       		.byte	0x53
 15458 06b8 08010000 		.4byte	.LVL107
 15459 06bc 0C010000 		.4byte	.LVL108
 15460 06c0 0E00     		.2byte	0xe
 15461 06c2 72       		.byte	0x72
 15462 06c3 00       		.sleb128 0
 15463 06c4 38       		.byte	0x38
 15464 06c5 24       		.byte	0x24
 15465 06c6 74       		.byte	0x74
 15466 06c7 C600     		.sleb128 70
 15467 06c9 94       		.byte	0x94
 15468 06ca 01       		.byte	0x1
 15469 06cb 08       		.byte	0x8
 15470 06cc FF       		.byte	0xff
 15471 06cd 1A       		.byte	0x1a
 15472 06ce 21       		.byte	0x21
 15473 06cf 9F       		.byte	0x9f
 15474 06d0 0C010000 		.4byte	.LVL108
 15475 06d4 18010000 		.4byte	.LVL109
 15476 06d8 1400     		.2byte	0x14
 15477 06da 74       		.byte	0x74
 15478 06db C700     		.sleb128 71
 15479 06dd 94       		.byte	0x94
 15480 06de 01       		.byte	0x1
 15481 06df 08       		.byte	0x8
 15482 06e0 FF       		.byte	0xff
 15483 06e1 1A       		.byte	0x1a
 15484 06e2 38       		.byte	0x38
 15485 06e3 24       		.byte	0x24
 15486 06e4 74       		.byte	0x74
 15487 06e5 C600     		.sleb128 70
 15488 06e7 94       		.byte	0x94
 15489 06e8 01       		.byte	0x1
 15490 06e9 08       		.byte	0x8
 15491 06ea FF       		.byte	0xff
 15492 06eb 1A       		.byte	0x1a
 15493 06ec 21       		.byte	0x21
 15494 06ed 9F       		.byte	0x9f
 15495 06ee 18010000 		.4byte	.LVL109
 15496 06f2 26010000 		.4byte	.LVL110
 15497 06f6 0100     		.2byte	0x1
 15498 06f8 53       		.byte	0x53
 15499 06f9 26010000 		.4byte	.LVL110
 15500 06fd 88010000 		.4byte	.LVL118
 15501 0701 0900     		.2byte	0x9
 15502 0703 72       		.byte	0x72
 15503 0704 00       		.sleb128 0
 15504 0705 08       		.byte	0x8
 15505 0706 FF       		.byte	0xff
 15506 0707 1A       		.byte	0x1a
 15507 0708 73       		.byte	0x73
 15508 0709 00       		.sleb128 0
 15509 070a 1E       		.byte	0x1e
 15510 070b 9F       		.byte	0x9f
 15511 070c 88010000 		.4byte	.LVL118
ARM GAS  /tmp/ccZHgRNF.s 			page 274


 15512 0710 F2010000 		.4byte	.LVL132
 15513 0714 0C00     		.2byte	0xc
 15514 0716 74       		.byte	0x74
 15515 0717 C000     		.sleb128 64
 15516 0719 94       		.byte	0x94
 15517 071a 01       		.byte	0x1
 15518 071b 08       		.byte	0x8
 15519 071c FF       		.byte	0xff
 15520 071d 1A       		.byte	0x1a
 15521 071e 73       		.byte	0x73
 15522 071f 00       		.sleb128 0
 15523 0720 1E       		.byte	0x1e
 15524 0721 9F       		.byte	0x9f
 15525 0722 F2010000 		.4byte	.LVL132
 15526 0726 FE010000 		.4byte	.LVL133
 15527 072a 0D00     		.2byte	0xd
 15528 072c 74       		.byte	0x74
 15529 072d C000     		.sleb128 64
 15530 072f 94       		.byte	0x94
 15531 0730 01       		.byte	0x1
 15532 0731 08       		.byte	0x8
 15533 0732 FF       		.byte	0xff
 15534 0733 1A       		.byte	0x1a
 15535 0734 74       		.byte	0x74
 15536 0735 18       		.sleb128 24
 15537 0736 06       		.byte	0x6
 15538 0737 1E       		.byte	0x1e
 15539 0738 9F       		.byte	0x9f
 15540 0739 14020000 		.4byte	.LVL136
 15541 073d 2B020000 		.4byte	.LVL138-1
 15542 0741 0D00     		.2byte	0xd
 15543 0743 74       		.byte	0x74
 15544 0744 C000     		.sleb128 64
 15545 0746 94       		.byte	0x94
 15546 0747 01       		.byte	0x1
 15547 0748 08       		.byte	0x8
 15548 0749 FF       		.byte	0xff
 15549 074a 1A       		.byte	0x1a
 15550 074b 74       		.byte	0x74
 15551 074c 18       		.sleb128 24
 15552 074d 06       		.byte	0x6
 15553 074e 1E       		.byte	0x1e
 15554 074f 9F       		.byte	0x9f
 15555 0750 D0020000 		.4byte	.LVL140
 15556 0754 24030000 		.4byte	.LFE267
 15557 0758 0C00     		.2byte	0xc
 15558 075a 74       		.byte	0x74
 15559 075b C000     		.sleb128 64
 15560 075d 94       		.byte	0x94
 15561 075e 01       		.byte	0x1
 15562 075f 08       		.byte	0x8
 15563 0760 FF       		.byte	0xff
 15564 0761 1A       		.byte	0x1a
 15565 0762 73       		.byte	0x73
 15566 0763 00       		.sleb128 0
 15567 0764 1E       		.byte	0x1e
 15568 0765 9F       		.byte	0x9f
ARM GAS  /tmp/ccZHgRNF.s 			page 275


 15569 0766 00000000 		.4byte	0
 15570 076a 00000000 		.4byte	0
 15571              	.LLST35:
 15572 076e 50010000 		.4byte	.LVL111
 15573 0772 54010000 		.4byte	.LVL112
 15574 0776 0800     		.2byte	0x8
 15575 0778 77       		.byte	0x77
 15576 0779 00       		.sleb128 0
 15577 077a 38       		.byte	0x38
 15578 077b 24       		.byte	0x24
 15579 077c 75       		.byte	0x75
 15580 077d 00       		.sleb128 0
 15581 077e 21       		.byte	0x21
 15582 077f 9F       		.byte	0x9f
 15583 0780 54010000 		.4byte	.LVL112
 15584 0784 62010000 		.4byte	.LVL113
 15585 0788 0100     		.2byte	0x1
 15586 078a 55       		.byte	0x55
 15587 078b 62010000 		.4byte	.LVL113
 15588 078f 66010000 		.4byte	.LVL114
 15589 0793 0E00     		.2byte	0xe
 15590 0795 77       		.byte	0x77
 15591 0796 00       		.sleb128 0
 15592 0797 38       		.byte	0x38
 15593 0798 24       		.byte	0x24
 15594 0799 74       		.byte	0x74
 15595 079a C300     		.sleb128 67
 15596 079c 94       		.byte	0x94
 15597 079d 01       		.byte	0x1
 15598 079e 08       		.byte	0x8
 15599 079f FF       		.byte	0xff
 15600 07a0 1A       		.byte	0x1a
 15601 07a1 21       		.byte	0x21
 15602 07a2 9F       		.byte	0x9f
 15603 07a3 66010000 		.4byte	.LVL114
 15604 07a7 76010000 		.4byte	.LVL115
 15605 07ab 1400     		.2byte	0x14
 15606 07ad 74       		.byte	0x74
 15607 07ae C400     		.sleb128 68
 15608 07b0 94       		.byte	0x94
 15609 07b1 01       		.byte	0x1
 15610 07b2 08       		.byte	0x8
 15611 07b3 FF       		.byte	0xff
 15612 07b4 1A       		.byte	0x1a
 15613 07b5 38       		.byte	0x38
 15614 07b6 24       		.byte	0x24
 15615 07b7 74       		.byte	0x74
 15616 07b8 C300     		.sleb128 67
 15617 07ba 94       		.byte	0x94
 15618 07bb 01       		.byte	0x1
 15619 07bc 08       		.byte	0x8
 15620 07bd FF       		.byte	0xff
 15621 07be 1A       		.byte	0x1a
 15622 07bf 21       		.byte	0x21
 15623 07c0 9F       		.byte	0x9f
 15624 07c1 76010000 		.4byte	.LVL115
 15625 07c5 96010000 		.4byte	.LVL121
ARM GAS  /tmp/ccZHgRNF.s 			page 276


 15626 07c9 0100     		.2byte	0x1
 15627 07cb 55       		.byte	0x55
 15628 07cc 00000000 		.4byte	0
 15629 07d0 00000000 		.4byte	0
 15630              	.LLST36:
 15631 07d4 8E010000 		.4byte	.LVL120
 15632 07d8 BC010000 		.4byte	.LVL127
 15633 07dc 0100     		.2byte	0x1
 15634 07de 57       		.byte	0x57
 15635 07df BC010000 		.4byte	.LVL127
 15636 07e3 CE010000 		.4byte	.LVL128
 15637 07e7 1A00     		.2byte	0x1a
 15638 07e9 74       		.byte	0x74
 15639 07ea 3F       		.sleb128 63
 15640 07eb 94       		.byte	0x94
 15641 07ec 01       		.byte	0x1
 15642 07ed 08       		.byte	0x8
 15643 07ee FF       		.byte	0xff
 15644 07ef 1A       		.byte	0x1a
 15645 07f0 38       		.byte	0x38
 15646 07f1 24       		.byte	0x24
 15647 07f2 74       		.byte	0x74
 15648 07f3 3E       		.sleb128 62
 15649 07f4 94       		.byte	0x94
 15650 07f5 01       		.byte	0x1
 15651 07f6 08       		.byte	0x8
 15652 07f7 FF       		.byte	0xff
 15653 07f8 1A       		.byte	0x1a
 15654 07f9 21       		.byte	0x21
 15655 07fa 71       		.byte	0x71
 15656 07fb 00       		.sleb128 0
 15657 07fc 34       		.byte	0x34
 15658 07fd 25       		.byte	0x25
 15659 07fe 22       		.byte	0x22
 15660 07ff 72       		.byte	0x72
 15661 0800 00       		.sleb128 0
 15662 0801 22       		.byte	0x22
 15663 0802 9F       		.byte	0x9f
 15664 0803 CE010000 		.4byte	.LVL128
 15665 0807 E2010000 		.4byte	.LVL130
 15666 080b 2300     		.2byte	0x23
 15667 080d 74       		.byte	0x74
 15668 080e 3F       		.sleb128 63
 15669 080f 94       		.byte	0x94
 15670 0810 01       		.byte	0x1
 15671 0811 08       		.byte	0x8
 15672 0812 FF       		.byte	0xff
 15673 0813 1A       		.byte	0x1a
 15674 0814 38       		.byte	0x38
 15675 0815 24       		.byte	0x24
 15676 0816 74       		.byte	0x74
 15677 0817 3E       		.sleb128 62
 15678 0818 94       		.byte	0x94
 15679 0819 01       		.byte	0x1
 15680 081a 08       		.byte	0x8
 15681 081b FF       		.byte	0xff
 15682 081c 1A       		.byte	0x1a
ARM GAS  /tmp/ccZHgRNF.s 			page 277


 15683 081d 21       		.byte	0x21
 15684 081e 71       		.byte	0x71
 15685 081f 00       		.sleb128 0
 15686 0820 34       		.byte	0x34
 15687 0821 25       		.byte	0x25
 15688 0822 22       		.byte	0x22
 15689 0823 74       		.byte	0x74
 15690 0824 C000     		.sleb128 64
 15691 0826 94       		.byte	0x94
 15692 0827 01       		.byte	0x1
 15693 0828 08       		.byte	0x8
 15694 0829 FF       		.byte	0xff
 15695 082a 1A       		.byte	0x1a
 15696 082b 73       		.byte	0x73
 15697 082c 00       		.sleb128 0
 15698 082d 1E       		.byte	0x1e
 15699 082e 22       		.byte	0x22
 15700 082f 9F       		.byte	0x9f
 15701 0830 E2010000 		.4byte	.LVL130
 15702 0834 F2010000 		.4byte	.LVL132
 15703 0838 3400     		.2byte	0x34
 15704 083a 74       		.byte	0x74
 15705 083b 3F       		.sleb128 63
 15706 083c 94       		.byte	0x94
 15707 083d 01       		.byte	0x1
 15708 083e 08       		.byte	0x8
 15709 083f FF       		.byte	0xff
 15710 0840 1A       		.byte	0x1a
 15711 0841 38       		.byte	0x38
 15712 0842 24       		.byte	0x24
 15713 0843 74       		.byte	0x74
 15714 0844 3E       		.sleb128 62
 15715 0845 94       		.byte	0x94
 15716 0846 01       		.byte	0x1
 15717 0847 08       		.byte	0x8
 15718 0848 FF       		.byte	0xff
 15719 0849 1A       		.byte	0x1a
 15720 084a 21       		.byte	0x21
 15721 084b 74       		.byte	0x74
 15722 084c C200     		.sleb128 66
 15723 084e 94       		.byte	0x94
 15724 084f 01       		.byte	0x1
 15725 0850 08       		.byte	0x8
 15726 0851 FF       		.byte	0xff
 15727 0852 1A       		.byte	0x1a
 15728 0853 38       		.byte	0x38
 15729 0854 24       		.byte	0x24
 15730 0855 74       		.byte	0x74
 15731 0856 C100     		.sleb128 65
 15732 0858 94       		.byte	0x94
 15733 0859 01       		.byte	0x1
 15734 085a 08       		.byte	0x8
 15735 085b FF       		.byte	0xff
 15736 085c 1A       		.byte	0x1a
 15737 085d 21       		.byte	0x21
 15738 085e 34       		.byte	0x34
 15739 085f 25       		.byte	0x25
ARM GAS  /tmp/ccZHgRNF.s 			page 278


 15740 0860 22       		.byte	0x22
 15741 0861 74       		.byte	0x74
 15742 0862 C000     		.sleb128 64
 15743 0864 94       		.byte	0x94
 15744 0865 01       		.byte	0x1
 15745 0866 08       		.byte	0x8
 15746 0867 FF       		.byte	0xff
 15747 0868 1A       		.byte	0x1a
 15748 0869 73       		.byte	0x73
 15749 086a 00       		.sleb128 0
 15750 086b 1E       		.byte	0x1e
 15751 086c 22       		.byte	0x22
 15752 086d 9F       		.byte	0x9f
 15753 086e F2010000 		.4byte	.LVL132
 15754 0872 FE010000 		.4byte	.LVL133
 15755 0876 3500     		.2byte	0x35
 15756 0878 74       		.byte	0x74
 15757 0879 3F       		.sleb128 63
 15758 087a 94       		.byte	0x94
 15759 087b 01       		.byte	0x1
 15760 087c 08       		.byte	0x8
 15761 087d FF       		.byte	0xff
 15762 087e 1A       		.byte	0x1a
 15763 087f 38       		.byte	0x38
 15764 0880 24       		.byte	0x24
 15765 0881 74       		.byte	0x74
 15766 0882 3E       		.sleb128 62
 15767 0883 94       		.byte	0x94
 15768 0884 01       		.byte	0x1
 15769 0885 08       		.byte	0x8
 15770 0886 FF       		.byte	0xff
 15771 0887 1A       		.byte	0x1a
 15772 0888 21       		.byte	0x21
 15773 0889 74       		.byte	0x74
 15774 088a C200     		.sleb128 66
 15775 088c 94       		.byte	0x94
 15776 088d 01       		.byte	0x1
 15777 088e 08       		.byte	0x8
 15778 088f FF       		.byte	0xff
 15779 0890 1A       		.byte	0x1a
 15780 0891 38       		.byte	0x38
 15781 0892 24       		.byte	0x24
 15782 0893 74       		.byte	0x74
 15783 0894 C100     		.sleb128 65
 15784 0896 94       		.byte	0x94
 15785 0897 01       		.byte	0x1
 15786 0898 08       		.byte	0x8
 15787 0899 FF       		.byte	0xff
 15788 089a 1A       		.byte	0x1a
 15789 089b 21       		.byte	0x21
 15790 089c 34       		.byte	0x34
 15791 089d 25       		.byte	0x25
 15792 089e 22       		.byte	0x22
 15793 089f 74       		.byte	0x74
 15794 08a0 C000     		.sleb128 64
 15795 08a2 94       		.byte	0x94
 15796 08a3 01       		.byte	0x1
ARM GAS  /tmp/ccZHgRNF.s 			page 279


 15797 08a4 08       		.byte	0x8
 15798 08a5 FF       		.byte	0xff
 15799 08a6 1A       		.byte	0x1a
 15800 08a7 74       		.byte	0x74
 15801 08a8 18       		.sleb128 24
 15802 08a9 06       		.byte	0x6
 15803 08aa 1E       		.byte	0x1e
 15804 08ab 22       		.byte	0x22
 15805 08ac 9F       		.byte	0x9f
 15806 08ad 14020000 		.4byte	.LVL136
 15807 08b1 2B020000 		.4byte	.LVL138-1
 15808 08b5 3500     		.2byte	0x35
 15809 08b7 74       		.byte	0x74
 15810 08b8 3F       		.sleb128 63
 15811 08b9 94       		.byte	0x94
 15812 08ba 01       		.byte	0x1
 15813 08bb 08       		.byte	0x8
 15814 08bc FF       		.byte	0xff
 15815 08bd 1A       		.byte	0x1a
 15816 08be 38       		.byte	0x38
 15817 08bf 24       		.byte	0x24
 15818 08c0 74       		.byte	0x74
 15819 08c1 3E       		.sleb128 62
 15820 08c2 94       		.byte	0x94
 15821 08c3 01       		.byte	0x1
 15822 08c4 08       		.byte	0x8
 15823 08c5 FF       		.byte	0xff
 15824 08c6 1A       		.byte	0x1a
 15825 08c7 21       		.byte	0x21
 15826 08c8 74       		.byte	0x74
 15827 08c9 C200     		.sleb128 66
 15828 08cb 94       		.byte	0x94
 15829 08cc 01       		.byte	0x1
 15830 08cd 08       		.byte	0x8
 15831 08ce FF       		.byte	0xff
 15832 08cf 1A       		.byte	0x1a
 15833 08d0 38       		.byte	0x38
 15834 08d1 24       		.byte	0x24
 15835 08d2 74       		.byte	0x74
 15836 08d3 C100     		.sleb128 65
 15837 08d5 94       		.byte	0x94
 15838 08d6 01       		.byte	0x1
 15839 08d7 08       		.byte	0x8
 15840 08d8 FF       		.byte	0xff
 15841 08d9 1A       		.byte	0x1a
 15842 08da 21       		.byte	0x21
 15843 08db 34       		.byte	0x34
 15844 08dc 25       		.byte	0x25
 15845 08dd 22       		.byte	0x22
 15846 08de 74       		.byte	0x74
 15847 08df C000     		.sleb128 64
 15848 08e1 94       		.byte	0x94
 15849 08e2 01       		.byte	0x1
 15850 08e3 08       		.byte	0x8
 15851 08e4 FF       		.byte	0xff
 15852 08e5 1A       		.byte	0x1a
 15853 08e6 74       		.byte	0x74
ARM GAS  /tmp/ccZHgRNF.s 			page 280


 15854 08e7 18       		.sleb128 24
 15855 08e8 06       		.byte	0x6
 15856 08e9 1E       		.byte	0x1e
 15857 08ea 22       		.byte	0x22
 15858 08eb 9F       		.byte	0x9f
 15859 08ec D0020000 		.4byte	.LVL140
 15860 08f0 D4020000 		.4byte	.LVL142
 15861 08f4 2300     		.2byte	0x23
 15862 08f6 74       		.byte	0x74
 15863 08f7 3F       		.sleb128 63
 15864 08f8 94       		.byte	0x94
 15865 08f9 01       		.byte	0x1
 15866 08fa 08       		.byte	0x8
 15867 08fb FF       		.byte	0xff
 15868 08fc 1A       		.byte	0x1a
 15869 08fd 38       		.byte	0x38
 15870 08fe 24       		.byte	0x24
 15871 08ff 74       		.byte	0x74
 15872 0900 3E       		.sleb128 62
 15873 0901 94       		.byte	0x94
 15874 0902 01       		.byte	0x1
 15875 0903 08       		.byte	0x8
 15876 0904 FF       		.byte	0xff
 15877 0905 1A       		.byte	0x1a
 15878 0906 21       		.byte	0x21
 15879 0907 71       		.byte	0x71
 15880 0908 00       		.sleb128 0
 15881 0909 34       		.byte	0x34
 15882 090a 25       		.byte	0x25
 15883 090b 22       		.byte	0x22
 15884 090c 74       		.byte	0x74
 15885 090d C000     		.sleb128 64
 15886 090f 94       		.byte	0x94
 15887 0910 01       		.byte	0x1
 15888 0911 08       		.byte	0x8
 15889 0912 FF       		.byte	0xff
 15890 0913 1A       		.byte	0x1a
 15891 0914 73       		.byte	0x73
 15892 0915 00       		.sleb128 0
 15893 0916 1E       		.byte	0x1e
 15894 0917 22       		.byte	0x22
 15895 0918 9F       		.byte	0x9f
 15896 0919 D4020000 		.4byte	.LVL142
 15897 091d DC020000 		.4byte	.LVL144
 15898 0921 0100     		.2byte	0x1
 15899 0923 57       		.byte	0x57
 15900 0924 DC020000 		.4byte	.LVL144
 15901 0928 FA020000 		.4byte	.LVL145
 15902 092c 1400     		.2byte	0x14
 15903 092e 74       		.byte	0x74
 15904 092f C000     		.sleb128 64
 15905 0931 94       		.byte	0x94
 15906 0932 01       		.byte	0x1
 15907 0933 08       		.byte	0x8
 15908 0934 FF       		.byte	0xff
 15909 0935 1A       		.byte	0x1a
 15910 0936 73       		.byte	0x73
ARM GAS  /tmp/ccZHgRNF.s 			page 281


 15911 0937 00       		.sleb128 0
 15912 0938 1E       		.byte	0x1e
 15913 0939 71       		.byte	0x71
 15914 093a 00       		.sleb128 0
 15915 093b 34       		.byte	0x34
 15916 093c 25       		.byte	0x25
 15917 093d 22       		.byte	0x22
 15918 093e 7C       		.byte	0x7c
 15919 093f 00       		.sleb128 0
 15920 0940 22       		.byte	0x22
 15921 0941 9F       		.byte	0x9f
 15922 0942 FA020000 		.4byte	.LVL145
 15923 0946 0E030000 		.4byte	.LVL147
 15924 094a 2500     		.2byte	0x25
 15925 094c 74       		.byte	0x74
 15926 094d C000     		.sleb128 64
 15927 094f 94       		.byte	0x94
 15928 0950 01       		.byte	0x1
 15929 0951 08       		.byte	0x8
 15930 0952 FF       		.byte	0xff
 15931 0953 1A       		.byte	0x1a
 15932 0954 73       		.byte	0x73
 15933 0955 00       		.sleb128 0
 15934 0956 1E       		.byte	0x1e
 15935 0957 74       		.byte	0x74
 15936 0958 C200     		.sleb128 66
 15937 095a 94       		.byte	0x94
 15938 095b 01       		.byte	0x1
 15939 095c 08       		.byte	0x8
 15940 095d FF       		.byte	0xff
 15941 095e 1A       		.byte	0x1a
 15942 095f 38       		.byte	0x38
 15943 0960 24       		.byte	0x24
 15944 0961 74       		.byte	0x74
 15945 0962 C100     		.sleb128 65
 15946 0964 94       		.byte	0x94
 15947 0965 01       		.byte	0x1
 15948 0966 08       		.byte	0x8
 15949 0967 FF       		.byte	0xff
 15950 0968 1A       		.byte	0x1a
 15951 0969 21       		.byte	0x21
 15952 096a 34       		.byte	0x34
 15953 096b 25       		.byte	0x25
 15954 096c 22       		.byte	0x22
 15955 096d 7C       		.byte	0x7c
 15956 096e 00       		.sleb128 0
 15957 096f 22       		.byte	0x22
 15958 0970 9F       		.byte	0x9f
 15959 0971 0E030000 		.4byte	.LVL147
 15960 0975 24030000 		.4byte	.LFE267
 15961 0979 0100     		.2byte	0x1
 15962 097b 57       		.byte	0x57
 15963 097c 00000000 		.4byte	0
 15964 0980 00000000 		.4byte	0
 15965              	.LLST37:
 15966 0984 9A010000 		.4byte	.LVL122
 15967 0988 B8010000 		.4byte	.LVL126
ARM GAS  /tmp/ccZHgRNF.s 			page 282


 15968 098c 0100     		.2byte	0x1
 15969 098e 50       		.byte	0x50
 15970 098f B8010000 		.4byte	.LVL126
 15971 0993 DC010000 		.4byte	.LVL129
 15972 0997 0300     		.2byte	0x3
 15973 0999 70       		.byte	0x70
 15974 099a 7E       		.sleb128 -2
 15975 099b 9F       		.byte	0x9f
 15976 099c DC010000 		.4byte	.LVL129
 15977 09a0 E2010000 		.4byte	.LVL130
 15978 09a4 0600     		.2byte	0x6
 15979 09a6 74       		.byte	0x74
 15980 09a7 14       		.sleb128 20
 15981 09a8 06       		.byte	0x6
 15982 09a9 32       		.byte	0x32
 15983 09aa 1C       		.byte	0x1c
 15984 09ab 9F       		.byte	0x9f
 15985 09ac D0020000 		.4byte	.LVL140
 15986 09b0 D2020000 		.4byte	.LVL141
 15987 09b4 0300     		.2byte	0x3
 15988 09b6 70       		.byte	0x70
 15989 09b7 7E       		.sleb128 -2
 15990 09b8 9F       		.byte	0x9f
 15991 09b9 D2020000 		.4byte	.LVL141
 15992 09bd D4020000 		.4byte	.LVL142
 15993 09c1 0600     		.2byte	0x6
 15994 09c3 74       		.byte	0x74
 15995 09c4 14       		.sleb128 20
 15996 09c5 06       		.byte	0x6
 15997 09c6 32       		.byte	0x32
 15998 09c7 1C       		.byte	0x1c
 15999 09c8 9F       		.byte	0x9f
 16000 09c9 D4020000 		.4byte	.LVL142
 16001 09cd D6020000 		.4byte	.LVL143
 16002 09d1 0100     		.2byte	0x1
 16003 09d3 50       		.byte	0x50
 16004 09d4 D6020000 		.4byte	.LVL143
 16005 09d8 08030000 		.4byte	.LVL146
 16006 09dc 0300     		.2byte	0x3
 16007 09de 70       		.byte	0x70
 16008 09df 7E       		.sleb128 -2
 16009 09e0 9F       		.byte	0x9f
 16010 09e1 08030000 		.4byte	.LVL146
 16011 09e5 0E030000 		.4byte	.LVL147
 16012 09e9 0600     		.2byte	0x6
 16013 09eb 74       		.byte	0x74
 16014 09ec 14       		.sleb128 20
 16015 09ed 06       		.byte	0x6
 16016 09ee 32       		.byte	0x32
 16017 09ef 1C       		.byte	0x1c
 16018 09f0 9F       		.byte	0x9f
 16019 09f1 0E030000 		.4byte	.LVL147
 16020 09f5 24030000 		.4byte	.LFE267
 16021 09f9 0100     		.2byte	0x1
 16022 09fb 50       		.byte	0x50
 16023 09fc 00000000 		.4byte	0
 16024 0a00 00000000 		.4byte	0
ARM GAS  /tmp/ccZHgRNF.s 			page 283


 16025              	.LLST38:
 16026 0a04 E2010000 		.4byte	.LVL130
 16027 0a08 E6010000 		.4byte	.LVL131
 16028 0a0c 0100     		.2byte	0x1
 16029 0a0e 50       		.byte	0x50
 16030 0a0f E6010000 		.4byte	.LVL131
 16031 0a13 FE010000 		.4byte	.LVL133
 16032 0a17 0400     		.2byte	0x4
 16033 0a19 70       		.byte	0x70
 16034 0a1a 817C     		.sleb128 -511
 16035 0a1c 9F       		.byte	0x9f
 16036 0a1d 14020000 		.4byte	.LVL136
 16037 0a21 28020000 		.4byte	.LVL137
 16038 0a25 0400     		.2byte	0x4
 16039 0a27 70       		.byte	0x70
 16040 0a28 817C     		.sleb128 -511
 16041 0a2a 9F       		.byte	0x9f
 16042 0a2b 08030000 		.4byte	.LVL146
 16043 0a2f 0E030000 		.4byte	.LVL147
 16044 0a33 0100     		.2byte	0x1
 16045 0a35 50       		.byte	0x50
 16046 0a36 00000000 		.4byte	0
 16047 0a3a 00000000 		.4byte	0
 16048              	.LLST39:
 16049 0a3e 7E010000 		.4byte	.LVL116
 16050 0a42 82010000 		.4byte	.LVL117
 16051 0a46 0800     		.2byte	0x8
 16052 0a48 7C       		.byte	0x7c
 16053 0a49 00       		.sleb128 0
 16054 0a4a 38       		.byte	0x38
 16055 0a4b 24       		.byte	0x24
 16056 0a4c 77       		.byte	0x77
 16057 0a4d 00       		.sleb128 0
 16058 0a4e 21       		.byte	0x21
 16059 0a4f 9F       		.byte	0x9f
 16060 0a50 82010000 		.4byte	.LVL117
 16061 0a54 8C010000 		.4byte	.LVL119
 16062 0a58 0D00     		.2byte	0xd
 16063 0a5a 74       		.byte	0x74
 16064 0a5b 3F       		.sleb128 63
 16065 0a5c 94       		.byte	0x94
 16066 0a5d 01       		.byte	0x1
 16067 0a5e 08       		.byte	0x8
 16068 0a5f FF       		.byte	0xff
 16069 0a60 1A       		.byte	0x1a
 16070 0a61 38       		.byte	0x38
 16071 0a62 24       		.byte	0x24
 16072 0a63 77       		.byte	0x77
 16073 0a64 00       		.sleb128 0
 16074 0a65 21       		.byte	0x21
 16075 0a66 9F       		.byte	0x9f
 16076 0a67 8C010000 		.4byte	.LVL119
 16077 0a6b FE010000 		.4byte	.LVL133
 16078 0a6f 1200     		.2byte	0x12
 16079 0a71 74       		.byte	0x74
 16080 0a72 3F       		.sleb128 63
 16081 0a73 94       		.byte	0x94
ARM GAS  /tmp/ccZHgRNF.s 			page 284


 16082 0a74 01       		.byte	0x1
 16083 0a75 08       		.byte	0x8
 16084 0a76 FF       		.byte	0xff
 16085 0a77 1A       		.byte	0x1a
 16086 0a78 38       		.byte	0x38
 16087 0a79 24       		.byte	0x24
 16088 0a7a 74       		.byte	0x74
 16089 0a7b 3E       		.sleb128 62
 16090 0a7c 94       		.byte	0x94
 16091 0a7d 01       		.byte	0x1
 16092 0a7e 08       		.byte	0x8
 16093 0a7f FF       		.byte	0xff
 16094 0a80 1A       		.byte	0x1a
 16095 0a81 21       		.byte	0x21
 16096 0a82 9F       		.byte	0x9f
 16097 0a83 14020000 		.4byte	.LVL136
 16098 0a87 2B020000 		.4byte	.LVL138-1
 16099 0a8b 1200     		.2byte	0x12
 16100 0a8d 74       		.byte	0x74
 16101 0a8e 3F       		.sleb128 63
 16102 0a8f 94       		.byte	0x94
 16103 0a90 01       		.byte	0x1
 16104 0a91 08       		.byte	0x8
 16105 0a92 FF       		.byte	0xff
 16106 0a93 1A       		.byte	0x1a
 16107 0a94 38       		.byte	0x38
 16108 0a95 24       		.byte	0x24
 16109 0a96 74       		.byte	0x74
 16110 0a97 3E       		.sleb128 62
 16111 0a98 94       		.byte	0x94
 16112 0a99 01       		.byte	0x1
 16113 0a9a 08       		.byte	0x8
 16114 0a9b FF       		.byte	0xff
 16115 0a9c 1A       		.byte	0x1a
 16116 0a9d 21       		.byte	0x21
 16117 0a9e 9F       		.byte	0x9f
 16118 0a9f D0020000 		.4byte	.LVL140
 16119 0aa3 24030000 		.4byte	.LFE267
 16120 0aa7 1200     		.2byte	0x12
 16121 0aa9 74       		.byte	0x74
 16122 0aaa 3F       		.sleb128 63
 16123 0aab 94       		.byte	0x94
 16124 0aac 01       		.byte	0x1
 16125 0aad 08       		.byte	0x8
 16126 0aae FF       		.byte	0xff
 16127 0aaf 1A       		.byte	0x1a
 16128 0ab0 38       		.byte	0x38
 16129 0ab1 24       		.byte	0x24
 16130 0ab2 74       		.byte	0x74
 16131 0ab3 3E       		.sleb128 62
 16132 0ab4 94       		.byte	0x94
 16133 0ab5 01       		.byte	0x1
 16134 0ab6 08       		.byte	0x8
 16135 0ab7 FF       		.byte	0xff
 16136 0ab8 1A       		.byte	0x1a
 16137 0ab9 21       		.byte	0x21
 16138 0aba 9F       		.byte	0x9f
ARM GAS  /tmp/ccZHgRNF.s 			page 285


 16139 0abb 00000000 		.4byte	0
 16140 0abf 00000000 		.4byte	0
 16141              	.LLST40:
 16142 0ac3 1E000000 		.4byte	.LVL74
 16143 0ac7 48000000 		.4byte	.LVL80
 16144 0acb 0100     		.2byte	0x1
 16145 0acd 54       		.byte	0x54
 16146 0ace 50000000 		.4byte	.LVL82
 16147 0ad2 24030000 		.4byte	.LFE267
 16148 0ad6 0100     		.2byte	0x1
 16149 0ad8 54       		.byte	0x54
 16150 0ad9 00000000 		.4byte	0
 16151 0add 00000000 		.4byte	0
 16152              	.LLST41:
 16153 0ae1 96000000 		.4byte	.LVL95
 16154 0ae5 B8000000 		.4byte	.LVL97
 16155 0ae9 0300     		.2byte	0x3
 16156 0aeb 73       		.byte	0x73
 16157 0aec 7C       		.sleb128 -4
 16158 0aed 9F       		.byte	0x9f
 16159 0aee B8000000 		.4byte	.LVL97
 16160 0af2 BE000000 		.4byte	.LVL98
 16161 0af6 0300     		.2byte	0x3
 16162 0af8 73       		.byte	0x73
 16163 0af9 6C       		.sleb128 -20
 16164 0afa 9F       		.byte	0x9f
 16165 0afb 00000000 		.4byte	0
 16166 0aff 00000000 		.4byte	0
 16167              	.LLST42:
 16168 0b03 00000000 		.4byte	.LVL148
 16169 0b07 16000000 		.4byte	.LVL149
 16170 0b0b 0100     		.2byte	0x1
 16171 0b0d 50       		.byte	0x50
 16172 0b0e 16000000 		.4byte	.LVL149
 16173 0b12 18000000 		.4byte	.LVL150
 16174 0b16 0100     		.2byte	0x1
 16175 0b18 54       		.byte	0x54
 16176 0b19 18000000 		.4byte	.LVL150
 16177 0b1d 25000000 		.4byte	.LVL153-1
 16178 0b21 0100     		.2byte	0x1
 16179 0b23 50       		.byte	0x50
 16180 0b24 25000000 		.4byte	.LVL153-1
 16181 0b28 2E000000 		.4byte	.LVL155
 16182 0b2c 0100     		.2byte	0x1
 16183 0b2e 54       		.byte	0x54
 16184 0b2f 2E000000 		.4byte	.LVL155
 16185 0b33 37000000 		.4byte	.LVL157-1
 16186 0b37 0100     		.2byte	0x1
 16187 0b39 50       		.byte	0x50
 16188 0b3a 37000000 		.4byte	.LVL157-1
 16189 0b3e 4A000000 		.4byte	.LVL160
 16190 0b42 0100     		.2byte	0x1
 16191 0b44 54       		.byte	0x54
 16192 0b45 4A000000 		.4byte	.LVL160
 16193 0b49 66000000 		.4byte	.LVL162
 16194 0b4d 0400     		.2byte	0x4
 16195 0b4f F3       		.byte	0xf3
ARM GAS  /tmp/ccZHgRNF.s 			page 286


 16196 0b50 01       		.uleb128 0x1
 16197 0b51 50       		.byte	0x50
 16198 0b52 9F       		.byte	0x9f
 16199 0b53 66000000 		.4byte	.LVL162
 16200 0b57 6F000000 		.4byte	.LVL164-1
 16201 0b5b 0100     		.2byte	0x1
 16202 0b5d 50       		.byte	0x50
 16203 0b5e 6F000000 		.4byte	.LVL164-1
 16204 0b62 7E000000 		.4byte	.LVL167
 16205 0b66 0100     		.2byte	0x1
 16206 0b68 54       		.byte	0x54
 16207 0b69 7E000000 		.4byte	.LVL167
 16208 0b6d 8C000000 		.4byte	.LVL168
 16209 0b71 0400     		.2byte	0x4
 16210 0b73 F3       		.byte	0xf3
 16211 0b74 01       		.uleb128 0x1
 16212 0b75 50       		.byte	0x50
 16213 0b76 9F       		.byte	0x9f
 16214 0b77 8C000000 		.4byte	.LVL168
 16215 0b7b AE000000 		.4byte	.LVL173
 16216 0b7f 0100     		.2byte	0x1
 16217 0b81 54       		.byte	0x54
 16218 0b82 AE000000 		.4byte	.LVL173
 16219 0b86 C2000000 		.4byte	.LFE293
 16220 0b8a 0400     		.2byte	0x4
 16221 0b8c F3       		.byte	0xf3
 16222 0b8d 01       		.uleb128 0x1
 16223 0b8e 50       		.byte	0x50
 16224 0b8f 9F       		.byte	0x9f
 16225 0b90 00000000 		.4byte	0
 16226 0b94 00000000 		.4byte	0
 16227              	.LLST43:
 16228 0b98 00000000 		.4byte	.LVL148
 16229 0b9c 1A000000 		.4byte	.LVL151
 16230 0ba0 0100     		.2byte	0x1
 16231 0ba2 51       		.byte	0x51
 16232 0ba3 1A000000 		.4byte	.LVL151
 16233 0ba7 2E000000 		.4byte	.LVL155
 16234 0bab 0100     		.2byte	0x1
 16235 0bad 55       		.byte	0x55
 16236 0bae 2E000000 		.4byte	.LVL155
 16237 0bb2 30000000 		.4byte	.LVL156
 16238 0bb6 0100     		.2byte	0x1
 16239 0bb8 51       		.byte	0x51
 16240 0bb9 30000000 		.4byte	.LVL156
 16241 0bbd 3E000000 		.4byte	.LVL158
 16242 0bc1 0100     		.2byte	0x1
 16243 0bc3 55       		.byte	0x55
 16244 0bc4 3E000000 		.4byte	.LVL158
 16245 0bc8 66000000 		.4byte	.LVL162
 16246 0bcc 0400     		.2byte	0x4
 16247 0bce F3       		.byte	0xf3
 16248 0bcf 01       		.uleb128 0x1
 16249 0bd0 51       		.byte	0x51
 16250 0bd1 9F       		.byte	0x9f
 16251 0bd2 66000000 		.4byte	.LVL162
 16252 0bd6 68000000 		.4byte	.LVL163
ARM GAS  /tmp/ccZHgRNF.s 			page 287


 16253 0bda 0100     		.2byte	0x1
 16254 0bdc 51       		.byte	0x51
 16255 0bdd 68000000 		.4byte	.LVL163
 16256 0be1 76000000 		.4byte	.LVL165
 16257 0be5 0100     		.2byte	0x1
 16258 0be7 55       		.byte	0x55
 16259 0be8 76000000 		.4byte	.LVL165
 16260 0bec 8C000000 		.4byte	.LVL168
 16261 0bf0 0400     		.2byte	0x4
 16262 0bf2 F3       		.byte	0xf3
 16263 0bf3 01       		.uleb128 0x1
 16264 0bf4 51       		.byte	0x51
 16265 0bf5 9F       		.byte	0x9f
 16266 0bf6 8C000000 		.4byte	.LVL168
 16267 0bfa C2000000 		.4byte	.LFE293
 16268 0bfe 0100     		.2byte	0x1
 16269 0c00 55       		.byte	0x55
 16270 0c01 00000000 		.4byte	0
 16271 0c05 00000000 		.4byte	0
 16272              	.LLST44:
 16273 0c09 A0000000 		.4byte	.LVL170
 16274 0c0d B6000000 		.4byte	.LVL174
 16275 0c11 0600     		.2byte	0x6
 16276 0c13 77       		.byte	0x77
 16277 0c14 00       		.sleb128 0
 16278 0c15 08       		.byte	0x8
 16279 0c16 FF       		.byte	0xff
 16280 0c17 1A       		.byte	0x1a
 16281 0c18 9F       		.byte	0x9f
 16282 0c19 B6000000 		.4byte	.LVL174
 16283 0c1d BC000000 		.4byte	.LVL175
 16284 0c21 0100     		.2byte	0x1
 16285 0c23 50       		.byte	0x50
 16286 0c24 BC000000 		.4byte	.LVL175
 16287 0c28 C2000000 		.4byte	.LFE293
 16288 0c2c 0D00     		.2byte	0xd
 16289 0c2e 74       		.byte	0x74
 16290 0c2f 30       		.sleb128 48
 16291 0c30 94       		.byte	0x94
 16292 0c31 01       		.byte	0x1
 16293 0c32 08       		.byte	0x8
 16294 0c33 FF       		.byte	0xff
 16295 0c34 1A       		.byte	0x1a
 16296 0c35 38       		.byte	0x38
 16297 0c36 24       		.byte	0x24
 16298 0c37 77       		.byte	0x77
 16299 0c38 00       		.sleb128 0
 16300 0c39 21       		.byte	0x21
 16301 0c3a 9F       		.byte	0x9f
 16302 0c3b 00000000 		.4byte	0
 16303 0c3f 00000000 		.4byte	0
 16304              	.LLST45:
 16305 0c43 18000000 		.4byte	.LVL150
 16306 0c47 1A000000 		.4byte	.LVL151
 16307 0c4b 0100     		.2byte	0x1
 16308 0c4d 51       		.byte	0x51
 16309 0c4e 1A000000 		.4byte	.LVL151
ARM GAS  /tmp/ccZHgRNF.s 			page 288


 16310 0c52 1E000000 		.4byte	.LVL152
 16311 0c56 0100     		.2byte	0x1
 16312 0c58 55       		.byte	0x55
 16313 0c59 1E000000 		.4byte	.LVL152
 16314 0c5d 28000000 		.4byte	.LVL154
 16315 0c61 0100     		.2byte	0x1
 16316 0c63 56       		.byte	0x56
 16317 0c64 8C000000 		.4byte	.LVL168
 16318 0c68 96000000 		.4byte	.LVL169
 16319 0c6c 0100     		.2byte	0x1
 16320 0c6e 56       		.byte	0x56
 16321 0c6f 96000000 		.4byte	.LVL169
 16322 0c73 A0000000 		.4byte	.LVL170
 16323 0c77 0300     		.2byte	0x3
 16324 0c79 76       		.byte	0x76
 16325 0c7a 7F       		.sleb128 -1
 16326 0c7b 9F       		.byte	0x9f
 16327 0c7c A0000000 		.4byte	.LVL170
 16328 0c80 AC000000 		.4byte	.LVL172
 16329 0c84 0100     		.2byte	0x1
 16330 0c86 56       		.byte	0x56
 16331 0c87 AC000000 		.4byte	.LVL172
 16332 0c8b C2000000 		.4byte	.LFE293
 16333 0c8f 0A00     		.2byte	0xa
 16334 0c91 75       		.byte	0x75
 16335 0c92 00       		.sleb128 0
 16336 0c93 31       		.byte	0x31
 16337 0c94 25       		.byte	0x25
 16338 0c95 75       		.byte	0x75
 16339 0c96 00       		.sleb128 0
 16340 0c97 22       		.byte	0x22
 16341 0c98 23       		.byte	0x23
 16342 0c99 01       		.uleb128 0x1
 16343 0c9a 9F       		.byte	0x9f
 16344 0c9b 00000000 		.4byte	0
 16345 0c9f 00000000 		.4byte	0
 16346              	.LLST46:
 16347 0ca3 48000000 		.4byte	.LVL159
 16348 0ca7 54000000 		.4byte	.LVL161
 16349 0cab 0100     		.2byte	0x1
 16350 0cad 53       		.byte	0x53
 16351 0cae 54000000 		.4byte	.LVL161
 16352 0cb2 66000000 		.4byte	.LVL162
 16353 0cb6 0900     		.2byte	0x9
 16354 0cb8 75       		.byte	0x75
 16355 0cb9 00       		.sleb128 0
 16356 0cba F3       		.byte	0xf3
 16357 0cbb 01       		.uleb128 0x1
 16358 0cbc 50       		.byte	0x50
 16359 0cbd 22       		.byte	0x22
 16360 0cbe 23       		.byte	0x23
 16361 0cbf 30       		.uleb128 0x30
 16362 0cc0 9F       		.byte	0x9f
 16363 0cc1 7A000000 		.4byte	.LVL166
 16364 0cc5 7E000000 		.4byte	.LVL167
 16365 0cc9 0800     		.2byte	0x8
 16366 0ccb 74       		.byte	0x74
ARM GAS  /tmp/ccZHgRNF.s 			page 289


 16367 0ccc 00       		.sleb128 0
 16368 0ccd 75       		.byte	0x75
 16369 0cce 00       		.sleb128 0
 16370 0ccf 22       		.byte	0x22
 16371 0cd0 23       		.byte	0x23
 16372 0cd1 30       		.uleb128 0x30
 16373 0cd2 9F       		.byte	0x9f
 16374 0cd3 7E000000 		.4byte	.LVL167
 16375 0cd7 8C000000 		.4byte	.LVL168
 16376 0cdb 0900     		.2byte	0x9
 16377 0cdd F3       		.byte	0xf3
 16378 0cde 01       		.uleb128 0x1
 16379 0cdf 50       		.byte	0x50
 16380 0ce0 75       		.byte	0x75
 16381 0ce1 00       		.sleb128 0
 16382 0ce2 22       		.byte	0x22
 16383 0ce3 23       		.byte	0x23
 16384 0ce4 30       		.uleb128 0x30
 16385 0ce5 9F       		.byte	0x9f
 16386 0ce6 00000000 		.4byte	0
 16387 0cea 00000000 		.4byte	0
 16388              	.LLST47:
 16389 0cee 00000000 		.4byte	.LVL176
 16390 0cf2 10000000 		.4byte	.LVL178
 16391 0cf6 0100     		.2byte	0x1
 16392 0cf8 50       		.byte	0x50
 16393 0cf9 10000000 		.4byte	.LVL178
 16394 0cfd A0000000 		.4byte	.LFE253
 16395 0d01 0100     		.2byte	0x1
 16396 0d03 54       		.byte	0x54
 16397 0d04 00000000 		.4byte	0
 16398 0d08 00000000 		.4byte	0
 16399              	.LLST48:
 16400 0d0c 00000000 		.4byte	.LVL176
 16401 0d10 16000000 		.4byte	.LVL179
 16402 0d14 0100     		.2byte	0x1
 16403 0d16 51       		.byte	0x51
 16404 0d17 1A000000 		.4byte	.LVL180
 16405 0d1b 1E000000 		.4byte	.LVL181
 16406 0d1f 0100     		.2byte	0x1
 16407 0d21 51       		.byte	0x51
 16408 0d22 1E000000 		.4byte	.LVL181
 16409 0d26 2A000000 		.4byte	.LVL183
 16410 0d2a 0100     		.2byte	0x1
 16411 0d2c 55       		.byte	0x55
 16412 0d2d 46000000 		.4byte	.LVL186
 16413 0d31 60000000 		.4byte	.LVL191
 16414 0d35 0100     		.2byte	0x1
 16415 0d37 55       		.byte	0x55
 16416 0d38 60000000 		.4byte	.LVL191
 16417 0d3c 64000000 		.4byte	.LVL192
 16418 0d40 0600     		.2byte	0x6
 16419 0d42 76       		.byte	0x76
 16420 0d43 00       		.sleb128 0
 16421 0d44 75       		.byte	0x75
 16422 0d45 00       		.sleb128 0
 16423 0d46 22       		.byte	0x22
ARM GAS  /tmp/ccZHgRNF.s 			page 290


 16424 0d47 9F       		.byte	0x9f
 16425 0d48 00000000 		.4byte	0
 16426 0d4c 00000000 		.4byte	0
 16427              	.LLST49:
 16428 0d50 06000000 		.4byte	.LVL177
 16429 0d54 16000000 		.4byte	.LVL179
 16430 0d58 0100     		.2byte	0x1
 16431 0d5a 53       		.byte	0x53
 16432 0d5b 1A000000 		.4byte	.LVL180
 16433 0d5f 22000000 		.4byte	.LVL182
 16434 0d63 0100     		.2byte	0x1
 16435 0d65 53       		.byte	0x53
 16436 0d66 2A000000 		.4byte	.LVL183
 16437 0d6a 34000000 		.4byte	.LVL184
 16438 0d6e 0100     		.2byte	0x1
 16439 0d70 53       		.byte	0x53
 16440 0d71 34000000 		.4byte	.LVL184
 16441 0d75 46000000 		.4byte	.LVL186
 16442 0d79 0200     		.2byte	0x2
 16443 0d7b 74       		.byte	0x74
 16444 0d7c 0C       		.sleb128 12
 16445 0d7d 46000000 		.4byte	.LVL186
 16446 0d81 48000000 		.4byte	.LVL187
 16447 0d85 0100     		.2byte	0x1
 16448 0d87 53       		.byte	0x53
 16449 0d88 48000000 		.4byte	.LVL187
 16450 0d8c 4E000000 		.4byte	.LVL188
 16451 0d90 0100     		.2byte	0x1
 16452 0d92 51       		.byte	0x51
 16453 0d93 4E000000 		.4byte	.LVL188
 16454 0d97 64000000 		.4byte	.LVL192
 16455 0d9b 0100     		.2byte	0x1
 16456 0d9d 53       		.byte	0x53
 16457 0d9e 64000000 		.4byte	.LVL192
 16458 0da2 6A000000 		.4byte	.LVL193
 16459 0da6 0100     		.2byte	0x1
 16460 0da8 50       		.byte	0x50
 16461 0da9 6A000000 		.4byte	.LVL193
 16462 0dad 7B000000 		.4byte	.LVL194-1
 16463 0db1 0100     		.2byte	0x1
 16464 0db3 53       		.byte	0x53
 16465 0db4 80000000 		.4byte	.LVL195
 16466 0db8 88000000 		.4byte	.LVL196
 16467 0dbc 0100     		.2byte	0x1
 16468 0dbe 50       		.byte	0x50
 16469 0dbf 88000000 		.4byte	.LVL196
 16470 0dc3 A0000000 		.4byte	.LFE253
 16471 0dc7 0100     		.2byte	0x1
 16472 0dc9 53       		.byte	0x53
 16473 0dca 00000000 		.4byte	0
 16474 0dce 00000000 		.4byte	0
 16475              	.LLST50:
 16476 0dd2 2A000000 		.4byte	.LVL183
 16477 0dd6 3C000000 		.4byte	.LVL185
 16478 0dda 0100     		.2byte	0x1
 16479 0ddc 52       		.byte	0x52
 16480 0ddd 9C000000 		.4byte	.LVL200
ARM GAS  /tmp/ccZHgRNF.s 			page 291


 16481 0de1 A0000000 		.4byte	.LFE253
 16482 0de5 0200     		.2byte	0x2
 16483 0de7 30       		.byte	0x30
 16484 0de8 9F       		.byte	0x9f
 16485 0de9 00000000 		.4byte	0
 16486 0ded 00000000 		.4byte	0
 16487              	.LLST51:
 16488 0df1 52000000 		.4byte	.LVL189
 16489 0df5 94000000 		.4byte	.LVL199
 16490 0df9 0100     		.2byte	0x1
 16491 0dfb 56       		.byte	0x56
 16492 0dfc 9C000000 		.4byte	.LVL200
 16493 0e00 A0000000 		.4byte	.LFE253
 16494 0e04 0100     		.2byte	0x1
 16495 0e06 56       		.byte	0x56
 16496 0e07 00000000 		.4byte	0
 16497 0e0b 00000000 		.4byte	0
 16498              	.LLST52:
 16499 0e0f 56000000 		.4byte	.LVL190
 16500 0e13 64000000 		.4byte	.LVL192
 16501 0e17 0100     		.2byte	0x1
 16502 0e19 53       		.byte	0x53
 16503 0e1a 6A000000 		.4byte	.LVL193
 16504 0e1e 7B000000 		.4byte	.LVL194-1
 16505 0e22 0100     		.2byte	0x1
 16506 0e24 53       		.byte	0x53
 16507 0e25 00000000 		.4byte	0
 16508 0e29 00000000 		.4byte	0
 16509              	.LLST53:
 16510 0e2d 56000000 		.4byte	.LVL190
 16511 0e31 64000000 		.4byte	.LVL192
 16512 0e35 0100     		.2byte	0x1
 16513 0e37 50       		.byte	0x50
 16514 0e38 6A000000 		.4byte	.LVL193
 16515 0e3c 7B000000 		.4byte	.LVL194-1
 16516 0e40 0100     		.2byte	0x1
 16517 0e42 50       		.byte	0x50
 16518 0e43 00000000 		.4byte	0
 16519 0e47 00000000 		.4byte	0
 16520              	.LLST54:
 16521 0e4b 8A000000 		.4byte	.LVL197
 16522 0e4f 8E000000 		.4byte	.LVL198
 16523 0e53 0100     		.2byte	0x1
 16524 0e55 53       		.byte	0x53
 16525 0e56 8E000000 		.4byte	.LVL198
 16526 0e5a A0000000 		.4byte	.LFE253
 16527 0e5e 0100     		.2byte	0x1
 16528 0e60 51       		.byte	0x51
 16529 0e61 00000000 		.4byte	0
 16530 0e65 00000000 		.4byte	0
 16531              	.LLST55:
 16532 0e69 00000000 		.4byte	.LVL201
 16533 0e6d 09000000 		.4byte	.LVL202-1
 16534 0e71 0100     		.2byte	0x1
 16535 0e73 50       		.byte	0x50
 16536 0e74 09000000 		.4byte	.LVL202-1
 16537 0e78 38000000 		.4byte	.LFE261
ARM GAS  /tmp/ccZHgRNF.s 			page 292


 16538 0e7c 0100     		.2byte	0x1
 16539 0e7e 54       		.byte	0x54
 16540 0e7f 00000000 		.4byte	0
 16541 0e83 00000000 		.4byte	0
 16542              	.LLST56:
 16543 0e87 0A000000 		.4byte	.LVL202
 16544 0e8b 10000000 		.4byte	.LVL205
 16545 0e8f 0100     		.2byte	0x1
 16546 0e91 50       		.byte	0x50
 16547 0e92 36000000 		.4byte	.LVL212
 16548 0e96 38000000 		.4byte	.LFE261
 16549 0e9a 0100     		.2byte	0x1
 16550 0e9c 50       		.byte	0x50
 16551 0e9d 00000000 		.4byte	0
 16552 0ea1 00000000 		.4byte	0
 16553              	.LLST57:
 16554 0ea5 1C000000 		.4byte	.LVL207
 16555 0ea9 22000000 		.4byte	.LVL208
 16556 0ead 0100     		.2byte	0x1
 16557 0eaf 53       		.byte	0x53
 16558 0eb0 22000000 		.4byte	.LVL208
 16559 0eb4 2E000000 		.4byte	.LVL211
 16560 0eb8 0300     		.2byte	0x3
 16561 0eba 72       		.byte	0x72
 16562 0ebb 60       		.sleb128 -32
 16563 0ebc 9F       		.byte	0x9f
 16564 0ebd 00000000 		.4byte	0
 16565 0ec1 00000000 		.4byte	0
 16566              	.LLST58:
 16567 0ec5 1C000000 		.4byte	.LVL207
 16568 0ec9 2C000000 		.4byte	.LVL210
 16569 0ecd 0100     		.2byte	0x1
 16570 0ecf 53       		.byte	0x53
 16571 0ed0 00000000 		.4byte	0
 16572 0ed4 00000000 		.4byte	0
 16573              	.LLST59:
 16574 0ed8 00000000 		.4byte	.LVL213
 16575 0edc 18000000 		.4byte	.LVL214
 16576 0ee0 0100     		.2byte	0x1
 16577 0ee2 50       		.byte	0x50
 16578 0ee3 18000000 		.4byte	.LVL214
 16579 0ee7 1E000000 		.4byte	.LVL215
 16580 0eeb 0100     		.2byte	0x1
 16581 0eed 54       		.byte	0x54
 16582 0eee 1E000000 		.4byte	.LVL215
 16583 0ef2 2B000000 		.4byte	.LVL218-1
 16584 0ef6 0100     		.2byte	0x1
 16585 0ef8 50       		.byte	0x50
 16586 0ef9 2B000000 		.4byte	.LVL218-1
 16587 0efd 84000000 		.4byte	.LVL228
 16588 0f01 0100     		.2byte	0x1
 16589 0f03 54       		.byte	0x54
 16590 0f04 84000000 		.4byte	.LVL228
 16591 0f08 8D000000 		.4byte	.LVL230-1
 16592 0f0c 0100     		.2byte	0x1
 16593 0f0e 50       		.byte	0x50
 16594 0f0f 8D000000 		.4byte	.LVL230-1
ARM GAS  /tmp/ccZHgRNF.s 			page 293


 16595 0f13 C2000000 		.4byte	.LVL235
 16596 0f17 0100     		.2byte	0x1
 16597 0f19 54       		.byte	0x54
 16598 0f1a C2000000 		.4byte	.LVL235
 16599 0f1e CB000000 		.4byte	.LVL237-1
 16600 0f22 0100     		.2byte	0x1
 16601 0f24 50       		.byte	0x50
 16602 0f25 CB000000 		.4byte	.LVL237-1
 16603 0f29 F2000000 		.4byte	.LFE295
 16604 0f2d 0100     		.2byte	0x1
 16605 0f2f 54       		.byte	0x54
 16606 0f30 00000000 		.4byte	0
 16607 0f34 00000000 		.4byte	0
 16608              	.LLST60:
 16609 0f38 00000000 		.4byte	.LVL213
 16610 0f3c 18000000 		.4byte	.LVL214
 16611 0f40 0100     		.2byte	0x1
 16612 0f42 51       		.byte	0x51
 16613 0f43 18000000 		.4byte	.LVL214
 16614 0f47 1E000000 		.4byte	.LVL215
 16615 0f4b 0400     		.2byte	0x4
 16616 0f4d F3       		.byte	0xf3
 16617 0f4e 01       		.uleb128 0x1
 16618 0f4f 51       		.byte	0x51
 16619 0f50 9F       		.byte	0x9f
 16620 0f51 1E000000 		.4byte	.LVL215
 16621 0f55 20000000 		.4byte	.LVL216
 16622 0f59 0100     		.2byte	0x1
 16623 0f5b 51       		.byte	0x51
 16624 0f5c 20000000 		.4byte	.LVL216
 16625 0f60 38000000 		.4byte	.LVL220
 16626 0f64 0100     		.2byte	0x1
 16627 0f66 55       		.byte	0x55
 16628 0f67 38000000 		.4byte	.LVL220
 16629 0f6b 84000000 		.4byte	.LVL228
 16630 0f6f 0400     		.2byte	0x4
 16631 0f71 F3       		.byte	0xf3
 16632 0f72 01       		.uleb128 0x1
 16633 0f73 51       		.byte	0x51
 16634 0f74 9F       		.byte	0x9f
 16635 0f75 84000000 		.4byte	.LVL228
 16636 0f79 86000000 		.4byte	.LVL229
 16637 0f7d 0100     		.2byte	0x1
 16638 0f7f 51       		.byte	0x51
 16639 0f80 86000000 		.4byte	.LVL229
 16640 0f84 94000000 		.4byte	.LVL231
 16641 0f88 0100     		.2byte	0x1
 16642 0f8a 55       		.byte	0x55
 16643 0f8b 94000000 		.4byte	.LVL231
 16644 0f8f C2000000 		.4byte	.LVL235
 16645 0f93 0400     		.2byte	0x4
 16646 0f95 F3       		.byte	0xf3
 16647 0f96 01       		.uleb128 0x1
 16648 0f97 51       		.byte	0x51
 16649 0f98 9F       		.byte	0x9f
 16650 0f99 C2000000 		.4byte	.LVL235
 16651 0f9d C4000000 		.4byte	.LVL236
ARM GAS  /tmp/ccZHgRNF.s 			page 294


 16652 0fa1 0100     		.2byte	0x1
 16653 0fa3 51       		.byte	0x51
 16654 0fa4 C4000000 		.4byte	.LVL236
 16655 0fa8 D2000000 		.4byte	.LVL238
 16656 0fac 0100     		.2byte	0x1
 16657 0fae 55       		.byte	0x55
 16658 0faf D2000000 		.4byte	.LVL238
 16659 0fb3 F2000000 		.4byte	.LFE295
 16660 0fb7 0400     		.2byte	0x4
 16661 0fb9 F3       		.byte	0xf3
 16662 0fba 01       		.uleb128 0x1
 16663 0fbb 51       		.byte	0x51
 16664 0fbc 9F       		.byte	0x9f
 16665 0fbd 00000000 		.4byte	0
 16666 0fc1 00000000 		.4byte	0
 16667              	.LLST61:
 16668 0fc5 00000000 		.4byte	.LVL213
 16669 0fc9 18000000 		.4byte	.LVL214
 16670 0fcd 0100     		.2byte	0x1
 16671 0fcf 52       		.byte	0x52
 16672 0fd0 18000000 		.4byte	.LVL214
 16673 0fd4 1E000000 		.4byte	.LVL215
 16674 0fd8 0400     		.2byte	0x4
 16675 0fda F3       		.byte	0xf3
 16676 0fdb 01       		.uleb128 0x1
 16677 0fdc 52       		.byte	0x52
 16678 0fdd 9F       		.byte	0x9f
 16679 0fde 1E000000 		.4byte	.LVL215
 16680 0fe2 2B000000 		.4byte	.LVL218-1
 16681 0fe6 0100     		.2byte	0x1
 16682 0fe8 52       		.byte	0x52
 16683 0fe9 2B000000 		.4byte	.LVL218-1
 16684 0fed 74000000 		.4byte	.LVL227
 16685 0ff1 0100     		.2byte	0x1
 16686 0ff3 56       		.byte	0x56
 16687 0ff4 74000000 		.4byte	.LVL227
 16688 0ff8 84000000 		.4byte	.LVL228
 16689 0ffc 0400     		.2byte	0x4
 16690 0ffe F3       		.byte	0xf3
 16691 0fff 01       		.uleb128 0x1
 16692 1000 52       		.byte	0x52
 16693 1001 9F       		.byte	0x9f
 16694 1002 84000000 		.4byte	.LVL228
 16695 1006 8D000000 		.4byte	.LVL230-1
 16696 100a 0100     		.2byte	0x1
 16697 100c 52       		.byte	0x52
 16698 100d 8D000000 		.4byte	.LVL230-1
 16699 1011 C2000000 		.4byte	.LVL235
 16700 1015 0100     		.2byte	0x1
 16701 1017 56       		.byte	0x56
 16702 1018 C2000000 		.4byte	.LVL235
 16703 101c CB000000 		.4byte	.LVL237-1
 16704 1020 0100     		.2byte	0x1
 16705 1022 52       		.byte	0x52
 16706 1023 CB000000 		.4byte	.LVL237-1
 16707 1027 EE000000 		.4byte	.LVL241
 16708 102b 0100     		.2byte	0x1
ARM GAS  /tmp/ccZHgRNF.s 			page 295


 16709 102d 56       		.byte	0x56
 16710 102e EE000000 		.4byte	.LVL241
 16711 1032 F2000000 		.4byte	.LFE295
 16712 1036 0400     		.2byte	0x4
 16713 1038 F3       		.byte	0xf3
 16714 1039 01       		.uleb128 0x1
 16715 103a 52       		.byte	0x52
 16716 103b 9F       		.byte	0x9f
 16717 103c 00000000 		.4byte	0
 16718 1040 00000000 		.4byte	0
 16719              	.LLST62:
 16720 1044 1E000000 		.4byte	.LVL215
 16721 1048 20000000 		.4byte	.LVL216
 16722 104c 0100     		.2byte	0x1
 16723 104e 51       		.byte	0x51
 16724 104f 20000000 		.4byte	.LVL216
 16725 1053 24000000 		.4byte	.LVL217
 16726 1057 0100     		.2byte	0x1
 16727 1059 55       		.byte	0x55
 16728 105a 24000000 		.4byte	.LVL217
 16729 105e 6A000000 		.4byte	.LVL225
 16730 1062 0100     		.2byte	0x1
 16731 1064 57       		.byte	0x57
 16732 1065 6A000000 		.4byte	.LVL225
 16733 1069 84000000 		.4byte	.LVL228
 16734 106d 0C00     		.2byte	0xc
 16735 106f F3       		.byte	0xf3
 16736 1070 01       		.uleb128 0x1
 16737 1071 51       		.byte	0x51
 16738 1072 31       		.byte	0x31
 16739 1073 25       		.byte	0x25
 16740 1074 F3       		.byte	0xf3
 16741 1075 01       		.uleb128 0x1
 16742 1076 51       		.byte	0x51
 16743 1077 22       		.byte	0x22
 16744 1078 23       		.byte	0x23
 16745 1079 01       		.uleb128 0x1
 16746 107a 9F       		.byte	0x9f
 16747 107b EA000000 		.4byte	.LVL240
 16748 107f F2000000 		.4byte	.LFE295
 16749 1083 0C00     		.2byte	0xc
 16750 1085 F3       		.byte	0xf3
 16751 1086 01       		.uleb128 0x1
 16752 1087 51       		.byte	0x51
 16753 1088 31       		.byte	0x31
 16754 1089 25       		.byte	0x25
 16755 108a F3       		.byte	0xf3
 16756 108b 01       		.uleb128 0x1
 16757 108c 51       		.byte	0x51
 16758 108d 22       		.byte	0x22
 16759 108e 23       		.byte	0x23
 16760 108f 01       		.uleb128 0x1
 16761 1090 9F       		.byte	0x9f
 16762 1091 00000000 		.4byte	0
 16763 1095 00000000 		.4byte	0
 16764              	.LLST63:
 16765 1099 34000000 		.4byte	.LVL219
ARM GAS  /tmp/ccZHgRNF.s 			page 296


 16766 109d 3A000000 		.4byte	.LVL221
 16767 10a1 0800     		.2byte	0x8
 16768 10a3 74       		.byte	0x74
 16769 10a4 00       		.sleb128 0
 16770 10a5 73       		.byte	0x73
 16771 10a6 00       		.sleb128 0
 16772 10a7 22       		.byte	0x22
 16773 10a8 23       		.byte	0x23
 16774 10a9 30       		.uleb128 0x30
 16775 10aa 9F       		.byte	0x9f
 16776 10ab 3A000000 		.4byte	.LVL221
 16777 10af 54000000 		.4byte	.LVL222
 16778 10b3 0E00     		.2byte	0xe
 16779 10b5 77       		.byte	0x77
 16780 10b6 00       		.sleb128 0
 16781 10b7 09       		.byte	0x9
 16782 10b8 FB       		.byte	0xfb
 16783 10b9 24       		.byte	0x24
 16784 10ba 09       		.byte	0x9
 16785 10bb FB       		.byte	0xfb
 16786 10bc 25       		.byte	0x25
 16787 10bd 74       		.byte	0x74
 16788 10be 00       		.sleb128 0
 16789 10bf 22       		.byte	0x22
 16790 10c0 23       		.byte	0x23
 16791 10c1 30       		.uleb128 0x30
 16792 10c2 9F       		.byte	0x9f
 16793 10c3 54000000 		.4byte	.LVL222
 16794 10c7 6A000000 		.4byte	.LVL225
 16795 10cb 0E00     		.2byte	0xe
 16796 10cd 77       		.byte	0x77
 16797 10ce 7F       		.sleb128 -1
 16798 10cf 09       		.byte	0x9
 16799 10d0 FB       		.byte	0xfb
 16800 10d1 24       		.byte	0x24
 16801 10d2 09       		.byte	0x9
 16802 10d3 FB       		.byte	0xfb
 16803 10d4 25       		.byte	0x25
 16804 10d5 74       		.byte	0x74
 16805 10d6 00       		.sleb128 0
 16806 10d7 22       		.byte	0x22
 16807 10d8 23       		.byte	0x23
 16808 10d9 30       		.uleb128 0x30
 16809 10da 9F       		.byte	0x9f
 16810 10db 6A000000 		.4byte	.LVL225
 16811 10df 70000000 		.4byte	.LVL226
 16812 10e3 0800     		.2byte	0x8
 16813 10e5 74       		.byte	0x74
 16814 10e6 00       		.sleb128 0
 16815 10e7 77       		.byte	0x77
 16816 10e8 00       		.sleb128 0
 16817 10e9 22       		.byte	0x22
 16818 10ea 23       		.byte	0x23
 16819 10eb 30       		.uleb128 0x30
 16820 10ec 9F       		.byte	0x9f
 16821 10ed 70000000 		.4byte	.LVL226
 16822 10f1 84000000 		.4byte	.LVL228
ARM GAS  /tmp/ccZHgRNF.s 			page 297


 16823 10f5 1700     		.2byte	0x17
 16824 10f7 F3       		.byte	0xf3
 16825 10f8 01       		.uleb128 0x1
 16826 10f9 51       		.byte	0x51
 16827 10fa 31       		.byte	0x31
 16828 10fb 25       		.byte	0x25
 16829 10fc F3       		.byte	0xf3
 16830 10fd 01       		.uleb128 0x1
 16831 10fe 51       		.byte	0x51
 16832 10ff 22       		.byte	0x22
 16833 1100 23       		.byte	0x23
 16834 1101 01       		.uleb128 0x1
 16835 1102 09       		.byte	0x9
 16836 1103 FB       		.byte	0xfb
 16837 1104 24       		.byte	0x24
 16838 1105 09       		.byte	0x9
 16839 1106 FB       		.byte	0xfb
 16840 1107 25       		.byte	0x25
 16841 1108 74       		.byte	0x74
 16842 1109 00       		.sleb128 0
 16843 110a 22       		.byte	0x22
 16844 110b 23       		.byte	0x23
 16845 110c 30       		.uleb128 0x30
 16846 110d 9F       		.byte	0x9f
 16847 110e 9E000000 		.4byte	.LVL232
 16848 1112 BE000000 		.4byte	.LVL234
 16849 1116 0100     		.2byte	0x1
 16850 1118 53       		.byte	0x53
 16851 1119 BE000000 		.4byte	.LVL234
 16852 111d C2000000 		.4byte	.LVL235
 16853 1121 0F00     		.2byte	0xf
 16854 1123 F3       		.byte	0xf3
 16855 1124 01       		.uleb128 0x1
 16856 1125 51       		.byte	0x51
 16857 1126 32       		.byte	0x32
 16858 1127 24       		.byte	0x24
 16859 1128 0A       		.byte	0xa
 16860 1129 FC01     		.2byte	0x1fc
 16861 112b 1A       		.byte	0x1a
 16862 112c 74       		.byte	0x74
 16863 112d 00       		.sleb128 0
 16864 112e 22       		.byte	0x22
 16865 112f 23       		.byte	0x23
 16866 1130 30       		.uleb128 0x30
 16867 1131 9F       		.byte	0x9f
 16868 1132 D6000000 		.4byte	.LVL239
 16869 1136 EA000000 		.4byte	.LVL240
 16870 113a 0800     		.2byte	0x8
 16871 113c 74       		.byte	0x74
 16872 113d 00       		.sleb128 0
 16873 113e 75       		.byte	0x75
 16874 113f 00       		.sleb128 0
 16875 1140 22       		.byte	0x22
 16876 1141 23       		.byte	0x23
 16877 1142 30       		.uleb128 0x30
 16878 1143 9F       		.byte	0x9f
 16879 1144 EA000000 		.4byte	.LVL240
ARM GAS  /tmp/ccZHgRNF.s 			page 298


 16880 1148 F0000000 		.4byte	.LVL242
 16881 114c 0800     		.2byte	0x8
 16882 114e 74       		.byte	0x74
 16883 114f 00       		.sleb128 0
 16884 1150 77       		.byte	0x77
 16885 1151 00       		.sleb128 0
 16886 1152 22       		.byte	0x22
 16887 1153 23       		.byte	0x23
 16888 1154 30       		.uleb128 0x30
 16889 1155 9F       		.byte	0x9f
 16890 1156 F0000000 		.4byte	.LVL242
 16891 115a F2000000 		.4byte	.LFE295
 16892 115e 1700     		.2byte	0x17
 16893 1160 F3       		.byte	0xf3
 16894 1161 01       		.uleb128 0x1
 16895 1162 51       		.byte	0x51
 16896 1163 31       		.byte	0x31
 16897 1164 25       		.byte	0x25
 16898 1165 F3       		.byte	0xf3
 16899 1166 01       		.uleb128 0x1
 16900 1167 51       		.byte	0x51
 16901 1168 22       		.byte	0x22
 16902 1169 23       		.byte	0x23
 16903 116a 01       		.uleb128 0x1
 16904 116b 09       		.byte	0x9
 16905 116c FB       		.byte	0xfb
 16906 116d 24       		.byte	0x24
 16907 116e 09       		.byte	0x9
 16908 116f FB       		.byte	0xfb
 16909 1170 25       		.byte	0x25
 16910 1171 74       		.byte	0x74
 16911 1172 00       		.sleb128 0
 16912 1173 22       		.byte	0x22
 16913 1174 23       		.byte	0x23
 16914 1175 30       		.uleb128 0x30
 16915 1176 9F       		.byte	0x9f
 16916 1177 00000000 		.4byte	0
 16917 117b 00000000 		.4byte	0
 16918              	.LLST64:
 16919 117f 18000000 		.4byte	.LVL214
 16920 1183 1E000000 		.4byte	.LVL215
 16921 1187 0100     		.2byte	0x1
 16922 1189 50       		.byte	0x50
 16923 118a 2C000000 		.4byte	.LVL218
 16924 118e 5E000000 		.4byte	.LVL223
 16925 1192 0100     		.2byte	0x1
 16926 1194 50       		.byte	0x50
 16927 1195 62000000 		.4byte	.LVL224
 16928 1199 84000000 		.4byte	.LVL228
 16929 119d 0100     		.2byte	0x1
 16930 119f 50       		.byte	0x50
 16931 11a0 8E000000 		.4byte	.LVL230
 16932 11a4 C2000000 		.4byte	.LVL235
 16933 11a8 0100     		.2byte	0x1
 16934 11aa 50       		.byte	0x50
 16935 11ab CC000000 		.4byte	.LVL237
 16936 11af F2000000 		.4byte	.LFE295
ARM GAS  /tmp/ccZHgRNF.s 			page 299


 16937 11b3 0100     		.2byte	0x1
 16938 11b5 50       		.byte	0x50
 16939 11b6 00000000 		.4byte	0
 16940 11ba 00000000 		.4byte	0
 16941              	.LLST65:
 16942 11be 00000000 		.4byte	.LVL243
 16943 11c2 10000000 		.4byte	.LVL245
 16944 11c6 0100     		.2byte	0x1
 16945 11c8 50       		.byte	0x50
 16946 11c9 10000000 		.4byte	.LVL245
 16947 11cd 44000000 		.4byte	.LVL252
 16948 11d1 0100     		.2byte	0x1
 16949 11d3 55       		.byte	0x55
 16950 11d4 44000000 		.4byte	.LVL252
 16951 11d8 51000000 		.4byte	.LVL253-1
 16952 11dc 0100     		.2byte	0x1
 16953 11de 50       		.byte	0x50
 16954 11df 51000000 		.4byte	.LVL253-1
 16955 11e3 64000000 		.4byte	.LVL254
 16956 11e7 0100     		.2byte	0x1
 16957 11e9 55       		.byte	0x55
 16958 11ea 64000000 		.4byte	.LVL254
 16959 11ee 6C000000 		.4byte	.LVL256
 16960 11f2 0100     		.2byte	0x1
 16961 11f4 50       		.byte	0x50
 16962 11f5 6C000000 		.4byte	.LVL256
 16963 11f9 C6000000 		.4byte	.LFE252
 16964 11fd 0100     		.2byte	0x1
 16965 11ff 55       		.byte	0x55
 16966 1200 00000000 		.4byte	0
 16967 1204 00000000 		.4byte	0
 16968              	.LLST66:
 16969 1208 00000000 		.4byte	.LVL243
 16970 120c 10000000 		.4byte	.LVL245
 16971 1210 0100     		.2byte	0x1
 16972 1212 51       		.byte	0x51
 16973 1213 10000000 		.4byte	.LVL245
 16974 1217 44000000 		.4byte	.LVL252
 16975 121b 0100     		.2byte	0x1
 16976 121d 57       		.byte	0x57
 16977 121e 44000000 		.4byte	.LVL252
 16978 1222 51000000 		.4byte	.LVL253-1
 16979 1226 0100     		.2byte	0x1
 16980 1228 51       		.byte	0x51
 16981 1229 51000000 		.4byte	.LVL253-1
 16982 122d 64000000 		.4byte	.LVL254
 16983 1231 0100     		.2byte	0x1
 16984 1233 57       		.byte	0x57
 16985 1234 64000000 		.4byte	.LVL254
 16986 1238 6C000000 		.4byte	.LVL256
 16987 123c 0100     		.2byte	0x1
 16988 123e 51       		.byte	0x51
 16989 123f 6C000000 		.4byte	.LVL256
 16990 1243 C6000000 		.4byte	.LFE252
 16991 1247 0100     		.2byte	0x1
 16992 1249 57       		.byte	0x57
 16993 124a 00000000 		.4byte	0
ARM GAS  /tmp/ccZHgRNF.s 			page 300


 16994 124e 00000000 		.4byte	0
 16995              	.LLST67:
 16996 1252 10000000 		.4byte	.LVL245
 16997 1256 14000000 		.4byte	.LVL246
 16998 125a 0100     		.2byte	0x1
 16999 125c 56       		.byte	0x56
 17000 125d 14000000 		.4byte	.LVL246
 17001 1261 36000000 		.4byte	.LVL249
 17002 1265 0100     		.2byte	0x1
 17003 1267 54       		.byte	0x54
 17004 1268 36000000 		.4byte	.LVL249
 17005 126c 38000000 		.4byte	.LVL250
 17006 1270 0200     		.2byte	0x2
 17007 1272 32       		.byte	0x32
 17008 1273 9F       		.byte	0x9f
 17009 1274 38000000 		.4byte	.LVL250
 17010 1278 40000000 		.4byte	.LVL251
 17011 127c 0100     		.2byte	0x1
 17012 127e 54       		.byte	0x54
 17013 127f 6C000000 		.4byte	.LVL256
 17014 1283 70000000 		.4byte	.LVL257
 17015 1287 0100     		.2byte	0x1
 17016 1289 54       		.byte	0x54
 17017 128a 76000000 		.4byte	.LVL258
 17018 128e C6000000 		.4byte	.LFE252
 17019 1292 0100     		.2byte	0x1
 17020 1294 54       		.byte	0x54
 17021 1295 00000000 		.4byte	0
 17022 1299 00000000 		.4byte	0
 17023              	.LLST68:
 17024 129d 0A000000 		.4byte	.LVL244
 17025 12a1 40000000 		.4byte	.LVL251
 17026 12a5 0100     		.2byte	0x1
 17027 12a7 56       		.byte	0x56
 17028 12a8 64000000 		.4byte	.LVL254
 17029 12ac 6A000000 		.4byte	.LVL255
 17030 12b0 0100     		.2byte	0x1
 17031 12b2 56       		.byte	0x56
 17032 12b3 6A000000 		.4byte	.LVL255
 17033 12b7 6C000000 		.4byte	.LVL256
 17034 12bb 0200     		.2byte	0x2
 17035 12bd 70       		.byte	0x70
 17036 12be 0C       		.sleb128 12
 17037 12bf 6C000000 		.4byte	.LVL256
 17038 12c3 70000000 		.4byte	.LVL257
 17039 12c7 0100     		.2byte	0x1
 17040 12c9 56       		.byte	0x56
 17041 12ca 76000000 		.4byte	.LVL258
 17042 12ce C6000000 		.4byte	.LFE252
 17043 12d2 0100     		.2byte	0x1
 17044 12d4 56       		.byte	0x56
 17045 12d5 00000000 		.4byte	0
 17046 12d9 00000000 		.4byte	0
 17047              	.LLST69:
 17048 12dd 6C000000 		.4byte	.LVL256
 17049 12e1 70000000 		.4byte	.LVL257
 17050 12e5 0100     		.2byte	0x1
ARM GAS  /tmp/ccZHgRNF.s 			page 301


 17051 12e7 50       		.byte	0x50
 17052 12e8 A6000000 		.4byte	.LVL263
 17053 12ec AA000000 		.4byte	.LVL264
 17054 12f0 0100     		.2byte	0x1
 17055 12f2 50       		.byte	0x50
 17056 12f3 00000000 		.4byte	0
 17057 12f7 00000000 		.4byte	0
 17058              	.LLST70:
 17059 12fb 14000000 		.4byte	.LVL246
 17060 12ff 36000000 		.4byte	.LVL249
 17061 1303 0100     		.2byte	0x1
 17062 1305 54       		.byte	0x54
 17063 1306 36000000 		.4byte	.LVL249
 17064 130a 38000000 		.4byte	.LVL250
 17065 130e 0200     		.2byte	0x2
 17066 1310 32       		.byte	0x32
 17067 1311 9F       		.byte	0x9f
 17068 1312 38000000 		.4byte	.LVL250
 17069 1316 40000000 		.4byte	.LVL251
 17070 131a 0100     		.2byte	0x1
 17071 131c 54       		.byte	0x54
 17072 131d 6C000000 		.4byte	.LVL256
 17073 1321 70000000 		.4byte	.LVL257
 17074 1325 0100     		.2byte	0x1
 17075 1327 54       		.byte	0x54
 17076 1328 76000000 		.4byte	.LVL258
 17077 132c C6000000 		.4byte	.LFE252
 17078 1330 0100     		.2byte	0x1
 17079 1332 54       		.byte	0x54
 17080 1333 00000000 		.4byte	0
 17081 1337 00000000 		.4byte	0
 17082              	.LLST71:
 17083 133b 1E000000 		.4byte	.LVL247
 17084 133f 36000000 		.4byte	.LVL249
 17085 1343 0100     		.2byte	0x1
 17086 1345 55       		.byte	0x55
 17087 1346 6C000000 		.4byte	.LVL256
 17088 134a 70000000 		.4byte	.LVL257
 17089 134e 0100     		.2byte	0x1
 17090 1350 55       		.byte	0x55
 17091 1351 7A000000 		.4byte	.LVL259
 17092 1355 C6000000 		.4byte	.LFE252
 17093 1359 0100     		.2byte	0x1
 17094 135b 55       		.byte	0x55
 17095 135c 00000000 		.4byte	0
 17096 1360 00000000 		.4byte	0
 17097              	.LLST72:
 17098 1364 44000000 		.4byte	.LVL252
 17099 1368 51000000 		.4byte	.LVL253-1
 17100 136c 0100     		.2byte	0x1
 17101 136e 51       		.byte	0x51
 17102 136f 51000000 		.4byte	.LVL253-1
 17103 1373 64000000 		.4byte	.LVL254
 17104 1377 0100     		.2byte	0x1
 17105 1379 57       		.byte	0x57
 17106 137a 00000000 		.4byte	0
 17107 137e 00000000 		.4byte	0
ARM GAS  /tmp/ccZHgRNF.s 			page 302


 17108              	.LLST73:
 17109 1382 44000000 		.4byte	.LVL252
 17110 1386 51000000 		.4byte	.LVL253-1
 17111 138a 0100     		.2byte	0x1
 17112 138c 50       		.byte	0x50
 17113 138d 51000000 		.4byte	.LVL253-1
 17114 1391 64000000 		.4byte	.LVL254
 17115 1395 0100     		.2byte	0x1
 17116 1397 55       		.byte	0x55
 17117 1398 00000000 		.4byte	0
 17118 139c 00000000 		.4byte	0
 17119              	.LLST74:
 17120 13a0 6C000000 		.4byte	.LVL256
 17121 13a4 70000000 		.4byte	.LVL257
 17122 13a8 0600     		.2byte	0x6
 17123 13aa 0C       		.byte	0xc
 17124 13ab FFFFFF0F 		.4byte	0xfffffff
 17125 13af 9F       		.byte	0x9f
 17126 13b0 7A000000 		.4byte	.LVL259
 17127 13b4 C6000000 		.4byte	.LFE252
 17128 13b8 0600     		.2byte	0x6
 17129 13ba 0C       		.byte	0xc
 17130 13bb FFFFFF0F 		.4byte	0xfffffff
 17131 13bf 9F       		.byte	0x9f
 17132 13c0 00000000 		.4byte	0
 17133 13c4 00000000 		.4byte	0
 17134              	.LLST75:
 17135 13c8 6C000000 		.4byte	.LVL256
 17136 13cc 70000000 		.4byte	.LVL257
 17137 13d0 0100     		.2byte	0x1
 17138 13d2 54       		.byte	0x54
 17139 13d3 7A000000 		.4byte	.LVL259
 17140 13d7 C6000000 		.4byte	.LFE252
 17141 13db 0100     		.2byte	0x1
 17142 13dd 54       		.byte	0x54
 17143 13de 00000000 		.4byte	0
 17144 13e2 00000000 		.4byte	0
 17145              	.LLST76:
 17146 13e6 6C000000 		.4byte	.LVL256
 17147 13ea 70000000 		.4byte	.LVL257
 17148 13ee 0100     		.2byte	0x1
 17149 13f0 55       		.byte	0x55
 17150 13f1 7A000000 		.4byte	.LVL259
 17151 13f5 C6000000 		.4byte	.LFE252
 17152 13f9 0100     		.2byte	0x1
 17153 13fb 55       		.byte	0x55
 17154 13fc 00000000 		.4byte	0
 17155 1400 00000000 		.4byte	0
 17156              	.LLST77:
 17157 1404 8C000000 		.4byte	.LVL260
 17158 1408 A0000000 		.4byte	.LVL262
 17159 140c 0100     		.2byte	0x1
 17160 140e 50       		.byte	0x50
 17161 140f 00000000 		.4byte	0
 17162 1413 00000000 		.4byte	0
 17163              	.LLST78:
 17164 1417 92000000 		.4byte	.LVL261
ARM GAS  /tmp/ccZHgRNF.s 			page 303


 17165 141b AA000000 		.4byte	.LVL264
 17166 141f 0100     		.2byte	0x1
 17167 1421 54       		.byte	0x54
 17168 1422 00000000 		.4byte	0
 17169 1426 00000000 		.4byte	0
 17170              	.LLST79:
 17171 142a 92000000 		.4byte	.LVL261
 17172 142e AA000000 		.4byte	.LVL264
 17173 1432 0100     		.2byte	0x1
 17174 1434 57       		.byte	0x57
 17175 1435 00000000 		.4byte	0
 17176 1439 00000000 		.4byte	0
 17177              	.LLST80:
 17178 143d 92000000 		.4byte	.LVL261
 17179 1441 AA000000 		.4byte	.LVL264
 17180 1445 0100     		.2byte	0x1
 17181 1447 55       		.byte	0x55
 17182 1448 00000000 		.4byte	0
 17183 144c 00000000 		.4byte	0
 17184              	.LLST81:
 17185 1450 00000000 		.4byte	.LVL266
 17186 1454 10000000 		.4byte	.LVL268
 17187 1458 0100     		.2byte	0x1
 17188 145a 50       		.byte	0x50
 17189 145b 10000000 		.4byte	.LVL268
 17190 145f 16000000 		.4byte	.LVL269
 17191 1463 0100     		.2byte	0x1
 17192 1465 54       		.byte	0x54
 17193 1466 16000000 		.4byte	.LVL269
 17194 146a 24000000 		.4byte	.LVL270
 17195 146e 0100     		.2byte	0x1
 17196 1470 50       		.byte	0x50
 17197 1471 24000000 		.4byte	.LVL270
 17198 1475 34000000 		.4byte	.LVL271
 17199 1479 0100     		.2byte	0x1
 17200 147b 54       		.byte	0x54
 17201 147c 34000000 		.4byte	.LVL271
 17202 1480 52000000 		.4byte	.LVL274
 17203 1484 0100     		.2byte	0x1
 17204 1486 50       		.byte	0x50
 17205 1487 52000000 		.4byte	.LVL274
 17206 148b 58000000 		.4byte	.LVL275
 17207 148f 0100     		.2byte	0x1
 17208 1491 54       		.byte	0x54
 17209 1492 58000000 		.4byte	.LVL275
 17210 1496 62000000 		.4byte	.LVL277
 17211 149a 0100     		.2byte	0x1
 17212 149c 50       		.byte	0x50
 17213 149d 62000000 		.4byte	.LVL277
 17214 14a1 3A010000 		.4byte	.LFE254
 17215 14a5 0100     		.2byte	0x1
 17216 14a7 54       		.byte	0x54
 17217 14a8 00000000 		.4byte	0
 17218 14ac 00000000 		.4byte	0
 17219              	.LLST82:
 17220 14b0 00000000 		.4byte	.LVL266
 17221 14b4 10000000 		.4byte	.LVL268
ARM GAS  /tmp/ccZHgRNF.s 			page 304


 17222 14b8 0100     		.2byte	0x1
 17223 14ba 51       		.byte	0x51
 17224 14bb 10000000 		.4byte	.LVL268
 17225 14bf 16000000 		.4byte	.LVL269
 17226 14c3 0100     		.2byte	0x1
 17227 14c5 56       		.byte	0x56
 17228 14c6 16000000 		.4byte	.LVL269
 17229 14ca 24000000 		.4byte	.LVL270
 17230 14ce 0100     		.2byte	0x1
 17231 14d0 51       		.byte	0x51
 17232 14d1 24000000 		.4byte	.LVL270
 17233 14d5 34000000 		.4byte	.LVL271
 17234 14d9 0400     		.2byte	0x4
 17235 14db F3       		.byte	0xf3
 17236 14dc 01       		.uleb128 0x1
 17237 14dd 51       		.byte	0x51
 17238 14de 9F       		.byte	0x9f
 17239 14df 34000000 		.4byte	.LVL271
 17240 14e3 36000000 		.4byte	.LVL272
 17241 14e7 0100     		.2byte	0x1
 17242 14e9 51       		.byte	0x51
 17243 14ea 36000000 		.4byte	.LVL272
 17244 14ee 7C000000 		.4byte	.LVL279
 17245 14f2 0100     		.2byte	0x1
 17246 14f4 56       		.byte	0x56
 17247 14f5 7C000000 		.4byte	.LVL279
 17248 14f9 94000000 		.4byte	.LVL282
 17249 14fd 0400     		.2byte	0x4
 17250 14ff F3       		.byte	0xf3
 17251 1500 01       		.uleb128 0x1
 17252 1501 51       		.byte	0x51
 17253 1502 9F       		.byte	0x9f
 17254 1503 94000000 		.4byte	.LVL282
 17255 1507 AA000000 		.4byte	.LVL285
 17256 150b 0100     		.2byte	0x1
 17257 150d 56       		.byte	0x56
 17258 150e AA000000 		.4byte	.LVL285
 17259 1512 B0000000 		.4byte	.LVL286
 17260 1516 0400     		.2byte	0x4
 17261 1518 F3       		.byte	0xf3
 17262 1519 01       		.uleb128 0x1
 17263 151a 51       		.byte	0x51
 17264 151b 9F       		.byte	0x9f
 17265 151c B0000000 		.4byte	.LVL286
 17266 1520 DC000000 		.4byte	.LVL294
 17267 1524 0100     		.2byte	0x1
 17268 1526 56       		.byte	0x56
 17269 1527 DC000000 		.4byte	.LVL294
 17270 152b 22010000 		.4byte	.LVL300
 17271 152f 0400     		.2byte	0x4
 17272 1531 F3       		.byte	0xf3
 17273 1532 01       		.uleb128 0x1
 17274 1533 51       		.byte	0x51
 17275 1534 9F       		.byte	0x9f
 17276 1535 22010000 		.4byte	.LVL300
 17277 1539 2E010000 		.4byte	.LVL302
 17278 153d 0100     		.2byte	0x1
ARM GAS  /tmp/ccZHgRNF.s 			page 305


 17279 153f 56       		.byte	0x56
 17280 1540 2E010000 		.4byte	.LVL302
 17281 1544 3A010000 		.4byte	.LFE254
 17282 1548 0400     		.2byte	0x4
 17283 154a F3       		.byte	0xf3
 17284 154b 01       		.uleb128 0x1
 17285 154c 51       		.byte	0x51
 17286 154d 9F       		.byte	0x9f
 17287 154e 00000000 		.4byte	0
 17288 1552 00000000 		.4byte	0
 17289              	.LLST83:
 17290 1556 7C000000 		.4byte	.LVL279
 17291 155a 94000000 		.4byte	.LVL282
 17292 155e 0100     		.2byte	0x1
 17293 1560 58       		.byte	0x58
 17294 1561 A0000000 		.4byte	.LVL283
 17295 1565 A6000000 		.4byte	.LVL284
 17296 1569 0100     		.2byte	0x1
 17297 156b 50       		.byte	0x50
 17298 156c A6000000 		.4byte	.LVL284
 17299 1570 AA000000 		.4byte	.LVL285
 17300 1574 0100     		.2byte	0x1
 17301 1576 58       		.byte	0x58
 17302 1577 B0000000 		.4byte	.LVL286
 17303 157b BC000000 		.4byte	.LVL287
 17304 157f 0100     		.2byte	0x1
 17305 1581 50       		.byte	0x50
 17306 1582 BC000000 		.4byte	.LVL287
 17307 1586 3A010000 		.4byte	.LFE254
 17308 158a 0100     		.2byte	0x1
 17309 158c 58       		.byte	0x58
 17310 158d 00000000 		.4byte	0
 17311 1591 00000000 		.4byte	0
 17312              	.LLST84:
 17313 1595 48000000 		.4byte	.LVL273
 17314 1599 52000000 		.4byte	.LVL274
 17315 159d 0100     		.2byte	0x1
 17316 159f 51       		.byte	0x51
 17317 15a0 60000000 		.4byte	.LVL276
 17318 15a4 65000000 		.4byte	.LVL278-1
 17319 15a8 0100     		.2byte	0x1
 17320 15aa 51       		.byte	0x51
 17321 15ab 00000000 		.4byte	0
 17322 15af 00000000 		.4byte	0
 17323              	.LLST85:
 17324 15b3 48000000 		.4byte	.LVL273
 17325 15b7 52000000 		.4byte	.LVL274
 17326 15bb 0100     		.2byte	0x1
 17327 15bd 53       		.byte	0x53
 17328 15be 60000000 		.4byte	.LVL276
 17329 15c2 65000000 		.4byte	.LVL278-1
 17330 15c6 0100     		.2byte	0x1
 17331 15c8 53       		.byte	0x53
 17332 15c9 00000000 		.4byte	0
 17333 15cd 00000000 		.4byte	0
 17334              	.LLST86:
 17335 15d1 84000000 		.4byte	.LVL280
ARM GAS  /tmp/ccZHgRNF.s 			page 306


 17336 15d5 8C000000 		.4byte	.LVL281
 17337 15d9 0100     		.2byte	0x1
 17338 15db 56       		.byte	0x56
 17339 15dc 00000000 		.4byte	0
 17340 15e0 00000000 		.4byte	0
 17341              	.LLST87:
 17342 15e4 84000000 		.4byte	.LVL280
 17343 15e8 94000000 		.4byte	.LVL282
 17344 15ec 0100     		.2byte	0x1
 17345 15ee 53       		.byte	0x53
 17346 15ef 00000000 		.4byte	0
 17347 15f3 00000000 		.4byte	0
 17348              	.LLST88:
 17349 15f7 EE000000 		.4byte	.LVL295
 17350 15fb F8000000 		.4byte	.LVL296
 17351 15ff 0200     		.2byte	0x2
 17352 1601 30       		.byte	0x30
 17353 1602 9F       		.byte	0x9f
 17354 1603 F8000000 		.4byte	.LVL296
 17355 1607 22010000 		.4byte	.LVL300
 17356 160b 0100     		.2byte	0x1
 17357 160d 59       		.byte	0x59
 17358 160e 2E010000 		.4byte	.LVL302
 17359 1612 3A010000 		.4byte	.LFE254
 17360 1616 0100     		.2byte	0x1
 17361 1618 59       		.byte	0x59
 17362 1619 00000000 		.4byte	0
 17363 161d 00000000 		.4byte	0
 17364              	.LLST89:
 17365 1621 BC000000 		.4byte	.LVL287
 17366 1625 C2000000 		.4byte	.LVL288
 17367 1629 0100     		.2byte	0x1
 17368 162b 50       		.byte	0x50
 17369 162c 22010000 		.4byte	.LVL300
 17370 1630 25010000 		.4byte	.LVL301-1
 17371 1634 0100     		.2byte	0x1
 17372 1636 50       		.byte	0x50
 17373 1637 00000000 		.4byte	0
 17374 163b 00000000 		.4byte	0
 17375              	.LLST90:
 17376 163f C6000000 		.4byte	.LVL289
 17377 1643 22010000 		.4byte	.LVL300
 17378 1647 0400     		.2byte	0x4
 17379 1649 0A       		.byte	0xa
 17380 164a FF01     		.2byte	0x1ff
 17381 164c 9F       		.byte	0x9f
 17382 164d 2E010000 		.4byte	.LVL302
 17383 1651 3A010000 		.4byte	.LFE254
 17384 1655 0400     		.2byte	0x4
 17385 1657 0A       		.byte	0xa
 17386 1658 FF01     		.2byte	0x1ff
 17387 165a 9F       		.byte	0x9f
 17388 165b 00000000 		.4byte	0
 17389 165f 00000000 		.4byte	0
 17390              	.LLST91:
 17391 1663 C6000000 		.4byte	.LVL289
 17392 1667 22010000 		.4byte	.LVL300
ARM GAS  /tmp/ccZHgRNF.s 			page 307


 17393 166b 0200     		.2byte	0x2
 17394 166d 30       		.byte	0x30
 17395 166e 9F       		.byte	0x9f
 17396 166f 2E010000 		.4byte	.LVL302
 17397 1673 3A010000 		.4byte	.LFE254
 17398 1677 0200     		.2byte	0x2
 17399 1679 30       		.byte	0x30
 17400 167a 9F       		.byte	0x9f
 17401 167b 00000000 		.4byte	0
 17402 167f 00000000 		.4byte	0
 17403              	.LLST92:
 17404 1683 C6000000 		.4byte	.LVL289
 17405 1687 CC000000 		.4byte	.LVL290
 17406 168b 0100     		.2byte	0x1
 17407 168d 53       		.byte	0x53
 17408 168e CC000000 		.4byte	.LVL290
 17409 1692 D6000000 		.4byte	.LVL292
 17410 1696 0400     		.2byte	0x4
 17411 1698 70       		.byte	0x70
 17412 1699 807C     		.sleb128 -512
 17413 169b 9F       		.byte	0x9f
 17414 169c 00000000 		.4byte	0
 17415 16a0 00000000 		.4byte	0
 17416              	.LLST93:
 17417 16a4 C6000000 		.4byte	.LVL289
 17418 16a8 D8000000 		.4byte	.LVL293
 17419 16ac 0100     		.2byte	0x1
 17420 16ae 53       		.byte	0x53
 17421 16af 00000000 		.4byte	0
 17422 16b3 00000000 		.4byte	0
 17423              	.LLST94:
 17424 16b7 D6000000 		.4byte	.LVL292
 17425 16bb DC000000 		.4byte	.LVL294
 17426 16bf 0100     		.2byte	0x1
 17427 16c1 58       		.byte	0x58
 17428 16c2 DC000000 		.4byte	.LVL294
 17429 16c6 22010000 		.4byte	.LVL300
 17430 16ca 0100     		.2byte	0x1
 17431 16cc 56       		.byte	0x56
 17432 16cd 2E010000 		.4byte	.LVL302
 17433 16d1 3A010000 		.4byte	.LFE254
 17434 16d5 0100     		.2byte	0x1
 17435 16d7 56       		.byte	0x56
 17436 16d8 00000000 		.4byte	0
 17437 16dc 00000000 		.4byte	0
 17438              	.LLST95:
 17439 16e0 D6000000 		.4byte	.LVL292
 17440 16e4 F8000000 		.4byte	.LVL296
 17441 16e8 0100     		.2byte	0x1
 17442 16ea 50       		.byte	0x50
 17443 16eb 00000000 		.4byte	0
 17444 16ef 00000000 		.4byte	0
 17445              	.LLST96:
 17446 16f3 10010000 		.4byte	.LVL298
 17447 16f7 19010000 		.4byte	.LVL299-1
 17448 16fb 0100     		.2byte	0x1
 17449 16fd 50       		.byte	0x50
ARM GAS  /tmp/ccZHgRNF.s 			page 308


 17450 16fe 00000000 		.4byte	0
 17451 1702 00000000 		.4byte	0
 17452              	.LLST97:
 17453 1706 00000000 		.4byte	.LVL303
 17454 170a 28000000 		.4byte	.LVL306
 17455 170e 0100     		.2byte	0x1
 17456 1710 50       		.byte	0x50
 17457 1711 28000000 		.4byte	.LVL306
 17458 1715 D8000000 		.4byte	.LVL339
 17459 1719 0100     		.2byte	0x1
 17460 171b 5A       		.byte	0x5a
 17461 171c D8000000 		.4byte	.LVL339
 17462 1720 E8000000 		.4byte	.LVL341
 17463 1724 0100     		.2byte	0x1
 17464 1726 50       		.byte	0x50
 17465 1727 E8000000 		.4byte	.LVL341
 17466 172b FC010000 		.4byte	.LFE264
 17467 172f 0100     		.2byte	0x1
 17468 1731 5A       		.byte	0x5a
 17469 1732 00000000 		.4byte	0
 17470 1736 00000000 		.4byte	0
 17471              	.LLST98:
 17472 173a 00000000 		.4byte	.LVL303
 17473 173e 1E000000 		.4byte	.LVL304
 17474 1742 0100     		.2byte	0x1
 17475 1744 51       		.byte	0x51
 17476 1745 1E000000 		.4byte	.LVL304
 17477 1749 28000000 		.4byte	.LVL306
 17478 174d 0100     		.2byte	0x1
 17479 174f 57       		.byte	0x57
 17480 1750 A6000000 		.4byte	.LVL324
 17481 1754 AA000000 		.4byte	.LVL326
 17482 1758 0100     		.2byte	0x1
 17483 175a 59       		.byte	0x59
 17484 175b D0000000 		.4byte	.LVL336
 17485 175f D6000000 		.4byte	.LVL338
 17486 1763 0100     		.2byte	0x1
 17487 1765 59       		.byte	0x59
 17488 1766 D6000000 		.4byte	.LVL338
 17489 176a D8000000 		.4byte	.LVL339
 17490 176e 0100     		.2byte	0x1
 17491 1770 57       		.byte	0x57
 17492 1771 D8000000 		.4byte	.LVL339
 17493 1775 DA000000 		.4byte	.LVL340
 17494 1779 0100     		.2byte	0x1
 17495 177b 51       		.byte	0x51
 17496 177c DA000000 		.4byte	.LVL340
 17497 1780 F6000000 		.4byte	.LVL343
 17498 1784 0100     		.2byte	0x1
 17499 1786 57       		.byte	0x57
 17500 1787 28010000 		.4byte	.LVL348
 17501 178b E4010000 		.4byte	.LVL381
 17502 178f 0100     		.2byte	0x1
 17503 1791 57       		.byte	0x57
 17504 1792 00000000 		.4byte	0
 17505 1796 00000000 		.4byte	0
 17506              	.LLST99:
ARM GAS  /tmp/ccZHgRNF.s 			page 309


 17507 179a EE000000 		.4byte	.LVL342
 17508 179e F6000000 		.4byte	.LVL343
 17509 17a2 0100     		.2byte	0x1
 17510 17a4 50       		.byte	0x50
 17511 17a5 00000000 		.4byte	0
 17512 17a9 00000000 		.4byte	0
 17513              	.LLST100:
 17514 17ad 7C010000 		.4byte	.LVL362
 17515 17b1 9E010000 		.4byte	.LVL368
 17516 17b5 0100     		.2byte	0x1
 17517 17b7 51       		.byte	0x51
 17518 17b8 B8010000 		.4byte	.LVL373
 17519 17bc C6010000 		.4byte	.LVL375
 17520 17c0 0100     		.2byte	0x1
 17521 17c2 51       		.byte	0x51
 17522 17c3 DA010000 		.4byte	.LVL378
 17523 17c7 E0010000 		.4byte	.LVL380
 17524 17cb 0100     		.2byte	0x1
 17525 17cd 51       		.byte	0x51
 17526 17ce 00000000 		.4byte	0
 17527 17d2 00000000 		.4byte	0
 17528              	.LLST101:
 17529 17d6 74010000 		.4byte	.LVL360
 17530 17da 98010000 		.4byte	.LVL366
 17531 17de 0200     		.2byte	0x2
 17532 17e0 7C       		.byte	0x7c
 17533 17e1 0B       		.sleb128 11
 17534 17e2 B2010000 		.4byte	.LVL372
 17535 17e6 B8010000 		.4byte	.LVL373
 17536 17ea 0500     		.2byte	0x5
 17537 17ec 7A       		.byte	0x7a
 17538 17ed 18       		.sleb128 24
 17539 17ee 06       		.byte	0x6
 17540 17ef 23       		.byte	0x23
 17541 17f0 0B       		.uleb128 0xb
 17542 17f1 B8010000 		.4byte	.LVL373
 17543 17f5 C6010000 		.4byte	.LVL375
 17544 17f9 0200     		.2byte	0x2
 17545 17fb 7C       		.byte	0x7c
 17546 17fc 0B       		.sleb128 11
 17547 17fd CC010000 		.4byte	.LVL376
 17548 1801 DA010000 		.4byte	.LVL378
 17549 1805 0100     		.2byte	0x1
 17550 1807 53       		.byte	0x53
 17551 1808 DA010000 		.4byte	.LVL378
 17552 180c E4010000 		.4byte	.LVL381
 17553 1810 0200     		.2byte	0x2
 17554 1812 7C       		.byte	0x7c
 17555 1813 0B       		.sleb128 11
 17556 1814 00000000 		.4byte	0
 17557 1818 00000000 		.4byte	0
 17558              	.LLST102:
 17559 181c 26000000 		.4byte	.LVL305
 17560 1820 28000000 		.4byte	.LVL306
 17561 1824 0100     		.2byte	0x1
 17562 1826 50       		.byte	0x50
 17563 1827 28000000 		.4byte	.LVL306
ARM GAS  /tmp/ccZHgRNF.s 			page 310


 17564 182b D8000000 		.4byte	.LVL339
 17565 182f 0100     		.2byte	0x1
 17566 1831 5A       		.byte	0x5a
 17567 1832 F6000000 		.4byte	.LVL343
 17568 1836 FC010000 		.4byte	.LFE264
 17569 183a 0100     		.2byte	0x1
 17570 183c 5A       		.byte	0x5a
 17571 183d 00000000 		.4byte	0
 17572 1841 00000000 		.4byte	0
 17573              	.LLST103:
 17574 1845 26000000 		.4byte	.LVL305
 17575 1849 D8000000 		.4byte	.LVL339
 17576 184d 0600     		.2byte	0x6
 17577 184f F2       		.byte	0xf2
 17578 1850 181A0000 		.4byte	.Ldebug_info0+6680
 17579 1854 00       		.sleb128 0
 17580 1855 F6000000 		.4byte	.LVL343
 17581 1859 FC010000 		.4byte	.LFE264
 17582 185d 0600     		.2byte	0x6
 17583 185f F2       		.byte	0xf2
 17584 1860 181A0000 		.4byte	.Ldebug_info0+6680
 17585 1864 00       		.sleb128 0
 17586 1865 00000000 		.4byte	0
 17587 1869 00000000 		.4byte	0
 17588              	.LLST104:
 17589 186d 4C000000 		.4byte	.LVL311
 17590 1871 5A000000 		.4byte	.LVL314
 17591 1875 0100     		.2byte	0x1
 17592 1877 55       		.byte	0x55
 17593 1878 70000000 		.4byte	.LVL315
 17594 187c A4000000 		.4byte	.LVL323
 17595 1880 0100     		.2byte	0x1
 17596 1882 55       		.byte	0x55
 17597 1883 B0000000 		.4byte	.LVL328
 17598 1887 C2000000 		.4byte	.LVL332
 17599 188b 0100     		.2byte	0x1
 17600 188d 55       		.byte	0x55
 17601 188e C8000000 		.4byte	.LVL333
 17602 1892 CE000000 		.4byte	.LVL335
 17603 1896 0100     		.2byte	0x1
 17604 1898 55       		.byte	0x55
 17605 1899 0C010000 		.4byte	.LVL344
 17606 189d 16010000 		.4byte	.LVL345
 17607 18a1 0100     		.2byte	0x1
 17608 18a3 55       		.byte	0x55
 17609 18a4 F0010000 		.4byte	.LVL383
 17610 18a8 FC010000 		.4byte	.LFE264
 17611 18ac 0100     		.2byte	0x1
 17612 18ae 55       		.byte	0x55
 17613 18af 00000000 		.4byte	0
 17614 18b3 00000000 		.4byte	0
 17615              	.LLST105:
 17616 18b7 56000000 		.4byte	.LVL313
 17617 18bb 5A000000 		.4byte	.LVL314
 17618 18bf 0200     		.2byte	0x2
 17619 18c1 79       		.byte	0x79
 17620 18c2 7F       		.sleb128 -1
ARM GAS  /tmp/ccZHgRNF.s 			page 311


 17621 18c3 70000000 		.4byte	.LVL315
 17622 18c7 A0000000 		.4byte	.LVL322
 17623 18cb 0100     		.2byte	0x1
 17624 18cd 52       		.byte	0x52
 17625 18ce A0000000 		.4byte	.LVL322
 17626 18d2 A4000000 		.4byte	.LVL323
 17627 18d6 0200     		.2byte	0x2
 17628 18d8 79       		.byte	0x79
 17629 18d9 7F       		.sleb128 -1
 17630 18da A8000000 		.4byte	.LVL325
 17631 18de AA000000 		.4byte	.LVL326
 17632 18e2 0100     		.2byte	0x1
 17633 18e4 53       		.byte	0x53
 17634 18e5 B0000000 		.4byte	.LVL328
 17635 18e9 BA000000 		.4byte	.LVL329
 17636 18ed 0100     		.2byte	0x1
 17637 18ef 52       		.byte	0x52
 17638 18f0 BA000000 		.4byte	.LVL329
 17639 18f4 BC000000 		.4byte	.LVL330
 17640 18f8 0300     		.2byte	0x3
 17641 18fa 72       		.byte	0x72
 17642 18fb 20       		.sleb128 32
 17643 18fc 9F       		.byte	0x9f
 17644 18fd BC000000 		.4byte	.LVL330
 17645 1901 C0000000 		.4byte	.LVL331
 17646 1905 0400     		.2byte	0x4
 17647 1907 73       		.byte	0x73
 17648 1908 E100     		.sleb128 97
 17649 190a 9F       		.byte	0x9f
 17650 190b C0000000 		.4byte	.LVL331
 17651 190f C2000000 		.4byte	.LVL332
 17652 1913 0100     		.2byte	0x1
 17653 1915 52       		.byte	0x52
 17654 1916 CC000000 		.4byte	.LVL334
 17655 191a CE000000 		.4byte	.LVL335
 17656 191e 0100     		.2byte	0x1
 17657 1920 52       		.byte	0x52
 17658 1921 D2000000 		.4byte	.LVL337
 17659 1925 D8000000 		.4byte	.LVL339
 17660 1929 0100     		.2byte	0x1
 17661 192b 53       		.byte	0x53
 17662 192c 1C010000 		.4byte	.LVL346
 17663 1930 2F010000 		.4byte	.LVL350-1
 17664 1934 0100     		.2byte	0x1
 17665 1936 53       		.byte	0x53
 17666 1937 00000000 		.4byte	0
 17667 193b 00000000 		.4byte	0
 17668              	.LLST106:
 17669 193f 34000000 		.4byte	.LVL308
 17670 1943 D8000000 		.4byte	.LVL339
 17671 1947 0100     		.2byte	0x1
 17672 1949 5C       		.byte	0x5c
 17673 194a F6000000 		.4byte	.LVL343
 17674 194e 2F010000 		.4byte	.LVL350-1
 17675 1952 0100     		.2byte	0x1
 17676 1954 5C       		.byte	0x5c
 17677 1955 E4010000 		.4byte	.LVL381
ARM GAS  /tmp/ccZHgRNF.s 			page 312


 17678 1959 FC010000 		.4byte	.LFE264
 17679 195d 0100     		.2byte	0x1
 17680 195f 5C       		.byte	0x5c
 17681 1960 00000000 		.4byte	0
 17682 1964 00000000 		.4byte	0
 17683              	.LLST107:
 17684 1968 4C000000 		.4byte	.LVL311
 17685 196c D8000000 		.4byte	.LVL339
 17686 1970 0100     		.2byte	0x1
 17687 1972 56       		.byte	0x56
 17688 1973 F6000000 		.4byte	.LVL343
 17689 1977 34010000 		.4byte	.LVL351
 17690 197b 0100     		.2byte	0x1
 17691 197d 56       		.byte	0x56
 17692 197e E4010000 		.4byte	.LVL381
 17693 1982 EA010000 		.4byte	.LVL382
 17694 1986 0100     		.2byte	0x1
 17695 1988 56       		.byte	0x56
 17696 1989 EA010000 		.4byte	.LVL382
 17697 198d FC010000 		.4byte	.LFE264
 17698 1991 0200     		.2byte	0x2
 17699 1993 3B       		.byte	0x3b
 17700 1994 9F       		.byte	0x9f
 17701 1995 00000000 		.4byte	0
 17702 1999 00000000 		.4byte	0
 17703              	.LLST108:
 17704 199d 4C000000 		.4byte	.LVL311
 17705 19a1 92000000 		.4byte	.LVL320
 17706 19a5 0100     		.2byte	0x1
 17707 19a7 50       		.byte	0x50
 17708 19a8 92000000 		.4byte	.LVL320
 17709 19ac 9C000000 		.4byte	.LVL321
 17710 19b0 0300     		.2byte	0x3
 17711 19b2 70       		.byte	0x70
 17712 19b3 7F       		.sleb128 -1
 17713 19b4 9F       		.byte	0x9f
 17714 19b5 9C000000 		.4byte	.LVL321
 17715 19b9 AC000000 		.4byte	.LVL327
 17716 19bd 0100     		.2byte	0x1
 17717 19bf 50       		.byte	0x50
 17718 19c0 B0000000 		.4byte	.LVL328
 17719 19c4 D8000000 		.4byte	.LVL339
 17720 19c8 0100     		.2byte	0x1
 17721 19ca 50       		.byte	0x50
 17722 19cb F6000000 		.4byte	.LVL343
 17723 19cf 2A010000 		.4byte	.LVL349
 17724 19d3 0100     		.2byte	0x1
 17725 19d5 50       		.byte	0x50
 17726 19d6 E4010000 		.4byte	.LVL381
 17727 19da FC010000 		.4byte	.LFE264
 17728 19de 0100     		.2byte	0x1
 17729 19e0 50       		.byte	0x50
 17730 19e1 00000000 		.4byte	0
 17731 19e5 00000000 		.4byte	0
 17732              	.LLST109:
 17733 19e9 4C000000 		.4byte	.LVL311
 17734 19ed 90000000 		.4byte	.LVL319
ARM GAS  /tmp/ccZHgRNF.s 			page 313


 17735 19f1 0100     		.2byte	0x1
 17736 19f3 54       		.byte	0x54
 17737 19f4 90000000 		.4byte	.LVL319
 17738 19f8 9C000000 		.4byte	.LVL321
 17739 19fc 0300     		.2byte	0x3
 17740 19fe 74       		.byte	0x74
 17741 19ff 01       		.sleb128 1
 17742 1a00 9F       		.byte	0x9f
 17743 1a01 9C000000 		.4byte	.LVL321
 17744 1a05 D8000000 		.4byte	.LVL339
 17745 1a09 0100     		.2byte	0x1
 17746 1a0b 54       		.byte	0x54
 17747 1a0c F6000000 		.4byte	.LVL343
 17748 1a10 34010000 		.4byte	.LVL351
 17749 1a14 0100     		.2byte	0x1
 17750 1a16 54       		.byte	0x54
 17751 1a17 E4010000 		.4byte	.LVL381
 17752 1a1b EA010000 		.4byte	.LVL382
 17753 1a1f 0100     		.2byte	0x1
 17754 1a21 54       		.byte	0x54
 17755 1a22 EA010000 		.4byte	.LVL382
 17756 1a26 FC010000 		.4byte	.LFE264
 17757 1a2a 0200     		.2byte	0x2
 17758 1a2c 38       		.byte	0x38
 17759 1a2d 9F       		.byte	0x9f
 17760 1a2e 00000000 		.4byte	0
 17761 1a32 00000000 		.4byte	0
 17762              	.LLST110:
 17763 1a36 26000000 		.4byte	.LVL305
 17764 1a3a A6000000 		.4byte	.LVL324
 17765 1a3e 0100     		.2byte	0x1
 17766 1a40 57       		.byte	0x57
 17767 1a41 B0000000 		.4byte	.LVL328
 17768 1a45 D0000000 		.4byte	.LVL336
 17769 1a49 0100     		.2byte	0x1
 17770 1a4b 57       		.byte	0x57
 17771 1a4c E4010000 		.4byte	.LVL381
 17772 1a50 FC010000 		.4byte	.LFE264
 17773 1a54 0100     		.2byte	0x1
 17774 1a56 57       		.byte	0x57
 17775 1a57 00000000 		.4byte	0
 17776 1a5b 00000000 		.4byte	0
 17777              	.LLST111:
 17778 1a5f 34000000 		.4byte	.LVL308
 17779 1a63 3C000000 		.4byte	.LVL309
 17780 1a67 0200     		.2byte	0x2
 17781 1a69 3A       		.byte	0x3a
 17782 1a6a 9F       		.byte	0x9f
 17783 1a6b 00000000 		.4byte	0
 17784 1a6f 00000000 		.4byte	0
 17785              	.LLST112:
 17786 1a73 34000000 		.4byte	.LVL308
 17787 1a77 D8000000 		.4byte	.LVL339
 17788 1a7b 0300     		.2byte	0x3
 17789 1a7d 08       		.byte	0x8
 17790 1a7e 20       		.byte	0x20
 17791 1a7f 9F       		.byte	0x9f
ARM GAS  /tmp/ccZHgRNF.s 			page 314


 17792 1a80 F6000000 		.4byte	.LVL343
 17793 1a84 FC010000 		.4byte	.LFE264
 17794 1a88 0300     		.2byte	0x3
 17795 1a8a 08       		.byte	0x8
 17796 1a8b 20       		.byte	0x20
 17797 1a8c 9F       		.byte	0x9f
 17798 1a8d 00000000 		.4byte	0
 17799 1a91 00000000 		.4byte	0
 17800              	.LLST114:
 17801 1a95 34000000 		.4byte	.LVL308
 17802 1a99 3C000000 		.4byte	.LVL309
 17803 1a9d 0100     		.2byte	0x1
 17804 1a9f 5C       		.byte	0x5c
 17805 1aa0 3C000000 		.4byte	.LVL309
 17806 1aa4 4C000000 		.4byte	.LVL311
 17807 1aa8 0100     		.2byte	0x1
 17808 1aaa 53       		.byte	0x53
 17809 1aab 00000000 		.4byte	0
 17810 1aaf 00000000 		.4byte	0
 17811              	.LLST115:
 17812 1ab3 70000000 		.4byte	.LVL315
 17813 1ab7 90000000 		.4byte	.LVL319
 17814 1abb 0100     		.2byte	0x1
 17815 1abd 52       		.byte	0x52
 17816 1abe B0000000 		.4byte	.LVL328
 17817 1ac2 BA000000 		.4byte	.LVL329
 17818 1ac6 0100     		.2byte	0x1
 17819 1ac8 52       		.byte	0x52
 17820 1ac9 BA000000 		.4byte	.LVL329
 17821 1acd BC000000 		.4byte	.LVL330
 17822 1ad1 0300     		.2byte	0x3
 17823 1ad3 72       		.byte	0x72
 17824 1ad4 20       		.sleb128 32
 17825 1ad5 9F       		.byte	0x9f
 17826 1ad6 BC000000 		.4byte	.LVL330
 17827 1ada C2000000 		.4byte	.LVL332
 17828 1ade 0400     		.2byte	0x4
 17829 1ae0 73       		.byte	0x73
 17830 1ae1 E100     		.sleb128 97
 17831 1ae3 9F       		.byte	0x9f
 17832 1ae4 00000000 		.4byte	0
 17833 1ae8 00000000 		.4byte	0
 17834              	.LLST116:
 17835 1aec 70000000 		.4byte	.LVL315
 17836 1af0 78000000 		.4byte	.LVL316
 17837 1af4 0600     		.2byte	0x6
 17838 1af6 03       		.byte	0x3
 17839 1af7 00000000 		.4byte	.LC0
 17840 1afb 9F       		.byte	0x9f
 17841 1afc 78000000 		.4byte	.LVL316
 17842 1b00 7C000000 		.4byte	.LVL317
 17843 1b04 0100     		.2byte	0x1
 17844 1b06 51       		.byte	0x51
 17845 1b07 7C000000 		.4byte	.LVL317
 17846 1b0b 80000000 		.4byte	.LVL318
 17847 1b0f 0300     		.2byte	0x3
 17848 1b11 71       		.byte	0x71
ARM GAS  /tmp/ccZHgRNF.s 			page 315


 17849 1b12 01       		.sleb128 1
 17850 1b13 9F       		.byte	0x9f
 17851 1b14 80000000 		.4byte	.LVL318
 17852 1b18 A4000000 		.4byte	.LVL323
 17853 1b1c 0100     		.2byte	0x1
 17854 1b1e 51       		.byte	0x51
 17855 1b1f B0000000 		.4byte	.LVL328
 17856 1b23 C2000000 		.4byte	.LVL332
 17857 1b27 0100     		.2byte	0x1
 17858 1b29 51       		.byte	0x51
 17859 1b2a 00000000 		.4byte	0
 17860 1b2e 00000000 		.4byte	0
 17861              	.LLST117:
 17862 1b32 28010000 		.4byte	.LVL348
 17863 1b36 E4010000 		.4byte	.LVL381
 17864 1b3a 0100     		.2byte	0x1
 17865 1b3c 5A       		.byte	0x5a
 17866 1b3d 00000000 		.4byte	0
 17867 1b41 00000000 		.4byte	0
 17868              	.LLST118:
 17869 1b45 30010000 		.4byte	.LVL350
 17870 1b49 38010000 		.4byte	.LVL352
 17871 1b4d 0100     		.2byte	0x1
 17872 1b4f 50       		.byte	0x50
 17873 1b50 40010000 		.4byte	.LVL353
 17874 1b54 88010000 		.4byte	.LVL364
 17875 1b58 0100     		.2byte	0x1
 17876 1b5a 50       		.byte	0x50
 17877 1b5b 9E010000 		.4byte	.LVL368
 17878 1b5f A0010000 		.4byte	.LVL369
 17879 1b63 0100     		.2byte	0x1
 17880 1b65 50       		.byte	0x50
 17881 1b66 A6010000 		.4byte	.LVL371
 17882 1b6a B8010000 		.4byte	.LVL373
 17883 1b6e 0100     		.2byte	0x1
 17884 1b70 50       		.byte	0x50
 17885 1b71 C6010000 		.4byte	.LVL375
 17886 1b75 D6010000 		.4byte	.LVL377
 17887 1b79 0100     		.2byte	0x1
 17888 1b7b 50       		.byte	0x50
 17889 1b7c DA010000 		.4byte	.LVL378
 17890 1b80 DC010000 		.4byte	.LVL379
 17891 1b84 0100     		.2byte	0x1
 17892 1b86 50       		.byte	0x50
 17893 1b87 E0010000 		.4byte	.LVL380
 17894 1b8b E4010000 		.4byte	.LVL381
 17895 1b8f 0100     		.2byte	0x1
 17896 1b91 50       		.byte	0x50
 17897 1b92 00000000 		.4byte	0
 17898 1b96 00000000 		.4byte	0
 17899              	.LLST119:
 17900 1b9a 48010000 		.4byte	.LVL355
 17901 1b9e 98010000 		.4byte	.LVL366
 17902 1ba2 0200     		.2byte	0x2
 17903 1ba4 71       		.byte	0x71
 17904 1ba5 00       		.sleb128 0
 17905 1ba6 9E010000 		.4byte	.LVL368
ARM GAS  /tmp/ccZHgRNF.s 			page 316


 17906 1baa A2010000 		.4byte	.LVL370
 17907 1bae 0200     		.2byte	0x2
 17908 1bb0 71       		.byte	0x71
 17909 1bb1 00       		.sleb128 0
 17910 1bb2 A2010000 		.4byte	.LVL370
 17911 1bb6 A5010000 		.4byte	.LVL371-1
 17912 1bba 0300     		.2byte	0x3
 17913 1bbc 7A       		.byte	0x7a
 17914 1bbd 14       		.sleb128 20
 17915 1bbe 06       		.byte	0x6
 17916 1bbf B8010000 		.4byte	.LVL373
 17917 1bc3 CC010000 		.4byte	.LVL376
 17918 1bc7 0200     		.2byte	0x2
 17919 1bc9 71       		.byte	0x71
 17920 1bca 00       		.sleb128 0
 17921 1bcb DA010000 		.4byte	.LVL378
 17922 1bcf E4010000 		.4byte	.LVL381
 17923 1bd3 0200     		.2byte	0x2
 17924 1bd5 71       		.byte	0x71
 17925 1bd6 00       		.sleb128 0
 17926 1bd7 00000000 		.4byte	0
 17927 1bdb 00000000 		.4byte	0
 17928              	.LLST120:
 17929 1bdf 46010000 		.4byte	.LVL354
 17930 1be3 A2010000 		.4byte	.LVL370
 17931 1be7 0100     		.2byte	0x1
 17932 1be9 51       		.byte	0x51
 17933 1bea A2010000 		.4byte	.LVL370
 17934 1bee A5010000 		.4byte	.LVL371-1
 17935 1bf2 0200     		.2byte	0x2
 17936 1bf4 7A       		.byte	0x7a
 17937 1bf5 14       		.sleb128 20
 17938 1bf6 B8010000 		.4byte	.LVL373
 17939 1bfa CC010000 		.4byte	.LVL376
 17940 1bfe 0100     		.2byte	0x1
 17941 1c00 51       		.byte	0x51
 17942 1c01 DA010000 		.4byte	.LVL378
 17943 1c05 E4010000 		.4byte	.LVL381
 17944 1c09 0100     		.2byte	0x1
 17945 1c0b 51       		.byte	0x51
 17946 1c0c 00000000 		.4byte	0
 17947 1c10 00000000 		.4byte	0
 17948              	.LLST121:
 17949 1c14 5A010000 		.4byte	.LVL356
 17950 1c18 64010000 		.4byte	.LVL357
 17951 1c1c 0200     		.2byte	0x2
 17952 1c1e 3A       		.byte	0x3a
 17953 1c1f 9F       		.byte	0x9f
 17954 1c20 00000000 		.4byte	0
 17955 1c24 00000000 		.4byte	0
 17956              	.LLST122:
 17957 1c28 5A010000 		.4byte	.LVL356
 17958 1c2c 9E010000 		.4byte	.LVL368
 17959 1c30 0100     		.2byte	0x1
 17960 1c32 5C       		.byte	0x5c
 17961 1c33 B8010000 		.4byte	.LVL373
 17962 1c37 C6010000 		.4byte	.LVL375
ARM GAS  /tmp/ccZHgRNF.s 			page 317


 17963 1c3b 0100     		.2byte	0x1
 17964 1c3d 5C       		.byte	0x5c
 17965 1c3e DA010000 		.4byte	.LVL378
 17966 1c42 E4010000 		.4byte	.LVL381
 17967 1c46 0100     		.2byte	0x1
 17968 1c48 5C       		.byte	0x5c
 17969 1c49 00000000 		.4byte	0
 17970 1c4d 00000000 		.4byte	0
 17971              	.LLST123:
 17972 1c51 5A010000 		.4byte	.LVL356
 17973 1c55 9E010000 		.4byte	.LVL368
 17974 1c59 0100     		.2byte	0x1
 17975 1c5b 51       		.byte	0x51
 17976 1c5c B8010000 		.4byte	.LVL373
 17977 1c60 C6010000 		.4byte	.LVL375
 17978 1c64 0100     		.2byte	0x1
 17979 1c66 51       		.byte	0x51
 17980 1c67 DA010000 		.4byte	.LVL378
 17981 1c6b E4010000 		.4byte	.LVL381
 17982 1c6f 0100     		.2byte	0x1
 17983 1c71 51       		.byte	0x51
 17984 1c72 00000000 		.4byte	0
 17985 1c76 00000000 		.4byte	0
 17986              	.LLST124:
 17987 1c7a 5A010000 		.4byte	.LVL356
 17988 1c7e 64010000 		.4byte	.LVL357
 17989 1c82 0100     		.2byte	0x1
 17990 1c84 51       		.byte	0x51
 17991 1c85 00000000 		.4byte	0
 17992 1c89 00000000 		.4byte	0
 17993              	.LLST125:
 17994 1c8d 5A010000 		.4byte	.LVL356
 17995 1c91 64010000 		.4byte	.LVL357
 17996 1c95 0100     		.2byte	0x1
 17997 1c97 5C       		.byte	0x5c
 17998 1c98 64010000 		.4byte	.LVL357
 17999 1c9c 78010000 		.4byte	.LVL361
 18000 1ca0 0100     		.2byte	0x1
 18001 1ca2 53       		.byte	0x53
 18002 1ca3 00000000 		.4byte	0
 18003 1ca7 00000000 		.4byte	0
 18004              	.LLST126:
 18005 1cab 5A010000 		.4byte	.LVL356
 18006 1caf 64010000 		.4byte	.LVL357
 18007 1cb3 0200     		.2byte	0x2
 18008 1cb5 30       		.byte	0x30
 18009 1cb6 9F       		.byte	0x9f
 18010 1cb7 64010000 		.4byte	.LVL357
 18011 1cbb 68010000 		.4byte	.LVL358
 18012 1cbf 0E00     		.2byte	0xe
 18013 1cc1 72       		.byte	0x72
 18014 1cc2 00       		.sleb128 0
 18015 1cc3 08       		.byte	0x8
 18016 1cc4 FF       		.byte	0xff
 18017 1cc5 1A       		.byte	0x1a
 18018 1cc6 73       		.byte	0x73
 18019 1cc7 7E       		.sleb128 -2
ARM GAS  /tmp/ccZHgRNF.s 			page 318


 18020 1cc8 94       		.byte	0x94
 18021 1cc9 01       		.byte	0x1
 18022 1cca 08       		.byte	0x8
 18023 1ccb FF       		.byte	0xff
 18024 1ccc 1A       		.byte	0x1a
 18025 1ccd 1C       		.byte	0x1c
 18026 1cce 9F       		.byte	0x9f
 18027 1ccf 68010000 		.4byte	.LVL358
 18028 1cd3 6C010000 		.4byte	.LVL359
 18029 1cd7 0E00     		.2byte	0xe
 18030 1cd9 72       		.byte	0x72
 18031 1cda 00       		.sleb128 0
 18032 1cdb 08       		.byte	0x8
 18033 1cdc FF       		.byte	0xff
 18034 1cdd 1A       		.byte	0x1a
 18035 1cde 73       		.byte	0x73
 18036 1cdf 7F       		.sleb128 -1
 18037 1ce0 94       		.byte	0x94
 18038 1ce1 01       		.byte	0x1
 18039 1ce2 08       		.byte	0x8
 18040 1ce3 FF       		.byte	0xff
 18041 1ce4 1A       		.byte	0x1a
 18042 1ce5 1C       		.byte	0x1c
 18043 1ce6 9F       		.byte	0x9f
 18044 1ce7 6C010000 		.4byte	.LVL359
 18045 1ceb 74010000 		.4byte	.LVL360
 18046 1cef 0E00     		.2byte	0xe
 18047 1cf1 72       		.byte	0x72
 18048 1cf2 00       		.sleb128 0
 18049 1cf3 08       		.byte	0x8
 18050 1cf4 FF       		.byte	0xff
 18051 1cf5 1A       		.byte	0x1a
 18052 1cf6 73       		.byte	0x73
 18053 1cf7 7E       		.sleb128 -2
 18054 1cf8 94       		.byte	0x94
 18055 1cf9 01       		.byte	0x1
 18056 1cfa 08       		.byte	0x8
 18057 1cfb FF       		.byte	0xff
 18058 1cfc 1A       		.byte	0x1a
 18059 1cfd 1C       		.byte	0x1c
 18060 1cfe 9F       		.byte	0x9f
 18061 1cff 74010000 		.4byte	.LVL360
 18062 1d03 9E010000 		.4byte	.LVL368
 18063 1d07 0200     		.2byte	0x2
 18064 1d09 30       		.byte	0x30
 18065 1d0a 9F       		.byte	0x9f
 18066 1d0b B8010000 		.4byte	.LVL373
 18067 1d0f C6010000 		.4byte	.LVL375
 18068 1d13 0200     		.2byte	0x2
 18069 1d15 30       		.byte	0x30
 18070 1d16 9F       		.byte	0x9f
 18071 1d17 DA010000 		.4byte	.LVL378
 18072 1d1b E4010000 		.4byte	.LVL381
 18073 1d1f 0200     		.2byte	0x2
 18074 1d21 30       		.byte	0x30
 18075 1d22 9F       		.byte	0x9f
 18076 1d23 00000000 		.4byte	0
ARM GAS  /tmp/ccZHgRNF.s 			page 319


 18077 1d27 00000000 		.4byte	0
 18078              	.LLST127:
 18079 1d2b 82010000 		.4byte	.LVL363
 18080 1d2f 9E010000 		.4byte	.LVL368
 18081 1d33 0200     		.2byte	0x2
 18082 1d35 7A       		.byte	0x7a
 18083 1d36 00       		.sleb128 0
 18084 1d37 B8010000 		.4byte	.LVL373
 18085 1d3b C6010000 		.4byte	.LVL375
 18086 1d3f 0200     		.2byte	0x2
 18087 1d41 7A       		.byte	0x7a
 18088 1d42 00       		.sleb128 0
 18089 1d43 00000000 		.4byte	0
 18090 1d47 00000000 		.4byte	0
 18091              	.LLST128:
 18092 1d4b 82010000 		.4byte	.LVL363
 18093 1d4f 9E010000 		.4byte	.LVL368
 18094 1d53 0100     		.2byte	0x1
 18095 1d55 51       		.byte	0x51
 18096 1d56 B8010000 		.4byte	.LVL373
 18097 1d5a C6010000 		.4byte	.LVL375
 18098 1d5e 0100     		.2byte	0x1
 18099 1d60 51       		.byte	0x51
 18100 1d61 00000000 		.4byte	0
 18101 1d65 00000000 		.4byte	0
 18102              	.LLST129:
 18103 1d69 92010000 		.4byte	.LVL365
 18104 1d6d 9C010000 		.4byte	.LVL367
 18105 1d71 0100     		.2byte	0x1
 18106 1d73 53       		.byte	0x53
 18107 1d74 9C010000 		.4byte	.LVL367
 18108 1d78 9E010000 		.4byte	.LVL368
 18109 1d7c 0200     		.2byte	0x2
 18110 1d7e 7A       		.byte	0x7a
 18111 1d7f 08       		.sleb128 8
 18112 1d80 B8010000 		.4byte	.LVL373
 18113 1d84 C6010000 		.4byte	.LVL375
 18114 1d88 0100     		.2byte	0x1
 18115 1d8a 53       		.byte	0x53
 18116 1d8b 00000000 		.4byte	0
 18117 1d8f 00000000 		.4byte	0
 18118              	.LLST130:
 18119 1d93 00000000 		.4byte	.LVL384
 18120 1d97 0C000000 		.4byte	.LVL386
 18121 1d9b 0100     		.2byte	0x1
 18122 1d9d 50       		.byte	0x50
 18123 1d9e 0C000000 		.4byte	.LVL386
 18124 1da2 5C000000 		.4byte	.LFE297
 18125 1da6 0100     		.2byte	0x1
 18126 1da8 54       		.byte	0x54
 18127 1da9 00000000 		.4byte	0
 18128 1dad 00000000 		.4byte	0
 18129              	.LLST131:
 18130 1db1 00000000 		.4byte	.LVL384
 18131 1db5 0C000000 		.4byte	.LVL386
 18132 1db9 0100     		.2byte	0x1
 18133 1dbb 51       		.byte	0x51
ARM GAS  /tmp/ccZHgRNF.s 			page 320


 18134 1dbc 0C000000 		.4byte	.LVL386
 18135 1dc0 5C000000 		.4byte	.LFE297
 18136 1dc4 0100     		.2byte	0x1
 18137 1dc6 55       		.byte	0x55
 18138 1dc7 00000000 		.4byte	0
 18139 1dcb 00000000 		.4byte	0
 18140              	.LLST132:
 18141 1dcf 06000000 		.4byte	.LVL385
 18142 1dd3 38000000 		.4byte	.LVL390
 18143 1dd7 0200     		.2byte	0x2
 18144 1dd9 30       		.byte	0x30
 18145 1dda 9F       		.byte	0x9f
 18146 1ddb 50000000 		.4byte	.LVL391
 18147 1ddf 5A000000 		.4byte	.LVL394
 18148 1de3 0200     		.2byte	0x2
 18149 1de5 30       		.byte	0x30
 18150 1de6 9F       		.byte	0x9f
 18151 1de7 5A000000 		.4byte	.LVL394
 18152 1deb 5C000000 		.4byte	.LFE297
 18153 1def 0100     		.2byte	0x1
 18154 1df1 50       		.byte	0x50
 18155 1df2 00000000 		.4byte	0
 18156 1df6 00000000 		.4byte	0
 18157              	.LLST133:
 18158 1dfa 06000000 		.4byte	.LVL385
 18159 1dfe 0C000000 		.4byte	.LVL386
 18160 1e02 0100     		.2byte	0x1
 18161 1e04 51       		.byte	0x51
 18162 1e05 0C000000 		.4byte	.LVL386
 18163 1e09 5C000000 		.4byte	.LFE297
 18164 1e0d 0100     		.2byte	0x1
 18165 1e0f 55       		.byte	0x55
 18166 1e10 00000000 		.4byte	0
 18167 1e14 00000000 		.4byte	0
 18168              	.LLST134:
 18169 1e18 18000000 		.4byte	.LVL387
 18170 1e1c 2A000000 		.4byte	.LVL388
 18171 1e20 0200     		.2byte	0x2
 18172 1e22 30       		.byte	0x30
 18173 1e23 9F       		.byte	0x9f
 18174 1e24 2E000000 		.4byte	.LVL389
 18175 1e28 54000000 		.4byte	.LVL392
 18176 1e2c 0200     		.2byte	0x2
 18177 1e2e 30       		.byte	0x30
 18178 1e2f 9F       		.byte	0x9f
 18179 1e30 58000000 		.4byte	.LVL393
 18180 1e34 5C000000 		.4byte	.LFE297
 18181 1e38 0200     		.2byte	0x2
 18182 1e3a 30       		.byte	0x30
 18183 1e3b 9F       		.byte	0x9f
 18184 1e3c 00000000 		.4byte	0
 18185 1e40 00000000 		.4byte	0
 18186              	.LLST135:
 18187 1e44 18000000 		.4byte	.LVL387
 18188 1e48 2A000000 		.4byte	.LVL388
 18189 1e4c 0100     		.2byte	0x1
 18190 1e4e 55       		.byte	0x55
ARM GAS  /tmp/ccZHgRNF.s 			page 321


 18191 1e4f 2E000000 		.4byte	.LVL389
 18192 1e53 50000000 		.4byte	.LVL391
 18193 1e57 0100     		.2byte	0x1
 18194 1e59 55       		.byte	0x55
 18195 1e5a 58000000 		.4byte	.LVL393
 18196 1e5e 5C000000 		.4byte	.LFE297
 18197 1e62 0100     		.2byte	0x1
 18198 1e64 55       		.byte	0x55
 18199 1e65 00000000 		.4byte	0
 18200 1e69 00000000 		.4byte	0
 18201              	.LLST136:
 18202 1e6d 18000000 		.4byte	.LVL387
 18203 1e71 2A000000 		.4byte	.LVL388
 18204 1e75 0100     		.2byte	0x1
 18205 1e77 54       		.byte	0x54
 18206 1e78 2E000000 		.4byte	.LVL389
 18207 1e7c 54000000 		.4byte	.LVL392
 18208 1e80 0100     		.2byte	0x1
 18209 1e82 54       		.byte	0x54
 18210 1e83 58000000 		.4byte	.LVL393
 18211 1e87 5C000000 		.4byte	.LFE297
 18212 1e8b 0100     		.2byte	0x1
 18213 1e8d 54       		.byte	0x54
 18214 1e8e 00000000 		.4byte	0
 18215 1e92 00000000 		.4byte	0
 18216              	.LLST137:
 18217 1e96 38000000 		.4byte	.LVL390
 18218 1e9a 54000000 		.4byte	.LVL392
 18219 1e9e 0100     		.2byte	0x1
 18220 1ea0 50       		.byte	0x50
 18221 1ea1 00000000 		.4byte	0
 18222 1ea5 00000000 		.4byte	0
 18223              	.LLST138:
 18224 1ea9 00000000 		.4byte	.LVL395
 18225 1ead 06000000 		.4byte	.LVL396
 18226 1eb1 0100     		.2byte	0x1
 18227 1eb3 50       		.byte	0x50
 18228 1eb4 06000000 		.4byte	.LVL396
 18229 1eb8 16000000 		.4byte	.LVL399
 18230 1ebc 0100     		.2byte	0x1
 18231 1ebe 54       		.byte	0x54
 18232 1ebf 16000000 		.4byte	.LVL399
 18233 1ec3 35000000 		.4byte	.LVL404-1
 18234 1ec7 0100     		.2byte	0x1
 18235 1ec9 50       		.byte	0x50
 18236 1eca 35000000 		.4byte	.LVL404-1
 18237 1ece 48000000 		.4byte	.LVL408
 18238 1ed2 0100     		.2byte	0x1
 18239 1ed4 54       		.byte	0x54
 18240 1ed5 48000000 		.4byte	.LVL408
 18241 1ed9 4A000000 		.4byte	.LVL409
 18242 1edd 0100     		.2byte	0x1
 18243 1edf 50       		.byte	0x50
 18244 1ee0 4A000000 		.4byte	.LVL409
 18245 1ee4 5A000000 		.4byte	.LFE299
 18246 1ee8 0100     		.2byte	0x1
 18247 1eea 54       		.byte	0x54
ARM GAS  /tmp/ccZHgRNF.s 			page 322


 18248 1eeb 00000000 		.4byte	0
 18249 1eef 00000000 		.4byte	0
 18250              	.LLST139:
 18251 1ef3 0E000000 		.4byte	.LVL397
 18252 1ef7 14000000 		.4byte	.LVL398
 18253 1efb 0100     		.2byte	0x1
 18254 1efd 50       		.byte	0x50
 18255 1efe 36000000 		.4byte	.LVL404
 18256 1f02 38000000 		.4byte	.LVL405
 18257 1f06 0100     		.2byte	0x1
 18258 1f08 50       		.byte	0x50
 18259 1f09 40000000 		.4byte	.LVL406
 18260 1f0d 44000000 		.4byte	.LVL407
 18261 1f11 0100     		.2byte	0x1
 18262 1f13 50       		.byte	0x50
 18263 1f14 4A000000 		.4byte	.LVL409
 18264 1f18 4E000000 		.4byte	.LVL410
 18265 1f1c 0100     		.2byte	0x1
 18266 1f1e 55       		.byte	0x55
 18267 1f1f 52000000 		.4byte	.LVL411
 18268 1f23 56000000 		.4byte	.LVL412
 18269 1f27 0100     		.2byte	0x1
 18270 1f29 50       		.byte	0x50
 18271 1f2a 56000000 		.4byte	.LVL412
 18272 1f2e 5A000000 		.4byte	.LFE299
 18273 1f32 0100     		.2byte	0x1
 18274 1f34 55       		.byte	0x55
 18275 1f35 00000000 		.4byte	0
 18276 1f39 00000000 		.4byte	0
 18277              	.LLST140:
 18278 1f3d 1E000000 		.4byte	.LVL402
 18279 1f41 24000000 		.4byte	.LVL403
 18280 1f45 0600     		.2byte	0x6
 18281 1f47 72       		.byte	0x72
 18282 1f48 00       		.sleb128 0
 18283 1f49 08       		.byte	0x8
 18284 1f4a 3F       		.byte	0x3f
 18285 1f4b 1A       		.byte	0x1a
 18286 1f4c 9F       		.byte	0x9f
 18287 1f4d 24000000 		.4byte	.LVL403
 18288 1f51 35000000 		.4byte	.LVL404-1
 18289 1f55 0B00     		.2byte	0xb
 18290 1f57 70       		.byte	0x70
 18291 1f58 14       		.sleb128 20
 18292 1f59 06       		.byte	0x6
 18293 1f5a 23       		.byte	0x23
 18294 1f5b 0B       		.uleb128 0xb
 18295 1f5c 94       		.byte	0x94
 18296 1f5d 01       		.byte	0x1
 18297 1f5e 08       		.byte	0x8
 18298 1f5f 3F       		.byte	0x3f
 18299 1f60 1A       		.byte	0x1a
 18300 1f61 9F       		.byte	0x9f
 18301 1f62 00000000 		.4byte	0
 18302 1f66 00000000 		.4byte	0
 18303              	.LLST141:
 18304 1f6a 1A000000 		.4byte	.LVL401
ARM GAS  /tmp/ccZHgRNF.s 			page 323


 18305 1f6e 1E000000 		.4byte	.LVL402
 18306 1f72 0200     		.2byte	0x2
 18307 1f74 72       		.byte	0x72
 18308 1f75 00       		.sleb128 0
 18309 1f76 1E000000 		.4byte	.LVL402
 18310 1f7a 35000000 		.4byte	.LVL404-1
 18311 1f7e 0300     		.2byte	0x3
 18312 1f80 70       		.byte	0x70
 18313 1f81 14       		.sleb128 20
 18314 1f82 06       		.byte	0x6
 18315 1f83 48000000 		.4byte	.LVL408
 18316 1f87 4A000000 		.4byte	.LVL409
 18317 1f8b 0200     		.2byte	0x2
 18318 1f8d 72       		.byte	0x72
 18319 1f8e 00       		.sleb128 0
 18320 1f8f 00000000 		.4byte	0
 18321 1f93 00000000 		.4byte	0
 18322              	.LLST142:
 18323 1f97 18000000 		.4byte	.LVL400
 18324 1f9b 1E000000 		.4byte	.LVL402
 18325 1f9f 0100     		.2byte	0x1
 18326 1fa1 52       		.byte	0x52
 18327 1fa2 1E000000 		.4byte	.LVL402
 18328 1fa6 35000000 		.4byte	.LVL404-1
 18329 1faa 0200     		.2byte	0x2
 18330 1fac 70       		.byte	0x70
 18331 1fad 14       		.sleb128 20
 18332 1fae 48000000 		.4byte	.LVL408
 18333 1fb2 4A000000 		.4byte	.LVL409
 18334 1fb6 0100     		.2byte	0x1
 18335 1fb8 52       		.byte	0x52
 18336 1fb9 00000000 		.4byte	0
 18337 1fbd 00000000 		.4byte	0
 18338              	.LLST143:
 18339 1fc1 00000000 		.4byte	.LVL413
 18340 1fc5 09000000 		.4byte	.LVL415-1
 18341 1fc9 0100     		.2byte	0x1
 18342 1fcb 50       		.byte	0x50
 18343 1fcc 09000000 		.4byte	.LVL415-1
 18344 1fd0 14000000 		.4byte	.LVL417
 18345 1fd4 0100     		.2byte	0x1
 18346 1fd6 54       		.byte	0x54
 18347 1fd7 14000000 		.4byte	.LVL417
 18348 1fdb 17000000 		.4byte	.LVL418-1
 18349 1fdf 0100     		.2byte	0x1
 18350 1fe1 50       		.byte	0x50
 18351 1fe2 17000000 		.4byte	.LVL418-1
 18352 1fe6 70000000 		.4byte	.LFE260
 18353 1fea 0100     		.2byte	0x1
 18354 1fec 54       		.byte	0x54
 18355 1fed 00000000 		.4byte	0
 18356 1ff1 00000000 		.4byte	0
 18357              	.LLST144:
 18358 1ff5 6C000000 		.4byte	.LVL435
 18359 1ff9 6E000000 		.4byte	.LVL436
 18360 1ffd 0100     		.2byte	0x1
 18361 1fff 50       		.byte	0x50
ARM GAS  /tmp/ccZHgRNF.s 			page 324


 18362 2000 00000000 		.4byte	0
 18363 2004 00000000 		.4byte	0
 18364              	.LLST145:
 18365 2008 06000000 		.4byte	.LVL414
 18366 200c 09000000 		.4byte	.LVL415-1
 18367 2010 0100     		.2byte	0x1
 18368 2012 50       		.byte	0x50
 18369 2013 09000000 		.4byte	.LVL415-1
 18370 2017 14000000 		.4byte	.LVL417
 18371 201b 0100     		.2byte	0x1
 18372 201d 54       		.byte	0x54
 18373 201e 14000000 		.4byte	.LVL417
 18374 2022 17000000 		.4byte	.LVL418-1
 18375 2026 0100     		.2byte	0x1
 18376 2028 50       		.byte	0x50
 18377 2029 17000000 		.4byte	.LVL418-1
 18378 202d 70000000 		.4byte	.LFE260
 18379 2031 0100     		.2byte	0x1
 18380 2033 54       		.byte	0x54
 18381 2034 00000000 		.4byte	0
 18382 2038 00000000 		.4byte	0
 18383              	.LLST146:
 18384 203c 0A000000 		.4byte	.LVL415
 18385 2040 12000000 		.4byte	.LVL416
 18386 2044 0100     		.2byte	0x1
 18387 2046 50       		.byte	0x50
 18388 2047 18000000 		.4byte	.LVL418
 18389 204b 1E000000 		.4byte	.LVL420
 18390 204f 0100     		.2byte	0x1
 18391 2051 50       		.byte	0x50
 18392 2052 24000000 		.4byte	.LVL421
 18393 2056 32000000 		.4byte	.LVL422
 18394 205a 0100     		.2byte	0x1
 18395 205c 50       		.byte	0x50
 18396 205d 38000000 		.4byte	.LVL423
 18397 2061 70000000 		.4byte	.LFE260
 18398 2065 0200     		.2byte	0x2
 18399 2067 30       		.byte	0x30
 18400 2068 9F       		.byte	0x9f
 18401 2069 00000000 		.4byte	0
 18402 206d 00000000 		.4byte	0
 18403              	.LLST147:
 18404 2071 44000000 		.4byte	.LVL425
 18405 2075 6E000000 		.4byte	.LVL436
 18406 2079 0200     		.2byte	0x2
 18407 207b 4F       		.byte	0x4f
 18408 207c 9F       		.byte	0x9f
 18409 207d 00000000 		.4byte	0
 18410 2081 00000000 		.4byte	0
 18411              	.LLST148:
 18412 2085 44000000 		.4byte	.LVL425
 18413 2089 6E000000 		.4byte	.LVL436
 18414 208d 0200     		.2byte	0x2
 18415 208f 30       		.byte	0x30
 18416 2090 9F       		.byte	0x9f
 18417 2091 00000000 		.4byte	0
 18418 2095 00000000 		.4byte	0
ARM GAS  /tmp/ccZHgRNF.s 			page 325


 18419              	.LLST149:
 18420 2099 44000000 		.4byte	.LVL425
 18421 209d 4A000000 		.4byte	.LVL426
 18422 20a1 0100     		.2byte	0x1
 18423 20a3 53       		.byte	0x53
 18424 20a4 4A000000 		.4byte	.LVL426
 18425 20a8 56000000 		.4byte	.LVL429
 18426 20ac 0300     		.2byte	0x3
 18427 20ae 72       		.byte	0x72
 18428 20af 60       		.sleb128 -32
 18429 20b0 9F       		.byte	0x9f
 18430 20b1 00000000 		.4byte	0
 18431 20b5 00000000 		.4byte	0
 18432              	.LLST150:
 18433 20b9 44000000 		.4byte	.LVL425
 18434 20bd 54000000 		.4byte	.LVL428
 18435 20c1 0100     		.2byte	0x1
 18436 20c3 53       		.byte	0x53
 18437 20c4 00000000 		.4byte	0
 18438 20c8 00000000 		.4byte	0
 18439              	.LLST151:
 18440 20cc 56000000 		.4byte	.LVL429
 18441 20d0 6E000000 		.4byte	.LVL436
 18442 20d4 0200     		.2byte	0x2
 18443 20d6 3A       		.byte	0x3a
 18444 20d7 9F       		.byte	0x9f
 18445 20d8 00000000 		.4byte	0
 18446 20dc 00000000 		.4byte	0
 18447              	.LLST152:
 18448 20e0 56000000 		.4byte	.LVL429
 18449 20e4 5A000000 		.4byte	.LVL430
 18450 20e8 0100     		.2byte	0x1
 18451 20ea 53       		.byte	0x53
 18452 20eb 5A000000 		.4byte	.LVL430
 18453 20ef 6E000000 		.4byte	.LVL436
 18454 20f3 0300     		.2byte	0x3
 18455 20f5 75       		.byte	0x75
 18456 20f6 75       		.sleb128 -11
 18457 20f7 9F       		.byte	0x9f
 18458 20f8 00000000 		.4byte	0
 18459 20fc 00000000 		.4byte	0
 18460              	.LLST153:
 18461 2100 56000000 		.4byte	.LVL429
 18462 2104 5A000000 		.4byte	.LVL430
 18463 2108 0100     		.2byte	0x1
 18464 210a 52       		.byte	0x52
 18465 210b 00000000 		.4byte	0
 18466 210f 00000000 		.4byte	0
 18467              	.LLST154:
 18468 2113 56000000 		.4byte	.LVL429
 18469 2117 6A000000 		.4byte	.LVL434
 18470 211b 0100     		.2byte	0x1
 18471 211d 52       		.byte	0x52
 18472 211e 00000000 		.4byte	0
 18473 2122 00000000 		.4byte	0
 18474              	.LLST155:
 18475 2126 56000000 		.4byte	.LVL429
ARM GAS  /tmp/ccZHgRNF.s 			page 326


 18476 212a 5E000000 		.4byte	.LVL431
 18477 212e 0100     		.2byte	0x1
 18478 2130 53       		.byte	0x53
 18479 2131 5E000000 		.4byte	.LVL431
 18480 2135 62000000 		.4byte	.LVL432
 18481 2139 0300     		.2byte	0x3
 18482 213b 73       		.byte	0x73
 18483 213c 7F       		.sleb128 -1
 18484 213d 9F       		.byte	0x9f
 18485 213e 62000000 		.4byte	.LVL432
 18486 2142 68000000 		.4byte	.LVL433
 18487 2146 0100     		.2byte	0x1
 18488 2148 53       		.byte	0x53
 18489 2149 00000000 		.4byte	0
 18490 214d 00000000 		.4byte	0
 18491              	.LLST156:
 18492 2151 00000000 		.4byte	.LVL437
 18493 2155 12000000 		.4byte	.LVL439
 18494 2159 0100     		.2byte	0x1
 18495 215b 50       		.byte	0x50
 18496 215c 12000000 		.4byte	.LVL439
 18497 2160 16000000 		.4byte	.LFE248
 18498 2164 0400     		.2byte	0x4
 18499 2166 F3       		.byte	0xf3
 18500 2167 01       		.uleb128 0x1
 18501 2168 50       		.byte	0x50
 18502 2169 9F       		.byte	0x9f
 18503 216a 00000000 		.4byte	0
 18504 216e 00000000 		.4byte	0
 18505              	.LLST157:
 18506 2172 00000000 		.4byte	.LVL437
 18507 2176 04000000 		.4byte	.LVL438
 18508 217a 0100     		.2byte	0x1
 18509 217c 51       		.byte	0x51
 18510 217d 04000000 		.4byte	.LVL438
 18511 2181 16000000 		.4byte	.LFE248
 18512 2185 0100     		.2byte	0x1
 18513 2187 51       		.byte	0x51
 18514 2188 00000000 		.4byte	0
 18515 218c 00000000 		.4byte	0
 18516              	.LLST158:
 18517 2190 00000000 		.4byte	.LVL440
 18518 2194 0D000000 		.4byte	.LVL441-1
 18519 2198 0100     		.2byte	0x1
 18520 219a 50       		.byte	0x50
 18521 219b 0D000000 		.4byte	.LVL441-1
 18522 219f 0E000000 		.4byte	.LVL441
 18523 21a3 0400     		.2byte	0x4
 18524 21a5 F3       		.byte	0xf3
 18525 21a6 01       		.uleb128 0x1
 18526 21a7 50       		.byte	0x50
 18527 21a8 9F       		.byte	0x9f
 18528 21a9 0E000000 		.4byte	.LVL441
 18529 21ad 10000000 		.4byte	.LVL442
 18530 21b1 0100     		.2byte	0x1
 18531 21b3 50       		.byte	0x50
 18532 21b4 10000000 		.4byte	.LVL442
ARM GAS  /tmp/ccZHgRNF.s 			page 327


 18533 21b8 12000000 		.4byte	.LFE249
 18534 21bc 0400     		.2byte	0x4
 18535 21be F3       		.byte	0xf3
 18536 21bf 01       		.uleb128 0x1
 18537 21c0 50       		.byte	0x50
 18538 21c1 9F       		.byte	0x9f
 18539 21c2 00000000 		.4byte	0
 18540 21c6 00000000 		.4byte	0
 18541              	.LLST159:
 18542 21ca 00000000 		.4byte	.LVL440
 18543 21ce 0D000000 		.4byte	.LVL441-1
 18544 21d2 0100     		.2byte	0x1
 18545 21d4 51       		.byte	0x51
 18546 21d5 0D000000 		.4byte	.LVL441-1
 18547 21d9 0E000000 		.4byte	.LVL441
 18548 21dd 0400     		.2byte	0x4
 18549 21df F3       		.byte	0xf3
 18550 21e0 01       		.uleb128 0x1
 18551 21e1 51       		.byte	0x51
 18552 21e2 9F       		.byte	0x9f
 18553 21e3 0E000000 		.4byte	.LVL441
 18554 21e7 12000000 		.4byte	.LFE249
 18555 21eb 0100     		.2byte	0x1
 18556 21ed 51       		.byte	0x51
 18557 21ee 00000000 		.4byte	0
 18558 21f2 00000000 		.4byte	0
 18559              	.LLST160:
 18560 21f6 00000000 		.4byte	.LVL443
 18561 21fa 0E000000 		.4byte	.LVL444
 18562 21fe 0100     		.2byte	0x1
 18563 2200 50       		.byte	0x50
 18564 2201 0E000000 		.4byte	.LVL444
 18565 2205 14000000 		.4byte	.LVL445
 18566 2209 0400     		.2byte	0x4
 18567 220b F3       		.byte	0xf3
 18568 220c 01       		.uleb128 0x1
 18569 220d 50       		.byte	0x50
 18570 220e 9F       		.byte	0x9f
 18571 220f 14000000 		.4byte	.LVL445
 18572 2213 1B000000 		.4byte	.LVL446-1
 18573 2217 0100     		.2byte	0x1
 18574 2219 50       		.byte	0x50
 18575 221a 1B000000 		.4byte	.LVL446-1
 18576 221e 1C000000 		.4byte	.LFE250
 18577 2222 0400     		.2byte	0x4
 18578 2224 F3       		.byte	0xf3
 18579 2225 01       		.uleb128 0x1
 18580 2226 50       		.byte	0x50
 18581 2227 9F       		.byte	0x9f
 18582 2228 00000000 		.4byte	0
 18583 222c 00000000 		.4byte	0
 18584              	.LLST161:
 18585 2230 00000000 		.4byte	.LVL443
 18586 2234 1B000000 		.4byte	.LVL446-1
 18587 2238 0100     		.2byte	0x1
 18588 223a 51       		.byte	0x51
 18589 223b 1B000000 		.4byte	.LVL446-1
ARM GAS  /tmp/ccZHgRNF.s 			page 328


 18590 223f 1C000000 		.4byte	.LFE250
 18591 2243 0400     		.2byte	0x4
 18592 2245 F3       		.byte	0xf3
 18593 2246 01       		.uleb128 0x1
 18594 2247 51       		.byte	0x51
 18595 2248 9F       		.byte	0x9f
 18596 2249 00000000 		.4byte	0
 18597 224d 00000000 		.4byte	0
 18598              	.LLST162:
 18599 2251 00000000 		.4byte	.LVL443
 18600 2255 1B000000 		.4byte	.LVL446-1
 18601 2259 0100     		.2byte	0x1
 18602 225b 52       		.byte	0x52
 18603 225c 1B000000 		.4byte	.LVL446-1
 18604 2260 1C000000 		.4byte	.LFE250
 18605 2264 0400     		.2byte	0x4
 18606 2266 F3       		.byte	0xf3
 18607 2267 01       		.uleb128 0x1
 18608 2268 52       		.byte	0x52
 18609 2269 9F       		.byte	0x9f
 18610 226a 00000000 		.4byte	0
 18611 226e 00000000 		.4byte	0
 18612              	.LLST163:
 18613 2272 00000000 		.4byte	.LVL447
 18614 2276 0E000000 		.4byte	.LVL448
 18615 227a 0100     		.2byte	0x1
 18616 227c 50       		.byte	0x50
 18617 227d 0E000000 		.4byte	.LVL448
 18618 2281 4C000000 		.4byte	.LVL460
 18619 2285 0200     		.2byte	0x2
 18620 2287 91       		.byte	0x91
 18621 2288 64       		.sleb128 -28
 18622 2289 4C000000 		.4byte	.LVL460
 18623 228d 51000000 		.4byte	.LVL462-1
 18624 2291 0200     		.2byte	0x2
 18625 2293 70       		.byte	0x70
 18626 2294 00       		.sleb128 0
 18627 2295 51000000 		.4byte	.LVL462-1
 18628 2299 56000000 		.4byte	.LVL464
 18629 229d 0200     		.2byte	0x2
 18630 229f 91       		.byte	0x91
 18631 22a0 64       		.sleb128 -28
 18632 22a1 56000000 		.4byte	.LVL464
 18633 22a5 5C000000 		.4byte	.LFE269
 18634 22a9 0200     		.2byte	0x2
 18635 22ab 7D       		.byte	0x7d
 18636 22ac 64       		.sleb128 -28
 18637 22ad 00000000 		.4byte	0
 18638 22b1 00000000 		.4byte	0
 18639              	.LLST164:
 18640 22b5 00000000 		.4byte	.LVL447
 18641 22b9 15000000 		.4byte	.LVL449-1
 18642 22bd 0100     		.2byte	0x1
 18643 22bf 51       		.byte	0x51
 18644 22c0 15000000 		.4byte	.LVL449-1
 18645 22c4 3A000000 		.4byte	.LVL453
 18646 22c8 0200     		.2byte	0x2
ARM GAS  /tmp/ccZHgRNF.s 			page 329


 18647 22ca 7D       		.byte	0x7d
 18648 22cb 00       		.sleb128 0
 18649 22cc 3A000000 		.4byte	.LVL453
 18650 22d0 3C000000 		.4byte	.LVL454
 18651 22d4 0200     		.2byte	0x2
 18652 22d6 91       		.byte	0x91
 18653 22d7 60       		.sleb128 -32
 18654 22d8 3C000000 		.4byte	.LVL454
 18655 22dc 40000000 		.4byte	.LVL456
 18656 22e0 0200     		.2byte	0x2
 18657 22e2 7D       		.byte	0x7d
 18658 22e3 00       		.sleb128 0
 18659 22e4 40000000 		.4byte	.LVL456
 18660 22e8 42000000 		.4byte	.LVL457
 18661 22ec 0200     		.2byte	0x2
 18662 22ee 91       		.byte	0x91
 18663 22ef 60       		.sleb128 -32
 18664 22f0 42000000 		.4byte	.LVL457
 18665 22f4 54000000 		.4byte	.LVL463
 18666 22f8 0200     		.2byte	0x2
 18667 22fa 7D       		.byte	0x7d
 18668 22fb 00       		.sleb128 0
 18669 22fc 54000000 		.4byte	.LVL463
 18670 2300 56000000 		.4byte	.LVL464
 18671 2304 0200     		.2byte	0x2
 18672 2306 91       		.byte	0x91
 18673 2307 60       		.sleb128 -32
 18674 2308 56000000 		.4byte	.LVL464
 18675 230c 5C000000 		.4byte	.LFE269
 18676 2310 0200     		.2byte	0x2
 18677 2312 7D       		.byte	0x7d
 18678 2313 60       		.sleb128 -32
 18679 2314 00000000 		.4byte	0
 18680 2318 00000000 		.4byte	0
 18681              	.LLST165:
 18682 231c 00000000 		.4byte	.LVL447
 18683 2320 15000000 		.4byte	.LVL449-1
 18684 2324 0100     		.2byte	0x1
 18685 2326 52       		.byte	0x52
 18686 2327 15000000 		.4byte	.LVL449-1
 18687 232b 5C000000 		.4byte	.LFE269
 18688 232f 0400     		.2byte	0x4
 18689 2331 F3       		.byte	0xf3
 18690 2332 01       		.uleb128 0x1
 18691 2333 52       		.byte	0x52
 18692 2334 9F       		.byte	0x9f
 18693 2335 00000000 		.4byte	0
 18694 2339 00000000 		.4byte	0
 18695              	.LLST166:
 18696 233d 20000000 		.4byte	.LVL450
 18697 2341 28000000 		.4byte	.LVL451
 18698 2345 0100     		.2byte	0x1
 18699 2347 53       		.byte	0x53
 18700 2348 00000000 		.4byte	0
 18701 234c 00000000 		.4byte	0
 18702              	.LLST167:
 18703 2350 16000000 		.4byte	.LVL449
ARM GAS  /tmp/ccZHgRNF.s 			page 330


 18704 2354 38000000 		.4byte	.LVL452
 18705 2358 0100     		.2byte	0x1
 18706 235a 50       		.byte	0x50
 18707 235b 38000000 		.4byte	.LVL452
 18708 235f 3C000000 		.4byte	.LVL454
 18709 2363 0100     		.2byte	0x1
 18710 2365 51       		.byte	0x51
 18711 2366 3C000000 		.4byte	.LVL454
 18712 236a 3E000000 		.4byte	.LVL455
 18713 236e 0100     		.2byte	0x1
 18714 2370 50       		.byte	0x50
 18715 2371 3E000000 		.4byte	.LVL455
 18716 2375 42000000 		.4byte	.LVL457
 18717 2379 0100     		.2byte	0x1
 18718 237b 51       		.byte	0x51
 18719 237c 42000000 		.4byte	.LVL457
 18720 2380 48000000 		.4byte	.LVL458
 18721 2384 0100     		.2byte	0x1
 18722 2386 50       		.byte	0x50
 18723 2387 48000000 		.4byte	.LVL458
 18724 238b 4A000000 		.4byte	.LVL459
 18725 238f 0100     		.2byte	0x1
 18726 2391 51       		.byte	0x51
 18727 2392 4A000000 		.4byte	.LVL459
 18728 2396 4C000000 		.4byte	.LVL460
 18729 239a 0100     		.2byte	0x1
 18730 239c 50       		.byte	0x50
 18731 239d 4C000000 		.4byte	.LVL460
 18732 23a1 4E000000 		.4byte	.LVL461
 18733 23a5 0100     		.2byte	0x1
 18734 23a7 51       		.byte	0x51
 18735 23a8 00000000 		.4byte	0
 18736 23ac 00000000 		.4byte	0
 18737              	.LLST168:
 18738 23b0 00000000 		.4byte	.LVL465
 18739 23b4 16000000 		.4byte	.LVL468
 18740 23b8 0100     		.2byte	0x1
 18741 23ba 50       		.byte	0x50
 18742 23bb 16000000 		.4byte	.LVL468
 18743 23bf 26000000 		.4byte	.LVL472
 18744 23c3 0100     		.2byte	0x1
 18745 23c5 54       		.byte	0x54
 18746 23c6 26000000 		.4byte	.LVL472
 18747 23ca 28000000 		.4byte	.LVL473
 18748 23ce 0100     		.2byte	0x1
 18749 23d0 50       		.byte	0x50
 18750 23d1 28000000 		.4byte	.LVL473
 18751 23d5 7C010000 		.4byte	.LFE270
 18752 23d9 0100     		.2byte	0x1
 18753 23db 54       		.byte	0x54
 18754 23dc 00000000 		.4byte	0
 18755 23e0 00000000 		.4byte	0
 18756              	.LLST169:
 18757 23e4 00000000 		.4byte	.LVL465
 18758 23e8 14000000 		.4byte	.LVL467
 18759 23ec 0100     		.2byte	0x1
 18760 23ee 51       		.byte	0x51
ARM GAS  /tmp/ccZHgRNF.s 			page 331


 18761 23ef 14000000 		.4byte	.LVL467
 18762 23f3 1D000000 		.4byte	.LVL470-1
 18763 23f7 0200     		.2byte	0x2
 18764 23f9 71       		.byte	0x71
 18765 23fa 00       		.sleb128 0
 18766 23fb 1D000000 		.4byte	.LVL470-1
 18767 23ff 26000000 		.4byte	.LVL472
 18768 2403 0300     		.2byte	0x3
 18769 2405 91       		.byte	0x91
 18770 2406 BC7F     		.sleb128 -68
 18771 2408 26000000 		.4byte	.LVL472
 18772 240c 2E000000 		.4byte	.LVL474
 18773 2410 0100     		.2byte	0x1
 18774 2412 51       		.byte	0x51
 18775 2413 2E000000 		.4byte	.LVL474
 18776 2417 7C010000 		.4byte	.LFE270
 18777 241b 0300     		.2byte	0x3
 18778 241d 91       		.byte	0x91
 18779 241e BC7F     		.sleb128 -68
 18780 2420 00000000 		.4byte	0
 18781 2424 00000000 		.4byte	0
 18782              	.LLST170:
 18783 2428 00000000 		.4byte	.LVL465
 18784 242c 12000000 		.4byte	.LVL466
 18785 2430 0100     		.2byte	0x1
 18786 2432 52       		.byte	0x52
 18787 2433 12000000 		.4byte	.LVL466
 18788 2437 1A000000 		.4byte	.LVL469
 18789 243b 0500     		.2byte	0x5
 18790 243d 72       		.byte	0x72
 18791 243e 00       		.sleb128 0
 18792 243f 4F       		.byte	0x4f
 18793 2440 1A       		.byte	0x1a
 18794 2441 9F       		.byte	0x9f
 18795 2442 1A000000 		.4byte	.LVL469
 18796 2446 20000000 		.4byte	.LVL471
 18797 244a 0500     		.2byte	0x5
 18798 244c 75       		.byte	0x75
 18799 244d 00       		.sleb128 0
 18800 244e 4F       		.byte	0x4f
 18801 244f 1A       		.byte	0x1a
 18802 2450 9F       		.byte	0x9f
 18803 2451 26000000 		.4byte	.LVL472
 18804 2455 2E000000 		.4byte	.LVL474
 18805 2459 0100     		.2byte	0x1
 18806 245b 52       		.byte	0x52
 18807 245c 2E000000 		.4byte	.LVL474
 18808 2460 56000000 		.4byte	.LVL481
 18809 2464 0500     		.2byte	0x5
 18810 2466 75       		.byte	0x75
 18811 2467 00       		.sleb128 0
 18812 2468 4F       		.byte	0x4f
 18813 2469 1A       		.byte	0x1a
 18814 246a 9F       		.byte	0x9f
 18815 246b 56000000 		.4byte	.LVL481
 18816 246f 64000000 		.4byte	.LVL483
 18817 2473 0100     		.2byte	0x1
ARM GAS  /tmp/ccZHgRNF.s 			page 332


 18818 2475 57       		.byte	0x57
 18819 2476 64000000 		.4byte	.LVL483
 18820 247a 7E000000 		.4byte	.LVL485
 18821 247e 0500     		.2byte	0x5
 18822 2480 75       		.byte	0x75
 18823 2481 00       		.sleb128 0
 18824 2482 4F       		.byte	0x4f
 18825 2483 1A       		.byte	0x1a
 18826 2484 9F       		.byte	0x9f
 18827 2485 80000000 		.4byte	.LVL486
 18828 2489 84000000 		.4byte	.LVL487
 18829 248d 0500     		.2byte	0x5
 18830 248f 75       		.byte	0x75
 18831 2490 00       		.sleb128 0
 18832 2491 4F       		.byte	0x4f
 18833 2492 1A       		.byte	0x1a
 18834 2493 9F       		.byte	0x9f
 18835 2494 84000000 		.4byte	.LVL487
 18836 2498 B0000000 		.4byte	.LVL492
 18837 249c 0100     		.2byte	0x1
 18838 249e 57       		.byte	0x57
 18839 249f D2000000 		.4byte	.LVL495
 18840 24a3 E0000000 		.4byte	.LVL497
 18841 24a7 0100     		.2byte	0x1
 18842 24a9 57       		.byte	0x57
 18843 24aa E0000000 		.4byte	.LVL497
 18844 24ae EE000000 		.4byte	.LVL500
 18845 24b2 0500     		.2byte	0x5
 18846 24b4 75       		.byte	0x75
 18847 24b5 00       		.sleb128 0
 18848 24b6 4F       		.byte	0x4f
 18849 24b7 1A       		.byte	0x1a
 18850 24b8 9F       		.byte	0x9f
 18851 24b9 F4000000 		.4byte	.LVL501
 18852 24bd 7C010000 		.4byte	.LFE270
 18853 24c1 0100     		.2byte	0x1
 18854 24c3 57       		.byte	0x57
 18855 24c4 00000000 		.4byte	0
 18856 24c8 00000000 		.4byte	0
 18857              	.LLST171:
 18858 24cc 1E000000 		.4byte	.LVL470
 18859 24d0 20000000 		.4byte	.LVL471
 18860 24d4 0100     		.2byte	0x1
 18861 24d6 50       		.byte	0x50
 18862 24d7 2E000000 		.4byte	.LVL474
 18863 24db 32000000 		.4byte	.LVL475
 18864 24df 0100     		.2byte	0x1
 18865 24e1 50       		.byte	0x50
 18866 24e2 3A000000 		.4byte	.LVL476
 18867 24e6 4E000000 		.4byte	.LVL479
 18868 24ea 0100     		.2byte	0x1
 18869 24ec 50       		.byte	0x50
 18870 24ed 52000000 		.4byte	.LVL480
 18871 24f1 5C000000 		.4byte	.LVL482
 18872 24f5 0100     		.2byte	0x1
 18873 24f7 50       		.byte	0x50
 18874 24f8 64000000 		.4byte	.LVL483
ARM GAS  /tmp/ccZHgRNF.s 			page 333


 18875 24fc 68000000 		.4byte	.LVL484
 18876 2500 0100     		.2byte	0x1
 18877 2502 50       		.byte	0x50
 18878 2503 68000000 		.4byte	.LVL484
 18879 2507 7E000000 		.4byte	.LVL485
 18880 250b 0200     		.2byte	0x2
 18881 250d 30       		.byte	0x30
 18882 250e 9F       		.byte	0x9f
 18883 250f 7E000000 		.4byte	.LVL485
 18884 2513 80000000 		.4byte	.LVL486
 18885 2517 0200     		.2byte	0x2
 18886 2519 37       		.byte	0x37
 18887 251a 9F       		.byte	0x9f
 18888 251b 80000000 		.4byte	.LVL486
 18889 251f 84000000 		.4byte	.LVL487
 18890 2523 0200     		.2byte	0x2
 18891 2525 30       		.byte	0x30
 18892 2526 9F       		.byte	0x9f
 18893 2527 E0000000 		.4byte	.LVL497
 18894 252b E2000000 		.4byte	.LVL498
 18895 252f 0100     		.2byte	0x1
 18896 2531 50       		.byte	0x50
 18897 2532 E4000000 		.4byte	.LVL499
 18898 2536 F4000000 		.4byte	.LVL501
 18899 253a 0200     		.2byte	0x2
 18900 253c 30       		.byte	0x30
 18901 253d 9F       		.byte	0x9f
 18902 253e 72010000 		.4byte	.LVL513
 18903 2542 7C010000 		.4byte	.LFE270
 18904 2546 0100     		.2byte	0x1
 18905 2548 50       		.byte	0x50
 18906 2549 00000000 		.4byte	0
 18907 254d 00000000 		.4byte	0
 18908              	.LLST172:
 18909 2551 40000000 		.4byte	.LVL477
 18910 2555 56000000 		.4byte	.LVL481
 18911 2559 0100     		.2byte	0x1
 18912 255b 56       		.byte	0x56
 18913 255c 56000000 		.4byte	.LVL481
 18914 2560 5C000000 		.4byte	.LVL482
 18915 2564 0200     		.2byte	0x2
 18916 2566 91       		.byte	0x91
 18917 2567 60       		.sleb128 -32
 18918 2568 5C000000 		.4byte	.LVL482
 18919 256c 7E000000 		.4byte	.LVL485
 18920 2570 0100     		.2byte	0x1
 18921 2572 56       		.byte	0x56
 18922 2573 80000000 		.4byte	.LVL486
 18923 2577 7C010000 		.4byte	.LFE270
 18924 257b 0100     		.2byte	0x1
 18925 257d 56       		.byte	0x56
 18926 257e 00000000 		.4byte	0
 18927 2582 00000000 		.4byte	0
 18928              	.LLST173:
 18929 2586 F8000000 		.4byte	.LVL502
 18930 258a 3E010000 		.4byte	.LVL506
 18931 258e 0100     		.2byte	0x1
ARM GAS  /tmp/ccZHgRNF.s 			page 334


 18932 2590 50       		.byte	0x50
 18933 2591 3E010000 		.4byte	.LVL506
 18934 2595 4A010000 		.4byte	.LVL507
 18935 2599 0100     		.2byte	0x1
 18936 259b 58       		.byte	0x58
 18937 259c 4A010000 		.4byte	.LVL507
 18938 25a0 58010000 		.4byte	.LVL509
 18939 25a4 0100     		.2byte	0x1
 18940 25a6 50       		.byte	0x50
 18941 25a7 58010000 		.4byte	.LVL509
 18942 25ab 7C010000 		.4byte	.LFE270
 18943 25af 0100     		.2byte	0x1
 18944 25b1 58       		.byte	0x58
 18945 25b2 00000000 		.4byte	0
 18946 25b6 00000000 		.4byte	0
 18947              	.LLST174:
 18948 25ba 04010000 		.4byte	.LVL503
 18949 25be 5F010000 		.4byte	.LVL510-1
 18950 25c2 0100     		.2byte	0x1
 18951 25c4 53       		.byte	0x53
 18952 25c5 00000000 		.4byte	0
 18953 25c9 00000000 		.4byte	0
 18954              	.LLST175:
 18955 25cd 24010000 		.4byte	.LVL504
 18956 25d1 6A010000 		.4byte	.LVL512
 18957 25d5 0100     		.2byte	0x1
 18958 25d7 55       		.byte	0x55
 18959 25d8 6A010000 		.4byte	.LVL512
 18960 25dc 7C010000 		.4byte	.LFE270
 18961 25e0 0300     		.2byte	0x3
 18962 25e2 75       		.byte	0x75
 18963 25e3 01       		.sleb128 1
 18964 25e4 9F       		.byte	0x9f
 18965 25e5 00000000 		.4byte	0
 18966 25e9 00000000 		.4byte	0
 18967              	.LLST176:
 18968 25ed 26010000 		.4byte	.LVL505
 18969 25f1 4A010000 		.4byte	.LVL507
 18970 25f5 0200     		.2byte	0x2
 18971 25f7 30       		.byte	0x30
 18972 25f8 9F       		.byte	0x9f
 18973 25f9 58010000 		.4byte	.LVL509
 18974 25fd 7C010000 		.4byte	.LFE270
 18975 2601 0200     		.2byte	0x2
 18976 2603 30       		.byte	0x30
 18977 2604 9F       		.byte	0x9f
 18978 2605 00000000 		.4byte	0
 18979 2609 00000000 		.4byte	0
 18980              	.LLST177:
 18981 260d 26010000 		.4byte	.LVL505
 18982 2611 4A010000 		.4byte	.LVL507
 18983 2615 0100     		.2byte	0x1
 18984 2617 56       		.byte	0x56
 18985 2618 58010000 		.4byte	.LVL509
 18986 261c 7C010000 		.4byte	.LFE270
 18987 2620 0100     		.2byte	0x1
 18988 2622 56       		.byte	0x56
ARM GAS  /tmp/ccZHgRNF.s 			page 335


 18989 2623 00000000 		.4byte	0
 18990 2627 00000000 		.4byte	0
 18991              	.LLST178:
 18992 262b 3E010000 		.4byte	.LVL506
 18993 262f 4A010000 		.4byte	.LVL507
 18994 2633 0100     		.2byte	0x1
 18995 2635 55       		.byte	0x55
 18996 2636 58010000 		.4byte	.LVL509
 18997 263a 6A010000 		.4byte	.LVL512
 18998 263e 0100     		.2byte	0x1
 18999 2640 55       		.byte	0x55
 19000 2641 6A010000 		.4byte	.LVL512
 19001 2645 7C010000 		.4byte	.LFE270
 19002 2649 0300     		.2byte	0x3
 19003 264b 75       		.byte	0x75
 19004 264c 01       		.sleb128 1
 19005 264d 9F       		.byte	0x9f
 19006 264e 00000000 		.4byte	0
 19007 2652 00000000 		.4byte	0
 19008              	.LLST179:
 19009 2656 3E010000 		.4byte	.LVL506
 19010 265a 4A010000 		.4byte	.LVL507
 19011 265e 0100     		.2byte	0x1
 19012 2660 53       		.byte	0x53
 19013 2661 58010000 		.4byte	.LVL509
 19014 2665 5F010000 		.4byte	.LVL510-1
 19015 2669 0100     		.2byte	0x1
 19016 266b 53       		.byte	0x53
 19017 266c 00000000 		.4byte	0
 19018 2670 00000000 		.4byte	0
 19019              	.LLST180:
 19020 2674 60010000 		.4byte	.LVL510
 19021 2678 68010000 		.4byte	.LVL511
 19022 267c 0100     		.2byte	0x1
 19023 267e 50       		.byte	0x50
 19024 267f 00000000 		.4byte	0
 19025 2683 00000000 		.4byte	0
 19026              	.LLST181:
 19027 2687 9E000000 		.4byte	.LVL490
 19028 268b BC000000 		.4byte	.LVL494
 19029 268f 0100     		.2byte	0x1
 19030 2691 53       		.byte	0x53
 19031 2692 BC000000 		.4byte	.LVL494
 19032 2696 D2000000 		.4byte	.LVL495
 19033 269a 0200     		.2byte	0x2
 19034 269c 74       		.byte	0x74
 19035 269d 00       		.sleb128 0
 19036 269e D2000000 		.4byte	.LVL495
 19037 26a2 E0000000 		.4byte	.LVL497
 19038 26a6 0100     		.2byte	0x1
 19039 26a8 53       		.byte	0x53
 19040 26a9 00000000 		.4byte	0
 19041 26ad 00000000 		.4byte	0
 19042              	.LLST182:
 19043 26b1 9E000000 		.4byte	.LVL490
 19044 26b5 E0000000 		.4byte	.LVL497
 19045 26b9 0100     		.2byte	0x1
ARM GAS  /tmp/ccZHgRNF.s 			page 336


 19046 26bb 56       		.byte	0x56
 19047 26bc 00000000 		.4byte	0
 19048 26c0 00000000 		.4byte	0
 19049              	.LLST183:
 19050 26c4 AA000000 		.4byte	.LVL491
 19051 26c8 B8000000 		.4byte	.LVL493
 19052 26cc 0100     		.2byte	0x1
 19053 26ce 52       		.byte	0x52
 19054 26cf B8000000 		.4byte	.LVL493
 19055 26d3 D2000000 		.4byte	.LVL495
 19056 26d7 0200     		.2byte	0x2
 19057 26d9 74       		.byte	0x74
 19058 26da 10       		.sleb128 16
 19059 26db D2000000 		.4byte	.LVL495
 19060 26df E0000000 		.4byte	.LVL497
 19061 26e3 0100     		.2byte	0x1
 19062 26e5 52       		.byte	0x52
 19063 26e6 00000000 		.4byte	0
 19064 26ea 00000000 		.4byte	0
 19065              	.LLST184:
 19066 26ee 00000000 		.4byte	.LVL514
 19067 26f2 15000000 		.4byte	.LVL517-1
 19068 26f6 0100     		.2byte	0x1
 19069 26f8 50       		.byte	0x50
 19070 26f9 15000000 		.4byte	.LVL517-1
 19071 26fd 6C010000 		.4byte	.LFE271
 19072 2701 0100     		.2byte	0x1
 19073 2703 57       		.byte	0x57
 19074 2704 00000000 		.4byte	0
 19075 2708 00000000 		.4byte	0
 19076              	.LLST185:
 19077 270c 00000000 		.4byte	.LVL514
 19078 2710 15000000 		.4byte	.LVL517-1
 19079 2714 0100     		.2byte	0x1
 19080 2716 51       		.byte	0x51
 19081 2717 15000000 		.4byte	.LVL517-1
 19082 271b 40000000 		.4byte	.LVL522
 19083 271f 0100     		.2byte	0x1
 19084 2721 5B       		.byte	0x5b
 19085 2722 40000000 		.4byte	.LVL522
 19086 2726 6C010000 		.4byte	.LFE271
 19087 272a 0400     		.2byte	0x4
 19088 272c F3       		.byte	0xf3
 19089 272d 01       		.uleb128 0x1
 19090 272e 51       		.byte	0x51
 19091 272f 9F       		.byte	0x9f
 19092 2730 00000000 		.4byte	0
 19093 2734 00000000 		.4byte	0
 19094              	.LLST186:
 19095 2738 00000000 		.4byte	.LVL514
 19096 273c 15000000 		.4byte	.LVL517-1
 19097 2740 0100     		.2byte	0x1
 19098 2742 52       		.byte	0x52
 19099 2743 15000000 		.4byte	.LVL517-1
 19100 2747 36000000 		.4byte	.LVL521
 19101 274b 0100     		.2byte	0x1
 19102 274d 54       		.byte	0x54
ARM GAS  /tmp/ccZHgRNF.s 			page 337


 19103 274e 36000000 		.4byte	.LVL521
 19104 2752 C6000000 		.4byte	.LVL537
 19105 2756 0100     		.2byte	0x1
 19106 2758 58       		.byte	0x58
 19107 2759 D6000000 		.4byte	.LVL540
 19108 275d 6C010000 		.4byte	.LFE271
 19109 2761 0100     		.2byte	0x1
 19110 2763 58       		.byte	0x58
 19111 2764 00000000 		.4byte	0
 19112 2768 00000000 		.4byte	0
 19113              	.LLST187:
 19114 276c 00000000 		.4byte	.LVL514
 19115 2770 08000000 		.4byte	.LVL515
 19116 2774 0100     		.2byte	0x1
 19117 2776 53       		.byte	0x53
 19118 2777 08000000 		.4byte	.LVL515
 19119 277b 6C010000 		.4byte	.LFE271
 19120 277f 0100     		.2byte	0x1
 19121 2781 59       		.byte	0x59
 19122 2782 00000000 		.4byte	0
 19123 2786 00000000 		.4byte	0
 19124              	.LLST188:
 19125 278a 16000000 		.4byte	.LVL517
 19126 278e 1A000000 		.4byte	.LVL518
 19127 2792 0100     		.2byte	0x1
 19128 2794 50       		.byte	0x50
 19129 2795 00000000 		.4byte	0
 19130 2799 00000000 		.4byte	0
 19131              	.LLST189:
 19132 279d 3A010000 		.4byte	.LVL553
 19133 27a1 48010000 		.4byte	.LVL554
 19134 27a5 0100     		.2byte	0x1
 19135 27a7 53       		.byte	0x53
 19136 27a8 00000000 		.4byte	0
 19137 27ac 00000000 		.4byte	0
 19138              	.LLST190:
 19139 27b0 76000000 		.4byte	.LVL526
 19140 27b4 9C000000 		.4byte	.LVL531
 19141 27b8 0100     		.2byte	0x1
 19142 27ba 54       		.byte	0x54
 19143 27bb D6000000 		.4byte	.LVL540
 19144 27bf 10010000 		.4byte	.LVL545
 19145 27c3 0100     		.2byte	0x1
 19146 27c5 54       		.byte	0x54
 19147 27c6 00000000 		.4byte	0
 19148 27ca 00000000 		.4byte	0
 19149              	.LLST191:
 19150 27ce 2E000000 		.4byte	.LVL520
 19151 27d2 40000000 		.4byte	.LVL522
 19152 27d6 0100     		.2byte	0x1
 19153 27d8 52       		.byte	0x52
 19154 27d9 00000000 		.4byte	0
 19155 27dd 00000000 		.4byte	0
 19156              	.LLST192:
 19157 27e1 BA000000 		.4byte	.LVL536
 19158 27e5 D0000000 		.4byte	.LVL539
 19159 27e9 0100     		.2byte	0x1
ARM GAS  /tmp/ccZHgRNF.s 			page 338


 19160 27eb 52       		.byte	0x52
 19161 27ec 14010000 		.4byte	.LVL546
 19162 27f0 36010000 		.4byte	.LVL552
 19163 27f4 0100     		.2byte	0x1
 19164 27f6 52       		.byte	0x52
 19165 27f7 00000000 		.4byte	0
 19166 27fb 00000000 		.4byte	0
 19167              	.LLST193:
 19168 27ff 76000000 		.4byte	.LVL526
 19169 2803 BA000000 		.4byte	.LVL536
 19170 2807 0100     		.2byte	0x1
 19171 2809 55       		.byte	0x55
 19172 280a D6000000 		.4byte	.LVL540
 19173 280e 10010000 		.4byte	.LVL545
 19174 2812 0100     		.2byte	0x1
 19175 2814 55       		.byte	0x55
 19176 2815 00000000 		.4byte	0
 19177 2819 00000000 		.4byte	0
 19178              	.LLST194:
 19179 281d 52000000 		.4byte	.LVL523
 19180 2821 5A000000 		.4byte	.LVL524
 19181 2825 0100     		.2byte	0x1
 19182 2827 52       		.byte	0x52
 19183 2828 36010000 		.4byte	.LVL552
 19184 282c 3A010000 		.4byte	.LVL553
 19185 2830 0100     		.2byte	0x1
 19186 2832 52       		.byte	0x52
 19187 2833 48010000 		.4byte	.LVL554
 19188 2837 54010000 		.4byte	.LVL556
 19189 283b 0100     		.2byte	0x1
 19190 283d 52       		.byte	0x52
 19191 283e 64010000 		.4byte	.LVL558
 19192 2842 67010000 		.4byte	.LVL559-1
 19193 2846 0100     		.2byte	0x1
 19194 2848 52       		.byte	0x52
 19195 2849 00000000 		.4byte	0
 19196 284d 00000000 		.4byte	0
 19197              	.LLST195:
 19198 2851 0E000000 		.4byte	.LVL516
 19199 2855 15000000 		.4byte	.LVL517-1
 19200 2859 0100     		.2byte	0x1
 19201 285b 51       		.byte	0x51
 19202 285c 15000000 		.4byte	.LVL517-1
 19203 2860 6C010000 		.4byte	.LFE271
 19204 2864 0100     		.2byte	0x1
 19205 2866 5B       		.byte	0x5b
 19206 2867 00000000 		.4byte	0
 19207 286b 00000000 		.4byte	0
 19208              	.LLST196:
 19209 286f 5A000000 		.4byte	.LVL524
 19210 2873 7A000000 		.4byte	.LVL527
 19211 2877 0100     		.2byte	0x1
 19212 2879 53       		.byte	0x53
 19213 287a D6000000 		.4byte	.LVL540
 19214 287e DE000000 		.4byte	.LVL541
 19215 2882 0100     		.2byte	0x1
 19216 2884 53       		.byte	0x53
ARM GAS  /tmp/ccZHgRNF.s 			page 339


 19217 2885 00000000 		.4byte	0
 19218 2889 00000000 		.4byte	0
 19219              	.LLST197:
 19220 288d 5A000000 		.4byte	.LVL524
 19221 2891 84000000 		.4byte	.LVL529
 19222 2895 0100     		.2byte	0x1
 19223 2897 50       		.byte	0x50
 19224 2898 D6000000 		.4byte	.LVL540
 19225 289c E4000000 		.4byte	.LVL542
 19226 28a0 0100     		.2byte	0x1
 19227 28a2 50       		.byte	0x50
 19228 28a3 00000000 		.4byte	0
 19229 28a7 00000000 		.4byte	0
 19230              	.LLST198:
 19231 28ab AA000000 		.4byte	.LVL532
 19232 28af B6000000 		.4byte	.LVL535
 19233 28b3 0400     		.2byte	0x4
 19234 28b5 0A       		.byte	0xa
 19235 28b6 FF01     		.2byte	0x1ff
 19236 28b8 9F       		.byte	0x9f
 19237 28b9 00000000 		.4byte	0
 19238 28bd 00000000 		.4byte	0
 19239              	.LLST199:
 19240 28c1 AA000000 		.4byte	.LVL532
 19241 28c5 B6000000 		.4byte	.LVL535
 19242 28c9 0100     		.2byte	0x1
 19243 28cb 5A       		.byte	0x5a
 19244 28cc 00000000 		.4byte	0
 19245 28d0 00000000 		.4byte	0
 19246              	.LLST200:
 19247 28d4 AA000000 		.4byte	.LVL532
 19248 28d8 B6000000 		.4byte	.LVL535
 19249 28dc 0400     		.2byte	0x4
 19250 28de 73       		.byte	0x73
 19251 28df 807C     		.sleb128 -512
 19252 28e1 9F       		.byte	0x9f
 19253 28e2 00000000 		.4byte	0
 19254 28e6 00000000 		.4byte	0
 19255              	.LLST201:
 19256 28ea AA000000 		.4byte	.LVL532
 19257 28ee B6000000 		.4byte	.LVL535
 19258 28f2 0100     		.2byte	0x1
 19259 28f4 54       		.byte	0x54
 19260 28f5 00000000 		.4byte	0
 19261 28f9 00000000 		.4byte	0
 19262              	.LLST202:
 19263 28fd AA000000 		.4byte	.LVL532
 19264 2901 AE000000 		.4byte	.LVL533
 19265 2905 0100     		.2byte	0x1
 19266 2907 52       		.byte	0x52
 19267 2908 AE000000 		.4byte	.LVL533
 19268 290c B2000000 		.4byte	.LVL534
 19269 2910 0300     		.2byte	0x3
 19270 2912 72       		.byte	0x72
 19271 2913 7F       		.sleb128 -1
 19272 2914 9F       		.byte	0x9f
 19273 2915 B2000000 		.4byte	.LVL534
ARM GAS  /tmp/ccZHgRNF.s 			page 340


 19274 2919 B6000000 		.4byte	.LVL535
 19275 291d 0100     		.2byte	0x1
 19276 291f 52       		.byte	0x52
 19277 2920 00000000 		.4byte	0
 19278 2924 00000000 		.4byte	0
 19279              	.LLST203:
 19280 2928 1E010000 		.4byte	.LVL548
 19281 292c 26010000 		.4byte	.LVL549
 19282 2930 0300     		.2byte	0x3
 19283 2932 72       		.byte	0x72
 19284 2933 7F       		.sleb128 -1
 19285 2934 9F       		.byte	0x9f
 19286 2935 00000000 		.4byte	0
 19287 2939 00000000 		.4byte	0
 19288              	.LLST204:
 19289 293d 1E010000 		.4byte	.LVL548
 19290 2941 26010000 		.4byte	.LVL549
 19291 2945 0100     		.2byte	0x1
 19292 2947 54       		.byte	0x54
 19293 2948 00000000 		.4byte	0
 19294 294c 00000000 		.4byte	0
 19295              	.LLST205:
 19296 2950 1E010000 		.4byte	.LVL548
 19297 2954 36010000 		.4byte	.LVL552
 19298 2958 0100     		.2byte	0x1
 19299 295a 5B       		.byte	0x5b
 19300 295b 00000000 		.4byte	0
 19301 295f 00000000 		.4byte	0
 19302              	.LLST206:
 19303 2963 1E010000 		.4byte	.LVL548
 19304 2967 26010000 		.4byte	.LVL549
 19305 296b 0100     		.2byte	0x1
 19306 296d 5B       		.byte	0x5b
 19307 296e 26010000 		.4byte	.LVL549
 19308 2972 36010000 		.4byte	.LVL552
 19309 2976 0100     		.2byte	0x1
 19310 2978 55       		.byte	0x55
 19311 2979 00000000 		.4byte	0
 19312 297d 00000000 		.4byte	0
 19313              	.LLST207:
 19314 2981 1E010000 		.4byte	.LVL548
 19315 2985 2A010000 		.4byte	.LVL550
 19316 2989 0100     		.2byte	0x1
 19317 298b 54       		.byte	0x54
 19318 298c 2A010000 		.4byte	.LVL550
 19319 2990 2E010000 		.4byte	.LVL551
 19320 2994 0300     		.2byte	0x3
 19321 2996 74       		.byte	0x74
 19322 2997 7F       		.sleb128 -1
 19323 2998 9F       		.byte	0x9f
 19324 2999 2E010000 		.4byte	.LVL551
 19325 299d 36010000 		.4byte	.LVL552
 19326 29a1 0100     		.2byte	0x1
 19327 29a3 54       		.byte	0x54
 19328 29a4 00000000 		.4byte	0
 19329 29a8 00000000 		.4byte	0
 19330              	.LLST208:
ARM GAS  /tmp/ccZHgRNF.s 			page 341


 19331 29ac 4A010000 		.4byte	.LVL555
 19332 29b0 54010000 		.4byte	.LVL556
 19333 29b4 0100     		.2byte	0x1
 19334 29b6 51       		.byte	0x51
 19335 29b7 64010000 		.4byte	.LVL558
 19336 29bb 67010000 		.4byte	.LVL559-1
 19337 29bf 0100     		.2byte	0x1
 19338 29c1 51       		.byte	0x51
 19339 29c2 00000000 		.4byte	0
 19340 29c6 00000000 		.4byte	0
 19341              	.LLST209:
 19342 29ca 4A010000 		.4byte	.LVL555
 19343 29ce 54010000 		.4byte	.LVL556
 19344 29d2 0100     		.2byte	0x1
 19345 29d4 50       		.byte	0x50
 19346 29d5 64010000 		.4byte	.LVL558
 19347 29d9 67010000 		.4byte	.LVL559-1
 19348 29dd 0100     		.2byte	0x1
 19349 29df 50       		.byte	0x50
 19350 29e0 00000000 		.4byte	0
 19351 29e4 00000000 		.4byte	0
 19352              	.LLST210:
 19353 29e8 00000000 		.4byte	.LVL560
 19354 29ec 17000000 		.4byte	.LVL563-1
 19355 29f0 0100     		.2byte	0x1
 19356 29f2 50       		.byte	0x50
 19357 29f3 17000000 		.4byte	.LVL563-1
 19358 29f7 C6010000 		.4byte	.LFE272
 19359 29fb 0100     		.2byte	0x1
 19360 29fd 57       		.byte	0x57
 19361 29fe 00000000 		.4byte	0
 19362 2a02 00000000 		.4byte	0
 19363              	.LLST211:
 19364 2a06 00000000 		.4byte	.LVL560
 19365 2a0a 17000000 		.4byte	.LVL563-1
 19366 2a0e 0100     		.2byte	0x1
 19367 2a10 51       		.byte	0x51
 19368 2a11 17000000 		.4byte	.LVL563-1
 19369 2a15 26000000 		.4byte	.LVL565
 19370 2a19 0100     		.2byte	0x1
 19371 2a1b 54       		.byte	0x54
 19372 2a1c 26000000 		.4byte	.LVL565
 19373 2a20 2C000000 		.4byte	.LVL566
 19374 2a24 0400     		.2byte	0x4
 19375 2a26 F3       		.byte	0xf3
 19376 2a27 01       		.uleb128 0x1
 19377 2a28 51       		.byte	0x51
 19378 2a29 9F       		.byte	0x9f
 19379 2a2a 2C000000 		.4byte	.LVL566
 19380 2a2e 34000000 		.4byte	.LVL567
 19381 2a32 0100     		.2byte	0x1
 19382 2a34 54       		.byte	0x54
 19383 2a35 34000000 		.4byte	.LVL567
 19384 2a39 46000000 		.4byte	.LVL568
 19385 2a3d 0400     		.2byte	0x4
 19386 2a3f F3       		.byte	0xf3
 19387 2a40 01       		.uleb128 0x1
ARM GAS  /tmp/ccZHgRNF.s 			page 342


 19388 2a41 51       		.byte	0x51
 19389 2a42 9F       		.byte	0x9f
 19390 2a43 46000000 		.4byte	.LVL568
 19391 2a47 52000000 		.4byte	.LVL569
 19392 2a4b 0100     		.2byte	0x1
 19393 2a4d 54       		.byte	0x54
 19394 2a4e 52000000 		.4byte	.LVL569
 19395 2a52 C6010000 		.4byte	.LFE272
 19396 2a56 0400     		.2byte	0x4
 19397 2a58 F3       		.byte	0xf3
 19398 2a59 01       		.uleb128 0x1
 19399 2a5a 51       		.byte	0x51
 19400 2a5b 9F       		.byte	0x9f
 19401 2a5c 00000000 		.4byte	0
 19402 2a60 00000000 		.4byte	0
 19403              	.LLST212:
 19404 2a64 00000000 		.4byte	.LVL560
 19405 2a68 17000000 		.4byte	.LVL563-1
 19406 2a6c 0100     		.2byte	0x1
 19407 2a6e 52       		.byte	0x52
 19408 2a6f 17000000 		.4byte	.LVL563-1
 19409 2a73 26000000 		.4byte	.LVL565
 19410 2a77 0100     		.2byte	0x1
 19411 2a79 58       		.byte	0x58
 19412 2a7a 2C000000 		.4byte	.LVL566
 19413 2a7e 34000000 		.4byte	.LVL567
 19414 2a82 0100     		.2byte	0x1
 19415 2a84 58       		.byte	0x58
 19416 2a85 46000000 		.4byte	.LVL568
 19417 2a89 12010000 		.4byte	.LVL589
 19418 2a8d 0100     		.2byte	0x1
 19419 2a8f 58       		.byte	0x58
 19420 2a90 20010000 		.4byte	.LVL591
 19421 2a94 C6010000 		.4byte	.LFE272
 19422 2a98 0100     		.2byte	0x1
 19423 2a9a 58       		.byte	0x58
 19424 2a9b 00000000 		.4byte	0
 19425 2a9f 00000000 		.4byte	0
 19426              	.LLST213:
 19427 2aa3 00000000 		.4byte	.LVL560
 19428 2aa7 08000000 		.4byte	.LVL561
 19429 2aab 0100     		.2byte	0x1
 19430 2aad 53       		.byte	0x53
 19431 2aae 08000000 		.4byte	.LVL561
 19432 2ab2 C6010000 		.4byte	.LFE272
 19433 2ab6 0100     		.2byte	0x1
 19434 2ab8 5A       		.byte	0x5a
 19435 2ab9 00000000 		.4byte	0
 19436 2abd 00000000 		.4byte	0
 19437              	.LLST214:
 19438 2ac1 18000000 		.4byte	.LVL563
 19439 2ac5 1C000000 		.4byte	.LVL564
 19440 2ac9 0100     		.2byte	0x1
 19441 2acb 50       		.byte	0x50
 19442 2acc 00000000 		.4byte	0
 19443 2ad0 00000000 		.4byte	0
 19444              	.LLST215:
ARM GAS  /tmp/ccZHgRNF.s 			page 343


 19445 2ad4 72000000 		.4byte	.LVL572
 19446 2ad8 8C000000 		.4byte	.LVL574
 19447 2adc 0100     		.2byte	0x1
 19448 2ade 50       		.byte	0x50
 19449 2adf 7C010000 		.4byte	.LVL603
 19450 2ae3 82010000 		.4byte	.LVL604
 19451 2ae7 0100     		.2byte	0x1
 19452 2ae9 50       		.byte	0x50
 19453 2aea 90010000 		.4byte	.LVL606
 19454 2aee 9E010000 		.4byte	.LVL608
 19455 2af2 0100     		.2byte	0x1
 19456 2af4 50       		.byte	0x50
 19457 2af5 9E010000 		.4byte	.LVL608
 19458 2af9 A3010000 		.4byte	.LVL609-1
 19459 2afd 0200     		.2byte	0x2
 19460 2aff 77       		.byte	0x77
 19461 2b00 10       		.sleb128 16
 19462 2b01 A4010000 		.4byte	.LVL609
 19463 2b05 AC010000 		.4byte	.LVL610
 19464 2b09 0100     		.2byte	0x1
 19465 2b0b 50       		.byte	0x50
 19466 2b0c 00000000 		.4byte	0
 19467 2b10 00000000 		.4byte	0
 19468              	.LLST216:
 19469 2b14 B8000000 		.4byte	.LVL577
 19470 2b18 06010000 		.4byte	.LVL588
 19471 2b1c 0100     		.2byte	0x1
 19472 2b1e 59       		.byte	0x59
 19473 2b1f 20010000 		.4byte	.LVL591
 19474 2b23 36010000 		.4byte	.LVL593
 19475 2b27 0100     		.2byte	0x1
 19476 2b29 59       		.byte	0x59
 19477 2b2a AC010000 		.4byte	.LVL610
 19478 2b2e C0010000 		.4byte	.LVL613
 19479 2b32 0100     		.2byte	0x1
 19480 2b34 59       		.byte	0x59
 19481 2b35 00000000 		.4byte	0
 19482 2b39 00000000 		.4byte	0
 19483              	.LLST217:
 19484 2b3d 02010000 		.4byte	.LVL587
 19485 2b41 20010000 		.4byte	.LVL591
 19486 2b45 0100     		.2byte	0x1
 19487 2b47 52       		.byte	0x52
 19488 2b48 3A010000 		.4byte	.LVL594
 19489 2b4c 62010000 		.4byte	.LVL601
 19490 2b50 0100     		.2byte	0x1
 19491 2b52 52       		.byte	0x52
 19492 2b53 00000000 		.4byte	0
 19493 2b57 00000000 		.4byte	0
 19494              	.LLST218:
 19495 2b5b B8000000 		.4byte	.LVL577
 19496 2b5f 06010000 		.4byte	.LVL588
 19497 2b63 0100     		.2byte	0x1
 19498 2b65 5B       		.byte	0x5b
 19499 2b66 20010000 		.4byte	.LVL591
 19500 2b6a 36010000 		.4byte	.LVL593
 19501 2b6e 0100     		.2byte	0x1
ARM GAS  /tmp/ccZHgRNF.s 			page 344


 19502 2b70 5B       		.byte	0x5b
 19503 2b71 AC010000 		.4byte	.LVL610
 19504 2b75 C0010000 		.4byte	.LVL613
 19505 2b79 0100     		.2byte	0x1
 19506 2b7b 5B       		.byte	0x5b
 19507 2b7c 00000000 		.4byte	0
 19508 2b80 00000000 		.4byte	0
 19509              	.LLST219:
 19510 2b84 14000000 		.4byte	.LVL562
 19511 2b88 17000000 		.4byte	.LVL563-1
 19512 2b8c 0100     		.2byte	0x1
 19513 2b8e 51       		.byte	0x51
 19514 2b8f 17000000 		.4byte	.LVL563-1
 19515 2b93 26000000 		.4byte	.LVL565
 19516 2b97 0100     		.2byte	0x1
 19517 2b99 54       		.byte	0x54
 19518 2b9a 2C000000 		.4byte	.LVL566
 19519 2b9e 34000000 		.4byte	.LVL567
 19520 2ba2 0100     		.2byte	0x1
 19521 2ba4 54       		.byte	0x54
 19522 2ba5 46000000 		.4byte	.LVL568
 19523 2ba9 52000000 		.4byte	.LVL569
 19524 2bad 0100     		.2byte	0x1
 19525 2baf 54       		.byte	0x54
 19526 2bb0 06010000 		.4byte	.LVL588
 19527 2bb4 1E010000 		.4byte	.LVL590
 19528 2bb8 0100     		.2byte	0x1
 19529 2bba 53       		.byte	0x53
 19530 2bbb 1E010000 		.4byte	.LVL590
 19531 2bbf 20010000 		.4byte	.LVL591
 19532 2bc3 0100     		.2byte	0x1
 19533 2bc5 54       		.byte	0x54
 19534 2bc6 00000000 		.4byte	0
 19535 2bca 00000000 		.4byte	0
 19536              	.LLST220:
 19537 2bce 64000000 		.4byte	.LVL570
 19538 2bd2 68000000 		.4byte	.LVL571
 19539 2bd6 0100     		.2byte	0x1
 19540 2bd8 55       		.byte	0x55
 19541 2bd9 68000000 		.4byte	.LVL571
 19542 2bdd 78000000 		.4byte	.LVL573
 19543 2be1 0F00     		.2byte	0xf
 19544 2be3 73       		.byte	0x73
 19545 2be4 02       		.sleb128 2
 19546 2be5 94       		.byte	0x94
 19547 2be6 01       		.byte	0x1
 19548 2be7 08       		.byte	0x8
 19549 2be8 FF       		.byte	0xff
 19550 2be9 1A       		.byte	0x1a
 19551 2bea 31       		.byte	0x31
 19552 2beb 1C       		.byte	0x1c
 19553 2bec 76       		.byte	0x76
 19554 2bed 00       		.sleb128 0
 19555 2bee 39       		.byte	0x39
 19556 2bef 25       		.byte	0x25
 19557 2bf0 1A       		.byte	0x1a
 19558 2bf1 9F       		.byte	0x9f
ARM GAS  /tmp/ccZHgRNF.s 			page 345


 19559 2bf2 88010000 		.4byte	.LVL605
 19560 2bf6 8F010000 		.4byte	.LVL606-1
 19561 2bfa 0F00     		.2byte	0xf
 19562 2bfc 73       		.byte	0x73
 19563 2bfd 02       		.sleb128 2
 19564 2bfe 94       		.byte	0x94
 19565 2bff 01       		.byte	0x1
 19566 2c00 08       		.byte	0x8
 19567 2c01 FF       		.byte	0xff
 19568 2c02 1A       		.byte	0x1a
 19569 2c03 31       		.byte	0x31
 19570 2c04 1C       		.byte	0x1c
 19571 2c05 76       		.byte	0x76
 19572 2c06 00       		.sleb128 0
 19573 2c07 39       		.byte	0x39
 19574 2c08 25       		.byte	0x25
 19575 2c09 1A       		.byte	0x1a
 19576 2c0a 9F       		.byte	0x9f
 19577 2c0b 9C010000 		.4byte	.LVL607
 19578 2c0f A3010000 		.4byte	.LVL609-1
 19579 2c13 0F00     		.2byte	0xf
 19580 2c15 73       		.byte	0x73
 19581 2c16 02       		.sleb128 2
 19582 2c17 94       		.byte	0x94
 19583 2c18 01       		.byte	0x1
 19584 2c19 08       		.byte	0x8
 19585 2c1a FF       		.byte	0xff
 19586 2c1b 1A       		.byte	0x1a
 19587 2c1c 31       		.byte	0x31
 19588 2c1d 1C       		.byte	0x1c
 19589 2c1e 76       		.byte	0x76
 19590 2c1f 00       		.sleb128 0
 19591 2c20 39       		.byte	0x39
 19592 2c21 25       		.byte	0x25
 19593 2c22 1A       		.byte	0x1a
 19594 2c23 9F       		.byte	0x9f
 19595 2c24 00000000 		.4byte	0
 19596 2c28 00000000 		.4byte	0
 19597              	.LLST221:
 19598 2c2c 92000000 		.4byte	.LVL575
 19599 2c30 9A000000 		.4byte	.LVL576
 19600 2c34 0200     		.2byte	0x2
 19601 2c36 77       		.byte	0x77
 19602 2c37 14       		.sleb128 20
 19603 2c38 9A000000 		.4byte	.LVL576
 19604 2c3c D1000000 		.4byte	.LVL580-1
 19605 2c40 0100     		.2byte	0x1
 19606 2c42 5C       		.byte	0x5c
 19607 2c43 20010000 		.4byte	.LVL591
 19608 2c47 2E010000 		.4byte	.LVL592
 19609 2c4b 0100     		.2byte	0x1
 19610 2c4d 5C       		.byte	0x5c
 19611 2c4e AC010000 		.4byte	.LVL610
 19612 2c52 B7010000 		.4byte	.LVL612-1
 19613 2c56 0100     		.2byte	0x1
 19614 2c58 5C       		.byte	0x5c
 19615 2c59 00000000 		.4byte	0
ARM GAS  /tmp/ccZHgRNF.s 			page 346


 19616 2c5d 00000000 		.4byte	0
 19617              	.LLST222:
 19618 2c61 92000000 		.4byte	.LVL575
 19619 2c65 CE000000 		.4byte	.LVL579
 19620 2c69 0100     		.2byte	0x1
 19621 2c6b 53       		.byte	0x53
 19622 2c6c 20010000 		.4byte	.LVL591
 19623 2c70 2E010000 		.4byte	.LVL592
 19624 2c74 0100     		.2byte	0x1
 19625 2c76 53       		.byte	0x53
 19626 2c77 AC010000 		.4byte	.LVL610
 19627 2c7b B4010000 		.4byte	.LVL611
 19628 2c7f 0100     		.2byte	0x1
 19629 2c81 53       		.byte	0x53
 19630 2c82 00000000 		.4byte	0
 19631 2c86 00000000 		.4byte	0
 19632              	.LLST223:
 19633 2c8a E4000000 		.4byte	.LVL581
 19634 2c8e FE000000 		.4byte	.LVL586
 19635 2c92 0400     		.2byte	0x4
 19636 2c94 0A       		.byte	0xa
 19637 2c95 FF01     		.2byte	0x1ff
 19638 2c97 9F       		.byte	0x9f
 19639 2c98 00000000 		.4byte	0
 19640 2c9c 00000000 		.4byte	0
 19641              	.LLST224:
 19642 2ca0 E4000000 		.4byte	.LVL581
 19643 2ca4 EA000000 		.4byte	.LVL582
 19644 2ca8 0100     		.2byte	0x1
 19645 2caa 55       		.byte	0x55
 19646 2cab EA000000 		.4byte	.LVL582
 19647 2caf F8000000 		.4byte	.LVL585
 19648 2cb3 0400     		.2byte	0x4
 19649 2cb5 73       		.byte	0x73
 19650 2cb6 807C     		.sleb128 -512
 19651 2cb8 9F       		.byte	0x9f
 19652 2cb9 F8000000 		.4byte	.LVL585
 19653 2cbd FE000000 		.4byte	.LVL586
 19654 2cc1 0800     		.2byte	0x8
 19655 2cc3 7C       		.byte	0x7c
 19656 2cc4 00       		.sleb128 0
 19657 2cc5 39       		.byte	0x39
 19658 2cc6 24       		.byte	0x24
 19659 2cc7 74       		.byte	0x74
 19660 2cc8 00       		.sleb128 0
 19661 2cc9 22       		.byte	0x22
 19662 2cca 9F       		.byte	0x9f
 19663 2ccb 00000000 		.4byte	0
 19664 2ccf 00000000 		.4byte	0
 19665              	.LLST225:
 19666 2cd3 E4000000 		.4byte	.LVL581
 19667 2cd7 FE000000 		.4byte	.LVL586
 19668 2cdb 0200     		.2byte	0x2
 19669 2cdd 91       		.byte	0x91
 19670 2cde 54       		.sleb128 -44
 19671 2cdf 00000000 		.4byte	0
 19672 2ce3 00000000 		.4byte	0
ARM GAS  /tmp/ccZHgRNF.s 			page 347


 19673              	.LLST226:
 19674 2ce7 E4000000 		.4byte	.LVL581
 19675 2ceb EA000000 		.4byte	.LVL582
 19676 2cef 0200     		.2byte	0x2
 19677 2cf1 91       		.byte	0x91
 19678 2cf2 54       		.sleb128 -44
 19679 2cf3 EA000000 		.4byte	.LVL582
 19680 2cf7 FE000000 		.4byte	.LVL586
 19681 2cfb 0100     		.2byte	0x1
 19682 2cfd 56       		.byte	0x56
 19683 2cfe 00000000 		.4byte	0
 19684 2d02 00000000 		.4byte	0
 19685              	.LLST227:
 19686 2d06 E4000000 		.4byte	.LVL581
 19687 2d0a EE000000 		.4byte	.LVL583
 19688 2d0e 0100     		.2byte	0x1
 19689 2d10 55       		.byte	0x55
 19690 2d11 EE000000 		.4byte	.LVL583
 19691 2d15 F2000000 		.4byte	.LVL584
 19692 2d19 0300     		.2byte	0x3
 19693 2d1b 75       		.byte	0x75
 19694 2d1c 7F       		.sleb128 -1
 19695 2d1d 9F       		.byte	0x9f
 19696 2d1e F2000000 		.4byte	.LVL584
 19697 2d22 FE000000 		.4byte	.LVL586
 19698 2d26 0100     		.2byte	0x1
 19699 2d28 55       		.byte	0x55
 19700 2d29 00000000 		.4byte	0
 19701 2d2d 00000000 		.4byte	0
 19702              	.LLST228:
 19703 2d31 44010000 		.4byte	.LVL596
 19704 2d35 4A010000 		.4byte	.LVL597
 19705 2d39 0300     		.2byte	0x3
 19706 2d3b 72       		.byte	0x72
 19707 2d3c 7F       		.sleb128 -1
 19708 2d3d 9F       		.byte	0x9f
 19709 2d3e 00000000 		.4byte	0
 19710 2d42 00000000 		.4byte	0
 19711              	.LLST229:
 19712 2d46 44010000 		.4byte	.LVL596
 19713 2d4a 4A010000 		.4byte	.LVL597
 19714 2d4e 0100     		.2byte	0x1
 19715 2d50 55       		.byte	0x55
 19716 2d51 00000000 		.4byte	0
 19717 2d55 00000000 		.4byte	0
 19718              	.LLST230:
 19719 2d59 44010000 		.4byte	.LVL596
 19720 2d5d 62010000 		.4byte	.LVL601
 19721 2d61 0100     		.2byte	0x1
 19722 2d63 55       		.byte	0x55
 19723 2d64 00000000 		.4byte	0
 19724 2d68 00000000 		.4byte	0
 19725              	.LLST231:
 19726 2d6c 4A010000 		.4byte	.LVL597
 19727 2d70 4E010000 		.4byte	.LVL598
 19728 2d74 0100     		.2byte	0x1
 19729 2d76 54       		.byte	0x54
ARM GAS  /tmp/ccZHgRNF.s 			page 348


 19730 2d77 4E010000 		.4byte	.LVL598
 19731 2d7b 52010000 		.4byte	.LVL599
 19732 2d7f 0300     		.2byte	0x3
 19733 2d81 74       		.byte	0x74
 19734 2d82 7F       		.sleb128 -1
 19735 2d83 9F       		.byte	0x9f
 19736 2d84 52010000 		.4byte	.LVL599
 19737 2d88 58010000 		.4byte	.LVL600
 19738 2d8c 0100     		.2byte	0x1
 19739 2d8e 54       		.byte	0x54
 19740 2d8f 00000000 		.4byte	0
 19741 2d93 00000000 		.4byte	0
 19742              	.LLST232:
 19743 2d97 00000000 		.4byte	.LVL614
 19744 2d9b 07000000 		.4byte	.LVL615-1
 19745 2d9f 0100     		.2byte	0x1
 19746 2da1 50       		.byte	0x50
 19747 2da2 07000000 		.4byte	.LVL615-1
 19748 2da6 9E000000 		.4byte	.LVL626
 19749 2daa 0100     		.2byte	0x1
 19750 2dac 54       		.byte	0x54
 19751 2dad 9E000000 		.4byte	.LVL626
 19752 2db1 A2000000 		.4byte	.LVL627
 19753 2db5 0400     		.2byte	0x4
 19754 2db7 F3       		.byte	0xf3
 19755 2db8 01       		.uleb128 0x1
 19756 2db9 50       		.byte	0x50
 19757 2dba 9F       		.byte	0x9f
 19758 2dbb A2000000 		.4byte	.LVL627
 19759 2dbf A6000000 		.4byte	.LFE273
 19760 2dc3 0100     		.2byte	0x1
 19761 2dc5 54       		.byte	0x54
 19762 2dc6 00000000 		.4byte	0
 19763 2dca 00000000 		.4byte	0
 19764              	.LLST233:
 19765 2dce 08000000 		.4byte	.LVL615
 19766 2dd2 14000000 		.4byte	.LVL616
 19767 2dd6 0100     		.2byte	0x1
 19768 2dd8 50       		.byte	0x50
 19769 2dd9 3E000000 		.4byte	.LVL618
 19770 2ddd 42000000 		.4byte	.LVL619
 19771 2de1 0100     		.2byte	0x1
 19772 2de3 50       		.byte	0x50
 19773 2de4 44000000 		.4byte	.LVL620
 19774 2de8 75000000 		.4byte	.LVL624-1
 19775 2dec 0100     		.2byte	0x1
 19776 2dee 50       		.byte	0x50
 19777 2def 00000000 		.4byte	0
 19778 2df3 00000000 		.4byte	0
 19779              	.LLST234:
 19780 2df7 76000000 		.4byte	.LVL624
 19781 2dfb 9A000000 		.4byte	.LVL625
 19782 2dff 0100     		.2byte	0x1
 19783 2e01 50       		.byte	0x50
 19784 2e02 00000000 		.4byte	0
 19785 2e06 00000000 		.4byte	0
 19786              	.LLST235:
ARM GAS  /tmp/ccZHgRNF.s 			page 349


 19787 2e0a 46000000 		.4byte	.LVL621
 19788 2e0e 9E000000 		.4byte	.LVL626
 19789 2e12 0100     		.2byte	0x1
 19790 2e14 55       		.byte	0x55
 19791 2e15 00000000 		.4byte	0
 19792 2e19 00000000 		.4byte	0
 19793              	.LLST236:
 19794 2e1d 62000000 		.4byte	.LVL622
 19795 2e21 6C000000 		.4byte	.LVL623
 19796 2e25 0100     		.2byte	0x1
 19797 2e27 53       		.byte	0x53
 19798 2e28 00000000 		.4byte	0
 19799 2e2c 00000000 		.4byte	0
 19800              	.LLST237:
 19801 2e30 62000000 		.4byte	.LVL622
 19802 2e34 9E000000 		.4byte	.LVL626
 19803 2e38 0100     		.2byte	0x1
 19804 2e3a 55       		.byte	0x55
 19805 2e3b 00000000 		.4byte	0
 19806 2e3f 00000000 		.4byte	0
 19807              	.LLST238:
 19808 2e43 00000000 		.4byte	.LVL628
 19809 2e47 07000000 		.4byte	.LVL629-1
 19810 2e4b 0100     		.2byte	0x1
 19811 2e4d 50       		.byte	0x50
 19812 2e4e 07000000 		.4byte	.LVL629-1
 19813 2e52 1A000000 		.4byte	.LFE274
 19814 2e56 0100     		.2byte	0x1
 19815 2e58 54       		.byte	0x54
 19816 2e59 00000000 		.4byte	0
 19817 2e5d 00000000 		.4byte	0
 19818              	.LLST239:
 19819 2e61 08000000 		.4byte	.LVL629
 19820 2e65 0E000000 		.4byte	.LVL631
 19821 2e69 0100     		.2byte	0x1
 19822 2e6b 50       		.byte	0x50
 19823 2e6c 12000000 		.4byte	.LVL632
 19824 2e70 1A000000 		.4byte	.LFE274
 19825 2e74 0100     		.2byte	0x1
 19826 2e76 50       		.byte	0x50
 19827 2e77 00000000 		.4byte	0
 19828 2e7b 00000000 		.4byte	0
 19829              	.LLST240:
 19830 2e7f 00000000 		.4byte	.LVL633
 19831 2e83 09000000 		.4byte	.LVL634-1
 19832 2e87 0100     		.2byte	0x1
 19833 2e89 50       		.byte	0x50
 19834 2e8a 09000000 		.4byte	.LVL634-1
 19835 2e8e 64010000 		.4byte	.LFE275
 19836 2e92 0100     		.2byte	0x1
 19837 2e94 54       		.byte	0x54
 19838 2e95 00000000 		.4byte	0
 19839 2e99 00000000 		.4byte	0
 19840              	.LLST241:
 19841 2e9d 00000000 		.4byte	.LVL633
 19842 2ea1 09000000 		.4byte	.LVL634-1
 19843 2ea5 0100     		.2byte	0x1
ARM GAS  /tmp/ccZHgRNF.s 			page 350


 19844 2ea7 51       		.byte	0x51
 19845 2ea8 09000000 		.4byte	.LVL634-1
 19846 2eac 54000000 		.4byte	.LVL642
 19847 2eb0 0100     		.2byte	0x1
 19848 2eb2 55       		.byte	0x55
 19849 2eb3 9A000000 		.4byte	.LVL646
 19850 2eb7 AC000000 		.4byte	.LVL649
 19851 2ebb 0100     		.2byte	0x1
 19852 2ebd 55       		.byte	0x55
 19853 2ebe C8000000 		.4byte	.LVL653
 19854 2ec2 0C010000 		.4byte	.LVL659
 19855 2ec6 0100     		.2byte	0x1
 19856 2ec8 55       		.byte	0x55
 19857 2ec9 2E010000 		.4byte	.LVL665
 19858 2ecd 3A010000 		.4byte	.LVL669
 19859 2ed1 0100     		.2byte	0x1
 19860 2ed3 55       		.byte	0x55
 19861 2ed4 44010000 		.4byte	.LVL670
 19862 2ed8 56010000 		.4byte	.LVL673
 19863 2edc 0100     		.2byte	0x1
 19864 2ede 55       		.byte	0x55
 19865 2edf 5A010000 		.4byte	.LVL674
 19866 2ee3 5C010000 		.4byte	.LVL675
 19867 2ee7 0100     		.2byte	0x1
 19868 2ee9 55       		.byte	0x55
 19869 2eea 00000000 		.4byte	0
 19870 2eee 00000000 		.4byte	0
 19871              	.LLST242:
 19872 2ef2 0A000000 		.4byte	.LVL634
 19873 2ef6 10000000 		.4byte	.LVL635
 19874 2efa 0100     		.2byte	0x1
 19875 2efc 50       		.byte	0x50
 19876 2efd 00000000 		.4byte	0
 19877 2f01 00000000 		.4byte	0
 19878              	.LLST243:
 19879 2f05 48000000 		.4byte	.LVL641
 19880 2f09 54000000 		.4byte	.LVL642
 19881 2f0d 0100     		.2byte	0x1
 19882 2f0f 51       		.byte	0x51
 19883 2f10 9E000000 		.4byte	.LVL647
 19884 2f14 B8000000 		.4byte	.LVL650
 19885 2f18 0100     		.2byte	0x1
 19886 2f1a 51       		.byte	0x51
 19887 2f1b BE000000 		.4byte	.LVL651
 19888 2f1f C1000000 		.4byte	.LVL652-1
 19889 2f23 0100     		.2byte	0x1
 19890 2f25 51       		.byte	0x51
 19891 2f26 C2000000 		.4byte	.LVL652
 19892 2f2a C8000000 		.4byte	.LVL653
 19893 2f2e 0100     		.2byte	0x1
 19894 2f30 50       		.byte	0x50
 19895 2f31 C8000000 		.4byte	.LVL653
 19896 2f35 00010000 		.4byte	.LVL657
 19897 2f39 0100     		.2byte	0x1
 19898 2f3b 51       		.byte	0x51
 19899 2f3c 00010000 		.4byte	.LVL657
 19900 2f40 04010000 		.4byte	.LVL658
ARM GAS  /tmp/ccZHgRNF.s 			page 351


 19901 2f44 0300     		.2byte	0x3
 19902 2f46 72       		.byte	0x72
 19903 2f47 02       		.sleb128 2
 19904 2f48 9F       		.byte	0x9f
 19905 2f49 0E010000 		.4byte	.LVL660
 19906 2f4d 11010000 		.4byte	.LVL661-1
 19907 2f51 0100     		.2byte	0x1
 19908 2f53 51       		.byte	0x51
 19909 2f54 38010000 		.4byte	.LVL668
 19910 2f58 3A010000 		.4byte	.LVL669
 19911 2f5c 0100     		.2byte	0x1
 19912 2f5e 51       		.byte	0x51
 19913 2f5f 44010000 		.4byte	.LVL670
 19914 2f63 47010000 		.4byte	.LVL671-1
 19915 2f67 0100     		.2byte	0x1
 19916 2f69 51       		.byte	0x51
 19917 2f6a 4C010000 		.4byte	.LVL672
 19918 2f6e 56010000 		.4byte	.LVL673
 19919 2f72 0100     		.2byte	0x1
 19920 2f74 50       		.byte	0x50
 19921 2f75 5A010000 		.4byte	.LVL674
 19922 2f79 5E010000 		.4byte	.LVL676
 19923 2f7d 0100     		.2byte	0x1
 19924 2f7f 51       		.byte	0x51
 19925 2f80 5E010000 		.4byte	.LVL676
 19926 2f84 60010000 		.4byte	.LVL677
 19927 2f88 0100     		.2byte	0x1
 19928 2f8a 50       		.byte	0x50
 19929 2f8b 60010000 		.4byte	.LVL677
 19930 2f8f 64010000 		.4byte	.LFE275
 19931 2f93 0100     		.2byte	0x1
 19932 2f95 51       		.byte	0x51
 19933 2f96 00000000 		.4byte	0
 19934 2f9a 00000000 		.4byte	0
 19935              	.LLST244:
 19936 2f9e 34000000 		.4byte	.LVL638
 19937 2fa2 54000000 		.4byte	.LVL642
 19938 2fa6 0100     		.2byte	0x1
 19939 2fa8 56       		.byte	0x56
 19940 2fa9 9E000000 		.4byte	.LVL647
 19941 2fad B8000000 		.4byte	.LVL650
 19942 2fb1 0100     		.2byte	0x1
 19943 2fb3 56       		.byte	0x56
 19944 2fb4 BE000000 		.4byte	.LVL651
 19945 2fb8 F2000000 		.4byte	.LVL655
 19946 2fbc 0100     		.2byte	0x1
 19947 2fbe 56       		.byte	0x56
 19948 2fbf 0E010000 		.4byte	.LVL660
 19949 2fc3 16010000 		.4byte	.LVL662
 19950 2fc7 0100     		.2byte	0x1
 19951 2fc9 56       		.byte	0x56
 19952 2fca 2E010000 		.4byte	.LVL665
 19953 2fce 3A010000 		.4byte	.LVL669
 19954 2fd2 0100     		.2byte	0x1
 19955 2fd4 56       		.byte	0x56
 19956 2fd5 44010000 		.4byte	.LVL670
 19957 2fd9 56010000 		.4byte	.LVL673
ARM GAS  /tmp/ccZHgRNF.s 			page 352


 19958 2fdd 0100     		.2byte	0x1
 19959 2fdf 56       		.byte	0x56
 19960 2fe0 5A010000 		.4byte	.LVL674
 19961 2fe4 64010000 		.4byte	.LFE275
 19962 2fe8 0100     		.2byte	0x1
 19963 2fea 56       		.byte	0x56
 19964 2feb 00000000 		.4byte	0
 19965 2fef 00000000 		.4byte	0
 19966              	.LLST245:
 19967 2ff3 28000000 		.4byte	.LVL637
 19968 2ff7 54000000 		.4byte	.LVL642
 19969 2ffb 0200     		.2byte	0x2
 19970 2ffd 30       		.byte	0x30
 19971 2ffe 9F       		.byte	0x9f
 19972 2fff 54000000 		.4byte	.LVL642
 19973 3003 98000000 		.4byte	.LVL645
 19974 3007 0100     		.2byte	0x1
 19975 3009 55       		.byte	0x55
 19976 300a 9A000000 		.4byte	.LVL646
 19977 300e B8000000 		.4byte	.LVL650
 19978 3012 0200     		.2byte	0x2
 19979 3014 30       		.byte	0x30
 19980 3015 9F       		.byte	0x9f
 19981 3016 BE000000 		.4byte	.LVL651
 19982 301a 04010000 		.4byte	.LVL658
 19983 301e 0200     		.2byte	0x2
 19984 3020 30       		.byte	0x30
 19985 3021 9F       		.byte	0x9f
 19986 3022 0C010000 		.4byte	.LVL659
 19987 3026 0E010000 		.4byte	.LVL660
 19988 302a 0100     		.2byte	0x1
 19989 302c 55       		.byte	0x55
 19990 302d 0E010000 		.4byte	.LVL660
 19991 3031 16010000 		.4byte	.LVL662
 19992 3035 0200     		.2byte	0x2
 19993 3037 30       		.byte	0x30
 19994 3038 9F       		.byte	0x9f
 19995 3039 16010000 		.4byte	.LVL662
 19996 303d 28010000 		.4byte	.LVL664
 19997 3041 0100     		.2byte	0x1
 19998 3043 55       		.byte	0x55
 19999 3044 2E010000 		.4byte	.LVL665
 20000 3048 3A010000 		.4byte	.LVL669
 20001 304c 0200     		.2byte	0x2
 20002 304e 30       		.byte	0x30
 20003 304f 9F       		.byte	0x9f
 20004 3050 3A010000 		.4byte	.LVL669
 20005 3054 44010000 		.4byte	.LVL670
 20006 3058 0100     		.2byte	0x1
 20007 305a 55       		.byte	0x55
 20008 305b 44010000 		.4byte	.LVL670
 20009 305f 56010000 		.4byte	.LVL673
 20010 3063 0200     		.2byte	0x2
 20011 3065 30       		.byte	0x30
 20012 3066 9F       		.byte	0x9f
 20013 3067 56010000 		.4byte	.LVL673
 20014 306b 5A010000 		.4byte	.LVL674
ARM GAS  /tmp/ccZHgRNF.s 			page 353


 20015 306f 0100     		.2byte	0x1
 20016 3071 55       		.byte	0x55
 20017 3072 5A010000 		.4byte	.LVL674
 20018 3076 64010000 		.4byte	.LFE275
 20019 307a 0200     		.2byte	0x2
 20020 307c 30       		.byte	0x30
 20021 307d 9F       		.byte	0x9f
 20022 307e 00000000 		.4byte	0
 20023 3082 00000000 		.4byte	0
 20024              	.LLST246:
 20025 3086 28000000 		.4byte	.LVL637
 20026 308a 38000000 		.4byte	.LVL639
 20027 308e 0100     		.2byte	0x1
 20028 3090 52       		.byte	0x52
 20029 3091 38000000 		.4byte	.LVL639
 20030 3095 46000000 		.4byte	.LVL640
 20031 3099 0300     		.2byte	0x3
 20032 309b 72       		.byte	0x72
 20033 309c 01       		.sleb128 1
 20034 309d 9F       		.byte	0x9f
 20035 309e 9A000000 		.4byte	.LVL646
 20036 30a2 9E000000 		.4byte	.LVL647
 20037 30a6 0100     		.2byte	0x1
 20038 30a8 52       		.byte	0x52
 20039 30a9 2E010000 		.4byte	.LVL665
 20040 30ad 32010000 		.4byte	.LVL666
 20041 30b1 0300     		.2byte	0x3
 20042 30b3 72       		.byte	0x72
 20043 30b4 01       		.sleb128 1
 20044 30b5 9F       		.byte	0x9f
 20045 30b6 00000000 		.4byte	0
 20046 30ba 00000000 		.4byte	0
 20047              	.LLST247:
 20048 30be A4000000 		.4byte	.LVL648
 20049 30c2 B8000000 		.4byte	.LVL650
 20050 30c6 0100     		.2byte	0x1
 20051 30c8 51       		.byte	0x51
 20052 30c9 BE000000 		.4byte	.LVL651
 20053 30cd C1000000 		.4byte	.LVL652-1
 20054 30d1 0100     		.2byte	0x1
 20055 30d3 51       		.byte	0x51
 20056 30d4 0E010000 		.4byte	.LVL660
 20057 30d8 11010000 		.4byte	.LVL661-1
 20058 30dc 0100     		.2byte	0x1
 20059 30de 51       		.byte	0x51
 20060 30df 00000000 		.4byte	0
 20061 30e3 00000000 		.4byte	0
 20062              	.LLST248:
 20063 30e7 A4000000 		.4byte	.LVL648
 20064 30eb B8000000 		.4byte	.LVL650
 20065 30ef 0100     		.2byte	0x1
 20066 30f1 50       		.byte	0x50
 20067 30f2 BE000000 		.4byte	.LVL651
 20068 30f6 C1000000 		.4byte	.LVL652-1
 20069 30fa 0100     		.2byte	0x1
 20070 30fc 50       		.byte	0x50
 20071 30fd 0E010000 		.4byte	.LVL660
ARM GAS  /tmp/ccZHgRNF.s 			page 354


 20072 3101 11010000 		.4byte	.LVL661-1
 20073 3105 0100     		.2byte	0x1
 20074 3107 50       		.byte	0x50
 20075 3108 00000000 		.4byte	0
 20076 310c 00000000 		.4byte	0
 20077              	.LLST249:
 20078 3110 F2000000 		.4byte	.LVL655
 20079 3114 F6000000 		.4byte	.LVL656
 20080 3118 0100     		.2byte	0x1
 20081 311a 51       		.byte	0x51
 20082 311b F6000000 		.4byte	.LVL656
 20083 311f 04010000 		.4byte	.LVL658
 20084 3123 0100     		.2byte	0x1
 20085 3125 52       		.byte	0x52
 20086 3126 00000000 		.4byte	0
 20087 312a 00000000 		.4byte	0
 20088              	.LLST250:
 20089 312e F2000000 		.4byte	.LVL655
 20090 3132 0E010000 		.4byte	.LVL660
 20091 3136 0100     		.2byte	0x1
 20092 3138 56       		.byte	0x56
 20093 3139 00000000 		.4byte	0
 20094 313d 00000000 		.4byte	0
 20095              	.LLST251:
 20096 3141 00000000 		.4byte	.LVL678
 20097 3145 0C000000 		.4byte	.LVL679
 20098 3149 0100     		.2byte	0x1
 20099 314b 50       		.byte	0x50
 20100 314c 0C000000 		.4byte	.LVL679
 20101 3150 1E000000 		.4byte	.LVL684
 20102 3154 0100     		.2byte	0x1
 20103 3156 54       		.byte	0x54
 20104 3157 1E000000 		.4byte	.LVL684
 20105 315b 20000000 		.4byte	.LVL685
 20106 315f 0100     		.2byte	0x1
 20107 3161 50       		.byte	0x50
 20108 3162 20000000 		.4byte	.LVL685
 20109 3166 7E000000 		.4byte	.LFE276
 20110 316a 0100     		.2byte	0x1
 20111 316c 54       		.byte	0x54
 20112 316d 00000000 		.4byte	0
 20113 3171 00000000 		.4byte	0
 20114              	.LLST252:
 20115 3175 00000000 		.4byte	.LVL678
 20116 3179 0E000000 		.4byte	.LVL680
 20117 317d 0100     		.2byte	0x1
 20118 317f 51       		.byte	0x51
 20119 3180 0E000000 		.4byte	.LVL680
 20120 3184 13000000 		.4byte	.LVL681-1
 20121 3188 0200     		.2byte	0x2
 20122 318a 71       		.byte	0x71
 20123 318b 00       		.sleb128 0
 20124 318c 13000000 		.4byte	.LVL681-1
 20125 3190 1E000000 		.4byte	.LVL684
 20126 3194 0200     		.2byte	0x2
 20127 3196 91       		.byte	0x91
 20128 3197 5C       		.sleb128 -36
ARM GAS  /tmp/ccZHgRNF.s 			page 355


 20129 3198 1E000000 		.4byte	.LVL684
 20130 319c 24000000 		.4byte	.LVL686
 20131 31a0 0100     		.2byte	0x1
 20132 31a2 51       		.byte	0x51
 20133 31a3 24000000 		.4byte	.LVL686
 20134 31a7 7E000000 		.4byte	.LFE276
 20135 31ab 0200     		.2byte	0x2
 20136 31ad 91       		.byte	0x91
 20137 31ae 5C       		.sleb128 -36
 20138 31af 00000000 		.4byte	0
 20139 31b3 00000000 		.4byte	0
 20140              	.LLST253:
 20141 31b7 14000000 		.4byte	.LVL681
 20142 31bb 1A000000 		.4byte	.LVL683
 20143 31bf 0100     		.2byte	0x1
 20144 31c1 50       		.byte	0x50
 20145 31c2 24000000 		.4byte	.LVL686
 20146 31c6 2E000000 		.4byte	.LVL687
 20147 31ca 0100     		.2byte	0x1
 20148 31cc 50       		.byte	0x50
 20149 31cd 34000000 		.4byte	.LVL688
 20150 31d1 46000000 		.4byte	.LVL690
 20151 31d5 0100     		.2byte	0x1
 20152 31d7 50       		.byte	0x50
 20153 31d8 52000000 		.4byte	.LVL693
 20154 31dc 5E000000 		.4byte	.LVL694
 20155 31e0 0200     		.2byte	0x2
 20156 31e2 30       		.byte	0x30
 20157 31e3 9F       		.byte	0x9f
 20158 31e4 5E000000 		.4byte	.LVL694
 20159 31e8 68000000 		.4byte	.LVL695
 20160 31ec 0100     		.2byte	0x1
 20161 31ee 50       		.byte	0x50
 20162 31ef 6C000000 		.4byte	.LVL696
 20163 31f3 70000000 		.4byte	.LVL697
 20164 31f7 0100     		.2byte	0x1
 20165 31f9 50       		.byte	0x50
 20166 31fa 00000000 		.4byte	0
 20167 31fe 00000000 		.4byte	0
 20168              	.LLST254:
 20169 3202 42000000 		.4byte	.LVL689
 20170 3206 52000000 		.4byte	.LVL693
 20171 320a 0100     		.2byte	0x1
 20172 320c 52       		.byte	0x52
 20173 320d 70000000 		.4byte	.LVL697
 20174 3211 7E000000 		.4byte	.LFE276
 20175 3215 0100     		.2byte	0x1
 20176 3217 52       		.byte	0x52
 20177 3218 00000000 		.4byte	0
 20178 321c 00000000 		.4byte	0
 20179              	.LLST255:
 20180 3220 42000000 		.4byte	.LVL689
 20181 3224 50000000 		.4byte	.LVL692
 20182 3228 0100     		.2byte	0x1
 20183 322a 53       		.byte	0x53
 20184 322b 50000000 		.4byte	.LVL692
 20185 322f 52000000 		.4byte	.LVL693
ARM GAS  /tmp/ccZHgRNF.s 			page 356


 20186 3233 0200     		.2byte	0x2
 20187 3235 74       		.byte	0x74
 20188 3236 14       		.sleb128 20
 20189 3237 70000000 		.4byte	.LVL697
 20190 323b 74000000 		.4byte	.LVL698
 20191 323f 0100     		.2byte	0x1
 20192 3241 53       		.byte	0x53
 20193 3242 74000000 		.4byte	.LVL698
 20194 3246 7E000000 		.4byte	.LFE276
 20195 324a 0200     		.2byte	0x2
 20196 324c 74       		.byte	0x74
 20197 324d 14       		.sleb128 20
 20198 324e 00000000 		.4byte	0
 20199 3252 00000000 		.4byte	0
 20200              	.LLST256:
 20201 3256 4E000000 		.4byte	.LVL691
 20202 325a 52000000 		.4byte	.LVL693
 20203 325e 0100     		.2byte	0x1
 20204 3260 51       		.byte	0x51
 20205 3261 70000000 		.4byte	.LVL697
 20206 3265 7E000000 		.4byte	.LFE276
 20207 3269 0100     		.2byte	0x1
 20208 326b 51       		.byte	0x51
 20209 326c 00000000 		.4byte	0
 20210 3270 00000000 		.4byte	0
 20211              	.LLST257:
 20212 3274 00000000 		.4byte	.LVL700
 20213 3278 07000000 		.4byte	.LVL701-1
 20214 327c 0100     		.2byte	0x1
 20215 327e 50       		.byte	0x50
 20216 327f 07000000 		.4byte	.LVL701-1
 20217 3283 0E000000 		.4byte	.LFE277
 20218 3287 0100     		.2byte	0x1
 20219 3289 54       		.byte	0x54
 20220 328a 00000000 		.4byte	0
 20221 328e 00000000 		.4byte	0
 20222              	.LLST258:
 20223 3292 00000000 		.4byte	.LVL702
 20224 3296 0B000000 		.4byte	.LVL703-1
 20225 329a 0100     		.2byte	0x1
 20226 329c 50       		.byte	0x50
 20227 329d 0B000000 		.4byte	.LVL703-1
 20228 32a1 5A000000 		.4byte	.LFE278
 20229 32a5 0100     		.2byte	0x1
 20230 32a7 55       		.byte	0x55
 20231 32a8 00000000 		.4byte	0
 20232 32ac 00000000 		.4byte	0
 20233              	.LLST259:
 20234 32b0 00000000 		.4byte	.LVL702
 20235 32b4 0B000000 		.4byte	.LVL703-1
 20236 32b8 0100     		.2byte	0x1
 20237 32ba 51       		.byte	0x51
 20238 32bb 0B000000 		.4byte	.LVL703-1
 20239 32bf 5A000000 		.4byte	.LFE278
 20240 32c3 0100     		.2byte	0x1
 20241 32c5 56       		.byte	0x56
 20242 32c6 00000000 		.4byte	0
ARM GAS  /tmp/ccZHgRNF.s 			page 357


 20243 32ca 00000000 		.4byte	0
 20244              	.LLST260:
 20245 32ce 0C000000 		.4byte	.LVL703
 20246 32d2 18000000 		.4byte	.LVL704
 20247 32d6 0100     		.2byte	0x1
 20248 32d8 50       		.byte	0x50
 20249 32d9 1C000000 		.4byte	.LVL705
 20250 32dd 22000000 		.4byte	.LVL706
 20251 32e1 0100     		.2byte	0x1
 20252 32e3 50       		.byte	0x50
 20253 32e4 24000000 		.4byte	.LVL707
 20254 32e8 2A000000 		.4byte	.LVL708
 20255 32ec 0100     		.2byte	0x1
 20256 32ee 54       		.byte	0x54
 20257 32ef 2A000000 		.4byte	.LVL708
 20258 32f3 2C000000 		.4byte	.LVL709
 20259 32f7 0100     		.2byte	0x1
 20260 32f9 50       		.byte	0x50
 20261 32fa 2C000000 		.4byte	.LVL709
 20262 32fe 2E000000 		.4byte	.LVL710
 20263 3302 0200     		.2byte	0x2
 20264 3304 30       		.byte	0x30
 20265 3305 9F       		.byte	0x9f
 20266 3306 40000000 		.4byte	.LVL712
 20267 330a 48000000 		.4byte	.LVL713
 20268 330e 0100     		.2byte	0x1
 20269 3310 50       		.byte	0x50
 20270 3311 48000000 		.4byte	.LVL713
 20271 3315 4A000000 		.4byte	.LVL714
 20272 3319 0200     		.2byte	0x2
 20273 331b 30       		.byte	0x30
 20274 331c 9F       		.byte	0x9f
 20275 331d 4A000000 		.4byte	.LVL714
 20276 3321 4E000000 		.4byte	.LVL715
 20277 3325 0100     		.2byte	0x1
 20278 3327 50       		.byte	0x50
 20279 3328 54000000 		.4byte	.LVL717
 20280 332c 58000000 		.4byte	.LVL718
 20281 3330 0100     		.2byte	0x1
 20282 3332 50       		.byte	0x50
 20283 3333 00000000 		.4byte	0
 20284 3337 00000000 		.4byte	0
 20285              	.LLST261:
 20286 333b 00000000 		.4byte	.LVL719
 20287 333f 0C000000 		.4byte	.LVL721
 20288 3343 0100     		.2byte	0x1
 20289 3345 50       		.byte	0x50
 20290 3346 0C000000 		.4byte	.LVL721
 20291 334a 11000000 		.4byte	.LVL722-1
 20292 334e 0200     		.2byte	0x2
 20293 3350 71       		.byte	0x71
 20294 3351 00       		.sleb128 0
 20295 3352 11000000 		.4byte	.LVL722-1
 20296 3356 4A000000 		.4byte	.LFE279
 20297 335a 0200     		.2byte	0x2
 20298 335c 91       		.byte	0x91
 20299 335d 44       		.sleb128 -60
ARM GAS  /tmp/ccZHgRNF.s 			page 358


 20300 335e 00000000 		.4byte	0
 20301 3362 00000000 		.4byte	0
 20302              	.LLST262:
 20303 3366 00000000 		.4byte	.LVL719
 20304 336a 0A000000 		.4byte	.LVL720
 20305 336e 0100     		.2byte	0x1
 20306 3370 51       		.byte	0x51
 20307 3371 0A000000 		.4byte	.LVL720
 20308 3375 4A000000 		.4byte	.LFE279
 20309 3379 0100     		.2byte	0x1
 20310 337b 55       		.byte	0x55
 20311 337c 00000000 		.4byte	0
 20312 3380 00000000 		.4byte	0
 20313              	.LLST263:
 20314 3384 12000000 		.4byte	.LVL722
 20315 3388 16000000 		.4byte	.LVL723
 20316 338c 0100     		.2byte	0x1
 20317 338e 50       		.byte	0x50
 20318 338f 16000000 		.4byte	.LVL723
 20319 3393 1C000000 		.4byte	.LVL724
 20320 3397 0100     		.2byte	0x1
 20321 3399 54       		.byte	0x54
 20322 339a 1C000000 		.4byte	.LVL724
 20323 339e 20000000 		.4byte	.LVL725
 20324 33a2 0100     		.2byte	0x1
 20325 33a4 50       		.byte	0x50
 20326 33a5 28000000 		.4byte	.LVL726
 20327 33a9 38000000 		.4byte	.LVL727
 20328 33ad 0100     		.2byte	0x1
 20329 33af 50       		.byte	0x50
 20330 33b0 40000000 		.4byte	.LVL728
 20331 33b4 46000000 		.4byte	.LVL729
 20332 33b8 0100     		.2byte	0x1
 20333 33ba 54       		.byte	0x54
 20334 33bb 46000000 		.4byte	.LVL729
 20335 33bf 4A000000 		.4byte	.LFE279
 20336 33c3 0100     		.2byte	0x1
 20337 33c5 50       		.byte	0x50
 20338 33c6 00000000 		.4byte	0
 20339 33ca 00000000 		.4byte	0
 20340              	.LLST264:
 20341 33ce 00000000 		.4byte	.LVL730
 20342 33d2 12000000 		.4byte	.LVL731
 20343 33d6 0100     		.2byte	0x1
 20344 33d8 50       		.byte	0x50
 20345 33d9 12000000 		.4byte	.LVL731
 20346 33dd 19000000 		.4byte	.LVL734-1
 20347 33e1 0200     		.2byte	0x2
 20348 33e3 73       		.byte	0x73
 20349 33e4 00       		.sleb128 0
 20350 33e5 19000000 		.4byte	.LVL734-1
 20351 33e9 FE000000 		.4byte	.LFE280
 20352 33ed 0200     		.2byte	0x2
 20353 33ef 91       		.byte	0x91
 20354 33f0 54       		.sleb128 -44
 20355 33f1 00000000 		.4byte	0
 20356 33f5 00000000 		.4byte	0
ARM GAS  /tmp/ccZHgRNF.s 			page 359


 20357              	.LLST265:
 20358 33f9 00000000 		.4byte	.LVL730
 20359 33fd 14000000 		.4byte	.LVL732
 20360 3401 0100     		.2byte	0x1
 20361 3403 51       		.byte	0x51
 20362 3404 14000000 		.4byte	.LVL732
 20363 3408 FE000000 		.4byte	.LFE280
 20364 340c 0100     		.2byte	0x1
 20365 340e 58       		.byte	0x58
 20366 340f 00000000 		.4byte	0
 20367 3413 00000000 		.4byte	0
 20368              	.LLST266:
 20369 3417 00000000 		.4byte	.LVL730
 20370 341b 16000000 		.4byte	.LVL733
 20371 341f 0100     		.2byte	0x1
 20372 3421 52       		.byte	0x52
 20373 3422 16000000 		.4byte	.LVL733
 20374 3426 19000000 		.4byte	.LVL734-1
 20375 342a 0100     		.2byte	0x1
 20376 342c 50       		.byte	0x50
 20377 342d 19000000 		.4byte	.LVL734-1
 20378 3431 22000000 		.4byte	.LVL736
 20379 3435 0100     		.2byte	0x1
 20380 3437 54       		.byte	0x54
 20381 3438 22000000 		.4byte	.LVL736
 20382 343c FE000000 		.4byte	.LFE280
 20383 3440 0400     		.2byte	0x4
 20384 3442 F3       		.byte	0xf3
 20385 3443 01       		.uleb128 0x1
 20386 3444 52       		.byte	0x52
 20387 3445 9F       		.byte	0x9f
 20388 3446 00000000 		.4byte	0
 20389 344a 00000000 		.4byte	0
 20390              	.LLST267:
 20391 344e 1A000000 		.4byte	.LVL734
 20392 3452 3E000000 		.4byte	.LVL740
 20393 3456 0100     		.2byte	0x1
 20394 3458 50       		.byte	0x50
 20395 3459 3E000000 		.4byte	.LVL740
 20396 345d 6C000000 		.4byte	.LVL745
 20397 3461 0200     		.2byte	0x2
 20398 3463 30       		.byte	0x30
 20399 3464 9F       		.byte	0x9f
 20400 3465 6C000000 		.4byte	.LVL745
 20401 3469 7A000000 		.4byte	.LVL746
 20402 346d 0100     		.2byte	0x1
 20403 346f 5A       		.byte	0x5a
 20404 3470 82000000 		.4byte	.LVL747
 20405 3474 84000000 		.4byte	.LVL748
 20406 3478 0100     		.2byte	0x1
 20407 347a 50       		.byte	0x50
 20408 347b 8E000000 		.4byte	.LVL749
 20409 347f 9A000000 		.4byte	.LVL751
 20410 3483 0200     		.2byte	0x2
 20411 3485 30       		.byte	0x30
 20412 3486 9F       		.byte	0x9f
 20413 3487 9A000000 		.4byte	.LVL751
ARM GAS  /tmp/ccZHgRNF.s 			page 360


 20414 348b AA000000 		.4byte	.LVL754
 20415 348f 0100     		.2byte	0x1
 20416 3491 50       		.byte	0x50
 20417 3492 AA000000 		.4byte	.LVL754
 20418 3496 BE000000 		.4byte	.LVL759
 20419 349a 0200     		.2byte	0x2
 20420 349c 30       		.byte	0x30
 20421 349d 9F       		.byte	0x9f
 20422 349e BE000000 		.4byte	.LVL759
 20423 34a2 C6000000 		.4byte	.LVL760
 20424 34a6 0100     		.2byte	0x1
 20425 34a8 50       		.byte	0x50
 20426 34a9 CC000000 		.4byte	.LVL761
 20427 34ad D6000000 		.4byte	.LVL763
 20428 34b1 0100     		.2byte	0x1
 20429 34b3 50       		.byte	0x50
 20430 34b4 00000000 		.4byte	0
 20431 34b8 00000000 		.4byte	0
 20432              	.LLST268:
 20433 34bc 2E000000 		.4byte	.LVL737
 20434 34c0 3E000000 		.4byte	.LVL740
 20435 34c4 0200     		.2byte	0x2
 20436 34c6 30       		.byte	0x30
 20437 34c7 9F       		.byte	0x9f
 20438 34c8 3E000000 		.4byte	.LVL740
 20439 34cc 7A000000 		.4byte	.LVL746
 20440 34d0 0100     		.2byte	0x1
 20441 34d2 56       		.byte	0x56
 20442 34d3 8E000000 		.4byte	.LVL749
 20443 34d7 BE000000 		.4byte	.LVL759
 20444 34db 0100     		.2byte	0x1
 20445 34dd 56       		.byte	0x56
 20446 34de BE000000 		.4byte	.LVL759
 20447 34e2 C6000000 		.4byte	.LVL760
 20448 34e6 0200     		.2byte	0x2
 20449 34e8 30       		.byte	0x30
 20450 34e9 9F       		.byte	0x9f
 20451 34ea CC000000 		.4byte	.LVL761
 20452 34ee D0000000 		.4byte	.LVL762
 20453 34f2 0100     		.2byte	0x1
 20454 34f4 56       		.byte	0x56
 20455 34f5 D0000000 		.4byte	.LVL762
 20456 34f9 D6000000 		.4byte	.LVL763
 20457 34fd 0200     		.2byte	0x2
 20458 34ff 30       		.byte	0x30
 20459 3500 9F       		.byte	0x9f
 20460 3501 D6000000 		.4byte	.LVL763
 20461 3505 FE000000 		.4byte	.LFE280
 20462 3509 0100     		.2byte	0x1
 20463 350b 56       		.byte	0x56
 20464 350c 00000000 		.4byte	0
 20465 3510 00000000 		.4byte	0
 20466              	.LLST269:
 20467 3514 34000000 		.4byte	.LVL738
 20468 3518 68000000 		.4byte	.LVL743
 20469 351c 0100     		.2byte	0x1
 20470 351e 54       		.byte	0x54
ARM GAS  /tmp/ccZHgRNF.s 			page 361


 20471 351f 68000000 		.4byte	.LVL743
 20472 3523 6A000000 		.4byte	.LVL744
 20473 3527 0300     		.2byte	0x3
 20474 3529 74       		.byte	0x74
 20475 352a 7F       		.sleb128 -1
 20476 352b 9F       		.byte	0x9f
 20477 352c 6A000000 		.4byte	.LVL744
 20478 3530 6C000000 		.4byte	.LVL745
 20479 3534 0100     		.2byte	0x1
 20480 3536 54       		.byte	0x54
 20481 3537 8E000000 		.4byte	.LVL749
 20482 353b BE000000 		.4byte	.LVL759
 20483 353f 0100     		.2byte	0x1
 20484 3541 54       		.byte	0x54
 20485 3542 BE000000 		.4byte	.LVL759
 20486 3546 C6000000 		.4byte	.LVL760
 20487 354a 0200     		.2byte	0x2
 20488 354c 32       		.byte	0x32
 20489 354d 9F       		.byte	0x9f
 20490 354e CC000000 		.4byte	.LVL761
 20491 3552 D0000000 		.4byte	.LVL762
 20492 3556 0100     		.2byte	0x1
 20493 3558 54       		.byte	0x54
 20494 3559 D0000000 		.4byte	.LVL762
 20495 355d D6000000 		.4byte	.LVL763
 20496 3561 0200     		.2byte	0x2
 20497 3563 32       		.byte	0x32
 20498 3564 9F       		.byte	0x9f
 20499 3565 D6000000 		.4byte	.LVL763
 20500 3569 FE000000 		.4byte	.LFE280
 20501 356d 0100     		.2byte	0x1
 20502 356f 54       		.byte	0x54
 20503 3570 00000000 		.4byte	0
 20504 3574 00000000 		.4byte	0
 20505              	.LLST270:
 20506 3578 38000000 		.4byte	.LVL739
 20507 357c 6C000000 		.4byte	.LVL745
 20508 3580 0100     		.2byte	0x1
 20509 3582 5C       		.byte	0x5c
 20510 3583 8E000000 		.4byte	.LVL749
 20511 3587 96000000 		.4byte	.LVL750
 20512 358b 0100     		.2byte	0x1
 20513 358d 5C       		.byte	0x5c
 20514 358e 96000000 		.4byte	.LVL750
 20515 3592 AC000000 		.4byte	.LVL755
 20516 3596 0100     		.2byte	0x1
 20517 3598 57       		.byte	0x57
 20518 3599 AC000000 		.4byte	.LVL755
 20519 359d BE000000 		.4byte	.LVL759
 20520 35a1 0100     		.2byte	0x1
 20521 35a3 5C       		.byte	0x5c
 20522 35a4 CC000000 		.4byte	.LVL761
 20523 35a8 D0000000 		.4byte	.LVL762
 20524 35ac 0100     		.2byte	0x1
 20525 35ae 57       		.byte	0x57
 20526 35af 00000000 		.4byte	0
 20527 35b3 00000000 		.4byte	0
ARM GAS  /tmp/ccZHgRNF.s 			page 362


 20528              	.LLST271:
 20529 35b7 38000000 		.4byte	.LVL739
 20530 35bb 3E000000 		.4byte	.LVL740
 20531 35bf 0200     		.2byte	0x2
 20532 35c1 30       		.byte	0x30
 20533 35c2 9F       		.byte	0x9f
 20534 35c3 3E000000 		.4byte	.LVL740
 20535 35c7 6C000000 		.4byte	.LVL745
 20536 35cb 0100     		.2byte	0x1
 20537 35cd 52       		.byte	0x52
 20538 35ce 8E000000 		.4byte	.LVL749
 20539 35d2 A6000000 		.4byte	.LVL753
 20540 35d6 0200     		.2byte	0x2
 20541 35d8 30       		.byte	0x30
 20542 35d9 9F       		.byte	0x9f
 20543 35da A6000000 		.4byte	.LVL753
 20544 35de AA000000 		.4byte	.LVL754
 20545 35e2 0400     		.2byte	0x4
 20546 35e4 0A       		.byte	0xa
 20547 35e5 0002     		.2byte	0x200
 20548 35e7 9F       		.byte	0x9f
 20549 35e8 AA000000 		.4byte	.LVL754
 20550 35ec BE000000 		.4byte	.LVL759
 20551 35f0 0100     		.2byte	0x1
 20552 35f2 52       		.byte	0x52
 20553 35f3 CC000000 		.4byte	.LVL761
 20554 35f7 D0000000 		.4byte	.LVL762
 20555 35fb 0200     		.2byte	0x2
 20556 35fd 30       		.byte	0x30
 20557 35fe 9F       		.byte	0x9f
 20558 35ff 00000000 		.4byte	0
 20559 3603 00000000 		.4byte	0
 20560              	.LLST272:
 20561 3607 2E000000 		.4byte	.LVL737
 20562 360b 3E000000 		.4byte	.LVL740
 20563 360f 0200     		.2byte	0x2
 20564 3611 75       		.byte	0x75
 20565 3612 00       		.sleb128 0
 20566 3613 3E000000 		.4byte	.LVL740
 20567 3617 7A000000 		.4byte	.LVL746
 20568 361b 0100     		.2byte	0x1
 20569 361d 59       		.byte	0x59
 20570 361e 8E000000 		.4byte	.LVL749
 20571 3622 BE000000 		.4byte	.LVL759
 20572 3626 0100     		.2byte	0x1
 20573 3628 59       		.byte	0x59
 20574 3629 BE000000 		.4byte	.LVL759
 20575 362d C6000000 		.4byte	.LVL760
 20576 3631 0200     		.2byte	0x2
 20577 3633 75       		.byte	0x75
 20578 3634 00       		.sleb128 0
 20579 3635 C6000000 		.4byte	.LVL760
 20580 3639 D0000000 		.4byte	.LVL762
 20581 363d 0100     		.2byte	0x1
 20582 363f 59       		.byte	0x59
 20583 3640 D0000000 		.4byte	.LVL762
 20584 3644 D6000000 		.4byte	.LVL763
ARM GAS  /tmp/ccZHgRNF.s 			page 363


 20585 3648 0200     		.2byte	0x2
 20586 364a 75       		.byte	0x75
 20587 364b 00       		.sleb128 0
 20588 364c D6000000 		.4byte	.LVL763
 20589 3650 FE000000 		.4byte	.LFE280
 20590 3654 0100     		.2byte	0x1
 20591 3656 59       		.byte	0x59
 20592 3657 00000000 		.4byte	0
 20593 365b 00000000 		.4byte	0
 20594              	.LLST273:
 20595 365f 38000000 		.4byte	.LVL739
 20596 3663 3E000000 		.4byte	.LVL740
 20597 3667 0200     		.2byte	0x2
 20598 3669 30       		.byte	0x30
 20599 366a 9F       		.byte	0x9f
 20600 366b 64000000 		.4byte	.LVL741
 20601 366f 66000000 		.4byte	.LVL742
 20602 3673 0300     		.2byte	0x3
 20603 3675 73       		.byte	0x73
 20604 3676 04       		.sleb128 4
 20605 3677 9F       		.byte	0x9f
 20606 3678 66000000 		.4byte	.LVL742
 20607 367c 6C000000 		.4byte	.LVL745
 20608 3680 0100     		.2byte	0x1
 20609 3682 53       		.byte	0x53
 20610 3683 9C000000 		.4byte	.LVL752
 20611 3687 A6000000 		.4byte	.LVL753
 20612 368b 0300     		.2byte	0x3
 20613 368d 75       		.byte	0x75
 20614 368e 30       		.sleb128 48
 20615 368f 9F       		.byte	0x9f
 20616 3690 A6000000 		.4byte	.LVL753
 20617 3694 AC000000 		.4byte	.LVL755
 20618 3698 0100     		.2byte	0x1
 20619 369a 53       		.byte	0x53
 20620 369b B8000000 		.4byte	.LVL756
 20621 369f BA000000 		.4byte	.LVL757
 20622 36a3 0300     		.2byte	0x3
 20623 36a5 73       		.byte	0x73
 20624 36a6 02       		.sleb128 2
 20625 36a7 9F       		.byte	0x9f
 20626 36a8 BA000000 		.4byte	.LVL757
 20627 36ac BE000000 		.4byte	.LVL759
 20628 36b0 0100     		.2byte	0x1
 20629 36b2 53       		.byte	0x53
 20630 36b3 00000000 		.4byte	0
 20631 36b7 00000000 		.4byte	0
 20632              	.LLST274:
 20633 36bb BE000000 		.4byte	.LVL759
 20634 36bf C6000000 		.4byte	.LVL760
 20635 36c3 0200     		.2byte	0x2
 20636 36c5 32       		.byte	0x32
 20637 36c6 9F       		.byte	0x9f
 20638 36c7 D0000000 		.4byte	.LVL762
 20639 36cb D6000000 		.4byte	.LVL763
 20640 36cf 0200     		.2byte	0x2
 20641 36d1 32       		.byte	0x32
ARM GAS  /tmp/ccZHgRNF.s 			page 364


 20642 36d2 9F       		.byte	0x9f
 20643 36d3 D6000000 		.4byte	.LVL763
 20644 36d7 DE000000 		.4byte	.LVL764
 20645 36db 0300     		.2byte	0x3
 20646 36dd 74       		.byte	0x74
 20647 36de 7F       		.sleb128 -1
 20648 36df 9F       		.byte	0x9f
 20649 36e0 DE000000 		.4byte	.LVL764
 20650 36e4 F6000000 		.4byte	.LVL767
 20651 36e8 0100     		.2byte	0x1
 20652 36ea 54       		.byte	0x54
 20653 36eb F6000000 		.4byte	.LVL767
 20654 36ef FE000000 		.4byte	.LFE280
 20655 36f3 0300     		.2byte	0x3
 20656 36f5 74       		.byte	0x74
 20657 36f6 7F       		.sleb128 -1
 20658 36f7 9F       		.byte	0x9f
 20659 36f8 00000000 		.4byte	0
 20660 36fc 00000000 		.4byte	0
 20661              	.LLST275:
 20662 3700 BE000000 		.4byte	.LVL759
 20663 3704 C6000000 		.4byte	.LVL760
 20664 3708 0100     		.2byte	0x1
 20665 370a 55       		.byte	0x55
 20666 370b D0000000 		.4byte	.LVL762
 20667 370f DE000000 		.4byte	.LVL764
 20668 3713 0100     		.2byte	0x1
 20669 3715 55       		.byte	0x55
 20670 3716 E8000000 		.4byte	.LVL765
 20671 371a FE000000 		.4byte	.LFE280
 20672 371e 0100     		.2byte	0x1
 20673 3720 55       		.byte	0x55
 20674 3721 00000000 		.4byte	0
 20675 3725 00000000 		.4byte	0
 20676              	.LLST276:
 20677 3729 00000000 		.4byte	.LVL768
 20678 372d 07000000 		.4byte	.LVL769-1
 20679 3731 0100     		.2byte	0x1
 20680 3733 50       		.byte	0x50
 20681 3734 07000000 		.4byte	.LVL769-1
 20682 3738 D4000000 		.4byte	.LFE281
 20683 373c 0100     		.2byte	0x1
 20684 373e 55       		.byte	0x55
 20685 373f 00000000 		.4byte	0
 20686 3743 00000000 		.4byte	0
 20687              	.LLST277:
 20688 3747 08000000 		.4byte	.LVL769
 20689 374b 12000000 		.4byte	.LVL770
 20690 374f 0100     		.2byte	0x1
 20691 3751 50       		.byte	0x50
 20692 3752 16000000 		.4byte	.LVL771
 20693 3756 1C000000 		.4byte	.LVL772
 20694 375a 0100     		.2byte	0x1
 20695 375c 50       		.byte	0x50
 20696 375d 1C000000 		.4byte	.LVL772
 20697 3761 3E000000 		.4byte	.LVL774
 20698 3765 0200     		.2byte	0x2
ARM GAS  /tmp/ccZHgRNF.s 			page 365


 20699 3767 30       		.byte	0x30
 20700 3768 9F       		.byte	0x9f
 20701 3769 42000000 		.4byte	.LVL775
 20702 376d 44000000 		.4byte	.LVL776
 20703 3771 0100     		.2byte	0x1
 20704 3773 50       		.byte	0x50
 20705 3774 66000000 		.4byte	.LVL778
 20706 3778 68000000 		.4byte	.LVL779
 20707 377c 0100     		.2byte	0x1
 20708 377e 50       		.byte	0x50
 20709 377f 68000000 		.4byte	.LVL779
 20710 3783 6C000000 		.4byte	.LVL780
 20711 3787 0200     		.2byte	0x2
 20712 3789 37       		.byte	0x37
 20713 378a 9F       		.byte	0x9f
 20714 378b 6C000000 		.4byte	.LVL780
 20715 378f 7A000000 		.4byte	.LVL782
 20716 3793 0200     		.2byte	0x2
 20717 3795 30       		.byte	0x30
 20718 3796 9F       		.byte	0x9f
 20719 3797 7A000000 		.4byte	.LVL782
 20720 379b 7C000000 		.4byte	.LVL783
 20721 379f 0200     		.2byte	0x2
 20722 37a1 32       		.byte	0x32
 20723 37a2 9F       		.byte	0x9f
 20724 37a3 7C000000 		.4byte	.LVL783
 20725 37a7 7E000000 		.4byte	.LVL784
 20726 37ab 0100     		.2byte	0x1
 20727 37ad 54       		.byte	0x54
 20728 37ae 84000000 		.4byte	.LVL786
 20729 37b2 88000000 		.4byte	.LVL787
 20730 37b6 0100     		.2byte	0x1
 20731 37b8 54       		.byte	0x54
 20732 37b9 8A000000 		.4byte	.LVL788
 20733 37bd 8E000000 		.4byte	.LVL789
 20734 37c1 0100     		.2byte	0x1
 20735 37c3 50       		.byte	0x50
 20736 37c4 8E000000 		.4byte	.LVL789
 20737 37c8 BC000000 		.4byte	.LVL794
 20738 37cc 0200     		.2byte	0x2
 20739 37ce 30       		.byte	0x30
 20740 37cf 9F       		.byte	0x9f
 20741 37d0 00000000 		.4byte	0
 20742 37d4 00000000 		.4byte	0
 20743              	.LLST278:
 20744 37d8 32000000 		.4byte	.LVL773
 20745 37dc 3E000000 		.4byte	.LVL774
 20746 37e0 0100     		.2byte	0x1
 20747 37e2 51       		.byte	0x51
 20748 37e3 8E000000 		.4byte	.LVL789
 20749 37e7 91000000 		.4byte	.LVL790-1
 20750 37eb 0100     		.2byte	0x1
 20751 37ed 51       		.byte	0x51
 20752 37ee 00000000 		.4byte	0
 20753 37f2 00000000 		.4byte	0
 20754              	.LLST279:
 20755 37f6 32000000 		.4byte	.LVL773
ARM GAS  /tmp/ccZHgRNF.s 			page 366


 20756 37fa 3E000000 		.4byte	.LVL774
 20757 37fe 0100     		.2byte	0x1
 20758 3800 50       		.byte	0x50
 20759 3801 8E000000 		.4byte	.LVL789
 20760 3805 91000000 		.4byte	.LVL790-1
 20761 3809 0100     		.2byte	0x1
 20762 380b 50       		.byte	0x50
 20763 380c 00000000 		.4byte	0
 20764 3810 00000000 		.4byte	0
 20765              	.LLST280:
 20766 3814 3E000000 		.4byte	.LVL774
 20767 3818 42000000 		.4byte	.LVL775
 20768 381c 0100     		.2byte	0x1
 20769 381e 50       		.byte	0x50
 20770 381f 00000000 		.4byte	0
 20771 3823 00000000 		.4byte	0
 20772              	.LLST281:
 20773 3827 70000000 		.4byte	.LVL781
 20774 382b 7A000000 		.4byte	.LVL782
 20775 382f 0100     		.2byte	0x1
 20776 3831 51       		.byte	0x51
 20777 3832 94000000 		.4byte	.LVL791
 20778 3836 97000000 		.4byte	.LVL792-1
 20779 383a 0100     		.2byte	0x1
 20780 383c 51       		.byte	0x51
 20781 383d 00000000 		.4byte	0
 20782 3841 00000000 		.4byte	0
 20783              	.LLST282:
 20784 3845 70000000 		.4byte	.LVL781
 20785 3849 7A000000 		.4byte	.LVL782
 20786 384d 0100     		.2byte	0x1
 20787 384f 50       		.byte	0x50
 20788 3850 94000000 		.4byte	.LVL791
 20789 3854 97000000 		.4byte	.LVL792-1
 20790 3858 0100     		.2byte	0x1
 20791 385a 50       		.byte	0x50
 20792 385b 00000000 		.4byte	0
 20793 385f 00000000 		.4byte	0
 20794              	.LLST283:
 20795 3863 AC000000 		.4byte	.LVL793
 20796 3867 BB000000 		.4byte	.LVL794-1
 20797 386b 0100     		.2byte	0x1
 20798 386d 51       		.byte	0x51
 20799 386e 00000000 		.4byte	0
 20800 3872 00000000 		.4byte	0
 20801              	.LLST284:
 20802 3876 AC000000 		.4byte	.LVL793
 20803 387a BB000000 		.4byte	.LVL794-1
 20804 387e 0100     		.2byte	0x1
 20805 3880 50       		.byte	0x50
 20806 3881 00000000 		.4byte	0
 20807 3885 00000000 		.4byte	0
 20808              	.LLST285:
 20809 3889 BC000000 		.4byte	.LVL794
 20810 388d C4000000 		.4byte	.LVL795
 20811 3891 0100     		.2byte	0x1
 20812 3893 50       		.byte	0x50
ARM GAS  /tmp/ccZHgRNF.s 			page 367


 20813 3894 00000000 		.4byte	0
 20814 3898 00000000 		.4byte	0
 20815              	.LLST286:
 20816 389c C4000000 		.4byte	.LVL795
 20817 38a0 D1000000 		.4byte	.LVL796-1
 20818 38a4 0100     		.2byte	0x1
 20819 38a6 50       		.byte	0x50
 20820 38a7 00000000 		.4byte	0
 20821 38ab 00000000 		.4byte	0
 20822              	.LLST287:
 20823 38af 00000000 		.4byte	.LVL797
 20824 38b3 0C000000 		.4byte	.LVL798
 20825 38b7 0100     		.2byte	0x1
 20826 38b9 50       		.byte	0x50
 20827 38ba 0C000000 		.4byte	.LVL798
 20828 38be 0F000000 		.4byte	.LVL799-1
 20829 38c2 0200     		.2byte	0x2
 20830 38c4 71       		.byte	0x71
 20831 38c5 00       		.sleb128 0
 20832 38c6 0F000000 		.4byte	.LVL799-1
 20833 38ca CA000000 		.4byte	.LFE282
 20834 38ce 0300     		.2byte	0x3
 20835 38d0 91       		.byte	0x91
 20836 38d1 A47F     		.sleb128 -92
 20837 38d3 00000000 		.4byte	0
 20838 38d7 00000000 		.4byte	0
 20839              	.LLST288:
 20840 38db 10000000 		.4byte	.LVL799
 20841 38df 12000000 		.4byte	.LVL800
 20842 38e3 0100     		.2byte	0x1
 20843 38e5 50       		.byte	0x50
 20844 38e6 16000000 		.4byte	.LVL801
 20845 38ea 1A000000 		.4byte	.LVL802
 20846 38ee 0100     		.2byte	0x1
 20847 38f0 50       		.byte	0x50
 20848 38f1 22000000 		.4byte	.LVL803
 20849 38f5 58000000 		.4byte	.LVL808
 20850 38f9 0100     		.2byte	0x1
 20851 38fb 50       		.byte	0x50
 20852 38fc 72000000 		.4byte	.LVL812
 20853 3900 78000000 		.4byte	.LVL813
 20854 3904 0100     		.2byte	0x1
 20855 3906 50       		.byte	0x50
 20856 3907 7C000000 		.4byte	.LVL814
 20857 390b 82000000 		.4byte	.LVL815
 20858 390f 0100     		.2byte	0x1
 20859 3911 50       		.byte	0x50
 20860 3912 82000000 		.4byte	.LVL815
 20861 3916 88000000 		.4byte	.LVL816
 20862 391a 0200     		.2byte	0x2
 20863 391c 30       		.byte	0x30
 20864 391d 9F       		.byte	0x9f
 20865 391e 88000000 		.4byte	.LVL816
 20866 3922 92000000 		.4byte	.LVL817
 20867 3926 0100     		.2byte	0x1
 20868 3928 50       		.byte	0x50
 20869 3929 9E000000 		.4byte	.LVL819
ARM GAS  /tmp/ccZHgRNF.s 			page 368


 20870 392d B0000000 		.4byte	.LVL821
 20871 3931 0100     		.2byte	0x1
 20872 3933 50       		.byte	0x50
 20873 3934 B6000000 		.4byte	.LVL822
 20874 3938 BA000000 		.4byte	.LVL823
 20875 393c 0100     		.2byte	0x1
 20876 393e 50       		.byte	0x50
 20877 393f C0000000 		.4byte	.LVL824
 20878 3943 C4000000 		.4byte	.LVL826
 20879 3947 0100     		.2byte	0x1
 20880 3949 50       		.byte	0x50
 20881 394a C6000000 		.4byte	.LVL827
 20882 394e C8000000 		.4byte	.LVL828
 20883 3952 0100     		.2byte	0x1
 20884 3954 50       		.byte	0x50
 20885 3955 C8000000 		.4byte	.LVL828
 20886 3959 CA000000 		.4byte	.LFE282
 20887 395d 0200     		.2byte	0x2
 20888 395f 37       		.byte	0x37
 20889 3960 9F       		.byte	0x9f
 20890 3961 00000000 		.4byte	0
 20891 3965 00000000 		.4byte	0
 20892              	.LLST289:
 20893 3969 28000000 		.4byte	.LVL804
 20894 396d 4E000000 		.4byte	.LVL807
 20895 3971 0100     		.2byte	0x1
 20896 3973 53       		.byte	0x53
 20897 3974 4E000000 		.4byte	.LVL807
 20898 3978 71000000 		.4byte	.LVL812-1
 20899 397c 0200     		.2byte	0x2
 20900 397e 91       		.byte	0x91
 20901 397f 4C       		.sleb128 -52
 20902 3980 9E000000 		.4byte	.LVL819
 20903 3984 B0000000 		.4byte	.LVL821
 20904 3988 0100     		.2byte	0x1
 20905 398a 53       		.byte	0x53
 20906 398b C2000000 		.4byte	.LVL825
 20907 398f C6000000 		.4byte	.LVL827
 20908 3993 0100     		.2byte	0x1
 20909 3995 53       		.byte	0x53
 20910 3996 00000000 		.4byte	0
 20911 399a 00000000 		.4byte	0
 20912              	.LLST290:
 20913 399e 38000000 		.4byte	.LVL805
 20914 39a2 71000000 		.4byte	.LVL812-1
 20915 39a6 0300     		.2byte	0x3
 20916 39a8 91       		.byte	0x91
 20917 39a9 B87F     		.sleb128 -72
 20918 39ab 9E000000 		.4byte	.LVL819
 20919 39af B0000000 		.4byte	.LVL821
 20920 39b3 0300     		.2byte	0x3
 20921 39b5 91       		.byte	0x91
 20922 39b6 B87F     		.sleb128 -72
 20923 39b8 00000000 		.4byte	0
 20924 39bc 00000000 		.4byte	0
 20925              	.LLST291:
 20926 39c0 38000000 		.4byte	.LVL805
ARM GAS  /tmp/ccZHgRNF.s 			page 369


 20927 39c4 4E000000 		.4byte	.LVL807
 20928 39c8 0100     		.2byte	0x1
 20929 39ca 53       		.byte	0x53
 20930 39cb 4E000000 		.4byte	.LVL807
 20931 39cf 71000000 		.4byte	.LVL812-1
 20932 39d3 0200     		.2byte	0x2
 20933 39d5 91       		.byte	0x91
 20934 39d6 4C       		.sleb128 -52
 20935 39d7 9E000000 		.4byte	.LVL819
 20936 39db B0000000 		.4byte	.LVL821
 20937 39df 0100     		.2byte	0x1
 20938 39e1 53       		.byte	0x53
 20939 39e2 00000000 		.4byte	0
 20940 39e6 00000000 		.4byte	0
 20941              	.LLST292:
 20942 39ea 46000000 		.4byte	.LVL806
 20943 39ee C2000000 		.4byte	.LVL825
 20944 39f2 0100     		.2byte	0x1
 20945 39f4 55       		.byte	0x55
 20946 39f5 C6000000 		.4byte	.LVL827
 20947 39f9 CA000000 		.4byte	.LFE282
 20948 39fd 0100     		.2byte	0x1
 20949 39ff 55       		.byte	0x55
 20950 3a00 00000000 		.4byte	0
 20951 3a04 00000000 		.4byte	0
 20952              	.LLST293:
 20953 3a08 5C000000 		.4byte	.LVL809
 20954 3a0c 60000000 		.4byte	.LVL810
 20955 3a10 0900     		.2byte	0x9
 20956 3a12 91       		.byte	0x91
 20957 3a13 00       		.sleb128 0
 20958 3a14 74       		.byte	0x74
 20959 3a15 00       		.sleb128 0
 20960 3a16 1C       		.byte	0x1c
 20961 3a17 08       		.byte	0x8
 20962 3a18 2D       		.byte	0x2d
 20963 3a19 1C       		.byte	0x1c
 20964 3a1a 9F       		.byte	0x9f
 20965 3a1b 60000000 		.4byte	.LVL810
 20966 3a1f 64000000 		.4byte	.LVL811
 20967 3a23 0900     		.2byte	0x9
 20968 3a25 91       		.byte	0x91
 20969 3a26 00       		.sleb128 0
 20970 3a27 74       		.byte	0x74
 20971 3a28 00       		.sleb128 0
 20972 3a29 1C       		.byte	0x1c
 20973 3a2a 08       		.byte	0x8
 20974 3a2b 2C       		.byte	0x2c
 20975 3a2c 1C       		.byte	0x1c
 20976 3a2d 9F       		.byte	0x9f
 20977 3a2e 64000000 		.4byte	.LVL811
 20978 3a32 82000000 		.4byte	.LVL815
 20979 3a36 0900     		.2byte	0x9
 20980 3a38 91       		.byte	0x91
 20981 3a39 00       		.sleb128 0
 20982 3a3a 74       		.byte	0x74
 20983 3a3b 00       		.sleb128 0
ARM GAS  /tmp/ccZHgRNF.s 			page 370


 20984 3a3c 1C       		.byte	0x1c
 20985 3a3d 08       		.byte	0x8
 20986 3a3e 2D       		.byte	0x2d
 20987 3a3f 1C       		.byte	0x1c
 20988 3a40 9F       		.byte	0x9f
 20989 3a41 C6000000 		.4byte	.LVL827
 20990 3a45 CA000000 		.4byte	.LFE282
 20991 3a49 0900     		.2byte	0x9
 20992 3a4b 91       		.byte	0x91
 20993 3a4c 00       		.sleb128 0
 20994 3a4d 74       		.byte	0x74
 20995 3a4e 00       		.sleb128 0
 20996 3a4f 1C       		.byte	0x1c
 20997 3a50 08       		.byte	0x8
 20998 3a51 2D       		.byte	0x2d
 20999 3a52 1C       		.byte	0x1c
 21000 3a53 9F       		.byte	0x9f
 21001 3a54 00000000 		.4byte	0
 21002 3a58 00000000 		.4byte	0
 21003              	.LLST294:
 21004 3a5c 5C000000 		.4byte	.LVL809
 21005 3a60 71000000 		.4byte	.LVL812-1
 21006 3a64 0100     		.2byte	0x1
 21007 3a66 53       		.byte	0x53
 21008 3a67 00000000 		.4byte	0
 21009 3a6b 00000000 		.4byte	0
 21010              	.LLST295:
 21011 3a6f 5C000000 		.4byte	.LVL809
 21012 3a73 60000000 		.4byte	.LVL810
 21013 3a77 0100     		.2byte	0x1
 21014 3a79 54       		.byte	0x54
 21015 3a7a 60000000 		.4byte	.LVL810
 21016 3a7e 64000000 		.4byte	.LVL811
 21017 3a82 0300     		.2byte	0x3
 21018 3a84 74       		.byte	0x74
 21019 3a85 7F       		.sleb128 -1
 21020 3a86 9F       		.byte	0x9f
 21021 3a87 64000000 		.4byte	.LVL811
 21022 3a8b 82000000 		.4byte	.LVL815
 21023 3a8f 0100     		.2byte	0x1
 21024 3a91 54       		.byte	0x54
 21025 3a92 C6000000 		.4byte	.LVL827
 21026 3a96 CA000000 		.4byte	.LFE282
 21027 3a9a 0100     		.2byte	0x1
 21028 3a9c 54       		.byte	0x54
 21029 3a9d 00000000 		.4byte	0
 21030 3aa1 00000000 		.4byte	0
 21031              	.LLST296:
 21032 3aa5 92000000 		.4byte	.LVL817
 21033 3aa9 9A000000 		.4byte	.LVL818
 21034 3aad 0100     		.2byte	0x1
 21035 3aaf 55       		.byte	0x55
 21036 3ab0 B0000000 		.4byte	.LVL821
 21037 3ab4 BA000000 		.4byte	.LVL823
 21038 3ab8 0100     		.2byte	0x1
 21039 3aba 55       		.byte	0x55
 21040 3abb 00000000 		.4byte	0
ARM GAS  /tmp/ccZHgRNF.s 			page 371


 21041 3abf 00000000 		.4byte	0
 21042              	.LLST297:
 21043 3ac3 92000000 		.4byte	.LVL817
 21044 3ac7 9A000000 		.4byte	.LVL818
 21045 3acb 0100     		.2byte	0x1
 21046 3acd 50       		.byte	0x50
 21047 3ace B0000000 		.4byte	.LVL821
 21048 3ad2 B5000000 		.4byte	.LVL822-1
 21049 3ad6 0100     		.2byte	0x1
 21050 3ad8 50       		.byte	0x50
 21051 3ad9 00000000 		.4byte	0
 21052 3add 00000000 		.4byte	0
 21053              	.LLST298:
 21054 3ae1 00000000 		.4byte	.LVL829
 21055 3ae5 0B000000 		.4byte	.LVL830-1
 21056 3ae9 0100     		.2byte	0x1
 21057 3aeb 50       		.byte	0x50
 21058 3aec 0B000000 		.4byte	.LVL830-1
 21059 3af0 12000000 		.4byte	.LVL832
 21060 3af4 0300     		.2byte	0x3
 21061 3af6 91       		.byte	0x91
 21062 3af7 AC7F     		.sleb128 -84
 21063 3af9 12000000 		.4byte	.LVL832
 21064 3afd 17000000 		.4byte	.LVL834-1
 21065 3b01 0200     		.2byte	0x2
 21066 3b03 71       		.byte	0x71
 21067 3b04 00       		.sleb128 0
 21068 3b05 17000000 		.4byte	.LVL834-1
 21069 3b09 08020000 		.4byte	.LFE283
 21070 3b0d 0300     		.2byte	0x3
 21071 3b0f 91       		.byte	0x91
 21072 3b10 AC7F     		.sleb128 -84
 21073 3b12 00000000 		.4byte	0
 21074 3b16 00000000 		.4byte	0
 21075              	.LLST299:
 21076 3b1a 1C000000 		.4byte	.LVL835
 21077 3b1e 1E000000 		.4byte	.LVL836
 21078 3b22 0100     		.2byte	0x1
 21079 3b24 50       		.byte	0x50
 21080 3b25 26000000 		.4byte	.LVL837
 21081 3b29 2A000000 		.4byte	.LVL838
 21082 3b2d 0100     		.2byte	0x1
 21083 3b2f 50       		.byte	0x50
 21084 3b30 2A000000 		.4byte	.LVL838
 21085 3b34 31000000 		.4byte	.LVL839-1
 21086 3b38 0100     		.2byte	0x1
 21087 3b3a 52       		.byte	0x52
 21088 3b3b 31000000 		.4byte	.LVL839-1
 21089 3b3f 32000000 		.4byte	.LVL839
 21090 3b43 0100     		.2byte	0x1
 21091 3b45 54       		.byte	0x54
 21092 3b46 32000000 		.4byte	.LVL839
 21093 3b4a 3E000000 		.4byte	.LVL840
 21094 3b4e 0100     		.2byte	0x1
 21095 3b50 50       		.byte	0x50
 21096 3b51 3E000000 		.4byte	.LVL840
 21097 3b55 41000000 		.4byte	.LVL841-1
ARM GAS  /tmp/ccZHgRNF.s 			page 372


 21098 3b59 0100     		.2byte	0x1
 21099 3b5b 52       		.byte	0x52
 21100 3b5c 42000000 		.4byte	.LVL841
 21101 3b60 48000000 		.4byte	.LVL842
 21102 3b64 0200     		.2byte	0x2
 21103 3b66 30       		.byte	0x30
 21104 3b67 9F       		.byte	0x9f
 21105 3b68 48000000 		.4byte	.LVL842
 21106 3b6c 5B000000 		.4byte	.LVL844-1
 21107 3b70 0100     		.2byte	0x1
 21108 3b72 52       		.byte	0x52
 21109 3b73 60000000 		.4byte	.LVL845
 21110 3b77 62000000 		.4byte	.LVL846
 21111 3b7b 0100     		.2byte	0x1
 21112 3b7d 50       		.byte	0x50
 21113 3b7e 62000000 		.4byte	.LVL846
 21114 3b82 6A000000 		.4byte	.LVL847
 21115 3b86 0100     		.2byte	0x1
 21116 3b88 52       		.byte	0x52
 21117 3b89 6A000000 		.4byte	.LVL847
 21118 3b8d 84000000 		.4byte	.LVL849
 21119 3b91 0200     		.2byte	0x2
 21120 3b93 30       		.byte	0x30
 21121 3b94 9F       		.byte	0x9f
 21122 3b95 6C010000 		.4byte	.LVL867
 21123 3b99 88010000 		.4byte	.LVL872
 21124 3b9d 0200     		.2byte	0x2
 21125 3b9f 30       		.byte	0x30
 21126 3ba0 9F       		.byte	0x9f
 21127 3ba1 94010000 		.4byte	.LVL876
 21128 3ba5 9E010000 		.4byte	.LVL877
 21129 3ba9 0200     		.2byte	0x2
 21130 3bab 30       		.byte	0x30
 21131 3bac 9F       		.byte	0x9f
 21132 3bad A8010000 		.4byte	.LVL879
 21133 3bb1 CE010000 		.4byte	.LVL883
 21134 3bb5 0100     		.2byte	0x1
 21135 3bb7 50       		.byte	0x50
 21136 3bb8 E4010000 		.4byte	.LVL885
 21137 3bbc E6010000 		.4byte	.LVL886
 21138 3bc0 0100     		.2byte	0x1
 21139 3bc2 50       		.byte	0x50
 21140 3bc3 F6010000 		.4byte	.LVL888
 21141 3bc7 FC010000 		.4byte	.LVL890
 21142 3bcb 0200     		.2byte	0x2
 21143 3bcd 30       		.byte	0x30
 21144 3bce 9F       		.byte	0x9f
 21145 3bcf FC010000 		.4byte	.LVL890
 21146 3bd3 08020000 		.4byte	.LFE283
 21147 3bd7 0100     		.2byte	0x1
 21148 3bd9 50       		.byte	0x50
 21149 3bda 00000000 		.4byte	0
 21150 3bde 00000000 		.4byte	0
 21151              	.LLST300:
 21152 3be2 9E000000 		.4byte	.LVL851
 21153 3be6 B2010000 		.4byte	.LVL880
 21154 3bea 0100     		.2byte	0x1
ARM GAS  /tmp/ccZHgRNF.s 			page 373


 21155 3bec 54       		.byte	0x54
 21156 3bed B2010000 		.4byte	.LVL880
 21157 3bf1 E1010000 		.4byte	.LVL884-1
 21158 3bf5 0100     		.2byte	0x1
 21159 3bf7 53       		.byte	0x53
 21160 3bf8 E6010000 		.4byte	.LVL886
 21161 3bfc F6010000 		.4byte	.LVL888
 21162 3c00 0100     		.2byte	0x1
 21163 3c02 54       		.byte	0x54
 21164 3c03 00000000 		.4byte	0
 21165 3c07 00000000 		.4byte	0
 21166              	.LLST301:
 21167 3c0b 6C010000 		.4byte	.LVL867
 21168 3c0f 70010000 		.4byte	.LVL868
 21169 3c13 0100     		.2byte	0x1
 21170 3c15 51       		.byte	0x51
 21171 3c16 70010000 		.4byte	.LVL868
 21172 3c1a 7C010000 		.4byte	.LVL870
 21173 3c1e 0300     		.2byte	0x3
 21174 3c20 71       		.byte	0x71
 21175 3c21 01       		.sleb128 1
 21176 3c22 9F       		.byte	0x9f
 21177 3c23 00000000 		.4byte	0
 21178 3c27 00000000 		.4byte	0
 21179              	.LLST302:
 21180 3c2b 6C010000 		.4byte	.LVL867
 21181 3c2f 7C010000 		.4byte	.LVL870
 21182 3c33 0200     		.2byte	0x2
 21183 3c35 30       		.byte	0x30
 21184 3c36 9F       		.byte	0x9f
 21185 3c37 84010000 		.4byte	.LVL871
 21186 3c3b A2010000 		.4byte	.LVL878
 21187 3c3f 0100     		.2byte	0x1
 21188 3c41 5A       		.byte	0x5a
 21189 3c42 00000000 		.4byte	0
 21190 3c46 00000000 		.4byte	0
 21191              	.LLST303:
 21192 3c4a 42000000 		.4byte	.LVL841
 21193 3c4e 48000000 		.4byte	.LVL842
 21194 3c52 0100     		.2byte	0x1
 21195 3c54 50       		.byte	0x50
 21196 3c55 48000000 		.4byte	.LVL842
 21197 3c59 60000000 		.4byte	.LVL845
 21198 3c5d 0100     		.2byte	0x1
 21199 3c5f 55       		.byte	0x55
 21200 3c60 6A000000 		.4byte	.LVL847
 21201 3c64 84000000 		.4byte	.LVL849
 21202 3c68 0100     		.2byte	0x1
 21203 3c6a 50       		.byte	0x50
 21204 3c6b 84000000 		.4byte	.LVL849
 21205 3c6f F6010000 		.4byte	.LVL888
 21206 3c73 0100     		.2byte	0x1
 21207 3c75 55       		.byte	0x55
 21208 3c76 F6010000 		.4byte	.LVL888
 21209 3c7a F8010000 		.4byte	.LVL889
 21210 3c7e 0100     		.2byte	0x1
 21211 3c80 50       		.byte	0x50
ARM GAS  /tmp/ccZHgRNF.s 			page 374


 21212 3c81 F8010000 		.4byte	.LVL889
 21213 3c85 08020000 		.4byte	.LFE283
 21214 3c89 0100     		.2byte	0x1
 21215 3c8b 55       		.byte	0x55
 21216 3c8c 00000000 		.4byte	0
 21217 3c90 00000000 		.4byte	0
 21218              	.LLST304:
 21219 3c94 46010000 		.4byte	.LVL865
 21220 3c98 5A010000 		.4byte	.LVL866
 21221 3c9c 0100     		.2byte	0x1
 21222 3c9e 57       		.byte	0x57
 21223 3c9f E6010000 		.4byte	.LVL886
 21224 3ca3 F2010000 		.4byte	.LVL887
 21225 3ca7 0100     		.2byte	0x1
 21226 3ca9 57       		.byte	0x57
 21227 3caa F2010000 		.4byte	.LVL887
 21228 3cae F6010000 		.4byte	.LVL888
 21229 3cb2 0200     		.2byte	0x2
 21230 3cb4 91       		.byte	0x91
 21231 3cb5 44       		.sleb128 -60
 21232 3cb6 00000000 		.4byte	0
 21233 3cba 00000000 		.4byte	0
 21234              	.LLST305:
 21235 3cbe 10000000 		.4byte	.LVL831
 21236 3cc2 14000000 		.4byte	.LVL833
 21237 3cc6 0100     		.2byte	0x1
 21238 3cc8 50       		.byte	0x50
 21239 3cc9 14000000 		.4byte	.LVL833
 21240 3ccd 1E000000 		.4byte	.LVL836
 21241 3cd1 0100     		.2byte	0x1
 21242 3cd3 58       		.byte	0x58
 21243 3cd4 26000000 		.4byte	.LVL837
 21244 3cd8 48000000 		.4byte	.LVL842
 21245 3cdc 0100     		.2byte	0x1
 21246 3cde 58       		.byte	0x58
 21247 3cdf 60000000 		.4byte	.LVL845
 21248 3ce3 08010000 		.4byte	.LVL859
 21249 3ce7 0100     		.2byte	0x1
 21250 3ce9 58       		.byte	0x58
 21251 3cea F6010000 		.4byte	.LVL888
 21252 3cee 08020000 		.4byte	.LFE283
 21253 3cf2 0100     		.2byte	0x1
 21254 3cf4 58       		.byte	0x58
 21255 3cf5 00000000 		.4byte	0
 21256 3cf9 00000000 		.4byte	0
 21257              	.LLST306:
 21258 3cfd 4C000000 		.4byte	.LVL843
 21259 3d01 60000000 		.4byte	.LVL845
 21260 3d05 0100     		.2byte	0x1
 21261 3d07 55       		.byte	0x55
 21262 3d08 00000000 		.4byte	0
 21263 3d0c 00000000 		.4byte	0
 21264              	.LLST307:
 21265 3d10 4C000000 		.4byte	.LVL843
 21266 3d14 5B000000 		.4byte	.LVL844-1
 21267 3d18 0100     		.2byte	0x1
 21268 3d1a 50       		.byte	0x50
ARM GAS  /tmp/ccZHgRNF.s 			page 375


 21269 3d1b 00000000 		.4byte	0
 21270 3d1f 00000000 		.4byte	0
 21271              	.LLST308:
 21272 3d23 7C000000 		.4byte	.LVL848
 21273 3d27 84000000 		.4byte	.LVL849
 21274 3d2b 0100     		.2byte	0x1
 21275 3d2d 56       		.byte	0x56
 21276 3d2e F6010000 		.4byte	.LVL888
 21277 3d32 06020000 		.4byte	.LVL891
 21278 3d36 0100     		.2byte	0x1
 21279 3d38 56       		.byte	0x56
 21280 3d39 00000000 		.4byte	0
 21281 3d3d 00000000 		.4byte	0
 21282              	.LLST309:
 21283 3d41 84000000 		.4byte	.LVL849
 21284 3d45 88000000 		.4byte	.LVL850
 21285 3d49 0100     		.2byte	0x1
 21286 3d4b 55       		.byte	0x55
 21287 3d4c 88000000 		.4byte	.LVL850
 21288 3d50 C2000000 		.4byte	.LVL858
 21289 3d54 0100     		.2byte	0x1
 21290 3d56 53       		.byte	0x53
 21291 3d57 C2000000 		.4byte	.LVL858
 21292 3d5b F6010000 		.4byte	.LVL888
 21293 3d5f 0300     		.2byte	0x3
 21294 3d61 75       		.byte	0x75
 21295 3d62 7E       		.sleb128 -2
 21296 3d63 9F       		.byte	0x9f
 21297 3d64 00000000 		.4byte	0
 21298 3d68 00000000 		.4byte	0
 21299              	.LLST310:
 21300 3d6c 84000000 		.4byte	.LVL849
 21301 3d70 78010000 		.4byte	.LVL869
 21302 3d74 0100     		.2byte	0x1
 21303 3d76 56       		.byte	0x56
 21304 3d77 78010000 		.4byte	.LVL869
 21305 3d7b E6010000 		.4byte	.LVL886
 21306 3d7f 0400     		.2byte	0x4
 21307 3d81 79       		.byte	0x79
 21308 3d82 D07B     		.sleb128 -560
 21309 3d84 9F       		.byte	0x9f
 21310 3d85 E6010000 		.4byte	.LVL886
 21311 3d89 F6010000 		.4byte	.LVL888
 21312 3d8d 0100     		.2byte	0x1
 21313 3d8f 56       		.byte	0x56
 21314 3d90 00000000 		.4byte	0
 21315 3d94 00000000 		.4byte	0
 21316              	.LLST311:
 21317 3d98 9E000000 		.4byte	.LVL851
 21318 3d9c A6000000 		.4byte	.LVL852
 21319 3da0 0400     		.2byte	0x4
 21320 3da2 0A       		.byte	0xa
 21321 3da3 FF01     		.2byte	0x1ff
 21322 3da5 9F       		.byte	0x9f
 21323 3da6 00000000 		.4byte	0
 21324 3daa 00000000 		.4byte	0
 21325              	.LLST312:
ARM GAS  /tmp/ccZHgRNF.s 			page 376


 21326 3dae 9E000000 		.4byte	.LVL851
 21327 3db2 F6010000 		.4byte	.LVL888
 21328 3db6 0200     		.2byte	0x2
 21329 3db8 30       		.byte	0x30
 21330 3db9 9F       		.byte	0x9f
 21331 3dba 00000000 		.4byte	0
 21332 3dbe 00000000 		.4byte	0
 21333              	.LLST313:
 21334 3dc2 9E000000 		.4byte	.LVL851
 21335 3dc6 B4010000 		.4byte	.LVL881
 21336 3dca 0100     		.2byte	0x1
 21337 3dcc 54       		.byte	0x54
 21338 3dcd B4010000 		.4byte	.LVL881
 21339 3dd1 E6010000 		.4byte	.LVL886
 21340 3dd5 0400     		.2byte	0x4
 21341 3dd7 79       		.byte	0x79
 21342 3dd8 807C     		.sleb128 -512
 21343 3dda 9F       		.byte	0x9f
 21344 3ddb E6010000 		.4byte	.LVL886
 21345 3ddf F6010000 		.4byte	.LVL888
 21346 3de3 0100     		.2byte	0x1
 21347 3de5 54       		.byte	0x54
 21348 3de6 00000000 		.4byte	0
 21349 3dea 00000000 		.4byte	0
 21350              	.LLST314:
 21351 3dee 9E000000 		.4byte	.LVL851
 21352 3df2 A6000000 		.4byte	.LVL852
 21353 3df6 0100     		.2byte	0x1
 21354 3df8 54       		.byte	0x54
 21355 3df9 A6000000 		.4byte	.LVL852
 21356 3dfd B4000000 		.4byte	.LVL854
 21357 3e01 0100     		.2byte	0x1
 21358 3e03 51       		.byte	0x51
 21359 3e04 00000000 		.4byte	0
 21360 3e08 00000000 		.4byte	0
 21361              	.LLST315:
 21362 3e0c B6000000 		.4byte	.LVL855
 21363 3e10 C0000000 		.4byte	.LVL857
 21364 3e14 0100     		.2byte	0x1
 21365 3e16 51       		.byte	0x51
 21366 3e17 00000000 		.4byte	0
 21367 3e1b 00000000 		.4byte	0
 21368              	.LLST316:
 21369 3e1f 1E010000 		.4byte	.LVL860
 21370 3e23 F6010000 		.4byte	.LVL888
 21371 3e27 0100     		.2byte	0x1
 21372 3e29 55       		.byte	0x55
 21373 3e2a 00000000 		.4byte	0
 21374 3e2e 00000000 		.4byte	0
 21375              	.LLST317:
 21376 3e32 1E010000 		.4byte	.LVL860
 21377 3e36 B4010000 		.4byte	.LVL881
 21378 3e3a 0100     		.2byte	0x1
 21379 3e3c 54       		.byte	0x54
 21380 3e3d B4010000 		.4byte	.LVL881
 21381 3e41 E6010000 		.4byte	.LVL886
 21382 3e45 0400     		.2byte	0x4
ARM GAS  /tmp/ccZHgRNF.s 			page 377


 21383 3e47 79       		.byte	0x79
 21384 3e48 807C     		.sleb128 -512
 21385 3e4a 9F       		.byte	0x9f
 21386 3e4b E6010000 		.4byte	.LVL886
 21387 3e4f F6010000 		.4byte	.LVL888
 21388 3e53 0100     		.2byte	0x1
 21389 3e55 54       		.byte	0x54
 21390 3e56 00000000 		.4byte	0
 21391 3e5a 00000000 		.4byte	0
 21392              	.LLST318:
 21393 3e5e 26010000 		.4byte	.LVL861
 21394 3e62 F6010000 		.4byte	.LVL888
 21395 3e66 0200     		.2byte	0x2
 21396 3e68 4F       		.byte	0x4f
 21397 3e69 9F       		.byte	0x9f
 21398 3e6a 00000000 		.4byte	0
 21399 3e6e 00000000 		.4byte	0
 21400              	.LLST319:
 21401 3e72 26010000 		.4byte	.LVL861
 21402 3e76 B4010000 		.4byte	.LVL881
 21403 3e7a 0100     		.2byte	0x1
 21404 3e7c 54       		.byte	0x54
 21405 3e7d B4010000 		.4byte	.LVL881
 21406 3e81 E6010000 		.4byte	.LVL886
 21407 3e85 0400     		.2byte	0x4
 21408 3e87 79       		.byte	0x79
 21409 3e88 807C     		.sleb128 -512
 21410 3e8a 9F       		.byte	0x9f
 21411 3e8b E6010000 		.4byte	.LVL886
 21412 3e8f F6010000 		.4byte	.LVL888
 21413 3e93 0100     		.2byte	0x1
 21414 3e95 54       		.byte	0x54
 21415 3e96 00000000 		.4byte	0
 21416 3e9a 00000000 		.4byte	0
 21417              	.LLST320:
 21418 3e9e 26010000 		.4byte	.LVL861
 21419 3ea2 2E010000 		.4byte	.LVL862
 21420 3ea6 0100     		.2byte	0x1
 21421 3ea8 51       		.byte	0x51
 21422 3ea9 2E010000 		.4byte	.LVL862
 21423 3ead 78010000 		.4byte	.LVL869
 21424 3eb1 0400     		.2byte	0x4
 21425 3eb3 76       		.byte	0x76
 21426 3eb4 D000     		.sleb128 80
 21427 3eb6 9F       		.byte	0x9f
 21428 3eb7 78010000 		.4byte	.LVL869
 21429 3ebb E6010000 		.4byte	.LVL886
 21430 3ebf 0400     		.2byte	0x4
 21431 3ec1 79       		.byte	0x79
 21432 3ec2 A07C     		.sleb128 -480
 21433 3ec4 9F       		.byte	0x9f
 21434 3ec5 E6010000 		.4byte	.LVL886
 21435 3ec9 F6010000 		.4byte	.LVL888
 21436 3ecd 0400     		.2byte	0x4
 21437 3ecf 76       		.byte	0x76
 21438 3ed0 D000     		.sleb128 80
 21439 3ed2 9F       		.byte	0x9f
ARM GAS  /tmp/ccZHgRNF.s 			page 378


 21440 3ed3 00000000 		.4byte	0
 21441 3ed7 00000000 		.4byte	0
 21442              	.LLST321:
 21443 3edb 26010000 		.4byte	.LVL861
 21444 3edf 3C010000 		.4byte	.LVL864
 21445 3ee3 0100     		.2byte	0x1
 21446 3ee5 51       		.byte	0x51
 21447 3ee6 00000000 		.4byte	0
 21448 3eea 00000000 		.4byte	0
 21449              	.LLST322:
 21450 3eee 26010000 		.4byte	.LVL861
 21451 3ef2 2E010000 		.4byte	.LVL862
 21452 3ef6 0100     		.2byte	0x1
 21453 3ef8 54       		.byte	0x54
 21454 3ef9 00000000 		.4byte	0
 21455 3efd 00000000 		.4byte	0
 21456              	.LLST323:
 21457 3f01 5A010000 		.4byte	.LVL866
 21458 3f05 78010000 		.4byte	.LVL869
 21459 3f09 0400     		.2byte	0x4
 21460 3f0b 76       		.byte	0x76
 21461 3f0c D000     		.sleb128 80
 21462 3f0e 9F       		.byte	0x9f
 21463 3f0f 78010000 		.4byte	.LVL869
 21464 3f13 E6010000 		.4byte	.LVL886
 21465 3f17 0400     		.2byte	0x4
 21466 3f19 79       		.byte	0x79
 21467 3f1a A07C     		.sleb128 -480
 21468 3f1c 9F       		.byte	0x9f
 21469 3f1d 00000000 		.4byte	0
 21470 3f21 00000000 		.4byte	0
 21471              	.LLST324:
 21472 3f25 8A010000 		.4byte	.LVL873
 21473 3f29 8C010000 		.4byte	.LVL874
 21474 3f2d 0400     		.2byte	0x4
 21475 3f2f 0A       		.byte	0xa
 21476 3f30 FF01     		.2byte	0x1ff
 21477 3f32 9F       		.byte	0x9f
 21478 3f33 00000000 		.4byte	0
 21479 3f37 00000000 		.4byte	0
 21480              	.LLST325:
 21481 3f3b 8A010000 		.4byte	.LVL873
 21482 3f3f 8C010000 		.4byte	.LVL874
 21483 3f43 0100     		.2byte	0x1
 21484 3f45 54       		.byte	0x54
 21485 3f46 8C010000 		.4byte	.LVL874
 21486 3f4a 9E010000 		.4byte	.LVL877
 21487 3f4e 0100     		.2byte	0x1
 21488 3f50 53       		.byte	0x53
 21489 3f51 00000000 		.4byte	0
 21490 3f55 00000000 		.4byte	0
 21491              	.LLST326:
 21492 3f59 84010000 		.4byte	.LVL871
 21493 3f5d 87010000 		.4byte	.LVL872-1
 21494 3f61 0100     		.2byte	0x1
 21495 3f63 50       		.byte	0x50
 21496 3f64 00000000 		.4byte	0
ARM GAS  /tmp/ccZHgRNF.s 			page 379


 21497 3f68 00000000 		.4byte	0
 21498              	.LLST327:
 21499 3f6c BE010000 		.4byte	.LVL882
 21500 3f70 E6010000 		.4byte	.LVL886
 21501 3f74 0100     		.2byte	0x1
 21502 3f76 55       		.byte	0x55
 21503 3f77 00000000 		.4byte	0
 21504 3f7b 00000000 		.4byte	0
 21505              	.LLST328:
 21506 3f7f BE010000 		.4byte	.LVL882
 21507 3f83 E1010000 		.4byte	.LVL884-1
 21508 3f87 0100     		.2byte	0x1
 21509 3f89 53       		.byte	0x53
 21510 3f8a 00000000 		.4byte	0
 21511 3f8e 00000000 		.4byte	0
 21512              	.LLST329:
 21513 3f92 00000000 		.4byte	.LVL892
 21514 3f96 0C000000 		.4byte	.LVL893
 21515 3f9a 0100     		.2byte	0x1
 21516 3f9c 50       		.byte	0x50
 21517 3f9d 0C000000 		.4byte	.LVL893
 21518 3fa1 0E000000 		.4byte	.LVL894
 21519 3fa5 0200     		.2byte	0x2
 21520 3fa7 91       		.byte	0x91
 21521 3fa8 44       		.sleb128 -60
 21522 3fa9 0E000000 		.4byte	.LVL894
 21523 3fad 13000000 		.4byte	.LVL896-1
 21524 3fb1 0200     		.2byte	0x2
 21525 3fb3 71       		.byte	0x71
 21526 3fb4 00       		.sleb128 0
 21527 3fb5 13000000 		.4byte	.LVL896-1
 21528 3fb9 54000000 		.4byte	.LFE284
 21529 3fbd 0200     		.2byte	0x2
 21530 3fbf 91       		.byte	0x91
 21531 3fc0 44       		.sleb128 -60
 21532 3fc1 00000000 		.4byte	0
 21533 3fc5 00000000 		.4byte	0
 21534              	.LLST330:
 21535 3fc9 00000000 		.4byte	.LVL892
 21536 3fcd 0E000000 		.4byte	.LVL894
 21537 3fd1 0100     		.2byte	0x1
 21538 3fd3 51       		.byte	0x51
 21539 3fd4 0E000000 		.4byte	.LVL894
 21540 3fd8 54000000 		.4byte	.LFE284
 21541 3fdc 0400     		.2byte	0x4
 21542 3fde F3       		.byte	0xf3
 21543 3fdf 01       		.uleb128 0x1
 21544 3fe0 51       		.byte	0x51
 21545 3fe1 9F       		.byte	0x9f
 21546 3fe2 00000000 		.4byte	0
 21547 3fe6 00000000 		.4byte	0
 21548              	.LLST331:
 21549 3fea 00000000 		.4byte	.LVL892
 21550 3fee 10000000 		.4byte	.LVL895
 21551 3ff2 0100     		.2byte	0x1
 21552 3ff4 52       		.byte	0x52
 21553 3ff5 10000000 		.4byte	.LVL895
ARM GAS  /tmp/ccZHgRNF.s 			page 380


 21554 3ff9 36000000 		.4byte	.LVL901
 21555 3ffd 0400     		.2byte	0x4
 21556 3fff F3       		.byte	0xf3
 21557 4000 01       		.uleb128 0x1
 21558 4001 52       		.byte	0x52
 21559 4002 9F       		.byte	0x9f
 21560 4003 36000000 		.4byte	.LVL901
 21561 4007 3C000000 		.4byte	.LVL902
 21562 400b 0100     		.2byte	0x1
 21563 400d 55       		.byte	0x55
 21564 400e 4E000000 		.4byte	.LVL905
 21565 4012 54000000 		.4byte	.LFE284
 21566 4016 0400     		.2byte	0x4
 21567 4018 F3       		.byte	0xf3
 21568 4019 01       		.uleb128 0x1
 21569 401a 52       		.byte	0x52
 21570 401b 9F       		.byte	0x9f
 21571 401c 00000000 		.4byte	0
 21572 4020 00000000 		.4byte	0
 21573              	.LLST332:
 21574 4024 14000000 		.4byte	.LVL896
 21575 4028 1E000000 		.4byte	.LVL898
 21576 402c 0100     		.2byte	0x1
 21577 402e 50       		.byte	0x50
 21578 402f 26000000 		.4byte	.LVL899
 21579 4033 44000000 		.4byte	.LVL903
 21580 4037 0100     		.2byte	0x1
 21581 4039 50       		.byte	0x50
 21582 403a 4A000000 		.4byte	.LVL904
 21583 403e 54000000 		.4byte	.LFE284
 21584 4042 0100     		.2byte	0x1
 21585 4044 50       		.byte	0x50
 21586 4045 00000000 		.4byte	0
 21587 4049 00000000 		.4byte	0
 21588              	.LLST333:
 21589 404d 2C000000 		.4byte	.LVL900
 21590 4051 49000000 		.4byte	.LVL904-1
 21591 4055 0100     		.2byte	0x1
 21592 4057 53       		.byte	0x53
 21593 4058 4E000000 		.4byte	.LVL905
 21594 405c 54000000 		.4byte	.LFE284
 21595 4060 0100     		.2byte	0x1
 21596 4062 53       		.byte	0x53
 21597 4063 00000000 		.4byte	0
 21598 4067 00000000 		.4byte	0
 21599              	.LLST334:
 21600 406b 00000000 		.4byte	.LVL907
 21601 406f 0C000000 		.4byte	.LVL909
 21602 4073 0100     		.2byte	0x1
 21603 4075 50       		.byte	0x50
 21604 4076 0C000000 		.4byte	.LVL909
 21605 407a 11000000 		.4byte	.LVL910-1
 21606 407e 0200     		.2byte	0x2
 21607 4080 71       		.byte	0x71
 21608 4081 00       		.sleb128 0
 21609 4082 11000000 		.4byte	.LVL910-1
 21610 4086 56000000 		.4byte	.LFE285
ARM GAS  /tmp/ccZHgRNF.s 			page 381


 21611 408a 0200     		.2byte	0x2
 21612 408c 91       		.byte	0x91
 21613 408d 4C       		.sleb128 -52
 21614 408e 00000000 		.4byte	0
 21615 4092 00000000 		.4byte	0
 21616              	.LLST335:
 21617 4096 00000000 		.4byte	.LVL907
 21618 409a 0A000000 		.4byte	.LVL908
 21619 409e 0100     		.2byte	0x1
 21620 40a0 51       		.byte	0x51
 21621 40a1 0A000000 		.4byte	.LVL908
 21622 40a5 56000000 		.4byte	.LFE285
 21623 40a9 0100     		.2byte	0x1
 21624 40ab 54       		.byte	0x54
 21625 40ac 00000000 		.4byte	0
 21626 40b0 00000000 		.4byte	0
 21627              	.LLST336:
 21628 40b4 12000000 		.4byte	.LVL910
 21629 40b8 1C000000 		.4byte	.LVL912
 21630 40bc 0100     		.2byte	0x1
 21631 40be 50       		.byte	0x50
 21632 40bf 24000000 		.4byte	.LVL913
 21633 40c3 3E000000 		.4byte	.LVL915
 21634 40c7 0100     		.2byte	0x1
 21635 40c9 50       		.byte	0x50
 21636 40ca 4C000000 		.4byte	.LVL916
 21637 40ce 56000000 		.4byte	.LFE285
 21638 40d2 0100     		.2byte	0x1
 21639 40d4 50       		.byte	0x50
 21640 40d5 00000000 		.4byte	0
 21641 40d9 00000000 		.4byte	0
 21642              	.LLST337:
 21643 40dd 2A000000 		.4byte	.LVL914
 21644 40e1 4B000000 		.4byte	.LVL916-1
 21645 40e5 0100     		.2byte	0x1
 21646 40e7 53       		.byte	0x53
 21647 40e8 50000000 		.4byte	.LVL917
 21648 40ec 56000000 		.4byte	.LFE285
 21649 40f0 0100     		.2byte	0x1
 21650 40f2 53       		.byte	0x53
 21651 40f3 00000000 		.4byte	0
 21652 40f7 00000000 		.4byte	0
 21653              	.LLST338:
 21654 40fb 00000000 		.4byte	.LVL919
 21655 40ff 0C000000 		.4byte	.LVL920
 21656 4103 0100     		.2byte	0x1
 21657 4105 50       		.byte	0x50
 21658 4106 0C000000 		.4byte	.LVL920
 21659 410a 0E000000 		.4byte	.LVL921
 21660 410e 0300     		.2byte	0x3
 21661 4110 91       		.byte	0x91
 21662 4111 8C7F     		.sleb128 -116
 21663 4113 0E000000 		.4byte	.LVL921
 21664 4117 11000000 		.4byte	.LVL922-1
 21665 411b 0200     		.2byte	0x2
 21666 411d 71       		.byte	0x71
 21667 411e 00       		.sleb128 0
ARM GAS  /tmp/ccZHgRNF.s 			page 382


 21668 411f 11000000 		.4byte	.LVL922-1
 21669 4123 44010000 		.4byte	.LFE286
 21670 4127 0300     		.2byte	0x3
 21671 4129 91       		.byte	0x91
 21672 412a 8C7F     		.sleb128 -116
 21673 412c 00000000 		.4byte	0
 21674 4130 00000000 		.4byte	0
 21675              	.LLST339:
 21676 4134 00000000 		.4byte	.LVL919
 21677 4138 0E000000 		.4byte	.LVL921
 21678 413c 0100     		.2byte	0x1
 21679 413e 51       		.byte	0x51
 21680 413f 0E000000 		.4byte	.LVL921
 21681 4143 16000000 		.4byte	.LVL924
 21682 4147 0200     		.2byte	0x2
 21683 4149 7D       		.byte	0x7d
 21684 414a 00       		.sleb128 0
 21685 414b 16000000 		.4byte	.LVL924
 21686 414f 18000000 		.4byte	.LVL925
 21687 4153 0300     		.2byte	0x3
 21688 4155 91       		.byte	0x91
 21689 4156 887F     		.sleb128 -120
 21690 4158 18000000 		.4byte	.LVL925
 21691 415c 44010000 		.4byte	.LFE286
 21692 4160 0200     		.2byte	0x2
 21693 4162 7D       		.byte	0x7d
 21694 4163 00       		.sleb128 0
 21695 4164 00000000 		.4byte	0
 21696 4168 00000000 		.4byte	0
 21697              	.LLST340:
 21698 416c 12000000 		.4byte	.LVL922
 21699 4170 14000000 		.4byte	.LVL923
 21700 4174 0100     		.2byte	0x1
 21701 4176 50       		.byte	0x50
 21702 4177 18000000 		.4byte	.LVL925
 21703 417b 22000000 		.4byte	.LVL926
 21704 417f 0100     		.2byte	0x1
 21705 4181 50       		.byte	0x50
 21706 4182 28000000 		.4byte	.LVL927
 21707 4186 38000000 		.4byte	.LVL930
 21708 418a 0100     		.2byte	0x1
 21709 418c 50       		.byte	0x50
 21710 418d 68000000 		.4byte	.LVL938
 21711 4191 6C000000 		.4byte	.LVL939
 21712 4195 0100     		.2byte	0x1
 21713 4197 50       		.byte	0x50
 21714 4198 6E000000 		.4byte	.LVL940
 21715 419c 70000000 		.4byte	.LVL941
 21716 41a0 0100     		.2byte	0x1
 21717 41a2 50       		.byte	0x50
 21718 41a3 76000000 		.4byte	.LVL943
 21719 41a7 7C000000 		.4byte	.LVL944
 21720 41ab 0100     		.2byte	0x1
 21721 41ad 50       		.byte	0x50
 21722 41ae 80000000 		.4byte	.LVL945
 21723 41b2 92000000 		.4byte	.LVL948
 21724 41b6 0100     		.2byte	0x1
ARM GAS  /tmp/ccZHgRNF.s 			page 383


 21725 41b8 50       		.byte	0x50
 21726 41b9 E2000000 		.4byte	.LVL957
 21727 41bd F0000000 		.4byte	.LVL959
 21728 41c1 0100     		.2byte	0x1
 21729 41c3 50       		.byte	0x50
 21730 41c4 F0000000 		.4byte	.LVL959
 21731 41c8 F6000000 		.4byte	.LVL960
 21732 41cc 0200     		.2byte	0x2
 21733 41ce 30       		.byte	0x30
 21734 41cf 9F       		.byte	0x9f
 21735 41d0 F6000000 		.4byte	.LVL960
 21736 41d4 FC000000 		.4byte	.LVL961
 21737 41d8 0100     		.2byte	0x1
 21738 41da 50       		.byte	0x50
 21739 41db 00010000 		.4byte	.LVL962
 21740 41df 02010000 		.4byte	.LVL963
 21741 41e3 0100     		.2byte	0x1
 21742 41e5 50       		.byte	0x50
 21743 41e6 04010000 		.4byte	.LVL964
 21744 41ea 06010000 		.4byte	.LVL965
 21745 41ee 0200     		.2byte	0x2
 21746 41f0 32       		.byte	0x32
 21747 41f1 9F       		.byte	0x9f
 21748 41f2 14010000 		.4byte	.LVL967
 21749 41f6 1E010000 		.4byte	.LVL968
 21750 41fa 0100     		.2byte	0x1
 21751 41fc 50       		.byte	0x50
 21752 41fd 3C010000 		.4byte	.LVL970
 21753 4201 44010000 		.4byte	.LFE286
 21754 4205 0100     		.2byte	0x1
 21755 4207 50       		.byte	0x50
 21756 4208 00000000 		.4byte	0
 21757 420c 00000000 		.4byte	0
 21758              	.LLST341:
 21759 4210 86000000 		.4byte	.LVL946
 21760 4214 E4000000 		.4byte	.LVL958
 21761 4218 0100     		.2byte	0x1
 21762 421a 54       		.byte	0x54
 21763 421b E4000000 		.4byte	.LVL958
 21764 421f F0000000 		.4byte	.LVL959
 21765 4223 0400     		.2byte	0x4
 21766 4225 73       		.byte	0x73
 21767 4226 D000     		.sleb128 80
 21768 4228 9F       		.byte	0x9f
 21769 4229 02010000 		.4byte	.LVL963
 21770 422d 14010000 		.4byte	.LVL967
 21771 4231 0100     		.2byte	0x1
 21772 4233 54       		.byte	0x54
 21773 4234 14010000 		.4byte	.LVL967
 21774 4238 44010000 		.4byte	.LFE286
 21775 423c 0400     		.2byte	0x4
 21776 423e 73       		.byte	0x73
 21777 423f D000     		.sleb128 80
 21778 4241 9F       		.byte	0x9f
 21779 4242 00000000 		.4byte	0
 21780 4246 00000000 		.4byte	0
 21781              	.LLST342:
ARM GAS  /tmp/ccZHgRNF.s 			page 384


 21782 424a 1E010000 		.4byte	.LVL968
 21783 424e 3C010000 		.4byte	.LVL970
 21784 4252 0100     		.2byte	0x1
 21785 4254 50       		.byte	0x50
 21786 4255 00000000 		.4byte	0
 21787 4259 00000000 		.4byte	0
 21788              	.LLST343:
 21789 425d 32000000 		.4byte	.LVL928
 21790 4261 38000000 		.4byte	.LVL930
 21791 4265 0200     		.2byte	0x2
 21792 4267 44       		.byte	0x44
 21793 4268 9F       		.byte	0x9f
 21794 4269 38000000 		.4byte	.LVL930
 21795 426d 3C000000 		.4byte	.LVL931
 21796 4271 0900     		.2byte	0x9
 21797 4273 91       		.byte	0x91
 21798 4274 4C       		.sleb128 -52
 21799 4275 06       		.byte	0x6
 21800 4276 72       		.byte	0x72
 21801 4277 00       		.sleb128 0
 21802 4278 1C       		.byte	0x1c
 21803 4279 23       		.byte	0x23
 21804 427a 1F       		.uleb128 0x1f
 21805 427b 9F       		.byte	0x9f
 21806 427c 3C000000 		.4byte	.LVL931
 21807 4280 40000000 		.4byte	.LVL932
 21808 4284 0900     		.2byte	0x9
 21809 4286 91       		.byte	0x91
 21810 4287 4C       		.sleb128 -52
 21811 4288 06       		.byte	0x6
 21812 4289 72       		.byte	0x72
 21813 428a 00       		.sleb128 0
 21814 428b 1C       		.byte	0x1c
 21815 428c 23       		.byte	0x23
 21816 428d 20       		.uleb128 0x20
 21817 428e 9F       		.byte	0x9f
 21818 428f 40000000 		.4byte	.LVL932
 21819 4293 48000000 		.4byte	.LVL934
 21820 4297 0900     		.2byte	0x9
 21821 4299 91       		.byte	0x91
 21822 429a 4C       		.sleb128 -52
 21823 429b 06       		.byte	0x6
 21824 429c 72       		.byte	0x72
 21825 429d 00       		.sleb128 0
 21826 429e 1C       		.byte	0x1c
 21827 429f 23       		.byte	0x23
 21828 42a0 1F       		.uleb128 0x1f
 21829 42a1 9F       		.byte	0x9f
 21830 42a2 00000000 		.4byte	0
 21831 42a6 00000000 		.4byte	0
 21832              	.LLST344:
 21833 42aa 32000000 		.4byte	.LVL928
 21834 42ae 38000000 		.4byte	.LVL930
 21835 42b2 0100     		.2byte	0x1
 21836 42b4 52       		.byte	0x52
 21837 42b5 38000000 		.4byte	.LVL930
 21838 42b9 5B000000 		.4byte	.LVL937-1
ARM GAS  /tmp/ccZHgRNF.s 			page 385


 21839 42bd 0600     		.2byte	0x6
 21840 42bf 91       		.byte	0x91
 21841 42c0 4C       		.sleb128 -52
 21842 42c1 06       		.byte	0x6
 21843 42c2 23       		.byte	0x23
 21844 42c3 0B       		.uleb128 0xb
 21845 42c4 9F       		.byte	0x9f
 21846 42c5 00000000 		.4byte	0
 21847 42c9 00000000 		.4byte	0
 21848              	.LLST345:
 21849 42cd 32000000 		.4byte	.LVL928
 21850 42d1 34000000 		.4byte	.LVL929
 21851 42d5 0400     		.2byte	0x4
 21852 42d7 91       		.byte	0x91
 21853 42d8 A07F     		.sleb128 -96
 21854 42da 9F       		.byte	0x9f
 21855 42db 34000000 		.4byte	.LVL929
 21856 42df 38000000 		.4byte	.LVL930
 21857 42e3 0100     		.2byte	0x1
 21858 42e5 53       		.byte	0x53
 21859 42e6 38000000 		.4byte	.LVL930
 21860 42ea 6E000000 		.4byte	.LVL940
 21861 42ee 0400     		.2byte	0x4
 21862 42f0 91       		.byte	0x91
 21863 42f1 A07F     		.sleb128 -96
 21864 42f3 9F       		.byte	0x9f
 21865 42f4 72000000 		.4byte	.LVL942
 21866 42f8 44010000 		.4byte	.LFE286
 21867 42fc 0400     		.2byte	0x4
 21868 42fe 91       		.byte	0x91
 21869 42ff A07F     		.sleb128 -96
 21870 4301 9F       		.byte	0x9f
 21871 4302 00000000 		.4byte	0
 21872 4306 00000000 		.4byte	0
 21873              	.LLST346:
 21874 430a 32000000 		.4byte	.LVL928
 21875 430e 34000000 		.4byte	.LVL929
 21876 4312 0400     		.2byte	0x4
 21877 4314 91       		.byte	0x91
 21878 4315 A07F     		.sleb128 -96
 21879 4317 9F       		.byte	0x9f
 21880 4318 34000000 		.4byte	.LVL929
 21881 431c 46000000 		.4byte	.LVL933
 21882 4320 0100     		.2byte	0x1
 21883 4322 53       		.byte	0x53
 21884 4323 00000000 		.4byte	0
 21885 4327 00000000 		.4byte	0
 21886              	.LLST347:
 21887 432b 32000000 		.4byte	.LVL928
 21888 432f 3C000000 		.4byte	.LVL931
 21889 4333 0100     		.2byte	0x1
 21890 4335 52       		.byte	0x52
 21891 4336 3C000000 		.4byte	.LVL931
 21892 433a 40000000 		.4byte	.LVL932
 21893 433e 0300     		.2byte	0x3
 21894 4340 72       		.byte	0x72
 21895 4341 7F       		.sleb128 -1
ARM GAS  /tmp/ccZHgRNF.s 			page 386


 21896 4342 9F       		.byte	0x9f
 21897 4343 40000000 		.4byte	.LVL932
 21898 4347 48000000 		.4byte	.LVL934
 21899 434b 0100     		.2byte	0x1
 21900 434d 52       		.byte	0x52
 21901 434e 00000000 		.4byte	0
 21902 4352 00000000 		.4byte	0
 21903              	.LLST348:
 21904 4356 48000000 		.4byte	.LVL934
 21905 435a 4C000000 		.4byte	.LVL935
 21906 435e 0900     		.2byte	0x9
 21907 4360 91       		.byte	0x91
 21908 4361 00       		.sleb128 0
 21909 4362 72       		.byte	0x72
 21910 4363 00       		.sleb128 0
 21911 4364 1C       		.byte	0x1c
 21912 4365 08       		.byte	0x8
 21913 4366 2D       		.byte	0x2d
 21914 4367 1C       		.byte	0x1c
 21915 4368 9F       		.byte	0x9f
 21916 4369 4C000000 		.4byte	.LVL935
 21917 436d 50000000 		.4byte	.LVL936
 21918 4371 0900     		.2byte	0x9
 21919 4373 91       		.byte	0x91
 21920 4374 00       		.sleb128 0
 21921 4375 72       		.byte	0x72
 21922 4376 00       		.sleb128 0
 21923 4377 1C       		.byte	0x1c
 21924 4378 08       		.byte	0x8
 21925 4379 2C       		.byte	0x2c
 21926 437a 1C       		.byte	0x1c
 21927 437b 9F       		.byte	0x9f
 21928 437c 50000000 		.4byte	.LVL936
 21929 4380 5B000000 		.4byte	.LVL937-1
 21930 4384 0900     		.2byte	0x9
 21931 4386 91       		.byte	0x91
 21932 4387 00       		.sleb128 0
 21933 4388 72       		.byte	0x72
 21934 4389 00       		.sleb128 0
 21935 438a 1C       		.byte	0x1c
 21936 438b 08       		.byte	0x8
 21937 438c 2D       		.byte	0x2d
 21938 438d 1C       		.byte	0x1c
 21939 438e 9F       		.byte	0x9f
 21940 438f 00000000 		.4byte	0
 21941 4393 00000000 		.4byte	0
 21942              	.LLST349:
 21943 4397 48000000 		.4byte	.LVL934
 21944 439b 5B000000 		.4byte	.LVL937-1
 21945 439f 0100     		.2byte	0x1
 21946 43a1 53       		.byte	0x53
 21947 43a2 00000000 		.4byte	0
 21948 43a6 00000000 		.4byte	0
 21949              	.LLST350:
 21950 43aa 48000000 		.4byte	.LVL934
 21951 43ae 4C000000 		.4byte	.LVL935
 21952 43b2 0100     		.2byte	0x1
ARM GAS  /tmp/ccZHgRNF.s 			page 387


 21953 43b4 52       		.byte	0x52
 21954 43b5 4C000000 		.4byte	.LVL935
 21955 43b9 50000000 		.4byte	.LVL936
 21956 43bd 0300     		.2byte	0x3
 21957 43bf 72       		.byte	0x72
 21958 43c0 7F       		.sleb128 -1
 21959 43c1 9F       		.byte	0x9f
 21960 43c2 50000000 		.4byte	.LVL936
 21961 43c6 5B000000 		.4byte	.LVL937-1
 21962 43ca 0100     		.2byte	0x1
 21963 43cc 52       		.byte	0x52
 21964 43cd 00000000 		.4byte	0
 21965 43d1 00000000 		.4byte	0
 21966              	.LLST351:
 21967 43d5 8E000000 		.4byte	.LVL947
 21968 43d9 92000000 		.4byte	.LVL948
 21969 43dd 0200     		.2byte	0x2
 21970 43df 42       		.byte	0x42
 21971 43e0 9F       		.byte	0x9f
 21972 43e1 92000000 		.4byte	.LVL948
 21973 43e5 96000000 		.4byte	.LVL949
 21974 43e9 0900     		.2byte	0x9
 21975 43eb 91       		.byte	0x91
 21976 43ec 00       		.sleb128 0
 21977 43ed 72       		.byte	0x72
 21978 43ee 00       		.sleb128 0
 21979 43ef 1C       		.byte	0x1c
 21980 43f0 08       		.byte	0x8
 21981 43f1 4C       		.byte	0x4c
 21982 43f2 1C       		.byte	0x1c
 21983 43f3 9F       		.byte	0x9f
 21984 43f4 96000000 		.4byte	.LVL949
 21985 43f8 9A000000 		.4byte	.LVL950
 21986 43fc 0900     		.2byte	0x9
 21987 43fe 91       		.byte	0x91
 21988 43ff 00       		.sleb128 0
 21989 4400 72       		.byte	0x72
 21990 4401 00       		.sleb128 0
 21991 4402 1C       		.byte	0x1c
 21992 4403 08       		.byte	0x8
 21993 4404 4B       		.byte	0x4b
 21994 4405 1C       		.byte	0x1c
 21995 4406 9F       		.byte	0x9f
 21996 4407 9A000000 		.4byte	.LVL950
 21997 440b A2000000 		.4byte	.LVL951
 21998 440f 0900     		.2byte	0x9
 21999 4411 91       		.byte	0x91
 22000 4412 00       		.sleb128 0
 22001 4413 72       		.byte	0x72
 22002 4414 00       		.sleb128 0
 22003 4415 1C       		.byte	0x1c
 22004 4416 08       		.byte	0x8
 22005 4417 4C       		.byte	0x4c
 22006 4418 1C       		.byte	0x1c
 22007 4419 9F       		.byte	0x9f
 22008 441a 00000000 		.4byte	0
 22009 441e 00000000 		.4byte	0
ARM GAS  /tmp/ccZHgRNF.s 			page 388


 22010              	.LLST352:
 22011 4422 8E000000 		.4byte	.LVL947
 22012 4426 92000000 		.4byte	.LVL948
 22013 442a 0100     		.2byte	0x1
 22014 442c 52       		.byte	0x52
 22015 442d 92000000 		.4byte	.LVL948
 22016 4431 44010000 		.4byte	.LFE286
 22017 4435 0400     		.2byte	0x4
 22018 4437 91       		.byte	0x91
 22019 4438 A27F     		.sleb128 -94
 22020 443a 9F       		.byte	0x9f
 22021 443b 00000000 		.4byte	0
 22022 443f 00000000 		.4byte	0
 22023              	.LLST353:
 22024 4443 8E000000 		.4byte	.LVL947
 22025 4447 92000000 		.4byte	.LVL948
 22026 444b 0100     		.2byte	0x1
 22027 444d 53       		.byte	0x53
 22028 444e 92000000 		.4byte	.LVL948
 22029 4452 F0000000 		.4byte	.LVL959
 22030 4456 0300     		.2byte	0x3
 22031 4458 74       		.byte	0x74
 22032 4459 0D       		.sleb128 13
 22033 445a 9F       		.byte	0x9f
 22034 445b 02010000 		.4byte	.LVL963
 22035 445f 26010000 		.4byte	.LVL969
 22036 4463 0300     		.2byte	0x3
 22037 4465 74       		.byte	0x74
 22038 4466 0D       		.sleb128 13
 22039 4467 9F       		.byte	0x9f
 22040 4468 3C010000 		.4byte	.LVL970
 22041 446c 44010000 		.4byte	.LFE286
 22042 4470 0300     		.2byte	0x3
 22043 4472 74       		.byte	0x74
 22044 4473 0D       		.sleb128 13
 22045 4474 9F       		.byte	0x9f
 22046 4475 00000000 		.4byte	0
 22047 4479 00000000 		.4byte	0
 22048              	.LLST354:
 22049 447d 8E000000 		.4byte	.LVL947
 22050 4481 AA000000 		.4byte	.LVL952
 22051 4485 0100     		.2byte	0x1
 22052 4487 53       		.byte	0x53
 22053 4488 00000000 		.4byte	0
 22054 448c 00000000 		.4byte	0
 22055              	.LLST355:
 22056 4490 8E000000 		.4byte	.LVL947
 22057 4494 96000000 		.4byte	.LVL949
 22058 4498 0100     		.2byte	0x1
 22059 449a 52       		.byte	0x52
 22060 449b 96000000 		.4byte	.LVL949
 22061 449f 9A000000 		.4byte	.LVL950
 22062 44a3 0300     		.2byte	0x3
 22063 44a5 72       		.byte	0x72
 22064 44a6 7F       		.sleb128 -1
 22065 44a7 9F       		.byte	0x9f
 22066 44a8 9A000000 		.4byte	.LVL950
ARM GAS  /tmp/ccZHgRNF.s 			page 389


 22067 44ac A2000000 		.4byte	.LVL951
 22068 44b0 0100     		.2byte	0x1
 22069 44b2 52       		.byte	0x52
 22070 44b3 00000000 		.4byte	0
 22071 44b7 00000000 		.4byte	0
 22072              	.LLST356:
 22073 44bb BC000000 		.4byte	.LVL953
 22074 44bf E1000000 		.4byte	.LVL957-1
 22075 44c3 0100     		.2byte	0x1
 22076 44c5 50       		.byte	0x50
 22077 44c6 02010000 		.4byte	.LVL963
 22078 44ca 04010000 		.4byte	.LVL964
 22079 44ce 0100     		.2byte	0x1
 22080 44d0 50       		.byte	0x50
 22081 44d1 04010000 		.4byte	.LVL964
 22082 44d5 06010000 		.4byte	.LVL965
 22083 44d9 0300     		.2byte	0x3
 22084 44db 91       		.byte	0x91
 22085 44dc B87F     		.sleb128 -72
 22086 44de 06010000 		.4byte	.LVL965
 22087 44e2 14010000 		.4byte	.LVL967
 22088 44e6 0100     		.2byte	0x1
 22089 44e8 50       		.byte	0x50
 22090 44e9 00000000 		.4byte	0
 22091 44ed 00000000 		.4byte	0
 22092              	.LLST357:
 22093 44f1 BC000000 		.4byte	.LVL953
 22094 44f5 F0000000 		.4byte	.LVL959
 22095 44f9 0100     		.2byte	0x1
 22096 44fb 54       		.byte	0x54
 22097 44fc 02010000 		.4byte	.LVL963
 22098 4500 26010000 		.4byte	.LVL969
 22099 4504 0100     		.2byte	0x1
 22100 4506 54       		.byte	0x54
 22101 4507 3C010000 		.4byte	.LVL970
 22102 450b 44010000 		.4byte	.LFE286
 22103 450f 0100     		.2byte	0x1
 22104 4511 54       		.byte	0x54
 22105 4512 00000000 		.4byte	0
 22106 4516 00000000 		.4byte	0
 22107              	.LLST358:
 22108 451a C8000000 		.4byte	.LVL954
 22109 451e CE000000 		.4byte	.LVL956
 22110 4522 0100     		.2byte	0x1
 22111 4524 53       		.byte	0x53
 22112 4525 CE000000 		.4byte	.LVL956
 22113 4529 E1000000 		.4byte	.LVL957-1
 22114 452d 0300     		.2byte	0x3
 22115 452f 73       		.byte	0x73
 22116 4530 02       		.sleb128 2
 22117 4531 9F       		.byte	0x9f
 22118 4532 02010000 		.4byte	.LVL963
 22119 4536 06010000 		.4byte	.LVL965
 22120 453a 0300     		.2byte	0x3
 22121 453c 73       		.byte	0x73
 22122 453d 02       		.sleb128 2
 22123 453e 9F       		.byte	0x9f
ARM GAS  /tmp/ccZHgRNF.s 			page 390


 22124 453f 06010000 		.4byte	.LVL965
 22125 4543 14010000 		.4byte	.LVL967
 22126 4547 0100     		.2byte	0x1
 22127 4549 53       		.byte	0x53
 22128 454a 00000000 		.4byte	0
 22129 454e 00000000 		.4byte	0
 22130              	.LLST359:
 22131 4552 CA000000 		.4byte	.LVL955
 22132 4556 E1000000 		.4byte	.LVL957-1
 22133 455a 0100     		.2byte	0x1
 22134 455c 53       		.byte	0x53
 22135 455d 02010000 		.4byte	.LVL963
 22136 4561 06010000 		.4byte	.LVL965
 22137 4565 0100     		.2byte	0x1
 22138 4567 53       		.byte	0x53
 22139 4568 00000000 		.4byte	0
 22140 456c 00000000 		.4byte	0
 22141              	.LLST360:
 22142 4570 CA000000 		.4byte	.LVL955
 22143 4574 E1000000 		.4byte	.LVL957-1
 22144 4578 0100     		.2byte	0x1
 22145 457a 50       		.byte	0x50
 22146 457b 02010000 		.4byte	.LVL963
 22147 457f 04010000 		.4byte	.LVL964
 22148 4583 0100     		.2byte	0x1
 22149 4585 50       		.byte	0x50
 22150 4586 04010000 		.4byte	.LVL964
 22151 458a 06010000 		.4byte	.LVL965
 22152 458e 0300     		.2byte	0x3
 22153 4590 91       		.byte	0x91
 22154 4591 B87F     		.sleb128 -72
 22155 4593 00000000 		.4byte	0
 22156 4597 00000000 		.4byte	0
 22157              	.LLST362:
 22158 459b 1E010000 		.4byte	.LVL968
 22159 459f 3C010000 		.4byte	.LVL970
 22160 45a3 0400     		.2byte	0x4
 22161 45a5 73       		.byte	0x73
 22162 45a6 D000     		.sleb128 80
 22163 45a8 9F       		.byte	0x9f
 22164 45a9 00000000 		.4byte	0
 22165 45ad 00000000 		.4byte	0
 22166              		.section	.debug_aranges,"",%progbits
 22167 0000 4C010000 		.4byte	0x14c
 22168 0004 0200     		.2byte	0x2
 22169 0006 00000000 		.4byte	.Ldebug_info0
 22170 000a 04       		.byte	0x4
 22171 000b 00       		.byte	0
 22172 000c 0000     		.2byte	0
 22173 000e 0000     		.2byte	0
 22174 0010 00000000 		.4byte	.LFB265
 22175 0014 42000000 		.4byte	.LFE265-.LFB265
 22176 0018 00000000 		.4byte	.LFB268
 22177 001c 2A000000 		.4byte	.LFE268-.LFB268
 22178 0020 00000000 		.4byte	.LFB288
 22179 0024 68000000 		.4byte	.LFE288-.LFB288
 22180 0028 00000000 		.4byte	.LFB290
ARM GAS  /tmp/ccZHgRNF.s 			page 391


 22181 002c 4A000000 		.4byte	.LFE290-.LFB290
 22182 0030 00000000 		.4byte	.LFB247
 22183 0034 D2000000 		.4byte	.LFE247-.LFB247
 22184 0038 00000000 		.4byte	.LFB246
 22185 003c 34000000 		.4byte	.LFE246-.LFB246
 22186 0040 00000000 		.4byte	.LFB266
 22187 0044 88000000 		.4byte	.LFE266-.LFB266
 22188 0048 00000000 		.4byte	.LFB267
 22189 004c 24030000 		.4byte	.LFE267-.LFB267
 22190 0050 00000000 		.4byte	.LFB293
 22191 0054 C2000000 		.4byte	.LFE293-.LFB293
 22192 0058 00000000 		.4byte	.LFB253
 22193 005c A0000000 		.4byte	.LFE253-.LFB253
 22194 0060 00000000 		.4byte	.LFB261
 22195 0064 38000000 		.4byte	.LFE261-.LFB261
 22196 0068 00000000 		.4byte	.LFB295
 22197 006c F2000000 		.4byte	.LFE295-.LFB295
 22198 0070 00000000 		.4byte	.LFB252
 22199 0074 C6000000 		.4byte	.LFE252-.LFB252
 22200 0078 00000000 		.4byte	.LFB254
 22201 007c 3A010000 		.4byte	.LFE254-.LFB254
 22202 0080 00000000 		.4byte	.LFB264
 22203 0084 FC010000 		.4byte	.LFE264-.LFB264
 22204 0088 00000000 		.4byte	.LFB297
 22205 008c 5C000000 		.4byte	.LFE297-.LFB297
 22206 0090 00000000 		.4byte	.LFB299
 22207 0094 5A000000 		.4byte	.LFE299-.LFB299
 22208 0098 00000000 		.4byte	.LFB260
 22209 009c 70000000 		.4byte	.LFE260-.LFB260
 22210 00a0 00000000 		.4byte	.LFB248
 22211 00a4 16000000 		.4byte	.LFE248-.LFB248
 22212 00a8 00000000 		.4byte	.LFB249
 22213 00ac 12000000 		.4byte	.LFE249-.LFB249
 22214 00b0 00000000 		.4byte	.LFB250
 22215 00b4 1C000000 		.4byte	.LFE250-.LFB250
 22216 00b8 00000000 		.4byte	.LFB269
 22217 00bc 5C000000 		.4byte	.LFE269-.LFB269
 22218 00c0 00000000 		.4byte	.LFB270
 22219 00c4 7C010000 		.4byte	.LFE270-.LFB270
 22220 00c8 00000000 		.4byte	.LFB271
 22221 00cc 6C010000 		.4byte	.LFE271-.LFB271
 22222 00d0 00000000 		.4byte	.LFB272
 22223 00d4 C6010000 		.4byte	.LFE272-.LFB272
 22224 00d8 00000000 		.4byte	.LFB273
 22225 00dc A6000000 		.4byte	.LFE273-.LFB273
 22226 00e0 00000000 		.4byte	.LFB274
 22227 00e4 1A000000 		.4byte	.LFE274-.LFB274
 22228 00e8 00000000 		.4byte	.LFB275
 22229 00ec 64010000 		.4byte	.LFE275-.LFB275
 22230 00f0 00000000 		.4byte	.LFB276
 22231 00f4 7E000000 		.4byte	.LFE276-.LFB276
 22232 00f8 00000000 		.4byte	.LFB277
 22233 00fc 0E000000 		.4byte	.LFE277-.LFB277
 22234 0100 00000000 		.4byte	.LFB278
 22235 0104 5A000000 		.4byte	.LFE278-.LFB278
 22236 0108 00000000 		.4byte	.LFB279
 22237 010c 4A000000 		.4byte	.LFE279-.LFB279
ARM GAS  /tmp/ccZHgRNF.s 			page 392


 22238 0110 00000000 		.4byte	.LFB280
 22239 0114 FE000000 		.4byte	.LFE280-.LFB280
 22240 0118 00000000 		.4byte	.LFB281
 22241 011c D4000000 		.4byte	.LFE281-.LFB281
 22242 0120 00000000 		.4byte	.LFB282
 22243 0124 CA000000 		.4byte	.LFE282-.LFB282
 22244 0128 00000000 		.4byte	.LFB283
 22245 012c 08020000 		.4byte	.LFE283-.LFB283
 22246 0130 00000000 		.4byte	.LFB284
 22247 0134 54000000 		.4byte	.LFE284-.LFB284
 22248 0138 00000000 		.4byte	.LFB285
 22249 013c 56000000 		.4byte	.LFE285-.LFB285
 22250 0140 00000000 		.4byte	.LFB286
 22251 0144 44010000 		.4byte	.LFE286-.LFB286
 22252 0148 00000000 		.4byte	0
 22253 014c 00000000 		.4byte	0
 22254              		.section	.debug_ranges,"",%progbits
 22255              	.Ldebug_ranges0:
 22256 0000 04000000 		.4byte	.LBB149
 22257 0004 06000000 		.4byte	.LBE149
 22258 0008 08000000 		.4byte	.LBB153
 22259 000c 0A000000 		.4byte	.LBE153
 22260 0010 24000000 		.4byte	.LBB154
 22261 0014 28000000 		.4byte	.LBE154
 22262 0018 00000000 		.4byte	0
 22263 001c 00000000 		.4byte	0
 22264 0020 0C000000 		.4byte	.LBB163
 22265 0024 10000000 		.4byte	.LBE163
 22266 0028 24000000 		.4byte	.LBB168
 22267 002c 28000000 		.4byte	.LBE168
 22268 0030 00000000 		.4byte	0
 22269 0034 00000000 		.4byte	0
 22270 0038 96000000 		.4byte	.LBB173
 22271 003c CC000000 		.4byte	.LBE173
 22272 0040 D0000000 		.4byte	.LBB175
 22273 0044 DC000000 		.4byte	.LBE175
 22274 0048 00000000 		.4byte	0
 22275 004c 00000000 		.4byte	0
 22276 0050 56000000 		.4byte	.LBB176
 22277 0054 64000000 		.4byte	.LBE176
 22278 0058 76000000 		.4byte	.LBB180
 22279 005c 7C000000 		.4byte	.LBE180
 22280 0060 7E000000 		.4byte	.LBB181
 22281 0064 84000000 		.4byte	.LBE181
 22282 0068 00000000 		.4byte	0
 22283 006c 00000000 		.4byte	0
 22284 0070 18000000 		.4byte	.LBB192
 22285 0074 1C000000 		.4byte	.LBE192
 22286 0078 1E000000 		.4byte	.LBB196
 22287 007c 26000000 		.4byte	.LBE196
 22288 0080 3C000000 		.4byte	.LBB197
 22289 0084 40000000 		.4byte	.LBE197
 22290 0088 00000000 		.4byte	0
 22291 008c 00000000 		.4byte	0
 22292 0090 48000000 		.4byte	.LBB204
 22293 0094 52000000 		.4byte	.LBE204
 22294 0098 60000000 		.4byte	.LBB208
ARM GAS  /tmp/ccZHgRNF.s 			page 393


 22295 009c 66000000 		.4byte	.LBE208
 22296 00a0 68000000 		.4byte	.LBB209
 22297 00a4 6A000000 		.4byte	.LBE209
 22298 00a8 00000000 		.4byte	0
 22299 00ac 00000000 		.4byte	0
 22300 00b0 7C000000 		.4byte	.LBB210
 22301 00b4 80000000 		.4byte	.LBE210
 22302 00b8 84000000 		.4byte	.LBB213
 22303 00bc 90000000 		.4byte	.LBE213
 22304 00c0 00000000 		.4byte	0
 22305 00c4 00000000 		.4byte	0
 22306 00c8 94000000 		.4byte	.LBB214
 22307 00cc A6000000 		.4byte	.LBE214
 22308 00d0 B0000000 		.4byte	.LBB225
 22309 00d4 3A010000 		.4byte	.LBE225
 22310 00d8 00000000 		.4byte	0
 22311 00dc 00000000 		.4byte	0
 22312 00e0 BC000000 		.4byte	.LBB215
 22313 00e4 C2000000 		.4byte	.LBE215
 22314 00e8 22010000 		.4byte	.LBB224
 22315 00ec 26010000 		.4byte	.LBE224
 22316 00f0 00000000 		.4byte	0
 22317 00f4 00000000 		.4byte	0
 22318 00f8 22000000 		.4byte	.LBB238
 22319 00fc D8000000 		.4byte	.LBE238
 22320 0100 F6000000 		.4byte	.LBB248
 22321 0104 28010000 		.4byte	.LBE248
 22322 0108 E4010000 		.4byte	.LBB259
 22323 010c FC010000 		.4byte	.LBE259
 22324 0110 00000000 		.4byte	0
 22325 0114 00000000 		.4byte	0
 22326 0118 70000000 		.4byte	.LBB242
 22327 011c 84000000 		.4byte	.LBE242
 22328 0120 AA000000 		.4byte	.LBB245
 22329 0124 B0000000 		.4byte	.LBE245
 22330 0128 00000000 		.4byte	0
 22331 012c 00000000 		.4byte	0
 22332 0130 28010000 		.4byte	.LBB249
 22333 0134 74010000 		.4byte	.LBE249
 22334 0138 9E010000 		.4byte	.LBB257
 22335 013c AA010000 		.4byte	.LBE257
 22336 0140 00000000 		.4byte	0
 22337 0144 00000000 		.4byte	0
 22338 0148 86010000 		.4byte	.LBB254
 22339 014c 94010000 		.4byte	.LBE254
 22340 0150 B8010000 		.4byte	.LBB258
 22341 0154 C6010000 		.4byte	.LBE258
 22342 0158 00000000 		.4byte	0
 22343 015c 00000000 		.4byte	0
 22344 0160 24000000 		.4byte	.LBB262
 22345 0164 2A000000 		.4byte	.LBE262
 22346 0168 2E000000 		.4byte	.LBB265
 22347 016c 38000000 		.4byte	.LBE265
 22348 0170 00000000 		.4byte	0
 22349 0174 00000000 		.4byte	0
 22350 0178 02000000 		.4byte	.LBB274
 22351 017c 04000000 		.4byte	.LBE274
ARM GAS  /tmp/ccZHgRNF.s 			page 394


 22352 0180 06000000 		.4byte	.LBB277
 22353 0184 38000000 		.4byte	.LBE277
 22354 0188 00000000 		.4byte	0
 22355 018c 00000000 		.4byte	0
 22356 0190 48000000 		.4byte	.LBB284
 22357 0194 64000000 		.4byte	.LBE284
 22358 0198 E4000000 		.4byte	.LBB303
 22359 019c 72010000 		.4byte	.LBE303
 22360 01a0 00000000 		.4byte	0
 22361 01a4 00000000 		.4byte	0
 22362 01a8 18010000 		.4byte	.LBB285
 22363 01ac 26010000 		.4byte	.LBE285
 22364 01b0 4A010000 		.4byte	.LBB297
 22365 01b4 58010000 		.4byte	.LBE297
 22366 01b8 00000000 		.4byte	0
 22367 01bc 00000000 		.4byte	0
 22368 01c0 26010000 		.4byte	.LBB288
 22369 01c4 28010000 		.4byte	.LBE288
 22370 01c8 2A010000 		.4byte	.LBB291
 22371 01cc 32010000 		.4byte	.LBE291
 22372 01d0 00000000 		.4byte	0
 22373 01d4 00000000 		.4byte	0
 22374 01d8 38010000 		.4byte	.LBB292
 22375 01dc 3A010000 		.4byte	.LBE292
 22376 01e0 3E010000 		.4byte	.LBB296
 22377 01e4 4A010000 		.4byte	.LBE296
 22378 01e8 58010000 		.4byte	.LBB298
 22379 01ec 60010000 		.4byte	.LBE298
 22380 01f0 00000000 		.4byte	0
 22381 01f4 00000000 		.4byte	0
 22382 01f8 9E000000 		.4byte	.LBB299
 22383 01fc AC000000 		.4byte	.LBE299
 22384 0200 D2000000 		.4byte	.LBB302
 22385 0204 E0000000 		.4byte	.LBE302
 22386 0208 00000000 		.4byte	0
 22387 020c 00000000 		.4byte	0
 22388 0210 4A010000 		.4byte	.LBB310
 22389 0214 54010000 		.4byte	.LBE310
 22390 0218 64010000 		.4byte	.LBB313
 22391 021c 6C010000 		.4byte	.LBE313
 22392 0220 00000000 		.4byte	0
 22393 0224 00000000 		.4byte	0
 22394 0228 14000000 		.4byte	.LBB322
 22395 022c 98000000 		.4byte	.LBE322
 22396 0230 9A000000 		.4byte	.LBB329
 22397 0234 64010000 		.4byte	.LBE329
 22398 0238 00000000 		.4byte	0
 22399 023c 00000000 		.4byte	0
 22400 0240 AE000000 		.4byte	.LBB323
 22401 0244 B8000000 		.4byte	.LBE323
 22402 0248 0E010000 		.4byte	.LBB328
 22403 024c 16010000 		.4byte	.LBE328
 22404 0250 00000000 		.4byte	0
 22405 0254 00000000 		.4byte	0
 22406 0258 42000000 		.4byte	.LBB330
 22407 025c 50000000 		.4byte	.LBE330
 22408 0260 70000000 		.4byte	.LBB333
ARM GAS  /tmp/ccZHgRNF.s 			page 395


 22409 0264 7E000000 		.4byte	.LBE333
 22410 0268 00000000 		.4byte	0
 22411 026c 00000000 		.4byte	0
 22412 0270 BE000000 		.4byte	.LBB334
 22413 0274 C6000000 		.4byte	.LBE334
 22414 0278 D0000000 		.4byte	.LBB338
 22415 027c D6000000 		.4byte	.LBE338
 22416 0280 E4000000 		.4byte	.LBB339
 22417 0284 F0000000 		.4byte	.LBE339
 22418 0288 00000000 		.4byte	0
 22419 028c 00000000 		.4byte	0
 22420 0290 32000000 		.4byte	.LBB340
 22421 0294 3E000000 		.4byte	.LBE340
 22422 0298 8E000000 		.4byte	.LBB347
 22423 029c 94000000 		.4byte	.LBE347
 22424 02a0 00000000 		.4byte	0
 22425 02a4 00000000 		.4byte	0
 22426 02a8 70000000 		.4byte	.LBB343
 22427 02ac 7A000000 		.4byte	.LBE343
 22428 02b0 94000000 		.4byte	.LBB348
 22429 02b4 98000000 		.4byte	.LBE348
 22430 02b8 9A000000 		.4byte	.LBB349
 22431 02bc 9C000000 		.4byte	.LBE349
 22432 02c0 00000000 		.4byte	0
 22433 02c4 00000000 		.4byte	0
 22434 02c8 C0000000 		.4byte	.LBB352
 22435 02cc C2000000 		.4byte	.LBE352
 22436 02d0 C4000000 		.4byte	.LBB355
 22437 02d4 D4000000 		.4byte	.LBE355
 22438 02d8 00000000 		.4byte	0
 22439 02dc 00000000 		.4byte	0
 22440 02e0 3A000000 		.4byte	.LBB356
 22441 02e4 48000000 		.4byte	.LBE356
 22442 02e8 9E000000 		.4byte	.LBB366
 22443 02ec AA000000 		.4byte	.LBE366
 22444 02f0 00000000 		.4byte	0
 22445 02f4 00000000 		.4byte	0
 22446 02f8 8E000000 		.4byte	.LBB361
 22447 02fc 90000000 		.4byte	.LBE361
 22448 0300 92000000 		.4byte	.LBB365
 22449 0304 9A000000 		.4byte	.LBE365
 22450 0308 B0000000 		.4byte	.LBB367
 22451 030c B6000000 		.4byte	.LBE367
 22452 0310 00000000 		.4byte	0
 22453 0314 00000000 		.4byte	0
 22454 0318 48000000 		.4byte	.LBB390
 22455 031c 4A000000 		.4byte	.LBE390
 22456 0320 4C000000 		.4byte	.LBB393
 22457 0324 60000000 		.4byte	.LBE393
 22458 0328 00000000 		.4byte	0
 22459 032c 00000000 		.4byte	0
 22460 0330 7C000000 		.4byte	.LBB394
 22461 0334 84000000 		.4byte	.LBE394
 22462 0338 F6010000 		.4byte	.LBB433
 22463 033c FC010000 		.4byte	.LBE433
 22464 0340 00000000 		.4byte	0
 22465 0344 00000000 		.4byte	0
ARM GAS  /tmp/ccZHgRNF.s 			page 396


 22466 0348 84000000 		.4byte	.LBB397
 22467 034c 92000000 		.4byte	.LBE397
 22468 0350 96000000 		.4byte	.LBB400
 22469 0354 9E000000 		.4byte	.LBE400
 22470 0358 00000000 		.4byte	0
 22471 035c 00000000 		.4byte	0
 22472 0360 BE000000 		.4byte	.LBB405
 22473 0364 C4000000 		.4byte	.LBE405
 22474 0368 D0000000 		.4byte	.LBB411
 22475 036c EA000000 		.4byte	.LBE411
 22476 0370 F6000000 		.4byte	.LBB412
 22477 0374 FC000000 		.4byte	.LBE412
 22478 0378 08010000 		.4byte	.LBB413
 22479 037c 0A010000 		.4byte	.LBE413
 22480 0380 1E010000 		.4byte	.LBB414
 22481 0384 22010000 		.4byte	.LBE414
 22482 0388 00000000 		.4byte	0
 22483 038c 00000000 		.4byte	0
 22484 0390 78010000 		.4byte	.LBB419
 22485 0394 7C010000 		.4byte	.LBE419
 22486 0398 8C010000 		.4byte	.LBB424
 22487 039c 94010000 		.4byte	.LBE424
 22488 03a0 00000000 		.4byte	0
 22489 03a4 00000000 		.4byte	0
 22490 03a8 BE010000 		.4byte	.LBB425
 22491 03ac C4010000 		.4byte	.LBE425
 22492 03b0 C6010000 		.4byte	.LBB430
 22493 03b4 CC010000 		.4byte	.LBE430
 22494 03b8 D0010000 		.4byte	.LBB431
 22495 03bc D2010000 		.4byte	.LBE431
 22496 03c0 D8010000 		.4byte	.LBB432
 22497 03c4 DA010000 		.4byte	.LBE432
 22498 03c8 00000000 		.4byte	0
 22499 03cc 00000000 		.4byte	0
 22500 03d0 86000000 		.4byte	.LBB438
 22501 03d4 8A000000 		.4byte	.LBE438
 22502 03d8 92000000 		.4byte	.LBB441
 22503 03dc 9E000000 		.4byte	.LBE441
 22504 03e0 00000000 		.4byte	0
 22505 03e4 00000000 		.4byte	0
 22506 03e8 BC000000 		.4byte	.LBB442
 22507 03ec CA000000 		.4byte	.LBE442
 22508 03f0 06010000 		.4byte	.LBB447
 22509 03f4 14010000 		.4byte	.LBE447
 22510 03f8 00000000 		.4byte	0
 22511 03fc 00000000 		.4byte	0
 22512 0400 1E010000 		.4byte	.LBB448
 22513 0404 26010000 		.4byte	.LBE448
 22514 0408 28010000 		.4byte	.LBB451
 22515 040c 38010000 		.4byte	.LBE451
 22516 0410 00000000 		.4byte	0
 22517 0414 00000000 		.4byte	0
 22518 0418 00000000 		.4byte	.LFB265
 22519 041c 42000000 		.4byte	.LFE265
 22520 0420 00000000 		.4byte	.LFB268
 22521 0424 2A000000 		.4byte	.LFE268
 22522 0428 00000000 		.4byte	.LFB288
ARM GAS  /tmp/ccZHgRNF.s 			page 397


 22523 042c 68000000 		.4byte	.LFE288
 22524 0430 00000000 		.4byte	.LFB290
 22525 0434 4A000000 		.4byte	.LFE290
 22526 0438 00000000 		.4byte	.LFB247
 22527 043c D2000000 		.4byte	.LFE247
 22528 0440 00000000 		.4byte	.LFB246
 22529 0444 34000000 		.4byte	.LFE246
 22530 0448 00000000 		.4byte	.LFB266
 22531 044c 88000000 		.4byte	.LFE266
 22532 0450 00000000 		.4byte	.LFB267
 22533 0454 24030000 		.4byte	.LFE267
 22534 0458 00000000 		.4byte	.LFB293
 22535 045c C2000000 		.4byte	.LFE293
 22536 0460 00000000 		.4byte	.LFB253
 22537 0464 A0000000 		.4byte	.LFE253
 22538 0468 00000000 		.4byte	.LFB261
 22539 046c 38000000 		.4byte	.LFE261
 22540 0470 00000000 		.4byte	.LFB295
 22541 0474 F2000000 		.4byte	.LFE295
 22542 0478 00000000 		.4byte	.LFB252
 22543 047c C6000000 		.4byte	.LFE252
 22544 0480 00000000 		.4byte	.LFB254
 22545 0484 3A010000 		.4byte	.LFE254
 22546 0488 00000000 		.4byte	.LFB264
 22547 048c FC010000 		.4byte	.LFE264
 22548 0490 00000000 		.4byte	.LFB297
 22549 0494 5C000000 		.4byte	.LFE297
 22550 0498 00000000 		.4byte	.LFB299
 22551 049c 5A000000 		.4byte	.LFE299
 22552 04a0 00000000 		.4byte	.LFB260
 22553 04a4 70000000 		.4byte	.LFE260
 22554 04a8 00000000 		.4byte	.LFB248
 22555 04ac 16000000 		.4byte	.LFE248
 22556 04b0 00000000 		.4byte	.LFB249
 22557 04b4 12000000 		.4byte	.LFE249
 22558 04b8 00000000 		.4byte	.LFB250
 22559 04bc 1C000000 		.4byte	.LFE250
 22560 04c0 00000000 		.4byte	.LFB269
 22561 04c4 5C000000 		.4byte	.LFE269
 22562 04c8 00000000 		.4byte	.LFB270
 22563 04cc 7C010000 		.4byte	.LFE270
 22564 04d0 00000000 		.4byte	.LFB271
 22565 04d4 6C010000 		.4byte	.LFE271
 22566 04d8 00000000 		.4byte	.LFB272
 22567 04dc C6010000 		.4byte	.LFE272
 22568 04e0 00000000 		.4byte	.LFB273
 22569 04e4 A6000000 		.4byte	.LFE273
 22570 04e8 00000000 		.4byte	.LFB274
 22571 04ec 1A000000 		.4byte	.LFE274
 22572 04f0 00000000 		.4byte	.LFB275
 22573 04f4 64010000 		.4byte	.LFE275
 22574 04f8 00000000 		.4byte	.LFB276
 22575 04fc 7E000000 		.4byte	.LFE276
 22576 0500 00000000 		.4byte	.LFB277
 22577 0504 0E000000 		.4byte	.LFE277
 22578 0508 00000000 		.4byte	.LFB278
 22579 050c 5A000000 		.4byte	.LFE278
ARM GAS  /tmp/ccZHgRNF.s 			page 398


 22580 0510 00000000 		.4byte	.LFB279
 22581 0514 4A000000 		.4byte	.LFE279
 22582 0518 00000000 		.4byte	.LFB280
 22583 051c FE000000 		.4byte	.LFE280
 22584 0520 00000000 		.4byte	.LFB281
 22585 0524 D4000000 		.4byte	.LFE281
 22586 0528 00000000 		.4byte	.LFB282
 22587 052c CA000000 		.4byte	.LFE282
 22588 0530 00000000 		.4byte	.LFB283
 22589 0534 08020000 		.4byte	.LFE283
 22590 0538 00000000 		.4byte	.LFB284
 22591 053c 54000000 		.4byte	.LFE284
 22592 0540 00000000 		.4byte	.LFB285
 22593 0544 56000000 		.4byte	.LFE285
 22594 0548 00000000 		.4byte	.LFB286
 22595 054c 44010000 		.4byte	.LFE286
 22596 0550 00000000 		.4byte	0
 22597 0554 00000000 		.4byte	0
 22598              		.section	.debug_line,"",%progbits
 22599              	.Ldebug_line0:
 22600 0000 23100000 		.section	.debug_str,"MS",%progbits,1
 22600      0200CB02 
 22600      00000201 
 22600      FB0E0D00 
 22600      01010101 
 22601              	.LASF121:
 22602 0000 77696E73 		.ascii	"winsect\000"
 22602      65637400 
 22603              	.LASF10:
 22604 0008 73697A65 		.ascii	"size_t\000"
 22604      5F7400
 22605              	.LASF82:
 22606 000f 73697A65 		.ascii	"sizetype\000"
 22606      74797065 
 22606      00
 22607              	.LASF94:
 22608 0018 77747365 		.ascii	"wtsemp\000"
 22608      6D7000
 22609              	.LASF30:
 22610 001f 73797374 		.ascii	"systime_t\000"
 22610      696D655F 
 22610      7400
 22611              	.LASF167:
 22612 0029 6C645F63 		.ascii	"ld_clust\000"
 22612      6C757374 
 22612      00
 22613              	.LASF124:
 22614 0032 66707472 		.ascii	"fptr\000"
 22614      00
 22615              	.LASF35:
 22616 0037 705F6374 		.ascii	"p_ctx\000"
 22616      7800
 22617              	.LASF26:
 22618 003d 74707269 		.ascii	"tprio_t\000"
 22618      6F5F7400 
 22619              	.LASF43:
 22620 0045 705F6D73 		.ascii	"p_msgqueue\000"
ARM GAS  /tmp/ccZHgRNF.s 			page 399


 22620      67717565 
 22620      756500
 22621              	.LASF58:
 22622 0050 725F6374 		.ascii	"r_ctx\000"
 22622      7800
 22623              	.LASF19:
 22624 0056 696E7433 		.ascii	"int32_t\000"
 22624      325F7400 
 22625              	.LASF62:
 22626 005e 76746675 		.ascii	"vtfunc_t\000"
 22626      6E635F74 
 22626      00
 22627              	.LASF170:
 22628 0067 70617468 		.ascii	"path\000"
 22628      00
 22629              	.LASF71:
 22630 006c 63685F76 		.ascii	"ch_virtual_timers_list\000"
 22630      69727475 
 22630      616C5F74 
 22630      696D6572 
 22630      735F6C69 
 22631              	.LASF189:
 22632 0083 6765745F 		.ascii	"get_ldnumber\000"
 22632      6C646E75 
 22632      6D626572 
 22632      00
 22633              	.LASF192:
 22634 0090 66696E64 		.ascii	"find_volume\000"
 22634      5F766F6C 
 22634      756D6500 
 22635              	.LASF116:
 22636 009c 6673697A 		.ascii	"fsize\000"
 22636      6500
 22637              	.LASF222:
 22638 00a2 665F6C73 		.ascii	"f_lseek\000"
 22638      65656B00 
 22639              	.LASF207:
 22640 00aa 666F6C6C 		.ascii	"follow_path\000"
 22640      6F775F70 
 22640      61746800 
 22641              	.LASF191:
 22642 00b6 73796E63 		.ascii	"sync_fs\000"
 22642      5F667300 
 22643              	.LASF106:
 22644 00be 54434841 		.ascii	"TCHAR\000"
 22644      5200
 22645              	.LASF194:
 22646 00c4 73746174 		.ascii	"stat\000"
 22646      00
 22647              	.LASF243:
 22648 00c9 46736964 		.ascii	"Fsid\000"
 22648      00
 22649              	.LASF156:
 22650 00ce 46525F49 		.ascii	"FR_INVALID_PARAMETER\000"
 22650      4E56414C 
 22650      49445F50 
 22650      4152414D 
ARM GAS  /tmp/ccZHgRNF.s 			page 400


 22650      45544552 
 22651              	.LASF196:
 22652 00e3 66617369 		.ascii	"fasize\000"
 22652      7A6500
 22653              	.LASF173:
 22654 00ea 6D6F7665 		.ascii	"move_window\000"
 22654      5F77696E 
 22654      646F7700 
 22655              	.LASF218:
 22656 00f6 77636E74 		.ascii	"wcnt\000"
 22656      00
 22657              	.LASF209:
 22658 00fb 665F6F70 		.ascii	"f_open\000"
 22658      656E00
 22659              	.LASF102:
 22660 0102 6D5F6F77 		.ascii	"m_owner\000"
 22660      6E657200 
 22661              	.LASF69:
 22662 010a 76745F70 		.ascii	"vt_par\000"
 22662      617200
 22663              	.LASF90:
 22664 0111 65786974 		.ascii	"exitcode\000"
 22664      636F6465 
 22664      00
 22665              	.LASF12:
 22666 011a 5F5F7569 		.ascii	"__uint8_t\000"
 22666      6E74385F 
 22666      7400
 22667              	.LASF2:
 22668 0124 42595445 		.ascii	"BYTE\000"
 22668      00
 22669              	.LASF133:
 22670 0129 6674696D 		.ascii	"ftime\000"
 22670      6500
 22671              	.LASF143:
 22672 012f 46525F49 		.ascii	"FR_INVALID_NAME\000"
 22672      4E56414C 
 22672      49445F4E 
 22672      414D4500 
 22673              	.LASF199:
 22674 013f 6E636C73 		.ascii	"nclst\000"
 22674      7400
 22675              	.LASF131:
 22676 0145 73656374 		.ascii	"sect\000"
 22676      00
 22677              	.LASF195:
 22678 014a 62736563 		.ascii	"bsect\000"
 22678      7400
 22679              	.LASF160:
 22680 0150 5245535F 		.ascii	"RES_ERROR\000"
 22680      4552524F 
 22680      5200
 22681              	.LASF114:
 22682 015a 66726565 		.ascii	"free_clust\000"
 22682      5F636C75 
 22682      737400
 22683              	.LASF175:
ARM GAS  /tmp/ccZHgRNF.s 			page 401


 22684 0165 63686563 		.ascii	"check_fs\000"
 22684      6B5F6673 
 22684      00
 22685              	.LASF36:
 22686 016e 705F6E65 		.ascii	"p_newer\000"
 22686      77657200 
 22687              	.LASF232:
 22688 0176 665F756E 		.ascii	"f_unlink\000"
 22688      6C696E6B 
 22688      00
 22689              	.LASF7:
 22690 017f 6C6F6E67 		.ascii	"long int\000"
 22690      20696E74 
 22690      00
 22691              	.LASF32:
 22692 0188 705F6E65 		.ascii	"p_next\000"
 22692      787400
 22693              	.LASF33:
 22694 018f 705F7072 		.ascii	"p_prev\000"
 22694      657600
 22695              	.LASF217:
 22696 0196 665F7772 		.ascii	"f_write\000"
 22696      69746500 
 22697              	.LASF24:
 22698 019e 74737461 		.ascii	"tstate_t\000"
 22698      74655F74 
 22698      00
 22699              	.LASF52:
 22700 01a7 74687265 		.ascii	"threads_queue_t\000"
 22700      6164735F 
 22700      71756575 
 22700      655F7400 
 22701              	.LASF45:
 22702 01b7 705F6D74 		.ascii	"p_mtxlist\000"
 22702      786C6973 
 22702      7400
 22703              	.LASF147:
 22704 01c1 46525F57 		.ascii	"FR_WRITE_PROTECTED\000"
 22704      52495445 
 22704      5F50524F 
 22704      54454354 
 22704      454400
 22705              	.LASF83:
 22706 01d4 72656761 		.ascii	"regarm_t\000"
 22706      726D5F74 
 22706      00
 22707              	.LASF168:
 22708 01dd 63686B5F 		.ascii	"chk_chr\000"
 22708      63687200 
 22709              	.LASF139:
 22710 01e5 46525F49 		.ascii	"FR_INT_ERR\000"
 22710      4E545F45 
 22710      525200
 22711              	.LASF230:
 22712 01f0 66617466 		.ascii	"fatfs\000"
 22712      7300
 22713              	.LASF205:
ARM GAS  /tmp/ccZHgRNF.s 			page 402


 22714 01f6 73747265 		.ascii	"stretch\000"
 22714      74636800 
 22715              	.LASF126:
 22716 01fe 636C7573 		.ascii	"clust\000"
 22716      7400
 22717              	.LASF177:
 22718 0204 6765745F 		.ascii	"get_fat\000"
 22718      66617400 
 22719              	.LASF190:
 22720 020c 76616C69 		.ascii	"validate\000"
 22720      64617465 
 22720      00
 22721              	.LASF172:
 22722 0215 77736563 		.ascii	"wsect\000"
 22722      7400
 22723              	.LASF11:
 22724 021b 7369676E 		.ascii	"signed char\000"
 22724      65642063 
 22724      68617200 
 22725              	.LASF96:
 22726 0227 65776D61 		.ascii	"ewmask\000"
 22726      736B00
 22727              	.LASF18:
 22728 022e 75696E74 		.ascii	"uint8_t\000"
 22728      385F7400 
 22729              	.LASF193:
 22730 0236 776D6F64 		.ascii	"wmode\000"
 22730      6500
 22731              	.LASF28:
 22732 023c 6576656E 		.ascii	"eventmask_t\000"
 22732      746D6173 
 22732      6B5F7400 
 22733              	.LASF85:
 22734 0248 636F6E74 		.ascii	"context\000"
 22734      65787400 
 22735              	.LASF128:
 22736 0250 6469725F 		.ascii	"dir_sect\000"
 22736      73656374 
 22736      00
 22737              	.LASF163:
 22738 0259 5245535F 		.ascii	"RES_PARERR\000"
 22738      50415245 
 22738      525200
 22739              	.LASF92:
 22740 0264 77747472 		.ascii	"wttrp\000"
 22740      7000
 22741              	.LASF155:
 22742 026a 46525F54 		.ascii	"FR_TOO_MANY_OPEN_FILES\000"
 22742      4F4F5F4D 
 22742      414E595F 
 22742      4F50454E 
 22742      5F46494C 
 22743              	.LASF0:
 22744 0281 756E7369 		.ascii	"unsigned char\000"
 22744      676E6564 
 22744      20636861 
 22744      7200
ARM GAS  /tmp/ccZHgRNF.s 			page 403


 22745              	.LASF119:
 22746 028f 64697262 		.ascii	"dirbase\000"
 22746      61736500 
 22747              	.LASF75:
 22748 0297 70616E69 		.ascii	"panic_msg\000"
 22748      635F6D73 
 22748      6700
 22749              	.LASF246:
 22750 02a1 6469736B 		.ascii	"disk_status\000"
 22750      5F737461 
 22750      74757300 
 22751              	.LASF107:
 22752 02ad 66735F74 		.ascii	"fs_type\000"
 22752      79706500 
 22753              	.LASF220:
 22754 02b5 665F7379 		.ascii	"f_sync\000"
 22754      6E6300
 22755              	.LASF254:
 22756 02bc 6765745F 		.ascii	"get_fattime\000"
 22756      66617474 
 22756      696D6500 
 22757              	.LASF140:
 22758 02c8 46525F4E 		.ascii	"FR_NOT_READY\000"
 22758      4F545F52 
 22758      45414459 
 22758      00
 22759              	.LASF59:
 22760 02d5 725F6E65 		.ascii	"r_newer\000"
 22760      77657200 
 22761              	.LASF73:
 22762 02dd 73797374 		.ascii	"system_debug_t\000"
 22762      656D5F64 
 22762      65627567 
 22762      5F7400
 22763              	.LASF238:
 22764 02ec 665F7574 		.ascii	"f_utime\000"
 22764      696D6500 
 22765              	.LASF248:
 22766 02f4 6469736B 		.ascii	"disk_ioctl\000"
 22766      5F696F63 
 22766      746C00
 22767              	.LASF164:
 22768 02ff 44524553 		.ascii	"DRESULT\000"
 22768      554C5400 
 22769              	.LASF224:
 22770 0307 69667074 		.ascii	"ifptr\000"
 22770      7200
 22771              	.LASF236:
 22772 030d 76616C75 		.ascii	"value\000"
 22772      6500
 22773              	.LASF104:
 22774 0313 63686172 		.ascii	"char\000"
 22774      00
 22775              	.LASF203:
 22776 0318 63726561 		.ascii	"create_chain\000"
 22776      74655F63 
 22776      6861696E 
ARM GAS  /tmp/ccZHgRNF.s 			page 404


 22776      00
 22777              	.LASF223:
 22778 0325 6E736563 		.ascii	"nsect\000"
 22778      7400
 22779              	.LASF211:
 22780 032b 665F7265 		.ascii	"f_read\000"
 22780      616400
 22781              	.LASF115:
 22782 0332 6E5F6661 		.ascii	"n_fatent\000"
 22782      74656E74 
 22782      00
 22783              	.LASF34:
 22784 033b 705F7072 		.ascii	"p_prio\000"
 22784      696F00
 22785              	.LASF91:
 22786 0342 77746F62 		.ascii	"wtobjp\000"
 22786      6A7000
 22787              	.LASF144:
 22788 0349 46525F44 		.ascii	"FR_DENIED\000"
 22788      454E4945 
 22788      4400
 22789              	.LASF5:
 22790 0353 55494E54 		.ascii	"UINT\000"
 22790      00
 22791              	.LASF84:
 22792 0358 73746B61 		.ascii	"stkalign_t\000"
 22792      6C69676E 
 22792      5F7400
 22793              	.LASF231:
 22794 0363 665F7472 		.ascii	"f_truncate\000"
 22794      756E6361 
 22794      746500
 22795              	.LASF166:
 22796 036e 6D656D5F 		.ascii	"mem_set\000"
 22796      73657400 
 22797              	.LASF179:
 22798 0376 6469725F 		.ascii	"dir_remove\000"
 22798      72656D6F 
 22798      766500
 22799              	.LASF29:
 22800 0381 636E745F 		.ascii	"cnt_t\000"
 22800      7400
 22801              	.LASF142:
 22802 0387 46525F4E 		.ascii	"FR_NO_PATH\000"
 22802      4F5F5041 
 22802      544800
 22803              	.LASF157:
 22804 0392 46524553 		.ascii	"FRESULT\000"
 22804      554C5400 
 22805              	.LASF184:
 22806 039a 72656D6F 		.ascii	"remove_chain\000"
 22806      76655F63 
 22806      6861696E 
 22806      00
 22807              	.LASF68:
 22808 03a7 76745F66 		.ascii	"vt_func\000"
 22808      756E6300 
ARM GAS  /tmp/ccZHgRNF.s 			page 405


 22809              	.LASF44:
 22810 03af 705F6570 		.ascii	"p_epending\000"
 22810      656E6469 
 22810      6E6700
 22811              	.LASF95:
 22812 03ba 77746D74 		.ascii	"wtmtxp\000"
 22812      787000
 22813              	.LASF181:
 22814 03c1 6D656D5F 		.ascii	"mem_cmp\000"
 22814      636D7000 
 22815              	.LASF148:
 22816 03c9 46525F49 		.ascii	"FR_INVALID_DRIVE\000"
 22816      4E56414C 
 22816      49445F44 
 22816      52495645 
 22816      00
 22817              	.LASF55:
 22818 03da 63685F72 		.ascii	"ch_ready_list\000"
 22818      65616479 
 22818      5F6C6973 
 22818      7400
 22819              	.LASF204:
 22820 03e8 6469725F 		.ascii	"dir_next\000"
 22820      6E657874 
 22820      00
 22821              	.LASF198:
 22822 03f1 73797365 		.ascii	"sysect\000"
 22822      637400
 22823              	.LASF130:
 22824 03f8 696E6465 		.ascii	"index\000"
 22824      7800
 22825              	.LASF253:
 22826 03fe 2F6E6673 		.ascii	"/nfs/nfs4/home/cojthack/442FinalProject/milestone3\000"
 22826      2F6E6673 
 22826      342F686F 
 22826      6D652F63 
 22826      6F6A7468 
 22827              	.LASF241:
 22828 0431 70617468 		.ascii	"path_new\000"
 22828      5F6E6577 
 22828      00
 22829              	.LASF221:
 22830 043a 665F636C 		.ascii	"f_close\000"
 22830      6F736500 
 22831              	.LASF16:
 22832 0442 5F5F7569 		.ascii	"__uint64_t\000"
 22832      6E743634 
 22832      5F7400
 22833              	.LASF9:
 22834 044d 6C6F6E67 		.ascii	"long unsigned int\000"
 22834      20756E73 
 22834      69676E65 
 22834      6420696E 
 22834      7400
 22835              	.LASF208:
 22836 045f 665F6D6F 		.ascii	"f_mount\000"
 22836      756E7400 
ARM GAS  /tmp/ccZHgRNF.s 			page 406


 22837              	.LASF97:
 22838 0467 63685F73 		.ascii	"ch_semaphore\000"
 22838      656D6170 
 22838      686F7265 
 22838      00
 22839              	.LASF50:
 22840 0474 63685F74 		.ascii	"ch_thread\000"
 22840      68726561 
 22840      6400
 22841              	.LASF183:
 22842 047e 6469725F 		.ascii	"dir_register\000"
 22842      72656769 
 22842      73746572 
 22842      00
 22843              	.LASF201:
 22844 048b 6E727376 		.ascii	"nrsv\000"
 22844      00
 22845              	.LASF70:
 22846 0490 76697274 		.ascii	"virtual_timers_list_t\000"
 22846      75616C5F 
 22846      74696D65 
 22846      72735F6C 
 22846      6973745F 
 22847              	.LASF180:
 22848 04a6 7075745F 		.ascii	"put_fat\000"
 22848      66617400 
 22849              	.LASF176:
 22850 04ae 636C7374 		.ascii	"clst\000"
 22850      00
 22851              	.LASF63:
 22852 04b3 76697274 		.ascii	"virtual_timer_t\000"
 22852      75616C5F 
 22852      74696D65 
 22852      725F7400 
 22853              	.LASF54:
 22854 04c3 72656164 		.ascii	"ready_list_t\000"
 22854      795F6C69 
 22854      73745F74 
 22854      00
 22855              	.LASF118:
 22856 04d0 66617462 		.ascii	"fatbase\000"
 22856      61736500 
 22857              	.LASF242:
 22858 04d8 46617446 		.ascii	"FatFs\000"
 22858      7300
 22859              	.LASF178:
 22860 04de 636C7573 		.ascii	"clust2sect\000"
 22860      74327365 
 22860      637400
 22861              	.LASF171:
 22862 04e9 73796E63 		.ascii	"sync_window\000"
 22862      5F77696E 
 22862      646F7700 
 22863              	.LASF51:
 22864 04f5 63685F74 		.ascii	"ch_threads_list\000"
 22864      68726561 
 22864      64735F6C 
ARM GAS  /tmp/ccZHgRNF.s 			page 407


 22864      69737400 
 22865              	.LASF182:
 22866 0505 6D656D5F 		.ascii	"mem_cpy\000"
 22866      63707900 
 22867              	.LASF153:
 22868 050d 46525F4C 		.ascii	"FR_LOCKED\000"
 22868      4F434B45 
 22868      4400
 22869              	.LASF14:
 22870 0517 5F5F7569 		.ascii	"__uint32_t\000"
 22870      6E743332 
 22870      5F7400
 22871              	.LASF15:
 22872 0522 6C6F6E67 		.ascii	"long long int\000"
 22872      206C6F6E 
 22872      6720696E 
 22872      7400
 22873              	.LASF101:
 22874 0530 6D5F7175 		.ascii	"m_queue\000"
 22874      65756500 
 22875              	.LASF135:
 22876 0538 666E616D 		.ascii	"fname\000"
 22876      6500
 22877              	.LASF65:
 22878 053e 76745F6E 		.ascii	"vt_next\000"
 22878      65787400 
 22879              	.LASF66:
 22880 0546 76745F70 		.ascii	"vt_prev\000"
 22880      72657600 
 22881              	.LASF200:
 22882 054e 737A6266 		.ascii	"szbfat\000"
 22882      617400
 22883              	.LASF251:
 22884 0555 474E5520 		.ascii	"GNU C 4.8.4 20140526 (release) [ARM/embedded-4_8-br"
 22884      4320342E 
 22884      382E3420 
 22884      32303134 
 22884      30353236 
 22885 0588 616E6368 		.ascii	"anch revision 211358] -mcpu=cortex-m4 -mno-thumb-in"
 22885      20726576 
 22885      6973696F 
 22885      6E203231 
 22885      31333538 
 22886 05bb 74657277 		.ascii	"terwork -mthumb -ggdb -O2 -fomit-frame-pointer -fal"
 22886      6F726B20 
 22886      2D6D7468 
 22886      756D6220 
 22886      2D676764 
 22887 05ee 69676E2D 		.ascii	"ign-functions=16 -ffunction-sections -fdata-section"
 22887      66756E63 
 22887      74696F6E 
 22887      733D3136 
 22887      202D6666 
 22888 0621 73202D66 		.ascii	"s -fno-common\000"
 22888      6E6F2D63 
 22888      6F6D6D6F 
 22888      6E00
ARM GAS  /tmp/ccZHgRNF.s 			page 408


 22889              	.LASF237:
 22890 062f 6D61736B 		.ascii	"mask\000"
 22890      00
 22891              	.LASF245:
 22892 0634 49544D5F 		.ascii	"ITM_RxBuffer\000"
 22892      52784275 
 22892      66666572 
 22892      00
 22893              	.LASF108:
 22894 0641 6373697A 		.ascii	"csize\000"
 22894      6500
 22895              	.LASF212:
 22896 0647 62756666 		.ascii	"buff\000"
 22896      00
 22897              	.LASF158:
 22898 064c 44535441 		.ascii	"DSTATUS\000"
 22898      54555300 
 22899              	.LASF42:
 22900 0654 705F7761 		.ascii	"p_waiting\000"
 22900      6974696E 
 22900      6700
 22901              	.LASF40:
 22902 065e 705F666C 		.ascii	"p_flags\000"
 22902      61677300 
 22903              	.LASF81:
 22904 0666 69646C65 		.ascii	"idle_thread_wa\000"
 22904      5F746872 
 22904      6561645F 
 22904      776100
 22905              	.LASF6:
 22906 0675 756E7369 		.ascii	"unsigned int\000"
 22906      676E6564 
 22906      20696E74 
 22906      00
 22907              	.LASF174:
 22908 0682 73656374 		.ascii	"sector\000"
 22908      6F7200
 22909              	.LASF154:
 22910 0689 46525F4E 		.ascii	"FR_NOT_ENOUGH_CORE\000"
 22910      4F545F45 
 22910      4E4F5547 
 22910      485F434F 
 22910      524500
 22911              	.LASF22:
 22912 069c 7274636E 		.ascii	"rtcnt_t\000"
 22912      745F7400 
 22913              	.LASF47:
 22914 06a4 705F6D70 		.ascii	"p_mpool\000"
 22914      6F6F6C00 
 22915              	.LASF111:
 22916 06ac 6673695F 		.ascii	"fsi_flag\000"
 22916      666C6167 
 22916      00
 22917              	.LASF159:
 22918 06b5 5245535F 		.ascii	"RES_OK\000"
 22918      4F4B00
 22919              	.LASF41:
ARM GAS  /tmp/ccZHgRNF.s 			page 409


 22920 06bc 705F7265 		.ascii	"p_refs\000"
 22920      667300
 22921              	.LASF123:
 22922 06c3 666C6167 		.ascii	"flag\000"
 22922      00
 22923              	.LASF214:
 22924 06c8 72636E74 		.ascii	"rcnt\000"
 22924      00
 22925              	.LASF113:
 22926 06cd 6C617374 		.ascii	"last_clust\000"
 22926      5F636C75 
 22926      737400
 22927              	.LASF87:
 22928 06d8 6F666673 		.ascii	"offset\000"
 22928      657400
 22929              	.LASF186:
 22930 06df 6469725F 		.ascii	"dir_alloc\000"
 22930      616C6C6F 
 22930      6300
 22931              	.LASF109:
 22932 06e9 6E5F6661 		.ascii	"n_fats\000"
 22932      747300
 22933              	.LASF8:
 22934 06f0 44574F52 		.ascii	"DWORD\000"
 22934      4400
 22935              	.LASF149:
 22936 06f6 46525F4E 		.ascii	"FR_NOT_ENABLED\000"
 22936      4F545F45 
 22936      4E41424C 
 22936      454400
 22937              	.LASF151:
 22938 0705 46525F4D 		.ascii	"FR_MKFS_ABORTED\000"
 22938      4B46535F 
 22938      41424F52 
 22938      54454400 
 22939              	.LASF134:
 22940 0715 66617474 		.ascii	"fattrib\000"
 22940      72696200 
 22941              	.LASF188:
 22942 071d 6469725F 		.ascii	"dir_read\000"
 22942      72656164 
 22942      00
 22943              	.LASF31:
 22944 0726 74687265 		.ascii	"thread_t\000"
 22944      61645F74 
 22944      00
 22945              	.LASF141:
 22946 072f 46525F4E 		.ascii	"FR_NO_FILE\000"
 22946      4F5F4649 
 22946      4C4500
 22947              	.LASF48:
 22948 073a 74687265 		.ascii	"thread_reference_t\000"
 22948      61645F72 
 22948      65666572 
 22948      656E6365 
 22948      5F7400
 22949              	.LASF247:
ARM GAS  /tmp/ccZHgRNF.s 			page 410


 22950 074d 6469736B 		.ascii	"disk_write\000"
 22950      5F777269 
 22950      746500
 22951              	.LASF3:
 22952 0758 574F5244 		.ascii	"WORD\000"
 22952      00
 22953              	.LASF46:
 22954 075d 705F7265 		.ascii	"p_realprio\000"
 22954      616C7072 
 22954      696F00
 22955              	.LASF93:
 22956 0768 73656E74 		.ascii	"sentmsg\000"
 22956      6D736700 
 22957              	.LASF86:
 22958 0770 706F7274 		.ascii	"port_intctx\000"
 22958      5F696E74 
 22958      63747800 
 22959              	.LASF146:
 22960 077c 46525F49 		.ascii	"FR_INVALID_OBJECT\000"
 22960      4E56414C 
 22960      49445F4F 
 22960      424A4543 
 22960      5400
 22961              	.LASF67:
 22962 078e 76745F64 		.ascii	"vt_delta\000"
 22962      656C7461 
 22962      00
 22963              	.LASF197:
 22964 0797 74736563 		.ascii	"tsect\000"
 22964      7400
 22965              	.LASF162:
 22966 079d 5245535F 		.ascii	"RES_NOTRDY\000"
 22966      4E4F5452 
 22966      445900
 22967              	.LASF112:
 22968 07a8 6E5F726F 		.ascii	"n_rootdir\000"
 22968      6F746469 
 22968      7200
 22969              	.LASF64:
 22970 07b2 63685F76 		.ascii	"ch_virtual_timer\000"
 22970      69727475 
 22970      616C5F74 
 22970      696D6572 
 22970      00
 22971              	.LASF99:
 22972 07c3 735F636E 		.ascii	"s_cnt\000"
 22972      7400
 22973              	.LASF233:
 22974 07c9 64636C73 		.ascii	"dclst\000"
 22974      7400
 22975              	.LASF132:
 22976 07cf 66646174 		.ascii	"fdate\000"
 22976      6500
 22977              	.LASF17:
 22978 07d5 6C6F6E67 		.ascii	"long long unsigned int\000"
 22978      206C6F6E 
 22978      6720756E 
ARM GAS  /tmp/ccZHgRNF.s 			page 411


 22978      7369676E 
 22978      65642069 
 22979              	.LASF37:
 22980 07ec 705F6F6C 		.ascii	"p_older\000"
 22980      64657200 
 22981              	.LASF27:
 22982 07f4 6D73675F 		.ascii	"msg_t\000"
 22982      7400
 22983              	.LASF53:
 22984 07fa 63685F74 		.ascii	"ch_threads_queue\000"
 22984      68726561 
 22984      64735F71 
 22984      75657565 
 22984      00
 22985              	.LASF169:
 22986 080b 63726561 		.ascii	"create_name\000"
 22986      74655F6E 
 22986      616D6500 
 22987              	.LASF216:
 22988 0817 72627566 		.ascii	"rbuff\000"
 22988      6600
 22989              	.LASF226:
 22990 081d 665F636C 		.ascii	"f_closedir\000"
 22990      6F736564 
 22990      697200
 22991              	.LASF61:
 22992 0828 725F6375 		.ascii	"r_current\000"
 22992      7272656E 
 22992      7400
 22993              	.LASF152:
 22994 0832 46525F54 		.ascii	"FR_TIMEOUT\000"
 22994      494D454F 
 22994      555400
 22995              	.LASF117:
 22996 083d 766F6C62 		.ascii	"volbase\000"
 22996      61736500 
 22997              	.LASF239:
 22998 0845 665F7265 		.ascii	"f_rename\000"
 22998      6E616D65 
 22998      00
 22999              	.LASF161:
 23000 084e 5245535F 		.ascii	"RES_WRPRT\000"
 23000      57525052 
 23000      5400
 23001              	.LASF80:
 23002 0858 6D61696E 		.ascii	"mainthread\000"
 23002      74687265 
 23002      616400
 23003              	.LASF229:
 23004 0863 665F6765 		.ascii	"f_getfree\000"
 23004      74667265 
 23004      6500
 23005              	.LASF125:
 23006 086d 73636C75 		.ascii	"sclust\000"
 23006      737400
 23007              	.LASF56:
 23008 0874 725F7175 		.ascii	"r_queue\000"
ARM GAS  /tmp/ccZHgRNF.s 			page 412


 23008      65756500 
 23009              	.LASF78:
 23010 087c 726C6973 		.ascii	"rlist\000"
 23010      7400
 23011              	.LASF23:
 23012 0882 746D6F64 		.ascii	"tmode_t\000"
 23012      655F7400 
 23013              	.LASF129:
 23014 088a 6469725F 		.ascii	"dir_ptr\000"
 23014      70747200 
 23015              	.LASF252:
 23016 0892 2E2E2F43 		.ascii	"../ChibiOS/ext/fatfs/src/ff.c\000"
 23016      68696269 
 23016      4F532F65 
 23016      78742F66 
 23016      61746673 
 23017              	.LASF60:
 23018 08b0 725F6F6C 		.ascii	"r_older\000"
 23018      64657200 
 23019              	.LASF88:
 23020 08b8 746D5F63 		.ascii	"tm_calibration_t\000"
 23020      616C6962 
 23020      72617469 
 23020      6F6E5F74 
 23020      00
 23021              	.LASF98:
 23022 08c9 735F7175 		.ascii	"s_queue\000"
 23022      65756500 
 23023              	.LASF234:
 23024 08d1 665F6D6B 		.ascii	"f_mkdir\000"
 23024      64697200 
 23025              	.LASF249:
 23026 08d9 6469736B 		.ascii	"disk_read\000"
 23026      5F726561 
 23026      6400
 23027              	.LASF206:
 23028 08e3 6469725F 		.ascii	"dir_find\000"
 23028      66696E64 
 23028      00
 23029              	.LASF228:
 23030 08ec 665F7374 		.ascii	"f_stat\000"
 23030      617400
 23031              	.LASF1:
 23032 08f3 73686F72 		.ascii	"short int\000"
 23032      7420696E 
 23032      7400
 23033              	.LASF240:
 23034 08fd 70617468 		.ascii	"path_old\000"
 23034      5F6F6C64 
 23034      00
 23035              	.LASF21:
 23036 0906 75696E74 		.ascii	"uint64_t\000"
 23036      36345F74 
 23036      00
 23037              	.LASF210:
 23038 090f 6D6F6465 		.ascii	"mode\000"
 23038      00
ARM GAS  /tmp/ccZHgRNF.s 			page 413


 23039              	.LASF122:
 23040 0914 46415446 		.ascii	"FATFS\000"
 23040      5300
 23041              	.LASF100:
 23042 091a 63685F6D 		.ascii	"ch_mutex\000"
 23042      75746578 
 23042      00
 23043              	.LASF127:
 23044 0923 64736563 		.ascii	"dsect\000"
 23044      7400
 23045              	.LASF165:
 23046 0929 6765745F 		.ascii	"get_fileinfo\000"
 23046      66696C65 
 23046      696E666F 
 23046      00
 23047              	.LASF57:
 23048 0936 725F7072 		.ascii	"r_prio\000"
 23048      696F00
 23049              	.LASF74:
 23050 093d 63685F73 		.ascii	"ch_system_debug\000"
 23050      79737465 
 23050      6D5F6465 
 23050      62756700 
 23051              	.LASF235:
 23052 094d 665F6368 		.ascii	"f_chmod\000"
 23052      6D6F6400 
 23053              	.LASF202:
 23054 0955 6469725F 		.ascii	"dir_sdi\000"
 23054      73646900 
 23055              	.LASF227:
 23056 095d 665F7265 		.ascii	"f_readdir\000"
 23056      61646469 
 23056      7200
 23057              	.LASF79:
 23058 0967 76746C69 		.ascii	"vtlist\000"
 23058      737400
 23059              	.LASF120:
 23060 096e 64617461 		.ascii	"database\000"
 23060      62617365 
 23060      00
 23061              	.LASF105:
 23062 0977 6D757465 		.ascii	"mutex_t\000"
 23062      785F7400 
 23063              	.LASF25:
 23064 097f 74726566 		.ascii	"trefs_t\000"
 23064      735F7400 
 23065              	.LASF49:
 23066 0987 74687265 		.ascii	"threads_list_t\000"
 23066      6164735F 
 23066      6C697374 
 23066      5F7400
 23067              	.LASF225:
 23068 0996 665F6F70 		.ascii	"f_opendir\000"
 23068      656E6469 
 23068      7200
 23069              	.LASF138:
 23070 09a0 46525F44 		.ascii	"FR_DISK_ERR\000"
ARM GAS  /tmp/ccZHgRNF.s 			page 414


 23070      49534B5F 
 23070      45525200 
 23071              	.LASF77:
 23072 09ac 63685F73 		.ascii	"ch_system\000"
 23072      79737465 
 23072      6D00
 23073              	.LASF20:
 23074 09b6 75696E74 		.ascii	"uint32_t\000"
 23074      33325F74 
 23074      00
 23075              	.LASF185:
 23076 09bf 73745F63 		.ascii	"st_clust\000"
 23076      6C757374 
 23076      00
 23077              	.LASF137:
 23078 09c8 46525F4F 		.ascii	"FR_OK\000"
 23078      4B00
 23079              	.LASF89:
 23080 09ce 7264796D 		.ascii	"rdymsg\000"
 23080      736700
 23081              	.LASF244:
 23082 09d5 45784376 		.ascii	"ExCvt\000"
 23082      7400
 23083              	.LASF72:
 23084 09db 76745F6C 		.ascii	"vt_lasttime\000"
 23084      61737474 
 23084      696D6500 
 23085              	.LASF4:
 23086 09e7 73686F72 		.ascii	"short unsigned int\000"
 23086      7420756E 
 23086      7369676E 
 23086      65642069 
 23086      6E7400
 23087              	.LASF145:
 23088 09fa 46525F45 		.ascii	"FR_EXIST\000"
 23088      58495354 
 23088      00
 23089              	.LASF219:
 23090 0a03 77627566 		.ascii	"wbuff\000"
 23090      6600
 23091              	.LASF76:
 23092 0a09 63685F73 		.ascii	"ch_system_t\000"
 23092      79737465 
 23092      6D5F7400 
 23093              	.LASF150:
 23094 0a15 46525F4E 		.ascii	"FR_NO_FILESYSTEM\000"
 23094      4F5F4649 
 23094      4C455359 
 23094      5354454D 
 23094      00
 23095              	.LASF13:
 23096 0a26 5F5F696E 		.ascii	"__int32_t\000"
 23096      7433325F 
 23096      7400
 23097              	.LASF250:
 23098 0a30 6469736B 		.ascii	"disk_initialize\000"
 23098      5F696E69 
ARM GAS  /tmp/ccZHgRNF.s 			page 415


 23098      7469616C 
 23098      697A6500 
 23099              	.LASF213:
 23100 0a40 72656D61 		.ascii	"remain\000"
 23100      696E00
 23101              	.LASF38:
 23102 0a47 705F6E61 		.ascii	"p_name\000"
 23102      6D6500
 23103              	.LASF110:
 23104 0a4e 77666C61 		.ascii	"wflag\000"
 23104      6700
 23105              	.LASF103:
 23106 0a54 6D5F6E65 		.ascii	"m_next\000"
 23106      787400
 23107              	.LASF215:
 23108 0a5b 63736563 		.ascii	"csect\000"
 23108      7400
 23109              	.LASF187:
 23110 0a61 6E656E74 		.ascii	"nent\000"
 23110      00
 23111              	.LASF136:
 23112 0a66 46494C49 		.ascii	"FILINFO\000"
 23112      4E464F00 
 23113              	.LASF39:
 23114 0a6e 705F7374 		.ascii	"p_state\000"
 23114      61746500 
 23115              		.ident	"GCC: (GNU Tools for ARM Embedded Processors) 4.8.4 20140526 (release) [ARM/embedded-4_8-br
ARM GAS  /tmp/ccZHgRNF.s 			page 416


DEFINED SYMBOLS
                            *ABS*:00000000 ff.c
     /tmp/ccZHgRNF.s:19     .text.get_ldnumber:00000000 $t
     /tmp/ccZHgRNF.s:24     .text.get_ldnumber:00000000 get_ldnumber
     /tmp/ccZHgRNF.s:106    .text.validate:00000000 $t
     /tmp/ccZHgRNF.s:111    .text.validate:00000000 validate
     /tmp/ccZHgRNF.s:157    .text.get_fileinfo.isra.1:00000000 $t
     /tmp/ccZHgRNF.s:162    .text.get_fileinfo.isra.1:00000000 get_fileinfo.isra.1
     /tmp/ccZHgRNF.s:257    .text.sync_window.part.3:00000000 $t
     /tmp/ccZHgRNF.s:262    .text.sync_window.part.3:00000000 sync_window.part.3
     /tmp/ccZHgRNF.s:342    .text.sync_fs:00000000 $t
     /tmp/ccZHgRNF.s:347    .text.sync_fs:00000000 sync_fs
     /tmp/ccZHgRNF.s:512    .text.move_window:00000000 $t
     /tmp/ccZHgRNF.s:517    .text.move_window:00000000 move_window
     /tmp/ccZHgRNF.s:589    .text.check_fs:00000000 $t
     /tmp/ccZHgRNF.s:594    .text.check_fs:00000000 check_fs
     /tmp/ccZHgRNF.s:675    .text.check_fs:00000080 $d
     /tmp/ccZHgRNF.s:683    .text.find_volume:00000000 $t
     /tmp/ccZHgRNF.s:688    .text.find_volume:00000000 find_volume
     /tmp/ccZHgRNF.s:1240   .text.find_volume:00000314 $d
     /tmp/ccZHgRNF.s:1248   .text.get_fat.part.6:00000000 $t
     /tmp/ccZHgRNF.s:1253   .text.get_fat.part.6:00000000 get_fat.part.6
     /tmp/ccZHgRNF.s:1397   .text.dir_sdi:00000000 $t
     /tmp/ccZHgRNF.s:1402   .text.dir_sdi:00000000 dir_sdi
     /tmp/ccZHgRNF.s:1575   .text.dir_remove:00000000 $t
     /tmp/ccZHgRNF.s:1580   .text.dir_remove:00000000 dir_remove
     /tmp/ccZHgRNF.s:1653   .text.put_fat.part.8:00000000 $t
     /tmp/ccZHgRNF.s:1658   .text.put_fat.part.8:00000000 put_fat.part.8
     /tmp/ccZHgRNF.s:1841   .text.create_chain:00000000 $t
     /tmp/ccZHgRNF.s:1846   .text.create_chain:00000000 create_chain
     /tmp/ccZHgRNF.s:2053   .text.dir_next:00000000 $t
     /tmp/ccZHgRNF.s:2058   .text.dir_next:00000000 dir_next
     /tmp/ccZHgRNF.s:2364   .text.follow_path:00000000 $t
     /tmp/ccZHgRNF.s:2369   .text.follow_path:00000000 follow_path
     /tmp/ccZHgRNF.s:2813   .text.follow_path:000001f4 $d
     /tmp/ccZHgRNF.s:2821   .text.remove_chain.part.10:00000000 $t
     /tmp/ccZHgRNF.s:2826   .text.remove_chain.part.10:00000000 remove_chain.part.10
     /tmp/ccZHgRNF.s:2935   .text.dir_read.constprop.11:00000000 $t
     /tmp/ccZHgRNF.s:2940   .text.dir_read.constprop.11:00000000 dir_read.constprop.11
     /tmp/ccZHgRNF.s:3049   .text.dir_register:00000000 $t
     /tmp/ccZHgRNF.s:3054   .text.dir_register:00000000 dir_register
     /tmp/ccZHgRNF.s:3189   .text.clust2sect:00000000 $t
     /tmp/ccZHgRNF.s:3195   .text.clust2sect:00000000 clust2sect
     /tmp/ccZHgRNF.s:3225   .text.get_fat:00000000 $t
     /tmp/ccZHgRNF.s:3231   .text.get_fat:00000000 get_fat
     /tmp/ccZHgRNF.s:3257   .text.put_fat:00000000 $t
     /tmp/ccZHgRNF.s:3263   .text.put_fat:00000000 put_fat
     /tmp/ccZHgRNF.s:3298   .text.f_mount:00000000 $t
     /tmp/ccZHgRNF.s:3304   .text.f_mount:00000000 f_mount
     /tmp/ccZHgRNF.s:3404   .text.f_mount:00000058 $d
     /tmp/ccZHgRNF.s:3409   .text.f_open:00000000 $t
     /tmp/ccZHgRNF.s:3415   .text.f_open:00000000 f_open
     /tmp/ccZHgRNF.s:3789   .text.f_read:00000000 $t
     /tmp/ccZHgRNF.s:3795   .text.f_read:00000000 f_read
     /tmp/ccZHgRNF.s:4109   .text.f_write:00000000 $t
     /tmp/ccZHgRNF.s:4115   .text.f_write:00000000 f_write
     /tmp/ccZHgRNF.s:4482   .text.f_sync:00000000 $t
ARM GAS  /tmp/ccZHgRNF.s 			page 417


     /tmp/ccZHgRNF.s:4488   .text.f_sync:00000000 f_sync
     /tmp/ccZHgRNF.s:4626   .text.f_close:00000000 $t
     /tmp/ccZHgRNF.s:4632   .text.f_close:00000000 f_close
     /tmp/ccZHgRNF.s:4671   .text.f_lseek:00000000 $t
     /tmp/ccZHgRNF.s:4677   .text.f_lseek:00000000 f_lseek
     /tmp/ccZHgRNF.s:5010   .text.f_opendir:00000000 $t
     /tmp/ccZHgRNF.s:5016   .text.f_opendir:00000000 f_opendir
     /tmp/ccZHgRNF.s:5159   .text.f_closedir:00000000 $t
     /tmp/ccZHgRNF.s:5165   .text.f_closedir:00000000 f_closedir
     /tmp/ccZHgRNF.s:5192   .text.f_readdir:00000000 $t
     /tmp/ccZHgRNF.s:5198   .text.f_readdir:00000000 f_readdir
     /tmp/ccZHgRNF.s:5292   .text.f_stat:00000000 $t
     /tmp/ccZHgRNF.s:5298   .text.f_stat:00000000 f_stat
     /tmp/ccZHgRNF.s:5377   .text.f_getfree:00000000 $t
     /tmp/ccZHgRNF.s:5383   .text.f_getfree:00000000 f_getfree
     /tmp/ccZHgRNF.s:5617   .text.f_truncate:00000000 $t
     /tmp/ccZHgRNF.s:5623   .text.f_truncate:00000000 f_truncate
     /tmp/ccZHgRNF.s:5845   .text.f_unlink:00000000 $t
     /tmp/ccZHgRNF.s:5851   .text.f_unlink:00000000 f_unlink
     /tmp/ccZHgRNF.s:6068   .text.f_mkdir:00000000 $t
     /tmp/ccZHgRNF.s:6074   .text.f_mkdir:00000000 f_mkdir
     /tmp/ccZHgRNF.s:6572   .text.f_chmod:00000000 $t
     /tmp/ccZHgRNF.s:6578   .text.f_chmod:00000000 f_chmod
     /tmp/ccZHgRNF.s:6674   .text.f_utime:00000000 $t
     /tmp/ccZHgRNF.s:6680   .text.f_utime:00000000 f_utime
     /tmp/ccZHgRNF.s:6775   .text.f_rename:00000000 $t
     /tmp/ccZHgRNF.s:6781   .text.f_rename:00000000 f_rename
     /tmp/ccZHgRNF.s:7102   .bss.Fsid:00000000 $d
     /tmp/ccZHgRNF.s:7106   .bss.Fsid:00000000 Fsid
     /tmp/ccZHgRNF.s:7109   .rodata.str1.4:00000000 $d
     /tmp/ccZHgRNF.s:7113   .rodata.ExCvt:00000000 $d
     /tmp/ccZHgRNF.s:7117   .rodata.ExCvt:00000000 ExCvt
     /tmp/ccZHgRNF.s:7247   .bss.FatFs:00000000 $d
     /tmp/ccZHgRNF.s:7251   .bss.FatFs:00000000 FatFs
                     .debug_frame:00000010 $d
     /tmp/ccZHgRNF.s:682    .text.check_fs:00000088 $t
     /tmp/ccZHgRNF.s:23115  .text.find_volume:00000324 $t
     /tmp/ccZHgRNF.s:2820   .text.follow_path:000001fc $t
     /tmp/ccZHgRNF.s:3408   .text.f_mount:0000005c $t

UNDEFINED SYMBOLS
disk_status
disk_write
disk_ioctl
disk_read
disk_initialize
get_fattime
