ARM GAS  /tmp/ccRd3JRk.s 			page 1


   1              		.syntax unified
   2              		.cpu cortex-m4
   3              		.fpu softvfp
   4              		.eabi_attribute 20, 1
   5              		.eabi_attribute 21, 1
   6              		.eabi_attribute 23, 3
   7              		.eabi_attribute 24, 1
   8              		.eabi_attribute 25, 1
   9              		.eabi_attribute 26, 1
  10              		.eabi_attribute 30, 2
  11              		.eabi_attribute 34, 1
  12              		.eabi_attribute 18, 4
  13              		.thumb
  14              		.file	"gpt.c"
  15              		.text
  16              	.Ltext0:
  17              		.cfi_sections	.debug_frame
  18              		.section	.text.gptInit,"ax",%progbits
  19              		.align	2
  20              		.p2align 4,,15
  21              		.global	gptInit
  22              		.thumb
  23              		.thumb_func
  24              		.type	gptInit, %function
  25              	gptInit:
  26              	.LFB272:
  27              		.file 1 "../ChibiOS/os/hal/src/gpt.c"
  28              		.loc 1 56 0
  29              		.cfi_startproc
  30              		@ args = 0, pretend = 0, frame = 0
  31              		@ frame_needed = 0, uses_anonymous_args = 0
  32              		@ link register save eliminated.
  33              		.loc 1 58 0
  34 0000 FFF7FEBF 		b	gpt_lld_init
  35              	.LVL0:
  36              		.cfi_endproc
  37              	.LFE272:
  38              		.size	gptInit, .-gptInit
  39 0004 AFF30080 		.section	.text.gptObjectInit,"ax",%progbits
  39      AFF30080 
  39      AFF30080 
  40              		.align	2
  41              		.p2align 4,,15
  42              		.global	gptObjectInit
  43              		.thumb
  44              		.thumb_func
  45              		.type	gptObjectInit, %function
  46              	gptObjectInit:
  47              	.LFB273:
  48              		.loc 1 68 0
  49              		.cfi_startproc
  50              		@ args = 0, pretend = 0, frame = 0
  51              		@ frame_needed = 0, uses_anonymous_args = 0
  52              		@ link register save eliminated.
  53              	.LVL1:
  54              		.loc 1 70 0
  55 0000 0122     		movs	r2, #1
ARM GAS  /tmp/ccRd3JRk.s 			page 2


  56              		.loc 1 71 0
  57 0002 0023     		movs	r3, #0
  58              		.loc 1 70 0
  59 0004 0270     		strb	r2, [r0]
  60              		.loc 1 71 0
  61 0006 4360     		str	r3, [r0, #4]
  62 0008 7047     		bx	lr
  63              		.cfi_endproc
  64              	.LFE273:
  65              		.size	gptObjectInit, .-gptObjectInit
  66 000a 00BFAFF3 		.section	.text.gptStart,"ax",%progbits
  66      0080
  67              		.align	2
  68              		.p2align 4,,15
  69              		.global	gptStart
  70              		.thumb
  71              		.thumb_func
  72              		.type	gptStart, %function
  73              	gptStart:
  74              	.LFB274:
  75              		.loc 1 82 0
  76              		.cfi_startproc
  77              		@ args = 0, pretend = 0, frame = 0
  78              		@ frame_needed = 0, uses_anonymous_args = 0
  79              	.LVL2:
  80 0000 10B5     		push	{r4, lr}
  81              		.cfi_def_cfa_offset 8
  82              		.cfi_offset 4, -8
  83              		.cfi_offset 14, -4
  84              	.LBB108:
  85              	.LBB109:
  86              	.LBB110:
  87              	.LBB111:
  88              	.LBB112:
  89              		.file 2 "../ChibiOS/os/ext/CMSIS/include/core_cmFunc.h"
  90              		.loc 2 548 0
  91 0002 2023     		movs	r3, #32
  92              	.LBE112:
  93              	.LBE111:
  94              	.LBE110:
  95              	.LBE109:
  96              	.LBE108:
  97              		.loc 1 82 0
  98 0004 0446     		mov	r4, r0
  99              	.LBB117:
 100              	.LBB116:
 101              	.LBB115:
 102              	.LBB114:
 103              	.LBB113:
 104              		.loc 2 548 0
 105              	@ 548 "../ChibiOS/os/ext/CMSIS/include/core_cmFunc.h" 1
 106 0006 83F31188 		MSR basepri, r3
 107              	@ 0 "" 2
 108              		.thumb
 109              	.LBE113:
 110              	.LBE114:
 111              	.LBE115:
ARM GAS  /tmp/ccRd3JRk.s 			page 3


 112              	.LBE116:
 113              	.LBE117:
 114              		.loc 1 89 0
 115 000a 4160     		str	r1, [r0, #4]
 116              		.loc 1 90 0
 117 000c FFF7FEFF 		bl	gpt_lld_start
 118              	.LVL3:
 119              		.loc 1 91 0
 120 0010 0223     		movs	r3, #2
 121 0012 2370     		strb	r3, [r4]
 122              	.LVL4:
 123              	.LBB118:
 124              	.LBB119:
 125              	.LBB120:
 126              	.LBB121:
 127              	.LBB122:
 128              	.LBB123:
 129              		.loc 2 548 0
 130 0014 0023     		movs	r3, #0
 131              	@ 548 "../ChibiOS/os/ext/CMSIS/include/core_cmFunc.h" 1
 132 0016 83F31188 		MSR basepri, r3
 133              	@ 0 "" 2
 134              		.thumb
 135 001a 10BD     		pop	{r4, pc}
 136              	.LBE123:
 137              	.LBE122:
 138              	.LBE121:
 139              	.LBE120:
 140              	.LBE119:
 141              	.LBE118:
 142              		.cfi_endproc
 143              	.LFE274:
 144              		.size	gptStart, .-gptStart
 145 001c AFF30080 		.section	.text.gptStop,"ax",%progbits
 146              		.align	2
 147              		.p2align 4,,15
 148              		.global	gptStop
 149              		.thumb
 150              		.thumb_func
 151              		.type	gptStop, %function
 152              	gptStop:
 153              	.LFB275:
 154              		.loc 1 102 0
 155              		.cfi_startproc
 156              		@ args = 0, pretend = 0, frame = 0
 157              		@ frame_needed = 0, uses_anonymous_args = 0
 158              	.LVL5:
 159 0000 10B5     		push	{r4, lr}
 160              		.cfi_def_cfa_offset 8
 161              		.cfi_offset 4, -8
 162              		.cfi_offset 14, -4
 163              	.LBB124:
 164              	.LBB125:
 165              	.LBB126:
 166              	.LBB127:
 167              	.LBB128:
 168              		.loc 2 548 0
ARM GAS  /tmp/ccRd3JRk.s 			page 4


 169 0002 2023     		movs	r3, #32
 170              	.LBE128:
 171              	.LBE127:
 172              	.LBE126:
 173              	.LBE125:
 174              	.LBE124:
 175              		.loc 1 102 0
 176 0004 0446     		mov	r4, r0
 177              	.LBB133:
 178              	.LBB132:
 179              	.LBB131:
 180              	.LBB130:
 181              	.LBB129:
 182              		.loc 2 548 0
 183              	@ 548 "../ChibiOS/os/ext/CMSIS/include/core_cmFunc.h" 1
 184 0006 83F31188 		MSR basepri, r3
 185              	@ 0 "" 2
 186              		.thumb
 187              	.LBE129:
 188              	.LBE130:
 189              	.LBE131:
 190              	.LBE132:
 191              	.LBE133:
 192              		.loc 1 109 0
 193 000a FFF7FEFF 		bl	gpt_lld_stop
 194              	.LVL6:
 195              		.loc 1 110 0
 196 000e 0123     		movs	r3, #1
 197 0010 2370     		strb	r3, [r4]
 198              	.LVL7:
 199              	.LBB134:
 200              	.LBB135:
 201              	.LBB136:
 202              	.LBB137:
 203              	.LBB138:
 204              	.LBB139:
 205              		.loc 2 548 0
 206 0012 0023     		movs	r3, #0
 207              	@ 548 "../ChibiOS/os/ext/CMSIS/include/core_cmFunc.h" 1
 208 0014 83F31188 		MSR basepri, r3
 209              	@ 0 "" 2
 210              		.thumb
 211 0018 10BD     		pop	{r4, pc}
 212              	.LBE139:
 213              	.LBE138:
 214              	.LBE137:
 215              	.LBE136:
 216              	.LBE135:
 217              	.LBE134:
 218              		.cfi_endproc
 219              	.LFE275:
 220              		.size	gptStop, .-gptStop
 221 001a 00BFAFF3 		.section	.text.gptChangeInterval,"ax",%progbits
 221      0080
 222              		.align	2
 223              		.p2align 4,,15
 224              		.global	gptChangeInterval
ARM GAS  /tmp/ccRd3JRk.s 			page 5


 225              		.thumb
 226              		.thumb_func
 227              		.type	gptChangeInterval, %function
 228              	gptChangeInterval:
 229              	.LFB276:
 230              		.loc 1 125 0
 231              		.cfi_startproc
 232              		@ args = 0, pretend = 0, frame = 0
 233              		@ frame_needed = 0, uses_anonymous_args = 0
 234              		@ link register save eliminated.
 235              	.LVL8:
 236              	.LBB140:
 237              	.LBB141:
 238              	.LBB142:
 239              	.LBB143:
 240              	.LBB144:
 241              		.loc 2 548 0
 242 0000 2023     		movs	r3, #32
 243              	@ 548 "../ChibiOS/os/ext/CMSIS/include/core_cmFunc.h" 1
 244 0002 83F31188 		MSR basepri, r3
 245              	@ 0 "" 2
 246              		.thumb
 247              	.LBE144:
 248              	.LBE143:
 249              	.LBE142:
 250              	.LBE141:
 251              	.LBE140:
 252              		.loc 1 132 0
 253 0006 C368     		ldr	r3, [r0, #12]
 254 0008 0139     		subs	r1, r1, #1
 255              	.LVL9:
 256 000a D962     		str	r1, [r3, #44]
 257              	.LVL10:
 258              	.LBB145:
 259              	.LBB146:
 260              	.LBB147:
 261              	.LBB148:
 262              	.LBB149:
 263              	.LBB150:
 264              		.loc 2 548 0
 265 000c 0023     		movs	r3, #0
 266              	@ 548 "../ChibiOS/os/ext/CMSIS/include/core_cmFunc.h" 1
 267 000e 83F31188 		MSR basepri, r3
 268              	@ 0 "" 2
 269              		.thumb
 270 0012 7047     		bx	lr
 271              	.LBE150:
 272              	.LBE149:
 273              	.LBE148:
 274              	.LBE147:
 275              	.LBE146:
 276              	.LBE145:
 277              		.cfi_endproc
 278              	.LFE276:
 279              		.size	gptChangeInterval, .-gptChangeInterval
 280 0014 AFF30080 		.section	.text.gptStartContinuous,"ax",%progbits
 280      AFF30080 
ARM GAS  /tmp/ccRd3JRk.s 			page 6


 280      AFF30080 
 281              		.align	2
 282              		.p2align 4,,15
 283              		.global	gptStartContinuous
 284              		.thumb
 285              		.thumb_func
 286              		.type	gptStartContinuous, %function
 287              	gptStartContinuous:
 288              	.LFB277:
 289              		.loc 1 144 0
 290              		.cfi_startproc
 291              		@ args = 0, pretend = 0, frame = 0
 292              		@ frame_needed = 0, uses_anonymous_args = 0
 293              	.LVL11:
 294 0000 08B5     		push	{r3, lr}
 295              		.cfi_def_cfa_offset 8
 296              		.cfi_offset 3, -8
 297              		.cfi_offset 14, -4
 298              	.LBB151:
 299              	.LBB152:
 300              	.LBB153:
 301              	.LBB154:
 302              	.LBB155:
 303              		.loc 2 548 0
 304 0002 2022     		movs	r2, #32
 305              	@ 548 "../ChibiOS/os/ext/CMSIS/include/core_cmFunc.h" 1
 306 0004 82F31188 		MSR basepri, r2
 307              	@ 0 "" 2
 308              	.LVL12:
 309              		.thumb
 310              	.LBE155:
 311              	.LBE154:
 312              	.LBE153:
 313              	.LBE152:
 314              	.LBE151:
 315              	.LBB156:
 316              	.LBB157:
 317              		.loc 1 166 0
 318 0008 0322     		movs	r2, #3
 319 000a 0270     		strb	r2, [r0]
 320              		.loc 1 167 0
 321 000c FFF7FEFF 		bl	gpt_lld_start_timer
 322              	.LVL13:
 323              	.LBE157:
 324              	.LBE156:
 325              	.LBB158:
 326              	.LBB159:
 327              	.LBB160:
 328              	.LBB161:
 329              	.LBB162:
 330              	.LBB163:
 331              		.loc 2 548 0
 332 0010 0023     		movs	r3, #0
 333              	@ 548 "../ChibiOS/os/ext/CMSIS/include/core_cmFunc.h" 1
 334 0012 83F31188 		MSR basepri, r3
 335              	@ 0 "" 2
 336              		.thumb
ARM GAS  /tmp/ccRd3JRk.s 			page 7


 337 0016 08BD     		pop	{r3, pc}
 338              	.LBE163:
 339              	.LBE162:
 340              	.LBE161:
 341              	.LBE160:
 342              	.LBE159:
 343              	.LBE158:
 344              		.cfi_endproc
 345              	.LFE277:
 346              		.size	gptStartContinuous, .-gptStartContinuous
 347 0018 AFF30080 		.section	.text.gptStartContinuousI,"ax",%progbits
 347      AFF30080 
 348              		.align	2
 349              		.p2align 4,,15
 350              		.global	gptStartContinuousI
 351              		.thumb
 352              		.thumb_func
 353              		.type	gptStartContinuousI, %function
 354              	gptStartContinuousI:
 355              	.LFB278:
 356              		.loc 1 159 0
 357              		.cfi_startproc
 358              		@ args = 0, pretend = 0, frame = 0
 359              		@ frame_needed = 0, uses_anonymous_args = 0
 360              		@ link register save eliminated.
 361              	.LVL14:
 362              		.loc 1 166 0
 363 0000 0323     		movs	r3, #3
 364 0002 0370     		strb	r3, [r0]
 365              		.loc 1 167 0
 366 0004 FFF7FEBF 		b	gpt_lld_start_timer
 367              	.LVL15:
 368              		.cfi_endproc
 369              	.LFE278:
 370              		.size	gptStartContinuousI, .-gptStartContinuousI
 371 0008 AFF30080 		.section	.text.gptStartOneShot,"ax",%progbits
 371      AFF30080 
 372              		.align	2
 373              		.p2align 4,,15
 374              		.global	gptStartOneShot
 375              		.thumb
 376              		.thumb_func
 377              		.type	gptStartOneShot, %function
 378              	gptStartOneShot:
 379              	.LFB279:
 380              		.loc 1 178 0
 381              		.cfi_startproc
 382              		@ args = 0, pretend = 0, frame = 0
 383              		@ frame_needed = 0, uses_anonymous_args = 0
 384              	.LVL16:
 385 0000 08B5     		push	{r3, lr}
 386              		.cfi_def_cfa_offset 8
 387              		.cfi_offset 3, -8
 388              		.cfi_offset 14, -4
 389              	.LBB164:
 390              	.LBB165:
 391              	.LBB166:
ARM GAS  /tmp/ccRd3JRk.s 			page 8


 392              	.LBB167:
 393              	.LBB168:
 394              		.loc 2 548 0
 395 0002 2022     		movs	r2, #32
 396              	@ 548 "../ChibiOS/os/ext/CMSIS/include/core_cmFunc.h" 1
 397 0004 82F31188 		MSR basepri, r2
 398              	@ 0 "" 2
 399              	.LVL17:
 400              		.thumb
 401              	.LBE168:
 402              	.LBE167:
 403              	.LBE166:
 404              	.LBE165:
 405              	.LBE164:
 406              	.LBB169:
 407              	.LBB170:
 408              		.loc 1 201 0
 409 0008 0422     		movs	r2, #4
 410 000a 0270     		strb	r2, [r0]
 411              		.loc 1 202 0
 412 000c FFF7FEFF 		bl	gpt_lld_start_timer
 413              	.LVL18:
 414              	.LBE170:
 415              	.LBE169:
 416              	.LBB171:
 417              	.LBB172:
 418              	.LBB173:
 419              	.LBB174:
 420              	.LBB175:
 421              	.LBB176:
 422              		.loc 2 548 0
 423 0010 0023     		movs	r3, #0
 424              	@ 548 "../ChibiOS/os/ext/CMSIS/include/core_cmFunc.h" 1
 425 0012 83F31188 		MSR basepri, r3
 426              	@ 0 "" 2
 427              		.thumb
 428 0016 08BD     		pop	{r3, pc}
 429              	.LBE176:
 430              	.LBE175:
 431              	.LBE174:
 432              	.LBE173:
 433              	.LBE172:
 434              	.LBE171:
 435              		.cfi_endproc
 436              	.LFE279:
 437              		.size	gptStartOneShot, .-gptStartOneShot
 438 0018 AFF30080 		.section	.text.gptStartOneShotI,"ax",%progbits
 438      AFF30080 
 439              		.align	2
 440              		.p2align 4,,15
 441              		.global	gptStartOneShotI
 442              		.thumb
 443              		.thumb_func
 444              		.type	gptStartOneShotI, %function
 445              	gptStartOneShotI:
 446              	.LFB280:
 447              		.loc 1 193 0
ARM GAS  /tmp/ccRd3JRk.s 			page 9


 448              		.cfi_startproc
 449              		@ args = 0, pretend = 0, frame = 0
 450              		@ frame_needed = 0, uses_anonymous_args = 0
 451              		@ link register save eliminated.
 452              	.LVL19:
 453              		.loc 1 201 0
 454 0000 0423     		movs	r3, #4
 455 0002 0370     		strb	r3, [r0]
 456              		.loc 1 202 0
 457 0004 FFF7FEBF 		b	gpt_lld_start_timer
 458              	.LVL20:
 459              		.cfi_endproc
 460              	.LFE280:
 461              		.size	gptStartOneShotI, .-gptStartOneShotI
 462 0008 AFF30080 		.section	.text.gptStopTimer,"ax",%progbits
 462      AFF30080 
 463              		.align	2
 464              		.p2align 4,,15
 465              		.global	gptStopTimer
 466              		.thumb
 467              		.thumb_func
 468              		.type	gptStopTimer, %function
 469              	gptStopTimer:
 470              	.LFB281:
 471              		.loc 1 212 0
 472              		.cfi_startproc
 473              		@ args = 0, pretend = 0, frame = 0
 474              		@ frame_needed = 0, uses_anonymous_args = 0
 475              	.LVL21:
 476 0000 08B5     		push	{r3, lr}
 477              		.cfi_def_cfa_offset 8
 478              		.cfi_offset 3, -8
 479              		.cfi_offset 14, -4
 480              	.LBB177:
 481              	.LBB178:
 482              	.LBB179:
 483              	.LBB180:
 484              	.LBB181:
 485              		.loc 2 548 0
 486 0002 2022     		movs	r2, #32
 487              	@ 548 "../ChibiOS/os/ext/CMSIS/include/core_cmFunc.h" 1
 488 0004 82F31188 		MSR basepri, r2
 489              	@ 0 "" 2
 490              	.LVL22:
 491              		.thumb
 492              	.LBE181:
 493              	.LBE180:
 494              	.LBE179:
 495              	.LBE178:
 496              	.LBE177:
 497              	.LBB182:
 498              	.LBB183:
 499              		.loc 1 234 0
 500 0008 0222     		movs	r2, #2
 501 000a 0270     		strb	r2, [r0]
 502              		.loc 1 235 0
 503 000c FFF7FEFF 		bl	gpt_lld_stop_timer
ARM GAS  /tmp/ccRd3JRk.s 			page 10


 504              	.LVL23:
 505              	.LBE183:
 506              	.LBE182:
 507              	.LBB184:
 508              	.LBB185:
 509              	.LBB186:
 510              	.LBB187:
 511              	.LBB188:
 512              	.LBB189:
 513              		.loc 2 548 0
 514 0010 0023     		movs	r3, #0
 515              	@ 548 "../ChibiOS/os/ext/CMSIS/include/core_cmFunc.h" 1
 516 0012 83F31188 		MSR basepri, r3
 517              	@ 0 "" 2
 518              		.thumb
 519 0016 08BD     		pop	{r3, pc}
 520              	.LBE189:
 521              	.LBE188:
 522              	.LBE187:
 523              	.LBE186:
 524              	.LBE185:
 525              	.LBE184:
 526              		.cfi_endproc
 527              	.LFE281:
 528              		.size	gptStopTimer, .-gptStopTimer
 529 0018 AFF30080 		.section	.text.gptStopTimerI,"ax",%progbits
 529      AFF30080 
 530              		.align	2
 531              		.p2align 4,,15
 532              		.global	gptStopTimerI
 533              		.thumb
 534              		.thumb_func
 535              		.type	gptStopTimerI, %function
 536              	gptStopTimerI:
 537              	.LFB282:
 538              		.loc 1 226 0
 539              		.cfi_startproc
 540              		@ args = 0, pretend = 0, frame = 0
 541              		@ frame_needed = 0, uses_anonymous_args = 0
 542              		@ link register save eliminated.
 543              	.LVL24:
 544              		.loc 1 234 0
 545 0000 0223     		movs	r3, #2
 546 0002 0370     		strb	r3, [r0]
 547              		.loc 1 235 0
 548 0004 FFF7FEBF 		b	gpt_lld_stop_timer
 549              	.LVL25:
 550              		.cfi_endproc
 551              	.LFE282:
 552              		.size	gptStopTimerI, .-gptStopTimerI
 553 0008 AFF30080 		.section	.text.gptPolledDelay,"ax",%progbits
 553      AFF30080 
 554              		.align	2
 555              		.p2align 4,,15
 556              		.global	gptPolledDelay
 557              		.thumb
 558              		.thumb_func
ARM GAS  /tmp/ccRd3JRk.s 			page 11


 559              		.type	gptPolledDelay, %function
 560              	gptPolledDelay:
 561              	.LFB283:
 562              		.loc 1 250 0
 563              		.cfi_startproc
 564              		@ args = 0, pretend = 0, frame = 0
 565              		@ frame_needed = 0, uses_anonymous_args = 0
 566              	.LVL26:
 567 0000 10B5     		push	{r4, lr}
 568              		.cfi_def_cfa_offset 8
 569              		.cfi_offset 4, -8
 570              		.cfi_offset 14, -4
 571              		.loc 1 255 0
 572 0002 0423     		movs	r3, #4
 573              		.loc 1 250 0
 574 0004 0446     		mov	r4, r0
 575              		.loc 1 255 0
 576 0006 0370     		strb	r3, [r0]
 577              		.loc 1 256 0
 578 0008 FFF7FEFF 		bl	gpt_lld_polled_delay
 579              	.LVL27:
 580              		.loc 1 257 0
 581 000c 0223     		movs	r3, #2
 582 000e 2370     		strb	r3, [r4]
 583 0010 10BD     		pop	{r4, pc}
 584              		.cfi_endproc
 585              	.LFE283:
 586              		.size	gptPolledDelay, .-gptPolledDelay
 587 0012 00BFAFF3 		.text
 587      0080AFF3 
 587      0080AFF3 
 587      0080
 588              	.Letext0:
 589              		.file 3 "/nfs/nfs5/home/research/hardware/arm2/gcc-arm-embedded/gcc-arm-none-eabi-4_8-2014q2/arm-n
 590              		.file 4 "/nfs/nfs5/home/research/hardware/arm2/gcc-arm-embedded/gcc-arm-none-eabi-4_8-2014q2/arm-n
 591              		.file 5 "../ChibiOS/os/rt/ports/ARMCMx/compilers/GCC/chtypes.h"
 592              		.file 6 "../ChibiOS/os/rt/include/chsystypes.h"
 593              		.file 7 "../ChibiOS/os/rt/include/chschd.h"
 594              		.file 8 "../ChibiOS/os/rt/ports/ARMCMx/chcore.h"
 595              		.file 9 "../ChibiOS/os/rt/ports/ARMCMx/chcore_v7m.h"
 596              		.file 10 "../ChibiOS/os/hal/ports/STM32/LLD/TIMv1/stm32_tim.h"
 597              		.file 11 "../ChibiOS/os/rt/include/chtm.h"
 598              		.file 12 "../ChibiOS/os/rt/include/chsem.h"
 599              		.file 13 "../ChibiOS/os/rt/include/chmtx.h"
 600              		.file 14 "../ChibiOS/os/hal/include/gpt.h"
 601              		.file 15 "../ChibiOS/os/hal/ports/STM32/LLD/TIMv1/gpt_lld.h"
 602              		.file 16 "../ChibiOS/os/rt/include/chsys.h"
 603              		.file 17 "../ChibiOS/os/hal/osal/rt/osal.h"
 604              		.file 18 "../ChibiOS/os/ext/CMSIS/include/core_cm4.h"
 605              		.section	.debug_info,"",%progbits
 606              	.Ldebug_info0:
 607 0000 E6110000 		.4byte	0x11e6
 608 0004 0400     		.2byte	0x4
 609 0006 00000000 		.4byte	.Ldebug_abbrev0
 610 000a 04       		.byte	0x4
 611 000b 01       		.uleb128 0x1
 612 000c 5D050000 		.4byte	.LASF157
ARM GAS  /tmp/ccRd3JRk.s 			page 12


 613 0010 01       		.byte	0x1
 614 0011 5B070000 		.4byte	.LASF158
 615 0015 E0040000 		.4byte	.LASF159
 616 0019 30000000 		.4byte	.Ldebug_ranges0+0x30
 617 001d 00000000 		.4byte	0
 618 0021 00000000 		.4byte	.Ldebug_line0
 619 0025 02       		.uleb128 0x2
 620 0026 04       		.byte	0x4
 621 0027 05       		.byte	0x5
 622 0028 696E7400 		.ascii	"int\000"
 623 002c 03       		.uleb128 0x3
 624 002d 04       		.byte	0x4
 625 002e 07       		.byte	0x7
 626 002f 29020000 		.4byte	.LASF0
 627 0033 03       		.uleb128 0x3
 628 0034 01       		.byte	0x1
 629 0035 06       		.byte	0x6
 630 0036 00010000 		.4byte	.LASF1
 631 003a 04       		.uleb128 0x4
 632 003b 28000000 		.4byte	.LASF5
 633 003f 03       		.byte	0x3
 634 0040 1C       		.byte	0x1c
 635 0041 45000000 		.4byte	0x45
 636 0045 03       		.uleb128 0x3
 637 0046 01       		.byte	0x1
 638 0047 08       		.byte	0x8
 639 0048 31040000 		.4byte	.LASF2
 640 004c 03       		.uleb128 0x3
 641 004d 02       		.byte	0x2
 642 004e 05       		.byte	0x5
 643 004f 49040000 		.4byte	.LASF3
 644 0053 03       		.uleb128 0x3
 645 0054 02       		.byte	0x2
 646 0055 07       		.byte	0x7
 647 0056 B6010000 		.4byte	.LASF4
 648 005a 04       		.uleb128 0x4
 649 005b 0A030000 		.4byte	.LASF6
 650 005f 03       		.byte	0x3
 651 0060 37       		.byte	0x37
 652 0061 65000000 		.4byte	0x65
 653 0065 03       		.uleb128 0x3
 654 0066 04       		.byte	0x4
 655 0067 05       		.byte	0x5
 656 0068 46010000 		.4byte	.LASF7
 657 006c 04       		.uleb128 0x4
 658 006d 5C060000 		.4byte	.LASF8
 659 0071 03       		.byte	0x3
 660 0072 38       		.byte	0x38
 661 0073 77000000 		.4byte	0x77
 662 0077 03       		.uleb128 0x3
 663 0078 04       		.byte	0x4
 664 0079 07       		.byte	0x7
 665 007a 2C050000 		.4byte	.LASF9
 666 007e 03       		.uleb128 0x3
 667 007f 08       		.byte	0x8
 668 0080 05       		.byte	0x5
 669 0081 76010000 		.4byte	.LASF10
ARM GAS  /tmp/ccRd3JRk.s 			page 13


 670 0085 04       		.uleb128 0x4
 671 0086 D5030000 		.4byte	.LASF11
 672 008a 03       		.byte	0x3
 673 008b 4E       		.byte	0x4e
 674 008c 90000000 		.4byte	0x90
 675 0090 03       		.uleb128 0x3
 676 0091 08       		.byte	0x8
 677 0092 07       		.byte	0x7
 678 0093 7A000000 		.4byte	.LASF12
 679 0097 04       		.uleb128 0x4
 680 0098 05070000 		.4byte	.LASF13
 681 009c 04       		.byte	0x4
 682 009d 2A       		.byte	0x2a
 683 009e 3A000000 		.4byte	0x3a
 684 00a2 04       		.uleb128 0x4
 685 00a3 29040000 		.4byte	.LASF14
 686 00a7 04       		.byte	0x4
 687 00a8 41       		.byte	0x41
 688 00a9 5A000000 		.4byte	0x5a
 689 00ad 04       		.uleb128 0x4
 690 00ae D0040000 		.4byte	.LASF15
 691 00b2 04       		.byte	0x4
 692 00b3 42       		.byte	0x42
 693 00b4 6C000000 		.4byte	0x6c
 694 00b8 04       		.uleb128 0x4
 695 00b9 1F000000 		.4byte	.LASF16
 696 00bd 04       		.byte	0x4
 697 00be 4E       		.byte	0x4e
 698 00bf 85000000 		.4byte	0x85
 699 00c3 04       		.uleb128 0x4
 700 00c4 A0060000 		.4byte	.LASF17
 701 00c8 05       		.byte	0x5
 702 00c9 39       		.byte	0x39
 703 00ca AD000000 		.4byte	0xad
 704 00ce 04       		.uleb128 0x4
 705 00cf 39070000 		.4byte	.LASF18
 706 00d3 05       		.byte	0x5
 707 00d4 3C       		.byte	0x3c
 708 00d5 97000000 		.4byte	0x97
 709 00d9 04       		.uleb128 0x4
 710 00da 60010000 		.4byte	.LASF19
 711 00de 05       		.byte	0x5
 712 00df 3D       		.byte	0x3d
 713 00e0 97000000 		.4byte	0x97
 714 00e4 04       		.uleb128 0x4
 715 00e5 E0030000 		.4byte	.LASF20
 716 00e9 05       		.byte	0x5
 717 00ea 3E       		.byte	0x3e
 718 00eb 97000000 		.4byte	0x97
 719 00ef 04       		.uleb128 0x4
 720 00f0 0B040000 		.4byte	.LASF21
 721 00f4 05       		.byte	0x5
 722 00f5 40       		.byte	0x40
 723 00f6 AD000000 		.4byte	0xad
 724 00fa 04       		.uleb128 0x4
 725 00fb A0020000 		.4byte	.LASF22
 726 00ff 05       		.byte	0x5
ARM GAS  /tmp/ccRd3JRk.s 			page 14


 727 0100 41       		.byte	0x41
 728 0101 A2000000 		.4byte	0xa2
 729 0105 04       		.uleb128 0x4
 730 0106 FE020000 		.4byte	.LASF23
 731 010a 05       		.byte	0x5
 732 010b 43       		.byte	0x43
 733 010c AD000000 		.4byte	0xad
 734 0110 04       		.uleb128 0x4
 735 0111 73030000 		.4byte	.LASF24
 736 0115 05       		.byte	0x5
 737 0116 45       		.byte	0x45
 738 0117 A2000000 		.4byte	0xa2
 739 011b 04       		.uleb128 0x4
 740 011c 3E060000 		.4byte	.LASF25
 741 0120 06       		.byte	0x6
 742 0121 33       		.byte	0x33
 743 0122 AD000000 		.4byte	0xad
 744 0126 04       		.uleb128 0x4
 745 0127 54050000 		.4byte	.LASF26
 746 012b 06       		.byte	0x6
 747 012c 3F       		.byte	0x3f
 748 012d 31010000 		.4byte	0x131
 749 0131 05       		.uleb128 0x5
 750 0132 6E020000 		.4byte	.LASF45
 751 0136 40       		.byte	0x40
 752 0137 07       		.byte	0x7
 753 0138 C2       		.byte	0xc2
 754 0139 11020000 		.4byte	0x211
 755 013d 06       		.uleb128 0x6
 756 013e 69040000 		.4byte	.LASF27
 757 0142 07       		.byte	0x7
 758 0143 C3       		.byte	0xc3
 759 0144 1C020000 		.4byte	0x21c
 760 0148 00       		.byte	0
 761 0149 06       		.uleb128 0x6
 762 014a 04040000 		.4byte	.LASF28
 763 014e 07       		.byte	0x7
 764 014f C5       		.byte	0xc5
 765 0150 1C020000 		.4byte	0x21c
 766 0154 04       		.byte	0x4
 767 0155 06       		.uleb128 0x6
 768 0156 E7000000 		.4byte	.LASF29
 769 015a 07       		.byte	0x7
 770 015b C7       		.byte	0xc7
 771 015c EF000000 		.4byte	0xef
 772 0160 08       		.byte	0x8
 773 0161 06       		.uleb128 0x6
 774 0162 77070000 		.4byte	.LASF30
 775 0166 07       		.byte	0x7
 776 0167 C8       		.byte	0xc8
 777 0168 71040000 		.4byte	0x471
 778 016c 0C       		.byte	0xc
 779 016d 06       		.uleb128 0x6
 780 016e 84010000 		.4byte	.LASF31
 781 0172 07       		.byte	0x7
 782 0173 CA       		.byte	0xca
 783 0174 1C020000 		.4byte	0x21c
ARM GAS  /tmp/ccRd3JRk.s 			page 15


 784 0178 10       		.byte	0x10
 785 0179 06       		.uleb128 0x6
 786 017a 98030000 		.4byte	.LASF32
 787 017e 07       		.byte	0x7
 788 017f CB       		.byte	0xcb
 789 0180 1C020000 		.4byte	0x21c
 790 0184 14       		.byte	0x14
 791 0185 06       		.uleb128 0x6
 792 0186 23070000 		.4byte	.LASF33
 793 018a 07       		.byte	0x7
 794 018b D2       		.byte	0xd2
 795 018c 1E070000 		.4byte	0x71e
 796 0190 18       		.byte	0x18
 797 0191 06       		.uleb128 0x6
 798 0192 53040000 		.4byte	.LASF34
 799 0196 07       		.byte	0x7
 800 0197 DD       		.byte	0xdd
 801 0198 D9000000 		.4byte	0xd9
 802 019c 1C       		.byte	0x1c
 803 019d 06       		.uleb128 0x6
 804 019e 70040000 		.4byte	.LASF35
 805 01a2 07       		.byte	0x7
 806 01a3 E1       		.byte	0xe1
 807 01a4 CE000000 		.4byte	0xce
 808 01a8 1D       		.byte	0x1d
 809 01a9 06       		.uleb128 0x6
 810 01aa D6060000 		.4byte	.LASF36
 811 01ae 07       		.byte	0x7
 812 01af E6       		.byte	0xe6
 813 01b0 E4000000 		.4byte	0xe4
 814 01b4 1E       		.byte	0x1e
 815 01b5 07       		.uleb128 0x7
 816 01b6 705F7500 		.ascii	"p_u\000"
 817 01ba 07       		.byte	0x7
 818 01bb 3701     		.2byte	0x137
 819 01bd 4D060000 		.4byte	0x64d
 820 01c1 20       		.byte	0x20
 821 01c2 08       		.uleb128 0x8
 822 01c3 2C030000 		.4byte	.LASF37
 823 01c7 07       		.byte	0x7
 824 01c8 3C01     		.2byte	0x13c
 825 01ca 22020000 		.4byte	0x222
 826 01ce 24       		.byte	0x24
 827 01cf 08       		.uleb128 0x8
 828 01d0 63020000 		.4byte	.LASF38
 829 01d4 07       		.byte	0x7
 830 01d5 4201     		.2byte	0x142
 831 01d7 46020000 		.4byte	0x246
 832 01db 28       		.byte	0x28
 833 01dc 08       		.uleb128 0x8
 834 01dd BC040000 		.4byte	.LASF39
 835 01e1 07       		.byte	0x7
 836 01e2 4801     		.2byte	0x148
 837 01e4 05010000 		.4byte	0x105
 838 01e8 30       		.byte	0x30
 839 01e9 08       		.uleb128 0x8
 840 01ea 3F040000 		.4byte	.LASF40
ARM GAS  /tmp/ccRd3JRk.s 			page 16


 841 01ee 07       		.byte	0x7
 842 01ef 4F01     		.2byte	0x14f
 843 01f1 18070000 		.4byte	0x718
 844 01f5 34       		.byte	0x34
 845 01f6 08       		.uleb128 0x8
 846 01f7 48060000 		.4byte	.LASF41
 847 01fb 07       		.byte	0x7
 848 01fc 5301     		.2byte	0x153
 849 01fe EF000000 		.4byte	0xef
 850 0202 38       		.byte	0x38
 851 0203 08       		.uleb128 0x8
 852 0204 98020000 		.4byte	.LASF42
 853 0208 07       		.byte	0x7
 854 0209 5A01     		.2byte	0x15a
 855 020b F9020000 		.4byte	0x2f9
 856 020f 3C       		.byte	0x3c
 857 0210 00       		.byte	0
 858 0211 04       		.uleb128 0x4
 859 0212 3F030000 		.4byte	.LASF43
 860 0216 06       		.byte	0x6
 861 0217 44       		.byte	0x44
 862 0218 1C020000 		.4byte	0x21c
 863 021c 09       		.uleb128 0x9
 864 021d 04       		.byte	0x4
 865 021e 26010000 		.4byte	0x126
 866 0222 04       		.uleb128 0x4
 867 0223 2A070000 		.4byte	.LASF44
 868 0227 06       		.byte	0x6
 869 0228 49       		.byte	0x49
 870 0229 2D020000 		.4byte	0x22d
 871 022d 05       		.uleb128 0x5
 872 022e 1C050000 		.4byte	.LASF46
 873 0232 04       		.byte	0x4
 874 0233 07       		.byte	0x7
 875 0234 B0       		.byte	0xb0
 876 0235 46020000 		.4byte	0x246
 877 0239 06       		.uleb128 0x6
 878 023a 69040000 		.4byte	.LASF27
 879 023e 07       		.byte	0x7
 880 023f B1       		.byte	0xb1
 881 0240 1C020000 		.4byte	0x21c
 882 0244 00       		.byte	0
 883 0245 00       		.byte	0
 884 0246 04       		.uleb128 0x4
 885 0247 BD060000 		.4byte	.LASF47
 886 024b 06       		.byte	0x6
 887 024c 50       		.byte	0x50
 888 024d 51020000 		.4byte	0x251
 889 0251 05       		.uleb128 0x5
 890 0252 3E000000 		.4byte	.LASF48
 891 0256 08       		.byte	0x8
 892 0257 07       		.byte	0x7
 893 0258 B7       		.byte	0xb7
 894 0259 76020000 		.4byte	0x276
 895 025d 06       		.uleb128 0x6
 896 025e 69040000 		.4byte	.LASF27
 897 0262 07       		.byte	0x7
ARM GAS  /tmp/ccRd3JRk.s 			page 17


 898 0263 B8       		.byte	0xb8
 899 0264 1C020000 		.4byte	0x21c
 900 0268 00       		.byte	0
 901 0269 06       		.uleb128 0x6
 902 026a 04040000 		.4byte	.LASF28
 903 026e 07       		.byte	0x7
 904 026f B9       		.byte	0xb9
 905 0270 1C020000 		.4byte	0x21c
 906 0274 04       		.byte	0x4
 907 0275 00       		.byte	0
 908 0276 04       		.uleb128 0x4
 909 0277 00000000 		.4byte	.LASF49
 910 027b 06       		.byte	0x6
 911 027c 57       		.byte	0x57
 912 027d 81020000 		.4byte	0x281
 913 0281 0A       		.uleb128 0xa
 914 0282 F0020000 		.4byte	.LASF50
 915 0286 1C       		.byte	0x1c
 916 0287 07       		.byte	0x7
 917 0288 9201     		.2byte	0x192
 918 028a DD020000 		.4byte	0x2dd
 919 028e 08       		.uleb128 0x8
 920 028f 91000000 		.4byte	.LASF51
 921 0293 07       		.byte	0x7
 922 0294 9301     		.2byte	0x193
 923 0296 46020000 		.4byte	0x246
 924 029a 00       		.byte	0
 925 029b 08       		.uleb128 0x8
 926 029c 5B040000 		.4byte	.LASF52
 927 02a0 07       		.byte	0x7
 928 02a1 9401     		.2byte	0x194
 929 02a3 EF000000 		.4byte	0xef
 930 02a7 08       		.byte	0x8
 931 02a8 08       		.uleb128 0x8
 932 02a9 A0030000 		.4byte	.LASF53
 933 02ad 07       		.byte	0x7
 934 02ae 9601     		.2byte	0x196
 935 02b0 71040000 		.4byte	0x471
 936 02b4 0C       		.byte	0xc
 937 02b5 08       		.uleb128 0x8
 938 02b6 D2010000 		.4byte	.LASF54
 939 02ba 07       		.byte	0x7
 940 02bb 9901     		.2byte	0x199
 941 02bd 1C020000 		.4byte	0x21c
 942 02c1 10       		.byte	0x10
 943 02c2 08       		.uleb128 0x8
 944 02c3 98060000 		.4byte	.LASF55
 945 02c7 07       		.byte	0x7
 946 02c8 9A01     		.2byte	0x19a
 947 02ca 1C020000 		.4byte	0x21c
 948 02ce 14       		.byte	0x14
 949 02cf 08       		.uleb128 0x8
 950 02d0 B7030000 		.4byte	.LASF56
 951 02d4 07       		.byte	0x7
 952 02d5 9D01     		.2byte	0x19d
 953 02d7 1C020000 		.4byte	0x21c
 954 02db 18       		.byte	0x18
ARM GAS  /tmp/ccRd3JRk.s 			page 18


 955 02dc 00       		.byte	0
 956 02dd 04       		.uleb128 0x4
 957 02de 53060000 		.4byte	.LASF57
 958 02e2 06       		.byte	0x6
 959 02e3 5C       		.byte	0x5c
 960 02e4 E8020000 		.4byte	0x2e8
 961 02e8 09       		.uleb128 0x9
 962 02e9 04       		.byte	0x4
 963 02ea EE020000 		.4byte	0x2ee
 964 02ee 0B       		.uleb128 0xb
 965 02ef F9020000 		.4byte	0x2f9
 966 02f3 0C       		.uleb128 0xc
 967 02f4 F9020000 		.4byte	0x2f9
 968 02f8 00       		.byte	0
 969 02f9 0D       		.uleb128 0xd
 970 02fa 04       		.byte	0x4
 971 02fb 04       		.uleb128 0x4
 972 02fc F4030000 		.4byte	.LASF58
 973 0300 06       		.byte	0x6
 974 0301 61       		.byte	0x61
 975 0302 06030000 		.4byte	0x306
 976 0306 0A       		.uleb128 0xa
 977 0307 99040000 		.4byte	.LASF59
 978 030b 14       		.byte	0x14
 979 030c 07       		.byte	0x7
 980 030d 6D01     		.2byte	0x16d
 981 030f 55030000 		.4byte	0x355
 982 0313 08       		.uleb128 0x8
 983 0314 36020000 		.4byte	.LASF60
 984 0318 07       		.byte	0x7
 985 0319 6E01     		.2byte	0x16e
 986 031b 30070000 		.4byte	0x730
 987 031f 00       		.byte	0
 988 0320 08       		.uleb128 0x8
 989 0321 ED010000 		.4byte	.LASF61
 990 0325 07       		.byte	0x7
 991 0326 6F01     		.2byte	0x16f
 992 0328 30070000 		.4byte	0x730
 993 032c 04       		.byte	0x4
 994 032d 08       		.uleb128 0x8
 995 032e 13050000 		.4byte	.LASF62
 996 0332 07       		.byte	0x7
 997 0333 7001     		.2byte	0x170
 998 0335 1B010000 		.4byte	0x11b
 999 0339 08       		.byte	0x8
 1000 033a 08       		.uleb128 0x8
 1001 033b 7D070000 		.4byte	.LASF63
 1002 033f 07       		.byte	0x7
 1003 0340 7101     		.2byte	0x171
 1004 0342 DD020000 		.4byte	0x2dd
 1005 0346 0C       		.byte	0xc
 1006 0347 08       		.uleb128 0x8
 1007 0348 B6060000 		.4byte	.LASF64
 1008 034c 07       		.byte	0x7
 1009 034d 7301     		.2byte	0x173
 1010 034f F9020000 		.4byte	0x2f9
 1011 0353 10       		.byte	0x10
ARM GAS  /tmp/ccRd3JRk.s 			page 19


 1012 0354 00       		.byte	0
 1013 0355 04       		.uleb128 0x4
 1014 0356 B5000000 		.4byte	.LASF65
 1015 035a 06       		.byte	0x6
 1016 035b 66       		.byte	0x66
 1017 035c 60030000 		.4byte	0x360
 1018 0360 0A       		.uleb128 0xa
 1019 0361 52030000 		.4byte	.LASF66
 1020 0365 10       		.byte	0x10
 1021 0366 07       		.byte	0x7
 1022 0367 7D01     		.2byte	0x17d
 1023 0369 A2030000 		.4byte	0x3a2
 1024 036d 08       		.uleb128 0x8
 1025 036e 36020000 		.4byte	.LASF60
 1026 0372 07       		.byte	0x7
 1027 0373 7E01     		.2byte	0x17e
 1028 0375 30070000 		.4byte	0x730
 1029 0379 00       		.byte	0
 1030 037a 08       		.uleb128 0x8
 1031 037b ED010000 		.4byte	.LASF61
 1032 037f 07       		.byte	0x7
 1033 0380 8001     		.2byte	0x180
 1034 0382 30070000 		.4byte	0x730
 1035 0386 04       		.byte	0x4
 1036 0387 08       		.uleb128 0x8
 1037 0388 13050000 		.4byte	.LASF62
 1038 038c 07       		.byte	0x7
 1039 038d 8201     		.2byte	0x182
 1040 038f 1B010000 		.4byte	0x11b
 1041 0393 08       		.byte	0x8
 1042 0394 08       		.uleb128 0x8
 1043 0395 8C030000 		.4byte	.LASF67
 1044 0399 07       		.byte	0x7
 1045 039a 8A01     		.2byte	0x18a
 1046 039c 1B010000 		.4byte	0x11b
 1047 03a0 0C       		.byte	0xc
 1048 03a1 00       		.byte	0
 1049 03a2 04       		.uleb128 0x4
 1050 03a3 4F000000 		.4byte	.LASF68
 1051 03a7 06       		.byte	0x6
 1052 03a8 6B       		.byte	0x6b
 1053 03a9 AD030000 		.4byte	0x3ad
 1054 03ad 0A       		.uleb128 0xa
 1055 03ae 13040000 		.4byte	.LASF69
 1056 03b2 04       		.byte	0x4
 1057 03b3 07       		.byte	0x7
 1058 03b4 A401     		.2byte	0x1a4
 1059 03b6 C8030000 		.4byte	0x3c8
 1060 03ba 08       		.uleb128 0x8
 1061 03bb 75060000 		.4byte	.LASF70
 1062 03bf 07       		.byte	0x7
 1063 03c0 AC01     		.2byte	0x1ac
 1064 03c2 36070000 		.4byte	0x736
 1065 03c6 00       		.byte	0
 1066 03c7 00       		.byte	0
 1067 03c8 04       		.uleb128 0x4
 1068 03c9 AF020000 		.4byte	.LASF71
ARM GAS  /tmp/ccRd3JRk.s 			page 20


 1069 03cd 06       		.byte	0x6
 1070 03ce 70       		.byte	0x70
 1071 03cf D3030000 		.4byte	0x3d3
 1072 03d3 0E       		.uleb128 0xe
 1073 03d4 3C010000 		.4byte	.LASF72
 1074 03d8 5001     		.2byte	0x150
 1075 03da 07       		.byte	0x7
 1076 03db C401     		.2byte	0x1c4
 1077 03dd 2F040000 		.4byte	0x42f
 1078 03e1 08       		.uleb128 0x8
 1079 03e2 FF060000 		.4byte	.LASF73
 1080 03e6 07       		.byte	0x7
 1081 03e7 C801     		.2byte	0x1c8
 1082 03e9 76020000 		.4byte	0x276
 1083 03ed 00       		.byte	0
 1084 03ee 08       		.uleb128 0x8
 1085 03ef 23010000 		.4byte	.LASF74
 1086 03f3 07       		.byte	0x7
 1087 03f4 CC01     		.2byte	0x1cc
 1088 03f6 55030000 		.4byte	0x355
 1089 03fa 1C       		.byte	0x1c
 1090 03fb 07       		.uleb128 0x7
 1091 03fc 64626700 		.ascii	"dbg\000"
 1092 0400 07       		.byte	0x7
 1093 0401 D001     		.2byte	0x1d0
 1094 0403 A2030000 		.4byte	0x3a2
 1095 0407 2C       		.byte	0x2c
 1096 0408 08       		.uleb128 0x8
 1097 0409 A2000000 		.4byte	.LASF75
 1098 040d 07       		.byte	0x7
 1099 040e D401     		.2byte	0x1d4
 1100 0410 26010000 		.4byte	0x126
 1101 0414 30       		.byte	0x30
 1102 0415 07       		.uleb128 0x7
 1103 0416 746D00   		.ascii	"tm\000"
 1104 0419 07       		.byte	0x7
 1105 041a D901     		.2byte	0x1d9
 1106 041c 42060000 		.4byte	0x642
 1107 0420 70       		.byte	0x70
 1108 0421 08       		.uleb128 0x8
 1109 0422 0F020000 		.4byte	.LASF76
 1110 0426 07       		.byte	0x7
 1111 0427 E501     		.2byte	0x1e5
 1112 0429 3B070000 		.4byte	0x73b
 1113 042d 78       		.byte	0x78
 1114 042e 00       		.byte	0
 1115 042f 03       		.uleb128 0x3
 1116 0430 04       		.byte	0x4
 1117 0431 07       		.byte	0x7
 1118 0432 36030000 		.4byte	.LASF77
 1119 0436 0F       		.uleb128 0xf
 1120 0437 AD000000 		.4byte	0xad
 1121 043b 10       		.uleb128 0x10
 1122 043c AD000000 		.4byte	0xad
 1123 0440 4B040000 		.4byte	0x44b
 1124 0444 11       		.uleb128 0x11
 1125 0445 2F040000 		.4byte	0x42f
ARM GAS  /tmp/ccRd3JRk.s 			page 21


 1126 0449 01       		.byte	0x1
 1127 044a 00       		.byte	0
 1128 044b 10       		.uleb128 0x10
 1129 044c AD000000 		.4byte	0xad
 1130 0450 5B040000 		.4byte	0x45b
 1131 0454 11       		.uleb128 0x11
 1132 0455 2F040000 		.4byte	0x42f
 1133 0459 03       		.byte	0x3
 1134 045a 00       		.byte	0
 1135 045b 04       		.uleb128 0x4
 1136 045c E4010000 		.4byte	.LASF78
 1137 0460 08       		.byte	0x8
 1138 0461 65       		.byte	0x65
 1139 0462 F9020000 		.4byte	0x2f9
 1140 0466 04       		.uleb128 0x4
 1141 0467 14030000 		.4byte	.LASF79
 1142 046b 08       		.byte	0x8
 1143 046c 6D       		.byte	0x6d
 1144 046d B8000000 		.4byte	0xb8
 1145 0471 05       		.uleb128 0x5
 1146 0472 90060000 		.4byte	.LASF80
 1147 0476 04       		.byte	0x4
 1148 0477 08       		.byte	0x8
 1149 0478 89       		.byte	0x89
 1150 0479 8A040000 		.4byte	0x48a
 1151 047d 12       		.uleb128 0x12
 1152 047e 72313300 		.ascii	"r13\000"
 1153 0482 08       		.byte	0x8
 1154 0483 8A       		.byte	0x8a
 1155 0484 05050000 		.4byte	0x505
 1156 0488 00       		.byte	0
 1157 0489 00       		.byte	0
 1158 048a 05       		.uleb128 0x5
 1159 048b E8030000 		.4byte	.LASF81
 1160 048f 24       		.byte	0x24
 1161 0490 09       		.byte	0x9
 1162 0491 FD       		.byte	0xfd
 1163 0492 05050000 		.4byte	0x505
 1164 0496 07       		.uleb128 0x7
 1165 0497 723400   		.ascii	"r4\000"
 1166 049a 09       		.byte	0x9
 1167 049b 1001     		.2byte	0x110
 1168 049d 5B040000 		.4byte	0x45b
 1169 04a1 00       		.byte	0
 1170 04a2 07       		.uleb128 0x7
 1171 04a3 723500   		.ascii	"r5\000"
 1172 04a6 09       		.byte	0x9
 1173 04a7 1101     		.2byte	0x111
 1174 04a9 5B040000 		.4byte	0x45b
 1175 04ad 04       		.byte	0x4
 1176 04ae 07       		.uleb128 0x7
 1177 04af 723600   		.ascii	"r6\000"
 1178 04b2 09       		.byte	0x9
 1179 04b3 1201     		.2byte	0x112
 1180 04b5 5B040000 		.4byte	0x45b
 1181 04b9 08       		.byte	0x8
 1182 04ba 07       		.uleb128 0x7
ARM GAS  /tmp/ccRd3JRk.s 			page 22


 1183 04bb 723700   		.ascii	"r7\000"
 1184 04be 09       		.byte	0x9
 1185 04bf 1301     		.2byte	0x113
 1186 04c1 5B040000 		.4byte	0x45b
 1187 04c5 0C       		.byte	0xc
 1188 04c6 07       		.uleb128 0x7
 1189 04c7 723800   		.ascii	"r8\000"
 1190 04ca 09       		.byte	0x9
 1191 04cb 1401     		.2byte	0x114
 1192 04cd 5B040000 		.4byte	0x45b
 1193 04d1 10       		.byte	0x10
 1194 04d2 07       		.uleb128 0x7
 1195 04d3 723900   		.ascii	"r9\000"
 1196 04d6 09       		.byte	0x9
 1197 04d7 1501     		.2byte	0x115
 1198 04d9 5B040000 		.4byte	0x45b
 1199 04dd 14       		.byte	0x14
 1200 04de 07       		.uleb128 0x7
 1201 04df 72313000 		.ascii	"r10\000"
 1202 04e3 09       		.byte	0x9
 1203 04e4 1601     		.2byte	0x116
 1204 04e6 5B040000 		.4byte	0x45b
 1205 04ea 18       		.byte	0x18
 1206 04eb 07       		.uleb128 0x7
 1207 04ec 72313100 		.ascii	"r11\000"
 1208 04f0 09       		.byte	0x9
 1209 04f1 1701     		.2byte	0x117
 1210 04f3 5B040000 		.4byte	0x45b
 1211 04f7 1C       		.byte	0x1c
 1212 04f8 07       		.uleb128 0x7
 1213 04f9 6C7200   		.ascii	"lr\000"
 1214 04fc 09       		.byte	0x9
 1215 04fd 1801     		.2byte	0x118
 1216 04ff 5B040000 		.4byte	0x45b
 1217 0503 20       		.byte	0x20
 1218 0504 00       		.byte	0
 1219 0505 09       		.uleb128 0x9
 1220 0506 04       		.byte	0x4
 1221 0507 8A040000 		.4byte	0x48a
 1222 050b 13       		.uleb128 0x13
 1223 050c 60       		.byte	0x60
 1224 050d 0A       		.byte	0xa
 1225 050e A101     		.2byte	0x1a1
 1226 0510 17060000 		.4byte	0x617
 1227 0514 07       		.uleb128 0x7
 1228 0515 43523100 		.ascii	"CR1\000"
 1229 0519 0A       		.byte	0xa
 1230 051a A201     		.2byte	0x1a2
 1231 051c 36040000 		.4byte	0x436
 1232 0520 00       		.byte	0
 1233 0521 07       		.uleb128 0x7
 1234 0522 43523200 		.ascii	"CR2\000"
 1235 0526 0A       		.byte	0xa
 1236 0527 A301     		.2byte	0x1a3
 1237 0529 36040000 		.4byte	0x436
 1238 052d 04       		.byte	0x4
 1239 052e 08       		.uleb128 0x8
ARM GAS  /tmp/ccRd3JRk.s 			page 23


 1240 052f 43050000 		.4byte	.LASF82
 1241 0533 0A       		.byte	0xa
 1242 0534 A401     		.2byte	0x1a4
 1243 0536 36040000 		.4byte	0x436
 1244 053a 08       		.byte	0x8
 1245 053b 08       		.uleb128 0x8
 1246 053c 0D000000 		.4byte	.LASF83
 1247 0540 0A       		.byte	0xa
 1248 0541 A501     		.2byte	0x1a5
 1249 0543 36040000 		.4byte	0x436
 1250 0547 0C       		.byte	0xc
 1251 0548 07       		.uleb128 0x7
 1252 0549 535200   		.ascii	"SR\000"
 1253 054c 0A       		.byte	0xa
 1254 054d A601     		.2byte	0x1a6
 1255 054f 36040000 		.4byte	0x436
 1256 0553 10       		.byte	0x10
 1257 0554 07       		.uleb128 0x7
 1258 0555 45475200 		.ascii	"EGR\000"
 1259 0559 0A       		.byte	0xa
 1260 055a A701     		.2byte	0x1a7
 1261 055c 36040000 		.4byte	0x436
 1262 0560 14       		.byte	0x14
 1263 0561 08       		.uleb128 0x8
 1264 0562 EE000000 		.4byte	.LASF84
 1265 0566 0A       		.byte	0xa
 1266 0567 A801     		.2byte	0x1a8
 1267 0569 36040000 		.4byte	0x436
 1268 056d 18       		.byte	0x18
 1269 056e 08       		.uleb128 0x8
 1270 056f F4000000 		.4byte	.LASF85
 1271 0573 0A       		.byte	0xa
 1272 0574 A901     		.2byte	0x1a9
 1273 0576 36040000 		.4byte	0x436
 1274 057a 1C       		.byte	0x1c
 1275 057b 08       		.uleb128 0x8
 1276 057c 71010000 		.4byte	.LASF86
 1277 0580 0A       		.byte	0xa
 1278 0581 AA01     		.2byte	0x1aa
 1279 0583 36040000 		.4byte	0x436
 1280 0587 20       		.byte	0x20
 1281 0588 07       		.uleb128 0x7
 1282 0589 434E5400 		.ascii	"CNT\000"
 1283 058d 0A       		.byte	0xa
 1284 058e AB01     		.2byte	0x1ab
 1285 0590 36040000 		.4byte	0x436
 1286 0594 24       		.byte	0x24
 1287 0595 07       		.uleb128 0x7
 1288 0596 50534300 		.ascii	"PSC\000"
 1289 059a 0A       		.byte	0xa
 1290 059b AC01     		.2byte	0x1ac
 1291 059d 36040000 		.4byte	0x436
 1292 05a1 28       		.byte	0x28
 1293 05a2 07       		.uleb128 0x7
 1294 05a3 41525200 		.ascii	"ARR\000"
 1295 05a7 0A       		.byte	0xa
 1296 05a8 AD01     		.2byte	0x1ad
ARM GAS  /tmp/ccRd3JRk.s 			page 24


 1297 05aa 36040000 		.4byte	0x436
 1298 05ae 2C       		.byte	0x2c
 1299 05af 07       		.uleb128 0x7
 1300 05b0 52435200 		.ascii	"RCR\000"
 1301 05b4 0A       		.byte	0xa
 1302 05b5 AE01     		.2byte	0x1ae
 1303 05b7 36040000 		.4byte	0x436
 1304 05bb 30       		.byte	0x30
 1305 05bc 07       		.uleb128 0x7
 1306 05bd 43435200 		.ascii	"CCR\000"
 1307 05c1 0A       		.byte	0xa
 1308 05c2 AF01     		.2byte	0x1af
 1309 05c4 17060000 		.4byte	0x617
 1310 05c8 34       		.byte	0x34
 1311 05c9 08       		.uleb128 0x8
 1312 05ca D8000000 		.4byte	.LASF87
 1313 05ce 0A       		.byte	0xa
 1314 05cf B001     		.2byte	0x1b0
 1315 05d1 36040000 		.4byte	0x436
 1316 05d5 44       		.byte	0x44
 1317 05d6 07       		.uleb128 0x7
 1318 05d7 44435200 		.ascii	"DCR\000"
 1319 05db 0A       		.byte	0xa
 1320 05dc B101     		.2byte	0x1b1
 1321 05de 36040000 		.4byte	0x436
 1322 05e2 48       		.byte	0x48
 1323 05e3 08       		.uleb128 0x8
 1324 05e4 4F050000 		.4byte	.LASF88
 1325 05e8 0A       		.byte	0xa
 1326 05e9 B201     		.2byte	0x1b2
 1327 05eb 36040000 		.4byte	0x436
 1328 05ef 4C       		.byte	0x4c
 1329 05f0 07       		.uleb128 0x7
 1330 05f1 4F5200   		.ascii	"OR\000"
 1331 05f4 0A       		.byte	0xa
 1332 05f5 B301     		.2byte	0x1b3
 1333 05f7 36040000 		.4byte	0x436
 1334 05fb 50       		.byte	0x50
 1335 05fc 08       		.uleb128 0x8
 1336 05fd FA000000 		.4byte	.LASF89
 1337 0601 0A       		.byte	0xa
 1338 0602 B401     		.2byte	0x1b4
 1339 0604 36040000 		.4byte	0x436
 1340 0608 54       		.byte	0x54
 1341 0609 08       		.uleb128 0x8
 1342 060a B7040000 		.4byte	.LASF90
 1343 060e 0A       		.byte	0xa
 1344 060f B501     		.2byte	0x1b5
 1345 0611 1C060000 		.4byte	0x61c
 1346 0615 58       		.byte	0x58
 1347 0616 00       		.byte	0
 1348 0617 0F       		.uleb128 0xf
 1349 0618 4B040000 		.4byte	0x44b
 1350 061c 0F       		.uleb128 0xf
 1351 061d 3B040000 		.4byte	0x43b
 1352 0621 14       		.uleb128 0x14
 1353 0622 D1020000 		.4byte	.LASF91
ARM GAS  /tmp/ccRd3JRk.s 			page 25


 1354 0626 0A       		.byte	0xa
 1355 0627 B601     		.2byte	0x1b6
 1356 0629 0B050000 		.4byte	0x50b
 1357 062d 15       		.uleb128 0x15
 1358 062e 04       		.byte	0x4
 1359 062f 0B       		.byte	0xb
 1360 0630 38       		.byte	0x38
 1361 0631 42060000 		.4byte	0x642
 1362 0635 06       		.uleb128 0x6
 1363 0636 7F060000 		.4byte	.LASF92
 1364 063a 0B       		.byte	0xb
 1365 063b 3C       		.byte	0x3c
 1366 063c C3000000 		.4byte	0xc3
 1367 0640 00       		.byte	0
 1368 0641 00       		.byte	0
 1369 0642 04       		.uleb128 0x4
 1370 0643 A6030000 		.4byte	.LASF93
 1371 0647 0B       		.byte	0xb
 1372 0648 3D       		.byte	0x3d
 1373 0649 2D060000 		.4byte	0x62d
 1374 064d 16       		.uleb128 0x16
 1375 064e 04       		.byte	0x4
 1376 064f 07       		.byte	0x7
 1377 0650 FA       		.byte	0xfa
 1378 0651 B6060000 		.4byte	0x6b6
 1379 0655 17       		.uleb128 0x17
 1380 0656 18000000 		.4byte	.LASF94
 1381 065a 07       		.byte	0x7
 1382 065b 0101     		.2byte	0x101
 1383 065d FA000000 		.4byte	0xfa
 1384 0661 17       		.uleb128 0x17
 1385 0662 99000000 		.4byte	.LASF95
 1386 0666 07       		.byte	0x7
 1387 0667 0801     		.2byte	0x108
 1388 0669 FA000000 		.4byte	0xfa
 1389 066d 17       		.uleb128 0x17
 1390 066e 1C070000 		.4byte	.LASF96
 1391 0672 07       		.byte	0x7
 1392 0673 0F01     		.2byte	0x10f
 1393 0675 F9020000 		.4byte	0x2f9
 1394 0679 17       		.uleb128 0x17
 1395 067a 12000000 		.4byte	.LASF97
 1396 067e 07       		.byte	0x7
 1397 067f 1601     		.2byte	0x116
 1398 0681 B6060000 		.4byte	0x6b6
 1399 0685 17       		.uleb128 0x17
 1400 0686 AD000000 		.4byte	.LASF98
 1401 068a 07       		.byte	0x7
 1402 068b 1B01     		.2byte	0x11b
 1403 068d FA000000 		.4byte	0xfa
 1404 0691 17       		.uleb128 0x17
 1405 0692 4C020000 		.4byte	.LASF99
 1406 0696 07       		.byte	0x7
 1407 0697 2401     		.2byte	0x124
 1408 0699 E1060000 		.4byte	0x6e1
 1409 069d 17       		.uleb128 0x17
 1410 069e D9040000 		.4byte	.LASF100
ARM GAS  /tmp/ccRd3JRk.s 			page 26


 1411 06a2 07       		.byte	0x7
 1412 06a3 2D01     		.2byte	0x12d
 1413 06a5 18070000 		.4byte	0x718
 1414 06a9 17       		.uleb128 0x17
 1415 06aa 62040000 		.4byte	.LASF101
 1416 06ae 07       		.byte	0x7
 1417 06af 3501     		.2byte	0x135
 1418 06b1 05010000 		.4byte	0x105
 1419 06b5 00       		.byte	0
 1420 06b6 09       		.uleb128 0x9
 1421 06b7 04       		.byte	0x4
 1422 06b8 11020000 		.4byte	0x211
 1423 06bc 05       		.uleb128 0x5
 1424 06bd AA040000 		.4byte	.LASF102
 1425 06c1 0C       		.byte	0xc
 1426 06c2 0C       		.byte	0xc
 1427 06c3 34       		.byte	0x34
 1428 06c4 E1060000 		.4byte	0x6e1
 1429 06c8 06       		.uleb128 0x6
 1430 06c9 8C010000 		.4byte	.LASF103
 1431 06cd 0C       		.byte	0xc
 1432 06ce 35       		.byte	0x35
 1433 06cf 46020000 		.4byte	0x246
 1434 06d3 00       		.byte	0
 1435 06d4 06       		.uleb128 0x6
 1436 06d5 7D020000 		.4byte	.LASF104
 1437 06d9 0C       		.byte	0xc
 1438 06da 37       		.byte	0x37
 1439 06db 10010000 		.4byte	0x110
 1440 06df 08       		.byte	0x8
 1441 06e0 00       		.byte	0
 1442 06e1 09       		.uleb128 0x9
 1443 06e2 04       		.byte	0x4
 1444 06e3 BC060000 		.4byte	0x6bc
 1445 06e7 05       		.uleb128 0x5
 1446 06e8 CD060000 		.4byte	.LASF105
 1447 06ec 10       		.byte	0x10
 1448 06ed 0D       		.byte	0xd
 1449 06ee 39       		.byte	0x39
 1450 06ef 18070000 		.4byte	0x718
 1451 06f3 06       		.uleb128 0x6
 1452 06f4 0C010000 		.4byte	.LASF106
 1453 06f8 0D       		.byte	0xd
 1454 06f9 3A       		.byte	0x3a
 1455 06fa 46020000 		.4byte	0x246
 1456 06fe 00       		.byte	0
 1457 06ff 06       		.uleb128 0x6
 1458 0700 53070000 		.4byte	.LASF107
 1459 0704 0D       		.byte	0xd
 1460 0705 3C       		.byte	0x3c
 1461 0706 1C020000 		.4byte	0x21c
 1462 070a 08       		.byte	0x8
 1463 070b 06       		.uleb128 0x6
 1464 070c 37060000 		.4byte	.LASF108
 1465 0710 0D       		.byte	0xd
 1466 0711 3E       		.byte	0x3e
 1467 0712 56070000 		.4byte	0x756
ARM GAS  /tmp/ccRd3JRk.s 			page 27


 1468 0716 0C       		.byte	0xc
 1469 0717 00       		.byte	0
 1470 0718 09       		.uleb128 0x9
 1471 0719 04       		.byte	0x4
 1472 071a E7060000 		.4byte	0x6e7
 1473 071e 09       		.uleb128 0x9
 1474 071f 04       		.byte	0x4
 1475 0720 24070000 		.4byte	0x724
 1476 0724 18       		.uleb128 0x18
 1477 0725 29070000 		.4byte	0x729
 1478 0729 03       		.uleb128 0x3
 1479 072a 01       		.byte	0x1
 1480 072b 08       		.byte	0x8
 1481 072c 3E050000 		.4byte	.LASF109
 1482 0730 09       		.uleb128 0x9
 1483 0731 04       		.byte	0x4
 1484 0732 FB020000 		.4byte	0x2fb
 1485 0736 0F       		.uleb128 0xf
 1486 0737 1E070000 		.4byte	0x71e
 1487 073b 10       		.uleb128 0x10
 1488 073c 66040000 		.4byte	0x466
 1489 0740 4B070000 		.4byte	0x74b
 1490 0744 11       		.uleb128 0x11
 1491 0745 2F040000 		.4byte	0x42f
 1492 0749 1A       		.byte	0x1a
 1493 074a 00       		.byte	0
 1494 074b 04       		.uleb128 0x4
 1495 074c 01020000 		.4byte	.LASF110
 1496 0750 0D       		.byte	0xd
 1497 0751 34       		.byte	0x34
 1498 0752 E7060000 		.4byte	0x6e7
 1499 0756 09       		.uleb128 0x9
 1500 0757 04       		.byte	0x4
 1501 0758 4B070000 		.4byte	0x74b
 1502 075c 03       		.uleb128 0x3
 1503 075d 01       		.byte	0x1
 1504 075e 02       		.byte	0x2
 1505 075f 23040000 		.4byte	.LASF111
 1506 0763 19       		.uleb128 0x19
 1507 0764 01       		.byte	0x1
 1508 0765 0E       		.byte	0xe
 1509 0766 31       		.byte	0x31
 1510 0767 8A070000 		.4byte	0x78a
 1511 076b 1A       		.uleb128 0x1a
 1512 076c 83020000 		.4byte	.LASF112
 1513 0770 00       		.sleb128 0
 1514 0771 1A       		.uleb128 0x1a
 1515 0772 C7040000 		.4byte	.LASF113
 1516 0776 01       		.sleb128 1
 1517 0777 1A       		.uleb128 0x1a
 1518 0778 69030000 		.4byte	.LASF114
 1519 077c 02       		.sleb128 2
 1520 077d 1A       		.uleb128 0x1a
 1521 077e 14010000 		.4byte	.LASF115
 1522 0782 03       		.sleb128 3
 1523 0783 1A       		.uleb128 0x1a
 1524 0784 32000000 		.4byte	.LASF116
ARM GAS  /tmp/ccRd3JRk.s 			page 28


 1525 0788 04       		.sleb128 4
 1526 0789 00       		.byte	0
 1527 078a 04       		.uleb128 0x4
 1528 078b 1E020000 		.4byte	.LASF117
 1529 078f 0E       		.byte	0xe
 1530 0790 37       		.byte	0x37
 1531 0791 63070000 		.4byte	0x763
 1532 0795 04       		.uleb128 0x4
 1533 0796 DA010000 		.4byte	.LASF118
 1534 079a 0E       		.byte	0xe
 1535 079b 3C       		.byte	0x3c
 1536 079c A0070000 		.4byte	0x7a0
 1537 07a0 0A       		.uleb128 0xa
 1538 07a1 DA010000 		.4byte	.LASF118
 1539 07a5 10       		.byte	0x10
 1540 07a6 0F       		.byte	0xf
 1541 07a7 F901     		.2byte	0x1f9
 1542 07a9 E2070000 		.4byte	0x7e2
 1543 07ad 08       		.uleb128 0x8
 1544 07ae 36010000 		.4byte	.LASF119
 1545 07b2 0F       		.byte	0xf
 1546 07b3 FD01     		.2byte	0x1fd
 1547 07b5 8A070000 		.4byte	0x78a
 1548 07b9 00       		.byte	0
 1549 07ba 08       		.uleb128 0x8
 1550 07bb 48050000 		.4byte	.LASF120
 1551 07bf 0F       		.byte	0xf
 1552 07c0 0102     		.2byte	0x201
 1553 07c2 66080000 		.4byte	0x866
 1554 07c6 04       		.byte	0x4
 1555 07c7 08       		.uleb128 0x8
 1556 07c8 4D070000 		.4byte	.LASF121
 1557 07cc 0F       		.byte	0xf
 1558 07cd 0902     		.2byte	0x209
 1559 07cf AD000000 		.4byte	0xad
 1560 07d3 08       		.byte	0x8
 1561 07d4 07       		.uleb128 0x7
 1562 07d5 74696D00 		.ascii	"tim\000"
 1563 07d9 0F       		.byte	0xf
 1564 07da 0D02     		.2byte	0x20d
 1565 07dc 71080000 		.4byte	0x871
 1566 07e0 0C       		.byte	0xc
 1567 07e1 00       		.byte	0
 1568 07e2 04       		.uleb128 0x4
 1569 07e3 94010000 		.4byte	.LASF122
 1570 07e7 0E       		.byte	0xe
 1571 07e8 43       		.byte	0x43
 1572 07e9 ED070000 		.4byte	0x7ed
 1573 07ed 09       		.uleb128 0x9
 1574 07ee 04       		.byte	0x4
 1575 07ef F3070000 		.4byte	0x7f3
 1576 07f3 0B       		.uleb128 0xb
 1577 07f4 FE070000 		.4byte	0x7fe
 1578 07f8 0C       		.uleb128 0xc
 1579 07f9 FE070000 		.4byte	0x7fe
 1580 07fd 00       		.byte	0
 1581 07fe 09       		.uleb128 0x9
ARM GAS  /tmp/ccRd3JRk.s 			page 29


 1582 07ff 04       		.byte	0x4
 1583 0800 95070000 		.4byte	0x795
 1584 0804 14       		.uleb128 0x14
 1585 0805 8E020000 		.4byte	.LASF123
 1586 0809 0F       		.byte	0xf
 1587 080a CF01     		.2byte	0x1cf
 1588 080c AD000000 		.4byte	0xad
 1589 0810 14       		.uleb128 0x14
 1590 0811 4F010000 		.4byte	.LASF124
 1591 0815 0F       		.byte	0xf
 1592 0816 D401     		.2byte	0x1d4
 1593 0818 AD000000 		.4byte	0xad
 1594 081c 13       		.uleb128 0x13
 1595 081d 10       		.byte	0x10
 1596 081e 0F       		.byte	0xf
 1597 081f DA01     		.2byte	0x1da
 1598 0821 5A080000 		.4byte	0x85a
 1599 0825 08       		.uleb128 0x8
 1600 0826 DD000000 		.4byte	.LASF125
 1601 082a 0F       		.byte	0xf
 1602 082b E001     		.2byte	0x1e0
 1603 082d 04080000 		.4byte	0x804
 1604 0831 00       		.byte	0
 1605 0832 08       		.uleb128 0x8
 1606 0833 BB020000 		.4byte	.LASF126
 1607 0837 0F       		.byte	0xf
 1608 0838 E701     		.2byte	0x1e7
 1609 083a E2070000 		.4byte	0x7e2
 1610 083e 04       		.byte	0x4
 1611 083f 07       		.uleb128 0x7
 1612 0840 63723200 		.ascii	"cr2\000"
 1613 0844 0F       		.byte	0xf
 1614 0845 ED01     		.2byte	0x1ed
 1615 0847 AD000000 		.4byte	0xad
 1616 084b 08       		.byte	0x8
 1617 084c 08       		.uleb128 0x8
 1618 084d 96070000 		.4byte	.LASF127
 1619 0851 0F       		.byte	0xf
 1620 0852 F301     		.2byte	0x1f3
 1621 0854 AD000000 		.4byte	0xad
 1622 0858 0C       		.byte	0xc
 1623 0859 00       		.byte	0
 1624 085a 14       		.uleb128 0x14
 1625 085b 86060000 		.4byte	.LASF128
 1626 085f 0F       		.byte	0xf
 1627 0860 F401     		.2byte	0x1f4
 1628 0862 1C080000 		.4byte	0x81c
 1629 0866 09       		.uleb128 0x9
 1630 0867 04       		.byte	0x4
 1631 0868 6C080000 		.4byte	0x86c
 1632 086c 18       		.uleb128 0x18
 1633 086d 5A080000 		.4byte	0x85a
 1634 0871 09       		.uleb128 0x9
 1635 0872 04       		.byte	0x4
 1636 0873 21060000 		.4byte	0x621
 1637 0877 1B       		.uleb128 0x1b
 1638 0878 67060000 		.4byte	.LASF132
ARM GAS  /tmp/ccRd3JRk.s 			page 30


 1639 087c 02       		.byte	0x2
 1640 087d 2202     		.2byte	0x222
 1641 087f 03       		.byte	0x3
 1642 0880 91080000 		.4byte	0x891
 1643 0884 1C       		.uleb128 0x1c
 1644 0885 09020000 		.4byte	.LASF136
 1645 0889 02       		.byte	0x2
 1646 088a 2202     		.2byte	0x222
 1647 088c AD000000 		.4byte	0xad
 1648 0890 00       		.byte	0
 1649 0891 1D       		.uleb128 0x1d
 1650 0892 5E000000 		.4byte	.LASF129
 1651 0896 09       		.byte	0x9
 1652 0897 C801     		.2byte	0x1c8
 1653 0899 03       		.byte	0x3
 1654 089a 1D       		.uleb128 0x1d
 1655 089b 2A010000 		.4byte	.LASF130
 1656 089f 09       		.byte	0x9
 1657 08a0 E001     		.2byte	0x1e0
 1658 08a2 03       		.byte	0x3
 1659 08a3 1D       		.uleb128 0x1d
 1660 08a4 81040000 		.4byte	.LASF131
 1661 08a8 10       		.byte	0x10
 1662 08a9 5A01     		.2byte	0x15a
 1663 08ab 03       		.byte	0x3
 1664 08ac 1B       		.uleb128 0x1b
 1665 08ad 41070000 		.4byte	.LASF133
 1666 08b1 10       		.byte	0x10
 1667 08b2 6601     		.2byte	0x166
 1668 08b4 03       		.byte	0x3
 1669 08b5 C7080000 		.4byte	0x8c7
 1670 08b9 1E       		.uleb128 0x1e
 1671 08ba 78040000 		.4byte	.LASF139
 1672 08be D7080000 		.4byte	0x8d7
 1673 08c2 41070000 		.4byte	.LASF133
 1674 08c6 00       		.byte	0
 1675 08c7 10       		.uleb128 0x10
 1676 08c8 29070000 		.4byte	0x729
 1677 08cc D7080000 		.4byte	0x8d7
 1678 08d0 11       		.uleb128 0x11
 1679 08d1 2F040000 		.4byte	0x42f
 1680 08d5 0B       		.byte	0xb
 1681 08d6 00       		.byte	0
 1682 08d7 18       		.uleb128 0x18
 1683 08d8 C7080000 		.4byte	0x8c7
 1684 08dc 1D       		.uleb128 0x1d
 1685 08dd F5010000 		.4byte	.LASF134
 1686 08e1 11       		.byte	0x11
 1687 08e2 EB01     		.2byte	0x1eb
 1688 08e4 03       		.byte	0x3
 1689 08e5 1D       		.uleb128 0x1d
 1690 08e6 8B040000 		.4byte	.LASF135
 1691 08ea 11       		.byte	0x11
 1692 08eb F601     		.2byte	0x1f6
 1693 08ed 03       		.byte	0x3
 1694 08ee 1F       		.uleb128 0x1f
 1695 08ef A2010000 		.4byte	.LASF140
ARM GAS  /tmp/ccRd3JRk.s 			page 31


 1696 08f3 01       		.byte	0x1
 1697 08f4 9F       		.byte	0x9f
 1698 08f5 01       		.byte	0x1
 1699 08f6 1E090000 		.4byte	0x91e
 1700 08fa 20       		.uleb128 0x20
 1701 08fb 78020000 		.4byte	.LASF137
 1702 08ff 01       		.byte	0x1
 1703 0900 9F       		.byte	0x9f
 1704 0901 FE070000 		.4byte	0x7fe
 1705 0905 20       		.uleb128 0x20
 1706 0906 C9010000 		.4byte	.LASF138
 1707 090a 01       		.byte	0x1
 1708 090b 9F       		.byte	0x9f
 1709 090c 10080000 		.4byte	0x810
 1710 0910 1E       		.uleb128 0x1e
 1711 0911 78040000 		.4byte	.LASF139
 1712 0915 2E090000 		.4byte	0x92e
 1713 0919 A2010000 		.4byte	.LASF140
 1714 091d 00       		.byte	0
 1715 091e 10       		.uleb128 0x10
 1716 091f 29070000 		.4byte	0x729
 1717 0923 2E090000 		.4byte	0x92e
 1718 0927 11       		.uleb128 0x11
 1719 0928 2F040000 		.4byte	0x42f
 1720 092c 13       		.byte	0x13
 1721 092d 00       		.byte	0
 1722 092e 18       		.uleb128 0x18
 1723 092f 1E090000 		.4byte	0x91e
 1724 0933 1F       		.uleb128 0x1f
 1725 0934 85070000 		.4byte	.LASF141
 1726 0938 01       		.byte	0x1
 1727 0939 C1       		.byte	0xc1
 1728 093a 01       		.byte	0x1
 1729 093b 63090000 		.4byte	0x963
 1730 093f 20       		.uleb128 0x20
 1731 0940 78020000 		.4byte	.LASF137
 1732 0944 01       		.byte	0x1
 1733 0945 C1       		.byte	0xc1
 1734 0946 FE070000 		.4byte	0x7fe
 1735 094a 20       		.uleb128 0x20
 1736 094b C9010000 		.4byte	.LASF138
 1737 094f 01       		.byte	0x1
 1738 0950 C1       		.byte	0xc1
 1739 0951 10080000 		.4byte	0x810
 1740 0955 1E       		.uleb128 0x1e
 1741 0956 78040000 		.4byte	.LASF139
 1742 095a 73090000 		.4byte	0x973
 1743 095e 85070000 		.4byte	.LASF141
 1744 0962 00       		.byte	0
 1745 0963 10       		.uleb128 0x10
 1746 0964 29070000 		.4byte	0x729
 1747 0968 73090000 		.4byte	0x973
 1748 096c 11       		.uleb128 0x11
 1749 096d 2F040000 		.4byte	0x42f
 1750 0971 10       		.byte	0x10
 1751 0972 00       		.byte	0
 1752 0973 18       		.uleb128 0x18
ARM GAS  /tmp/ccRd3JRk.s 			page 32


 1753 0974 63090000 		.4byte	0x963
 1754 0978 1F       		.uleb128 0x1f
 1755 0979 9B070000 		.4byte	.LASF142
 1756 097d 01       		.byte	0x1
 1757 097e E2       		.byte	0xe2
 1758 097f 01       		.byte	0x1
 1759 0980 9D090000 		.4byte	0x99d
 1760 0984 20       		.uleb128 0x20
 1761 0985 78020000 		.4byte	.LASF137
 1762 0989 01       		.byte	0x1
 1763 098a E2       		.byte	0xe2
 1764 098b FE070000 		.4byte	0x7fe
 1765 098f 1E       		.uleb128 0x1e
 1766 0990 78040000 		.4byte	.LASF139
 1767 0994 AD090000 		.4byte	0x9ad
 1768 0998 9B070000 		.4byte	.LASF142
 1769 099c 00       		.byte	0
 1770 099d 10       		.uleb128 0x10
 1771 099e 29070000 		.4byte	0x729
 1772 09a2 AD090000 		.4byte	0x9ad
 1773 09a6 11       		.uleb128 0x11
 1774 09a7 2F040000 		.4byte	0x42f
 1775 09ab 0D       		.byte	0xd
 1776 09ac 00       		.byte	0
 1777 09ad 18       		.uleb128 0x18
 1778 09ae 9D090000 		.4byte	0x99d
 1779 09b2 21       		.uleb128 0x21
 1780 09b3 69010000 		.4byte	.LASF143
 1781 09b7 01       		.byte	0x1
 1782 09b8 38       		.byte	0x38
 1783 09b9 00000000 		.4byte	.LFB272
 1784 09bd 04000000 		.4byte	.LFE272-.LFB272
 1785 09c1 01       		.uleb128 0x1
 1786 09c2 9C       		.byte	0x9c
 1787 09c3 D1090000 		.4byte	0x9d1
 1788 09c7 22       		.uleb128 0x22
 1789 09c8 04000000 		.4byte	.LVL0
 1790 09cc 81110000 		.4byte	0x1181
 1791 09d0 00       		.byte	0
 1792 09d1 21       		.uleb128 0x21
 1793 09d2 3E020000 		.4byte	.LASF144
 1794 09d6 01       		.byte	0x1
 1795 09d7 44       		.byte	0x44
 1796 09d8 00000000 		.4byte	.LFB273
 1797 09dc 0A000000 		.4byte	.LFE273-.LFB273
 1798 09e0 01       		.uleb128 0x1
 1799 09e1 9C       		.byte	0x9c
 1800 09e2 F4090000 		.4byte	0x9f4
 1801 09e6 23       		.uleb128 0x23
 1802 09e7 78020000 		.4byte	.LASF137
 1803 09eb 01       		.byte	0x1
 1804 09ec 44       		.byte	0x44
 1805 09ed FE070000 		.4byte	0x7fe
 1806 09f1 01       		.uleb128 0x1
 1807 09f2 50       		.byte	0x50
 1808 09f3 00       		.byte	0
 1809 09f4 21       		.uleb128 0x21
ARM GAS  /tmp/ccRd3JRk.s 			page 33


 1810 09f5 A6020000 		.4byte	.LASF145
 1811 09f9 01       		.byte	0x1
 1812 09fa 52       		.byte	0x52
 1813 09fb 00000000 		.4byte	.LFB274
 1814 09ff 1C000000 		.4byte	.LFE274-.LFB274
 1815 0a03 01       		.uleb128 0x1
 1816 0a04 9C       		.byte	0x9c
 1817 0a05 EA0A0000 		.4byte	0xaea
 1818 0a09 24       		.uleb128 0x24
 1819 0a0a 78020000 		.4byte	.LASF137
 1820 0a0e 01       		.byte	0x1
 1821 0a0f 52       		.byte	0x52
 1822 0a10 FE070000 		.4byte	0x7fe
 1823 0a14 00000000 		.4byte	.LLST0
 1824 0a18 24       		.uleb128 0x24
 1825 0a19 48050000 		.4byte	.LASF120
 1826 0a1d 01       		.byte	0x1
 1827 0a1e 52       		.byte	0x52
 1828 0a1f 66080000 		.4byte	0x866
 1829 0a23 1E000000 		.4byte	.LLST1
 1830 0a27 25       		.uleb128 0x25
 1831 0a28 78040000 		.4byte	.LASF139
 1832 0a2c FA0A0000 		.4byte	0xafa
 1833 0a30 26       		.uleb128 0x26
 1834 0a31 DC080000 		.4byte	0x8dc
 1835 0a35 02000000 		.4byte	.LBB108
 1836 0a39 00000000 		.4byte	.Ldebug_ranges0+0
 1837 0a3d 01       		.byte	0x1
 1838 0a3e 56       		.byte	0x56
 1839 0a3f 7D0A0000 		.4byte	0xa7d
 1840 0a43 27       		.uleb128 0x27
 1841 0a44 A3080000 		.4byte	0x8a3
 1842 0a48 02000000 		.4byte	.LBB109
 1843 0a4c 00000000 		.4byte	.Ldebug_ranges0+0
 1844 0a50 11       		.byte	0x11
 1845 0a51 ED01     		.2byte	0x1ed
 1846 0a53 27       		.uleb128 0x27
 1847 0a54 91080000 		.4byte	0x891
 1848 0a58 02000000 		.4byte	.LBB110
 1849 0a5c 00000000 		.4byte	.Ldebug_ranges0+0
 1850 0a60 10       		.byte	0x10
 1851 0a61 5C01     		.2byte	0x15c
 1852 0a63 27       		.uleb128 0x27
 1853 0a64 77080000 		.4byte	0x877
 1854 0a68 02000000 		.4byte	.LBB111
 1855 0a6c 00000000 		.4byte	.Ldebug_ranges0+0
 1856 0a70 09       		.byte	0x9
 1857 0a71 D001     		.2byte	0x1d0
 1858 0a73 28       		.uleb128 0x28
 1859 0a74 84080000 		.4byte	0x884
 1860 0a78 20       		.byte	0x20
 1861 0a79 00       		.byte	0
 1862 0a7a 00       		.byte	0
 1863 0a7b 00       		.byte	0
 1864 0a7c 00       		.byte	0
 1865 0a7d 29       		.uleb128 0x29
 1866 0a7e E5080000 		.4byte	0x8e5
ARM GAS  /tmp/ccRd3JRk.s 			page 34


 1867 0a82 14000000 		.4byte	.LBB118
 1868 0a86 08000000 		.4byte	.LBE118-.LBB118
 1869 0a8a 01       		.byte	0x1
 1870 0a8b 5C       		.byte	0x5c
 1871 0a8c D90A0000 		.4byte	0xad9
 1872 0a90 2A       		.uleb128 0x2a
 1873 0a91 AC080000 		.4byte	0x8ac
 1874 0a95 14000000 		.4byte	.LBB119
 1875 0a99 08000000 		.4byte	.LBE119-.LBB119
 1876 0a9d 11       		.byte	0x11
 1877 0a9e F801     		.2byte	0x1f8
 1878 0aa0 2B       		.uleb128 0x2b
 1879 0aa1 14000000 		.4byte	.LBB120
 1880 0aa5 08000000 		.4byte	.LBE120-.LBB120
 1881 0aa9 2C       		.uleb128 0x2c
 1882 0aaa B9080000 		.4byte	0x8b9
 1883 0aae 2A       		.uleb128 0x2a
 1884 0aaf 9A080000 		.4byte	0x89a
 1885 0ab3 14000000 		.4byte	.LBB121
 1886 0ab7 08000000 		.4byte	.LBE121-.LBB121
 1887 0abb 10       		.byte	0x10
 1888 0abc 7301     		.2byte	0x173
 1889 0abe 2A       		.uleb128 0x2a
 1890 0abf 77080000 		.4byte	0x877
 1891 0ac3 14000000 		.4byte	.LBB122
 1892 0ac7 08000000 		.4byte	.LBE122-.LBB122
 1893 0acb 09       		.byte	0x9
 1894 0acc E301     		.2byte	0x1e3
 1895 0ace 28       		.uleb128 0x28
 1896 0acf 84080000 		.4byte	0x884
 1897 0ad3 00       		.byte	0
 1898 0ad4 00       		.byte	0
 1899 0ad5 00       		.byte	0
 1900 0ad6 00       		.byte	0
 1901 0ad7 00       		.byte	0
 1902 0ad8 00       		.byte	0
 1903 0ad9 2D       		.uleb128 0x2d
 1904 0ada 10000000 		.4byte	.LVL3
 1905 0ade 89110000 		.4byte	0x1189
 1906 0ae2 2E       		.uleb128 0x2e
 1907 0ae3 01       		.uleb128 0x1
 1908 0ae4 50       		.byte	0x50
 1909 0ae5 02       		.uleb128 0x2
 1910 0ae6 74       		.byte	0x74
 1911 0ae7 00       		.sleb128 0
 1912 0ae8 00       		.byte	0
 1913 0ae9 00       		.byte	0
 1914 0aea 10       		.uleb128 0x10
 1915 0aeb 29070000 		.4byte	0x729
 1916 0aef FA0A0000 		.4byte	0xafa
 1917 0af3 11       		.uleb128 0x11
 1918 0af4 2F040000 		.4byte	0x42f
 1919 0af8 08       		.byte	0x8
 1920 0af9 00       		.byte	0
 1921 0afa 18       		.uleb128 0x18
 1922 0afb EA0A0000 		.4byte	0xaea
 1923 0aff 21       		.uleb128 0x21
ARM GAS  /tmp/ccRd3JRk.s 			page 35


 1924 0b00 58010000 		.4byte	.LASF146
 1925 0b04 01       		.byte	0x1
 1926 0b05 66       		.byte	0x66
 1927 0b06 00000000 		.4byte	.LFB275
 1928 0b0a 1A000000 		.4byte	.LFE275-.LFB275
 1929 0b0e 01       		.uleb128 0x1
 1930 0b0f 9C       		.byte	0x9c
 1931 0b10 E60B0000 		.4byte	0xbe6
 1932 0b14 24       		.uleb128 0x24
 1933 0b15 78020000 		.4byte	.LASF137
 1934 0b19 01       		.byte	0x1
 1935 0b1a 66       		.byte	0x66
 1936 0b1b FE070000 		.4byte	0x7fe
 1937 0b1f 3F000000 		.4byte	.LLST2
 1938 0b23 25       		.uleb128 0x25
 1939 0b24 78040000 		.4byte	.LASF139
 1940 0b28 F60B0000 		.4byte	0xbf6
 1941 0b2c 26       		.uleb128 0x26
 1942 0b2d DC080000 		.4byte	0x8dc
 1943 0b31 02000000 		.4byte	.LBB124
 1944 0b35 18000000 		.4byte	.Ldebug_ranges0+0x18
 1945 0b39 01       		.byte	0x1
 1946 0b3a 6A       		.byte	0x6a
 1947 0b3b 790B0000 		.4byte	0xb79
 1948 0b3f 27       		.uleb128 0x27
 1949 0b40 A3080000 		.4byte	0x8a3
 1950 0b44 02000000 		.4byte	.LBB125
 1951 0b48 18000000 		.4byte	.Ldebug_ranges0+0x18
 1952 0b4c 11       		.byte	0x11
 1953 0b4d ED01     		.2byte	0x1ed
 1954 0b4f 27       		.uleb128 0x27
 1955 0b50 91080000 		.4byte	0x891
 1956 0b54 02000000 		.4byte	.LBB126
 1957 0b58 18000000 		.4byte	.Ldebug_ranges0+0x18
 1958 0b5c 10       		.byte	0x10
 1959 0b5d 5C01     		.2byte	0x15c
 1960 0b5f 27       		.uleb128 0x27
 1961 0b60 77080000 		.4byte	0x877
 1962 0b64 02000000 		.4byte	.LBB127
 1963 0b68 18000000 		.4byte	.Ldebug_ranges0+0x18
 1964 0b6c 09       		.byte	0x9
 1965 0b6d D001     		.2byte	0x1d0
 1966 0b6f 28       		.uleb128 0x28
 1967 0b70 84080000 		.4byte	0x884
 1968 0b74 20       		.byte	0x20
 1969 0b75 00       		.byte	0
 1970 0b76 00       		.byte	0
 1971 0b77 00       		.byte	0
 1972 0b78 00       		.byte	0
 1973 0b79 29       		.uleb128 0x29
 1974 0b7a E5080000 		.4byte	0x8e5
 1975 0b7e 12000000 		.4byte	.LBB134
 1976 0b82 08000000 		.4byte	.LBE134-.LBB134
 1977 0b86 01       		.byte	0x1
 1978 0b87 6F       		.byte	0x6f
 1979 0b88 D50B0000 		.4byte	0xbd5
 1980 0b8c 2A       		.uleb128 0x2a
ARM GAS  /tmp/ccRd3JRk.s 			page 36


 1981 0b8d AC080000 		.4byte	0x8ac
 1982 0b91 12000000 		.4byte	.LBB135
 1983 0b95 08000000 		.4byte	.LBE135-.LBB135
 1984 0b99 11       		.byte	0x11
 1985 0b9a F801     		.2byte	0x1f8
 1986 0b9c 2B       		.uleb128 0x2b
 1987 0b9d 12000000 		.4byte	.LBB136
 1988 0ba1 08000000 		.4byte	.LBE136-.LBB136
 1989 0ba5 2C       		.uleb128 0x2c
 1990 0ba6 B9080000 		.4byte	0x8b9
 1991 0baa 2A       		.uleb128 0x2a
 1992 0bab 9A080000 		.4byte	0x89a
 1993 0baf 12000000 		.4byte	.LBB137
 1994 0bb3 08000000 		.4byte	.LBE137-.LBB137
 1995 0bb7 10       		.byte	0x10
 1996 0bb8 7301     		.2byte	0x173
 1997 0bba 2A       		.uleb128 0x2a
 1998 0bbb 77080000 		.4byte	0x877
 1999 0bbf 12000000 		.4byte	.LBB138
 2000 0bc3 08000000 		.4byte	.LBE138-.LBB138
 2001 0bc7 09       		.byte	0x9
 2002 0bc8 E301     		.2byte	0x1e3
 2003 0bca 28       		.uleb128 0x28
 2004 0bcb 84080000 		.4byte	0x884
 2005 0bcf 00       		.byte	0
 2006 0bd0 00       		.byte	0
 2007 0bd1 00       		.byte	0
 2008 0bd2 00       		.byte	0
 2009 0bd3 00       		.byte	0
 2010 0bd4 00       		.byte	0
 2011 0bd5 2D       		.uleb128 0x2d
 2012 0bd6 0E000000 		.4byte	.LVL6
 2013 0bda 9B110000 		.4byte	0x119b
 2014 0bde 2E       		.uleb128 0x2e
 2015 0bdf 01       		.uleb128 0x1
 2016 0be0 50       		.byte	0x50
 2017 0be1 02       		.uleb128 0x2
 2018 0be2 74       		.byte	0x74
 2019 0be3 00       		.sleb128 0
 2020 0be4 00       		.byte	0
 2021 0be5 00       		.byte	0
 2022 0be6 10       		.uleb128 0x10
 2023 0be7 29070000 		.4byte	0x729
 2024 0beb F60B0000 		.4byte	0xbf6
 2025 0bef 11       		.uleb128 0x11
 2026 0bf0 2F040000 		.4byte	0x42f
 2027 0bf4 07       		.byte	0x7
 2028 0bf5 00       		.byte	0
 2029 0bf6 18       		.uleb128 0x18
 2030 0bf7 E60B0000 		.4byte	0xbe6
 2031 0bfb 21       		.uleb128 0x21
 2032 0bfc 68000000 		.4byte	.LASF147
 2033 0c00 01       		.byte	0x1
 2034 0c01 7D       		.byte	0x7d
 2035 0c02 00000000 		.4byte	.LFB276
 2036 0c06 14000000 		.4byte	.LFE276-.LFB276
 2037 0c0a 01       		.uleb128 0x1
ARM GAS  /tmp/ccRd3JRk.s 			page 37


 2038 0c0b 9C       		.byte	0x9c
 2039 0c0c DB0C0000 		.4byte	0xcdb
 2040 0c10 23       		.uleb128 0x23
 2041 0c11 78020000 		.4byte	.LASF137
 2042 0c15 01       		.byte	0x1
 2043 0c16 7D       		.byte	0x7d
 2044 0c17 FE070000 		.4byte	0x7fe
 2045 0c1b 01       		.uleb128 0x1
 2046 0c1c 50       		.byte	0x50
 2047 0c1d 24       		.uleb128 0x24
 2048 0c1e C9010000 		.4byte	.LASF138
 2049 0c22 01       		.byte	0x1
 2050 0c23 7D       		.byte	0x7d
 2051 0c24 10080000 		.4byte	0x810
 2052 0c28 5D000000 		.4byte	.LLST3
 2053 0c2c 25       		.uleb128 0x25
 2054 0c2d 78040000 		.4byte	.LASF139
 2055 0c31 EB0C0000 		.4byte	0xceb
 2056 0c35 29       		.uleb128 0x29
 2057 0c36 DC080000 		.4byte	0x8dc
 2058 0c3a 00000000 		.4byte	.LBB140
 2059 0c3e 06000000 		.4byte	.LBE140-.LBB140
 2060 0c42 01       		.byte	0x1
 2061 0c43 81       		.byte	0x81
 2062 0c44 820C0000 		.4byte	0xc82
 2063 0c48 2A       		.uleb128 0x2a
 2064 0c49 A3080000 		.4byte	0x8a3
 2065 0c4d 00000000 		.4byte	.LBB141
 2066 0c51 06000000 		.4byte	.LBE141-.LBB141
 2067 0c55 11       		.byte	0x11
 2068 0c56 ED01     		.2byte	0x1ed
 2069 0c58 2A       		.uleb128 0x2a
 2070 0c59 91080000 		.4byte	0x891
 2071 0c5d 00000000 		.4byte	.LBB142
 2072 0c61 06000000 		.4byte	.LBE142-.LBB142
 2073 0c65 10       		.byte	0x10
 2074 0c66 5C01     		.2byte	0x15c
 2075 0c68 2A       		.uleb128 0x2a
 2076 0c69 77080000 		.4byte	0x877
 2077 0c6d 00000000 		.4byte	.LBB143
 2078 0c71 06000000 		.4byte	.LBE143-.LBB143
 2079 0c75 09       		.byte	0x9
 2080 0c76 D001     		.2byte	0x1d0
 2081 0c78 28       		.uleb128 0x28
 2082 0c79 84080000 		.4byte	0x884
 2083 0c7d 20       		.byte	0x20
 2084 0c7e 00       		.byte	0
 2085 0c7f 00       		.byte	0
 2086 0c80 00       		.byte	0
 2087 0c81 00       		.byte	0
 2088 0c82 2F       		.uleb128 0x2f
 2089 0c83 E5080000 		.4byte	0x8e5
 2090 0c87 0C000000 		.4byte	.LBB145
 2091 0c8b 08000000 		.4byte	.LBE145-.LBB145
 2092 0c8f 01       		.byte	0x1
 2093 0c90 85       		.byte	0x85
 2094 0c91 2A       		.uleb128 0x2a
ARM GAS  /tmp/ccRd3JRk.s 			page 38


 2095 0c92 AC080000 		.4byte	0x8ac
 2096 0c96 0C000000 		.4byte	.LBB146
 2097 0c9a 08000000 		.4byte	.LBE146-.LBB146
 2098 0c9e 11       		.byte	0x11
 2099 0c9f F801     		.2byte	0x1f8
 2100 0ca1 2B       		.uleb128 0x2b
 2101 0ca2 0C000000 		.4byte	.LBB147
 2102 0ca6 08000000 		.4byte	.LBE147-.LBB147
 2103 0caa 2C       		.uleb128 0x2c
 2104 0cab B9080000 		.4byte	0x8b9
 2105 0caf 2A       		.uleb128 0x2a
 2106 0cb0 9A080000 		.4byte	0x89a
 2107 0cb4 0C000000 		.4byte	.LBB148
 2108 0cb8 08000000 		.4byte	.LBE148-.LBB148
 2109 0cbc 10       		.byte	0x10
 2110 0cbd 7301     		.2byte	0x173
 2111 0cbf 2A       		.uleb128 0x2a
 2112 0cc0 77080000 		.4byte	0x877
 2113 0cc4 0C000000 		.4byte	.LBB149
 2114 0cc8 08000000 		.4byte	.LBE149-.LBB149
 2115 0ccc 09       		.byte	0x9
 2116 0ccd E301     		.2byte	0x1e3
 2117 0ccf 28       		.uleb128 0x28
 2118 0cd0 84080000 		.4byte	0x884
 2119 0cd4 00       		.byte	0
 2120 0cd5 00       		.byte	0
 2121 0cd6 00       		.byte	0
 2122 0cd7 00       		.byte	0
 2123 0cd8 00       		.byte	0
 2124 0cd9 00       		.byte	0
 2125 0cda 00       		.byte	0
 2126 0cdb 10       		.uleb128 0x10
 2127 0cdc 29070000 		.4byte	0x729
 2128 0ce0 EB0C0000 		.4byte	0xceb
 2129 0ce4 11       		.uleb128 0x11
 2130 0ce5 2F040000 		.4byte	0x42f
 2131 0ce9 11       		.byte	0x11
 2132 0cea 00       		.byte	0
 2133 0ceb 18       		.uleb128 0x18
 2134 0cec DB0C0000 		.4byte	0xcdb
 2135 0cf0 21       		.uleb128 0x21
 2136 0cf1 DD020000 		.4byte	.LASF148
 2137 0cf5 01       		.byte	0x1
 2138 0cf6 90       		.byte	0x90
 2139 0cf7 00000000 		.4byte	.LFB277
 2140 0cfb 18000000 		.4byte	.LFE277-.LFB277
 2141 0cff 01       		.uleb128 0x1
 2142 0d00 9C       		.byte	0x9c
 2143 0d01 160E0000 		.4byte	0xe16
 2144 0d05 24       		.uleb128 0x24
 2145 0d06 78020000 		.4byte	.LASF137
 2146 0d0a 01       		.byte	0x1
 2147 0d0b 90       		.byte	0x90
 2148 0d0c FE070000 		.4byte	0x7fe
 2149 0d10 7D000000 		.4byte	.LLST4
 2150 0d14 24       		.uleb128 0x24
 2151 0d15 C9010000 		.4byte	.LASF138
ARM GAS  /tmp/ccRd3JRk.s 			page 39


 2152 0d19 01       		.byte	0x1
 2153 0d1a 90       		.byte	0x90
 2154 0d1b 10080000 		.4byte	0x810
 2155 0d1f 9E000000 		.4byte	.LLST5
 2156 0d23 29       		.uleb128 0x29
 2157 0d24 DC080000 		.4byte	0x8dc
 2158 0d28 02000000 		.4byte	.LBB151
 2159 0d2c 06000000 		.4byte	.LBE151-.LBB151
 2160 0d30 01       		.byte	0x1
 2161 0d31 92       		.byte	0x92
 2162 0d32 700D0000 		.4byte	0xd70
 2163 0d36 2A       		.uleb128 0x2a
 2164 0d37 A3080000 		.4byte	0x8a3
 2165 0d3b 02000000 		.4byte	.LBB152
 2166 0d3f 06000000 		.4byte	.LBE152-.LBB152
 2167 0d43 11       		.byte	0x11
 2168 0d44 ED01     		.2byte	0x1ed
 2169 0d46 2A       		.uleb128 0x2a
 2170 0d47 91080000 		.4byte	0x891
 2171 0d4b 02000000 		.4byte	.LBB153
 2172 0d4f 06000000 		.4byte	.LBE153-.LBB153
 2173 0d53 10       		.byte	0x10
 2174 0d54 5C01     		.2byte	0x15c
 2175 0d56 2A       		.uleb128 0x2a
 2176 0d57 77080000 		.4byte	0x877
 2177 0d5b 02000000 		.4byte	.LBB154
 2178 0d5f 06000000 		.4byte	.LBE154-.LBB154
 2179 0d63 09       		.byte	0x9
 2180 0d64 D001     		.2byte	0x1d0
 2181 0d66 28       		.uleb128 0x28
 2182 0d67 84080000 		.4byte	0x884
 2183 0d6b 20       		.byte	0x20
 2184 0d6c 00       		.byte	0
 2185 0d6d 00       		.byte	0
 2186 0d6e 00       		.byte	0
 2187 0d6f 00       		.byte	0
 2188 0d70 29       		.uleb128 0x29
 2189 0d71 EE080000 		.4byte	0x8ee
 2190 0d75 08000000 		.4byte	.LBB156
 2191 0d79 08000000 		.4byte	.LBE156-.LBB156
 2192 0d7d 01       		.byte	0x1
 2193 0d7e 93       		.byte	0x93
 2194 0d7f BD0D0000 		.4byte	0xdbd
 2195 0d83 30       		.uleb128 0x30
 2196 0d84 05090000 		.4byte	0x905
 2197 0d88 BF000000 		.4byte	.LLST6
 2198 0d8c 30       		.uleb128 0x30
 2199 0d8d FA080000 		.4byte	0x8fa
 2200 0d91 E0000000 		.4byte	.LLST7
 2201 0d95 2B       		.uleb128 0x2b
 2202 0d96 08000000 		.4byte	.LBB157
 2203 0d9a 08000000 		.4byte	.LBE157-.LBB157
 2204 0d9e 2C       		.uleb128 0x2c
 2205 0d9f 10090000 		.4byte	0x910
 2206 0da3 2D       		.uleb128 0x2d
 2207 0da4 10000000 		.4byte	.LVL13
 2208 0da8 AD110000 		.4byte	0x11ad
ARM GAS  /tmp/ccRd3JRk.s 			page 40


 2209 0dac 2E       		.uleb128 0x2e
 2210 0dad 01       		.uleb128 0x1
 2211 0dae 51       		.byte	0x51
 2212 0daf 03       		.uleb128 0x3
 2213 0db0 F3       		.byte	0xf3
 2214 0db1 01       		.uleb128 0x1
 2215 0db2 51       		.byte	0x51
 2216 0db3 2E       		.uleb128 0x2e
 2217 0db4 01       		.uleb128 0x1
 2218 0db5 50       		.byte	0x50
 2219 0db6 03       		.uleb128 0x3
 2220 0db7 F3       		.byte	0xf3
 2221 0db8 01       		.uleb128 0x1
 2222 0db9 50       		.byte	0x50
 2223 0dba 00       		.byte	0
 2224 0dbb 00       		.byte	0
 2225 0dbc 00       		.byte	0
 2226 0dbd 2F       		.uleb128 0x2f
 2227 0dbe E5080000 		.4byte	0x8e5
 2228 0dc2 10000000 		.4byte	.LBB158
 2229 0dc6 08000000 		.4byte	.LBE158-.LBB158
 2230 0dca 01       		.byte	0x1
 2231 0dcb 94       		.byte	0x94
 2232 0dcc 2A       		.uleb128 0x2a
 2233 0dcd AC080000 		.4byte	0x8ac
 2234 0dd1 10000000 		.4byte	.LBB159
 2235 0dd5 08000000 		.4byte	.LBE159-.LBB159
 2236 0dd9 11       		.byte	0x11
 2237 0dda F801     		.2byte	0x1f8
 2238 0ddc 2B       		.uleb128 0x2b
 2239 0ddd 10000000 		.4byte	.LBB160
 2240 0de1 08000000 		.4byte	.LBE160-.LBB160
 2241 0de5 2C       		.uleb128 0x2c
 2242 0de6 B9080000 		.4byte	0x8b9
 2243 0dea 2A       		.uleb128 0x2a
 2244 0deb 9A080000 		.4byte	0x89a
 2245 0def 10000000 		.4byte	.LBB161
 2246 0df3 08000000 		.4byte	.LBE161-.LBB161
 2247 0df7 10       		.byte	0x10
 2248 0df8 7301     		.2byte	0x173
 2249 0dfa 2A       		.uleb128 0x2a
 2250 0dfb 77080000 		.4byte	0x877
 2251 0dff 10000000 		.4byte	.LBB162
 2252 0e03 08000000 		.4byte	.LBE162-.LBB162
 2253 0e07 09       		.byte	0x9
 2254 0e08 E301     		.2byte	0x1e3
 2255 0e0a 28       		.uleb128 0x28
 2256 0e0b 84080000 		.4byte	0x884
 2257 0e0f 00       		.byte	0
 2258 0e10 00       		.byte	0
 2259 0e11 00       		.byte	0
 2260 0e12 00       		.byte	0
 2261 0e13 00       		.byte	0
 2262 0e14 00       		.byte	0
 2263 0e15 00       		.byte	0
 2264 0e16 31       		.uleb128 0x31
 2265 0e17 EE080000 		.4byte	0x8ee
ARM GAS  /tmp/ccRd3JRk.s 			page 41


 2266 0e1b 00000000 		.4byte	.LFB278
 2267 0e1f 08000000 		.4byte	.LFE278-.LFB278
 2268 0e23 01       		.uleb128 0x1
 2269 0e24 9C       		.byte	0x9c
 2270 0e25 590E0000 		.4byte	0xe59
 2271 0e29 30       		.uleb128 0x30
 2272 0e2a FA080000 		.4byte	0x8fa
 2273 0e2e 01010000 		.4byte	.LLST8
 2274 0e32 30       		.uleb128 0x30
 2275 0e33 05090000 		.4byte	0x905
 2276 0e37 22010000 		.4byte	.LLST9
 2277 0e3b 2C       		.uleb128 0x2c
 2278 0e3c 10090000 		.4byte	0x910
 2279 0e40 32       		.uleb128 0x32
 2280 0e41 08000000 		.4byte	.LVL15
 2281 0e45 AD110000 		.4byte	0x11ad
 2282 0e49 2E       		.uleb128 0x2e
 2283 0e4a 01       		.uleb128 0x1
 2284 0e4b 51       		.byte	0x51
 2285 0e4c 03       		.uleb128 0x3
 2286 0e4d F3       		.byte	0xf3
 2287 0e4e 01       		.uleb128 0x1
 2288 0e4f 51       		.byte	0x51
 2289 0e50 2E       		.uleb128 0x2e
 2290 0e51 01       		.uleb128 0x1
 2291 0e52 50       		.byte	0x50
 2292 0e53 03       		.uleb128 0x3
 2293 0e54 F3       		.byte	0xf3
 2294 0e55 01       		.uleb128 0x1
 2295 0e56 50       		.byte	0x50
 2296 0e57 00       		.byte	0
 2297 0e58 00       		.byte	0
 2298 0e59 21       		.uleb128 0x21
 2299 0e5a 53020000 		.4byte	.LASF149
 2300 0e5e 01       		.byte	0x1
 2301 0e5f B2       		.byte	0xb2
 2302 0e60 00000000 		.4byte	.LFB279
 2303 0e64 18000000 		.4byte	.LFE279-.LFB279
 2304 0e68 01       		.uleb128 0x1
 2305 0e69 9C       		.byte	0x9c
 2306 0e6a 7F0F0000 		.4byte	0xf7f
 2307 0e6e 24       		.uleb128 0x24
 2308 0e6f 78020000 		.4byte	.LASF137
 2309 0e73 01       		.byte	0x1
 2310 0e74 B2       		.byte	0xb2
 2311 0e75 FE070000 		.4byte	0x7fe
 2312 0e79 43010000 		.4byte	.LLST10
 2313 0e7d 24       		.uleb128 0x24
 2314 0e7e C9010000 		.4byte	.LASF138
 2315 0e82 01       		.byte	0x1
 2316 0e83 B2       		.byte	0xb2
 2317 0e84 10080000 		.4byte	0x810
 2318 0e88 64010000 		.4byte	.LLST11
 2319 0e8c 29       		.uleb128 0x29
 2320 0e8d DC080000 		.4byte	0x8dc
 2321 0e91 02000000 		.4byte	.LBB164
 2322 0e95 06000000 		.4byte	.LBE164-.LBB164
ARM GAS  /tmp/ccRd3JRk.s 			page 42


 2323 0e99 01       		.byte	0x1
 2324 0e9a B4       		.byte	0xb4
 2325 0e9b D90E0000 		.4byte	0xed9
 2326 0e9f 2A       		.uleb128 0x2a
 2327 0ea0 A3080000 		.4byte	0x8a3
 2328 0ea4 02000000 		.4byte	.LBB165
 2329 0ea8 06000000 		.4byte	.LBE165-.LBB165
 2330 0eac 11       		.byte	0x11
 2331 0ead ED01     		.2byte	0x1ed
 2332 0eaf 2A       		.uleb128 0x2a
 2333 0eb0 91080000 		.4byte	0x891
 2334 0eb4 02000000 		.4byte	.LBB166
 2335 0eb8 06000000 		.4byte	.LBE166-.LBB166
 2336 0ebc 10       		.byte	0x10
 2337 0ebd 5C01     		.2byte	0x15c
 2338 0ebf 2A       		.uleb128 0x2a
 2339 0ec0 77080000 		.4byte	0x877
 2340 0ec4 02000000 		.4byte	.LBB167
 2341 0ec8 06000000 		.4byte	.LBE167-.LBB167
 2342 0ecc 09       		.byte	0x9
 2343 0ecd D001     		.2byte	0x1d0
 2344 0ecf 28       		.uleb128 0x28
 2345 0ed0 84080000 		.4byte	0x884
 2346 0ed4 20       		.byte	0x20
 2347 0ed5 00       		.byte	0
 2348 0ed6 00       		.byte	0
 2349 0ed7 00       		.byte	0
 2350 0ed8 00       		.byte	0
 2351 0ed9 29       		.uleb128 0x29
 2352 0eda 33090000 		.4byte	0x933
 2353 0ede 08000000 		.4byte	.LBB169
 2354 0ee2 08000000 		.4byte	.LBE169-.LBB169
 2355 0ee6 01       		.byte	0x1
 2356 0ee7 B5       		.byte	0xb5
 2357 0ee8 260F0000 		.4byte	0xf26
 2358 0eec 30       		.uleb128 0x30
 2359 0eed 4A090000 		.4byte	0x94a
 2360 0ef1 85010000 		.4byte	.LLST12
 2361 0ef5 30       		.uleb128 0x30
 2362 0ef6 3F090000 		.4byte	0x93f
 2363 0efa A6010000 		.4byte	.LLST13
 2364 0efe 2B       		.uleb128 0x2b
 2365 0eff 08000000 		.4byte	.LBB170
 2366 0f03 08000000 		.4byte	.LBE170-.LBB170
 2367 0f07 2C       		.uleb128 0x2c
 2368 0f08 55090000 		.4byte	0x955
 2369 0f0c 2D       		.uleb128 0x2d
 2370 0f0d 10000000 		.4byte	.LVL18
 2371 0f11 AD110000 		.4byte	0x11ad
 2372 0f15 2E       		.uleb128 0x2e
 2373 0f16 01       		.uleb128 0x1
 2374 0f17 51       		.byte	0x51
 2375 0f18 03       		.uleb128 0x3
 2376 0f19 F3       		.byte	0xf3
 2377 0f1a 01       		.uleb128 0x1
 2378 0f1b 51       		.byte	0x51
 2379 0f1c 2E       		.uleb128 0x2e
ARM GAS  /tmp/ccRd3JRk.s 			page 43


 2380 0f1d 01       		.uleb128 0x1
 2381 0f1e 50       		.byte	0x50
 2382 0f1f 03       		.uleb128 0x3
 2383 0f20 F3       		.byte	0xf3
 2384 0f21 01       		.uleb128 0x1
 2385 0f22 50       		.byte	0x50
 2386 0f23 00       		.byte	0
 2387 0f24 00       		.byte	0
 2388 0f25 00       		.byte	0
 2389 0f26 2F       		.uleb128 0x2f
 2390 0f27 E5080000 		.4byte	0x8e5
 2391 0f2b 10000000 		.4byte	.LBB171
 2392 0f2f 08000000 		.4byte	.LBE171-.LBB171
 2393 0f33 01       		.byte	0x1
 2394 0f34 B6       		.byte	0xb6
 2395 0f35 2A       		.uleb128 0x2a
 2396 0f36 AC080000 		.4byte	0x8ac
 2397 0f3a 10000000 		.4byte	.LBB172
 2398 0f3e 08000000 		.4byte	.LBE172-.LBB172
 2399 0f42 11       		.byte	0x11
 2400 0f43 F801     		.2byte	0x1f8
 2401 0f45 2B       		.uleb128 0x2b
 2402 0f46 10000000 		.4byte	.LBB173
 2403 0f4a 08000000 		.4byte	.LBE173-.LBB173
 2404 0f4e 2C       		.uleb128 0x2c
 2405 0f4f B9080000 		.4byte	0x8b9
 2406 0f53 2A       		.uleb128 0x2a
 2407 0f54 9A080000 		.4byte	0x89a
 2408 0f58 10000000 		.4byte	.LBB174
 2409 0f5c 08000000 		.4byte	.LBE174-.LBB174
 2410 0f60 10       		.byte	0x10
 2411 0f61 7301     		.2byte	0x173
 2412 0f63 2A       		.uleb128 0x2a
 2413 0f64 77080000 		.4byte	0x877
 2414 0f68 10000000 		.4byte	.LBB175
 2415 0f6c 08000000 		.4byte	.LBE175-.LBB175
 2416 0f70 09       		.byte	0x9
 2417 0f71 E301     		.2byte	0x1e3
 2418 0f73 28       		.uleb128 0x28
 2419 0f74 84080000 		.4byte	0x884
 2420 0f78 00       		.byte	0
 2421 0f79 00       		.byte	0
 2422 0f7a 00       		.byte	0
 2423 0f7b 00       		.byte	0
 2424 0f7c 00       		.byte	0
 2425 0f7d 00       		.byte	0
 2426 0f7e 00       		.byte	0
 2427 0f7f 31       		.uleb128 0x31
 2428 0f80 33090000 		.4byte	0x933
 2429 0f84 00000000 		.4byte	.LFB280
 2430 0f88 08000000 		.4byte	.LFE280-.LFB280
 2431 0f8c 01       		.uleb128 0x1
 2432 0f8d 9C       		.byte	0x9c
 2433 0f8e C20F0000 		.4byte	0xfc2
 2434 0f92 30       		.uleb128 0x30
 2435 0f93 3F090000 		.4byte	0x93f
 2436 0f97 C7010000 		.4byte	.LLST14
ARM GAS  /tmp/ccRd3JRk.s 			page 44


 2437 0f9b 30       		.uleb128 0x30
 2438 0f9c 4A090000 		.4byte	0x94a
 2439 0fa0 E8010000 		.4byte	.LLST15
 2440 0fa4 2C       		.uleb128 0x2c
 2441 0fa5 55090000 		.4byte	0x955
 2442 0fa9 32       		.uleb128 0x32
 2443 0faa 08000000 		.4byte	.LVL20
 2444 0fae AD110000 		.4byte	0x11ad
 2445 0fb2 2E       		.uleb128 0x2e
 2446 0fb3 01       		.uleb128 0x1
 2447 0fb4 51       		.byte	0x51
 2448 0fb5 03       		.uleb128 0x3
 2449 0fb6 F3       		.byte	0xf3
 2450 0fb7 01       		.uleb128 0x1
 2451 0fb8 51       		.byte	0x51
 2452 0fb9 2E       		.uleb128 0x2e
 2453 0fba 01       		.uleb128 0x1
 2454 0fbb 50       		.byte	0x50
 2455 0fbc 03       		.uleb128 0x3
 2456 0fbd F3       		.byte	0xf3
 2457 0fbe 01       		.uleb128 0x1
 2458 0fbf 50       		.byte	0x50
 2459 0fc0 00       		.byte	0
 2460 0fc1 00       		.byte	0
 2461 0fc2 21       		.uleb128 0x21
 2462 0fc3 1F030000 		.4byte	.LASF150
 2463 0fc7 01       		.byte	0x1
 2464 0fc8 D4       		.byte	0xd4
 2465 0fc9 00000000 		.4byte	.LFB281
 2466 0fcd 18000000 		.4byte	.LFE281-.LFB281
 2467 0fd1 01       		.uleb128 0x1
 2468 0fd2 9C       		.byte	0x9c
 2469 0fd3 C9100000 		.4byte	0x10c9
 2470 0fd7 24       		.uleb128 0x24
 2471 0fd8 78020000 		.4byte	.LASF137
 2472 0fdc 01       		.byte	0x1
 2473 0fdd D4       		.byte	0xd4
 2474 0fde FE070000 		.4byte	0x7fe
 2475 0fe2 09020000 		.4byte	.LLST16
 2476 0fe6 29       		.uleb128 0x29
 2477 0fe7 DC080000 		.4byte	0x8dc
 2478 0feb 02000000 		.4byte	.LBB177
 2479 0fef 06000000 		.4byte	.LBE177-.LBB177
 2480 0ff3 01       		.byte	0x1
 2481 0ff4 D6       		.byte	0xd6
 2482 0ff5 33100000 		.4byte	0x1033
 2483 0ff9 2A       		.uleb128 0x2a
 2484 0ffa A3080000 		.4byte	0x8a3
 2485 0ffe 02000000 		.4byte	.LBB178
 2486 1002 06000000 		.4byte	.LBE178-.LBB178
 2487 1006 11       		.byte	0x11
 2488 1007 ED01     		.2byte	0x1ed
 2489 1009 2A       		.uleb128 0x2a
 2490 100a 91080000 		.4byte	0x891
 2491 100e 02000000 		.4byte	.LBB179
 2492 1012 06000000 		.4byte	.LBE179-.LBB179
 2493 1016 10       		.byte	0x10
ARM GAS  /tmp/ccRd3JRk.s 			page 45


 2494 1017 5C01     		.2byte	0x15c
 2495 1019 2A       		.uleb128 0x2a
 2496 101a 77080000 		.4byte	0x877
 2497 101e 02000000 		.4byte	.LBB180
 2498 1022 06000000 		.4byte	.LBE180-.LBB180
 2499 1026 09       		.byte	0x9
 2500 1027 D001     		.2byte	0x1d0
 2501 1029 28       		.uleb128 0x28
 2502 102a 84080000 		.4byte	0x884
 2503 102e 20       		.byte	0x20
 2504 102f 00       		.byte	0
 2505 1030 00       		.byte	0
 2506 1031 00       		.byte	0
 2507 1032 00       		.byte	0
 2508 1033 29       		.uleb128 0x29
 2509 1034 78090000 		.4byte	0x978
 2510 1038 08000000 		.4byte	.LBB182
 2511 103c 08000000 		.4byte	.LBE182-.LBB182
 2512 1040 01       		.byte	0x1
 2513 1041 D7       		.byte	0xd7
 2514 1042 70100000 		.4byte	0x1070
 2515 1046 30       		.uleb128 0x30
 2516 1047 84090000 		.4byte	0x984
 2517 104b 2A020000 		.4byte	.LLST17
 2518 104f 2B       		.uleb128 0x2b
 2519 1050 08000000 		.4byte	.LBB183
 2520 1054 08000000 		.4byte	.LBE183-.LBB183
 2521 1058 2C       		.uleb128 0x2c
 2522 1059 8F090000 		.4byte	0x98f
 2523 105d 2D       		.uleb128 0x2d
 2524 105e 10000000 		.4byte	.LVL23
 2525 1062 C4110000 		.4byte	0x11c4
 2526 1066 2E       		.uleb128 0x2e
 2527 1067 01       		.uleb128 0x1
 2528 1068 50       		.byte	0x50
 2529 1069 03       		.uleb128 0x3
 2530 106a F3       		.byte	0xf3
 2531 106b 01       		.uleb128 0x1
 2532 106c 50       		.byte	0x50
 2533 106d 00       		.byte	0
 2534 106e 00       		.byte	0
 2535 106f 00       		.byte	0
 2536 1070 2F       		.uleb128 0x2f
 2537 1071 E5080000 		.4byte	0x8e5
 2538 1075 10000000 		.4byte	.LBB184
 2539 1079 08000000 		.4byte	.LBE184-.LBB184
 2540 107d 01       		.byte	0x1
 2541 107e D8       		.byte	0xd8
 2542 107f 2A       		.uleb128 0x2a
 2543 1080 AC080000 		.4byte	0x8ac
 2544 1084 10000000 		.4byte	.LBB185
 2545 1088 08000000 		.4byte	.LBE185-.LBB185
 2546 108c 11       		.byte	0x11
 2547 108d F801     		.2byte	0x1f8
 2548 108f 2B       		.uleb128 0x2b
 2549 1090 10000000 		.4byte	.LBB186
 2550 1094 08000000 		.4byte	.LBE186-.LBB186
ARM GAS  /tmp/ccRd3JRk.s 			page 46


 2551 1098 2C       		.uleb128 0x2c
 2552 1099 B9080000 		.4byte	0x8b9
 2553 109d 2A       		.uleb128 0x2a
 2554 109e 9A080000 		.4byte	0x89a
 2555 10a2 10000000 		.4byte	.LBB187
 2556 10a6 08000000 		.4byte	.LBE187-.LBB187
 2557 10aa 10       		.byte	0x10
 2558 10ab 7301     		.2byte	0x173
 2559 10ad 2A       		.uleb128 0x2a
 2560 10ae 77080000 		.4byte	0x877
 2561 10b2 10000000 		.4byte	.LBB188
 2562 10b6 08000000 		.4byte	.LBE188-.LBB188
 2563 10ba 09       		.byte	0x9
 2564 10bb E301     		.2byte	0x1e3
 2565 10bd 28       		.uleb128 0x28
 2566 10be 84080000 		.4byte	0x884
 2567 10c2 00       		.byte	0
 2568 10c3 00       		.byte	0
 2569 10c4 00       		.byte	0
 2570 10c5 00       		.byte	0
 2571 10c6 00       		.byte	0
 2572 10c7 00       		.byte	0
 2573 10c8 00       		.byte	0
 2574 10c9 31       		.uleb128 0x31
 2575 10ca 78090000 		.4byte	0x978
 2576 10ce 00000000 		.4byte	.LFB282
 2577 10d2 08000000 		.4byte	.LFE282-.LFB282
 2578 10d6 01       		.uleb128 0x1
 2579 10d7 9C       		.byte	0x9c
 2580 10d8 FC100000 		.4byte	0x10fc
 2581 10dc 30       		.uleb128 0x30
 2582 10dd 84090000 		.4byte	0x984
 2583 10e1 4B020000 		.4byte	.LLST18
 2584 10e5 2C       		.uleb128 0x2c
 2585 10e6 8F090000 		.4byte	0x98f
 2586 10ea 32       		.uleb128 0x32
 2587 10eb 08000000 		.4byte	.LVL25
 2588 10ef C4110000 		.4byte	0x11c4
 2589 10f3 2E       		.uleb128 0x2e
 2590 10f4 01       		.uleb128 0x1
 2591 10f5 50       		.byte	0x50
 2592 10f6 03       		.uleb128 0x3
 2593 10f7 F3       		.byte	0xf3
 2594 10f8 01       		.uleb128 0x1
 2595 10f9 50       		.byte	0x50
 2596 10fa 00       		.byte	0
 2597 10fb 00       		.byte	0
 2598 10fc 21       		.uleb128 0x21
 2599 10fd 0D070000 		.4byte	.LASF151
 2600 1101 01       		.byte	0x1
 2601 1102 FA       		.byte	0xfa
 2602 1103 00000000 		.4byte	.LFB283
 2603 1107 12000000 		.4byte	.LFE283-.LFB283
 2604 110b 01       		.uleb128 0x1
 2605 110c 9C       		.byte	0x9c
 2606 110d 50110000 		.4byte	0x1150
 2607 1111 24       		.uleb128 0x24
ARM GAS  /tmp/ccRd3JRk.s 			page 47


 2608 1112 78020000 		.4byte	.LASF137
 2609 1116 01       		.byte	0x1
 2610 1117 FA       		.byte	0xfa
 2611 1118 FE070000 		.4byte	0x7fe
 2612 111c 6C020000 		.4byte	.LLST19
 2613 1120 24       		.uleb128 0x24
 2614 1121 C9010000 		.4byte	.LASF138
 2615 1125 01       		.byte	0x1
 2616 1126 FA       		.byte	0xfa
 2617 1127 10080000 		.4byte	0x810
 2618 112b 8A020000 		.4byte	.LLST20
 2619 112f 25       		.uleb128 0x25
 2620 1130 78040000 		.4byte	.LASF139
 2621 1134 60110000 		.4byte	0x1160
 2622 1138 2D       		.uleb128 0x2d
 2623 1139 0C000000 		.4byte	.LVL27
 2624 113d D6110000 		.4byte	0x11d6
 2625 1141 2E       		.uleb128 0x2e
 2626 1142 01       		.uleb128 0x1
 2627 1143 51       		.byte	0x51
 2628 1144 03       		.uleb128 0x3
 2629 1145 F3       		.byte	0xf3
 2630 1146 01       		.uleb128 0x1
 2631 1147 51       		.byte	0x51
 2632 1148 2E       		.uleb128 0x2e
 2633 1149 01       		.uleb128 0x1
 2634 114a 50       		.byte	0x50
 2635 114b 02       		.uleb128 0x2
 2636 114c 74       		.byte	0x74
 2637 114d 00       		.sleb128 0
 2638 114e 00       		.byte	0
 2639 114f 00       		.byte	0
 2640 1150 10       		.uleb128 0x10
 2641 1151 29070000 		.4byte	0x729
 2642 1155 60110000 		.4byte	0x1160
 2643 1159 11       		.uleb128 0x11
 2644 115a 2F040000 		.4byte	0x42f
 2645 115e 0E       		.byte	0xe
 2646 115f 00       		.byte	0
 2647 1160 18       		.uleb128 0x18
 2648 1161 50110000 		.4byte	0x1150
 2649 1165 33       		.uleb128 0x33
 2650 1166 CB000000 		.4byte	.LASF152
 2651 116a 12       		.byte	0x12
 2652 116b FA06     		.2byte	0x6fa
 2653 116d 71110000 		.4byte	0x1171
 2654 1171 0F       		.uleb128 0xf
 2655 1172 A2000000 		.4byte	0xa2
 2656 1176 34       		.uleb128 0x34
 2657 1177 636800   		.ascii	"ch\000"
 2658 117a 07       		.byte	0x7
 2659 117b 0B02     		.2byte	0x20b
 2660 117d C8030000 		.4byte	0x3c8
 2661 1181 35       		.uleb128 0x35
 2662 1182 C4020000 		.4byte	.LASF160
 2663 1186 0F       		.byte	0xf
 2664 1187 7202     		.2byte	0x272
ARM GAS  /tmp/ccRd3JRk.s 			page 48


 2665 1189 36       		.uleb128 0x36
 2666 118a A8060000 		.4byte	.LASF153
 2667 118e 0F       		.byte	0xf
 2668 118f 7302     		.2byte	0x273
 2669 1191 9B110000 		.4byte	0x119b
 2670 1195 0C       		.uleb128 0xc
 2671 1196 FE070000 		.4byte	0x7fe
 2672 119a 00       		.byte	0
 2673 119b 36       		.uleb128 0x36
 2674 119c F2060000 		.4byte	.LASF154
 2675 11a0 0F       		.byte	0xf
 2676 11a1 7402     		.2byte	0x274
 2677 11a3 AD110000 		.4byte	0x11ad
 2678 11a7 0C       		.uleb128 0xc
 2679 11a8 FE070000 		.4byte	0x7fe
 2680 11ac 00       		.byte	0
 2681 11ad 36       		.uleb128 0x36
 2682 11ae C1030000 		.4byte	.LASF155
 2683 11b2 0F       		.byte	0xf
 2684 11b3 7502     		.2byte	0x275
 2685 11b5 C4110000 		.4byte	0x11c4
 2686 11b9 0C       		.uleb128 0xc
 2687 11ba FE070000 		.4byte	0x7fe
 2688 11be 0C       		.uleb128 0xc
 2689 11bf 10080000 		.4byte	0x810
 2690 11c3 00       		.byte	0
 2691 11c4 36       		.uleb128 0x36
 2692 11c5 79030000 		.4byte	.LASF156
 2693 11c9 0F       		.byte	0xf
 2694 11ca 7602     		.2byte	0x276
 2695 11cc D6110000 		.4byte	0x11d6
 2696 11d0 0C       		.uleb128 0xc
 2697 11d1 FE070000 		.4byte	0x7fe
 2698 11d5 00       		.byte	0
 2699 11d6 37       		.uleb128 0x37
 2700 11d7 DD060000 		.4byte	.LASF161
 2701 11db 0F       		.byte	0xf
 2702 11dc 7702     		.2byte	0x277
 2703 11de 0C       		.uleb128 0xc
 2704 11df FE070000 		.4byte	0x7fe
 2705 11e3 0C       		.uleb128 0xc
 2706 11e4 10080000 		.4byte	0x810
 2707 11e8 00       		.byte	0
 2708 11e9 00       		.byte	0
 2709              		.section	.debug_abbrev,"",%progbits
 2710              	.Ldebug_abbrev0:
 2711 0000 01       		.uleb128 0x1
 2712 0001 11       		.uleb128 0x11
 2713 0002 01       		.byte	0x1
 2714 0003 25       		.uleb128 0x25
 2715 0004 0E       		.uleb128 0xe
 2716 0005 13       		.uleb128 0x13
 2717 0006 0B       		.uleb128 0xb
 2718 0007 03       		.uleb128 0x3
 2719 0008 0E       		.uleb128 0xe
 2720 0009 1B       		.uleb128 0x1b
 2721 000a 0E       		.uleb128 0xe
ARM GAS  /tmp/ccRd3JRk.s 			page 49


 2722 000b 55       		.uleb128 0x55
 2723 000c 17       		.uleb128 0x17
 2724 000d 11       		.uleb128 0x11
 2725 000e 01       		.uleb128 0x1
 2726 000f 10       		.uleb128 0x10
 2727 0010 17       		.uleb128 0x17
 2728 0011 00       		.byte	0
 2729 0012 00       		.byte	0
 2730 0013 02       		.uleb128 0x2
 2731 0014 24       		.uleb128 0x24
 2732 0015 00       		.byte	0
 2733 0016 0B       		.uleb128 0xb
 2734 0017 0B       		.uleb128 0xb
 2735 0018 3E       		.uleb128 0x3e
 2736 0019 0B       		.uleb128 0xb
 2737 001a 03       		.uleb128 0x3
 2738 001b 08       		.uleb128 0x8
 2739 001c 00       		.byte	0
 2740 001d 00       		.byte	0
 2741 001e 03       		.uleb128 0x3
 2742 001f 24       		.uleb128 0x24
 2743 0020 00       		.byte	0
 2744 0021 0B       		.uleb128 0xb
 2745 0022 0B       		.uleb128 0xb
 2746 0023 3E       		.uleb128 0x3e
 2747 0024 0B       		.uleb128 0xb
 2748 0025 03       		.uleb128 0x3
 2749 0026 0E       		.uleb128 0xe
 2750 0027 00       		.byte	0
 2751 0028 00       		.byte	0
 2752 0029 04       		.uleb128 0x4
 2753 002a 16       		.uleb128 0x16
 2754 002b 00       		.byte	0
 2755 002c 03       		.uleb128 0x3
 2756 002d 0E       		.uleb128 0xe
 2757 002e 3A       		.uleb128 0x3a
 2758 002f 0B       		.uleb128 0xb
 2759 0030 3B       		.uleb128 0x3b
 2760 0031 0B       		.uleb128 0xb
 2761 0032 49       		.uleb128 0x49
 2762 0033 13       		.uleb128 0x13
 2763 0034 00       		.byte	0
 2764 0035 00       		.byte	0
 2765 0036 05       		.uleb128 0x5
 2766 0037 13       		.uleb128 0x13
 2767 0038 01       		.byte	0x1
 2768 0039 03       		.uleb128 0x3
 2769 003a 0E       		.uleb128 0xe
 2770 003b 0B       		.uleb128 0xb
 2771 003c 0B       		.uleb128 0xb
 2772 003d 3A       		.uleb128 0x3a
 2773 003e 0B       		.uleb128 0xb
 2774 003f 3B       		.uleb128 0x3b
 2775 0040 0B       		.uleb128 0xb
 2776 0041 01       		.uleb128 0x1
 2777 0042 13       		.uleb128 0x13
 2778 0043 00       		.byte	0
ARM GAS  /tmp/ccRd3JRk.s 			page 50


 2779 0044 00       		.byte	0
 2780 0045 06       		.uleb128 0x6
 2781 0046 0D       		.uleb128 0xd
 2782 0047 00       		.byte	0
 2783 0048 03       		.uleb128 0x3
 2784 0049 0E       		.uleb128 0xe
 2785 004a 3A       		.uleb128 0x3a
 2786 004b 0B       		.uleb128 0xb
 2787 004c 3B       		.uleb128 0x3b
 2788 004d 0B       		.uleb128 0xb
 2789 004e 49       		.uleb128 0x49
 2790 004f 13       		.uleb128 0x13
 2791 0050 38       		.uleb128 0x38
 2792 0051 0B       		.uleb128 0xb
 2793 0052 00       		.byte	0
 2794 0053 00       		.byte	0
 2795 0054 07       		.uleb128 0x7
 2796 0055 0D       		.uleb128 0xd
 2797 0056 00       		.byte	0
 2798 0057 03       		.uleb128 0x3
 2799 0058 08       		.uleb128 0x8
 2800 0059 3A       		.uleb128 0x3a
 2801 005a 0B       		.uleb128 0xb
 2802 005b 3B       		.uleb128 0x3b
 2803 005c 05       		.uleb128 0x5
 2804 005d 49       		.uleb128 0x49
 2805 005e 13       		.uleb128 0x13
 2806 005f 38       		.uleb128 0x38
 2807 0060 0B       		.uleb128 0xb
 2808 0061 00       		.byte	0
 2809 0062 00       		.byte	0
 2810 0063 08       		.uleb128 0x8
 2811 0064 0D       		.uleb128 0xd
 2812 0065 00       		.byte	0
 2813 0066 03       		.uleb128 0x3
 2814 0067 0E       		.uleb128 0xe
 2815 0068 3A       		.uleb128 0x3a
 2816 0069 0B       		.uleb128 0xb
 2817 006a 3B       		.uleb128 0x3b
 2818 006b 05       		.uleb128 0x5
 2819 006c 49       		.uleb128 0x49
 2820 006d 13       		.uleb128 0x13
 2821 006e 38       		.uleb128 0x38
 2822 006f 0B       		.uleb128 0xb
 2823 0070 00       		.byte	0
 2824 0071 00       		.byte	0
 2825 0072 09       		.uleb128 0x9
 2826 0073 0F       		.uleb128 0xf
 2827 0074 00       		.byte	0
 2828 0075 0B       		.uleb128 0xb
 2829 0076 0B       		.uleb128 0xb
 2830 0077 49       		.uleb128 0x49
 2831 0078 13       		.uleb128 0x13
 2832 0079 00       		.byte	0
 2833 007a 00       		.byte	0
 2834 007b 0A       		.uleb128 0xa
 2835 007c 13       		.uleb128 0x13
ARM GAS  /tmp/ccRd3JRk.s 			page 51


 2836 007d 01       		.byte	0x1
 2837 007e 03       		.uleb128 0x3
 2838 007f 0E       		.uleb128 0xe
 2839 0080 0B       		.uleb128 0xb
 2840 0081 0B       		.uleb128 0xb
 2841 0082 3A       		.uleb128 0x3a
 2842 0083 0B       		.uleb128 0xb
 2843 0084 3B       		.uleb128 0x3b
 2844 0085 05       		.uleb128 0x5
 2845 0086 01       		.uleb128 0x1
 2846 0087 13       		.uleb128 0x13
 2847 0088 00       		.byte	0
 2848 0089 00       		.byte	0
 2849 008a 0B       		.uleb128 0xb
 2850 008b 15       		.uleb128 0x15
 2851 008c 01       		.byte	0x1
 2852 008d 27       		.uleb128 0x27
 2853 008e 19       		.uleb128 0x19
 2854 008f 01       		.uleb128 0x1
 2855 0090 13       		.uleb128 0x13
 2856 0091 00       		.byte	0
 2857 0092 00       		.byte	0
 2858 0093 0C       		.uleb128 0xc
 2859 0094 05       		.uleb128 0x5
 2860 0095 00       		.byte	0
 2861 0096 49       		.uleb128 0x49
 2862 0097 13       		.uleb128 0x13
 2863 0098 00       		.byte	0
 2864 0099 00       		.byte	0
 2865 009a 0D       		.uleb128 0xd
 2866 009b 0F       		.uleb128 0xf
 2867 009c 00       		.byte	0
 2868 009d 0B       		.uleb128 0xb
 2869 009e 0B       		.uleb128 0xb
 2870 009f 00       		.byte	0
 2871 00a0 00       		.byte	0
 2872 00a1 0E       		.uleb128 0xe
 2873 00a2 13       		.uleb128 0x13
 2874 00a3 01       		.byte	0x1
 2875 00a4 03       		.uleb128 0x3
 2876 00a5 0E       		.uleb128 0xe
 2877 00a6 0B       		.uleb128 0xb
 2878 00a7 05       		.uleb128 0x5
 2879 00a8 3A       		.uleb128 0x3a
 2880 00a9 0B       		.uleb128 0xb
 2881 00aa 3B       		.uleb128 0x3b
 2882 00ab 05       		.uleb128 0x5
 2883 00ac 01       		.uleb128 0x1
 2884 00ad 13       		.uleb128 0x13
 2885 00ae 00       		.byte	0
 2886 00af 00       		.byte	0
 2887 00b0 0F       		.uleb128 0xf
 2888 00b1 35       		.uleb128 0x35
 2889 00b2 00       		.byte	0
 2890 00b3 49       		.uleb128 0x49
 2891 00b4 13       		.uleb128 0x13
 2892 00b5 00       		.byte	0
ARM GAS  /tmp/ccRd3JRk.s 			page 52


 2893 00b6 00       		.byte	0
 2894 00b7 10       		.uleb128 0x10
 2895 00b8 01       		.uleb128 0x1
 2896 00b9 01       		.byte	0x1
 2897 00ba 49       		.uleb128 0x49
 2898 00bb 13       		.uleb128 0x13
 2899 00bc 01       		.uleb128 0x1
 2900 00bd 13       		.uleb128 0x13
 2901 00be 00       		.byte	0
 2902 00bf 00       		.byte	0
 2903 00c0 11       		.uleb128 0x11
 2904 00c1 21       		.uleb128 0x21
 2905 00c2 00       		.byte	0
 2906 00c3 49       		.uleb128 0x49
 2907 00c4 13       		.uleb128 0x13
 2908 00c5 2F       		.uleb128 0x2f
 2909 00c6 0B       		.uleb128 0xb
 2910 00c7 00       		.byte	0
 2911 00c8 00       		.byte	0
 2912 00c9 12       		.uleb128 0x12
 2913 00ca 0D       		.uleb128 0xd
 2914 00cb 00       		.byte	0
 2915 00cc 03       		.uleb128 0x3
 2916 00cd 08       		.uleb128 0x8
 2917 00ce 3A       		.uleb128 0x3a
 2918 00cf 0B       		.uleb128 0xb
 2919 00d0 3B       		.uleb128 0x3b
 2920 00d1 0B       		.uleb128 0xb
 2921 00d2 49       		.uleb128 0x49
 2922 00d3 13       		.uleb128 0x13
 2923 00d4 38       		.uleb128 0x38
 2924 00d5 0B       		.uleb128 0xb
 2925 00d6 00       		.byte	0
 2926 00d7 00       		.byte	0
 2927 00d8 13       		.uleb128 0x13
 2928 00d9 13       		.uleb128 0x13
 2929 00da 01       		.byte	0x1
 2930 00db 0B       		.uleb128 0xb
 2931 00dc 0B       		.uleb128 0xb
 2932 00dd 3A       		.uleb128 0x3a
 2933 00de 0B       		.uleb128 0xb
 2934 00df 3B       		.uleb128 0x3b
 2935 00e0 05       		.uleb128 0x5
 2936 00e1 01       		.uleb128 0x1
 2937 00e2 13       		.uleb128 0x13
 2938 00e3 00       		.byte	0
 2939 00e4 00       		.byte	0
 2940 00e5 14       		.uleb128 0x14
 2941 00e6 16       		.uleb128 0x16
 2942 00e7 00       		.byte	0
 2943 00e8 03       		.uleb128 0x3
 2944 00e9 0E       		.uleb128 0xe
 2945 00ea 3A       		.uleb128 0x3a
 2946 00eb 0B       		.uleb128 0xb
 2947 00ec 3B       		.uleb128 0x3b
 2948 00ed 05       		.uleb128 0x5
 2949 00ee 49       		.uleb128 0x49
ARM GAS  /tmp/ccRd3JRk.s 			page 53


 2950 00ef 13       		.uleb128 0x13
 2951 00f0 00       		.byte	0
 2952 00f1 00       		.byte	0
 2953 00f2 15       		.uleb128 0x15
 2954 00f3 13       		.uleb128 0x13
 2955 00f4 01       		.byte	0x1
 2956 00f5 0B       		.uleb128 0xb
 2957 00f6 0B       		.uleb128 0xb
 2958 00f7 3A       		.uleb128 0x3a
 2959 00f8 0B       		.uleb128 0xb
 2960 00f9 3B       		.uleb128 0x3b
 2961 00fa 0B       		.uleb128 0xb
 2962 00fb 01       		.uleb128 0x1
 2963 00fc 13       		.uleb128 0x13
 2964 00fd 00       		.byte	0
 2965 00fe 00       		.byte	0
 2966 00ff 16       		.uleb128 0x16
 2967 0100 17       		.uleb128 0x17
 2968 0101 01       		.byte	0x1
 2969 0102 0B       		.uleb128 0xb
 2970 0103 0B       		.uleb128 0xb
 2971 0104 3A       		.uleb128 0x3a
 2972 0105 0B       		.uleb128 0xb
 2973 0106 3B       		.uleb128 0x3b
 2974 0107 0B       		.uleb128 0xb
 2975 0108 01       		.uleb128 0x1
 2976 0109 13       		.uleb128 0x13
 2977 010a 00       		.byte	0
 2978 010b 00       		.byte	0
 2979 010c 17       		.uleb128 0x17
 2980 010d 0D       		.uleb128 0xd
 2981 010e 00       		.byte	0
 2982 010f 03       		.uleb128 0x3
 2983 0110 0E       		.uleb128 0xe
 2984 0111 3A       		.uleb128 0x3a
 2985 0112 0B       		.uleb128 0xb
 2986 0113 3B       		.uleb128 0x3b
 2987 0114 05       		.uleb128 0x5
 2988 0115 49       		.uleb128 0x49
 2989 0116 13       		.uleb128 0x13
 2990 0117 00       		.byte	0
 2991 0118 00       		.byte	0
 2992 0119 18       		.uleb128 0x18
 2993 011a 26       		.uleb128 0x26
 2994 011b 00       		.byte	0
 2995 011c 49       		.uleb128 0x49
 2996 011d 13       		.uleb128 0x13
 2997 011e 00       		.byte	0
 2998 011f 00       		.byte	0
 2999 0120 19       		.uleb128 0x19
 3000 0121 04       		.uleb128 0x4
 3001 0122 01       		.byte	0x1
 3002 0123 0B       		.uleb128 0xb
 3003 0124 0B       		.uleb128 0xb
 3004 0125 3A       		.uleb128 0x3a
 3005 0126 0B       		.uleb128 0xb
 3006 0127 3B       		.uleb128 0x3b
ARM GAS  /tmp/ccRd3JRk.s 			page 54


 3007 0128 0B       		.uleb128 0xb
 3008 0129 01       		.uleb128 0x1
 3009 012a 13       		.uleb128 0x13
 3010 012b 00       		.byte	0
 3011 012c 00       		.byte	0
 3012 012d 1A       		.uleb128 0x1a
 3013 012e 28       		.uleb128 0x28
 3014 012f 00       		.byte	0
 3015 0130 03       		.uleb128 0x3
 3016 0131 0E       		.uleb128 0xe
 3017 0132 1C       		.uleb128 0x1c
 3018 0133 0D       		.uleb128 0xd
 3019 0134 00       		.byte	0
 3020 0135 00       		.byte	0
 3021 0136 1B       		.uleb128 0x1b
 3022 0137 2E       		.uleb128 0x2e
 3023 0138 01       		.byte	0x1
 3024 0139 03       		.uleb128 0x3
 3025 013a 0E       		.uleb128 0xe
 3026 013b 3A       		.uleb128 0x3a
 3027 013c 0B       		.uleb128 0xb
 3028 013d 3B       		.uleb128 0x3b
 3029 013e 05       		.uleb128 0x5
 3030 013f 27       		.uleb128 0x27
 3031 0140 19       		.uleb128 0x19
 3032 0141 20       		.uleb128 0x20
 3033 0142 0B       		.uleb128 0xb
 3034 0143 01       		.uleb128 0x1
 3035 0144 13       		.uleb128 0x13
 3036 0145 00       		.byte	0
 3037 0146 00       		.byte	0
 3038 0147 1C       		.uleb128 0x1c
 3039 0148 05       		.uleb128 0x5
 3040 0149 00       		.byte	0
 3041 014a 03       		.uleb128 0x3
 3042 014b 0E       		.uleb128 0xe
 3043 014c 3A       		.uleb128 0x3a
 3044 014d 0B       		.uleb128 0xb
 3045 014e 3B       		.uleb128 0x3b
 3046 014f 05       		.uleb128 0x5
 3047 0150 49       		.uleb128 0x49
 3048 0151 13       		.uleb128 0x13
 3049 0152 00       		.byte	0
 3050 0153 00       		.byte	0
 3051 0154 1D       		.uleb128 0x1d
 3052 0155 2E       		.uleb128 0x2e
 3053 0156 00       		.byte	0
 3054 0157 03       		.uleb128 0x3
 3055 0158 0E       		.uleb128 0xe
 3056 0159 3A       		.uleb128 0x3a
 3057 015a 0B       		.uleb128 0xb
 3058 015b 3B       		.uleb128 0x3b
 3059 015c 05       		.uleb128 0x5
 3060 015d 27       		.uleb128 0x27
 3061 015e 19       		.uleb128 0x19
 3062 015f 20       		.uleb128 0x20
 3063 0160 0B       		.uleb128 0xb
ARM GAS  /tmp/ccRd3JRk.s 			page 55


 3064 0161 00       		.byte	0
 3065 0162 00       		.byte	0
 3066 0163 1E       		.uleb128 0x1e
 3067 0164 34       		.uleb128 0x34
 3068 0165 00       		.byte	0
 3069 0166 03       		.uleb128 0x3
 3070 0167 0E       		.uleb128 0xe
 3071 0168 49       		.uleb128 0x49
 3072 0169 13       		.uleb128 0x13
 3073 016a 34       		.uleb128 0x34
 3074 016b 19       		.uleb128 0x19
 3075 016c 1C       		.uleb128 0x1c
 3076 016d 0E       		.uleb128 0xe
 3077 016e 00       		.byte	0
 3078 016f 00       		.byte	0
 3079 0170 1F       		.uleb128 0x1f
 3080 0171 2E       		.uleb128 0x2e
 3081 0172 01       		.byte	0x1
 3082 0173 3F       		.uleb128 0x3f
 3083 0174 19       		.uleb128 0x19
 3084 0175 03       		.uleb128 0x3
 3085 0176 0E       		.uleb128 0xe
 3086 0177 3A       		.uleb128 0x3a
 3087 0178 0B       		.uleb128 0xb
 3088 0179 3B       		.uleb128 0x3b
 3089 017a 0B       		.uleb128 0xb
 3090 017b 27       		.uleb128 0x27
 3091 017c 19       		.uleb128 0x19
 3092 017d 20       		.uleb128 0x20
 3093 017e 0B       		.uleb128 0xb
 3094 017f 01       		.uleb128 0x1
 3095 0180 13       		.uleb128 0x13
 3096 0181 00       		.byte	0
 3097 0182 00       		.byte	0
 3098 0183 20       		.uleb128 0x20
 3099 0184 05       		.uleb128 0x5
 3100 0185 00       		.byte	0
 3101 0186 03       		.uleb128 0x3
 3102 0187 0E       		.uleb128 0xe
 3103 0188 3A       		.uleb128 0x3a
 3104 0189 0B       		.uleb128 0xb
 3105 018a 3B       		.uleb128 0x3b
 3106 018b 0B       		.uleb128 0xb
 3107 018c 49       		.uleb128 0x49
 3108 018d 13       		.uleb128 0x13
 3109 018e 00       		.byte	0
 3110 018f 00       		.byte	0
 3111 0190 21       		.uleb128 0x21
 3112 0191 2E       		.uleb128 0x2e
 3113 0192 01       		.byte	0x1
 3114 0193 3F       		.uleb128 0x3f
 3115 0194 19       		.uleb128 0x19
 3116 0195 03       		.uleb128 0x3
 3117 0196 0E       		.uleb128 0xe
 3118 0197 3A       		.uleb128 0x3a
 3119 0198 0B       		.uleb128 0xb
 3120 0199 3B       		.uleb128 0x3b
ARM GAS  /tmp/ccRd3JRk.s 			page 56


 3121 019a 0B       		.uleb128 0xb
 3122 019b 27       		.uleb128 0x27
 3123 019c 19       		.uleb128 0x19
 3124 019d 11       		.uleb128 0x11
 3125 019e 01       		.uleb128 0x1
 3126 019f 12       		.uleb128 0x12
 3127 01a0 06       		.uleb128 0x6
 3128 01a1 40       		.uleb128 0x40
 3129 01a2 18       		.uleb128 0x18
 3130 01a3 9742     		.uleb128 0x2117
 3131 01a5 19       		.uleb128 0x19
 3132 01a6 01       		.uleb128 0x1
 3133 01a7 13       		.uleb128 0x13
 3134 01a8 00       		.byte	0
 3135 01a9 00       		.byte	0
 3136 01aa 22       		.uleb128 0x22
 3137 01ab 898201   		.uleb128 0x4109
 3138 01ae 00       		.byte	0
 3139 01af 11       		.uleb128 0x11
 3140 01b0 01       		.uleb128 0x1
 3141 01b1 9542     		.uleb128 0x2115
 3142 01b3 19       		.uleb128 0x19
 3143 01b4 31       		.uleb128 0x31
 3144 01b5 13       		.uleb128 0x13
 3145 01b6 00       		.byte	0
 3146 01b7 00       		.byte	0
 3147 01b8 23       		.uleb128 0x23
 3148 01b9 05       		.uleb128 0x5
 3149 01ba 00       		.byte	0
 3150 01bb 03       		.uleb128 0x3
 3151 01bc 0E       		.uleb128 0xe
 3152 01bd 3A       		.uleb128 0x3a
 3153 01be 0B       		.uleb128 0xb
 3154 01bf 3B       		.uleb128 0x3b
 3155 01c0 0B       		.uleb128 0xb
 3156 01c1 49       		.uleb128 0x49
 3157 01c2 13       		.uleb128 0x13
 3158 01c3 02       		.uleb128 0x2
 3159 01c4 18       		.uleb128 0x18
 3160 01c5 00       		.byte	0
 3161 01c6 00       		.byte	0
 3162 01c7 24       		.uleb128 0x24
 3163 01c8 05       		.uleb128 0x5
 3164 01c9 00       		.byte	0
 3165 01ca 03       		.uleb128 0x3
 3166 01cb 0E       		.uleb128 0xe
 3167 01cc 3A       		.uleb128 0x3a
 3168 01cd 0B       		.uleb128 0xb
 3169 01ce 3B       		.uleb128 0x3b
 3170 01cf 0B       		.uleb128 0xb
 3171 01d0 49       		.uleb128 0x49
 3172 01d1 13       		.uleb128 0x13
 3173 01d2 02       		.uleb128 0x2
 3174 01d3 17       		.uleb128 0x17
 3175 01d4 00       		.byte	0
 3176 01d5 00       		.byte	0
 3177 01d6 25       		.uleb128 0x25
ARM GAS  /tmp/ccRd3JRk.s 			page 57


 3178 01d7 34       		.uleb128 0x34
 3179 01d8 00       		.byte	0
 3180 01d9 03       		.uleb128 0x3
 3181 01da 0E       		.uleb128 0xe
 3182 01db 49       		.uleb128 0x49
 3183 01dc 13       		.uleb128 0x13
 3184 01dd 34       		.uleb128 0x34
 3185 01de 19       		.uleb128 0x19
 3186 01df 00       		.byte	0
 3187 01e0 00       		.byte	0
 3188 01e1 26       		.uleb128 0x26
 3189 01e2 1D       		.uleb128 0x1d
 3190 01e3 01       		.byte	0x1
 3191 01e4 31       		.uleb128 0x31
 3192 01e5 13       		.uleb128 0x13
 3193 01e6 52       		.uleb128 0x52
 3194 01e7 01       		.uleb128 0x1
 3195 01e8 55       		.uleb128 0x55
 3196 01e9 17       		.uleb128 0x17
 3197 01ea 58       		.uleb128 0x58
 3198 01eb 0B       		.uleb128 0xb
 3199 01ec 59       		.uleb128 0x59
 3200 01ed 0B       		.uleb128 0xb
 3201 01ee 01       		.uleb128 0x1
 3202 01ef 13       		.uleb128 0x13
 3203 01f0 00       		.byte	0
 3204 01f1 00       		.byte	0
 3205 01f2 27       		.uleb128 0x27
 3206 01f3 1D       		.uleb128 0x1d
 3207 01f4 01       		.byte	0x1
 3208 01f5 31       		.uleb128 0x31
 3209 01f6 13       		.uleb128 0x13
 3210 01f7 52       		.uleb128 0x52
 3211 01f8 01       		.uleb128 0x1
 3212 01f9 55       		.uleb128 0x55
 3213 01fa 17       		.uleb128 0x17
 3214 01fb 58       		.uleb128 0x58
 3215 01fc 0B       		.uleb128 0xb
 3216 01fd 59       		.uleb128 0x59
 3217 01fe 05       		.uleb128 0x5
 3218 01ff 00       		.byte	0
 3219 0200 00       		.byte	0
 3220 0201 28       		.uleb128 0x28
 3221 0202 05       		.uleb128 0x5
 3222 0203 00       		.byte	0
 3223 0204 31       		.uleb128 0x31
 3224 0205 13       		.uleb128 0x13
 3225 0206 1C       		.uleb128 0x1c
 3226 0207 0B       		.uleb128 0xb
 3227 0208 00       		.byte	0
 3228 0209 00       		.byte	0
 3229 020a 29       		.uleb128 0x29
 3230 020b 1D       		.uleb128 0x1d
 3231 020c 01       		.byte	0x1
 3232 020d 31       		.uleb128 0x31
 3233 020e 13       		.uleb128 0x13
 3234 020f 11       		.uleb128 0x11
ARM GAS  /tmp/ccRd3JRk.s 			page 58


 3235 0210 01       		.uleb128 0x1
 3236 0211 12       		.uleb128 0x12
 3237 0212 06       		.uleb128 0x6
 3238 0213 58       		.uleb128 0x58
 3239 0214 0B       		.uleb128 0xb
 3240 0215 59       		.uleb128 0x59
 3241 0216 0B       		.uleb128 0xb
 3242 0217 01       		.uleb128 0x1
 3243 0218 13       		.uleb128 0x13
 3244 0219 00       		.byte	0
 3245 021a 00       		.byte	0
 3246 021b 2A       		.uleb128 0x2a
 3247 021c 1D       		.uleb128 0x1d
 3248 021d 01       		.byte	0x1
 3249 021e 31       		.uleb128 0x31
 3250 021f 13       		.uleb128 0x13
 3251 0220 11       		.uleb128 0x11
 3252 0221 01       		.uleb128 0x1
 3253 0222 12       		.uleb128 0x12
 3254 0223 06       		.uleb128 0x6
 3255 0224 58       		.uleb128 0x58
 3256 0225 0B       		.uleb128 0xb
 3257 0226 59       		.uleb128 0x59
 3258 0227 05       		.uleb128 0x5
 3259 0228 00       		.byte	0
 3260 0229 00       		.byte	0
 3261 022a 2B       		.uleb128 0x2b
 3262 022b 0B       		.uleb128 0xb
 3263 022c 01       		.byte	0x1
 3264 022d 11       		.uleb128 0x11
 3265 022e 01       		.uleb128 0x1
 3266 022f 12       		.uleb128 0x12
 3267 0230 06       		.uleb128 0x6
 3268 0231 00       		.byte	0
 3269 0232 00       		.byte	0
 3270 0233 2C       		.uleb128 0x2c
 3271 0234 34       		.uleb128 0x34
 3272 0235 00       		.byte	0
 3273 0236 31       		.uleb128 0x31
 3274 0237 13       		.uleb128 0x13
 3275 0238 00       		.byte	0
 3276 0239 00       		.byte	0
 3277 023a 2D       		.uleb128 0x2d
 3278 023b 898201   		.uleb128 0x4109
 3279 023e 01       		.byte	0x1
 3280 023f 11       		.uleb128 0x11
 3281 0240 01       		.uleb128 0x1
 3282 0241 31       		.uleb128 0x31
 3283 0242 13       		.uleb128 0x13
 3284 0243 00       		.byte	0
 3285 0244 00       		.byte	0
 3286 0245 2E       		.uleb128 0x2e
 3287 0246 8A8201   		.uleb128 0x410a
 3288 0249 00       		.byte	0
 3289 024a 02       		.uleb128 0x2
 3290 024b 18       		.uleb128 0x18
 3291 024c 9142     		.uleb128 0x2111
ARM GAS  /tmp/ccRd3JRk.s 			page 59


 3292 024e 18       		.uleb128 0x18
 3293 024f 00       		.byte	0
 3294 0250 00       		.byte	0
 3295 0251 2F       		.uleb128 0x2f
 3296 0252 1D       		.uleb128 0x1d
 3297 0253 01       		.byte	0x1
 3298 0254 31       		.uleb128 0x31
 3299 0255 13       		.uleb128 0x13
 3300 0256 11       		.uleb128 0x11
 3301 0257 01       		.uleb128 0x1
 3302 0258 12       		.uleb128 0x12
 3303 0259 06       		.uleb128 0x6
 3304 025a 58       		.uleb128 0x58
 3305 025b 0B       		.uleb128 0xb
 3306 025c 59       		.uleb128 0x59
 3307 025d 0B       		.uleb128 0xb
 3308 025e 00       		.byte	0
 3309 025f 00       		.byte	0
 3310 0260 30       		.uleb128 0x30
 3311 0261 05       		.uleb128 0x5
 3312 0262 00       		.byte	0
 3313 0263 31       		.uleb128 0x31
 3314 0264 13       		.uleb128 0x13
 3315 0265 02       		.uleb128 0x2
 3316 0266 17       		.uleb128 0x17
 3317 0267 00       		.byte	0
 3318 0268 00       		.byte	0
 3319 0269 31       		.uleb128 0x31
 3320 026a 2E       		.uleb128 0x2e
 3321 026b 01       		.byte	0x1
 3322 026c 31       		.uleb128 0x31
 3323 026d 13       		.uleb128 0x13
 3324 026e 11       		.uleb128 0x11
 3325 026f 01       		.uleb128 0x1
 3326 0270 12       		.uleb128 0x12
 3327 0271 06       		.uleb128 0x6
 3328 0272 40       		.uleb128 0x40
 3329 0273 18       		.uleb128 0x18
 3330 0274 9742     		.uleb128 0x2117
 3331 0276 19       		.uleb128 0x19
 3332 0277 01       		.uleb128 0x1
 3333 0278 13       		.uleb128 0x13
 3334 0279 00       		.byte	0
 3335 027a 00       		.byte	0
 3336 027b 32       		.uleb128 0x32
 3337 027c 898201   		.uleb128 0x4109
 3338 027f 01       		.byte	0x1
 3339 0280 11       		.uleb128 0x11
 3340 0281 01       		.uleb128 0x1
 3341 0282 9542     		.uleb128 0x2115
 3342 0284 19       		.uleb128 0x19
 3343 0285 31       		.uleb128 0x31
 3344 0286 13       		.uleb128 0x13
 3345 0287 00       		.byte	0
 3346 0288 00       		.byte	0
 3347 0289 33       		.uleb128 0x33
 3348 028a 34       		.uleb128 0x34
ARM GAS  /tmp/ccRd3JRk.s 			page 60


 3349 028b 00       		.byte	0
 3350 028c 03       		.uleb128 0x3
 3351 028d 0E       		.uleb128 0xe
 3352 028e 3A       		.uleb128 0x3a
 3353 028f 0B       		.uleb128 0xb
 3354 0290 3B       		.uleb128 0x3b
 3355 0291 05       		.uleb128 0x5
 3356 0292 49       		.uleb128 0x49
 3357 0293 13       		.uleb128 0x13
 3358 0294 3F       		.uleb128 0x3f
 3359 0295 19       		.uleb128 0x19
 3360 0296 3C       		.uleb128 0x3c
 3361 0297 19       		.uleb128 0x19
 3362 0298 00       		.byte	0
 3363 0299 00       		.byte	0
 3364 029a 34       		.uleb128 0x34
 3365 029b 34       		.uleb128 0x34
 3366 029c 00       		.byte	0
 3367 029d 03       		.uleb128 0x3
 3368 029e 08       		.uleb128 0x8
 3369 029f 3A       		.uleb128 0x3a
 3370 02a0 0B       		.uleb128 0xb
 3371 02a1 3B       		.uleb128 0x3b
 3372 02a2 05       		.uleb128 0x5
 3373 02a3 49       		.uleb128 0x49
 3374 02a4 13       		.uleb128 0x13
 3375 02a5 3F       		.uleb128 0x3f
 3376 02a6 19       		.uleb128 0x19
 3377 02a7 3C       		.uleb128 0x3c
 3378 02a8 19       		.uleb128 0x19
 3379 02a9 00       		.byte	0
 3380 02aa 00       		.byte	0
 3381 02ab 35       		.uleb128 0x35
 3382 02ac 2E       		.uleb128 0x2e
 3383 02ad 00       		.byte	0
 3384 02ae 3F       		.uleb128 0x3f
 3385 02af 19       		.uleb128 0x19
 3386 02b0 03       		.uleb128 0x3
 3387 02b1 0E       		.uleb128 0xe
 3388 02b2 3A       		.uleb128 0x3a
 3389 02b3 0B       		.uleb128 0xb
 3390 02b4 3B       		.uleb128 0x3b
 3391 02b5 05       		.uleb128 0x5
 3392 02b6 27       		.uleb128 0x27
 3393 02b7 19       		.uleb128 0x19
 3394 02b8 3C       		.uleb128 0x3c
 3395 02b9 19       		.uleb128 0x19
 3396 02ba 00       		.byte	0
 3397 02bb 00       		.byte	0
 3398 02bc 36       		.uleb128 0x36
 3399 02bd 2E       		.uleb128 0x2e
 3400 02be 01       		.byte	0x1
 3401 02bf 3F       		.uleb128 0x3f
 3402 02c0 19       		.uleb128 0x19
 3403 02c1 03       		.uleb128 0x3
 3404 02c2 0E       		.uleb128 0xe
 3405 02c3 3A       		.uleb128 0x3a
ARM GAS  /tmp/ccRd3JRk.s 			page 61


 3406 02c4 0B       		.uleb128 0xb
 3407 02c5 3B       		.uleb128 0x3b
 3408 02c6 05       		.uleb128 0x5
 3409 02c7 27       		.uleb128 0x27
 3410 02c8 19       		.uleb128 0x19
 3411 02c9 3C       		.uleb128 0x3c
 3412 02ca 19       		.uleb128 0x19
 3413 02cb 01       		.uleb128 0x1
 3414 02cc 13       		.uleb128 0x13
 3415 02cd 00       		.byte	0
 3416 02ce 00       		.byte	0
 3417 02cf 37       		.uleb128 0x37
 3418 02d0 2E       		.uleb128 0x2e
 3419 02d1 01       		.byte	0x1
 3420 02d2 3F       		.uleb128 0x3f
 3421 02d3 19       		.uleb128 0x19
 3422 02d4 03       		.uleb128 0x3
 3423 02d5 0E       		.uleb128 0xe
 3424 02d6 3A       		.uleb128 0x3a
 3425 02d7 0B       		.uleb128 0xb
 3426 02d8 3B       		.uleb128 0x3b
 3427 02d9 05       		.uleb128 0x5
 3428 02da 27       		.uleb128 0x27
 3429 02db 19       		.uleb128 0x19
 3430 02dc 3C       		.uleb128 0x3c
 3431 02dd 19       		.uleb128 0x19
 3432 02de 00       		.byte	0
 3433 02df 00       		.byte	0
 3434 02e0 00       		.byte	0
 3435              		.section	.debug_loc,"",%progbits
 3436              	.Ldebug_loc0:
 3437              	.LLST0:
 3438 0000 00000000 		.4byte	.LVL2
 3439 0004 0F000000 		.4byte	.LVL3-1
 3440 0008 0100     		.2byte	0x1
 3441 000a 50       		.byte	0x50
 3442 000b 0F000000 		.4byte	.LVL3-1
 3443 000f 1C000000 		.4byte	.LFE274
 3444 0013 0100     		.2byte	0x1
 3445 0015 54       		.byte	0x54
 3446 0016 00000000 		.4byte	0
 3447 001a 00000000 		.4byte	0
 3448              	.LLST1:
 3449 001e 00000000 		.4byte	.LVL2
 3450 0022 0F000000 		.4byte	.LVL3-1
 3451 0026 0100     		.2byte	0x1
 3452 0028 51       		.byte	0x51
 3453 0029 0F000000 		.4byte	.LVL3-1
 3454 002d 1C000000 		.4byte	.LFE274
 3455 0031 0400     		.2byte	0x4
 3456 0033 F3       		.byte	0xf3
 3457 0034 01       		.uleb128 0x1
 3458 0035 51       		.byte	0x51
 3459 0036 9F       		.byte	0x9f
 3460 0037 00000000 		.4byte	0
 3461 003b 00000000 		.4byte	0
 3462              	.LLST2:
ARM GAS  /tmp/ccRd3JRk.s 			page 62


 3463 003f 00000000 		.4byte	.LVL5
 3464 0043 0D000000 		.4byte	.LVL6-1
 3465 0047 0100     		.2byte	0x1
 3466 0049 50       		.byte	0x50
 3467 004a 0D000000 		.4byte	.LVL6-1
 3468 004e 1A000000 		.4byte	.LFE275
 3469 0052 0100     		.2byte	0x1
 3470 0054 54       		.byte	0x54
 3471 0055 00000000 		.4byte	0
 3472 0059 00000000 		.4byte	0
 3473              	.LLST3:
 3474 005d 00000000 		.4byte	.LVL8
 3475 0061 0A000000 		.4byte	.LVL9
 3476 0065 0100     		.2byte	0x1
 3477 0067 51       		.byte	0x51
 3478 0068 0A000000 		.4byte	.LVL9
 3479 006c 14000000 		.4byte	.LFE276
 3480 0070 0300     		.2byte	0x3
 3481 0072 71       		.byte	0x71
 3482 0073 01       		.sleb128 1
 3483 0074 9F       		.byte	0x9f
 3484 0075 00000000 		.4byte	0
 3485 0079 00000000 		.4byte	0
 3486              	.LLST4:
 3487 007d 00000000 		.4byte	.LVL11
 3488 0081 0F000000 		.4byte	.LVL13-1
 3489 0085 0100     		.2byte	0x1
 3490 0087 50       		.byte	0x50
 3491 0088 0F000000 		.4byte	.LVL13-1
 3492 008c 18000000 		.4byte	.LFE277
 3493 0090 0400     		.2byte	0x4
 3494 0092 F3       		.byte	0xf3
 3495 0093 01       		.uleb128 0x1
 3496 0094 50       		.byte	0x50
 3497 0095 9F       		.byte	0x9f
 3498 0096 00000000 		.4byte	0
 3499 009a 00000000 		.4byte	0
 3500              	.LLST5:
 3501 009e 00000000 		.4byte	.LVL11
 3502 00a2 0F000000 		.4byte	.LVL13-1
 3503 00a6 0100     		.2byte	0x1
 3504 00a8 51       		.byte	0x51
 3505 00a9 0F000000 		.4byte	.LVL13-1
 3506 00ad 18000000 		.4byte	.LFE277
 3507 00b1 0400     		.2byte	0x4
 3508 00b3 F3       		.byte	0xf3
 3509 00b4 01       		.uleb128 0x1
 3510 00b5 51       		.byte	0x51
 3511 00b6 9F       		.byte	0x9f
 3512 00b7 00000000 		.4byte	0
 3513 00bb 00000000 		.4byte	0
 3514              	.LLST6:
 3515 00bf 08000000 		.4byte	.LVL12
 3516 00c3 0F000000 		.4byte	.LVL13-1
 3517 00c7 0100     		.2byte	0x1
 3518 00c9 51       		.byte	0x51
 3519 00ca 0F000000 		.4byte	.LVL13-1
ARM GAS  /tmp/ccRd3JRk.s 			page 63


 3520 00ce 18000000 		.4byte	.LFE277
 3521 00d2 0400     		.2byte	0x4
 3522 00d4 F3       		.byte	0xf3
 3523 00d5 01       		.uleb128 0x1
 3524 00d6 51       		.byte	0x51
 3525 00d7 9F       		.byte	0x9f
 3526 00d8 00000000 		.4byte	0
 3527 00dc 00000000 		.4byte	0
 3528              	.LLST7:
 3529 00e0 08000000 		.4byte	.LVL12
 3530 00e4 0F000000 		.4byte	.LVL13-1
 3531 00e8 0100     		.2byte	0x1
 3532 00ea 50       		.byte	0x50
 3533 00eb 0F000000 		.4byte	.LVL13-1
 3534 00ef 18000000 		.4byte	.LFE277
 3535 00f3 0400     		.2byte	0x4
 3536 00f5 F3       		.byte	0xf3
 3537 00f6 01       		.uleb128 0x1
 3538 00f7 50       		.byte	0x50
 3539 00f8 9F       		.byte	0x9f
 3540 00f9 00000000 		.4byte	0
 3541 00fd 00000000 		.4byte	0
 3542              	.LLST8:
 3543 0101 00000000 		.4byte	.LVL14
 3544 0105 07000000 		.4byte	.LVL15-1
 3545 0109 0100     		.2byte	0x1
 3546 010b 50       		.byte	0x50
 3547 010c 07000000 		.4byte	.LVL15-1
 3548 0110 08000000 		.4byte	.LFE278
 3549 0114 0400     		.2byte	0x4
 3550 0116 F3       		.byte	0xf3
 3551 0117 01       		.uleb128 0x1
 3552 0118 50       		.byte	0x50
 3553 0119 9F       		.byte	0x9f
 3554 011a 00000000 		.4byte	0
 3555 011e 00000000 		.4byte	0
 3556              	.LLST9:
 3557 0122 00000000 		.4byte	.LVL14
 3558 0126 07000000 		.4byte	.LVL15-1
 3559 012a 0100     		.2byte	0x1
 3560 012c 51       		.byte	0x51
 3561 012d 07000000 		.4byte	.LVL15-1
 3562 0131 08000000 		.4byte	.LFE278
 3563 0135 0400     		.2byte	0x4
 3564 0137 F3       		.byte	0xf3
 3565 0138 01       		.uleb128 0x1
 3566 0139 51       		.byte	0x51
 3567 013a 9F       		.byte	0x9f
 3568 013b 00000000 		.4byte	0
 3569 013f 00000000 		.4byte	0
 3570              	.LLST10:
 3571 0143 00000000 		.4byte	.LVL16
 3572 0147 0F000000 		.4byte	.LVL18-1
 3573 014b 0100     		.2byte	0x1
 3574 014d 50       		.byte	0x50
 3575 014e 0F000000 		.4byte	.LVL18-1
 3576 0152 18000000 		.4byte	.LFE279
ARM GAS  /tmp/ccRd3JRk.s 			page 64


 3577 0156 0400     		.2byte	0x4
 3578 0158 F3       		.byte	0xf3
 3579 0159 01       		.uleb128 0x1
 3580 015a 50       		.byte	0x50
 3581 015b 9F       		.byte	0x9f
 3582 015c 00000000 		.4byte	0
 3583 0160 00000000 		.4byte	0
 3584              	.LLST11:
 3585 0164 00000000 		.4byte	.LVL16
 3586 0168 0F000000 		.4byte	.LVL18-1
 3587 016c 0100     		.2byte	0x1
 3588 016e 51       		.byte	0x51
 3589 016f 0F000000 		.4byte	.LVL18-1
 3590 0173 18000000 		.4byte	.LFE279
 3591 0177 0400     		.2byte	0x4
 3592 0179 F3       		.byte	0xf3
 3593 017a 01       		.uleb128 0x1
 3594 017b 51       		.byte	0x51
 3595 017c 9F       		.byte	0x9f
 3596 017d 00000000 		.4byte	0
 3597 0181 00000000 		.4byte	0
 3598              	.LLST12:
 3599 0185 08000000 		.4byte	.LVL17
 3600 0189 0F000000 		.4byte	.LVL18-1
 3601 018d 0100     		.2byte	0x1
 3602 018f 51       		.byte	0x51
 3603 0190 0F000000 		.4byte	.LVL18-1
 3604 0194 18000000 		.4byte	.LFE279
 3605 0198 0400     		.2byte	0x4
 3606 019a F3       		.byte	0xf3
 3607 019b 01       		.uleb128 0x1
 3608 019c 51       		.byte	0x51
 3609 019d 9F       		.byte	0x9f
 3610 019e 00000000 		.4byte	0
 3611 01a2 00000000 		.4byte	0
 3612              	.LLST13:
 3613 01a6 08000000 		.4byte	.LVL17
 3614 01aa 0F000000 		.4byte	.LVL18-1
 3615 01ae 0100     		.2byte	0x1
 3616 01b0 50       		.byte	0x50
 3617 01b1 0F000000 		.4byte	.LVL18-1
 3618 01b5 18000000 		.4byte	.LFE279
 3619 01b9 0400     		.2byte	0x4
 3620 01bb F3       		.byte	0xf3
 3621 01bc 01       		.uleb128 0x1
 3622 01bd 50       		.byte	0x50
 3623 01be 9F       		.byte	0x9f
 3624 01bf 00000000 		.4byte	0
 3625 01c3 00000000 		.4byte	0
 3626              	.LLST14:
 3627 01c7 00000000 		.4byte	.LVL19
 3628 01cb 07000000 		.4byte	.LVL20-1
 3629 01cf 0100     		.2byte	0x1
 3630 01d1 50       		.byte	0x50
 3631 01d2 07000000 		.4byte	.LVL20-1
 3632 01d6 08000000 		.4byte	.LFE280
 3633 01da 0400     		.2byte	0x4
ARM GAS  /tmp/ccRd3JRk.s 			page 65


 3634 01dc F3       		.byte	0xf3
 3635 01dd 01       		.uleb128 0x1
 3636 01de 50       		.byte	0x50
 3637 01df 9F       		.byte	0x9f
 3638 01e0 00000000 		.4byte	0
 3639 01e4 00000000 		.4byte	0
 3640              	.LLST15:
 3641 01e8 00000000 		.4byte	.LVL19
 3642 01ec 07000000 		.4byte	.LVL20-1
 3643 01f0 0100     		.2byte	0x1
 3644 01f2 51       		.byte	0x51
 3645 01f3 07000000 		.4byte	.LVL20-1
 3646 01f7 08000000 		.4byte	.LFE280
 3647 01fb 0400     		.2byte	0x4
 3648 01fd F3       		.byte	0xf3
 3649 01fe 01       		.uleb128 0x1
 3650 01ff 51       		.byte	0x51
 3651 0200 9F       		.byte	0x9f
 3652 0201 00000000 		.4byte	0
 3653 0205 00000000 		.4byte	0
 3654              	.LLST16:
 3655 0209 00000000 		.4byte	.LVL21
 3656 020d 0F000000 		.4byte	.LVL23-1
 3657 0211 0100     		.2byte	0x1
 3658 0213 50       		.byte	0x50
 3659 0214 0F000000 		.4byte	.LVL23-1
 3660 0218 18000000 		.4byte	.LFE281
 3661 021c 0400     		.2byte	0x4
 3662 021e F3       		.byte	0xf3
 3663 021f 01       		.uleb128 0x1
 3664 0220 50       		.byte	0x50
 3665 0221 9F       		.byte	0x9f
 3666 0222 00000000 		.4byte	0
 3667 0226 00000000 		.4byte	0
 3668              	.LLST17:
 3669 022a 08000000 		.4byte	.LVL22
 3670 022e 0F000000 		.4byte	.LVL23-1
 3671 0232 0100     		.2byte	0x1
 3672 0234 50       		.byte	0x50
 3673 0235 0F000000 		.4byte	.LVL23-1
 3674 0239 18000000 		.4byte	.LFE281
 3675 023d 0400     		.2byte	0x4
 3676 023f F3       		.byte	0xf3
 3677 0240 01       		.uleb128 0x1
 3678 0241 50       		.byte	0x50
 3679 0242 9F       		.byte	0x9f
 3680 0243 00000000 		.4byte	0
 3681 0247 00000000 		.4byte	0
 3682              	.LLST18:
 3683 024b 00000000 		.4byte	.LVL24
 3684 024f 07000000 		.4byte	.LVL25-1
 3685 0253 0100     		.2byte	0x1
 3686 0255 50       		.byte	0x50
 3687 0256 07000000 		.4byte	.LVL25-1
 3688 025a 08000000 		.4byte	.LFE282
 3689 025e 0400     		.2byte	0x4
 3690 0260 F3       		.byte	0xf3
ARM GAS  /tmp/ccRd3JRk.s 			page 66


 3691 0261 01       		.uleb128 0x1
 3692 0262 50       		.byte	0x50
 3693 0263 9F       		.byte	0x9f
 3694 0264 00000000 		.4byte	0
 3695 0268 00000000 		.4byte	0
 3696              	.LLST19:
 3697 026c 00000000 		.4byte	.LVL26
 3698 0270 0B000000 		.4byte	.LVL27-1
 3699 0274 0100     		.2byte	0x1
 3700 0276 50       		.byte	0x50
 3701 0277 0B000000 		.4byte	.LVL27-1
 3702 027b 12000000 		.4byte	.LFE283
 3703 027f 0100     		.2byte	0x1
 3704 0281 54       		.byte	0x54
 3705 0282 00000000 		.4byte	0
 3706 0286 00000000 		.4byte	0
 3707              	.LLST20:
 3708 028a 00000000 		.4byte	.LVL26
 3709 028e 0B000000 		.4byte	.LVL27-1
 3710 0292 0100     		.2byte	0x1
 3711 0294 51       		.byte	0x51
 3712 0295 0B000000 		.4byte	.LVL27-1
 3713 0299 12000000 		.4byte	.LFE283
 3714 029d 0400     		.2byte	0x4
 3715 029f F3       		.byte	0xf3
 3716 02a0 01       		.uleb128 0x1
 3717 02a1 51       		.byte	0x51
 3718 02a2 9F       		.byte	0x9f
 3719 02a3 00000000 		.4byte	0
 3720 02a7 00000000 		.4byte	0
 3721              		.section	.debug_aranges,"",%progbits
 3722 0000 74000000 		.4byte	0x74
 3723 0004 0200     		.2byte	0x2
 3724 0006 00000000 		.4byte	.Ldebug_info0
 3725 000a 04       		.byte	0x4
 3726 000b 00       		.byte	0
 3727 000c 0000     		.2byte	0
 3728 000e 0000     		.2byte	0
 3729 0010 00000000 		.4byte	.LFB272
 3730 0014 04000000 		.4byte	.LFE272-.LFB272
 3731 0018 00000000 		.4byte	.LFB273
 3732 001c 0A000000 		.4byte	.LFE273-.LFB273
 3733 0020 00000000 		.4byte	.LFB274
 3734 0024 1C000000 		.4byte	.LFE274-.LFB274
 3735 0028 00000000 		.4byte	.LFB275
 3736 002c 1A000000 		.4byte	.LFE275-.LFB275
 3737 0030 00000000 		.4byte	.LFB276
 3738 0034 14000000 		.4byte	.LFE276-.LFB276
 3739 0038 00000000 		.4byte	.LFB277
 3740 003c 18000000 		.4byte	.LFE277-.LFB277
 3741 0040 00000000 		.4byte	.LFB278
 3742 0044 08000000 		.4byte	.LFE278-.LFB278
 3743 0048 00000000 		.4byte	.LFB279
 3744 004c 18000000 		.4byte	.LFE279-.LFB279
 3745 0050 00000000 		.4byte	.LFB280
 3746 0054 08000000 		.4byte	.LFE280-.LFB280
 3747 0058 00000000 		.4byte	.LFB281
ARM GAS  /tmp/ccRd3JRk.s 			page 67


 3748 005c 18000000 		.4byte	.LFE281-.LFB281
 3749 0060 00000000 		.4byte	.LFB282
 3750 0064 08000000 		.4byte	.LFE282-.LFB282
 3751 0068 00000000 		.4byte	.LFB283
 3752 006c 12000000 		.4byte	.LFE283-.LFB283
 3753 0070 00000000 		.4byte	0
 3754 0074 00000000 		.4byte	0
 3755              		.section	.debug_ranges,"",%progbits
 3756              	.Ldebug_ranges0:
 3757 0000 02000000 		.4byte	.LBB108
 3758 0004 04000000 		.4byte	.LBE108
 3759 0008 06000000 		.4byte	.LBB117
 3760 000c 0A000000 		.4byte	.LBE117
 3761 0010 00000000 		.4byte	0
 3762 0014 00000000 		.4byte	0
 3763 0018 02000000 		.4byte	.LBB124
 3764 001c 04000000 		.4byte	.LBE124
 3765 0020 06000000 		.4byte	.LBB133
 3766 0024 0A000000 		.4byte	.LBE133
 3767 0028 00000000 		.4byte	0
 3768 002c 00000000 		.4byte	0
 3769 0030 00000000 		.4byte	.LFB272
 3770 0034 04000000 		.4byte	.LFE272
 3771 0038 00000000 		.4byte	.LFB273
 3772 003c 0A000000 		.4byte	.LFE273
 3773 0040 00000000 		.4byte	.LFB274
 3774 0044 1C000000 		.4byte	.LFE274
 3775 0048 00000000 		.4byte	.LFB275
 3776 004c 1A000000 		.4byte	.LFE275
 3777 0050 00000000 		.4byte	.LFB276
 3778 0054 14000000 		.4byte	.LFE276
 3779 0058 00000000 		.4byte	.LFB277
 3780 005c 18000000 		.4byte	.LFE277
 3781 0060 00000000 		.4byte	.LFB278
 3782 0064 08000000 		.4byte	.LFE278
 3783 0068 00000000 		.4byte	.LFB279
 3784 006c 18000000 		.4byte	.LFE279
 3785 0070 00000000 		.4byte	.LFB280
 3786 0074 08000000 		.4byte	.LFE280
 3787 0078 00000000 		.4byte	.LFB281
 3788 007c 18000000 		.4byte	.LFE281
 3789 0080 00000000 		.4byte	.LFB282
 3790 0084 08000000 		.4byte	.LFE282
 3791 0088 00000000 		.4byte	.LFB283
 3792 008c 12000000 		.4byte	.LFE283
 3793 0090 00000000 		.4byte	0
 3794 0094 00000000 		.4byte	0
 3795              		.section	.debug_line,"",%progbits
 3796              	.Ldebug_line0:
 3797 0000 2A040000 		.section	.debug_str,"MS",%progbits,1
 3797      0200CB02 
 3797      00000201 
 3797      FB0E0D00 
 3797      01010101 
 3798              	.LASF49:
 3799 0000 72656164 		.ascii	"ready_list_t\000"
 3799      795F6C69 
ARM GAS  /tmp/ccRd3JRk.s 			page 68


 3799      73745F74 
 3799      00
 3800              	.LASF83:
 3801 000d 44494552 		.ascii	"DIER\000"
 3801      00
 3802              	.LASF97:
 3803 0012 77747472 		.ascii	"wttrp\000"
 3803      7000
 3804              	.LASF94:
 3805 0018 7264796D 		.ascii	"rdymsg\000"
 3805      736700
 3806              	.LASF16:
 3807 001f 75696E74 		.ascii	"uint64_t\000"
 3807      36345F74 
 3807      00
 3808              	.LASF5:
 3809 0028 5F5F7569 		.ascii	"__uint8_t\000"
 3809      6E74385F 
 3809      7400
 3810              	.LASF116:
 3811 0032 4750545F 		.ascii	"GPT_ONESHOT\000"
 3811      4F4E4553 
 3811      484F5400 
 3812              	.LASF48:
 3813 003e 63685F74 		.ascii	"ch_threads_queue\000"
 3813      68726561 
 3813      64735F71 
 3813      75657565 
 3813      00
 3814              	.LASF68:
 3815 004f 73797374 		.ascii	"system_debug_t\000"
 3815      656D5F64 
 3815      65627567 
 3815      5F7400
 3816              	.LASF129:
 3817 005e 706F7274 		.ascii	"port_lock\000"
 3817      5F6C6F63 
 3817      6B00
 3818              	.LASF147:
 3819 0068 67707443 		.ascii	"gptChangeInterval\000"
 3819      68616E67 
 3819      65496E74 
 3819      65727661 
 3819      6C00
 3820              	.LASF12:
 3821 007a 6C6F6E67 		.ascii	"long long unsigned int\000"
 3821      206C6F6E 
 3821      6720756E 
 3821      7369676E 
 3821      65642069 
 3822              	.LASF51:
 3823 0091 725F7175 		.ascii	"r_queue\000"
 3823      65756500 
 3824              	.LASF95:
 3825 0099 65786974 		.ascii	"exitcode\000"
 3825      636F6465 
 3825      00
ARM GAS  /tmp/ccRd3JRk.s 			page 69


 3826              	.LASF75:
 3827 00a2 6D61696E 		.ascii	"mainthread\000"
 3827      74687265 
 3827      616400
 3828              	.LASF98:
 3829 00ad 73656E74 		.ascii	"sentmsg\000"
 3829      6D736700 
 3830              	.LASF65:
 3831 00b5 76697274 		.ascii	"virtual_timers_list_t\000"
 3831      75616C5F 
 3831      74696D65 
 3831      72735F6C 
 3831      6973745F 
 3832              	.LASF152:
 3833 00cb 49544D5F 		.ascii	"ITM_RxBuffer\000"
 3833      52784275 
 3833      66666572 
 3833      00
 3834              	.LASF87:
 3835 00d8 42445452 		.ascii	"BDTR\000"
 3835      00
 3836              	.LASF125:
 3837 00dd 66726571 		.ascii	"frequency\000"
 3837      75656E63 
 3837      7900
 3838              	.LASF29:
 3839 00e7 705F7072 		.ascii	"p_prio\000"
 3839      696F00
 3840              	.LASF84:
 3841 00ee 43434D52 		.ascii	"CCMR1\000"
 3841      3100
 3842              	.LASF85:
 3843 00f4 43434D52 		.ascii	"CCMR2\000"
 3843      3200
 3844              	.LASF89:
 3845 00fa 43434D52 		.ascii	"CCMR3\000"
 3845      3300
 3846              	.LASF1:
 3847 0100 7369676E 		.ascii	"signed char\000"
 3847      65642063 
 3847      68617200 
 3848              	.LASF106:
 3849 010c 6D5F7175 		.ascii	"m_queue\000"
 3849      65756500 
 3850              	.LASF115:
 3851 0114 4750545F 		.ascii	"GPT_CONTINUOUS\000"
 3851      434F4E54 
 3851      494E554F 
 3851      555300
 3852              	.LASF74:
 3853 0123 76746C69 		.ascii	"vtlist\000"
 3853      737400
 3854              	.LASF130:
 3855 012a 706F7274 		.ascii	"port_unlock\000"
 3855      5F756E6C 
 3855      6F636B00 
 3856              	.LASF119:
ARM GAS  /tmp/ccRd3JRk.s 			page 70


 3857 0136 73746174 		.ascii	"state\000"
 3857      6500
 3858              	.LASF72:
 3859 013c 63685F73 		.ascii	"ch_system\000"
 3859      79737465 
 3859      6D00
 3860              	.LASF7:
 3861 0146 6C6F6E67 		.ascii	"long int\000"
 3861      20696E74 
 3861      00
 3862              	.LASF124:
 3863 014f 67707463 		.ascii	"gptcnt_t\000"
 3863      6E745F74 
 3863      00
 3864              	.LASF146:
 3865 0158 67707453 		.ascii	"gptStop\000"
 3865      746F7000 
 3866              	.LASF19:
 3867 0160 74737461 		.ascii	"tstate_t\000"
 3867      74655F74 
 3867      00
 3868              	.LASF143:
 3869 0169 67707449 		.ascii	"gptInit\000"
 3869      6E697400 
 3870              	.LASF86:
 3871 0171 43434552 		.ascii	"CCER\000"
 3871      00
 3872              	.LASF10:
 3873 0176 6C6F6E67 		.ascii	"long long int\000"
 3873      206C6F6E 
 3873      6720696E 
 3873      7400
 3874              	.LASF31:
 3875 0184 705F6E65 		.ascii	"p_newer\000"
 3875      77657200 
 3876              	.LASF103:
 3877 018c 735F7175 		.ascii	"s_queue\000"
 3877      65756500 
 3878              	.LASF122:
 3879 0194 67707463 		.ascii	"gptcallback_t\000"
 3879      616C6C62 
 3879      61636B5F 
 3879      7400
 3880              	.LASF140:
 3881 01a2 67707453 		.ascii	"gptStartContinuousI\000"
 3881      74617274 
 3881      436F6E74 
 3881      696E756F 
 3881      75734900 
 3882              	.LASF4:
 3883 01b6 73686F72 		.ascii	"short unsigned int\000"
 3883      7420756E 
 3883      7369676E 
 3883      65642069 
 3883      6E7400
 3884              	.LASF138:
 3885 01c9 696E7465 		.ascii	"interval\000"
ARM GAS  /tmp/ccRd3JRk.s 			page 71


 3885      7276616C 
 3885      00
 3886              	.LASF54:
 3887 01d2 725F6E65 		.ascii	"r_newer\000"
 3887      77657200 
 3888              	.LASF118:
 3889 01da 47505444 		.ascii	"GPTDriver\000"
 3889      72697665 
 3889      7200
 3890              	.LASF78:
 3891 01e4 72656761 		.ascii	"regarm_t\000"
 3891      726D5F74 
 3891      00
 3892              	.LASF61:
 3893 01ed 76745F70 		.ascii	"vt_prev\000"
 3893      72657600 
 3894              	.LASF134:
 3895 01f5 6F73616C 		.ascii	"osalSysLock\000"
 3895      5379734C 
 3895      6F636B00 
 3896              	.LASF110:
 3897 0201 6D757465 		.ascii	"mutex_t\000"
 3897      785F7400 
 3898              	.LASF136:
 3899 0209 76616C75 		.ascii	"value\000"
 3899      6500
 3900              	.LASF76:
 3901 020f 69646C65 		.ascii	"idle_thread_wa\000"
 3901      5F746872 
 3901      6561645F 
 3901      776100
 3902              	.LASF117:
 3903 021e 67707473 		.ascii	"gptstate_t\000"
 3903      74617465 
 3903      5F7400
 3904              	.LASF0:
 3905 0229 756E7369 		.ascii	"unsigned int\000"
 3905      676E6564 
 3905      20696E74 
 3905      00
 3906              	.LASF60:
 3907 0236 76745F6E 		.ascii	"vt_next\000"
 3907      65787400 
 3908              	.LASF144:
 3909 023e 6770744F 		.ascii	"gptObjectInit\000"
 3909      626A6563 
 3909      74496E69 
 3909      7400
 3910              	.LASF99:
 3911 024c 77747365 		.ascii	"wtsemp\000"
 3911      6D7000
 3912              	.LASF149:
 3913 0253 67707453 		.ascii	"gptStartOneShot\000"
 3913      74617274 
 3913      4F6E6553 
 3913      686F7400 
 3914              	.LASF38:
ARM GAS  /tmp/ccRd3JRk.s 			page 72


 3915 0263 705F6D73 		.ascii	"p_msgqueue\000"
 3915      67717565 
 3915      756500
 3916              	.LASF45:
 3917 026e 63685F74 		.ascii	"ch_thread\000"
 3917      68726561 
 3917      6400
 3918              	.LASF137:
 3919 0278 67707470 		.ascii	"gptp\000"
 3919      00
 3920              	.LASF104:
 3921 027d 735F636E 		.ascii	"s_cnt\000"
 3921      7400
 3922              	.LASF112:
 3923 0283 4750545F 		.ascii	"GPT_UNINIT\000"
 3923      554E494E 
 3923      495400
 3924              	.LASF123:
 3925 028e 67707466 		.ascii	"gptfreq_t\000"
 3925      7265715F 
 3925      7400
 3926              	.LASF42:
 3927 0298 705F6D70 		.ascii	"p_mpool\000"
 3927      6F6F6C00 
 3928              	.LASF22:
 3929 02a0 6D73675F 		.ascii	"msg_t\000"
 3929      7400
 3930              	.LASF145:
 3931 02a6 67707453 		.ascii	"gptStart\000"
 3931      74617274 
 3931      00
 3932              	.LASF71:
 3933 02af 63685F73 		.ascii	"ch_system_t\000"
 3933      79737465 
 3933      6D5F7400 
 3934              	.LASF126:
 3935 02bb 63616C6C 		.ascii	"callback\000"
 3935      6261636B 
 3935      00
 3936              	.LASF160:
 3937 02c4 6770745F 		.ascii	"gpt_lld_init\000"
 3937      6C6C645F 
 3937      696E6974 
 3937      00
 3938              	.LASF91:
 3939 02d1 73746D33 		.ascii	"stm32_tim_t\000"
 3939      325F7469 
 3939      6D5F7400 
 3940              	.LASF148:
 3941 02dd 67707453 		.ascii	"gptStartContinuous\000"
 3941      74617274 
 3941      436F6E74 
 3941      696E756F 
 3941      757300
 3942              	.LASF50:
 3943 02f0 63685F72 		.ascii	"ch_ready_list\000"
 3943      65616479 
ARM GAS  /tmp/ccRd3JRk.s 			page 73


 3943      5F6C6973 
 3943      7400
 3944              	.LASF23:
 3945 02fe 6576656E 		.ascii	"eventmask_t\000"
 3945      746D6173 
 3945      6B5F7400 
 3946              	.LASF6:
 3947 030a 5F5F696E 		.ascii	"__int32_t\000"
 3947      7433325F 
 3947      7400
 3948              	.LASF79:
 3949 0314 73746B61 		.ascii	"stkalign_t\000"
 3949      6C69676E 
 3949      5F7400
 3950              	.LASF150:
 3951 031f 67707453 		.ascii	"gptStopTimer\000"
 3951      746F7054 
 3951      696D6572 
 3951      00
 3952              	.LASF37:
 3953 032c 705F7761 		.ascii	"p_waiting\000"
 3953      6974696E 
 3953      6700
 3954              	.LASF77:
 3955 0336 73697A65 		.ascii	"sizetype\000"
 3955      74797065 
 3955      00
 3956              	.LASF43:
 3957 033f 74687265 		.ascii	"thread_reference_t\000"
 3957      61645F72 
 3957      65666572 
 3957      656E6365 
 3957      5F7400
 3958              	.LASF66:
 3959 0352 63685F76 		.ascii	"ch_virtual_timers_list\000"
 3959      69727475 
 3959      616C5F74 
 3959      696D6572 
 3959      735F6C69 
 3960              	.LASF114:
 3961 0369 4750545F 		.ascii	"GPT_READY\000"
 3961      52454144 
 3961      5900
 3962              	.LASF24:
 3963 0373 636E745F 		.ascii	"cnt_t\000"
 3963      7400
 3964              	.LASF156:
 3965 0379 6770745F 		.ascii	"gpt_lld_stop_timer\000"
 3965      6C6C645F 
 3965      73746F70 
 3965      5F74696D 
 3965      657200
 3966              	.LASF67:
 3967 038c 76745F6C 		.ascii	"vt_lasttime\000"
 3967      61737474 
 3967      696D6500 
 3968              	.LASF32:
ARM GAS  /tmp/ccRd3JRk.s 			page 74


 3969 0398 705F6F6C 		.ascii	"p_older\000"
 3969      64657200 
 3970              	.LASF53:
 3971 03a0 725F6374 		.ascii	"r_ctx\000"
 3971      7800
 3972              	.LASF93:
 3973 03a6 746D5F63 		.ascii	"tm_calibration_t\000"
 3973      616C6962 
 3973      72617469 
 3973      6F6E5F74 
 3973      00
 3974              	.LASF56:
 3975 03b7 725F6375 		.ascii	"r_current\000"
 3975      7272656E 
 3975      7400
 3976              	.LASF155:
 3977 03c1 6770745F 		.ascii	"gpt_lld_start_timer\000"
 3977      6C6C645F 
 3977      73746172 
 3977      745F7469 
 3977      6D657200 
 3978              	.LASF11:
 3979 03d5 5F5F7569 		.ascii	"__uint64_t\000"
 3979      6E743634 
 3979      5F7400
 3980              	.LASF20:
 3981 03e0 74726566 		.ascii	"trefs_t\000"
 3981      735F7400 
 3982              	.LASF81:
 3983 03e8 706F7274 		.ascii	"port_intctx\000"
 3983      5F696E74 
 3983      63747800 
 3984              	.LASF58:
 3985 03f4 76697274 		.ascii	"virtual_timer_t\000"
 3985      75616C5F 
 3985      74696D65 
 3985      725F7400 
 3986              	.LASF28:
 3987 0404 705F7072 		.ascii	"p_prev\000"
 3987      657600
 3988              	.LASF21:
 3989 040b 74707269 		.ascii	"tprio_t\000"
 3989      6F5F7400 
 3990              	.LASF69:
 3991 0413 63685F73 		.ascii	"ch_system_debug\000"
 3991      79737465 
 3991      6D5F6465 
 3991      62756700 
 3992              	.LASF111:
 3993 0423 5F426F6F 		.ascii	"_Bool\000"
 3993      6C00
 3994              	.LASF14:
 3995 0429 696E7433 		.ascii	"int32_t\000"
 3995      325F7400 
 3996              	.LASF2:
 3997 0431 756E7369 		.ascii	"unsigned char\000"
 3997      676E6564 
ARM GAS  /tmp/ccRd3JRk.s 			page 75


 3997      20636861 
 3997      7200
 3998              	.LASF40:
 3999 043f 705F6D74 		.ascii	"p_mtxlist\000"
 3999      786C6973 
 3999      7400
 4000              	.LASF3:
 4001 0449 73686F72 		.ascii	"short int\000"
 4001      7420696E 
 4001      7400
 4002              	.LASF34:
 4003 0453 705F7374 		.ascii	"p_state\000"
 4003      61746500 
 4004              	.LASF52:
 4005 045b 725F7072 		.ascii	"r_prio\000"
 4005      696F00
 4006              	.LASF101:
 4007 0462 65776D61 		.ascii	"ewmask\000"
 4007      736B00
 4008              	.LASF27:
 4009 0469 705F6E65 		.ascii	"p_next\000"
 4009      787400
 4010              	.LASF35:
 4011 0470 705F666C 		.ascii	"p_flags\000"
 4011      61677300 
 4012              	.LASF139:
 4013 0478 5F5F6675 		.ascii	"__func__\000"
 4013      6E635F5F 
 4013      00
 4014              	.LASF131:
 4015 0481 63685379 		.ascii	"chSysLock\000"
 4015      734C6F63 
 4015      6B00
 4016              	.LASF135:
 4017 048b 6F73616C 		.ascii	"osalSysUnlock\000"
 4017      53797355 
 4017      6E6C6F63 
 4017      6B00
 4018              	.LASF59:
 4019 0499 63685F76 		.ascii	"ch_virtual_timer\000"
 4019      69727475 
 4019      616C5F74 
 4019      696D6572 
 4019      00
 4020              	.LASF102:
 4021 04aa 63685F73 		.ascii	"ch_semaphore\000"
 4021      656D6170 
 4021      686F7265 
 4021      00
 4022              	.LASF90:
 4023 04b7 43435852 		.ascii	"CCXR\000"
 4023      00
 4024              	.LASF39:
 4025 04bc 705F6570 		.ascii	"p_epending\000"
 4025      656E6469 
 4025      6E6700
 4026              	.LASF113:
ARM GAS  /tmp/ccRd3JRk.s 			page 76


 4027 04c7 4750545F 		.ascii	"GPT_STOP\000"
 4027      53544F50 
 4027      00
 4028              	.LASF15:
 4029 04d0 75696E74 		.ascii	"uint32_t\000"
 4029      33325F74 
 4029      00
 4030              	.LASF100:
 4031 04d9 77746D74 		.ascii	"wtmtxp\000"
 4031      787000
 4032              	.LASF159:
 4033 04e0 2F6E6673 		.ascii	"/nfs/nfs4/home/cojthack/442FinalProject/milestone3\000"
 4033      2F6E6673 
 4033      342F686F 
 4033      6D652F63 
 4033      6F6A7468 
 4034              	.LASF62:
 4035 0513 76745F64 		.ascii	"vt_delta\000"
 4035      656C7461 
 4035      00
 4036              	.LASF46:
 4037 051c 63685F74 		.ascii	"ch_threads_list\000"
 4037      68726561 
 4037      64735F6C 
 4037      69737400 
 4038              	.LASF9:
 4039 052c 6C6F6E67 		.ascii	"long unsigned int\000"
 4039      20756E73 
 4039      69676E65 
 4039      6420696E 
 4039      7400
 4040              	.LASF109:
 4041 053e 63686172 		.ascii	"char\000"
 4041      00
 4042              	.LASF82:
 4043 0543 534D4352 		.ascii	"SMCR\000"
 4043      00
 4044              	.LASF120:
 4045 0548 636F6E66 		.ascii	"config\000"
 4045      696700
 4046              	.LASF88:
 4047 054f 444D4152 		.ascii	"DMAR\000"
 4047      00
 4048              	.LASF26:
 4049 0554 74687265 		.ascii	"thread_t\000"
 4049      61645F74 
 4049      00
 4050              	.LASF157:
 4051 055d 474E5520 		.ascii	"GNU C 4.8.4 20140526 (release) [ARM/embedded-4_8-br"
 4051      4320342E 
 4051      382E3420 
 4051      32303134 
 4051      30353236 
 4052 0590 616E6368 		.ascii	"anch revision 211358] -mcpu=cortex-m4 -mno-thumb-in"
 4052      20726576 
 4052      6973696F 
 4052      6E203231 
ARM GAS  /tmp/ccRd3JRk.s 			page 77


 4052      31333538 
 4053 05c3 74657277 		.ascii	"terwork -mthumb -ggdb -O2 -fomit-frame-pointer -fal"
 4053      6F726B20 
 4053      2D6D7468 
 4053      756D6220 
 4053      2D676764 
 4054 05f6 69676E2D 		.ascii	"ign-functions=16 -ffunction-sections -fdata-section"
 4054      66756E63 
 4054      74696F6E 
 4054      733D3136 
 4054      202D6666 
 4055 0629 73202D66 		.ascii	"s -fno-common\000"
 4055      6E6F2D63 
 4055      6F6D6D6F 
 4055      6E00
 4056              	.LASF108:
 4057 0637 6D5F6E65 		.ascii	"m_next\000"
 4057      787400
 4058              	.LASF25:
 4059 063e 73797374 		.ascii	"systime_t\000"
 4059      696D655F 
 4059      7400
 4060              	.LASF41:
 4061 0648 705F7265 		.ascii	"p_realprio\000"
 4061      616C7072 
 4061      696F00
 4062              	.LASF57:
 4063 0653 76746675 		.ascii	"vtfunc_t\000"
 4063      6E635F74 
 4063      00
 4064              	.LASF8:
 4065 065c 5F5F7569 		.ascii	"__uint32_t\000"
 4065      6E743332 
 4065      5F7400
 4066              	.LASF132:
 4067 0667 5F5F7365 		.ascii	"__set_BASEPRI\000"
 4067      745F4241 
 4067      53455052 
 4067      4900
 4068              	.LASF70:
 4069 0675 70616E69 		.ascii	"panic_msg\000"
 4069      635F6D73 
 4069      6700
 4070              	.LASF92:
 4071 067f 6F666673 		.ascii	"offset\000"
 4071      657400
 4072              	.LASF128:
 4073 0686 47505443 		.ascii	"GPTConfig\000"
 4073      6F6E6669 
 4073      6700
 4074              	.LASF80:
 4075 0690 636F6E74 		.ascii	"context\000"
 4075      65787400 
 4076              	.LASF55:
 4077 0698 725F6F6C 		.ascii	"r_older\000"
 4077      64657200 
 4078              	.LASF17:
ARM GAS  /tmp/ccRd3JRk.s 			page 78


 4079 06a0 7274636E 		.ascii	"rtcnt_t\000"
 4079      745F7400 
 4080              	.LASF153:
 4081 06a8 6770745F 		.ascii	"gpt_lld_start\000"
 4081      6C6C645F 
 4081      73746172 
 4081      7400
 4082              	.LASF64:
 4083 06b6 76745F70 		.ascii	"vt_par\000"
 4083      617200
 4084              	.LASF47:
 4085 06bd 74687265 		.ascii	"threads_queue_t\000"
 4085      6164735F 
 4085      71756575 
 4085      655F7400 
 4086              	.LASF105:
 4087 06cd 63685F6D 		.ascii	"ch_mutex\000"
 4087      75746578 
 4087      00
 4088              	.LASF36:
 4089 06d6 705F7265 		.ascii	"p_refs\000"
 4089      667300
 4090              	.LASF161:
 4091 06dd 6770745F 		.ascii	"gpt_lld_polled_delay\000"
 4091      6C6C645F 
 4091      706F6C6C 
 4091      65645F64 
 4091      656C6179 
 4092              	.LASF154:
 4093 06f2 6770745F 		.ascii	"gpt_lld_stop\000"
 4093      6C6C645F 
 4093      73746F70 
 4093      00
 4094              	.LASF73:
 4095 06ff 726C6973 		.ascii	"rlist\000"
 4095      7400
 4096              	.LASF13:
 4097 0705 75696E74 		.ascii	"uint8_t\000"
 4097      385F7400 
 4098              	.LASF151:
 4099 070d 67707450 		.ascii	"gptPolledDelay\000"
 4099      6F6C6C65 
 4099      6444656C 
 4099      617900
 4100              	.LASF96:
 4101 071c 77746F62 		.ascii	"wtobjp\000"
 4101      6A7000
 4102              	.LASF33:
 4103 0723 705F6E61 		.ascii	"p_name\000"
 4103      6D6500
 4104              	.LASF44:
 4105 072a 74687265 		.ascii	"threads_list_t\000"
 4105      6164735F 
 4105      6C697374 
 4105      5F7400
 4106              	.LASF18:
 4107 0739 746D6F64 		.ascii	"tmode_t\000"
ARM GAS  /tmp/ccRd3JRk.s 			page 79


 4107      655F7400 
 4108              	.LASF133:
 4109 0741 63685379 		.ascii	"chSysUnlock\000"
 4109      73556E6C 
 4109      6F636B00 
 4110              	.LASF121:
 4111 074d 636C6F63 		.ascii	"clock\000"
 4111      6B00
 4112              	.LASF107:
 4113 0753 6D5F6F77 		.ascii	"m_owner\000"
 4113      6E657200 
 4114              	.LASF158:
 4115 075b 2E2E2F43 		.ascii	"../ChibiOS/os/hal/src/gpt.c\000"
 4115      68696269 
 4115      4F532F6F 
 4115      732F6861 
 4115      6C2F7372 
 4116              	.LASF30:
 4117 0777 705F6374 		.ascii	"p_ctx\000"
 4117      7800
 4118              	.LASF63:
 4119 077d 76745F66 		.ascii	"vt_func\000"
 4119      756E6300 
 4120              	.LASF141:
 4121 0785 67707453 		.ascii	"gptStartOneShotI\000"
 4121      74617274 
 4121      4F6E6553 
 4121      686F7449 
 4121      00
 4122              	.LASF127:
 4123 0796 64696572 		.ascii	"dier\000"
 4123      00
 4124              	.LASF142:
 4125 079b 67707453 		.ascii	"gptStopTimerI\000"
 4125      746F7054 
 4125      696D6572 
 4125      4900
 4126              		.ident	"GCC: (GNU Tools for ARM Embedded Processors) 4.8.4 20140526 (release) [ARM/embedded-4_8-br
ARM GAS  /tmp/ccRd3JRk.s 			page 80


DEFINED SYMBOLS
                            *ABS*:00000000 gpt.c
     /tmp/ccRd3JRk.s:19     .text.gptInit:00000000 $t
     /tmp/ccRd3JRk.s:25     .text.gptInit:00000000 gptInit
     /tmp/ccRd3JRk.s:40     .text.gptObjectInit:00000000 $t
     /tmp/ccRd3JRk.s:46     .text.gptObjectInit:00000000 gptObjectInit
     /tmp/ccRd3JRk.s:67     .text.gptStart:00000000 $t
     /tmp/ccRd3JRk.s:73     .text.gptStart:00000000 gptStart
     /tmp/ccRd3JRk.s:146    .text.gptStop:00000000 $t
     /tmp/ccRd3JRk.s:152    .text.gptStop:00000000 gptStop
     /tmp/ccRd3JRk.s:222    .text.gptChangeInterval:00000000 $t
     /tmp/ccRd3JRk.s:228    .text.gptChangeInterval:00000000 gptChangeInterval
     /tmp/ccRd3JRk.s:281    .text.gptStartContinuous:00000000 $t
     /tmp/ccRd3JRk.s:287    .text.gptStartContinuous:00000000 gptStartContinuous
     /tmp/ccRd3JRk.s:348    .text.gptStartContinuousI:00000000 $t
     /tmp/ccRd3JRk.s:354    .text.gptStartContinuousI:00000000 gptStartContinuousI
     /tmp/ccRd3JRk.s:372    .text.gptStartOneShot:00000000 $t
     /tmp/ccRd3JRk.s:378    .text.gptStartOneShot:00000000 gptStartOneShot
     /tmp/ccRd3JRk.s:439    .text.gptStartOneShotI:00000000 $t
     /tmp/ccRd3JRk.s:445    .text.gptStartOneShotI:00000000 gptStartOneShotI
     /tmp/ccRd3JRk.s:463    .text.gptStopTimer:00000000 $t
     /tmp/ccRd3JRk.s:469    .text.gptStopTimer:00000000 gptStopTimer
     /tmp/ccRd3JRk.s:530    .text.gptStopTimerI:00000000 $t
     /tmp/ccRd3JRk.s:536    .text.gptStopTimerI:00000000 gptStopTimerI
     /tmp/ccRd3JRk.s:554    .text.gptPolledDelay:00000000 $t
     /tmp/ccRd3JRk.s:560    .text.gptPolledDelay:00000000 gptPolledDelay
                     .debug_frame:00000010 $d

UNDEFINED SYMBOLS
gpt_lld_init
gpt_lld_start
gpt_lld_stop
gpt_lld_start_timer
gpt_lld_stop_timer
gpt_lld_polled_delay
