ARM GAS  /tmp/ccOa3Qcu.s 			page 1


   1              		.syntax unified
   2              		.cpu cortex-m4
   3              		.fpu softvfp
   4              		.eabi_attribute 20, 1
   5              		.eabi_attribute 21, 1
   6              		.eabi_attribute 23, 3
   7              		.eabi_attribute 24, 1
   8              		.eabi_attribute 25, 1
   9              		.eabi_attribute 26, 1
  10              		.eabi_attribute 30, 2
  11              		.eabi_attribute 34, 1
  12              		.eabi_attribute 18, 4
  13              		.thumb
  14              		.file	"gpt_lld.c"
  15              		.text
  16              	.Ltext0:
  17              		.cfi_sections	.debug_frame
  18              		.section	.text.gpt_lld_init,"ax",%progbits
  19              		.align	2
  20              		.p2align 4,,15
  21              		.global	gpt_lld_init
  22              		.thumb
  23              		.thumb_func
  24              		.type	gpt_lld_init, %function
  25              	gpt_lld_init:
  26              	.LFB273:
  27              		.file 1 "../ChibiOS/os/hal/ports/STM32/LLD/TIMv1/gpt_lld.c"
  28              		.loc 1 406 0
  29              		.cfi_startproc
  30              		@ args = 0, pretend = 0, frame = 0
  31              		@ frame_needed = 0, uses_anonymous_args = 0
  32              		@ link register save eliminated.
  33              		.loc 1 410 0
  34 0000 0248     		ldr	r0, .L2
  35 0002 034B     		ldr	r3, .L2+4
  36 0004 C360     		str	r3, [r0, #12]
  37              		.loc 1 411 0
  38 0006 FFF7FEBF 		b	gptObjectInit
  39              	.LVL0:
  40              	.L3:
  41 000a 00BF     		.align	2
  42              	.L2:
  43 000c 00000000 		.word	.LANCHOR0
  44 0010 002C0140 		.word	1073818624
  45              		.cfi_endproc
  46              	.LFE273:
  47              		.size	gpt_lld_init, .-gpt_lld_init
  48 0014 AFF30080 		.section	.text.gpt_lld_start,"ax",%progbits
  48      AFF30080 
  48      AFF30080 
  49              		.align	2
  50              		.p2align 4,,15
  51              		.global	gpt_lld_start
  52              		.thumb
  53              		.thumb_func
  54              		.type	gpt_lld_start, %function
  55              	gpt_lld_start:
ARM GAS  /tmp/ccOa3Qcu.s 			page 2


  56              	.LFB274:
  57              		.loc 1 488 0
  58              		.cfi_startproc
  59              		@ args = 0, pretend = 0, frame = 0
  60              		@ frame_needed = 0, uses_anonymous_args = 0
  61              	.LVL1:
  62 0000 38B5     		push	{r3, r4, r5, lr}
  63              		.cfi_def_cfa_offset 16
  64              		.cfi_offset 3, -16
  65              		.cfi_offset 4, -12
  66              		.cfi_offset 5, -8
  67              		.cfi_offset 14, -4
  68              		.loc 1 491 0
  69 0002 0378     		ldrb	r3, [r0]	@ zero_extendqisi2
  70 0004 012B     		cmp	r3, #1
  71              		.loc 1 488 0
  72 0006 0446     		mov	r4, r0
  73              		.loc 1 491 0
  74 0008 12D0     		beq	.L7
  75              	.LVL2:
  76              	.L5:
  77              		.loc 1 675 0
  78 000a 6268     		ldr	r2, [r4, #4]
  79 000c A568     		ldr	r5, [r4, #8]
  80 000e 1068     		ldr	r0, [r2]
  81              		.loc 1 684 0
  82 0010 D168     		ldr	r1, [r2, #12]
  83              		.loc 1 680 0
  84 0012 E368     		ldr	r3, [r4, #12]
  85              		.loc 1 681 0
  86 0014 9468     		ldr	r4, [r2, #8]
  87              	.LVL3:
  88              		.loc 1 675 0
  89 0016 B5FBF0F0 		udiv	r0, r5, r0
  90 001a 0138     		subs	r0, r0, #1
  91              		.loc 1 680 0
  92 001c 0022     		movs	r2, #0
  93              		.loc 1 675 0
  94 001e 80B2     		uxth	r0, r0
  95              	.LVL4:
  96              		.loc 1 684 0
  97 0020 21F0FF01 		bic	r1, r1, #255
  98              		.loc 1 680 0
  99 0024 1A60     		str	r2, [r3]
 100              		.loc 1 681 0
 101 0026 5C60     		str	r4, [r3, #4]
 102              		.loc 1 682 0
 103 0028 9862     		str	r0, [r3, #40]
 104              		.loc 1 683 0
 105 002a 1A61     		str	r2, [r3, #16]
 106              		.loc 1 684 0
 107 002c D960     		str	r1, [r3, #12]
 108 002e 38BD     		pop	{r3, r4, r5, pc}
 109              	.LVL5:
 110              	.L7:
 111              		.loc 1 494 0
 112 0030 0A4B     		ldr	r3, .L8
ARM GAS  /tmp/ccOa3Qcu.s 			page 3


 113 0032 9842     		cmp	r0, r3
 114 0034 E9D1     		bne	.L5
 115              		.loc 1 495 0
 116 0036 0A4B     		ldr	r3, .L8+4
 117 0038 9A69     		ldr	r2, [r3, #24]
 118 003a 42F40062 		orr	r2, r2, #2048
 119 003e 9A61     		str	r2, [r3, #24]
 120              		.loc 1 496 0
 121 0040 D968     		ldr	r1, [r3, #12]
 122 0042 0022     		movs	r2, #0
 123 0044 41F40061 		orr	r1, r1, #2048
 124 0048 D960     		str	r1, [r3, #12]
 125              		.loc 1 498 0
 126 004a 1920     		movs	r0, #25
 127              	.LVL6:
 128              		.loc 1 496 0
 129 004c DA60     		str	r2, [r3, #12]
 130              		.loc 1 498 0
 131 004e 0721     		movs	r1, #7
 132 0050 FFF7FEFF 		bl	nvicEnableVector
 133              	.LVL7:
 134              		.loc 1 501 0
 135 0054 034B     		ldr	r3, .L8+8
 136 0056 A360     		str	r3, [r4, #8]
 137 0058 D7E7     		b	.L5
 138              	.L9:
 139 005a 00BF     		.align	2
 140              	.L8:
 141 005c 00000000 		.word	.LANCHOR0
 142 0060 00100240 		.word	1073876992
 143 0064 00A24A04 		.word	72000000
 144              		.cfi_endproc
 145              	.LFE274:
 146              		.size	gpt_lld_start, .-gpt_lld_start
 147 0068 AFF30080 		.section	.text.gpt_lld_stop,"ax",%progbits
 147      AFF30080 
 148              		.align	2
 149              		.p2align 4,,15
 150              		.global	gpt_lld_stop
 151              		.thumb
 152              		.thumb_func
 153              		.type	gpt_lld_stop, %function
 154              	gpt_lld_stop:
 155              	.LFB275:
 156              		.loc 1 695 0
 157              		.cfi_startproc
 158              		@ args = 0, pretend = 0, frame = 0
 159              		@ frame_needed = 0, uses_anonymous_args = 0
 160              	.LVL8:
 161 0000 08B5     		push	{r3, lr}
 162              		.cfi_def_cfa_offset 8
 163              		.cfi_offset 3, -8
 164              		.cfi_offset 14, -4
 165              		.loc 1 697 0
 166 0002 0378     		ldrb	r3, [r0]	@ zero_extendqisi2
 167 0004 022B     		cmp	r3, #2
 168 0006 00D0     		beq	.L14
ARM GAS  /tmp/ccOa3Qcu.s 			page 4


 169              	.LVL9:
 170              	.L10:
 171 0008 08BD     		pop	{r3, pc}
 172              	.LVL10:
 173              	.L14:
 174              		.loc 1 703 0
 175 000a 0849     		ldr	r1, .L15
 176              		.loc 1 698 0
 177 000c C368     		ldr	r3, [r0, #12]
 178 000e 0022     		movs	r2, #0
 179              		.loc 1 703 0
 180 0010 8842     		cmp	r0, r1
 181              		.loc 1 698 0
 182 0012 1A60     		str	r2, [r3]
 183              		.loc 1 699 0
 184 0014 DA60     		str	r2, [r3, #12]
 185              		.loc 1 700 0
 186 0016 1A61     		str	r2, [r3, #16]
 187              		.loc 1 703 0
 188 0018 F6D1     		bne	.L10
 189              		.loc 1 705 0
 190 001a 1920     		movs	r0, #25
 191              	.LVL11:
 192 001c FFF7FEFF 		bl	nvicDisableVector
 193              	.LVL12:
 194              		.loc 1 707 0
 195 0020 034B     		ldr	r3, .L15+4
 196 0022 9A69     		ldr	r2, [r3, #24]
 197 0024 22F40062 		bic	r2, r2, #2048
 198 0028 9A61     		str	r2, [r3, #24]
 199 002a EDE7     		b	.L10
 200              	.L16:
 201              		.align	2
 202              	.L15:
 203 002c 00000000 		.word	.LANCHOR0
 204 0030 00100240 		.word	1073876992
 205              		.cfi_endproc
 206              	.LFE275:
 207              		.size	gpt_lld_stop, .-gpt_lld_stop
 208 0034 AFF30080 		.section	.text.gpt_lld_start_timer,"ax",%progbits
 208      AFF30080 
 208      AFF30080 
 209              		.align	2
 210              		.p2align 4,,15
 211              		.global	gpt_lld_start_timer
 212              		.thumb
 213              		.thumb_func
 214              		.type	gpt_lld_start_timer, %function
 215              	gpt_lld_start_timer:
 216              	.LFB276:
 217              		.loc 1 820 0
 218              		.cfi_startproc
 219              		@ args = 0, pretend = 0, frame = 0
 220              		@ frame_needed = 0, uses_anonymous_args = 0
 221              		@ link register save eliminated.
 222              	.LVL13:
 223              		.loc 1 830 0
ARM GAS  /tmp/ccOa3Qcu.s 			page 5


 224 0000 4268     		ldr	r2, [r0, #4]
 225              		.loc 1 822 0
 226 0002 C368     		ldr	r3, [r0, #12]
 227              		.loc 1 830 0
 228 0004 5068     		ldr	r0, [r2, #4]
 229              	.LVL14:
 230              		.loc 1 822 0
 231 0006 0139     		subs	r1, r1, #1
 232              	.LVL15:
 233 0008 D962     		str	r1, [r3, #44]
 234              		.loc 1 824 0
 235 000a 0022     		movs	r2, #0
 236              		.loc 1 823 0
 237 000c 0121     		movs	r1, #1
 238              	.LVL16:
 239 000e 5961     		str	r1, [r3, #20]
 240              	.LVL17:
 241              		.loc 1 824 0
 242 0010 5A62     		str	r2, [r3, #36]
 243              		.loc 1 829 0
 244 0012 1A61     		str	r2, [r3, #16]
 245              		.loc 1 830 0
 246 0014 10B1     		cbz	r0, .L18
 247              		.loc 1 831 0
 248 0016 DA68     		ldr	r2, [r3, #12]
 249 0018 0A43     		orrs	r2, r2, r1
 250 001a DA60     		str	r2, [r3, #12]
 251              	.L18:
 252              		.loc 1 832 0
 253 001c 0522     		movs	r2, #5
 254 001e 1A60     		str	r2, [r3]
 255 0020 7047     		bx	lr
 256              		.cfi_endproc
 257              	.LFE276:
 258              		.size	gpt_lld_start_timer, .-gpt_lld_start_timer
 259 0022 00BFAFF3 		.section	.text.gpt_lld_stop_timer,"ax",%progbits
 259      0080AFF3 
 259      0080AFF3 
 259      0080
 260              		.align	2
 261              		.p2align 4,,15
 262              		.global	gpt_lld_stop_timer
 263              		.thumb
 264              		.thumb_func
 265              		.type	gpt_lld_stop_timer, %function
 266              	gpt_lld_stop_timer:
 267              	.LFB277:
 268              		.loc 1 842 0
 269              		.cfi_startproc
 270              		@ args = 0, pretend = 0, frame = 0
 271              		@ frame_needed = 0, uses_anonymous_args = 0
 272              		@ link register save eliminated.
 273              	.LVL18:
 274              		.loc 1 844 0
 275 0000 C368     		ldr	r3, [r0, #12]
 276 0002 0022     		movs	r2, #0
 277 0004 1A60     		str	r2, [r3]
ARM GAS  /tmp/ccOa3Qcu.s 			page 6


 278              		.loc 1 845 0
 279 0006 1A61     		str	r2, [r3, #16]
 280              		.loc 1 848 0
 281 0008 DA68     		ldr	r2, [r3, #12]
 282 000a 22F0FF02 		bic	r2, r2, #255
 283 000e DA60     		str	r2, [r3, #12]
 284 0010 7047     		bx	lr
 285              		.cfi_endproc
 286              	.LFE277:
 287              		.size	gpt_lld_stop_timer, .-gpt_lld_stop_timer
 288 0012 00BFAFF3 		.section	.text.gpt_lld_polled_delay,"ax",%progbits
 288      0080AFF3 
 288      0080AFF3 
 288      0080
 289              		.align	2
 290              		.p2align 4,,15
 291              		.global	gpt_lld_polled_delay
 292              		.thumb
 293              		.thumb_func
 294              		.type	gpt_lld_polled_delay, %function
 295              	gpt_lld_polled_delay:
 296              	.LFB278:
 297              		.loc 1 862 0
 298              		.cfi_startproc
 299              		@ args = 0, pretend = 0, frame = 0
 300              		@ frame_needed = 0, uses_anonymous_args = 0
 301              		@ link register save eliminated.
 302              	.LVL19:
 303              		.loc 1 864 0
 304 0000 C268     		ldr	r2, [r0, #12]
 305 0002 0139     		subs	r1, r1, #1
 306              	.LVL20:
 307              		.loc 1 865 0
 308 0004 0120     		movs	r0, #1
 309              	.LVL21:
 310              		.loc 1 866 0
 311 0006 0D23     		movs	r3, #13
 312              		.loc 1 864 0
 313 0008 D162     		str	r1, [r2, #44]
 314              		.loc 1 865 0
 315 000a 5061     		str	r0, [r2, #20]
 316              		.loc 1 866 0
 317 000c 1360     		str	r3, [r2]
 318              	.L25:
 319              		.loc 1 867 0 discriminator 1
 320 000e 1369     		ldr	r3, [r2, #16]
 321 0010 DB07     		lsls	r3, r3, #31
 322 0012 FCD5     		bpl	.L25
 323              		.loc 1 869 0
 324 0014 0023     		movs	r3, #0
 325 0016 1361     		str	r3, [r2, #16]
 326 0018 7047     		bx	lr
 327              		.cfi_endproc
 328              	.LFE278:
 329              		.size	gpt_lld_polled_delay, .-gpt_lld_polled_delay
 330              		.section	.text.gpt_lld_serve_interrupt,"ax",%progbits
 331              		.align	2
ARM GAS  /tmp/ccOa3Qcu.s 			page 7


 332              		.p2align 4,,15
 333              		.global	gpt_lld_serve_interrupt
 334              		.thumb
 335              		.thumb_func
 336              		.type	gpt_lld_serve_interrupt, %function
 337              	gpt_lld_serve_interrupt:
 338              	.LFB279:
 339              		.loc 1 879 0
 340              		.cfi_startproc
 341              		@ args = 0, pretend = 0, frame = 0
 342              		@ frame_needed = 0, uses_anonymous_args = 0
 343              	.LVL22:
 344              		.loc 1 882 0
 345 0000 0178     		ldrb	r1, [r0]	@ zero_extendqisi2
 346              		.loc 1 879 0
 347 0002 08B5     		push	{r3, lr}
 348              		.cfi_def_cfa_offset 8
 349              		.cfi_offset 3, -8
 350              		.cfi_offset 14, -4
 351              		.loc 1 881 0
 352 0004 C368     		ldr	r3, [r0, #12]
 353 0006 0022     		movs	r2, #0
 354              		.loc 1 882 0
 355 0008 0429     		cmp	r1, #4
 356              		.loc 1 881 0
 357 000a 1A61     		str	r2, [r3, #16]
 358              		.loc 1 882 0
 359 000c 07D1     		bne	.L27
 360              		.loc 1 883 0
 361 000e 0221     		movs	r1, #2
 362 0010 0170     		strb	r1, [r0]
 363              	.LVL23:
 364              	.LBB4:
 365              	.LBB5:
 366              		.loc 1 844 0
 367 0012 1A60     		str	r2, [r3]
 368              		.loc 1 845 0
 369 0014 1A61     		str	r2, [r3, #16]
 370              		.loc 1 848 0
 371 0016 DA68     		ldr	r2, [r3, #12]
 372 0018 22F0FF02 		bic	r2, r2, #255
 373 001c DA60     		str	r2, [r3, #12]
 374              	.LVL24:
 375              	.L27:
 376              	.LBE5:
 377              	.LBE4:
 378              		.loc 1 886 0
 379 001e 4368     		ldr	r3, [r0, #4]
 380 0020 5B68     		ldr	r3, [r3, #4]
 381 0022 9847     		blx	r3
 382              	.LVL25:
 383 0024 08BD     		pop	{r3, pc}
 384              		.cfi_endproc
 385              	.LFE279:
 386              		.size	gpt_lld_serve_interrupt, .-gpt_lld_serve_interrupt
 387 0026 00BFAFF3 		.section	.text.VectorA4,"ax",%progbits
 387      0080AFF3 
ARM GAS  /tmp/ccOa3Qcu.s 			page 8


 387      0080
 388              		.align	2
 389              		.p2align 4,,15
 390              		.global	VectorA4
 391              		.thumb
 392              		.thumb_func
 393              		.type	VectorA4, %function
 394              	VectorA4:
 395              	.LFB272:
 396              		.loc 1 155 0
 397              		.cfi_startproc
 398              		@ args = 0, pretend = 0, frame = 0
 399              		@ frame_needed = 0, uses_anonymous_args = 0
 400 0000 08B5     		push	{r3, lr}
 401              		.cfi_def_cfa_offset 8
 402              		.cfi_offset 3, -8
 403              		.cfi_offset 14, -4
 404              		.loc 1 159 0
 405 0002 0348     		ldr	r0, .L29
 406 0004 FFF7FEFF 		bl	gpt_lld_serve_interrupt
 407              	.LVL26:
 408              		.loc 1 162 0
 409 0008 BDE80840 		pop	{r3, lr}
 410              		.loc 1 161 0
 411 000c FFF7FEBF 		b	_port_irq_epilogue
 412              	.LVL27:
 413              	.L30:
 414              		.align	2
 415              	.L29:
 416 0010 00000000 		.word	.LANCHOR0
 417              		.cfi_endproc
 418              	.LFE272:
 419              		.size	VectorA4, .-VectorA4
 420              		.global	GPTD1
 421 0014 AFF30080 		.section	.bss.GPTD1,"aw",%nobits
 421      AFF30080 
 421      AFF30080 
 422              		.align	2
 423              		.set	.LANCHOR0,. + 0
 424              		.type	GPTD1, %object
 425              		.size	GPTD1, 16
 426              	GPTD1:
 427 0000 00000000 		.space	16
 427      00000000 
 427      00000000 
 427      00000000 
 428              		.text
 429              	.Letext0:
 430              		.file 2 "/nfs/nfs5/home/research/hardware/arm2/gcc-arm-embedded/gcc-arm-none-eabi-4_8-2014q2/lib/g
 431              		.file 3 "/nfs/nfs5/home/research/hardware/arm2/gcc-arm-embedded/gcc-arm-none-eabi-4_8-2014q2/arm-n
 432              		.file 4 "/nfs/nfs5/home/research/hardware/arm2/gcc-arm-embedded/gcc-arm-none-eabi-4_8-2014q2/arm-n
 433              		.file 5 "../ChibiOS/os/rt/ports/ARMCMx/compilers/GCC/chtypes.h"
 434              		.file 6 "../ChibiOS/os/rt/include/chsystypes.h"
 435              		.file 7 "../ChibiOS/os/rt/include/chschd.h"
 436              		.file 8 "../ChibiOS/os/ext/CMSIS/ST/STM32F3xx/stm32f303xc.h"
 437              		.file 9 "../ChibiOS/os/rt/ports/ARMCMx/chcore.h"
 438              		.file 10 "../ChibiOS/os/rt/ports/ARMCMx/chcore_v7m.h"
ARM GAS  /tmp/ccOa3Qcu.s 			page 9


 439              		.file 11 "../ChibiOS/os/hal/ports/STM32/LLD/TIMv1/stm32_tim.h"
 440              		.file 12 "../ChibiOS/os/rt/include/chtm.h"
 441              		.file 13 "../ChibiOS/os/rt/include/chsem.h"
 442              		.file 14 "../ChibiOS/os/rt/include/chmtx.h"
 443              		.file 15 "../ChibiOS/os/hal/include/gpt.h"
 444              		.file 16 "../ChibiOS/os/hal/ports/STM32/LLD/TIMv1/gpt_lld.h"
 445              		.file 17 "../ChibiOS/os/ext/CMSIS/include/core_cm4.h"
 446              		.file 18 "../ChibiOS/os/hal/ports/common/ARMCMx/nvic.h"
 447              		.section	.debug_info,"",%progbits
 448              	.Ldebug_info0:
 449 0000 B40B0000 		.4byte	0xbb4
 450 0004 0400     		.2byte	0x4
 451 0006 00000000 		.4byte	.Ldebug_abbrev0
 452 000a 04       		.byte	0x4
 453 000b 01       		.uleb128 0x1
 454 000c 6C050000 		.4byte	.LASF158
 455 0010 01       		.byte	0x1
 456 0011 B5060000 		.4byte	.LASF159
 457 0015 E4040000 		.4byte	.LASF160
 458 0019 00000000 		.4byte	.Ldebug_ranges0+0
 459 001d 00000000 		.4byte	0
 460 0021 00000000 		.4byte	.Ldebug_line0
 461 0025 02       		.uleb128 0x2
 462 0026 04       		.byte	0x4
 463 0027 05       		.byte	0x5
 464 0028 696E7400 		.ascii	"int\000"
 465 002c 03       		.uleb128 0x3
 466 002d 12000000 		.4byte	.LASF2
 467 0031 02       		.byte	0x2
 468 0032 D4       		.byte	0xd4
 469 0033 37000000 		.4byte	0x37
 470 0037 04       		.uleb128 0x4
 471 0038 04       		.byte	0x4
 472 0039 07       		.byte	0x7
 473 003a FA010000 		.4byte	.LASF0
 474 003e 04       		.uleb128 0x4
 475 003f 01       		.byte	0x1
 476 0040 06       		.byte	0x6
 477 0041 F0000000 		.4byte	.LASF1
 478 0045 03       		.uleb128 0x3
 479 0046 32000000 		.4byte	.LASF3
 480 004a 03       		.byte	0x3
 481 004b 1C       		.byte	0x1c
 482 004c 50000000 		.4byte	0x50
 483 0050 04       		.uleb128 0x4
 484 0051 01       		.byte	0x1
 485 0052 08       		.byte	0x8
 486 0053 39040000 		.4byte	.LASF4
 487 0057 04       		.uleb128 0x4
 488 0058 02       		.byte	0x2
 489 0059 05       		.byte	0x5
 490 005a 5E040000 		.4byte	.LASF5
 491 005e 03       		.uleb128 0x3
 492 005f 47050000 		.4byte	.LASF6
 493 0063 03       		.byte	0x3
 494 0064 26       		.byte	0x26
 495 0065 69000000 		.4byte	0x69
ARM GAS  /tmp/ccOa3Qcu.s 			page 10


 496 0069 04       		.uleb128 0x4
 497 006a 02       		.byte	0x2
 498 006b 07       		.byte	0x7
 499 006c 91010000 		.4byte	.LASF7
 500 0070 03       		.uleb128 0x3
 501 0071 E9020000 		.4byte	.LASF8
 502 0075 03       		.byte	0x3
 503 0076 37       		.byte	0x37
 504 0077 7B000000 		.4byte	0x7b
 505 007b 04       		.uleb128 0x4
 506 007c 04       		.byte	0x4
 507 007d 05       		.byte	0x5
 508 007e 33010000 		.4byte	.LASF9
 509 0082 03       		.uleb128 0x3
 510 0083 6B060000 		.4byte	.LASF10
 511 0087 03       		.byte	0x3
 512 0088 38       		.byte	0x38
 513 0089 8D000000 		.4byte	0x8d
 514 008d 04       		.uleb128 0x4
 515 008e 04       		.byte	0x4
 516 008f 07       		.byte	0x7
 517 0090 30050000 		.4byte	.LASF11
 518 0094 04       		.uleb128 0x4
 519 0095 08       		.byte	0x8
 520 0096 05       		.byte	0x5
 521 0097 5C010000 		.4byte	.LASF12
 522 009b 03       		.uleb128 0x3
 523 009c C5030000 		.4byte	.LASF13
 524 00a0 03       		.byte	0x3
 525 00a1 4E       		.byte	0x4e
 526 00a2 A6000000 		.4byte	0xa6
 527 00a6 04       		.uleb128 0x4
 528 00a7 08       		.byte	0x8
 529 00a8 07       		.byte	0x7
 530 00a9 68000000 		.4byte	.LASF14
 531 00ad 03       		.uleb128 0x3
 532 00ae 48070000 		.4byte	.LASF15
 533 00b2 04       		.byte	0x4
 534 00b3 2A       		.byte	0x2a
 535 00b4 45000000 		.4byte	0x45
 536 00b8 03       		.uleb128 0x3
 537 00b9 6A010000 		.4byte	.LASF16
 538 00bd 04       		.byte	0x4
 539 00be 36       		.byte	0x36
 540 00bf 5E000000 		.4byte	0x5e
 541 00c3 03       		.uleb128 0x3
 542 00c4 31040000 		.4byte	.LASF17
 543 00c8 04       		.byte	0x4
 544 00c9 41       		.byte	0x41
 545 00ca 70000000 		.4byte	0x70
 546 00ce 03       		.uleb128 0x3
 547 00cf D4040000 		.4byte	.LASF18
 548 00d3 04       		.byte	0x4
 549 00d4 42       		.byte	0x42
 550 00d5 82000000 		.4byte	0x82
 551 00d9 03       		.uleb128 0x3
 552 00da 20000000 		.4byte	.LASF19
ARM GAS  /tmp/ccOa3Qcu.s 			page 11


 553 00de 04       		.byte	0x4
 554 00df 4E       		.byte	0x4e
 555 00e0 9B000000 		.4byte	0x9b
 556 00e4 03       		.uleb128 0x3
 557 00e5 E7060000 		.4byte	.LASF20
 558 00e9 05       		.byte	0x5
 559 00ea 39       		.byte	0x39
 560 00eb CE000000 		.4byte	0xce
 561 00ef 03       		.uleb128 0x3
 562 00f0 63070000 		.4byte	.LASF21
 563 00f4 05       		.byte	0x5
 564 00f5 3C       		.byte	0x3c
 565 00f6 AD000000 		.4byte	0xad
 566 00fa 03       		.uleb128 0x3
 567 00fb 4E010000 		.4byte	.LASF22
 568 00ff 05       		.byte	0x5
 569 0100 3D       		.byte	0x3d
 570 0101 AD000000 		.4byte	0xad
 571 0105 03       		.uleb128 0x3
 572 0106 E8030000 		.4byte	.LASF23
 573 010a 05       		.byte	0x5
 574 010b 3E       		.byte	0x3e
 575 010c AD000000 		.4byte	0xad
 576 0110 03       		.uleb128 0x3
 577 0111 13040000 		.4byte	.LASF24
 578 0115 05       		.byte	0x5
 579 0116 40       		.byte	0x40
 580 0117 CE000000 		.4byte	0xce
 581 011b 03       		.uleb128 0x3
 582 011c 94020000 		.4byte	.LASF25
 583 0120 05       		.byte	0x5
 584 0121 41       		.byte	0x41
 585 0122 C3000000 		.4byte	0xc3
 586 0126 03       		.uleb128 0x3
 587 0127 DD020000 		.4byte	.LASF26
 588 012b 05       		.byte	0x5
 589 012c 43       		.byte	0x43
 590 012d CE000000 		.4byte	0xce
 591 0131 03       		.uleb128 0x3
 592 0132 CE040000 		.4byte	.LASF27
 593 0136 05       		.byte	0x5
 594 0137 45       		.byte	0x45
 595 0138 C3000000 		.4byte	0xc3
 596 013c 03       		.uleb128 0x3
 597 013d 4D060000 		.4byte	.LASF28
 598 0141 06       		.byte	0x6
 599 0142 33       		.byte	0x33
 600 0143 CE000000 		.4byte	0xce
 601 0147 03       		.uleb128 0x3
 602 0148 63050000 		.4byte	.LASF29
 603 014c 06       		.byte	0x6
 604 014d 3F       		.byte	0x3f
 605 014e 52010000 		.4byte	0x152
 606 0152 05       		.uleb128 0x5
 607 0153 62020000 		.4byte	.LASF48
 608 0157 40       		.byte	0x40
 609 0158 07       		.byte	0x7
ARM GAS  /tmp/ccOa3Qcu.s 			page 12


 610 0159 C2       		.byte	0xc2
 611 015a 32020000 		.4byte	0x232
 612 015e 06       		.uleb128 0x6
 613 015f 5A030000 		.4byte	.LASF30
 614 0163 07       		.byte	0x7
 615 0164 C3       		.byte	0xc3
 616 0165 3D020000 		.4byte	0x23d
 617 0169 00       		.byte	0
 618 016a 06       		.uleb128 0x6
 619 016b 0C040000 		.4byte	.LASF31
 620 016f 07       		.byte	0x7
 621 0170 C5       		.byte	0xc5
 622 0171 3D020000 		.4byte	0x23d
 623 0175 04       		.byte	0x4
 624 0176 06       		.uleb128 0x6
 625 0177 C6000000 		.4byte	.LASF32
 626 017b 07       		.byte	0x7
 627 017c C7       		.byte	0xc7
 628 017d 10010000 		.4byte	0x110
 629 0181 08       		.byte	0x8
 630 0182 06       		.uleb128 0x6
 631 0183 79070000 		.4byte	.LASF33
 632 0187 07       		.byte	0x7
 633 0188 C8       		.byte	0xc8
 634 0189 50050000 		.4byte	0x550
 635 018d 0C       		.byte	0xc
 636 018e 06       		.uleb128 0x6
 637 018f 73010000 		.4byte	.LASF34
 638 0193 07       		.byte	0x7
 639 0194 CA       		.byte	0xca
 640 0195 3D020000 		.4byte	0x23d
 641 0199 10       		.byte	0x10
 642 019a 06       		.uleb128 0x6
 643 019b 80030000 		.4byte	.LASF35
 644 019f 07       		.byte	0x7
 645 01a0 CB       		.byte	0xcb
 646 01a1 3D020000 		.4byte	0x23d
 647 01a5 14       		.byte	0x14
 648 01a6 06       		.uleb128 0x6
 649 01a7 57070000 		.4byte	.LASF36
 650 01ab 07       		.byte	0x7
 651 01ac D2       		.byte	0xd2
 652 01ad FD070000 		.4byte	0x7fd
 653 01b1 18       		.byte	0x18
 654 01b2 06       		.uleb128 0x6
 655 01b3 68040000 		.4byte	.LASF37
 656 01b7 07       		.byte	0x7
 657 01b8 DD       		.byte	0xdd
 658 01b9 FA000000 		.4byte	0xfa
 659 01bd 1C       		.byte	0x1c
 660 01be 06       		.uleb128 0x6
 661 01bf 7E040000 		.4byte	.LASF38
 662 01c3 07       		.byte	0x7
 663 01c4 E1       		.byte	0xe1
 664 01c5 EF000000 		.4byte	0xef
 665 01c9 1D       		.byte	0x1d
 666 01ca 06       		.uleb128 0x6
ARM GAS  /tmp/ccOa3Qcu.s 			page 13


 667 01cb 1D070000 		.4byte	.LASF39
 668 01cf 07       		.byte	0x7
 669 01d0 E6       		.byte	0xe6
 670 01d1 05010000 		.4byte	0x105
 671 01d5 1E       		.byte	0x1e
 672 01d6 07       		.uleb128 0x7
 673 01d7 705F7500 		.ascii	"p_u\000"
 674 01db 07       		.byte	0x7
 675 01dc 3701     		.2byte	0x137
 676 01de 2C070000 		.4byte	0x72c
 677 01e2 20       		.byte	0x20
 678 01e3 08       		.uleb128 0x8
 679 01e4 0D030000 		.4byte	.LASF40
 680 01e8 07       		.byte	0x7
 681 01e9 3C01     		.2byte	0x13c
 682 01eb 43020000 		.4byte	0x243
 683 01ef 24       		.byte	0x24
 684 01f0 08       		.uleb128 0x8
 685 01f1 4B020000 		.4byte	.LASF41
 686 01f5 07       		.byte	0x7
 687 01f6 4201     		.2byte	0x142
 688 01f8 67020000 		.4byte	0x267
 689 01fc 28       		.byte	0x28
 690 01fd 08       		.uleb128 0x8
 691 01fe BA040000 		.4byte	.LASF42
 692 0202 07       		.byte	0x7
 693 0203 4801     		.2byte	0x148
 694 0205 26010000 		.4byte	0x126
 695 0209 30       		.byte	0x30
 696 020a 08       		.uleb128 0x8
 697 020b 54040000 		.4byte	.LASF43
 698 020f 07       		.byte	0x7
 699 0210 4F01     		.2byte	0x14f
 700 0212 F7070000 		.4byte	0x7f7
 701 0216 34       		.byte	0x34
 702 0217 08       		.uleb128 0x8
 703 0218 57060000 		.4byte	.LASF44
 704 021c 07       		.byte	0x7
 705 021d 5301     		.2byte	0x153
 706 021f 10010000 		.4byte	0x110
 707 0223 38       		.byte	0x38
 708 0224 08       		.uleb128 0x8
 709 0225 8C020000 		.4byte	.LASF45
 710 0229 07       		.byte	0x7
 711 022a 5A01     		.2byte	0x15a
 712 022c 1A030000 		.4byte	0x31a
 713 0230 3C       		.byte	0x3c
 714 0231 00       		.byte	0
 715 0232 03       		.uleb128 0x3
 716 0233 20030000 		.4byte	.LASF46
 717 0237 06       		.byte	0x6
 718 0238 44       		.byte	0x44
 719 0239 3D020000 		.4byte	0x23d
 720 023d 09       		.uleb128 0x9
 721 023e 04       		.byte	0x4
 722 023f 47010000 		.4byte	0x147
 723 0243 03       		.uleb128 0x3
ARM GAS  /tmp/ccOa3Qcu.s 			page 14


 724 0244 FE020000 		.4byte	.LASF47
 725 0248 06       		.byte	0x6
 726 0249 49       		.byte	0x49
 727 024a 4E020000 		.4byte	0x24e
 728 024e 05       		.uleb128 0x5
 729 024f 20050000 		.4byte	.LASF49
 730 0253 04       		.byte	0x4
 731 0254 07       		.byte	0x7
 732 0255 B0       		.byte	0xb0
 733 0256 67020000 		.4byte	0x267
 734 025a 06       		.uleb128 0x6
 735 025b 5A030000 		.4byte	.LASF30
 736 025f 07       		.byte	0x7
 737 0260 B1       		.byte	0xb1
 738 0261 3D020000 		.4byte	0x23d
 739 0265 00       		.byte	0
 740 0266 00       		.byte	0
 741 0267 03       		.uleb128 0x3
 742 0268 04070000 		.4byte	.LASF50
 743 026c 06       		.byte	0x6
 744 026d 50       		.byte	0x50
 745 026e 72020000 		.4byte	0x272
 746 0272 05       		.uleb128 0x5
 747 0273 48000000 		.4byte	.LASF51
 748 0277 08       		.byte	0x8
 749 0278 07       		.byte	0x7
 750 0279 B7       		.byte	0xb7
 751 027a 97020000 		.4byte	0x297
 752 027e 06       		.uleb128 0x6
 753 027f 5A030000 		.4byte	.LASF30
 754 0283 07       		.byte	0x7
 755 0284 B8       		.byte	0xb8
 756 0285 3D020000 		.4byte	0x23d
 757 0289 00       		.byte	0
 758 028a 06       		.uleb128 0x6
 759 028b 0C040000 		.4byte	.LASF31
 760 028f 07       		.byte	0x7
 761 0290 B9       		.byte	0xb9
 762 0291 3D020000 		.4byte	0x23d
 763 0295 04       		.byte	0x4
 764 0296 00       		.byte	0
 765 0297 03       		.uleb128 0x3
 766 0298 00000000 		.4byte	.LASF52
 767 029c 06       		.byte	0x6
 768 029d 57       		.byte	0x57
 769 029e A2020000 		.4byte	0x2a2
 770 02a2 0A       		.uleb128 0xa
 771 02a3 CF020000 		.4byte	.LASF53
 772 02a7 1C       		.byte	0x1c
 773 02a8 07       		.byte	0x7
 774 02a9 9201     		.2byte	0x192
 775 02ab FE020000 		.4byte	0x2fe
 776 02af 08       		.uleb128 0x8
 777 02b0 D8010000 		.4byte	.LASF54
 778 02b4 07       		.byte	0x7
 779 02b5 9301     		.2byte	0x193
 780 02b7 67020000 		.4byte	0x267
ARM GAS  /tmp/ccOa3Qcu.s 			page 15


 781 02bb 00       		.byte	0
 782 02bc 08       		.uleb128 0x8
 783 02bd 70040000 		.4byte	.LASF55
 784 02c1 07       		.byte	0x7
 785 02c2 9401     		.2byte	0x194
 786 02c4 10010000 		.4byte	0x110
 787 02c8 08       		.byte	0x8
 788 02c9 08       		.uleb128 0x8
 789 02ca 88030000 		.4byte	.LASF56
 790 02ce 07       		.byte	0x7
 791 02cf 9601     		.2byte	0x196
 792 02d1 50050000 		.4byte	0x550
 793 02d5 0C       		.byte	0xc
 794 02d6 08       		.uleb128 0x8
 795 02d7 AD010000 		.4byte	.LASF57
 796 02db 07       		.byte	0x7
 797 02dc 9901     		.2byte	0x199
 798 02de 3D020000 		.4byte	0x23d
 799 02e2 10       		.byte	0x10
 800 02e3 08       		.uleb128 0x8
 801 02e4 A1060000 		.4byte	.LASF58
 802 02e8 07       		.byte	0x7
 803 02e9 9A01     		.2byte	0x19a
 804 02eb 3D020000 		.4byte	0x23d
 805 02ef 14       		.byte	0x14
 806 02f0 08       		.uleb128 0x8
 807 02f1 A7030000 		.4byte	.LASF59
 808 02f5 07       		.byte	0x7
 809 02f6 9D01     		.2byte	0x19d
 810 02f8 3D020000 		.4byte	0x23d
 811 02fc 18       		.byte	0x18
 812 02fd 00       		.byte	0
 813 02fe 03       		.uleb128 0x3
 814 02ff 62060000 		.4byte	.LASF60
 815 0303 06       		.byte	0x6
 816 0304 5C       		.byte	0x5c
 817 0305 09030000 		.4byte	0x309
 818 0309 09       		.uleb128 0x9
 819 030a 04       		.byte	0x4
 820 030b 0F030000 		.4byte	0x30f
 821 030f 0B       		.uleb128 0xb
 822 0310 1A030000 		.4byte	0x31a
 823 0314 0C       		.uleb128 0xc
 824 0315 1A030000 		.4byte	0x31a
 825 0319 00       		.byte	0
 826 031a 0D       		.uleb128 0xd
 827 031b 04       		.byte	0x4
 828 031c 03       		.uleb128 0x3
 829 031d FC030000 		.4byte	.LASF61
 830 0321 06       		.byte	0x6
 831 0322 61       		.byte	0x61
 832 0323 27030000 		.4byte	0x327
 833 0327 0A       		.uleb128 0xa
 834 0328 97040000 		.4byte	.LASF62
 835 032c 14       		.byte	0x14
 836 032d 07       		.byte	0x7
 837 032e 6D01     		.2byte	0x16d
ARM GAS  /tmp/ccOa3Qcu.s 			page 16


 838 0330 76030000 		.4byte	0x376
 839 0334 08       		.uleb128 0x8
 840 0335 07020000 		.4byte	.LASF63
 841 0339 07       		.byte	0x7
 842 033a 6E01     		.2byte	0x16e
 843 033c 0F080000 		.4byte	0x80f
 844 0340 00       		.byte	0
 845 0341 08       		.uleb128 0x8
 846 0342 C8010000 		.4byte	.LASF64
 847 0346 07       		.byte	0x7
 848 0347 6F01     		.2byte	0x16f
 849 0349 0F080000 		.4byte	0x80f
 850 034d 04       		.byte	0x4
 851 034e 08       		.uleb128 0x8
 852 034f 17050000 		.4byte	.LASF65
 853 0353 07       		.byte	0x7
 854 0354 7001     		.2byte	0x170
 855 0356 3C010000 		.4byte	0x13c
 856 035a 08       		.byte	0x8
 857 035b 08       		.uleb128 0x8
 858 035c 7F070000 		.4byte	.LASF66
 859 0360 07       		.byte	0x7
 860 0361 7101     		.2byte	0x171
 861 0363 FE020000 		.4byte	0x2fe
 862 0367 0C       		.byte	0xc
 863 0368 08       		.uleb128 0x8
 864 0369 FD060000 		.4byte	.LASF67
 865 036d 07       		.byte	0x7
 866 036e 7301     		.2byte	0x173
 867 0370 1A030000 		.4byte	0x31a
 868 0374 10       		.byte	0x10
 869 0375 00       		.byte	0
 870 0376 03       		.uleb128 0x3
 871 0377 9B000000 		.4byte	.LASF68
 872 037b 06       		.byte	0x6
 873 037c 66       		.byte	0x66
 874 037d 81030000 		.4byte	0x381
 875 0381 0A       		.uleb128 0xa
 876 0382 33030000 		.4byte	.LASF69
 877 0386 10       		.byte	0x10
 878 0387 07       		.byte	0x7
 879 0388 7D01     		.2byte	0x17d
 880 038a C3030000 		.4byte	0x3c3
 881 038e 08       		.uleb128 0x8
 882 038f 07020000 		.4byte	.LASF63
 883 0393 07       		.byte	0x7
 884 0394 7E01     		.2byte	0x17e
 885 0396 0F080000 		.4byte	0x80f
 886 039a 00       		.byte	0
 887 039b 08       		.uleb128 0x8
 888 039c C8010000 		.4byte	.LASF64
 889 03a0 07       		.byte	0x7
 890 03a1 8001     		.2byte	0x180
 891 03a3 0F080000 		.4byte	0x80f
 892 03a7 04       		.byte	0x4
 893 03a8 08       		.uleb128 0x8
 894 03a9 17050000 		.4byte	.LASF65
ARM GAS  /tmp/ccOa3Qcu.s 			page 17


 895 03ad 07       		.byte	0x7
 896 03ae 8201     		.2byte	0x182
 897 03b0 3C010000 		.4byte	0x13c
 898 03b4 08       		.byte	0x8
 899 03b5 08       		.uleb128 0x8
 900 03b6 74030000 		.4byte	.LASF70
 901 03ba 07       		.byte	0x7
 902 03bb 8A01     		.2byte	0x18a
 903 03bd 3C010000 		.4byte	0x13c
 904 03c1 0C       		.byte	0xc
 905 03c2 00       		.byte	0
 906 03c3 03       		.uleb128 0x3
 907 03c4 59000000 		.4byte	.LASF71
 908 03c8 06       		.byte	0x6
 909 03c9 6B       		.byte	0x6b
 910 03ca CE030000 		.4byte	0x3ce
 911 03ce 0A       		.uleb128 0xa
 912 03cf 1B040000 		.4byte	.LASF72
 913 03d3 04       		.byte	0x4
 914 03d4 07       		.byte	0x7
 915 03d5 A401     		.2byte	0x1a4
 916 03d7 E9030000 		.4byte	0x3e9
 917 03db 08       		.uleb128 0x8
 918 03dc 76060000 		.4byte	.LASF73
 919 03e0 07       		.byte	0x7
 920 03e1 AC01     		.2byte	0x1ac
 921 03e3 15080000 		.4byte	0x815
 922 03e7 00       		.byte	0
 923 03e8 00       		.byte	0
 924 03e9 03       		.uleb128 0x3
 925 03ea A9060000 		.4byte	.LASF74
 926 03ee 06       		.byte	0x6
 927 03ef 70       		.byte	0x70
 928 03f0 F4030000 		.4byte	0x3f4
 929 03f4 0E       		.uleb128 0xe
 930 03f5 29010000 		.4byte	.LASF75
 931 03f9 5001     		.2byte	0x150
 932 03fb 07       		.byte	0x7
 933 03fc C401     		.2byte	0x1c4
 934 03fe 50040000 		.4byte	0x450
 935 0402 08       		.uleb128 0x8
 936 0403 36070000 		.4byte	.LASF76
 937 0407 07       		.byte	0x7
 938 0408 C801     		.2byte	0x1c8
 939 040a 97020000 		.4byte	0x297
 940 040e 00       		.byte	0
 941 040f 08       		.uleb128 0x8
 942 0410 1C010000 		.4byte	.LASF77
 943 0414 07       		.byte	0x7
 944 0415 CC01     		.2byte	0x1cc
 945 0417 76030000 		.4byte	0x376
 946 041b 1C       		.byte	0x1c
 947 041c 07       		.uleb128 0x7
 948 041d 64626700 		.ascii	"dbg\000"
 949 0421 07       		.byte	0x7
 950 0422 D001     		.2byte	0x1d0
 951 0424 C3030000 		.4byte	0x3c3
ARM GAS  /tmp/ccOa3Qcu.s 			page 18


 952 0428 2C       		.byte	0x2c
 953 0429 08       		.uleb128 0x8
 954 042a 88000000 		.4byte	.LASF78
 955 042e 07       		.byte	0x7
 956 042f D401     		.2byte	0x1d4
 957 0431 47010000 		.4byte	0x147
 958 0435 30       		.byte	0x30
 959 0436 07       		.uleb128 0x7
 960 0437 746D00   		.ascii	"tm\000"
 961 043a 07       		.byte	0x7
 962 043b D901     		.2byte	0x1d9
 963 043d 21070000 		.4byte	0x721
 964 0441 70       		.byte	0x70
 965 0442 08       		.uleb128 0x8
 966 0443 E0010000 		.4byte	.LASF79
 967 0447 07       		.byte	0x7
 968 0448 E501     		.2byte	0x1e5
 969 044a 1A080000 		.4byte	0x81a
 970 044e 78       		.byte	0x78
 971 044f 00       		.byte	0
 972 0450 04       		.uleb128 0x4
 973 0451 04       		.byte	0x4
 974 0452 07       		.byte	0x7
 975 0453 17030000 		.4byte	.LASF80
 976 0457 0F       		.uleb128 0xf
 977 0458 CE000000 		.4byte	0xce
 978 045c 10       		.uleb128 0x10
 979 045d CE000000 		.4byte	0xce
 980 0461 6C040000 		.4byte	0x46c
 981 0465 11       		.uleb128 0x11
 982 0466 50040000 		.4byte	0x450
 983 046a 01       		.byte	0x1
 984 046b 00       		.byte	0
 985 046c 10       		.uleb128 0x10
 986 046d CE000000 		.4byte	0xce
 987 0471 7C040000 		.4byte	0x47c
 988 0475 11       		.uleb128 0x11
 989 0476 50040000 		.4byte	0x450
 990 047a 03       		.byte	0x3
 991 047b 00       		.byte	0
 992 047c 12       		.uleb128 0x12
 993 047d 34       		.byte	0x34
 994 047e 08       		.byte	0x8
 995 047f FB01     		.2byte	0x1fb
 996 0481 2E050000 		.4byte	0x52e
 997 0485 07       		.uleb128 0x7
 998 0486 435200   		.ascii	"CR\000"
 999 0489 08       		.byte	0x8
 1000 048a FD01     		.2byte	0x1fd
 1001 048c 57040000 		.4byte	0x457
 1002 0490 00       		.byte	0
 1003 0491 08       		.uleb128 0x8
 1004 0492 5E070000 		.4byte	.LASF81
 1005 0496 08       		.byte	0x8
 1006 0497 FE01     		.2byte	0x1fe
 1007 0499 57040000 		.4byte	0x457
 1008 049d 04       		.byte	0x4
ARM GAS  /tmp/ccOa3Qcu.s 			page 19


 1009 049e 07       		.uleb128 0x7
 1010 049f 43495200 		.ascii	"CIR\000"
 1011 04a3 08       		.byte	0x8
 1012 04a4 FF01     		.2byte	0x1ff
 1013 04a6 57040000 		.4byte	0x457
 1014 04aa 08       		.byte	0x8
 1015 04ab 08       		.uleb128 0x8
 1016 04ac 45010000 		.4byte	.LASF82
 1017 04b0 08       		.byte	0x8
 1018 04b1 0002     		.2byte	0x200
 1019 04b3 57040000 		.4byte	0x457
 1020 04b7 0C       		.byte	0xc
 1021 04b8 08       		.uleb128 0x8
 1022 04b9 04010000 		.4byte	.LASF83
 1023 04bd 08       		.byte	0x8
 1024 04be 0102     		.2byte	0x201
 1025 04c0 57040000 		.4byte	0x457
 1026 04c4 10       		.byte	0x10
 1027 04c5 08       		.uleb128 0x8
 1028 04c6 87070000 		.4byte	.LASF84
 1029 04ca 08       		.byte	0x8
 1030 04cb 0202     		.2byte	0x202
 1031 04cd 57040000 		.4byte	0x457
 1032 04d1 14       		.byte	0x14
 1033 04d2 08       		.uleb128 0x8
 1034 04d3 8F040000 		.4byte	.LASF85
 1035 04d7 08       		.byte	0x8
 1036 04d8 0302     		.2byte	0x203
 1037 04da 57040000 		.4byte	0x457
 1038 04de 18       		.byte	0x18
 1039 04df 08       		.uleb128 0x8
 1040 04e0 87060000 		.4byte	.LASF86
 1041 04e4 08       		.byte	0x8
 1042 04e5 0402     		.2byte	0x204
 1043 04e7 57040000 		.4byte	0x457
 1044 04eb 1C       		.byte	0x1c
 1045 04ec 08       		.uleb128 0x8
 1046 04ed 31070000 		.4byte	.LASF87
 1047 04f1 08       		.byte	0x8
 1048 04f2 0502     		.2byte	0x205
 1049 04f4 57040000 		.4byte	0x457
 1050 04f8 20       		.byte	0x20
 1051 04f9 07       		.uleb128 0x7
 1052 04fa 43535200 		.ascii	"CSR\000"
 1053 04fe 08       		.byte	0x8
 1054 04ff 0602     		.2byte	0x206
 1055 0501 57040000 		.4byte	0x457
 1056 0505 24       		.byte	0x24
 1057 0506 08       		.uleb128 0x8
 1058 0507 9F030000 		.4byte	.LASF88
 1059 050b 08       		.byte	0x8
 1060 050c 0702     		.2byte	0x207
 1061 050e 57040000 		.4byte	0x457
 1062 0512 28       		.byte	0x28
 1063 0513 08       		.uleb128 0x8
 1064 0514 3C070000 		.4byte	.LASF89
 1065 0518 08       		.byte	0x8
ARM GAS  /tmp/ccOa3Qcu.s 			page 20


 1066 0519 0802     		.2byte	0x208
 1067 051b 57040000 		.4byte	0x457
 1068 051f 2C       		.byte	0x2c
 1069 0520 08       		.uleb128 0x8
 1070 0521 42070000 		.4byte	.LASF90
 1071 0525 08       		.byte	0x8
 1072 0526 0902     		.2byte	0x209
 1073 0528 57040000 		.4byte	0x457
 1074 052c 30       		.byte	0x30
 1075 052d 00       		.byte	0
 1076 052e 13       		.uleb128 0x13
 1077 052f 56020000 		.4byte	.LASF91
 1078 0533 08       		.byte	0x8
 1079 0534 0A02     		.2byte	0x20a
 1080 0536 7C040000 		.4byte	0x47c
 1081 053a 03       		.uleb128 0x3
 1082 053b BF010000 		.4byte	.LASF92
 1083 053f 09       		.byte	0x9
 1084 0540 65       		.byte	0x65
 1085 0541 1A030000 		.4byte	0x31a
 1086 0545 03       		.uleb128 0x3
 1087 0546 F3020000 		.4byte	.LASF93
 1088 054a 09       		.byte	0x9
 1089 054b 6D       		.byte	0x6d
 1090 054c D9000000 		.4byte	0xd9
 1091 0550 05       		.uleb128 0x5
 1092 0551 99060000 		.4byte	.LASF94
 1093 0555 04       		.byte	0x4
 1094 0556 09       		.byte	0x9
 1095 0557 89       		.byte	0x89
 1096 0558 69050000 		.4byte	0x569
 1097 055c 14       		.uleb128 0x14
 1098 055d 72313300 		.ascii	"r13\000"
 1099 0561 09       		.byte	0x9
 1100 0562 8A       		.byte	0x8a
 1101 0563 E4050000 		.4byte	0x5e4
 1102 0567 00       		.byte	0
 1103 0568 00       		.byte	0
 1104 0569 05       		.uleb128 0x5
 1105 056a F0030000 		.4byte	.LASF95
 1106 056e 24       		.byte	0x24
 1107 056f 0A       		.byte	0xa
 1108 0570 FD       		.byte	0xfd
 1109 0571 E4050000 		.4byte	0x5e4
 1110 0575 07       		.uleb128 0x7
 1111 0576 723400   		.ascii	"r4\000"
 1112 0579 0A       		.byte	0xa
 1113 057a 1001     		.2byte	0x110
 1114 057c 3A050000 		.4byte	0x53a
 1115 0580 00       		.byte	0
 1116 0581 07       		.uleb128 0x7
 1117 0582 723500   		.ascii	"r5\000"
 1118 0585 0A       		.byte	0xa
 1119 0586 1101     		.2byte	0x111
 1120 0588 3A050000 		.4byte	0x53a
 1121 058c 04       		.byte	0x4
 1122 058d 07       		.uleb128 0x7
ARM GAS  /tmp/ccOa3Qcu.s 			page 21


 1123 058e 723600   		.ascii	"r6\000"
 1124 0591 0A       		.byte	0xa
 1125 0592 1201     		.2byte	0x112
 1126 0594 3A050000 		.4byte	0x53a
 1127 0598 08       		.byte	0x8
 1128 0599 07       		.uleb128 0x7
 1129 059a 723700   		.ascii	"r7\000"
 1130 059d 0A       		.byte	0xa
 1131 059e 1301     		.2byte	0x113
 1132 05a0 3A050000 		.4byte	0x53a
 1133 05a4 0C       		.byte	0xc
 1134 05a5 07       		.uleb128 0x7
 1135 05a6 723800   		.ascii	"r8\000"
 1136 05a9 0A       		.byte	0xa
 1137 05aa 1401     		.2byte	0x114
 1138 05ac 3A050000 		.4byte	0x53a
 1139 05b0 10       		.byte	0x10
 1140 05b1 07       		.uleb128 0x7
 1141 05b2 723900   		.ascii	"r9\000"
 1142 05b5 0A       		.byte	0xa
 1143 05b6 1501     		.2byte	0x115
 1144 05b8 3A050000 		.4byte	0x53a
 1145 05bc 14       		.byte	0x14
 1146 05bd 07       		.uleb128 0x7
 1147 05be 72313000 		.ascii	"r10\000"
 1148 05c2 0A       		.byte	0xa
 1149 05c3 1601     		.2byte	0x116
 1150 05c5 3A050000 		.4byte	0x53a
 1151 05c9 18       		.byte	0x18
 1152 05ca 07       		.uleb128 0x7
 1153 05cb 72313100 		.ascii	"r11\000"
 1154 05cf 0A       		.byte	0xa
 1155 05d0 1701     		.2byte	0x117
 1156 05d2 3A050000 		.4byte	0x53a
 1157 05d6 1C       		.byte	0x1c
 1158 05d7 07       		.uleb128 0x7
 1159 05d8 6C7200   		.ascii	"lr\000"
 1160 05db 0A       		.byte	0xa
 1161 05dc 1801     		.2byte	0x118
 1162 05de 3A050000 		.4byte	0x53a
 1163 05e2 20       		.byte	0x20
 1164 05e3 00       		.byte	0
 1165 05e4 09       		.uleb128 0x9
 1166 05e5 04       		.byte	0x4
 1167 05e6 69050000 		.4byte	0x569
 1168 05ea 12       		.uleb128 0x12
 1169 05eb 60       		.byte	0x60
 1170 05ec 0B       		.byte	0xb
 1171 05ed A101     		.2byte	0x1a1
 1172 05ef F6060000 		.4byte	0x6f6
 1173 05f3 07       		.uleb128 0x7
 1174 05f4 43523100 		.ascii	"CR1\000"
 1175 05f8 0B       		.byte	0xb
 1176 05f9 A201     		.2byte	0x1a2
 1177 05fb 57040000 		.4byte	0x457
 1178 05ff 00       		.byte	0
 1179 0600 07       		.uleb128 0x7
ARM GAS  /tmp/ccOa3Qcu.s 			page 22


 1180 0601 43523200 		.ascii	"CR2\000"
 1181 0605 0B       		.byte	0xb
 1182 0606 A301     		.2byte	0x1a3
 1183 0608 57040000 		.4byte	0x457
 1184 060c 04       		.byte	0x4
 1185 060d 08       		.uleb128 0x8
 1186 060e 52050000 		.4byte	.LASF96
 1187 0612 0B       		.byte	0xb
 1188 0613 A401     		.2byte	0x1a4
 1189 0615 57040000 		.4byte	0x457
 1190 0619 08       		.byte	0x8
 1191 061a 08       		.uleb128 0x8
 1192 061b 0D000000 		.4byte	.LASF97
 1193 061f 0B       		.byte	0xb
 1194 0620 A501     		.2byte	0x1a5
 1195 0622 57040000 		.4byte	0x457
 1196 0626 0C       		.byte	0xc
 1197 0627 07       		.uleb128 0x7
 1198 0628 535200   		.ascii	"SR\000"
 1199 062b 0B       		.byte	0xb
 1200 062c A601     		.2byte	0x1a6
 1201 062e 57040000 		.4byte	0x457
 1202 0632 10       		.byte	0x10
 1203 0633 07       		.uleb128 0x7
 1204 0634 45475200 		.ascii	"EGR\000"
 1205 0638 0B       		.byte	0xb
 1206 0639 A701     		.2byte	0x1a7
 1207 063b 57040000 		.4byte	0x457
 1208 063f 14       		.byte	0x14
 1209 0640 08       		.uleb128 0x8
 1210 0641 DE000000 		.4byte	.LASF98
 1211 0645 0B       		.byte	0xb
 1212 0646 A801     		.2byte	0x1a8
 1213 0648 57040000 		.4byte	0x457
 1214 064c 18       		.byte	0x18
 1215 064d 08       		.uleb128 0x8
 1216 064e E4000000 		.4byte	.LASF99
 1217 0652 0B       		.byte	0xb
 1218 0653 A901     		.2byte	0x1a9
 1219 0655 57040000 		.4byte	0x457
 1220 0659 1C       		.byte	0x1c
 1221 065a 08       		.uleb128 0x8
 1222 065b 57010000 		.4byte	.LASF100
 1223 065f 0B       		.byte	0xb
 1224 0660 AA01     		.2byte	0x1aa
 1225 0662 57040000 		.4byte	0x457
 1226 0666 20       		.byte	0x20
 1227 0667 07       		.uleb128 0x7
 1228 0668 434E5400 		.ascii	"CNT\000"
 1229 066c 0B       		.byte	0xb
 1230 066d AB01     		.2byte	0x1ab
 1231 066f 57040000 		.4byte	0x457
 1232 0673 24       		.byte	0x24
 1233 0674 07       		.uleb128 0x7
 1234 0675 50534300 		.ascii	"PSC\000"
 1235 0679 0B       		.byte	0xb
 1236 067a AC01     		.2byte	0x1ac
ARM GAS  /tmp/ccOa3Qcu.s 			page 23


 1237 067c 57040000 		.4byte	0x457
 1238 0680 28       		.byte	0x28
 1239 0681 07       		.uleb128 0x7
 1240 0682 41525200 		.ascii	"ARR\000"
 1241 0686 0B       		.byte	0xb
 1242 0687 AD01     		.2byte	0x1ad
 1243 0689 57040000 		.4byte	0x457
 1244 068d 2C       		.byte	0x2c
 1245 068e 07       		.uleb128 0x7
 1246 068f 52435200 		.ascii	"RCR\000"
 1247 0693 0B       		.byte	0xb
 1248 0694 AE01     		.2byte	0x1ae
 1249 0696 57040000 		.4byte	0x457
 1250 069a 30       		.byte	0x30
 1251 069b 07       		.uleb128 0x7
 1252 069c 43435200 		.ascii	"CCR\000"
 1253 06a0 0B       		.byte	0xb
 1254 06a1 AF01     		.2byte	0x1af
 1255 06a3 F6060000 		.4byte	0x6f6
 1256 06a7 34       		.byte	0x34
 1257 06a8 08       		.uleb128 0x8
 1258 06a9 B7000000 		.4byte	.LASF101
 1259 06ad 0B       		.byte	0xb
 1260 06ae B001     		.2byte	0x1b0
 1261 06b0 57040000 		.4byte	0x457
 1262 06b4 44       		.byte	0x44
 1263 06b5 07       		.uleb128 0x7
 1264 06b6 44435200 		.ascii	"DCR\000"
 1265 06ba 0B       		.byte	0xb
 1266 06bb B101     		.2byte	0x1b1
 1267 06bd 57040000 		.4byte	0x457
 1268 06c1 48       		.byte	0x48
 1269 06c2 08       		.uleb128 0x8
 1270 06c3 5E050000 		.4byte	.LASF102
 1271 06c7 0B       		.byte	0xb
 1272 06c8 B201     		.2byte	0x1b2
 1273 06ca 57040000 		.4byte	0x457
 1274 06ce 4C       		.byte	0x4c
 1275 06cf 07       		.uleb128 0x7
 1276 06d0 4F5200   		.ascii	"OR\000"
 1277 06d3 0B       		.byte	0xb
 1278 06d4 B301     		.2byte	0x1b3
 1279 06d6 57040000 		.4byte	0x457
 1280 06da 50       		.byte	0x50
 1281 06db 08       		.uleb128 0x8
 1282 06dc EA000000 		.4byte	.LASF103
 1283 06e0 0B       		.byte	0xb
 1284 06e1 B401     		.2byte	0x1b4
 1285 06e3 57040000 		.4byte	0x457
 1286 06e7 54       		.byte	0x54
 1287 06e8 08       		.uleb128 0x8
 1288 06e9 B5040000 		.4byte	.LASF104
 1289 06ed 0B       		.byte	0xb
 1290 06ee B501     		.2byte	0x1b5
 1291 06f0 FB060000 		.4byte	0x6fb
 1292 06f4 58       		.byte	0x58
 1293 06f5 00       		.byte	0
ARM GAS  /tmp/ccOa3Qcu.s 			page 24


 1294 06f6 0F       		.uleb128 0xf
 1295 06f7 6C040000 		.4byte	0x46c
 1296 06fb 0F       		.uleb128 0xf
 1297 06fc 5C040000 		.4byte	0x45c
 1298 0700 13       		.uleb128 0x13
 1299 0701 C3020000 		.4byte	.LASF105
 1300 0705 0B       		.byte	0xb
 1301 0706 B601     		.2byte	0x1b6
 1302 0708 EA050000 		.4byte	0x5ea
 1303 070c 15       		.uleb128 0x15
 1304 070d 04       		.byte	0x4
 1305 070e 0C       		.byte	0xc
 1306 070f 38       		.byte	0x38
 1307 0710 21070000 		.4byte	0x721
 1308 0714 06       		.uleb128 0x6
 1309 0715 80060000 		.4byte	.LASF106
 1310 0719 0C       		.byte	0xc
 1311 071a 3C       		.byte	0x3c
 1312 071b E4000000 		.4byte	0xe4
 1313 071f 00       		.byte	0
 1314 0720 00       		.byte	0
 1315 0721 03       		.uleb128 0x3
 1316 0722 8E030000 		.4byte	.LASF107
 1317 0726 0C       		.byte	0xc
 1318 0727 3D       		.byte	0x3d
 1319 0728 0C070000 		.4byte	0x70c
 1320 072c 16       		.uleb128 0x16
 1321 072d 04       		.byte	0x4
 1322 072e 07       		.byte	0x7
 1323 072f FA       		.byte	0xfa
 1324 0730 95070000 		.4byte	0x795
 1325 0734 17       		.uleb128 0x17
 1326 0735 19000000 		.4byte	.LASF108
 1327 0739 07       		.byte	0x7
 1328 073a 0101     		.2byte	0x101
 1329 073c 1B010000 		.4byte	0x11b
 1330 0740 17       		.uleb128 0x17
 1331 0741 7F000000 		.4byte	.LASF109
 1332 0745 07       		.byte	0x7
 1333 0746 0801     		.2byte	0x108
 1334 0748 1B010000 		.4byte	0x11b
 1335 074c 17       		.uleb128 0x17
 1336 074d 50070000 		.4byte	.LASF110
 1337 0751 07       		.byte	0x7
 1338 0752 0F01     		.2byte	0x10f
 1339 0754 1A030000 		.4byte	0x31a
 1340 0758 17       		.uleb128 0x17
 1341 0759 4A030000 		.4byte	.LASF111
 1342 075d 07       		.byte	0x7
 1343 075e 1601     		.2byte	0x116
 1344 0760 95070000 		.4byte	0x795
 1345 0764 17       		.uleb128 0x17
 1346 0765 93000000 		.4byte	.LASF112
 1347 0769 07       		.byte	0x7
 1348 076a 1B01     		.2byte	0x11b
 1349 076c 1B010000 		.4byte	0x11b
 1350 0770 17       		.uleb128 0x17
ARM GAS  /tmp/ccOa3Qcu.s 			page 25


 1351 0771 2F020000 		.4byte	.LASF113
 1352 0775 07       		.byte	0x7
 1353 0776 2401     		.2byte	0x124
 1354 0778 C0070000 		.4byte	0x7c0
 1355 077c 17       		.uleb128 0x17
 1356 077d DD040000 		.4byte	.LASF114
 1357 0781 07       		.byte	0x7
 1358 0782 2D01     		.2byte	0x12d
 1359 0784 F7070000 		.4byte	0x7f7
 1360 0788 17       		.uleb128 0x17
 1361 0789 77040000 		.4byte	.LASF115
 1362 078d 07       		.byte	0x7
 1363 078e 3501     		.2byte	0x135
 1364 0790 26010000 		.4byte	0x126
 1365 0794 00       		.byte	0
 1366 0795 09       		.uleb128 0x9
 1367 0796 04       		.byte	0x4
 1368 0797 32020000 		.4byte	0x232
 1369 079b 05       		.uleb128 0x5
 1370 079c A8040000 		.4byte	.LASF116
 1371 07a0 0C       		.byte	0xc
 1372 07a1 0D       		.byte	0xd
 1373 07a2 34       		.byte	0x34
 1374 07a3 C0070000 		.4byte	0x7c0
 1375 07a7 06       		.uleb128 0x6
 1376 07a8 7B010000 		.4byte	.LASF117
 1377 07ac 0D       		.byte	0xd
 1378 07ad 35       		.byte	0x35
 1379 07ae 67020000 		.4byte	0x267
 1380 07b2 00       		.byte	0
 1381 07b3 06       		.uleb128 0x6
 1382 07b4 71020000 		.4byte	.LASF118
 1383 07b8 0D       		.byte	0xd
 1384 07b9 37       		.byte	0x37
 1385 07ba 31010000 		.4byte	0x131
 1386 07be 08       		.byte	0x8
 1387 07bf 00       		.byte	0
 1388 07c0 09       		.uleb128 0x9
 1389 07c1 04       		.byte	0x4
 1390 07c2 9B070000 		.4byte	0x79b
 1391 07c6 05       		.uleb128 0x5
 1392 07c7 14070000 		.4byte	.LASF119
 1393 07cb 10       		.byte	0x10
 1394 07cc 0E       		.byte	0xe
 1395 07cd 39       		.byte	0x39
 1396 07ce F7070000 		.4byte	0x7f7
 1397 07d2 06       		.uleb128 0x6
 1398 07d3 FC000000 		.4byte	.LASF120
 1399 07d7 0E       		.byte	0xe
 1400 07d8 3A       		.byte	0x3a
 1401 07d9 67020000 		.4byte	0x267
 1402 07dd 00       		.byte	0
 1403 07de 06       		.uleb128 0x6
 1404 07df 71070000 		.4byte	.LASF121
 1405 07e3 0E       		.byte	0xe
 1406 07e4 3C       		.byte	0x3c
 1407 07e5 3D020000 		.4byte	0x23d
ARM GAS  /tmp/ccOa3Qcu.s 			page 26


 1408 07e9 08       		.byte	0x8
 1409 07ea 06       		.uleb128 0x6
 1410 07eb 46060000 		.4byte	.LASF122
 1411 07ef 0E       		.byte	0xe
 1412 07f0 3E       		.byte	0x3e
 1413 07f1 35080000 		.4byte	0x835
 1414 07f5 0C       		.byte	0xc
 1415 07f6 00       		.byte	0
 1416 07f7 09       		.uleb128 0x9
 1417 07f8 04       		.byte	0x4
 1418 07f9 C6070000 		.4byte	0x7c6
 1419 07fd 09       		.uleb128 0x9
 1420 07fe 04       		.byte	0x4
 1421 07ff 03080000 		.4byte	0x803
 1422 0803 18       		.uleb128 0x18
 1423 0804 08080000 		.4byte	0x808
 1424 0808 04       		.uleb128 0x4
 1425 0809 01       		.byte	0x1
 1426 080a 08       		.byte	0x8
 1427 080b 42050000 		.4byte	.LASF123
 1428 080f 09       		.uleb128 0x9
 1429 0810 04       		.byte	0x4
 1430 0811 1C030000 		.4byte	0x31c
 1431 0815 0F       		.uleb128 0xf
 1432 0816 FD070000 		.4byte	0x7fd
 1433 081a 10       		.uleb128 0x10
 1434 081b 45050000 		.4byte	0x545
 1435 081f 2A080000 		.4byte	0x82a
 1436 0823 11       		.uleb128 0x11
 1437 0824 50040000 		.4byte	0x450
 1438 0828 1A       		.byte	0x1a
 1439 0829 00       		.byte	0
 1440 082a 03       		.uleb128 0x3
 1441 082b D0010000 		.4byte	.LASF124
 1442 082f 0E       		.byte	0xe
 1443 0830 34       		.byte	0x34
 1444 0831 C6070000 		.4byte	0x7c6
 1445 0835 09       		.uleb128 0x9
 1446 0836 04       		.byte	0x4
 1447 0837 2A080000 		.4byte	0x82a
 1448 083b 04       		.uleb128 0x4
 1449 083c 01       		.byte	0x1
 1450 083d 02       		.byte	0x2
 1451 083e 2B040000 		.4byte	.LASF125
 1452 0842 19       		.uleb128 0x19
 1453 0843 01       		.byte	0x1
 1454 0844 0F       		.byte	0xf
 1455 0845 31       		.byte	0x31
 1456 0846 69080000 		.4byte	0x869
 1457 084a 1A       		.uleb128 0x1a
 1458 084b 77020000 		.4byte	.LASF126
 1459 084f 00       		.sleb128 0
 1460 0850 1A       		.uleb128 0x1a
 1461 0851 C5040000 		.4byte	.LASF127
 1462 0855 01       		.sleb128 1
 1463 0856 1A       		.uleb128 0x1a
 1464 0857 50030000 		.4byte	.LASF128
ARM GAS  /tmp/ccOa3Qcu.s 			page 27


 1465 085b 02       		.sleb128 2
 1466 085c 1A       		.uleb128 0x1a
 1467 085d 0D010000 		.4byte	.LASF129
 1468 0861 03       		.sleb128 3
 1469 0862 1A       		.uleb128 0x1a
 1470 0863 3C000000 		.4byte	.LASF130
 1471 0867 04       		.sleb128 4
 1472 0868 00       		.byte	0
 1473 0869 03       		.uleb128 0x3
 1474 086a EF010000 		.4byte	.LASF131
 1475 086e 0F       		.byte	0xf
 1476 086f 37       		.byte	0x37
 1477 0870 42080000 		.4byte	0x842
 1478 0874 03       		.uleb128 0x3
 1479 0875 B5010000 		.4byte	.LASF132
 1480 0879 0F       		.byte	0xf
 1481 087a 3C       		.byte	0x3c
 1482 087b 7F080000 		.4byte	0x87f
 1483 087f 0A       		.uleb128 0xa
 1484 0880 B5010000 		.4byte	.LASF132
 1485 0884 10       		.byte	0x10
 1486 0885 10       		.byte	0x10
 1487 0886 F901     		.2byte	0x1f9
 1488 0888 C1080000 		.4byte	0x8c1
 1489 088c 08       		.uleb128 0x8
 1490 088d 23010000 		.4byte	.LASF133
 1491 0891 10       		.byte	0x10
 1492 0892 FD01     		.2byte	0x1fd
 1493 0894 69080000 		.4byte	0x869
 1494 0898 00       		.byte	0
 1495 0899 08       		.uleb128 0x8
 1496 089a 57050000 		.4byte	.LASF134
 1497 089e 10       		.byte	0x10
 1498 089f 0102     		.2byte	0x201
 1499 08a1 45090000 		.4byte	0x945
 1500 08a5 04       		.byte	0x4
 1501 08a6 08       		.uleb128 0x8
 1502 08a7 6B070000 		.4byte	.LASF135
 1503 08ab 10       		.byte	0x10
 1504 08ac 0902     		.2byte	0x209
 1505 08ae CE000000 		.4byte	0xce
 1506 08b2 08       		.byte	0x8
 1507 08b3 07       		.uleb128 0x7
 1508 08b4 74696D00 		.ascii	"tim\000"
 1509 08b8 10       		.byte	0x10
 1510 08b9 0D02     		.2byte	0x20d
 1511 08bb 50090000 		.4byte	0x950
 1512 08bf 0C       		.byte	0xc
 1513 08c0 00       		.byte	0
 1514 08c1 03       		.uleb128 0x3
 1515 08c2 83010000 		.4byte	.LASF136
 1516 08c6 0F       		.byte	0xf
 1517 08c7 43       		.byte	0x43
 1518 08c8 CC080000 		.4byte	0x8cc
 1519 08cc 09       		.uleb128 0x9
 1520 08cd 04       		.byte	0x4
 1521 08ce D2080000 		.4byte	0x8d2
ARM GAS  /tmp/ccOa3Qcu.s 			page 28


 1522 08d2 0B       		.uleb128 0xb
 1523 08d3 DD080000 		.4byte	0x8dd
 1524 08d7 0C       		.uleb128 0xc
 1525 08d8 DD080000 		.4byte	0x8dd
 1526 08dc 00       		.byte	0
 1527 08dd 09       		.uleb128 0x9
 1528 08de 04       		.byte	0x4
 1529 08df 74080000 		.4byte	0x874
 1530 08e3 13       		.uleb128 0x13
 1531 08e4 82020000 		.4byte	.LASF137
 1532 08e8 10       		.byte	0x10
 1533 08e9 CF01     		.2byte	0x1cf
 1534 08eb CE000000 		.4byte	0xce
 1535 08ef 13       		.uleb128 0x13
 1536 08f0 3C010000 		.4byte	.LASF138
 1537 08f4 10       		.byte	0x10
 1538 08f5 D401     		.2byte	0x1d4
 1539 08f7 CE000000 		.4byte	0xce
 1540 08fb 12       		.uleb128 0x12
 1541 08fc 10       		.byte	0x10
 1542 08fd 10       		.byte	0x10
 1543 08fe DA01     		.2byte	0x1da
 1544 0900 39090000 		.4byte	0x939
 1545 0904 08       		.uleb128 0x8
 1546 0905 BC000000 		.4byte	.LASF139
 1547 0909 10       		.byte	0x10
 1548 090a E001     		.2byte	0x1e0
 1549 090c E3080000 		.4byte	0x8e3
 1550 0910 00       		.byte	0
 1551 0911 08       		.uleb128 0x8
 1552 0912 AD020000 		.4byte	.LASF140
 1553 0916 10       		.byte	0x10
 1554 0917 E701     		.2byte	0x1e7
 1555 0919 C1080000 		.4byte	0x8c1
 1556 091d 04       		.byte	0x4
 1557 091e 07       		.uleb128 0x7
 1558 091f 63723200 		.ascii	"cr2\000"
 1559 0923 10       		.byte	0x10
 1560 0924 ED01     		.2byte	0x1ed
 1561 0926 CE000000 		.4byte	0xce
 1562 092a 08       		.byte	0x8
 1563 092b 08       		.uleb128 0x8
 1564 092c 8E070000 		.4byte	.LASF141
 1565 0930 10       		.byte	0x10
 1566 0931 F301     		.2byte	0x1f3
 1567 0933 CE000000 		.4byte	0xce
 1568 0937 0C       		.byte	0xc
 1569 0938 00       		.byte	0
 1570 0939 13       		.uleb128 0x13
 1571 093a 8F060000 		.4byte	.LASF142
 1572 093e 10       		.byte	0x10
 1573 093f F401     		.2byte	0x1f4
 1574 0941 FB080000 		.4byte	0x8fb
 1575 0945 09       		.uleb128 0x9
 1576 0946 04       		.byte	0x4
 1577 0947 4B090000 		.4byte	0x94b
 1578 094b 18       		.uleb128 0x18
ARM GAS  /tmp/ccOa3Qcu.s 			page 29


 1579 094c 39090000 		.4byte	0x939
 1580 0950 09       		.uleb128 0x9
 1581 0951 04       		.byte	0x4
 1582 0952 00070000 		.4byte	0x700
 1583 0956 1B       		.uleb128 0x1b
 1584 0957 61030000 		.4byte	.LASF154
 1585 095b 01       		.byte	0x1
 1586 095c 4A03     		.2byte	0x34a
 1587 095e 01       		.byte	0x1
 1588 095f 70090000 		.4byte	0x970
 1589 0963 1C       		.uleb128 0x1c
 1590 0964 6C020000 		.4byte	.LASF146
 1591 0968 01       		.byte	0x1
 1592 0969 4A03     		.2byte	0x34a
 1593 096b DD080000 		.4byte	0x8dd
 1594 096f 00       		.byte	0
 1595 0970 1D       		.uleb128 0x1d
 1596 0971 B6020000 		.4byte	.LASF143
 1597 0975 01       		.byte	0x1
 1598 0976 9601     		.2byte	0x196
 1599 0978 00000000 		.4byte	.LFB273
 1600 097c 14000000 		.4byte	.LFE273-.LFB273
 1601 0980 01       		.uleb128 0x1
 1602 0981 9C       		.byte	0x9c
 1603 0982 9A090000 		.4byte	0x99a
 1604 0986 1E       		.uleb128 0x1e
 1605 0987 0A000000 		.4byte	.LVL0
 1606 098b 770B0000 		.4byte	0xb77
 1607 098f 1F       		.uleb128 0x1f
 1608 0990 01       		.uleb128 0x1
 1609 0991 50       		.byte	0x50
 1610 0992 05       		.uleb128 0x5
 1611 0993 03       		.byte	0x3
 1612 0994 00000000 		.4byte	.LANCHOR0
 1613 0998 00       		.byte	0
 1614 0999 00       		.byte	0
 1615 099a 1D       		.uleb128 0x1d
 1616 099b EF060000 		.4byte	.LASF144
 1617 099f 01       		.byte	0x1
 1618 09a0 E801     		.2byte	0x1e8
 1619 09a2 00000000 		.4byte	.LFB274
 1620 09a6 68000000 		.4byte	.LFE274-.LFB274
 1621 09aa 01       		.uleb128 0x1
 1622 09ab 9C       		.byte	0x9c
 1623 09ac EE090000 		.4byte	0x9ee
 1624 09b0 20       		.uleb128 0x20
 1625 09b1 6C020000 		.4byte	.LASF146
 1626 09b5 01       		.byte	0x1
 1627 09b6 E801     		.2byte	0x1e8
 1628 09b8 DD080000 		.4byte	0x8dd
 1629 09bc 00000000 		.4byte	.LLST0
 1630 09c0 21       		.uleb128 0x21
 1631 09c1 70736300 		.ascii	"psc\000"
 1632 09c5 01       		.byte	0x1
 1633 09c6 E901     		.2byte	0x1e9
 1634 09c8 B8000000 		.4byte	0xb8
 1635 09cc 42000000 		.4byte	.LLST1
ARM GAS  /tmp/ccOa3Qcu.s 			page 30


 1636 09d0 22       		.uleb128 0x22
 1637 09d1 86040000 		.4byte	.LASF161
 1638 09d5 FE090000 		.4byte	0x9fe
 1639 09d9 23       		.uleb128 0x23
 1640 09da 54000000 		.4byte	.LVL7
 1641 09de 880B0000 		.4byte	0xb88
 1642 09e2 1F       		.uleb128 0x1f
 1643 09e3 01       		.uleb128 0x1
 1644 09e4 51       		.byte	0x51
 1645 09e5 01       		.uleb128 0x1
 1646 09e6 37       		.byte	0x37
 1647 09e7 1F       		.uleb128 0x1f
 1648 09e8 01       		.uleb128 0x1
 1649 09e9 50       		.byte	0x50
 1650 09ea 01       		.uleb128 0x1
 1651 09eb 49       		.byte	0x49
 1652 09ec 00       		.byte	0
 1653 09ed 00       		.byte	0
 1654 09ee 10       		.uleb128 0x10
 1655 09ef 08080000 		.4byte	0x808
 1656 09f3 FE090000 		.4byte	0x9fe
 1657 09f7 11       		.uleb128 0x11
 1658 09f8 50040000 		.4byte	0x450
 1659 09fc 0D       		.byte	0xd
 1660 09fd 00       		.byte	0
 1661 09fe 18       		.uleb128 0x18
 1662 09ff EE090000 		.4byte	0x9ee
 1663 0a03 1D       		.uleb128 0x1d
 1664 0a04 24070000 		.4byte	.LASF145
 1665 0a08 01       		.byte	0x1
 1666 0a09 B702     		.2byte	0x2b7
 1667 0a0b 00000000 		.4byte	.LFB275
 1668 0a0f 34000000 		.4byte	.LFE275-.LFB275
 1669 0a13 01       		.uleb128 0x1
 1670 0a14 9C       		.byte	0x9c
 1671 0a15 390A0000 		.4byte	0xa39
 1672 0a19 20       		.uleb128 0x20
 1673 0a1a 6C020000 		.4byte	.LASF146
 1674 0a1e 01       		.byte	0x1
 1675 0a1f B702     		.2byte	0x2b7
 1676 0a21 DD080000 		.4byte	0x8dd
 1677 0a25 55000000 		.4byte	.LLST2
 1678 0a29 23       		.uleb128 0x23
 1679 0a2a 20000000 		.4byte	.LVL12
 1680 0a2e 9E0B0000 		.4byte	0xb9e
 1681 0a32 1F       		.uleb128 0x1f
 1682 0a33 01       		.uleb128 0x1
 1683 0a34 50       		.byte	0x50
 1684 0a35 01       		.uleb128 0x1
 1685 0a36 49       		.byte	0x49
 1686 0a37 00       		.byte	0
 1687 0a38 00       		.byte	0
 1688 0a39 1D       		.uleb128 0x1d
 1689 0a3a B1030000 		.4byte	.LASF147
 1690 0a3e 01       		.byte	0x1
 1691 0a3f 3403     		.2byte	0x334
 1692 0a41 00000000 		.4byte	.LFB276
ARM GAS  /tmp/ccOa3Qcu.s 			page 31


 1693 0a45 22000000 		.4byte	.LFE276-.LFB276
 1694 0a49 01       		.uleb128 0x1
 1695 0a4a 9C       		.byte	0x9c
 1696 0a4b 700A0000 		.4byte	0xa70
 1697 0a4f 20       		.uleb128 0x20
 1698 0a50 6C020000 		.4byte	.LASF146
 1699 0a54 01       		.byte	0x1
 1700 0a55 3403     		.2byte	0x334
 1701 0a57 DD080000 		.4byte	0x8dd
 1702 0a5b 8F000000 		.4byte	.LLST3
 1703 0a5f 20       		.uleb128 0x20
 1704 0a60 A4010000 		.4byte	.LASF148
 1705 0a64 01       		.byte	0x1
 1706 0a65 3403     		.2byte	0x334
 1707 0a67 EF080000 		.4byte	0x8ef
 1708 0a6b B0000000 		.4byte	.LLST4
 1709 0a6f 00       		.byte	0
 1710 0a70 24       		.uleb128 0x24
 1711 0a71 56090000 		.4byte	0x956
 1712 0a75 00000000 		.4byte	.LFB277
 1713 0a79 12000000 		.4byte	.LFE277-.LFB277
 1714 0a7d 01       		.uleb128 0x1
 1715 0a7e 9C       		.byte	0x9c
 1716 0a7f 8B0A0000 		.4byte	0xa8b
 1717 0a83 25       		.uleb128 0x25
 1718 0a84 63090000 		.4byte	0x963
 1719 0a88 01       		.uleb128 0x1
 1720 0a89 50       		.byte	0x50
 1721 0a8a 00       		.byte	0
 1722 0a8b 1D       		.uleb128 0x1d
 1723 0a8c 36020000 		.4byte	.LASF149
 1724 0a90 01       		.byte	0x1
 1725 0a91 5E03     		.2byte	0x35e
 1726 0a93 00000000 		.4byte	.LFB278
 1727 0a97 1A000000 		.4byte	.LFE278-.LFB278
 1728 0a9b 01       		.uleb128 0x1
 1729 0a9c 9C       		.byte	0x9c
 1730 0a9d C20A0000 		.4byte	0xac2
 1731 0aa1 20       		.uleb128 0x20
 1732 0aa2 6C020000 		.4byte	.LASF146
 1733 0aa6 01       		.byte	0x1
 1734 0aa7 5E03     		.2byte	0x35e
 1735 0aa9 DD080000 		.4byte	0x8dd
 1736 0aad EE000000 		.4byte	.LLST5
 1737 0ab1 20       		.uleb128 0x20
 1738 0ab2 A4010000 		.4byte	.LASF148
 1739 0ab6 01       		.byte	0x1
 1740 0ab7 5E03     		.2byte	0x35e
 1741 0ab9 EF080000 		.4byte	0x8ef
 1742 0abd 0F010000 		.4byte	.LLST6
 1743 0ac1 00       		.byte	0
 1744 0ac2 1D       		.uleb128 0x1d
 1745 0ac3 D0030000 		.4byte	.LASF150
 1746 0ac7 01       		.byte	0x1
 1747 0ac8 6F03     		.2byte	0x36f
 1748 0aca 00000000 		.4byte	.LFB279
 1749 0ace 26000000 		.4byte	.LFE279-.LFB279
ARM GAS  /tmp/ccOa3Qcu.s 			page 32


 1750 0ad2 01       		.uleb128 0x1
 1751 0ad3 9C       		.byte	0x9c
 1752 0ad4 140B0000 		.4byte	0xb14
 1753 0ad8 20       		.uleb128 0x20
 1754 0ad9 6C020000 		.4byte	.LASF146
 1755 0add 01       		.byte	0x1
 1756 0ade 6F03     		.2byte	0x36f
 1757 0ae0 DD080000 		.4byte	0x8dd
 1758 0ae4 2F010000 		.4byte	.LLST7
 1759 0ae8 26       		.uleb128 0x26
 1760 0ae9 56090000 		.4byte	0x956
 1761 0aed 12000000 		.4byte	.LBB4
 1762 0af1 0C000000 		.4byte	.LBE4-.LBB4
 1763 0af5 01       		.byte	0x1
 1764 0af6 7403     		.2byte	0x374
 1765 0af8 060B0000 		.4byte	0xb06
 1766 0afc 27       		.uleb128 0x27
 1767 0afd 63090000 		.4byte	0x963
 1768 0b01 50010000 		.4byte	.LLST8
 1769 0b05 00       		.byte	0
 1770 0b06 28       		.uleb128 0x28
 1771 0b07 24000000 		.4byte	.LVL25
 1772 0b0b 1F       		.uleb128 0x1f
 1773 0b0c 01       		.uleb128 0x1
 1774 0b0d 50       		.byte	0x50
 1775 0b0e 03       		.uleb128 0x3
 1776 0b0f F3       		.byte	0xf3
 1777 0b10 01       		.uleb128 0x1
 1778 0b11 50       		.byte	0x50
 1779 0b12 00       		.byte	0
 1780 0b13 00       		.byte	0
 1781 0b14 29       		.uleb128 0x29
 1782 0b15 29000000 		.4byte	.LASF151
 1783 0b19 01       		.byte	0x1
 1784 0b1a 9B       		.byte	0x9b
 1785 0b1b 00000000 		.4byte	.LFB272
 1786 0b1f 14000000 		.4byte	.LFE272-.LFB272
 1787 0b23 01       		.uleb128 0x1
 1788 0b24 9C       		.byte	0x9c
 1789 0b25 4A0B0000 		.4byte	0xb4a
 1790 0b29 2A       		.uleb128 0x2a
 1791 0b2a 08000000 		.4byte	.LVL26
 1792 0b2e C20A0000 		.4byte	0xac2
 1793 0b32 400B0000 		.4byte	0xb40
 1794 0b36 1F       		.uleb128 0x1f
 1795 0b37 01       		.uleb128 0x1
 1796 0b38 50       		.byte	0x50
 1797 0b39 05       		.uleb128 0x5
 1798 0b3a 03       		.byte	0x3
 1799 0b3b 00000000 		.4byte	.LANCHOR0
 1800 0b3f 00       		.byte	0
 1801 0b40 2B       		.uleb128 0x2b
 1802 0b41 10000000 		.4byte	.LVL27
 1803 0b45 AF0B0000 		.4byte	0xbaf
 1804 0b49 00       		.byte	0
 1805 0b4a 2C       		.uleb128 0x2c
 1806 0b4b 47040000 		.4byte	.LASF152
ARM GAS  /tmp/ccOa3Qcu.s 			page 33


 1807 0b4f 11       		.byte	0x11
 1808 0b50 FA06     		.2byte	0x6fa
 1809 0b52 560B0000 		.4byte	0xb56
 1810 0b56 0F       		.uleb128 0xf
 1811 0b57 C3000000 		.4byte	0xc3
 1812 0b5b 2D       		.uleb128 0x2d
 1813 0b5c 636800   		.ascii	"ch\000"
 1814 0b5f 07       		.byte	0x7
 1815 0b60 0B02     		.2byte	0x20b
 1816 0b62 E9030000 		.4byte	0x3e9
 1817 0b66 2E       		.uleb128 0x2e
 1818 0b67 B1000000 		.4byte	.LASF153
 1819 0b6b 01       		.byte	0x1
 1820 0b6c 2A       		.byte	0x2a
 1821 0b6d 74080000 		.4byte	0x874
 1822 0b71 05       		.uleb128 0x5
 1823 0b72 03       		.byte	0x3
 1824 0b73 00000000 		.4byte	GPTD1
 1825 0b77 2F       		.uleb128 0x2f
 1826 0b78 0F020000 		.4byte	.LASF155
 1827 0b7c 0F       		.byte	0xf
 1828 0b7d 7A       		.byte	0x7a
 1829 0b7e 880B0000 		.4byte	0xb88
 1830 0b82 0C       		.uleb128 0xc
 1831 0b83 DD080000 		.4byte	0x8dd
 1832 0b87 00       		.byte	0
 1833 0b88 2F       		.uleb128 0x2f
 1834 0b89 CD000000 		.4byte	.LASF156
 1835 0b8d 12       		.byte	0x12
 1836 0b8e 4E       		.byte	0x4e
 1837 0b8f 9E0B0000 		.4byte	0xb9e
 1838 0b93 0C       		.uleb128 0xc
 1839 0b94 CE000000 		.4byte	0xce
 1840 0b98 0C       		.uleb128 0xc
 1841 0b99 CE000000 		.4byte	0xce
 1842 0b9d 00       		.byte	0
 1843 0b9e 2F       		.uleb128 0x2f
 1844 0b9f 1D020000 		.4byte	.LASF157
 1845 0ba3 12       		.byte	0x12
 1846 0ba4 4F       		.byte	0x4f
 1847 0ba5 AF0B0000 		.4byte	0xbaf
 1848 0ba9 0C       		.uleb128 0xc
 1849 0baa CE000000 		.4byte	0xce
 1850 0bae 00       		.byte	0
 1851 0baf 30       		.uleb128 0x30
 1852 0bb0 9A020000 		.4byte	.LASF162
 1853 0bb4 0A       		.byte	0xa
 1854 0bb5 6F01     		.2byte	0x16f
 1855 0bb7 00       		.byte	0
 1856              		.section	.debug_abbrev,"",%progbits
 1857              	.Ldebug_abbrev0:
 1858 0000 01       		.uleb128 0x1
 1859 0001 11       		.uleb128 0x11
 1860 0002 01       		.byte	0x1
 1861 0003 25       		.uleb128 0x25
 1862 0004 0E       		.uleb128 0xe
 1863 0005 13       		.uleb128 0x13
ARM GAS  /tmp/ccOa3Qcu.s 			page 34


 1864 0006 0B       		.uleb128 0xb
 1865 0007 03       		.uleb128 0x3
 1866 0008 0E       		.uleb128 0xe
 1867 0009 1B       		.uleb128 0x1b
 1868 000a 0E       		.uleb128 0xe
 1869 000b 55       		.uleb128 0x55
 1870 000c 17       		.uleb128 0x17
 1871 000d 11       		.uleb128 0x11
 1872 000e 01       		.uleb128 0x1
 1873 000f 10       		.uleb128 0x10
 1874 0010 17       		.uleb128 0x17
 1875 0011 00       		.byte	0
 1876 0012 00       		.byte	0
 1877 0013 02       		.uleb128 0x2
 1878 0014 24       		.uleb128 0x24
 1879 0015 00       		.byte	0
 1880 0016 0B       		.uleb128 0xb
 1881 0017 0B       		.uleb128 0xb
 1882 0018 3E       		.uleb128 0x3e
 1883 0019 0B       		.uleb128 0xb
 1884 001a 03       		.uleb128 0x3
 1885 001b 08       		.uleb128 0x8
 1886 001c 00       		.byte	0
 1887 001d 00       		.byte	0
 1888 001e 03       		.uleb128 0x3
 1889 001f 16       		.uleb128 0x16
 1890 0020 00       		.byte	0
 1891 0021 03       		.uleb128 0x3
 1892 0022 0E       		.uleb128 0xe
 1893 0023 3A       		.uleb128 0x3a
 1894 0024 0B       		.uleb128 0xb
 1895 0025 3B       		.uleb128 0x3b
 1896 0026 0B       		.uleb128 0xb
 1897 0027 49       		.uleb128 0x49
 1898 0028 13       		.uleb128 0x13
 1899 0029 00       		.byte	0
 1900 002a 00       		.byte	0
 1901 002b 04       		.uleb128 0x4
 1902 002c 24       		.uleb128 0x24
 1903 002d 00       		.byte	0
 1904 002e 0B       		.uleb128 0xb
 1905 002f 0B       		.uleb128 0xb
 1906 0030 3E       		.uleb128 0x3e
 1907 0031 0B       		.uleb128 0xb
 1908 0032 03       		.uleb128 0x3
 1909 0033 0E       		.uleb128 0xe
 1910 0034 00       		.byte	0
 1911 0035 00       		.byte	0
 1912 0036 05       		.uleb128 0x5
 1913 0037 13       		.uleb128 0x13
 1914 0038 01       		.byte	0x1
 1915 0039 03       		.uleb128 0x3
 1916 003a 0E       		.uleb128 0xe
 1917 003b 0B       		.uleb128 0xb
 1918 003c 0B       		.uleb128 0xb
 1919 003d 3A       		.uleb128 0x3a
 1920 003e 0B       		.uleb128 0xb
ARM GAS  /tmp/ccOa3Qcu.s 			page 35


 1921 003f 3B       		.uleb128 0x3b
 1922 0040 0B       		.uleb128 0xb
 1923 0041 01       		.uleb128 0x1
 1924 0042 13       		.uleb128 0x13
 1925 0043 00       		.byte	0
 1926 0044 00       		.byte	0
 1927 0045 06       		.uleb128 0x6
 1928 0046 0D       		.uleb128 0xd
 1929 0047 00       		.byte	0
 1930 0048 03       		.uleb128 0x3
 1931 0049 0E       		.uleb128 0xe
 1932 004a 3A       		.uleb128 0x3a
 1933 004b 0B       		.uleb128 0xb
 1934 004c 3B       		.uleb128 0x3b
 1935 004d 0B       		.uleb128 0xb
 1936 004e 49       		.uleb128 0x49
 1937 004f 13       		.uleb128 0x13
 1938 0050 38       		.uleb128 0x38
 1939 0051 0B       		.uleb128 0xb
 1940 0052 00       		.byte	0
 1941 0053 00       		.byte	0
 1942 0054 07       		.uleb128 0x7
 1943 0055 0D       		.uleb128 0xd
 1944 0056 00       		.byte	0
 1945 0057 03       		.uleb128 0x3
 1946 0058 08       		.uleb128 0x8
 1947 0059 3A       		.uleb128 0x3a
 1948 005a 0B       		.uleb128 0xb
 1949 005b 3B       		.uleb128 0x3b
 1950 005c 05       		.uleb128 0x5
 1951 005d 49       		.uleb128 0x49
 1952 005e 13       		.uleb128 0x13
 1953 005f 38       		.uleb128 0x38
 1954 0060 0B       		.uleb128 0xb
 1955 0061 00       		.byte	0
 1956 0062 00       		.byte	0
 1957 0063 08       		.uleb128 0x8
 1958 0064 0D       		.uleb128 0xd
 1959 0065 00       		.byte	0
 1960 0066 03       		.uleb128 0x3
 1961 0067 0E       		.uleb128 0xe
 1962 0068 3A       		.uleb128 0x3a
 1963 0069 0B       		.uleb128 0xb
 1964 006a 3B       		.uleb128 0x3b
 1965 006b 05       		.uleb128 0x5
 1966 006c 49       		.uleb128 0x49
 1967 006d 13       		.uleb128 0x13
 1968 006e 38       		.uleb128 0x38
 1969 006f 0B       		.uleb128 0xb
 1970 0070 00       		.byte	0
 1971 0071 00       		.byte	0
 1972 0072 09       		.uleb128 0x9
 1973 0073 0F       		.uleb128 0xf
 1974 0074 00       		.byte	0
 1975 0075 0B       		.uleb128 0xb
 1976 0076 0B       		.uleb128 0xb
 1977 0077 49       		.uleb128 0x49
ARM GAS  /tmp/ccOa3Qcu.s 			page 36


 1978 0078 13       		.uleb128 0x13
 1979 0079 00       		.byte	0
 1980 007a 00       		.byte	0
 1981 007b 0A       		.uleb128 0xa
 1982 007c 13       		.uleb128 0x13
 1983 007d 01       		.byte	0x1
 1984 007e 03       		.uleb128 0x3
 1985 007f 0E       		.uleb128 0xe
 1986 0080 0B       		.uleb128 0xb
 1987 0081 0B       		.uleb128 0xb
 1988 0082 3A       		.uleb128 0x3a
 1989 0083 0B       		.uleb128 0xb
 1990 0084 3B       		.uleb128 0x3b
 1991 0085 05       		.uleb128 0x5
 1992 0086 01       		.uleb128 0x1
 1993 0087 13       		.uleb128 0x13
 1994 0088 00       		.byte	0
 1995 0089 00       		.byte	0
 1996 008a 0B       		.uleb128 0xb
 1997 008b 15       		.uleb128 0x15
 1998 008c 01       		.byte	0x1
 1999 008d 27       		.uleb128 0x27
 2000 008e 19       		.uleb128 0x19
 2001 008f 01       		.uleb128 0x1
 2002 0090 13       		.uleb128 0x13
 2003 0091 00       		.byte	0
 2004 0092 00       		.byte	0
 2005 0093 0C       		.uleb128 0xc
 2006 0094 05       		.uleb128 0x5
 2007 0095 00       		.byte	0
 2008 0096 49       		.uleb128 0x49
 2009 0097 13       		.uleb128 0x13
 2010 0098 00       		.byte	0
 2011 0099 00       		.byte	0
 2012 009a 0D       		.uleb128 0xd
 2013 009b 0F       		.uleb128 0xf
 2014 009c 00       		.byte	0
 2015 009d 0B       		.uleb128 0xb
 2016 009e 0B       		.uleb128 0xb
 2017 009f 00       		.byte	0
 2018 00a0 00       		.byte	0
 2019 00a1 0E       		.uleb128 0xe
 2020 00a2 13       		.uleb128 0x13
 2021 00a3 01       		.byte	0x1
 2022 00a4 03       		.uleb128 0x3
 2023 00a5 0E       		.uleb128 0xe
 2024 00a6 0B       		.uleb128 0xb
 2025 00a7 05       		.uleb128 0x5
 2026 00a8 3A       		.uleb128 0x3a
 2027 00a9 0B       		.uleb128 0xb
 2028 00aa 3B       		.uleb128 0x3b
 2029 00ab 05       		.uleb128 0x5
 2030 00ac 01       		.uleb128 0x1
 2031 00ad 13       		.uleb128 0x13
 2032 00ae 00       		.byte	0
 2033 00af 00       		.byte	0
 2034 00b0 0F       		.uleb128 0xf
ARM GAS  /tmp/ccOa3Qcu.s 			page 37


 2035 00b1 35       		.uleb128 0x35
 2036 00b2 00       		.byte	0
 2037 00b3 49       		.uleb128 0x49
 2038 00b4 13       		.uleb128 0x13
 2039 00b5 00       		.byte	0
 2040 00b6 00       		.byte	0
 2041 00b7 10       		.uleb128 0x10
 2042 00b8 01       		.uleb128 0x1
 2043 00b9 01       		.byte	0x1
 2044 00ba 49       		.uleb128 0x49
 2045 00bb 13       		.uleb128 0x13
 2046 00bc 01       		.uleb128 0x1
 2047 00bd 13       		.uleb128 0x13
 2048 00be 00       		.byte	0
 2049 00bf 00       		.byte	0
 2050 00c0 11       		.uleb128 0x11
 2051 00c1 21       		.uleb128 0x21
 2052 00c2 00       		.byte	0
 2053 00c3 49       		.uleb128 0x49
 2054 00c4 13       		.uleb128 0x13
 2055 00c5 2F       		.uleb128 0x2f
 2056 00c6 0B       		.uleb128 0xb
 2057 00c7 00       		.byte	0
 2058 00c8 00       		.byte	0
 2059 00c9 12       		.uleb128 0x12
 2060 00ca 13       		.uleb128 0x13
 2061 00cb 01       		.byte	0x1
 2062 00cc 0B       		.uleb128 0xb
 2063 00cd 0B       		.uleb128 0xb
 2064 00ce 3A       		.uleb128 0x3a
 2065 00cf 0B       		.uleb128 0xb
 2066 00d0 3B       		.uleb128 0x3b
 2067 00d1 05       		.uleb128 0x5
 2068 00d2 01       		.uleb128 0x1
 2069 00d3 13       		.uleb128 0x13
 2070 00d4 00       		.byte	0
 2071 00d5 00       		.byte	0
 2072 00d6 13       		.uleb128 0x13
 2073 00d7 16       		.uleb128 0x16
 2074 00d8 00       		.byte	0
 2075 00d9 03       		.uleb128 0x3
 2076 00da 0E       		.uleb128 0xe
 2077 00db 3A       		.uleb128 0x3a
 2078 00dc 0B       		.uleb128 0xb
 2079 00dd 3B       		.uleb128 0x3b
 2080 00de 05       		.uleb128 0x5
 2081 00df 49       		.uleb128 0x49
 2082 00e0 13       		.uleb128 0x13
 2083 00e1 00       		.byte	0
 2084 00e2 00       		.byte	0
 2085 00e3 14       		.uleb128 0x14
 2086 00e4 0D       		.uleb128 0xd
 2087 00e5 00       		.byte	0
 2088 00e6 03       		.uleb128 0x3
 2089 00e7 08       		.uleb128 0x8
 2090 00e8 3A       		.uleb128 0x3a
 2091 00e9 0B       		.uleb128 0xb
ARM GAS  /tmp/ccOa3Qcu.s 			page 38


 2092 00ea 3B       		.uleb128 0x3b
 2093 00eb 0B       		.uleb128 0xb
 2094 00ec 49       		.uleb128 0x49
 2095 00ed 13       		.uleb128 0x13
 2096 00ee 38       		.uleb128 0x38
 2097 00ef 0B       		.uleb128 0xb
 2098 00f0 00       		.byte	0
 2099 00f1 00       		.byte	0
 2100 00f2 15       		.uleb128 0x15
 2101 00f3 13       		.uleb128 0x13
 2102 00f4 01       		.byte	0x1
 2103 00f5 0B       		.uleb128 0xb
 2104 00f6 0B       		.uleb128 0xb
 2105 00f7 3A       		.uleb128 0x3a
 2106 00f8 0B       		.uleb128 0xb
 2107 00f9 3B       		.uleb128 0x3b
 2108 00fa 0B       		.uleb128 0xb
 2109 00fb 01       		.uleb128 0x1
 2110 00fc 13       		.uleb128 0x13
 2111 00fd 00       		.byte	0
 2112 00fe 00       		.byte	0
 2113 00ff 16       		.uleb128 0x16
 2114 0100 17       		.uleb128 0x17
 2115 0101 01       		.byte	0x1
 2116 0102 0B       		.uleb128 0xb
 2117 0103 0B       		.uleb128 0xb
 2118 0104 3A       		.uleb128 0x3a
 2119 0105 0B       		.uleb128 0xb
 2120 0106 3B       		.uleb128 0x3b
 2121 0107 0B       		.uleb128 0xb
 2122 0108 01       		.uleb128 0x1
 2123 0109 13       		.uleb128 0x13
 2124 010a 00       		.byte	0
 2125 010b 00       		.byte	0
 2126 010c 17       		.uleb128 0x17
 2127 010d 0D       		.uleb128 0xd
 2128 010e 00       		.byte	0
 2129 010f 03       		.uleb128 0x3
 2130 0110 0E       		.uleb128 0xe
 2131 0111 3A       		.uleb128 0x3a
 2132 0112 0B       		.uleb128 0xb
 2133 0113 3B       		.uleb128 0x3b
 2134 0114 05       		.uleb128 0x5
 2135 0115 49       		.uleb128 0x49
 2136 0116 13       		.uleb128 0x13
 2137 0117 00       		.byte	0
 2138 0118 00       		.byte	0
 2139 0119 18       		.uleb128 0x18
 2140 011a 26       		.uleb128 0x26
 2141 011b 00       		.byte	0
 2142 011c 49       		.uleb128 0x49
 2143 011d 13       		.uleb128 0x13
 2144 011e 00       		.byte	0
 2145 011f 00       		.byte	0
 2146 0120 19       		.uleb128 0x19
 2147 0121 04       		.uleb128 0x4
 2148 0122 01       		.byte	0x1
ARM GAS  /tmp/ccOa3Qcu.s 			page 39


 2149 0123 0B       		.uleb128 0xb
 2150 0124 0B       		.uleb128 0xb
 2151 0125 3A       		.uleb128 0x3a
 2152 0126 0B       		.uleb128 0xb
 2153 0127 3B       		.uleb128 0x3b
 2154 0128 0B       		.uleb128 0xb
 2155 0129 01       		.uleb128 0x1
 2156 012a 13       		.uleb128 0x13
 2157 012b 00       		.byte	0
 2158 012c 00       		.byte	0
 2159 012d 1A       		.uleb128 0x1a
 2160 012e 28       		.uleb128 0x28
 2161 012f 00       		.byte	0
 2162 0130 03       		.uleb128 0x3
 2163 0131 0E       		.uleb128 0xe
 2164 0132 1C       		.uleb128 0x1c
 2165 0133 0D       		.uleb128 0xd
 2166 0134 00       		.byte	0
 2167 0135 00       		.byte	0
 2168 0136 1B       		.uleb128 0x1b
 2169 0137 2E       		.uleb128 0x2e
 2170 0138 01       		.byte	0x1
 2171 0139 3F       		.uleb128 0x3f
 2172 013a 19       		.uleb128 0x19
 2173 013b 03       		.uleb128 0x3
 2174 013c 0E       		.uleb128 0xe
 2175 013d 3A       		.uleb128 0x3a
 2176 013e 0B       		.uleb128 0xb
 2177 013f 3B       		.uleb128 0x3b
 2178 0140 05       		.uleb128 0x5
 2179 0141 27       		.uleb128 0x27
 2180 0142 19       		.uleb128 0x19
 2181 0143 20       		.uleb128 0x20
 2182 0144 0B       		.uleb128 0xb
 2183 0145 01       		.uleb128 0x1
 2184 0146 13       		.uleb128 0x13
 2185 0147 00       		.byte	0
 2186 0148 00       		.byte	0
 2187 0149 1C       		.uleb128 0x1c
 2188 014a 05       		.uleb128 0x5
 2189 014b 00       		.byte	0
 2190 014c 03       		.uleb128 0x3
 2191 014d 0E       		.uleb128 0xe
 2192 014e 3A       		.uleb128 0x3a
 2193 014f 0B       		.uleb128 0xb
 2194 0150 3B       		.uleb128 0x3b
 2195 0151 05       		.uleb128 0x5
 2196 0152 49       		.uleb128 0x49
 2197 0153 13       		.uleb128 0x13
 2198 0154 00       		.byte	0
 2199 0155 00       		.byte	0
 2200 0156 1D       		.uleb128 0x1d
 2201 0157 2E       		.uleb128 0x2e
 2202 0158 01       		.byte	0x1
 2203 0159 3F       		.uleb128 0x3f
 2204 015a 19       		.uleb128 0x19
 2205 015b 03       		.uleb128 0x3
ARM GAS  /tmp/ccOa3Qcu.s 			page 40


 2206 015c 0E       		.uleb128 0xe
 2207 015d 3A       		.uleb128 0x3a
 2208 015e 0B       		.uleb128 0xb
 2209 015f 3B       		.uleb128 0x3b
 2210 0160 05       		.uleb128 0x5
 2211 0161 27       		.uleb128 0x27
 2212 0162 19       		.uleb128 0x19
 2213 0163 11       		.uleb128 0x11
 2214 0164 01       		.uleb128 0x1
 2215 0165 12       		.uleb128 0x12
 2216 0166 06       		.uleb128 0x6
 2217 0167 40       		.uleb128 0x40
 2218 0168 18       		.uleb128 0x18
 2219 0169 9742     		.uleb128 0x2117
 2220 016b 19       		.uleb128 0x19
 2221 016c 01       		.uleb128 0x1
 2222 016d 13       		.uleb128 0x13
 2223 016e 00       		.byte	0
 2224 016f 00       		.byte	0
 2225 0170 1E       		.uleb128 0x1e
 2226 0171 898201   		.uleb128 0x4109
 2227 0174 01       		.byte	0x1
 2228 0175 11       		.uleb128 0x11
 2229 0176 01       		.uleb128 0x1
 2230 0177 9542     		.uleb128 0x2115
 2231 0179 19       		.uleb128 0x19
 2232 017a 31       		.uleb128 0x31
 2233 017b 13       		.uleb128 0x13
 2234 017c 00       		.byte	0
 2235 017d 00       		.byte	0
 2236 017e 1F       		.uleb128 0x1f
 2237 017f 8A8201   		.uleb128 0x410a
 2238 0182 00       		.byte	0
 2239 0183 02       		.uleb128 0x2
 2240 0184 18       		.uleb128 0x18
 2241 0185 9142     		.uleb128 0x2111
 2242 0187 18       		.uleb128 0x18
 2243 0188 00       		.byte	0
 2244 0189 00       		.byte	0
 2245 018a 20       		.uleb128 0x20
 2246 018b 05       		.uleb128 0x5
 2247 018c 00       		.byte	0
 2248 018d 03       		.uleb128 0x3
 2249 018e 0E       		.uleb128 0xe
 2250 018f 3A       		.uleb128 0x3a
 2251 0190 0B       		.uleb128 0xb
 2252 0191 3B       		.uleb128 0x3b
 2253 0192 05       		.uleb128 0x5
 2254 0193 49       		.uleb128 0x49
 2255 0194 13       		.uleb128 0x13
 2256 0195 02       		.uleb128 0x2
 2257 0196 17       		.uleb128 0x17
 2258 0197 00       		.byte	0
 2259 0198 00       		.byte	0
 2260 0199 21       		.uleb128 0x21
 2261 019a 34       		.uleb128 0x34
 2262 019b 00       		.byte	0
ARM GAS  /tmp/ccOa3Qcu.s 			page 41


 2263 019c 03       		.uleb128 0x3
 2264 019d 08       		.uleb128 0x8
 2265 019e 3A       		.uleb128 0x3a
 2266 019f 0B       		.uleb128 0xb
 2267 01a0 3B       		.uleb128 0x3b
 2268 01a1 05       		.uleb128 0x5
 2269 01a2 49       		.uleb128 0x49
 2270 01a3 13       		.uleb128 0x13
 2271 01a4 02       		.uleb128 0x2
 2272 01a5 17       		.uleb128 0x17
 2273 01a6 00       		.byte	0
 2274 01a7 00       		.byte	0
 2275 01a8 22       		.uleb128 0x22
 2276 01a9 34       		.uleb128 0x34
 2277 01aa 00       		.byte	0
 2278 01ab 03       		.uleb128 0x3
 2279 01ac 0E       		.uleb128 0xe
 2280 01ad 49       		.uleb128 0x49
 2281 01ae 13       		.uleb128 0x13
 2282 01af 34       		.uleb128 0x34
 2283 01b0 19       		.uleb128 0x19
 2284 01b1 00       		.byte	0
 2285 01b2 00       		.byte	0
 2286 01b3 23       		.uleb128 0x23
 2287 01b4 898201   		.uleb128 0x4109
 2288 01b7 01       		.byte	0x1
 2289 01b8 11       		.uleb128 0x11
 2290 01b9 01       		.uleb128 0x1
 2291 01ba 31       		.uleb128 0x31
 2292 01bb 13       		.uleb128 0x13
 2293 01bc 00       		.byte	0
 2294 01bd 00       		.byte	0
 2295 01be 24       		.uleb128 0x24
 2296 01bf 2E       		.uleb128 0x2e
 2297 01c0 01       		.byte	0x1
 2298 01c1 31       		.uleb128 0x31
 2299 01c2 13       		.uleb128 0x13
 2300 01c3 11       		.uleb128 0x11
 2301 01c4 01       		.uleb128 0x1
 2302 01c5 12       		.uleb128 0x12
 2303 01c6 06       		.uleb128 0x6
 2304 01c7 40       		.uleb128 0x40
 2305 01c8 18       		.uleb128 0x18
 2306 01c9 9742     		.uleb128 0x2117
 2307 01cb 19       		.uleb128 0x19
 2308 01cc 01       		.uleb128 0x1
 2309 01cd 13       		.uleb128 0x13
 2310 01ce 00       		.byte	0
 2311 01cf 00       		.byte	0
 2312 01d0 25       		.uleb128 0x25
 2313 01d1 05       		.uleb128 0x5
 2314 01d2 00       		.byte	0
 2315 01d3 31       		.uleb128 0x31
 2316 01d4 13       		.uleb128 0x13
 2317 01d5 02       		.uleb128 0x2
 2318 01d6 18       		.uleb128 0x18
 2319 01d7 00       		.byte	0
ARM GAS  /tmp/ccOa3Qcu.s 			page 42


 2320 01d8 00       		.byte	0
 2321 01d9 26       		.uleb128 0x26
 2322 01da 1D       		.uleb128 0x1d
 2323 01db 01       		.byte	0x1
 2324 01dc 31       		.uleb128 0x31
 2325 01dd 13       		.uleb128 0x13
 2326 01de 11       		.uleb128 0x11
 2327 01df 01       		.uleb128 0x1
 2328 01e0 12       		.uleb128 0x12
 2329 01e1 06       		.uleb128 0x6
 2330 01e2 58       		.uleb128 0x58
 2331 01e3 0B       		.uleb128 0xb
 2332 01e4 59       		.uleb128 0x59
 2333 01e5 05       		.uleb128 0x5
 2334 01e6 01       		.uleb128 0x1
 2335 01e7 13       		.uleb128 0x13
 2336 01e8 00       		.byte	0
 2337 01e9 00       		.byte	0
 2338 01ea 27       		.uleb128 0x27
 2339 01eb 05       		.uleb128 0x5
 2340 01ec 00       		.byte	0
 2341 01ed 31       		.uleb128 0x31
 2342 01ee 13       		.uleb128 0x13
 2343 01ef 02       		.uleb128 0x2
 2344 01f0 17       		.uleb128 0x17
 2345 01f1 00       		.byte	0
 2346 01f2 00       		.byte	0
 2347 01f3 28       		.uleb128 0x28
 2348 01f4 898201   		.uleb128 0x4109
 2349 01f7 01       		.byte	0x1
 2350 01f8 11       		.uleb128 0x11
 2351 01f9 01       		.uleb128 0x1
 2352 01fa 00       		.byte	0
 2353 01fb 00       		.byte	0
 2354 01fc 29       		.uleb128 0x29
 2355 01fd 2E       		.uleb128 0x2e
 2356 01fe 01       		.byte	0x1
 2357 01ff 3F       		.uleb128 0x3f
 2358 0200 19       		.uleb128 0x19
 2359 0201 03       		.uleb128 0x3
 2360 0202 0E       		.uleb128 0xe
 2361 0203 3A       		.uleb128 0x3a
 2362 0204 0B       		.uleb128 0xb
 2363 0205 3B       		.uleb128 0x3b
 2364 0206 0B       		.uleb128 0xb
 2365 0207 27       		.uleb128 0x27
 2366 0208 19       		.uleb128 0x19
 2367 0209 11       		.uleb128 0x11
 2368 020a 01       		.uleb128 0x1
 2369 020b 12       		.uleb128 0x12
 2370 020c 06       		.uleb128 0x6
 2371 020d 40       		.uleb128 0x40
 2372 020e 18       		.uleb128 0x18
 2373 020f 9742     		.uleb128 0x2117
 2374 0211 19       		.uleb128 0x19
 2375 0212 01       		.uleb128 0x1
 2376 0213 13       		.uleb128 0x13
ARM GAS  /tmp/ccOa3Qcu.s 			page 43


 2377 0214 00       		.byte	0
 2378 0215 00       		.byte	0
 2379 0216 2A       		.uleb128 0x2a
 2380 0217 898201   		.uleb128 0x4109
 2381 021a 01       		.byte	0x1
 2382 021b 11       		.uleb128 0x11
 2383 021c 01       		.uleb128 0x1
 2384 021d 31       		.uleb128 0x31
 2385 021e 13       		.uleb128 0x13
 2386 021f 01       		.uleb128 0x1
 2387 0220 13       		.uleb128 0x13
 2388 0221 00       		.byte	0
 2389 0222 00       		.byte	0
 2390 0223 2B       		.uleb128 0x2b
 2391 0224 898201   		.uleb128 0x4109
 2392 0227 00       		.byte	0
 2393 0228 11       		.uleb128 0x11
 2394 0229 01       		.uleb128 0x1
 2395 022a 9542     		.uleb128 0x2115
 2396 022c 19       		.uleb128 0x19
 2397 022d 31       		.uleb128 0x31
 2398 022e 13       		.uleb128 0x13
 2399 022f 00       		.byte	0
 2400 0230 00       		.byte	0
 2401 0231 2C       		.uleb128 0x2c
 2402 0232 34       		.uleb128 0x34
 2403 0233 00       		.byte	0
 2404 0234 03       		.uleb128 0x3
 2405 0235 0E       		.uleb128 0xe
 2406 0236 3A       		.uleb128 0x3a
 2407 0237 0B       		.uleb128 0xb
 2408 0238 3B       		.uleb128 0x3b
 2409 0239 05       		.uleb128 0x5
 2410 023a 49       		.uleb128 0x49
 2411 023b 13       		.uleb128 0x13
 2412 023c 3F       		.uleb128 0x3f
 2413 023d 19       		.uleb128 0x19
 2414 023e 3C       		.uleb128 0x3c
 2415 023f 19       		.uleb128 0x19
 2416 0240 00       		.byte	0
 2417 0241 00       		.byte	0
 2418 0242 2D       		.uleb128 0x2d
 2419 0243 34       		.uleb128 0x34
 2420 0244 00       		.byte	0
 2421 0245 03       		.uleb128 0x3
 2422 0246 08       		.uleb128 0x8
 2423 0247 3A       		.uleb128 0x3a
 2424 0248 0B       		.uleb128 0xb
 2425 0249 3B       		.uleb128 0x3b
 2426 024a 05       		.uleb128 0x5
 2427 024b 49       		.uleb128 0x49
 2428 024c 13       		.uleb128 0x13
 2429 024d 3F       		.uleb128 0x3f
 2430 024e 19       		.uleb128 0x19
 2431 024f 3C       		.uleb128 0x3c
 2432 0250 19       		.uleb128 0x19
 2433 0251 00       		.byte	0
ARM GAS  /tmp/ccOa3Qcu.s 			page 44


 2434 0252 00       		.byte	0
 2435 0253 2E       		.uleb128 0x2e
 2436 0254 34       		.uleb128 0x34
 2437 0255 00       		.byte	0
 2438 0256 03       		.uleb128 0x3
 2439 0257 0E       		.uleb128 0xe
 2440 0258 3A       		.uleb128 0x3a
 2441 0259 0B       		.uleb128 0xb
 2442 025a 3B       		.uleb128 0x3b
 2443 025b 0B       		.uleb128 0xb
 2444 025c 49       		.uleb128 0x49
 2445 025d 13       		.uleb128 0x13
 2446 025e 3F       		.uleb128 0x3f
 2447 025f 19       		.uleb128 0x19
 2448 0260 02       		.uleb128 0x2
 2449 0261 18       		.uleb128 0x18
 2450 0262 00       		.byte	0
 2451 0263 00       		.byte	0
 2452 0264 2F       		.uleb128 0x2f
 2453 0265 2E       		.uleb128 0x2e
 2454 0266 01       		.byte	0x1
 2455 0267 3F       		.uleb128 0x3f
 2456 0268 19       		.uleb128 0x19
 2457 0269 03       		.uleb128 0x3
 2458 026a 0E       		.uleb128 0xe
 2459 026b 3A       		.uleb128 0x3a
 2460 026c 0B       		.uleb128 0xb
 2461 026d 3B       		.uleb128 0x3b
 2462 026e 0B       		.uleb128 0xb
 2463 026f 27       		.uleb128 0x27
 2464 0270 19       		.uleb128 0x19
 2465 0271 3C       		.uleb128 0x3c
 2466 0272 19       		.uleb128 0x19
 2467 0273 01       		.uleb128 0x1
 2468 0274 13       		.uleb128 0x13
 2469 0275 00       		.byte	0
 2470 0276 00       		.byte	0
 2471 0277 30       		.uleb128 0x30
 2472 0278 2E       		.uleb128 0x2e
 2473 0279 00       		.byte	0
 2474 027a 3F       		.uleb128 0x3f
 2475 027b 19       		.uleb128 0x19
 2476 027c 03       		.uleb128 0x3
 2477 027d 0E       		.uleb128 0xe
 2478 027e 3A       		.uleb128 0x3a
 2479 027f 0B       		.uleb128 0xb
 2480 0280 3B       		.uleb128 0x3b
 2481 0281 05       		.uleb128 0x5
 2482 0282 27       		.uleb128 0x27
 2483 0283 19       		.uleb128 0x19
 2484 0284 3C       		.uleb128 0x3c
 2485 0285 19       		.uleb128 0x19
 2486 0286 00       		.byte	0
 2487 0287 00       		.byte	0
 2488 0288 00       		.byte	0
 2489              		.section	.debug_loc,"",%progbits
 2490              	.Ldebug_loc0:
ARM GAS  /tmp/ccOa3Qcu.s 			page 45


 2491              	.LLST0:
 2492 0000 00000000 		.4byte	.LVL1
 2493 0004 0A000000 		.4byte	.LVL2
 2494 0008 0100     		.2byte	0x1
 2495 000a 50       		.byte	0x50
 2496 000b 0A000000 		.4byte	.LVL2
 2497 000f 16000000 		.4byte	.LVL3
 2498 0013 0100     		.2byte	0x1
 2499 0015 54       		.byte	0x54
 2500 0016 16000000 		.4byte	.LVL3
 2501 001a 30000000 		.4byte	.LVL5
 2502 001e 0400     		.2byte	0x4
 2503 0020 F3       		.byte	0xf3
 2504 0021 01       		.uleb128 0x1
 2505 0022 50       		.byte	0x50
 2506 0023 9F       		.byte	0x9f
 2507 0024 30000000 		.4byte	.LVL5
 2508 0028 4C000000 		.4byte	.LVL6
 2509 002c 0100     		.2byte	0x1
 2510 002e 50       		.byte	0x50
 2511 002f 4C000000 		.4byte	.LVL6
 2512 0033 68000000 		.4byte	.LFE274
 2513 0037 0100     		.2byte	0x1
 2514 0039 54       		.byte	0x54
 2515 003a 00000000 		.4byte	0
 2516 003e 00000000 		.4byte	0
 2517              	.LLST1:
 2518 0042 20000000 		.4byte	.LVL4
 2519 0046 30000000 		.4byte	.LVL5
 2520 004a 0100     		.2byte	0x1
 2521 004c 50       		.byte	0x50
 2522 004d 00000000 		.4byte	0
 2523 0051 00000000 		.4byte	0
 2524              	.LLST2:
 2525 0055 00000000 		.4byte	.LVL8
 2526 0059 08000000 		.4byte	.LVL9
 2527 005d 0100     		.2byte	0x1
 2528 005f 50       		.byte	0x50
 2529 0060 08000000 		.4byte	.LVL9
 2530 0064 0A000000 		.4byte	.LVL10
 2531 0068 0400     		.2byte	0x4
 2532 006a F3       		.byte	0xf3
 2533 006b 01       		.uleb128 0x1
 2534 006c 50       		.byte	0x50
 2535 006d 9F       		.byte	0x9f
 2536 006e 0A000000 		.4byte	.LVL10
 2537 0072 1C000000 		.4byte	.LVL11
 2538 0076 0100     		.2byte	0x1
 2539 0078 50       		.byte	0x50
 2540 0079 1C000000 		.4byte	.LVL11
 2541 007d 34000000 		.4byte	.LFE275
 2542 0081 0400     		.2byte	0x4
 2543 0083 F3       		.byte	0xf3
 2544 0084 01       		.uleb128 0x1
 2545 0085 50       		.byte	0x50
 2546 0086 9F       		.byte	0x9f
 2547 0087 00000000 		.4byte	0
ARM GAS  /tmp/ccOa3Qcu.s 			page 46


 2548 008b 00000000 		.4byte	0
 2549              	.LLST3:
 2550 008f 00000000 		.4byte	.LVL13
 2551 0093 06000000 		.4byte	.LVL14
 2552 0097 0100     		.2byte	0x1
 2553 0099 50       		.byte	0x50
 2554 009a 06000000 		.4byte	.LVL14
 2555 009e 22000000 		.4byte	.LFE276
 2556 00a2 0400     		.2byte	0x4
 2557 00a4 F3       		.byte	0xf3
 2558 00a5 01       		.uleb128 0x1
 2559 00a6 50       		.byte	0x50
 2560 00a7 9F       		.byte	0x9f
 2561 00a8 00000000 		.4byte	0
 2562 00ac 00000000 		.4byte	0
 2563              	.LLST4:
 2564 00b0 00000000 		.4byte	.LVL13
 2565 00b4 08000000 		.4byte	.LVL15
 2566 00b8 0100     		.2byte	0x1
 2567 00ba 51       		.byte	0x51
 2568 00bb 08000000 		.4byte	.LVL15
 2569 00bf 0E000000 		.4byte	.LVL16
 2570 00c3 0300     		.2byte	0x3
 2571 00c5 71       		.byte	0x71
 2572 00c6 01       		.sleb128 1
 2573 00c7 9F       		.byte	0x9f
 2574 00c8 0E000000 		.4byte	.LVL16
 2575 00cc 10000000 		.4byte	.LVL17
 2576 00d0 0600     		.2byte	0x6
 2577 00d2 73       		.byte	0x73
 2578 00d3 2C       		.sleb128 44
 2579 00d4 06       		.byte	0x6
 2580 00d5 23       		.byte	0x23
 2581 00d6 01       		.uleb128 0x1
 2582 00d7 9F       		.byte	0x9f
 2583 00d8 10000000 		.4byte	.LVL17
 2584 00dc 22000000 		.4byte	.LFE276
 2585 00e0 0400     		.2byte	0x4
 2586 00e2 F3       		.byte	0xf3
 2587 00e3 01       		.uleb128 0x1
 2588 00e4 51       		.byte	0x51
 2589 00e5 9F       		.byte	0x9f
 2590 00e6 00000000 		.4byte	0
 2591 00ea 00000000 		.4byte	0
 2592              	.LLST5:
 2593 00ee 00000000 		.4byte	.LVL19
 2594 00f2 06000000 		.4byte	.LVL21
 2595 00f6 0100     		.2byte	0x1
 2596 00f8 50       		.byte	0x50
 2597 00f9 06000000 		.4byte	.LVL21
 2598 00fd 1A000000 		.4byte	.LFE278
 2599 0101 0400     		.2byte	0x4
 2600 0103 F3       		.byte	0xf3
 2601 0104 01       		.uleb128 0x1
 2602 0105 50       		.byte	0x50
 2603 0106 9F       		.byte	0x9f
 2604 0107 00000000 		.4byte	0
ARM GAS  /tmp/ccOa3Qcu.s 			page 47


 2605 010b 00000000 		.4byte	0
 2606              	.LLST6:
 2607 010f 00000000 		.4byte	.LVL19
 2608 0113 04000000 		.4byte	.LVL20
 2609 0117 0100     		.2byte	0x1
 2610 0119 51       		.byte	0x51
 2611 011a 04000000 		.4byte	.LVL20
 2612 011e 1A000000 		.4byte	.LFE278
 2613 0122 0300     		.2byte	0x3
 2614 0124 71       		.byte	0x71
 2615 0125 01       		.sleb128 1
 2616 0126 9F       		.byte	0x9f
 2617 0127 00000000 		.4byte	0
 2618 012b 00000000 		.4byte	0
 2619              	.LLST7:
 2620 012f 00000000 		.4byte	.LVL22
 2621 0133 23000000 		.4byte	.LVL25-1
 2622 0137 0100     		.2byte	0x1
 2623 0139 50       		.byte	0x50
 2624 013a 23000000 		.4byte	.LVL25-1
 2625 013e 26000000 		.4byte	.LFE279
 2626 0142 0400     		.2byte	0x4
 2627 0144 F3       		.byte	0xf3
 2628 0145 01       		.uleb128 0x1
 2629 0146 50       		.byte	0x50
 2630 0147 9F       		.byte	0x9f
 2631 0148 00000000 		.4byte	0
 2632 014c 00000000 		.4byte	0
 2633              	.LLST8:
 2634 0150 12000000 		.4byte	.LVL23
 2635 0154 1E000000 		.4byte	.LVL24
 2636 0158 0100     		.2byte	0x1
 2637 015a 50       		.byte	0x50
 2638 015b 00000000 		.4byte	0
 2639 015f 00000000 		.4byte	0
 2640              		.section	.debug_aranges,"",%progbits
 2641 0000 54000000 		.4byte	0x54
 2642 0004 0200     		.2byte	0x2
 2643 0006 00000000 		.4byte	.Ldebug_info0
 2644 000a 04       		.byte	0x4
 2645 000b 00       		.byte	0
 2646 000c 0000     		.2byte	0
 2647 000e 0000     		.2byte	0
 2648 0010 00000000 		.4byte	.LFB273
 2649 0014 14000000 		.4byte	.LFE273-.LFB273
 2650 0018 00000000 		.4byte	.LFB274
 2651 001c 68000000 		.4byte	.LFE274-.LFB274
 2652 0020 00000000 		.4byte	.LFB275
 2653 0024 34000000 		.4byte	.LFE275-.LFB275
 2654 0028 00000000 		.4byte	.LFB276
 2655 002c 22000000 		.4byte	.LFE276-.LFB276
 2656 0030 00000000 		.4byte	.LFB277
 2657 0034 12000000 		.4byte	.LFE277-.LFB277
 2658 0038 00000000 		.4byte	.LFB278
 2659 003c 1A000000 		.4byte	.LFE278-.LFB278
 2660 0040 00000000 		.4byte	.LFB279
 2661 0044 26000000 		.4byte	.LFE279-.LFB279
ARM GAS  /tmp/ccOa3Qcu.s 			page 48


 2662 0048 00000000 		.4byte	.LFB272
 2663 004c 14000000 		.4byte	.LFE272-.LFB272
 2664 0050 00000000 		.4byte	0
 2665 0054 00000000 		.4byte	0
 2666              		.section	.debug_ranges,"",%progbits
 2667              	.Ldebug_ranges0:
 2668 0000 00000000 		.4byte	.LFB273
 2669 0004 14000000 		.4byte	.LFE273
 2670 0008 00000000 		.4byte	.LFB274
 2671 000c 68000000 		.4byte	.LFE274
 2672 0010 00000000 		.4byte	.LFB275
 2673 0014 34000000 		.4byte	.LFE275
 2674 0018 00000000 		.4byte	.LFB276
 2675 001c 22000000 		.4byte	.LFE276
 2676 0020 00000000 		.4byte	.LFB277
 2677 0024 12000000 		.4byte	.LFE277
 2678 0028 00000000 		.4byte	.LFB278
 2679 002c 1A000000 		.4byte	.LFE278
 2680 0030 00000000 		.4byte	.LFB279
 2681 0034 26000000 		.4byte	.LFE279
 2682 0038 00000000 		.4byte	.LFB272
 2683 003c 14000000 		.4byte	.LFE272
 2684 0040 00000000 		.4byte	0
 2685 0044 00000000 		.4byte	0
 2686              		.section	.debug_line,"",%progbits
 2687              	.Ldebug_line0:
 2688 0000 4A040000 		.section	.debug_str,"MS",%progbits,1
 2688      02006303 
 2688      00000201 
 2688      FB0E0D00 
 2688      01010101 
 2689              	.LASF52:
 2690 0000 72656164 		.ascii	"ready_list_t\000"
 2690      795F6C69 
 2690      73745F74 
 2690      00
 2691              	.LASF97:
 2692 000d 44494552 		.ascii	"DIER\000"
 2692      00
 2693              	.LASF2:
 2694 0012 73697A65 		.ascii	"size_t\000"
 2694      5F7400
 2695              	.LASF108:
 2696 0019 7264796D 		.ascii	"rdymsg\000"
 2696      736700
 2697              	.LASF19:
 2698 0020 75696E74 		.ascii	"uint64_t\000"
 2698      36345F74 
 2698      00
 2699              	.LASF151:
 2700 0029 56656374 		.ascii	"VectorA4\000"
 2700      6F724134 
 2700      00
 2701              	.LASF3:
 2702 0032 5F5F7569 		.ascii	"__uint8_t\000"
 2702      6E74385F 
 2702      7400
ARM GAS  /tmp/ccOa3Qcu.s 			page 49


 2703              	.LASF130:
 2704 003c 4750545F 		.ascii	"GPT_ONESHOT\000"
 2704      4F4E4553 
 2704      484F5400 
 2705              	.LASF51:
 2706 0048 63685F74 		.ascii	"ch_threads_queue\000"
 2706      68726561 
 2706      64735F71 
 2706      75657565 
 2706      00
 2707              	.LASF71:
 2708 0059 73797374 		.ascii	"system_debug_t\000"
 2708      656D5F64 
 2708      65627567 
 2708      5F7400
 2709              	.LASF14:
 2710 0068 6C6F6E67 		.ascii	"long long unsigned int\000"
 2710      206C6F6E 
 2710      6720756E 
 2710      7369676E 
 2710      65642069 
 2711              	.LASF109:
 2712 007f 65786974 		.ascii	"exitcode\000"
 2712      636F6465 
 2712      00
 2713              	.LASF78:
 2714 0088 6D61696E 		.ascii	"mainthread\000"
 2714      74687265 
 2714      616400
 2715              	.LASF112:
 2716 0093 73656E74 		.ascii	"sentmsg\000"
 2716      6D736700 
 2717              	.LASF68:
 2718 009b 76697274 		.ascii	"virtual_timers_list_t\000"
 2718      75616C5F 
 2718      74696D65 
 2718      72735F6C 
 2718      6973745F 
 2719              	.LASF153:
 2720 00b1 47505444 		.ascii	"GPTD1\000"
 2720      3100
 2721              	.LASF101:
 2722 00b7 42445452 		.ascii	"BDTR\000"
 2722      00
 2723              	.LASF139:
 2724 00bc 66726571 		.ascii	"frequency\000"
 2724      75656E63 
 2724      7900
 2725              	.LASF32:
 2726 00c6 705F7072 		.ascii	"p_prio\000"
 2726      696F00
 2727              	.LASF156:
 2728 00cd 6E766963 		.ascii	"nvicEnableVector\000"
 2728      456E6162 
 2728      6C655665 
 2728      63746F72 
 2728      00
ARM GAS  /tmp/ccOa3Qcu.s 			page 50


 2729              	.LASF98:
 2730 00de 43434D52 		.ascii	"CCMR1\000"
 2730      3100
 2731              	.LASF99:
 2732 00e4 43434D52 		.ascii	"CCMR2\000"
 2732      3200
 2733              	.LASF103:
 2734 00ea 43434D52 		.ascii	"CCMR3\000"
 2734      3300
 2735              	.LASF1:
 2736 00f0 7369676E 		.ascii	"signed char\000"
 2736      65642063 
 2736      68617200 
 2737              	.LASF120:
 2738 00fc 6D5F7175 		.ascii	"m_queue\000"
 2738      65756500 
 2739              	.LASF83:
 2740 0104 41504231 		.ascii	"APB1RSTR\000"
 2740      52535452 
 2740      00
 2741              	.LASF129:
 2742 010d 4750545F 		.ascii	"GPT_CONTINUOUS\000"
 2742      434F4E54 
 2742      494E554F 
 2742      555300
 2743              	.LASF77:
 2744 011c 76746C69 		.ascii	"vtlist\000"
 2744      737400
 2745              	.LASF133:
 2746 0123 73746174 		.ascii	"state\000"
 2746      6500
 2747              	.LASF75:
 2748 0129 63685F73 		.ascii	"ch_system\000"
 2748      79737465 
 2748      6D00
 2749              	.LASF9:
 2750 0133 6C6F6E67 		.ascii	"long int\000"
 2750      20696E74 
 2750      00
 2751              	.LASF138:
 2752 013c 67707463 		.ascii	"gptcnt_t\000"
 2752      6E745F74 
 2752      00
 2753              	.LASF82:
 2754 0145 41504232 		.ascii	"APB2RSTR\000"
 2754      52535452 
 2754      00
 2755              	.LASF22:
 2756 014e 74737461 		.ascii	"tstate_t\000"
 2756      74655F74 
 2756      00
 2757              	.LASF100:
 2758 0157 43434552 		.ascii	"CCER\000"
 2758      00
 2759              	.LASF12:
 2760 015c 6C6F6E67 		.ascii	"long long int\000"
 2760      206C6F6E 
ARM GAS  /tmp/ccOa3Qcu.s 			page 51


 2760      6720696E 
 2760      7400
 2761              	.LASF16:
 2762 016a 75696E74 		.ascii	"uint16_t\000"
 2762      31365F74 
 2762      00
 2763              	.LASF34:
 2764 0173 705F6E65 		.ascii	"p_newer\000"
 2764      77657200 
 2765              	.LASF117:
 2766 017b 735F7175 		.ascii	"s_queue\000"
 2766      65756500 
 2767              	.LASF136:
 2768 0183 67707463 		.ascii	"gptcallback_t\000"
 2768      616C6C62 
 2768      61636B5F 
 2768      7400
 2769              	.LASF7:
 2770 0191 73686F72 		.ascii	"short unsigned int\000"
 2770      7420756E 
 2770      7369676E 
 2770      65642069 
 2770      6E7400
 2771              	.LASF148:
 2772 01a4 696E7465 		.ascii	"interval\000"
 2772      7276616C 
 2772      00
 2773              	.LASF57:
 2774 01ad 725F6E65 		.ascii	"r_newer\000"
 2774      77657200 
 2775              	.LASF132:
 2776 01b5 47505444 		.ascii	"GPTDriver\000"
 2776      72697665 
 2776      7200
 2777              	.LASF92:
 2778 01bf 72656761 		.ascii	"regarm_t\000"
 2778      726D5F74 
 2778      00
 2779              	.LASF64:
 2780 01c8 76745F70 		.ascii	"vt_prev\000"
 2780      72657600 
 2781              	.LASF124:
 2782 01d0 6D757465 		.ascii	"mutex_t\000"
 2782      785F7400 
 2783              	.LASF54:
 2784 01d8 725F7175 		.ascii	"r_queue\000"
 2784      65756500 
 2785              	.LASF79:
 2786 01e0 69646C65 		.ascii	"idle_thread_wa\000"
 2786      5F746872 
 2786      6561645F 
 2786      776100
 2787              	.LASF131:
 2788 01ef 67707473 		.ascii	"gptstate_t\000"
 2788      74617465 
 2788      5F7400
 2789              	.LASF0:
ARM GAS  /tmp/ccOa3Qcu.s 			page 52


 2790 01fa 756E7369 		.ascii	"unsigned int\000"
 2790      676E6564 
 2790      20696E74 
 2790      00
 2791              	.LASF63:
 2792 0207 76745F6E 		.ascii	"vt_next\000"
 2792      65787400 
 2793              	.LASF155:
 2794 020f 6770744F 		.ascii	"gptObjectInit\000"
 2794      626A6563 
 2794      74496E69 
 2794      7400
 2795              	.LASF157:
 2796 021d 6E766963 		.ascii	"nvicDisableVector\000"
 2796      44697361 
 2796      626C6556 
 2796      6563746F 
 2796      7200
 2797              	.LASF113:
 2798 022f 77747365 		.ascii	"wtsemp\000"
 2798      6D7000
 2799              	.LASF149:
 2800 0236 6770745F 		.ascii	"gpt_lld_polled_delay\000"
 2800      6C6C645F 
 2800      706F6C6C 
 2800      65645F64 
 2800      656C6179 
 2801              	.LASF41:
 2802 024b 705F6D73 		.ascii	"p_msgqueue\000"
 2802      67717565 
 2802      756500
 2803              	.LASF91:
 2804 0256 5243435F 		.ascii	"RCC_TypeDef\000"
 2804      54797065 
 2804      44656600 
 2805              	.LASF48:
 2806 0262 63685F74 		.ascii	"ch_thread\000"
 2806      68726561 
 2806      6400
 2807              	.LASF146:
 2808 026c 67707470 		.ascii	"gptp\000"
 2808      00
 2809              	.LASF118:
 2810 0271 735F636E 		.ascii	"s_cnt\000"
 2810      7400
 2811              	.LASF126:
 2812 0277 4750545F 		.ascii	"GPT_UNINIT\000"
 2812      554E494E 
 2812      495400
 2813              	.LASF137:
 2814 0282 67707466 		.ascii	"gptfreq_t\000"
 2814      7265715F 
 2814      7400
 2815              	.LASF45:
 2816 028c 705F6D70 		.ascii	"p_mpool\000"
 2816      6F6F6C00 
 2817              	.LASF25:
ARM GAS  /tmp/ccOa3Qcu.s 			page 53


 2818 0294 6D73675F 		.ascii	"msg_t\000"
 2818      7400
 2819              	.LASF162:
 2820 029a 5F706F72 		.ascii	"_port_irq_epilogue\000"
 2820      745F6972 
 2820      715F6570 
 2820      696C6F67 
 2820      756500
 2821              	.LASF140:
 2822 02ad 63616C6C 		.ascii	"callback\000"
 2822      6261636B 
 2822      00
 2823              	.LASF143:
 2824 02b6 6770745F 		.ascii	"gpt_lld_init\000"
 2824      6C6C645F 
 2824      696E6974 
 2824      00
 2825              	.LASF105:
 2826 02c3 73746D33 		.ascii	"stm32_tim_t\000"
 2826      325F7469 
 2826      6D5F7400 
 2827              	.LASF53:
 2828 02cf 63685F72 		.ascii	"ch_ready_list\000"
 2828      65616479 
 2828      5F6C6973 
 2828      7400
 2829              	.LASF26:
 2830 02dd 6576656E 		.ascii	"eventmask_t\000"
 2830      746D6173 
 2830      6B5F7400 
 2831              	.LASF8:
 2832 02e9 5F5F696E 		.ascii	"__int32_t\000"
 2832      7433325F 
 2832      7400
 2833              	.LASF93:
 2834 02f3 73746B61 		.ascii	"stkalign_t\000"
 2834      6C69676E 
 2834      5F7400
 2835              	.LASF47:
 2836 02fe 74687265 		.ascii	"threads_list_t\000"
 2836      6164735F 
 2836      6C697374 
 2836      5F7400
 2837              	.LASF40:
 2838 030d 705F7761 		.ascii	"p_waiting\000"
 2838      6974696E 
 2838      6700
 2839              	.LASF80:
 2840 0317 73697A65 		.ascii	"sizetype\000"
 2840      74797065 
 2840      00
 2841              	.LASF46:
 2842 0320 74687265 		.ascii	"thread_reference_t\000"
 2842      61645F72 
 2842      65666572 
 2842      656E6365 
 2842      5F7400
ARM GAS  /tmp/ccOa3Qcu.s 			page 54


 2843              	.LASF69:
 2844 0333 63685F76 		.ascii	"ch_virtual_timers_list\000"
 2844      69727475 
 2844      616C5F74 
 2844      696D6572 
 2844      735F6C69 
 2845              	.LASF111:
 2846 034a 77747472 		.ascii	"wttrp\000"
 2846      7000
 2847              	.LASF128:
 2848 0350 4750545F 		.ascii	"GPT_READY\000"
 2848      52454144 
 2848      5900
 2849              	.LASF30:
 2850 035a 705F6E65 		.ascii	"p_next\000"
 2850      787400
 2851              	.LASF154:
 2852 0361 6770745F 		.ascii	"gpt_lld_stop_timer\000"
 2852      6C6C645F 
 2852      73746F70 
 2852      5F74696D 
 2852      657200
 2853              	.LASF70:
 2854 0374 76745F6C 		.ascii	"vt_lasttime\000"
 2854      61737474 
 2854      696D6500 
 2855              	.LASF35:
 2856 0380 705F6F6C 		.ascii	"p_older\000"
 2856      64657200 
 2857              	.LASF56:
 2858 0388 725F6374 		.ascii	"r_ctx\000"
 2858      7800
 2859              	.LASF107:
 2860 038e 746D5F63 		.ascii	"tm_calibration_t\000"
 2860      616C6962 
 2860      72617469 
 2860      6F6E5F74 
 2860      00
 2861              	.LASF88:
 2862 039f 41484252 		.ascii	"AHBRSTR\000"
 2862      53545200 
 2863              	.LASF59:
 2864 03a7 725F6375 		.ascii	"r_current\000"
 2864      7272656E 
 2864      7400
 2865              	.LASF147:
 2866 03b1 6770745F 		.ascii	"gpt_lld_start_timer\000"
 2866      6C6C645F 
 2866      73746172 
 2866      745F7469 
 2866      6D657200 
 2867              	.LASF13:
 2868 03c5 5F5F7569 		.ascii	"__uint64_t\000"
 2868      6E743634 
 2868      5F7400
 2869              	.LASF150:
 2870 03d0 6770745F 		.ascii	"gpt_lld_serve_interrupt\000"
ARM GAS  /tmp/ccOa3Qcu.s 			page 55


 2870      6C6C645F 
 2870      73657276 
 2870      655F696E 
 2870      74657272 
 2871              	.LASF23:
 2872 03e8 74726566 		.ascii	"trefs_t\000"
 2872      735F7400 
 2873              	.LASF95:
 2874 03f0 706F7274 		.ascii	"port_intctx\000"
 2874      5F696E74 
 2874      63747800 
 2875              	.LASF61:
 2876 03fc 76697274 		.ascii	"virtual_timer_t\000"
 2876      75616C5F 
 2876      74696D65 
 2876      725F7400 
 2877              	.LASF31:
 2878 040c 705F7072 		.ascii	"p_prev\000"
 2878      657600
 2879              	.LASF24:
 2880 0413 74707269 		.ascii	"tprio_t\000"
 2880      6F5F7400 
 2881              	.LASF72:
 2882 041b 63685F73 		.ascii	"ch_system_debug\000"
 2882      79737465 
 2882      6D5F6465 
 2882      62756700 
 2883              	.LASF125:
 2884 042b 5F426F6F 		.ascii	"_Bool\000"
 2884      6C00
 2885              	.LASF17:
 2886 0431 696E7433 		.ascii	"int32_t\000"
 2886      325F7400 
 2887              	.LASF4:
 2888 0439 756E7369 		.ascii	"unsigned char\000"
 2888      676E6564 
 2888      20636861 
 2888      7200
 2889              	.LASF152:
 2890 0447 49544D5F 		.ascii	"ITM_RxBuffer\000"
 2890      52784275 
 2890      66666572 
 2890      00
 2891              	.LASF43:
 2892 0454 705F6D74 		.ascii	"p_mtxlist\000"
 2892      786C6973 
 2892      7400
 2893              	.LASF5:
 2894 045e 73686F72 		.ascii	"short int\000"
 2894      7420696E 
 2894      7400
 2895              	.LASF37:
 2896 0468 705F7374 		.ascii	"p_state\000"
 2896      61746500 
 2897              	.LASF55:
 2898 0470 725F7072 		.ascii	"r_prio\000"
 2898      696F00
ARM GAS  /tmp/ccOa3Qcu.s 			page 56


 2899              	.LASF115:
 2900 0477 65776D61 		.ascii	"ewmask\000"
 2900      736B00
 2901              	.LASF38:
 2902 047e 705F666C 		.ascii	"p_flags\000"
 2902      61677300 
 2903              	.LASF161:
 2904 0486 5F5F6675 		.ascii	"__func__\000"
 2904      6E635F5F 
 2904      00
 2905              	.LASF85:
 2906 048f 41504232 		.ascii	"APB2ENR\000"
 2906      454E5200 
 2907              	.LASF62:
 2908 0497 63685F76 		.ascii	"ch_virtual_timer\000"
 2908      69727475 
 2908      616C5F74 
 2908      696D6572 
 2908      00
 2909              	.LASF116:
 2910 04a8 63685F73 		.ascii	"ch_semaphore\000"
 2910      656D6170 
 2910      686F7265 
 2910      00
 2911              	.LASF104:
 2912 04b5 43435852 		.ascii	"CCXR\000"
 2912      00
 2913              	.LASF42:
 2914 04ba 705F6570 		.ascii	"p_epending\000"
 2914      656E6469 
 2914      6E6700
 2915              	.LASF127:
 2916 04c5 4750545F 		.ascii	"GPT_STOP\000"
 2916      53544F50 
 2916      00
 2917              	.LASF27:
 2918 04ce 636E745F 		.ascii	"cnt_t\000"
 2918      7400
 2919              	.LASF18:
 2920 04d4 75696E74 		.ascii	"uint32_t\000"
 2920      33325F74 
 2920      00
 2921              	.LASF114:
 2922 04dd 77746D74 		.ascii	"wtmtxp\000"
 2922      787000
 2923              	.LASF160:
 2924 04e4 2F6E6673 		.ascii	"/nfs/nfs4/home/cojthack/442FinalProject/milestone3\000"
 2924      2F6E6673 
 2924      342F686F 
 2924      6D652F63 
 2924      6F6A7468 
 2925              	.LASF65:
 2926 0517 76745F64 		.ascii	"vt_delta\000"
 2926      656C7461 
 2926      00
 2927              	.LASF49:
 2928 0520 63685F74 		.ascii	"ch_threads_list\000"
ARM GAS  /tmp/ccOa3Qcu.s 			page 57


 2928      68726561 
 2928      64735F6C 
 2928      69737400 
 2929              	.LASF11:
 2930 0530 6C6F6E67 		.ascii	"long unsigned int\000"
 2930      20756E73 
 2930      69676E65 
 2930      6420696E 
 2930      7400
 2931              	.LASF123:
 2932 0542 63686172 		.ascii	"char\000"
 2932      00
 2933              	.LASF6:
 2934 0547 5F5F7569 		.ascii	"__uint16_t\000"
 2934      6E743136 
 2934      5F7400
 2935              	.LASF96:
 2936 0552 534D4352 		.ascii	"SMCR\000"
 2936      00
 2937              	.LASF134:
 2938 0557 636F6E66 		.ascii	"config\000"
 2938      696700
 2939              	.LASF102:
 2940 055e 444D4152 		.ascii	"DMAR\000"
 2940      00
 2941              	.LASF29:
 2942 0563 74687265 		.ascii	"thread_t\000"
 2942      61645F74 
 2942      00
 2943              	.LASF158:
 2944 056c 474E5520 		.ascii	"GNU C 4.8.4 20140526 (release) [ARM/embedded-4_8-br"
 2944      4320342E 
 2944      382E3420 
 2944      32303134 
 2944      30353236 
 2945 059f 616E6368 		.ascii	"anch revision 211358] -mcpu=cortex-m4 -mno-thumb-in"
 2945      20726576 
 2945      6973696F 
 2945      6E203231 
 2945      31333538 
 2946 05d2 74657277 		.ascii	"terwork -mthumb -ggdb -O2 -fomit-frame-pointer -fal"
 2946      6F726B20 
 2946      2D6D7468 
 2946      756D6220 
 2946      2D676764 
 2947 0605 69676E2D 		.ascii	"ign-functions=16 -ffunction-sections -fdata-section"
 2947      66756E63 
 2947      74696F6E 
 2947      733D3136 
 2947      202D6666 
 2948 0638 73202D66 		.ascii	"s -fno-common\000"
 2948      6E6F2D63 
 2948      6F6D6D6F 
 2948      6E00
 2949              	.LASF122:
 2950 0646 6D5F6E65 		.ascii	"m_next\000"
 2950      787400
ARM GAS  /tmp/ccOa3Qcu.s 			page 58


 2951              	.LASF28:
 2952 064d 73797374 		.ascii	"systime_t\000"
 2952      696D655F 
 2952      7400
 2953              	.LASF44:
 2954 0657 705F7265 		.ascii	"p_realprio\000"
 2954      616C7072 
 2954      696F00
 2955              	.LASF60:
 2956 0662 76746675 		.ascii	"vtfunc_t\000"
 2956      6E635F74 
 2956      00
 2957              	.LASF10:
 2958 066b 5F5F7569 		.ascii	"__uint32_t\000"
 2958      6E743332 
 2958      5F7400
 2959              	.LASF73:
 2960 0676 70616E69 		.ascii	"panic_msg\000"
 2960      635F6D73 
 2960      6700
 2961              	.LASF106:
 2962 0680 6F666673 		.ascii	"offset\000"
 2962      657400
 2963              	.LASF86:
 2964 0687 41504231 		.ascii	"APB1ENR\000"
 2964      454E5200 
 2965              	.LASF142:
 2966 068f 47505443 		.ascii	"GPTConfig\000"
 2966      6F6E6669 
 2966      6700
 2967              	.LASF94:
 2968 0699 636F6E74 		.ascii	"context\000"
 2968      65787400 
 2969              	.LASF58:
 2970 06a1 725F6F6C 		.ascii	"r_older\000"
 2970      64657200 
 2971              	.LASF74:
 2972 06a9 63685F73 		.ascii	"ch_system_t\000"
 2972      79737465 
 2972      6D5F7400 
 2973              	.LASF159:
 2974 06b5 2E2E2F43 		.ascii	"../ChibiOS/os/hal/ports/STM32/LLD/TIMv1/gpt_lld.c\000"
 2974      68696269 
 2974      4F532F6F 
 2974      732F6861 
 2974      6C2F706F 
 2975              	.LASF20:
 2976 06e7 7274636E 		.ascii	"rtcnt_t\000"
 2976      745F7400 
 2977              	.LASF144:
 2978 06ef 6770745F 		.ascii	"gpt_lld_start\000"
 2978      6C6C645F 
 2978      73746172 
 2978      7400
 2979              	.LASF67:
 2980 06fd 76745F70 		.ascii	"vt_par\000"
 2980      617200
ARM GAS  /tmp/ccOa3Qcu.s 			page 59


 2981              	.LASF50:
 2982 0704 74687265 		.ascii	"threads_queue_t\000"
 2982      6164735F 
 2982      71756575 
 2982      655F7400 
 2983              	.LASF119:
 2984 0714 63685F6D 		.ascii	"ch_mutex\000"
 2984      75746578 
 2984      00
 2985              	.LASF39:
 2986 071d 705F7265 		.ascii	"p_refs\000"
 2986      667300
 2987              	.LASF145:
 2988 0724 6770745F 		.ascii	"gpt_lld_stop\000"
 2988      6C6C645F 
 2988      73746F70 
 2988      00
 2989              	.LASF87:
 2990 0731 42444352 		.ascii	"BDCR\000"
 2990      00
 2991              	.LASF76:
 2992 0736 726C6973 		.ascii	"rlist\000"
 2992      7400
 2993              	.LASF89:
 2994 073c 43464752 		.ascii	"CFGR2\000"
 2994      3200
 2995              	.LASF90:
 2996 0742 43464752 		.ascii	"CFGR3\000"
 2996      3300
 2997              	.LASF15:
 2998 0748 75696E74 		.ascii	"uint8_t\000"
 2998      385F7400 
 2999              	.LASF110:
 3000 0750 77746F62 		.ascii	"wtobjp\000"
 3000      6A7000
 3001              	.LASF36:
 3002 0757 705F6E61 		.ascii	"p_name\000"
 3002      6D6500
 3003              	.LASF81:
 3004 075e 43464752 		.ascii	"CFGR\000"
 3004      00
 3005              	.LASF21:
 3006 0763 746D6F64 		.ascii	"tmode_t\000"
 3006      655F7400 
 3007              	.LASF135:
 3008 076b 636C6F63 		.ascii	"clock\000"
 3008      6B00
 3009              	.LASF121:
 3010 0771 6D5F6F77 		.ascii	"m_owner\000"
 3010      6E657200 
 3011              	.LASF33:
 3012 0779 705F6374 		.ascii	"p_ctx\000"
 3012      7800
 3013              	.LASF66:
 3014 077f 76745F66 		.ascii	"vt_func\000"
 3014      756E6300 
 3015              	.LASF84:
ARM GAS  /tmp/ccOa3Qcu.s 			page 60


 3016 0787 41484245 		.ascii	"AHBENR\000"
 3016      4E5200
 3017              	.LASF141:
 3018 078e 64696572 		.ascii	"dier\000"
 3018      00
 3019              		.ident	"GCC: (GNU Tools for ARM Embedded Processors) 4.8.4 20140526 (release) [ARM/embedded-4_8-br
ARM GAS  /tmp/ccOa3Qcu.s 			page 61


DEFINED SYMBOLS
                            *ABS*:00000000 gpt_lld.c
     /tmp/ccOa3Qcu.s:19     .text.gpt_lld_init:00000000 $t
     /tmp/ccOa3Qcu.s:25     .text.gpt_lld_init:00000000 gpt_lld_init
     /tmp/ccOa3Qcu.s:43     .text.gpt_lld_init:0000000c $d
     /tmp/ccOa3Qcu.s:49     .text.gpt_lld_start:00000000 $t
     /tmp/ccOa3Qcu.s:55     .text.gpt_lld_start:00000000 gpt_lld_start
     /tmp/ccOa3Qcu.s:141    .text.gpt_lld_start:0000005c $d
     /tmp/ccOa3Qcu.s:148    .text.gpt_lld_stop:00000000 $t
     /tmp/ccOa3Qcu.s:154    .text.gpt_lld_stop:00000000 gpt_lld_stop
     /tmp/ccOa3Qcu.s:203    .text.gpt_lld_stop:0000002c $d
     /tmp/ccOa3Qcu.s:209    .text.gpt_lld_start_timer:00000000 $t
     /tmp/ccOa3Qcu.s:215    .text.gpt_lld_start_timer:00000000 gpt_lld_start_timer
     /tmp/ccOa3Qcu.s:260    .text.gpt_lld_stop_timer:00000000 $t
     /tmp/ccOa3Qcu.s:266    .text.gpt_lld_stop_timer:00000000 gpt_lld_stop_timer
     /tmp/ccOa3Qcu.s:289    .text.gpt_lld_polled_delay:00000000 $t
     /tmp/ccOa3Qcu.s:295    .text.gpt_lld_polled_delay:00000000 gpt_lld_polled_delay
     /tmp/ccOa3Qcu.s:331    .text.gpt_lld_serve_interrupt:00000000 $t
     /tmp/ccOa3Qcu.s:337    .text.gpt_lld_serve_interrupt:00000000 gpt_lld_serve_interrupt
     /tmp/ccOa3Qcu.s:388    .text.VectorA4:00000000 $t
     /tmp/ccOa3Qcu.s:394    .text.VectorA4:00000000 VectorA4
     /tmp/ccOa3Qcu.s:416    .text.VectorA4:00000010 $d
     /tmp/ccOa3Qcu.s:426    .bss.GPTD1:00000000 GPTD1
     /tmp/ccOa3Qcu.s:422    .bss.GPTD1:00000000 $d
                     .debug_frame:00000010 $d
     /tmp/ccOa3Qcu.s:48     .text.gpt_lld_init:00000014 $t
     /tmp/ccOa3Qcu.s:147    .text.gpt_lld_start:00000068 $t
     /tmp/ccOa3Qcu.s:208    .text.gpt_lld_stop:00000034 $t
     /tmp/ccOa3Qcu.s:421    .text.VectorA4:00000014 $t

UNDEFINED SYMBOLS
gptObjectInit
nvicEnableVector
nvicDisableVector
_port_irq_epilogue
