ARM GAS  /tmp/ccOa3Qcu.s 			page 1


   1              		.syntax unified
   2              		.cpu cortex-m4
   3              		.fpu softvfp
   4              		.eabi_attribute 20, 1
   5              		.eabi_attribute 21, 1
   6              		.eabi_attribute 23, 3
   7              		.eabi_attribute 24, 1
   8              		.eabi_attribute 25, 1
   9              		.eabi_attribute 26, 1
  10              		.eabi_attribute 30, 2
  11              		.eabi_attribute 34, 1
  12              		.eabi_attribute 18, 4
  13              		.thumb
  14              		.file	"gpt_lld.c"
  15              		.text
  16              	.Ltext0:
  17              		.cfi_sections	.debug_frame
  18              		.section	.text.gpt_lld_init,"ax",%progbits
  19              		.align	2
  20              		.p2align 4,,15
  21              		.global	gpt_lld_init
  22              		.thumb
  23              		.thumb_func
  24              		.type	gpt_lld_init, %function
  25              	gpt_lld_init:
  26              	.LFB273:
  27              		.file 1 "../ChibiOS/os/hal/ports/STM32/LLD/TIMv1/gpt_lld.c"
  28              		.loc 1 406 0
  29              		.cfi_startproc
  30              		@ args = 0, pretend = 0, frame = 0
  31              		@ frame_needed = 0, uses_anonymous_args = 0
  32              		@ link register save eliminated.
  33              		.loc 1 410 0
  34 0000 0248     		ldr	r0, .L2
  35 0002 034B     		ldr	r3, .L2+4
  36 0004 C360     		str	r3, [r0, #12]
  37              		.loc 1 411 0
  38 0006 FFF7FEBF 		b	gptObjectInit
  39              	.LVL0:
  40              	.L3:
  41 000a 00BF     		.align	2
  42              	.L2:
  43 000c 00000000 		.word	.LANCHOR0
  44 0010 002C0140 		.word	1073818624
  45              		.cfi_endproc
  46              	.LFE273:
  47              		.size	gpt_lld_init, .-gpt_lld_init
  48 0014 AFF30080 		.section	.text.gpt_lld_start,"ax",%progbits
  48      AFF30080 
  48      AFF30080 
  49              		.align	2
  50              		.p2align 4,,15
  51              		.global	gpt_lld_start
  52              		.thumb
  53              		.thumb_func
  54              		.type	gpt_lld_start, %function
  55              	gpt_lld_start:
ARM GAS  /tmp/ccOa3Qcu.s 			page 2


  56              	.LFB274:
  57              		.loc 1 488 0
  58              		.cfi_startproc
  59              		@ args = 0, pretend = 0, frame = 0
  60              		@ frame_needed = 0, uses_anonymous_args = 0
  61              	.LVL1:
  62 0000 38B5     		push	{r3, r4, r5, lr}
  63              		.cfi_def_cfa_offset 16
  64              		.cfi_offset 3, -16
  65              		.cfi_offset 4, -12
  66              		.cfi_offset 5, -8
  67              		.cfi_offset 14, -4
  68              		.loc 1 491 0
  69 0002 0378     		ldrb	r3, [r0]	@ zero_extendqisi2
  70 0004 012B     		cmp	r3, #1
  71              		.loc 1 488 0
  72 0006 0446     		mov	r4, r0
  73              		.loc 1 491 0
  74 0008 12D0     		beq	.L7
  75              	.LVL2:
  76              	.L5:
  77              		.loc 1 675 0
  78 000a 6268     		ldr	r2, [r4, #4]
  79 000c A568     		ldr	r5, [r4, #8]
  80 000e 1068     		ldr	r0, [r2]
  81              		.loc 1 684 0
  82 0010 D168     		ldr	r1, [r2, #12]
  83              		.loc 1 680 0
  84 0012 E368     		ldr	r3, [r4, #12]
  85              		.loc 1 681 0
  86 0014 9468     		ldr	r4, [r2, #8]
  87              	.LVL3:
  88              		.loc 1 675 0
  89 0016 B5FBF0F0 		udiv	r0, r5, r0
  90 001a 0138     		subs	r0, r0, #1
  91              		.loc 1 680 0
  92 001c 0022     		movs	r2, #0
  93              		.loc 1 675 0
  94 001e 80B2     		uxth	r0, r0
  95              	.LVL4:
  96              		.loc 1 684 0
  97 0020 21F0FF01 		bic	r1, r1, #255
  98              		.loc 1 680 0
  99 0024 1A60     		str	r2, [r3]
 100              		.loc 1 681 0
 101 0026 5C60     		str	r4, [r3, #4]
 102              		.loc 1 682 0
 103 0028 9862     		str	r0, [r3, #40]
 104              		.loc 1 683 0
 105 002a 1A61     		str	r2, [r3, #16]
 106              		.loc 1 684 0
 107 002c D960     		str	r1, [r3, #12]
 108 002e 38BD     		pop	{r3, r4, r5, pc}
 109              	.LVL5:
 110              	.L7:
 111              		.loc 1 494 0
 112 0030 0A4B     		ldr	r3, .L8
ARM GAS  /tmp/ccOa3Qcu.s 			page 3


 113 0032 9842     		cmp	r0, r3
 114 0034 E9D1     		bne	.L5
 115              		.loc 1 495 0
 116 0036 0A4B     		ldr	r3, .L8+4
 117 0038 9A69     		ldr	r2, [r3, #24]
 118 003a 42F40062 		orr	r2, r2, #2048
 119 003e 9A61     		str	r2, [r3, #24]
 120              		.loc 1 496 0
 121 0040 D968     		ldr	r1, [r3, #12]
 122 0042 0022     		movs	r2, #0
 123 0044 41F40061 		orr	r1, r1, #2048
 124 0048 D960     		str	r1, [r3, #12]
 125              		.loc 1 498 0
 126 004a 1920     		movs	r0, #25
 127              	.LVL6:
 128              		.loc 1 496 0
 129 004c DA60     		str	r2, [r3, #12]
 130              		.loc 1 498 0
 131 004e 0721     		movs	r1, #7
 132 0050 FFF7FEFF 		bl	nvicEnableVector
 133              	.LVL7:
 134              		.loc 1 501 0
 135 0054 034B     		ldr	r3, .L8+8
 136 0056 A360     		str	r3, [r4, #8]
 137 0058 D7E7     		b	.L5
 138              	.L9:
 139 005a 00BF     		.align	2
 140              	.L8:
 141 005c 00000000 		.word	.LANCHOR0
 142 0060 00100240 		.word	1073876992
 143 0064 00A24A04 		.word	72000000
 144              		.cfi_endproc
 145              	.LFE274:
 146              		.size	gpt_lld_start, .-gpt_lld_start
 147 0068 AFF30080 		.section	.text.gpt_lld_stop,"ax",%progbits
 147      AFF30080 
 148              		.align	2
 149              		.p2align 4,,15
 150              		.global	gpt_lld_stop
 151              		.thumb
 152              		.thumb_func
 153              		.type	gpt_lld_stop, %function
 154              	gpt_lld_stop:
 155              	.LFB275:
 156              		.loc 1 695 0
 157              		.cfi_startproc
 158              		@ args = 0, pretend = 0, frame = 0
 159              		@ frame_needed = 0, uses_anonymous_args = 0
 160              	.LVL8:
 161 0000 08B5     		push	{r3, lr}
 162              		.cfi_def_cfa_offset 8
 163              		.cfi_offset 3, -8
 164              		.cfi_offset 14, -4
 165              		.loc 1 697 0
 166 0002 0378     		ldrb	r3, [r0]	@ zero_extendqisi2
 167 0004 022B     		cmp	r3, #2
 168 0006 00D0     		beq	.L14
ARM GAS  /tmp/ccOa3Qcu.s 			page 4


 169              	.LVL9:
 170              	.L10:
 171 0008 08BD     		pop	{r3, pc}
 172              	.LVL10:
 173              	.L14:
 174              		.loc 1 703 0
 175 000a 0849     		ldr	r1, .L15
 176              		.loc 1 698 0
 177 000c C368     		ldr	r3, [r0, #12]
 178 000e 0022     		movs	r2, #0
 179              		.loc 1 703 0
 180 0010 8842     		cmp	r0, r1
 181              		.loc 1 698 0
 182 0012 1A60     		str	r2, [r3]
 183              		.loc 1 699 0
 184 0014 DA60     		str	r2, [r3, #12]
 185              		.loc 1 700 0
 186 0016 1A61     		str	r2, [r3, #16]
 187              		.loc 1 703 0
 188 0018 F6D1     		bne	.L10
 189              		.loc 1 705 0
 190 001a 1920     		movs	r0, #25
 191              	.LVL11:
 192 001c FFF7FEFF 		bl	nvicDisableVector
 193              	.LVL12:
 194              		.loc 1 707 0
 195 0020 034B     		ldr	r3, .L15+4
 196 0022 9A69     		ldr	r2, [r3, #24]
 197 0024 22F40062 		bic	r2, r2, #2048
 198 0028 9A61     		str	r2, [r3, #24]
 199 002a EDE7     		b	.L10
 200              	.L16:
 201              		.align	2
 202              	.L15:
 203 002c 00000000 		.word	.LANCHOR0
 204 0030 00100240 		.word	1073876992
 205              		.cfi_endproc
 206              	.LFE275:
 207              		.size	gpt_lld_stop, .-gpt_lld_stop
 208 0034 AFF30080 		.section	.text.gpt_lld_start_timer,"ax",%progbits
 208      AFF30080 
 208      AFF30080 
 209              		.align	2
 210              		.p2align 4,,15
 211              		.global	gpt_lld_start_timer
 212              		.thumb
 213              		.thumb_func
 214              		.type	gpt_lld_start_timer, %function
 215              	gpt_lld_start_timer:
 216              	.LFB276:
 217              		.loc 1 820 0
 218              		.cfi_startproc
 219              		@ args = 0, pretend = 0, frame = 0
 220              		@ frame_needed = 0, uses_anonymous_args = 0
 221              		@ link register save eliminated.
 222              	.LVL13:
 223              		.loc 1 830 0
ARM GAS  /tmp/ccOa3Qcu.s 			page 5


 224 0000 4268     		ldr	r2, [r0, #4]
 225              		.loc 1 822 0
 226 0002 C368     		ldr	r3, [r0, #12]
 227              		.loc 1 830 0
 228 0004 5068     		ldr	r0, [r2, #4]
 229              	.LVL14:
 230              		.loc 1 822 0
 231 0006 0139     		subs	r1, r1, #1
 232              	.LVL15:
 233 0008 D962     		str	r1, [r3, #44]
 234              		.loc 1 824 0
 235 000a 0022     		movs	r2, #0
 236              		.loc 1 823 0
 237 000c 0121     		movs	r1, #1
 238              	.LVL16:
 239 000e 5961     		str	r1, [r3, #20]
 240              	.LVL17:
 241              		.loc 1 824 0
 242 0010 5A62     		str	r2, [r3, #36]
 243              		.loc 1 829 0
 244 0012 1A61     		str	r2, [r3, #16]
 245              		.loc 1 830 0
 246 0014 10B1     		cbz	r0, .L18
 247              		.loc 1 831 0
 248 0016 DA68     		ldr	r2, [r3, #12]
 249 0018 0A43     		orrs	r2, r2, r1
 250 001a DA60     		str	r2, [r3, #12]
 251              	.L18:
 252              		.loc 1 832 0
 253 001c 0522     		movs	r2, #5
 254 001e 1A60     		str	r2, [r3]
 255 0020 7047     		bx	lr
 256              		.cfi_endproc
 257              	.LFE276:
 258              		.size	gpt_lld_start_timer, .-gpt_lld_start_timer
 259 0022 00BFAFF3 		.section	.text.gpt_lld_stop_timer,"ax",%progbits
 259      0080AFF3 
 259      0080AFF3 
 259      0080
 260              		.align	2
 261              		.p2align 4,,15
 262              		.global	gpt_lld_stop_timer
 263              		.thumb
 264              		.thumb_func
 265              		.type	gpt_lld_stop_timer, %function
 266              	gpt_lld_stop_timer:
 267              	.LFB277:
 268              		.loc 1 842 0
 269              		.cfi_startproc
 270              		@ args = 0, pretend = 0, frame = 0
 271              		@ frame_needed = 0, uses_anonymous_args = 0
 272              		@ link register save eliminated.
 273              	.LVL18:
 274              		.loc 1 844 0
 275 0000 C368     		ldr	r3, [r0, #12]
 276 0002 0022     		movs	r2, #0
 277 0004 1A60     		str	r2, [r3]
ARM GAS  /tmp/ccOa3Qcu.s 			page 6


 278              		.loc 1 845 0
 279 0006 1A61     		str	r2, [r3, #16]
 280              		.loc 1 848 0
 281 0008 DA68     		ldr	r2, [r3, #12]
 282 000a 22F0FF02 		bic	r2, r2, #255
 283 000e DA60     		str	r2, [r3, #12]
 284 0010 7047     		bx	lr
 285              		.cfi_endproc
 286              	.LFE277:
 287              		.size	gpt_lld_stop_timer, .-gpt_lld_stop_timer
 288 0012 00BFAFF3 		.section	.text.gpt_lld_polled_delay,"ax",%progbits
 288      0080AFF3 
 288      0080AFF3 
 288      0080
 289              		.align	2
 290              		.p2align 4,,15
 291              		.global	gpt_lld_polled_delay
 292              		.thumb
 293              		.thumb_func
 294              		.type	gpt_lld_polled_delay, %function
 295              	gpt_lld_polled_delay:
 296              	.LFB278:
 297              		.loc 1 862 0
 298              		.cfi_startproc
 299              		@ args = 0, pretend = 0, frame = 0
 300              		@ frame_needed = 0, uses_anonymous_args = 0
 301              		@ link register save eliminated.
 302              	.LVL19:
 303              		.loc 1 864 0
 304 0000 C268     		ldr	r2, [r0, #12]
 305 0002 0139     		subs	r1, r1, #1
 306              	.LVL20:
 307              		.loc 1 865 0
 308 0004 0120     		movs	r0, #1
 309              	.LVL21:
 310              		.loc 1 866 0
 311 0006 0D23     		movs	r3, #13
 312              		.loc 1 864 0
 313 0008 D162     		str	r1, [r2, #44]
 314              		.loc 1 865 0
 315 000a 5061     		str	r0, [r2, #20]
 316              		.loc 1 866 0
 317 000c 1360     		str	r3, [r2]
 318              	.L25:
 319              		.loc 1 867 0 discriminator 1
 320 000e 1369     		ldr	r3, [r2, #16]
 321 0010 DB07     		lsls	r3, r3, #31
 322 0012 FCD5     		bpl	.L25
 323              		.loc 1 869 0
 324 0014 0023     		movs	r3, #0
 325 0016 1361     		str	r3, [r2, #16]
 326 0018 7047     		bx	lr
 327              		.cfi_endproc
 328              	.LFE278:
 329              		.size	gpt_lld_polled_delay, .-gpt_lld_polled_delay
 330              		.section	.text.gpt_lld_serve_interrupt,"ax",%progbits
 331              		.align	2
ARM GAS  /tmp/ccOa3Qcu.s 			page 7


 332              		.p2align 4,,15
 333              		.global	gpt_lld_serve_interrupt
 334              		.thumb
 335              		.thumb_func
 336              		.type	gpt_lld_serve_interrupt, %function
 337              	gpt_lld_serve_interrupt:
 338              	.LFB279:
 339              		.loc 1 879 0
 340              		.cfi_startproc
 341              		@ args = 0, pretend = 0, frame = 0
 342              		@ frame_needed = 0, uses_anonymous_args = 0
 343              	.LVL22:
 344              		.loc 1 882 0
 345 0000 0178     		ldrb	r1, [r0]	@ zero_extendqisi2
 346              		.loc 1 879 0
 347 0002 08B5     		push	{r3, lr}
 348              		.cfi_def_cfa_offset 8
 349              		.cfi_offset 3, -8
 350              		.cfi_offset 14, -4
 351              		.loc 1 881 0
 352 0004 C368     		ldr	r3, [r0, #12]
 353 0006 0022     		movs	r2, #0
 354              		.loc 1 882 0
 355 0008 0429     		cmp	r1, #4
 356              		.loc 1 881 0
 357 000a 1A61     		str	r2, [r3, #16]
 358              		.loc 1 882 0
 359 000c 07D1     		bne	.L27
 360              		.loc 1 883 0
 361 000e 0221     		movs	r1, #2
 362 0010 0170     		strb	r1, [r0]
 363              	.LVL23:
 364              	.LBB4:
 365              	.LBB5:
 366              		.loc 1 844 0
 367 0012 1A60     		str	r2, [r3]
 368              		.loc 1 845 0
 369 0014 1A61     		str	r2, [r3, #16]
 370              		.loc 1 848 0
 371 0016 DA68     		ldr	r2, [r3, #12]
 372 0018 22F0FF02 		bic	r2, r2, #255
 373 001c DA60     		str	r2, [r3, #12]
 374              	.LVL24:
 375              	.L27:
 376              	.LBE5:
 377              	.LBE4:
 378              		.loc 1 886 0
 379 001e 4368     		ldr	r3, [r0, #4]
 380 0020 5B68     		ldr	r3, [r3, #4]
 381 0022 9847     		blx	r3
 382              	.LVL25:
 383 0024 08BD     		pop	{r3, pc}
 384              		.cfi_endproc
 385              	.LFE279:
 386              		.size	gpt_lld_serve_interrupt, .-gpt_lld_serve_interrupt
 387 0026 00BFAFF3 		.section	.text.VectorA4,"ax",%progbits
 387      0080AFF3 
ARM GAS  /tmp/ccOa3Qcu.s 			page 8


 387      0080
 388              		.align	2
 389              		.p2align 4,,15
 390              		.global	VectorA4
 391              		.thumb
 392              		.thumb_func
 393              		.type	VectorA4, %function
 394              	VectorA4:
 395              	.LFB272:
 396              		.loc 1 155 0
 397              		.cfi_startproc
 398              		@ args = 0, pretend = 0, frame = 0
 399              		@ frame_needed = 0, uses_anonymous_args = 0
 400 0000 08B5     		push	{r3, lr}
 401              		.cfi_def_cfa_offset 8
 402              		.cfi_offset 3, -8
 403              		.cfi_offset 14, -4
 404              		.loc 1 159 0
 405 0002 0348     		ldr	r0, .L29
 406 0004 FFF7FEFF 		bl	gpt_lld_serve_interrupt
 407              	.LVL26:
 408              		.loc 1 162 0
 409 0008 BDE80840 		pop	{r3, lr}
 410              		.loc 1 161 0
 411 000c FFF7FEBF 		b	_port_irq_epilogue
 412              	.LVL27:
 413              	.L30:
 414              		.align	2
 415              	.L29:
 416 0010 00000000 		.word	.LANCHOR0
 417              		.cfi_endproc
 418              	.LFE272:
 419              		.size	VectorA4, .-VectorA4
 420              		.global	GPTD1
 421 0014 AFF30080 		.section	.bss.GPTD1,"aw",%nobits
 421      AFF30080 
 421      AFF30080 
 422              		.align	2
 423              		.set	.LANCHOR0,. + 0
 424              		.type	GPTD1, %object
 425              		.size	GPTD1, 16
 426              	GPTD1:
 427 0000 00000000 		.space	16
 427      00000000 
 427      00000000 
 427      00000000 
 428              		.text
 429              	.Letext0:
 430              		.file 2 "/nfs/nfs5/home/research/hardware/arm2/gcc-arm-embedded/gcc-arm-none-eabi-4_8-2014q2/lib/g
 431              		.file 3 "/nfs/nfs5/home/research/hardware/arm2/gcc-arm-embedded/gcc-arm-none-eabi-4_8-2014q2/arm-n
 432              		.file 4 "/nfs/nfs5/home/research/hardware/arm2/gcc-arm-embedded/gcc-arm-none-eabi-4_8-2014q2/arm-n
 433              		.file 5 "../ChibiOS/os/rt/ports/ARMCMx/compilers/GCC/chtypes.h"
 434              		.file 6 "../ChibiOS/os/rt/include/chsystypes.h"
 435              		.file 7 "../ChibiOS/os/rt/include/chschd.h"
 436              		.file 8 "../ChibiOS/os/ext/CMSIS/ST/STM32F3xx/stm32f303xc.h"
 437              		.file 9 "../ChibiOS/os/rt/ports/ARMCMx/chcore.h"
 438              		.file 10 "../ChibiOS/os/rt/ports/ARMCMx/chcore_v7m.h"
ARM GAS  /tmp/ccOa3Qcu.s 			page 9


 439              		.file 11 "../ChibiOS/os/hal/ports/STM32/LLD/TIMv1/stm32_tim.h"
 440              		.file 12 "../ChibiOS/os/rt/include/chtm.h"
 441              		.file 13 "../ChibiOS/os/rt/include/chsem.h"
 442              		.file 14 "../ChibiOS/os/rt/include/chmtx.h"
 443              		.file 15 "../ChibiOS/os/hal/include/gpt.h"
 444              		.file 16 "../ChibiOS/os/hal/ports/STM32/LLD/TIMv1/gpt_lld.h"
 445              		.file 17 "../ChibiOS/os/ext/CMSIS/include/core_cm4.h"
 446              		.file 18 "../ChibiOS/os/hal/ports/common/ARMCMx/nvic.h"