ARM GAS  /tmp/ccGIKGrc.s 			page 1


   1              		.syntax unified
   2              		.cpu cortex-m4
   3              		.fpu softvfp
   4              		.eabi_attribute 20, 1
   5              		.eabi_attribute 21, 1
   6              		.eabi_attribute 23, 3
   7              		.eabi_attribute 24, 1
   8              		.eabi_attribute 25, 1
   9              		.eabi_attribute 26, 1
  10              		.eabi_attribute 30, 2
  11              		.eabi_attribute 34, 1
  12              		.eabi_attribute 18, 4
  13              		.thumb
  14              		.file	"main.c"
  15              		.text
  16              	.Ltext0:
  17              		.cfi_sections	.debug_frame
  18              		.section	.text.termination_handler,"ax",%progbits
  19              		.align	2
  20              		.p2align 4,,15
  21              		.thumb
  22              		.thumb_func
  23              		.type	termination_handler, %function
  24              	termination_handler:
  25              	.LFB280:
  26              		.file 1 "main.c"
  27              		.loc 1 419 0
  28              		.cfi_startproc
  29              		@ args = 0, pretend = 0, frame = 0
  30              		@ frame_needed = 0, uses_anonymous_args = 0
  31              	.LVL0:
  32 0000 10B5     		push	{r4, lr}
  33              		.cfi_def_cfa_offset 8
  34              		.cfi_offset 4, -8
  35              		.cfi_offset 14, -4
  36              		.loc 1 424 0
  37 0002 0E4C     		ldr	r4, .L8
  38              		.loc 1 422 0
  39 0004 0E48     		ldr	r0, .L8+4
  40              	.LVL1:
  41 0006 0F49     		ldr	r1, .L8+8
  42 0008 FFF7FEFF 		bl	chprintf
  43              	.LVL2:
  44              		.loc 1 424 0
  45 000c 2068     		ldr	r0, [r4]
  46 000e 10B1     		cbz	r0, .L1
  47              	.LVL3:
  48              		.loc 1 424 0 is_stmt 0 discriminator 1
  49 0010 037F     		ldrb	r3, [r0, #28]	@ zero_extendqisi2
  50 0012 0F2B     		cmp	r3, #15
  51 0014 00D0     		beq	.L7
  52              	.LVL4:
  53              	.L1:
  54 0016 10BD     		pop	{r4, pc}
  55              	.LVL5:
  56              	.L7:
  57              		.loc 1 425 0 is_stmt 1
ARM GAS  /tmp/ccGIKGrc.s 			page 2


  58 0018 FFF7FEFF 		bl	chThdWait
  59              	.LVL6:
  60              		.loc 1 426 0
  61 001c 0A49     		ldr	r1, .L8+12
  62 001e 0848     		ldr	r0, .L8+4
  63 0020 FFF7FEFF 		bl	chprintf
  64              	.LVL7:
  65              		.loc 1 427 0
  66 0024 4FF47A70 		mov	r0, #1000
  67 0028 FFF7FEFF 		bl	chThdSleep
  68              	.LVL8:
  69              		.loc 1 428 0
  70 002c 0748     		ldr	r0, .L8+16
  71 002e 40F6C801 		movw	r1, #2248
  72 0032 4022     		movs	r2, #64
  73 0034 FFF7FEFF 		bl	shellCreate
  74              	.LVL9:
  75 0038 2060     		str	r0, [r4]
  76 003a 10BD     		pop	{r4, pc}
  77              	.L9:
  78              		.align	2
  79              	.L8:
  80 003c 00000000 		.word	.LANCHOR0
  81 0040 00000000 		.word	SD1
  82 0044 00000000 		.word	.LC0
  83 0048 10000000 		.word	.LC1
  84 004c 00000000 		.word	.LANCHOR1
  85              		.cfi_endproc
  86              	.LFE280:
  87              		.size	termination_handler, .-termination_handler
  88              		.section	.text.counterThread,"ax",%progbits
  89              		.align	2
  90              		.p2align 4,,15
  91              		.thumb
  92              		.thumb_func
  93              		.type	counterThread, %function
  94              	counterThread:
  95              	.LFB273:
  96              		.loc 1 172 0
  97              		.cfi_startproc
  98              		@ Volatile: function does not return.
  99              		@ args = 0, pretend = 0, frame = 0
 100              		@ frame_needed = 0, uses_anonymous_args = 0
 101              	.LVL10:
 102 0000 08B5     		push	{r3, lr}
 103              		.cfi_def_cfa_offset 8
 104              		.cfi_offset 3, -8
 105              		.cfi_offset 14, -4
 106              		.loc 1 175 0
 107 0002 4FF40075 		mov	r5, #512
 108 0006 064C     		ldr	r4, .L12
 109 0008 2E46     		mov	r6, r5	@ movhi
 110              	.LVL11:
 111              	.L11:
 112              		.loc 1 175 0 is_stmt 0 discriminator 1
 113 000a 2683     		strh	r6, [r4, #24]	@ movhi
 114              		.loc 1 176 0 is_stmt 1 discriminator 1
ARM GAS  /tmp/ccGIKGrc.s 			page 3


 115 000c 41F28830 		movw	r0, #5000
 116 0010 FFF7FEFF 		bl	chThdSleep
 117              	.LVL12:
 118              		.loc 1 177 0 discriminator 1
 119 0014 6583     		strh	r5, [r4, #26]	@ movhi
 120              		.loc 1 178 0 discriminator 1
 121 0016 41F28830 		movw	r0, #5000
 122 001a FFF7FEFF 		bl	chThdSleep
 123              	.LVL13:
 124 001e F4E7     		b	.L11
 125              	.L13:
 126              		.align	2
 127              	.L12:
 128 0020 00100048 		.word	1207963648
 129              		.cfi_endproc
 130              	.LFE273:
 131              		.size	counterThread, .-counterThread
 132 0024 AFF30080 		.section	.text.collector,"ax",%progbits
 132      AFF30080 
 132      AFF30080 
 133              		.align	2
 134              		.p2align 4,,15
 135              		.thumb
 136              		.thumb_func
 137              		.type	collector, %function
 138              	collector:
 139              	.LFB275:
 140              		.loc 1 195 0
 141              		.cfi_startproc
 142              		@ args = 0, pretend = 0, frame = 0
 143              		@ frame_needed = 0, uses_anonymous_args = 0
 144              		.loc 1 197 0
 145 0000 3A4A     		ldr	r2, .L23
 146              		.loc 1 200 0
 147 0002 3B48     		ldr	r0, .L23+4
 148              	.LBB26:
 149              	.LBB27:
 150              		.loc 1 185 0
 151 0004 3B4B     		ldr	r3, .L23+8
 152              	.LBE27:
 153              	.LBE26:
 154              		.loc 1 201 0
 155 0006 4188     		ldrh	r1, [r0, #2]
 156              		.loc 1 195 0
 157 0008 2DE9F047 		push	{r4, r5, r6, r7, r8, r9, r10, lr}
 158              		.cfi_def_cfa_offset 32
 159              		.cfi_offset 4, -32
 160              		.cfi_offset 5, -28
 161              		.cfi_offset 6, -24
 162              		.cfi_offset 7, -20
 163              		.cfi_offset 8, -16
 164              		.cfi_offset 9, -12
 165              		.cfi_offset 10, -8
 166              		.cfi_offset 14, -4
 167              		.loc 1 197 0
 168 000c 4FF4806E 		mov	lr, #1024
 169 0010 A2F818E0 		strh	lr, [r2, #24]	@ movhi
ARM GAS  /tmp/ccGIKGrc.s 			page 4


 170              	.LBB32:
 171              	.LBB28:
 172              		.loc 1 183 0
 173 0014 D2F810E0 		ldr	lr, [r2, #16]
 174              	.LVL14:
 175              		.loc 1 184 0
 176 0018 D2F810A0 		ldr	r10, [r2, #16]
 177              	.LVL15:
 178              		.loc 1 185 0
 179 001c D3F81080 		ldr	r8, [r3, #16]
 180              	.LVL16:
 181              		.loc 1 186 0
 182 0020 D3F810C0 		ldr	ip, [r3, #16]
 183              	.LVL17:
 184              	.LBE28:
 185              	.LBE32:
 186              		.loc 1 200 0
 187 0024 0288     		ldrh	r2, [r0]
 188              	.LBB33:
 189              	.LBB29:
 190              		.loc 1 187 0
 191 0026 1B69     		ldr	r3, [r3, #16]
 192              	.LVL18:
 193              	.LBE29:
 194              	.LBE33:
 195              		.loc 1 204 0
 196 0028 334D     		ldr	r5, .L23+12
 197              		.loc 1 200 0
 198 002a DFF80091 		ldr	r9, .L23+64
 199              		.loc 1 201 0
 200 002e 334C     		ldr	r4, .L23+16
 201              		.loc 1 199 0
 202 0030 334F     		ldr	r7, .L23+20
 203              		.loc 1 202 0
 204 0032 344E     		ldr	r6, .L23+24
 205              		.loc 1 200 0
 206 0034 A9F80020 		strh	r2, [r9]	@ movhi
 207              	.LBB34:
 208              	.LBB30:
 209              		.loc 1 183 0
 210 0038 CEF3801E 		ubfx	lr, lr, #6, #1
 211              	.LVL19:
 212              		.loc 1 184 0
 213 003c CAF3C01A 		ubfx	r10, r10, #7, #1
 214              	.LVL20:
 215              		.loc 1 189 0
 216 0040 0EEB4A0E 		add	lr, lr, r10, lsl #1
 217              		.loc 1 185 0
 218 0044 C8F34038 		ubfx	r8, r8, #13, #1
 219              	.LVL21:
 220              		.loc 1 189 0
 221 0048 0EEB8808 		add	r8, lr, r8, lsl #2
 222              		.loc 1 186 0
 223 004c CCF3803E 		ubfx	lr, ip, #14, #1
 224              		.loc 1 189 0
 225 0050 08EBCE0E 		add	lr, r8, lr, lsl #3
 226              		.loc 1 187 0
ARM GAS  /tmp/ccGIKGrc.s 			page 5


 227 0054 C3F3C033 		ubfx	r3, r3, #15, #1
 228              	.LVL22:
 229              	.LBE30:
 230              	.LBE34:
 231              		.loc 1 202 0
 232 0058 521A     		subs	r2, r2, r1
 233              		.loc 1 204 0
 234 005a 2868     		ldr	r0, [r5]
 235              		.loc 1 201 0
 236 005c 2180     		strh	r1, [r4]	@ movhi
 237              	.LBB35:
 238              	.LBB31:
 239              		.loc 1 189 0
 240 005e 0EEB0313 		add	r3, lr, r3, lsl #4
 241              	.LVL23:
 242              	.LBE31:
 243              	.LBE35:
 244              		.loc 1 202 0
 245 0062 92B2     		uxth	r2, r2
 246              		.loc 1 199 0
 247 0064 3B60     		str	r3, [r7]
 248              		.loc 1 202 0
 249 0066 3280     		strh	r2, [r6]	@ movhi
 250              		.loc 1 205 0
 251 0068 274C     		ldr	r4, .L23+28
 252              		.loc 1 204 0
 253 006a C8B9     		cbnz	r0, .L15
 254              		.loc 1 205 0
 255 006c 2168     		ldr	r1, [r4]
 256 006e 274E     		ldr	r6, .L23+32
 257              		.loc 1 206 0
 258 0070 2748     		ldr	r0, .L23+36
 259              		.loc 1 205 0
 260 0072 26F81120 		strh	r2, [r6, r1, lsl #1]	@ movhi
 261              		.loc 1 206 0
 262 0076 40F82130 		str	r3, [r0, r1, lsl #2]
 263 007a 0B46     		mov	r3, r1
 264              	.LVL24:
 265              	.L16:
 266              		.loc 1 212 0
 267 007c 0133     		adds	r3, r3, #1
 268 007e 2360     		str	r3, [r4]
 269              		.loc 1 214 0
 270 0080 2448     		ldr	r0, .L23+40
 271 0082 2549     		ldr	r1, .L23+44
 272 0084 1A4A     		ldr	r2, .L23+4
 273 0086 0223     		movs	r3, #2
 274 0088 FFF7FEFF 		bl	adcStartConversion
 275              	.LVL25:
 276              		.loc 1 216 0
 277 008c 2368     		ldr	r3, [r4]
 278 008e B3F5FA7F 		cmp	r3, #500
 279 0092 0ED0     		beq	.L21
 280              		.loc 1 227 0
 281 0094 154B     		ldr	r3, .L23
 282 0096 4FF48062 		mov	r2, #1024
 283 009a 5A83     		strh	r2, [r3, #26]	@ movhi
ARM GAS  /tmp/ccGIKGrc.s 			page 6


 284 009c BDE8F087 		pop	{r4, r5, r6, r7, r8, r9, r10, pc}
 285              	.LVL26:
 286              	.L15:
 287              		.loc 1 209 0
 288 00a0 2168     		ldr	r1, [r4]
 289 00a2 1E4E     		ldr	r6, .L23+48
 290              		.loc 1 210 0
 291 00a4 1E48     		ldr	r0, .L23+52
 292              		.loc 1 209 0
 293 00a6 26F81120 		strh	r2, [r6, r1, lsl #1]	@ movhi
 294              		.loc 1 210 0
 295 00aa 40F82130 		str	r3, [r0, r1, lsl #2]
 296 00ae 0B46     		mov	r3, r1
 297              	.LVL27:
 298 00b0 E4E7     		b	.L16
 299              	.LVL28:
 300              	.L21:
 301              		.loc 1 217 0
 302 00b2 2B68     		ldr	r3, [r5]
 303              		.loc 1 218 0
 304 00b4 1B4A     		ldr	r2, .L23+56
 305              	.LBB36:
 306              	.LBB37:
 307              		.file 2 "../ChibiOS/os/rt/include/chbsem.h"
 308              		.loc 2 270 0
 309 00b6 1C48     		ldr	r0, .L23+60
 310              	.LBE37:
 311              	.LBE36:
 312              		.loc 1 217 0
 313 00b8 012B     		cmp	r3, #1
 314              		.loc 1 218 0
 315 00ba 4FF48071 		mov	r1, #256
 316 00be 0CBF     		ite	eq
 317 00c0 1183     		strheq	r1, [r2, #24]	@ movhi
 318              		.loc 1 221 0
 319 00c2 5183     		strhne	r1, [r2, #26]	@ movhi
 320              	.LBB42:
 321              	.LBB38:
 322              		.loc 2 270 0
 323 00c4 8268     		ldr	r2, [r0, #8]
 324              	.LBE38:
 325              	.LBE42:
 326              		.loc 1 223 0
 327 00c6 D3F10103 		rsbs	r3, r3, #1
 328 00ca 38BF     		it	cc
 329 00cc 0023     		movcc	r3, #0
 330              	.LBB43:
 331              	.LBB39:
 332              		.loc 2 270 0
 333 00ce 002A     		cmp	r2, #0
 334              	.LBE39:
 335              	.LBE43:
 336              		.loc 1 223 0
 337 00d0 2B60     		str	r3, [r5]
 338              	.LVL29:
 339              	.LBB44:
 340              	.LBB40:
ARM GAS  /tmp/ccGIKGrc.s 			page 7


 341              		.loc 2 270 0
 342 00d2 07DD     		ble	.L22
 343              	.L20:
 344              	.LBE40:
 345              	.LBE44:
 346              		.loc 1 225 0
 347 00d4 0023     		movs	r3, #0
 348 00d6 2360     		str	r3, [r4]
 349              		.loc 1 227 0
 350 00d8 044B     		ldr	r3, .L23
 351 00da 4FF48062 		mov	r2, #1024
 352 00de 5A83     		strh	r2, [r3, #26]	@ movhi
 353 00e0 BDE8F087 		pop	{r4, r5, r6, r7, r8, r9, r10, pc}
 354              	.L22:
 355              	.LBB45:
 356              	.LBB41:
 357              		.loc 2 271 0
 358 00e4 FFF7FEFF 		bl	chSemSignalI
 359              	.LVL30:
 360 00e8 F4E7     		b	.L20
 361              	.L24:
 362 00ea 00BF     		.align	2
 363              	.L23:
 364 00ec 00080048 		.word	1207961600
 365 00f0 00000000 		.word	.LANCHOR3
 366 00f4 000C0048 		.word	1207962624
 367 00f8 00000000 		.word	.LANCHOR7
 368 00fc 00000000 		.word	.LANCHOR5
 369 0100 00000000 		.word	.LANCHOR2
 370 0104 00000000 		.word	.LANCHOR6
 371 0108 00000000 		.word	.LANCHOR8
 372 010c 00000000 		.word	.LANCHOR9
 373 0110 00000000 		.word	.LANCHOR10
 374 0114 00000000 		.word	ADCD1
 375 0118 00000000 		.word	.LANCHOR13
 376 011c 00000000 		.word	.LANCHOR11
 377 0120 00000000 		.word	.LANCHOR12
 378 0124 00100048 		.word	1207963648
 379 0128 00000000 		.word	.LANCHOR14
 380 012c 00000000 		.word	.LANCHOR4
 381              	.LBE41:
 382              	.LBE45:
 383              		.cfi_endproc
 384              	.LFE275:
 385              		.size	collector, .-collector
 386              		.section	.text.init_mmc,"ax",%progbits
 387              		.align	2
 388              		.p2align 4,,15
 389              		.global	init_mmc
 390              		.thumb
 391              		.thumb_func
 392              		.type	init_mmc, %function
 393              	init_mmc:
 394              	.LFB272:
 395              		.loc 1 66 0
 396              		.cfi_startproc
 397              		@ args = 0, pretend = 0, frame = 0
ARM GAS  /tmp/ccGIKGrc.s 			page 8


 398              		@ frame_needed = 0, uses_anonymous_args = 0
 399              	.LVL31:
 400 0000 F8B5     		push	{r3, r4, r5, r6, r7, lr}
 401              		.cfi_def_cfa_offset 24
 402              		.cfi_offset 3, -24
 403              		.cfi_offset 4, -20
 404              		.cfi_offset 5, -16
 405              		.cfi_offset 6, -12
 406              		.cfi_offset 7, -8
 407              		.cfi_offset 14, -4
 408              		.loc 1 67 0
 409 0002 1A4C     		ldr	r4, .L26
 410              		.loc 1 72 0
 411 0004 1A4F     		ldr	r7, .L26+4
 412              		.loc 1 76 0
 413 0006 1B4E     		ldr	r6, .L26+8
 414              		.loc 1 66 0
 415 0008 0546     		mov	r5, r0
 416              		.loc 1 67 0
 417 000a 4FF40051 		mov	r1, #8192
 418 000e 2046     		mov	r0, r4
 419              	.LVL32:
 420 0010 40F28222 		movw	r2, #642
 421 0014 FFF7FEFF 		bl	_pal_lld_setgroupmode
 422              	.LVL33:
 423              		.loc 1 68 0
 424 0018 2046     		mov	r0, r4
 425 001a 4FF48041 		mov	r1, #16384
 426 001e 40F28222 		movw	r2, #642
 427 0022 FFF7FEFF 		bl	_pal_lld_setgroupmode
 428              	.LVL34:
 429              		.loc 1 69 0
 430 0026 2046     		mov	r0, r4
 431 0028 4FF40041 		mov	r1, #32768
 432 002c 40F28222 		movw	r2, #642
 433 0030 FFF7FEFF 		bl	_pal_lld_setgroupmode
 434              	.LVL35:
 435              		.loc 1 72 0
 436 0034 3846     		mov	r0, r7
 437 0036 0421     		movs	r1, #4
 438 0038 0122     		movs	r2, #1
 439 003a FFF7FEFF 		bl	_pal_lld_setgroupmode
 440              	.LVL36:
 441              		.loc 1 73 0
 442 003e 0423     		movs	r3, #4
 443 0040 3B83     		strh	r3, [r7, #24]	@ movhi
 444              		.loc 1 76 0
 445 0042 3046     		mov	r0, r6
 446 0044 4FF40071 		mov	r1, #512
 447 0048 2022     		movs	r2, #32
 448 004a FFF7FEFF 		bl	_pal_lld_setgroupmode
 449              	.LVL37:
 450              		.loc 1 77 0
 451 004e 4FF40073 		mov	r3, #512
 452 0052 7383     		strh	r3, [r6, #26]	@ movhi
 453              		.loc 1 80 0
 454 0054 2846     		mov	r0, r5
ARM GAS  /tmp/ccGIKGrc.s 			page 9


 455 0056 FFF7FEFF 		bl	mmcObjectInit
 456              	.LVL38:
 457              		.loc 1 81 0
 458 005a 2846     		mov	r0, r5
 459 005c 0649     		ldr	r1, .L26+12
 460 005e FFF7FEFF 		bl	mmcStart
 461              	.LVL39:
 462              		.loc 1 82 0
 463 0062 0648     		ldr	r0, .L26+16
 464              		.loc 1 83 0
 465 0064 BDE8F840 		pop	{r3, r4, r5, r6, r7, lr}
 466              	.LVL40:
 467              		.loc 1 82 0
 468 0068 FFF7FEBF 		b	chMtxObjectInit
 469              	.LVL41:
 470              	.L27:
 471              		.align	2
 472              	.L26:
 473 006c 00040048 		.word	1207960576
 474 0070 00080048 		.word	1207961600
 475 0074 000C0048 		.word	1207962624
 476 0078 00000000 		.word	.LANCHOR15
 477 007c 00000000 		.word	.LANCHOR16
 478              		.cfi_endproc
 479              	.LFE272:
 480              		.size	init_mmc, .-init_mmc
 481              		.section	.text.die,"ax",%progbits
 482              		.align	2
 483              		.p2align 4,,15
 484              		.global	die
 485              		.thumb
 486              		.thumb_func
 487              		.type	die, %function
 488              	die:
 489              	.LFB277:
 490              		.loc 1 355 0
 491              		.cfi_startproc
 492              		@ args = 0, pretend = 0, frame = 0
 493              		@ frame_needed = 0, uses_anonymous_args = 0
 494              		@ link register save eliminated.
 495              	.LVL42:
 496              		.loc 1 355 0
 497 0000 0246     		mov	r2, r0
 498              		.loc 1 356 0
 499 0002 0249     		ldr	r1, .L29
 500 0004 0248     		ldr	r0, .L29+4
 501              	.LVL43:
 502 0006 FFF7FEBF 		b	chprintf
 503              	.LVL44:
 504              	.L30:
 505 000a 00BF     		.align	2
 506              	.L29:
 507 000c 38000000 		.word	.LC2
 508 0010 00000000 		.word	SD1
 509              		.cfi_endproc
 510              	.LFE277:
 511              		.size	die, .-die
ARM GAS  /tmp/ccGIKGrc.s 			page 10


 512 0014 AFF30080 		.section	.text.appendToCard,"ax",%progbits
 512      AFF30080 
 512      AFF30080 
 513              		.align	2
 514              		.p2align 4,,15
 515              		.global	appendToCard
 516              		.thumb
 517              		.thumb_func
 518              		.type	appendToCard, %function
 519              	appendToCard:
 520              	.LFB278:
 521              		.loc 1 359 0
 522              		.cfi_startproc
 523              		@ args = 0, pretend = 0, frame = 8
 524              		@ frame_needed = 0, uses_anonymous_args = 0
 525              	.LVL45:
 526 0000 F0B5     		push	{r4, r5, r6, r7, lr}
 527              		.cfi_def_cfa_offset 20
 528              		.cfi_offset 4, -20
 529              		.cfi_offset 5, -16
 530              		.cfi_offset 6, -12
 531              		.cfi_offset 7, -8
 532              		.cfi_offset 14, -4
 533 0002 0D46     		mov	r5, r1
 534 0004 83B0     		sub	sp, sp, #12
 535              		.cfi_def_cfa_offset 32
 536              		.loc 1 359 0
 537 0006 0446     		mov	r4, r0
 538              		.loc 1 365 0
 539 0008 1F48     		ldr	r0, .L46
 540              	.LVL46:
 541              		.loc 1 359 0
 542 000a 1746     		mov	r7, r2
 543 000c 1E46     		mov	r6, r3
 544              		.loc 1 365 0
 545 000e FFF7FEFF 		bl	chMtxLock
 546              	.LVL47:
 547              		.loc 1 367 0
 548 0012 2946     		mov	r1, r5
 549 0014 2046     		mov	r0, r4
 550 0016 1222     		movs	r2, #18
 551 0018 FFF7FEFF 		bl	f_open
 552              	.LVL48:
 553              		.loc 1 369 0
 554 001c 0546     		mov	r5, r0
 555              	.LVL49:
 556              		.loc 1 368 0
 557 001e 0028     		cmp	r0, #0
 558 0020 2BD1     		bne	.L44
 559              	.LVL50:
 560              	.L32:
 561              		.loc 1 374 0
 562 0022 2046     		mov	r0, r4
 563 0024 E168     		ldr	r1, [r4, #12]
 564 0026 FFF7FEFF 		bl	f_lseek
 565              	.LVL51:
 566              		.loc 1 375 0
ARM GAS  /tmp/ccGIKGrc.s 			page 11


 567 002a F8B9     		cbnz	r0, .L45
 568              	.LVL52:
 569              	.L33:
 570              		.loc 1 381 0
 571 002c 3946     		mov	r1, r7
 572 002e 3246     		mov	r2, r6
 573 0030 2046     		mov	r0, r4
 574 0032 01AB     		add	r3, sp, #4
 575 0034 FFF7FEFF 		bl	f_write
 576              	.LVL53:
 577              		.loc 1 383 0
 578 0038 88B9     		cbnz	r0, .L34
 579              		.loc 1 383 0 is_stmt 0 discriminator 1
 580 003a 019B     		ldr	r3, [sp, #4]
 581 003c 7BB1     		cbz	r3, .L34
 582              	.LVL54:
 583              	.L35:
 584              		.loc 1 388 0 is_stmt 1
 585 003e 2046     		mov	r0, r4
 586 0040 FFF7FEFF 		bl	f_close
 587              	.LVL55:
 588              		.loc 1 389 0
 589 0044 28B1     		cbz	r0, .L36
 590              		.loc 1 390 0
 591 0046 0546     		mov	r5, r0
 592              	.LVL56:
 593              	.LBB46:
 594              	.LBB47:
 595              		.loc 1 356 0
 596 0048 0246     		mov	r2, r0
 597 004a 1049     		ldr	r1, .L46+4
 598 004c 1048     		ldr	r0, .L46+8
 599              	.LVL57:
 600 004e FFF7FEFF 		bl	chprintf
 601              	.LVL58:
 602              	.L36:
 603              	.LBE47:
 604              	.LBE46:
 605              		.loc 1 393 0
 606 0052 0D48     		ldr	r0, .L46
 607 0054 FFF7FEFF 		bl	chMtxUnlock
 608              	.LVL59:
 609              		.loc 1 395 0
 610 0058 2846     		mov	r0, r5
 611 005a 03B0     		add	sp, sp, #12
 612              		@ sp needed
 613 005c F0BD     		pop	{r4, r5, r6, r7, pc}
 614              	.LVL60:
 615              	.L34:
 616              		.loc 1 384 0
 617 005e 0546     		mov	r5, r0
 618              	.LVL61:
 619              	.LBB48:
 620              	.LBB49:
 621              		.loc 1 356 0
 622 0060 0246     		mov	r2, r0
 623 0062 0A49     		ldr	r1, .L46+4
ARM GAS  /tmp/ccGIKGrc.s 			page 12


 624 0064 0A48     		ldr	r0, .L46+8
 625              	.LVL62:
 626 0066 FFF7FEFF 		bl	chprintf
 627              	.LVL63:
 628 006a E8E7     		b	.L35
 629              	.LVL64:
 630              	.L45:
 631              	.LBE49:
 632              	.LBE48:
 633              		.loc 1 376 0
 634 006c 0546     		mov	r5, r0
 635              	.LVL65:
 636              	.LBB50:
 637              	.LBB51:
 638              		.loc 1 356 0
 639 006e 0246     		mov	r2, r0
 640 0070 0649     		ldr	r1, .L46+4
 641 0072 0748     		ldr	r0, .L46+8
 642              	.LVL66:
 643 0074 FFF7FEFF 		bl	chprintf
 644              	.LVL67:
 645 0078 D8E7     		b	.L33
 646              	.LVL68:
 647              	.L44:
 648              	.LBE51:
 649              	.LBE50:
 650              	.LBB52:
 651              	.LBB53:
 652 007a 0246     		mov	r2, r0
 653 007c 0349     		ldr	r1, .L46+4
 654 007e 0448     		ldr	r0, .L46+8
 655              	.LVL69:
 656 0080 FFF7FEFF 		bl	chprintf
 657              	.LVL70:
 658 0084 CDE7     		b	.L32
 659              	.L47:
 660 0086 00BF     		.align	2
 661              	.L46:
 662 0088 00000000 		.word	.LANCHOR16
 663 008c 38000000 		.word	.LC2
 664 0090 00000000 		.word	SD1
 665              	.LBE53:
 666              	.LBE52:
 667              		.cfi_endproc
 668              	.LFE278:
 669              		.size	appendToCard, .-appendToCard
 670 0094 AFF30080 		.section	.text.printerThread,"ax",%progbits
 670      AFF30080 
 670      AFF30080 
 671              		.align	2
 672              		.p2align 4,,15
 673              		.thumb
 674              		.thumb_func
 675              		.type	printerThread, %function
 676              	printerThread:
 677              	.LFB276:
 678              		.loc 1 274 0
ARM GAS  /tmp/ccGIKGrc.s 			page 13


 679              		.cfi_startproc
 680              		@ args = 0, pretend = 0, frame = 8
 681              		@ frame_needed = 0, uses_anonymous_args = 0
 682              	.LVL71:
 683 0000 2DE9F04F 		push	{r4, r5, r6, r7, r8, r9, r10, fp, lr}
 684              		.cfi_def_cfa_offset 36
 685              		.cfi_offset 4, -36
 686              		.cfi_offset 5, -32
 687              		.cfi_offset 6, -28
 688              		.cfi_offset 7, -24
 689              		.cfi_offset 8, -20
 690              		.cfi_offset 9, -16
 691              		.cfi_offset 10, -12
 692              		.cfi_offset 11, -8
 693              		.cfi_offset 14, -4
 694              		.loc 1 283 0
 695 0004 0022     		movs	r2, #0
 696              		.loc 1 274 0
 697 0006 83B0     		sub	sp, sp, #12
 698              		.cfi_def_cfa_offset 48
 699              		.loc 1 283 0
 700 0008 2B48     		ldr	r0, .L58
 701              	.LVL72:
 702 000a 2C49     		ldr	r1, .L58+4
 703 000c FFF7FEFF 		bl	f_mount
 704              	.LVL73:
 705 0010 2B4B     		ldr	r3, .L58+8
 706 0012 0246     		mov	r2, r0
 707 0014 1870     		strb	r0, [r3]
 708              		.loc 1 285 0
 709 0016 18B1     		cbz	r0, .L49
 710              	.LVL74:
 711              	.LBB54:
 712              	.LBB55:
 713              		.loc 1 356 0 discriminator 1
 714 0018 2A48     		ldr	r0, .L58+12
 715              	.LVL75:
 716 001a 2B49     		ldr	r1, .L58+16
 717 001c FFF7FEFF 		bl	chprintf
 718              	.LVL76:
 719              	.L49:
 720              	.LBE55:
 721              	.LBE54:
 722              	.LBB56:
 723              	.LBB57:
 724              		.loc 1 313 0
 725 0020 2A4E     		ldr	r6, .L58+20
 726 0022 B246     		mov	r10, r6
 727              	.L53:
 728              	.LVL77:
 729              	.LBE57:
 730              	.LBB58:
 731              	.LBB59:
 732              		.loc 2 143 0
 733 0024 2A48     		ldr	r0, .L58+24
 734              	.LBE59:
 735              	.LBE58:
ARM GAS  /tmp/ccGIKGrc.s 			page 14


 736              		.loc 1 292 0
 737 0026 2B4C     		ldr	r4, .L58+28
 738 0028 2B4F     		ldr	r7, .L58+32
 739              		.loc 1 301 0
 740 002a 2C4D     		ldr	r5, .L58+36
 741              	.LBB61:
 742              	.LBB60:
 743              		.loc 2 143 0
 744 002c FFF7FEFF 		bl	chSemWait
 745              	.LVL78:
 746              	.LBE60:
 747              	.LBE61:
 748              		.loc 1 290 0
 749 0030 2B4B     		ldr	r3, .L58+40
 750              		.loc 1 292 0
 751 0032 DFF8D0E0 		ldr	lr, .L58+76
 752              		.loc 1 290 0
 753 0036 1B68     		ldr	r3, [r3]
 754              		.loc 1 292 0
 755 0038 2A4A     		ldr	r2, .L58+44
 756              		.loc 1 299 0
 757 003a 2248     		ldr	r0, .L58+12
 758 003c 2A49     		ldr	r1, .L58+48
 759              		.loc 1 292 0
 760 003e 012B     		cmp	r3, #1
 761 0040 18BF     		it	ne
 762 0042 7746     		movne	r7, lr
 763 0044 14BF     		ite	ne
 764 0046 A346     		movne	fp, r4
 765 0048 9346     		moveq	fp, r2
 766              	.LVL79:
 767              		.loc 1 299 0
 768 004a FFF7FEFF 		bl	chprintf
 769              	.LVL80:
 770              	.LBB62:
 771              		.loc 1 313 0
 772 004e 4FF40068 		mov	r8, #2048
 773 0052 043F     		subs	r7, r7, #4
 774              	.LVL81:
 775 0054 C146     		mov	r9, r8	@ movhi
 776              	.LBE62:
 777              		.loc 1 299 0
 778 0056 0024     		movs	r4, #0
 779              	.LVL82:
 780              	.L52:
 781              	.LBB63:
 782              		.loc 1 309 0 discriminator 2
 783 0058 3BF80420 		ldrh	r2, [fp, r4]
 784              	.LVL83:
 785              		.loc 1 312 0 discriminator 2
 786 005c 57F8043F 		ldr	r3, [r7, #4]!
 787              	.LVL84:
 788              		.loc 1 314 0 discriminator 2
 789 0060 2249     		ldr	r1, .L58+52
 790              		.loc 1 313 0 discriminator 2
 791 0062 A6F81890 		strh	r9, [r6, #24]	@ movhi
 792              	.LVL85:
ARM GAS  /tmp/ccGIKGrc.s 			page 15


 793              		.loc 1 314 0 discriminator 2
 794 0066 2846     		mov	r0, r5
 795 0068 FFF7FEFF 		bl	sprintf
 796              	.LVL86:
 797 006c 0234     		adds	r4, r4, #2
 798              	.LVL87:
 799              		.loc 1 315 0 discriminator 2
 800 006e A6F81A80 		strh	r8, [r6, #26]	@ movhi
 801              		.loc 1 317 0 discriminator 2
 802 0072 0544     		add	r5, r5, r0
 803              	.LVL88:
 804              		.loc 1 316 0 discriminator 2
 805 0074 FFF7FEFF 		bl	chThdYield
 806              	.LVL89:
 807              	.LBE63:
 808              		.loc 1 307 0 discriminator 2
 809 0078 B4F57A7F 		cmp	r4, #1000
 810 007c ECD1     		bne	.L52
 811              		.loc 1 321 0
 812 007e 174B     		ldr	r3, .L58+36
 813 0080 1B49     		ldr	r1, .L58+56
 814 0082 1048     		ldr	r0, .L58+12
 815 0084 ED1A     		subs	r5, r5, r3
 816              	.LVL90:
 817 0086 2A46     		mov	r2, r5
 818 0088 FFF7FEFF 		bl	chprintf
 819              	.LVL91:
 820              		.loc 1 326 0
 821 008c 4FF48054 		mov	r4, #4096
 822              	.LVL92:
 823              		.loc 1 323 0
 824 0090 1849     		ldr	r1, .L58+60
 825 0092 0C48     		ldr	r0, .L58+12
 826 0094 FFF7FEFF 		bl	chprintf
 827              	.LVL93:
 828              		.loc 1 327 0
 829 0098 2B46     		mov	r3, r5
 830              		.loc 1 326 0
 831 009a AAF81840 		strh	r4, [r10, #24]	@ movhi
 832              		.loc 1 327 0
 833 009e 1649     		ldr	r1, .L58+64
 834 00a0 0E4A     		ldr	r2, .L58+36
 835 00a2 1648     		ldr	r0, .L58+68
 836 00a4 FFF7FEFF 		bl	appendToCard
 837              	.LVL94:
 838              		.loc 1 328 0
 839 00a8 AAF81A40 		strh	r4, [r10, #26]	@ movhi
 840              		.loc 1 331 0
 841 00ac 1449     		ldr	r1, .L58+72
 842 00ae 0548     		ldr	r0, .L58+12
 843 00b0 FFF7FEFF 		bl	chprintf
 844              	.LVL95:
 845              	.LBE56:
 846              		.loc 1 332 0
 847 00b4 B6E7     		b	.L53
 848              	.L59:
 849 00b6 00BF     		.align	2
ARM GAS  /tmp/ccGIKGrc.s 			page 16


 850              	.L58:
 851 00b8 00000000 		.word	.LANCHOR18
 852 00bc 50000000 		.word	.LC3
 853 00c0 00000000 		.word	.LANCHOR19
 854 00c4 00000000 		.word	SD1
 855 00c8 38000000 		.word	.LC2
 856 00cc 00080048 		.word	1207961600
 857 00d0 00000000 		.word	.LANCHOR14
 858 00d4 00000000 		.word	.LANCHOR11
 859 00d8 00000000 		.word	.LANCHOR10
 860 00dc 00000000 		.word	.LANCHOR17
 861 00e0 00000000 		.word	.LANCHOR7
 862 00e4 00000000 		.word	.LANCHOR9
 863 00e8 54000000 		.word	.LC4
 864 00ec 60000000 		.word	.LC5
 865 00f0 6C000000 		.word	.LC6
 866 00f4 78000000 		.word	.LC7
 867 00f8 80000000 		.word	.LC8
 868 00fc 00000000 		.word	.LANCHOR20
 869 0100 8C000000 		.word	.LC9
 870 0104 00000000 		.word	.LANCHOR12
 871              		.cfi_endproc
 872              	.LFE276:
 873              		.size	printerThread, .-printerThread
 874 0108 AFF30080 		.section	.text.initSDcard,"ax",%progbits
 874      AFF30080 
 875              		.align	2
 876              		.p2align 4,,15
 877              		.global	initSDcard
 878              		.thumb
 879              		.thumb_func
 880              		.type	initSDcard, %function
 881              	initSDcard:
 882              	.LFB279:
 883              		.loc 1 399 0
 884              		.cfi_startproc
 885              		@ args = 0, pretend = 0, frame = 0
 886              		@ frame_needed = 0, uses_anonymous_args = 0
 887 0000 08B5     		push	{r3, lr}
 888              		.cfi_def_cfa_offset 8
 889              		.cfi_offset 3, -8
 890              		.cfi_offset 14, -4
 891              		.loc 1 400 0
 892 0002 0C48     		ldr	r0, .L63
 893 0004 FFF7FEFF 		bl	init_mmc
 894              	.LVL96:
 895              		.loc 1 401 0
 896 0008 0B48     		ldr	r0, .L63+4
 897 000a 0C49     		ldr	r1, .L63+8
 898 000c FFF7FEFF 		bl	chprintf
 899              	.LVL97:
 900              		.loc 1 403 0
 901 0010 0B4B     		ldr	r3, .L63+12
 902              		.loc 1 404 0
 903 0012 0948     		ldr	r0, .L63+4
 904              		.loc 1 403 0
 905 0014 1B69     		ldr	r3, [r3, #16]
ARM GAS  /tmp/ccGIKGrc.s 			page 17


 906 0016 9B05     		lsls	r3, r3, #22
 907 0018 04D4     		bmi	.L62
 908              		.loc 1 407 0
 909 001a 0A49     		ldr	r1, .L63+16
 910              		.loc 1 411 0
 911 001c BDE80840 		pop	{r3, lr}
 912              		.loc 1 407 0
 913 0020 FFF7FEBF 		b	chprintf
 914              	.LVL98:
 915              	.L62:
 916              		.loc 1 404 0
 917 0024 0849     		ldr	r1, .L63+20
 918 0026 FFF7FEFF 		bl	chprintf
 919              	.LVL99:
 920              		.loc 1 405 0
 921 002a 0248     		ldr	r0, .L63
 922              		.loc 1 411 0
 923 002c BDE80840 		pop	{r3, lr}
 924              		.loc 1 405 0
 925 0030 FFF7FEBF 		b	mmcConnect
 926              	.LVL100:
 927              	.L64:
 928              		.align	2
 929              	.L63:
 930 0034 00000000 		.word	.LANCHOR21
 931 0038 00000000 		.word	SD1
 932 003c 9C000000 		.word	.LC10
 933 0040 000C0048 		.word	1207962624
 934 0044 C8000000 		.word	.LC12
 935 0048 B4000000 		.word	.LC11
 936              		.cfi_endproc
 937              	.LFE279:
 938              		.size	initSDcard, .-initSDcard
 939 004c AFF30080 		.section	.text.startup.main,"ax",%progbits
 940              		.align	2
 941              		.p2align 4,,15
 942              		.global	main
 943              		.thumb
 944              		.thumb_func
 945              		.type	main, %function
 946              	main:
 947              	.LFB281:
 948              		.loc 1 437 0
 949              		.cfi_startproc
 950              		@ args = 0, pretend = 0, frame = 0
 951              		@ frame_needed = 0, uses_anonymous_args = 0
 952 0000 10B5     		push	{r4, lr}
 953              		.cfi_def_cfa_offset 8
 954              		.cfi_offset 4, -8
 955              		.cfi_offset 14, -4
 956 0002 82B0     		sub	sp, sp, #8
 957              		.cfi_def_cfa_offset 16
 958              		.loc 1 439 0
 959 0004 FFF7FEFF 		bl	chSysInit
 960              	.LVL101:
 961              		.loc 1 440 0
 962 0008 FFF7FEFF 		bl	halInit
ARM GAS  /tmp/ccGIKGrc.s 			page 18


 963              	.LVL102:
 964              	.LBB64:
 965              	.LBB65:
 966              		.loc 2 126 0
 967 000c 4448     		ldr	r0, .L67
 968 000e 0021     		movs	r1, #0
 969 0010 FFF7FEFF 		bl	chSemObjectInit
 970              	.LVL103:
 971              	.LBE65:
 972              	.LBE64:
 973              		.loc 1 443 0
 974 0014 4348     		ldr	r0, .L67+4
 975 0016 0121     		movs	r1, #1
 976 0018 0322     		movs	r2, #3
 977 001a FFF7FEFF 		bl	_pal_lld_setgroupmode
 978              	.LVL104:
 979              		.loc 1 444 0
 980 001e 4148     		ldr	r0, .L67+4
 981 0020 0221     		movs	r1, #2
 982 0022 0322     		movs	r2, #3
 983 0024 FFF7FEFF 		bl	_pal_lld_setgroupmode
 984              	.LVL105:
 985              		.loc 1 447 0
 986 0028 3E48     		ldr	r0, .L67+4
 987 002a 4021     		movs	r1, #64
 988 002c 0022     		movs	r2, #0
 989 002e FFF7FEFF 		bl	_pal_lld_setgroupmode
 990              	.LVL106:
 991              		.loc 1 448 0
 992 0032 3C48     		ldr	r0, .L67+4
 993 0034 8021     		movs	r1, #128
 994 0036 0022     		movs	r2, #0
 995 0038 FFF7FEFF 		bl	_pal_lld_setgroupmode
 996              	.LVL107:
 997              		.loc 1 449 0
 998 003c 3A48     		ldr	r0, .L67+8
 999 003e 4FF40051 		mov	r1, #8192
 1000 0042 0022     		movs	r2, #0
 1001 0044 FFF7FEFF 		bl	_pal_lld_setgroupmode
 1002              	.LVL108:
 1003              		.loc 1 450 0
 1004 0048 3748     		ldr	r0, .L67+8
 1005 004a 4FF48041 		mov	r1, #16384
 1006 004e 0022     		movs	r2, #0
 1007 0050 FFF7FEFF 		bl	_pal_lld_setgroupmode
 1008              	.LVL109:
 1009              		.loc 1 451 0
 1010 0054 3448     		ldr	r0, .L67+8
 1011 0056 4FF40041 		mov	r1, #32768
 1012 005a 0022     		movs	r2, #0
 1013 005c FFF7FEFF 		bl	_pal_lld_setgroupmode
 1014              	.LVL110:
 1015              		.loc 1 453 0
 1016 0060 3048     		ldr	r0, .L67+4
 1017 0062 4FF48061 		mov	r1, #1024
 1018 0066 0122     		movs	r2, #1
 1019 0068 FFF7FEFF 		bl	_pal_lld_setgroupmode
ARM GAS  /tmp/ccGIKGrc.s 			page 19


 1020              	.LVL111:
 1021              		.loc 1 454 0
 1022 006c 2D48     		ldr	r0, .L67+4
 1023 006e 4FF40061 		mov	r1, #2048
 1024 0072 0122     		movs	r2, #1
 1025 0074 FFF7FEFF 		bl	_pal_lld_setgroupmode
 1026              	.LVL112:
 1027              		.loc 1 455 0
 1028 0078 0122     		movs	r2, #1
 1029 007a 2A48     		ldr	r0, .L67+4
 1030 007c 4FF48051 		mov	r1, #4096
 1031 0080 FFF7FEFF 		bl	_pal_lld_setgroupmode
 1032              	.LVL113:
 1033              		.loc 1 464 0
 1034 0084 2948     		ldr	r0, .L67+12
 1035 0086 2A49     		ldr	r1, .L67+16
 1036 0088 FFF7FEFF 		bl	adcStart
 1037              	.LVL114:
 1038              		.loc 1 465 0
 1039 008c 0223     		movs	r3, #2
 1040 008e 294A     		ldr	r2, .L67+20
 1041 0090 2648     		ldr	r0, .L67+12
 1042 0092 2949     		ldr	r1, .L67+24
 1043 0094 FFF7FEFF 		bl	adcStartConversion
 1044              	.LVL115:
 1045              		.loc 1 468 0
 1046 0098 2848     		ldr	r0, .L67+28
 1047 009a 0021     		movs	r1, #0
 1048 009c FFF7FEFF 		bl	sdStart
 1049              	.LVL116:
 1050              		.loc 1 469 0
 1051 00a0 2048     		ldr	r0, .L67+4
 1052 00a2 1021     		movs	r1, #16
 1053 00a4 40F28232 		movw	r2, #898
 1054 00a8 FFF7FEFF 		bl	_pal_lld_setgroupmode
 1055              	.LVL117:
 1056              		.loc 1 470 0
 1057 00ac 40F28232 		movw	r2, #898
 1058 00b0 1C48     		ldr	r0, .L67+4
 1059 00b2 2021     		movs	r1, #32
 1060 00b4 FFF7FEFF 		bl	_pal_lld_setgroupmode
 1061              	.LVL118:
 1062              		.loc 1 472 0
 1063 00b8 FFF7FEFF 		bl	initSDcard
 1064              	.LVL119:
 1065              		.loc 1 474 0
 1066 00bc FFF7FEFF 		bl	shellInit
 1067              	.LVL120:
 1068              		.loc 1 475 0
 1069 00c0 1F48     		ldr	r0, .L67+32
 1070 00c2 2049     		ldr	r1, .L67+36
 1071 00c4 FFF7FEFF 		bl	gptStart
 1072              	.LVL121:
 1073              		.loc 1 477 0
 1074 00c8 1D48     		ldr	r0, .L67+32
 1075 00ca 4FF4FA61 		mov	r1, #2000
 1076 00ce FFF7FEFF 		bl	gptStartContinuous
ARM GAS  /tmp/ccGIKGrc.s 			page 20


 1077              	.LVL122:
 1078              		.loc 1 481 0
 1079 00d2 40F6C801 		movw	r1, #2248
 1080 00d6 4022     		movs	r2, #64
 1081 00d8 1B48     		ldr	r0, .L67+40
 1082 00da FFF7FEFF 		bl	shellCreate
 1083              	.LVL123:
 1084 00de 1B4A     		ldr	r2, .L67+44
 1085              		.loc 1 482 0
 1086 00e0 1B4B     		ldr	r3, .L67+48
 1087              		.loc 1 481 0
 1088 00e2 1060     		str	r0, [r2]
 1089              		.loc 1 482 0
 1090 00e4 0024     		movs	r4, #0
 1091 00e6 4FF4A471 		mov	r1, #328
 1092 00ea 4122     		movs	r2, #65
 1093 00ec 0094     		str	r4, [sp]
 1094 00ee 1948     		ldr	r0, .L67+52
 1095 00f0 FFF7FEFF 		bl	chThdCreateStatic
 1096              	.LVL124:
 1097              		.loc 1 483 0
 1098 00f4 41F2C801 		movw	r1, #4296
 1099 00f8 0094     		str	r4, [sp]
 1100 00fa 1748     		ldr	r0, .L67+56
 1101 00fc 174B     		ldr	r3, .L67+60
 1102 00fe 4122     		movs	r2, #65
 1103 0100 FFF7FEFF 		bl	chThdCreateStatic
 1104              	.LVL125:
 1105              		.loc 1 487 0
 1106 0104 0D48     		ldr	r0, .L67+28
 1107 0106 1649     		ldr	r1, .L67+64
 1108 0108 FFF7FEFF 		bl	chprintf
 1109              	.LVL126:
 1110              	.L66:
 1111              		.loc 1 489 0 discriminator 1
 1112 010c 4FF0FF30 		mov	r0, #-1
 1113 0110 FFF7FEFF 		bl	chEvtWaitOne
 1114              	.LVL127:
 1115 0114 0146     		mov	r1, r0
 1116 0116 1348     		ldr	r0, .L67+68
 1117 0118 FFF7FEFF 		bl	chEvtDispatch
 1118              	.LVL128:
 1119 011c F6E7     		b	.L66
 1120              	.L68:
 1121 011e 00BF     		.align	2
 1122              	.L67:
 1123 0120 00000000 		.word	.LANCHOR14
 1124 0124 00080048 		.word	1207961600
 1125 0128 000C0048 		.word	1207962624
 1126 012c 00000000 		.word	ADCD1
 1127 0130 00000000 		.word	.LANCHOR22
 1128 0134 00000000 		.word	.LANCHOR3
 1129 0138 00000000 		.word	.LANCHOR13
 1130 013c 00000000 		.word	SD1
 1131 0140 00000000 		.word	GPTD1
 1132 0144 00000000 		.word	.LANCHOR23
 1133 0148 00000000 		.word	.LANCHOR1
ARM GAS  /tmp/ccGIKGrc.s 			page 21


 1134 014c 00000000 		.word	.LANCHOR0
 1135 0150 00000000 		.word	counterThread
 1136 0154 00000000 		.word	.LANCHOR24
 1137 0158 00000000 		.word	.LANCHOR25
 1138 015c 00000000 		.word	printerThread
 1139 0160 E0000000 		.word	.LC13
 1140 0164 00000000 		.word	.LANCHOR26
 1141              		.cfi_endproc
 1142              	.LFE281:
 1143              		.size	main, .-main
 1144              		.global	MMCD1
 1145              		.global	br
 1146              		.global	bw
 1147              		.global	fno
 1148              		.global	dir
 1149              		.global	rc
 1150              		.global	fil
 1151              		.global	SDC_FS
 1152              		.global	diff
 1153              		.global	potential_1
 1154              		.global	potential_0
 1155              		.global	buff_sem
 1156              		.global	RUN_MODE2
 1157              		.global	RUN_MODE1
 1158              		.global	buf
 1159              		.global	amperage2
 1160              		.global	amperage1
 1161              		.global	arrayuse
 1162              		.global	MODE
 1163              		.global	arrays_spot
 1164              		.global	j
 1165 0168 AFF30080 		.section	.bss.arrays_spot,"aw",%nobits
 1165      AFF30080 
 1166              		.align	2
 1167              		.set	.LANCHOR8,. + 0
 1168              		.type	arrays_spot, %object
 1169              		.size	arrays_spot, 4
 1170              	arrays_spot:
 1171 0000 00000000 		.space	4
 1172              		.section	.bss.samples_buf,"aw",%nobits
 1173              		.align	2
 1174              		.set	.LANCHOR3,. + 0
 1175              		.type	samples_buf, %object
 1176              		.size	samples_buf, 8
 1177              	samples_buf:
 1178 0000 00000000 		.space	8
 1178      00000000 
 1179              		.section	.bss.diff,"aw",%nobits
 1180              		.align	1
 1181              		.set	.LANCHOR6,. + 0
 1182              		.type	diff, %object
 1183              		.size	diff, 2
 1184              	diff:
 1185 0000 0000     		.space	2
 1186              		.section	.bss.dir,"aw",%nobits
 1187              		.align	2
 1188              		.type	dir, %object
ARM GAS  /tmp/ccGIKGrc.s 			page 22


 1189              		.size	dir, 28
 1190              	dir:
 1191 0000 00000000 		.space	28
 1191      00000000 
 1191      00000000 
 1191      00000000 
 1191      00000000 
 1192              		.section	.rodata.adcgrpcfg,"a",%progbits
 1193              		.align	2
 1194              		.set	.LANCHOR13,. + 0
 1195              		.type	adcgrpcfg, %object
 1196              		.size	adcgrpcfg, 44
 1197              	adcgrpcfg:
 1198 0000 00       		.byte	0
 1199 0001 00       		.space	1
 1200 0002 0200     		.short	2
 1201 0004 00000000 		.word	0
 1202 0008 00000000 		.word	0
 1203 000c 00000000 		.word	0
 1204 0010 00000000 		.word	0
 1205 0014 00000000 		.word	0
 1206 0018 D8000000 		.word	216
 1207 001c 81710000 		.word	29057
 1208 0020 00000000 		.word	0
 1209 0024 00000000 		.word	0
 1210 0028 00000000 		.word	0
 1211              		.section	.bss.potential_0,"aw",%nobits
 1212              		.align	1
 1213              		.set	.LANCHOR4,. + 0
 1214              		.type	potential_0, %object
 1215              		.size	potential_0, 2
 1216              	potential_0:
 1217 0000 0000     		.space	2
 1218              		.section	.bss.potential_1,"aw",%nobits
 1219              		.align	1
 1220              		.set	.LANCHOR5,. + 0
 1221              		.type	potential_1, %object
 1222              		.size	potential_1, 2
 1223              	potential_1:
 1224 0000 0000     		.space	2
 1225              		.section	.bss.amperage1,"aw",%nobits
 1226              		.align	2
 1227              		.set	.LANCHOR9,. + 0
 1228              		.type	amperage1, %object
 1229              		.size	amperage1, 1000
 1230              	amperage1:
 1231 0000 00000000 		.space	1000
 1231      00000000 
 1231      00000000 
 1231      00000000 
 1231      00000000 
 1232              		.section	.bss.amperage2,"aw",%nobits
 1233              		.align	2
 1234              		.set	.LANCHOR11,. + 0
 1235              		.type	amperage2, %object
 1236              		.size	amperage2, 1000
 1237              	amperage2:
ARM GAS  /tmp/ccGIKGrc.s 			page 23


 1238 0000 00000000 		.space	1000
 1238      00000000 
 1238      00000000 
 1238      00000000 
 1238      00000000 
 1239              		.section	.bss.bw,"aw",%nobits
 1240              		.align	2
 1241              		.type	bw, %object
 1242              		.size	bw, 4
 1243              	bw:
 1244 0000 00000000 		.space	4
 1245              		.section	.bss.MODE,"aw",%nobits
 1246              		.align	2
 1247              		.set	.LANCHOR2,. + 0
 1248              		.type	MODE, %object
 1249              		.size	MODE, 4
 1250              	MODE:
 1251 0000 00000000 		.space	4
 1252              		.section	.bss.fno,"aw",%nobits
 1253              		.align	2
 1254              		.type	fno, %object
 1255              		.size	fno, 24
 1256              	fno:
 1257 0000 00000000 		.space	24
 1257      00000000 
 1257      00000000 
 1257      00000000 
 1257      00000000 
 1258              		.section	.bss.j,"aw",%nobits
 1259              		.align	2
 1260              		.type	j, %object
 1261              		.size	j, 4
 1262              	j:
 1263 0000 00000000 		.space	4
 1264              		.section	.rodata.commands,"a",%progbits
 1265              		.align	2
 1266              		.type	commands, %object
 1267              		.size	commands, 8
 1268              	commands:
 1269 0000 00000000 		.space	8
 1269      00000000 
 1270              		.section	.rodata.lowSdcSpiConfig,"a",%progbits
 1271              		.align	2
 1272              		.type	lowSdcSpiConfig, %object
 1273              		.size	lowSdcSpiConfig, 16
 1274              	lowSdcSpiConfig:
 1275 0000 00000000 		.word	0
 1276 0004 00080048 		.word	1207961600
 1277 0008 0200     		.short	2
 1278 000a 3000     		.short	48
 1279 000c 0000     		.short	0
 1280 000e 0000     		.space	2
 1281              		.section	.bss.br,"aw",%nobits
 1282              		.align	2
 1283              		.type	br, %object
 1284              		.size	br, 4
 1285              	br:
ARM GAS  /tmp/ccGIKGrc.s 			page 24


 1286 0000 00000000 		.space	4
 1287              		.section	.bss.MMCD1,"aw",%nobits
 1288              		.align	2
 1289              		.set	.LANCHOR21,. + 0
 1290              		.type	MMCD1, %object
 1291              		.size	MMCD1, 52
 1292              	MMCD1:
 1293 0000 00000000 		.space	52
 1293      00000000 
 1293      00000000 
 1293      00000000 
 1293      00000000 
 1294              		.section	.rodata.str1.4,"aMS",%progbits,1
 1295              		.align	2
 1296              	.LC0:
 1297 0000 5368656C 		.ascii	"Shell Died\012\015\000"
 1297      6C204469 
 1297      65640A0D 
 1297      00
 1298 000d 000000   		.space	3
 1299              	.LC1:
 1300 0010 52657374 		.ascii	"Restarting from termination handler\012\015\000"
 1300      61727469 
 1300      6E672066 
 1300      726F6D20 
 1300      7465726D 
 1301 0036 0000     		.space	2
 1302              	.LC2:
 1303 0038 6661696C 		.ascii	"failed with error: %d\012\015\000"
 1303      65642077 
 1303      69746820 
 1303      6572726F 
 1303      723A2025 
 1304              	.LC3:
 1305 0050 00       		.ascii	"\000"
 1306 0051 000000   		.space	3
 1307              	.LC4:
 1308 0054 434F4E56 		.ascii	"CONVERT\012\015\000"
 1308      4552540A 
 1308      0D00
 1309 005e 0000     		.space	2
 1310              	.LC5:
 1311 0060 25303478 		.ascii	"%04x %d\012\000"
 1311      2025640A 
 1311      00
 1312 0069 000000   		.space	3
 1313              	.LC6:
 1314 006c 4C454E3A 		.ascii	"LEN: %d\012\000"
 1314      2025640A 
 1314      00
 1315 0075 000000   		.space	3
 1316              	.LC7:
 1317 0078 57524954 		.ascii	"WRITE\012\015\000"
 1317      450A0D00 
 1318              	.LC8:
 1319 0080 64617461 		.ascii	"data.txt\000"
 1319      2E747874 
ARM GAS  /tmp/ccGIKGrc.s 			page 25


 1319      00
 1320 0089 000000   		.space	3
 1321              	.LC9:
 1322 008c 57524954 		.ascii	"WRITE DONE\012\015\000"
 1322      4520444F 
 1322      4E450A0D 
 1322      00
 1323 0099 000000   		.space	3
 1324              	.LC10:
 1325 009c 496E6974 		.ascii	"Initialized SD card\012\015\000"
 1325      69616C69 
 1325      7A656420 
 1325      53442063 
 1325      6172640A 
 1326 00b2 0000     		.space	2
 1327              	.LC11:
 1328 00b4 41206361 		.ascii	"A card is there.\012\015\000"
 1328      72642069 
 1328      73207468 
 1328      6572652E 
 1328      0A0D00
 1329 00c7 00       		.space	1
 1330              	.LC12:
 1331 00c8 4E6F2063 		.ascii	"No card to be found.\012\015\000"
 1331      61726420 
 1331      746F2062 
 1331      6520666F 
 1331      756E642E 
 1332 00df 00       		.space	1
 1333              	.LC13:
 1334 00e0 0A0D2055 		.ascii	"\012\015 Up and running \012\015\000"
 1334      7020616E 
 1334      64207275 
 1334      6E6E696E 
 1334      67200A0D 
 1335 00f5 000000   		.section	.data.gpt_adc_config,"aw",%progbits
 1336              		.align	2
 1337              		.set	.LANCHOR23,. + 0
 1338              		.type	gpt_adc_config, %object
 1339              		.size	gpt_adc_config, 16
 1340              	gpt_adc_config:
 1341 0000 40420F00 		.word	1000000
 1342 0004 00000000 		.word	collector
 1343 0008 00000000 		.word	0
 1344 000c 00000000 		.word	0
 1345              		.section	.bss.SDC_FS,"aw",%nobits
 1346              		.align	2
 1347              		.set	.LANCHOR18,. + 0
 1348              		.type	SDC_FS, %object
 1349              		.size	SDC_FS, 560
 1350              	SDC_FS:
 1351 0000 00000000 		.space	560
 1351      00000000 
 1351      00000000 
 1351      00000000 
 1351      00000000 
 1352              		.section	.bss.waCounterThread,"aw",%nobits
ARM GAS  /tmp/ccGIKGrc.s 			page 26


 1353              		.align	3
 1354              		.set	.LANCHOR24,. + 0
 1355              		.type	waCounterThread, %object
 1356              		.size	waCounterThread, 328
 1357              	waCounterThread:
 1358 0000 00000000 		.space	328
 1358      00000000 
 1358      00000000 
 1358      00000000 
 1358      00000000 
 1359              		.section	.bss.shelltp1,"aw",%nobits
 1360              		.align	2
 1361              		.set	.LANCHOR0,. + 0
 1362              		.type	shelltp1, %object
 1363              		.size	shelltp1, 4
 1364              	shelltp1:
 1365 0000 00000000 		.space	4
 1366              		.section	.rodata.mmcConfig,"a",%progbits
 1367              		.align	2
 1368              		.set	.LANCHOR15,. + 0
 1369              		.type	mmcConfig, %object
 1370              		.size	mmcConfig, 12
 1371              	mmcConfig:
 1372 0000 00000000 		.word	SPID2
 1373 0004 00000000 		.word	lowSdcSpiConfig
 1374 0008 00000000 		.word	highSdcSpiConfig
 1375              		.section	.bss.buf,"aw",%nobits
 1376              		.align	2
 1377              		.set	.LANCHOR17,. + 0
 1378              		.type	buf, %object
 1379              		.size	buf, 11500
 1380              	buf:
 1381 0000 00000000 		.space	11500
 1381      00000000 
 1381      00000000 
 1381      00000000 
 1381      00000000 
 1382              		.section	.bss.waPrinterThread,"aw",%nobits
 1383              		.align	3
 1384              		.set	.LANCHOR25,. + 0
 1385              		.type	waPrinterThread, %object
 1386              		.size	waPrinterThread, 4296
 1387              	waPrinterThread:
 1388 0000 00000000 		.space	4296
 1388      00000000 
 1388      00000000 
 1388      00000000 
 1388      00000000 
 1389              		.section	.rodata.highSdcSpiConfig,"a",%progbits
 1390              		.align	2
 1391              		.type	highSdcSpiConfig, %object
 1392              		.size	highSdcSpiConfig, 16
 1393              	highSdcSpiConfig:
 1394 0000 00000000 		.word	0
 1395 0004 00080048 		.word	1207961600
 1396 0008 0200     		.short	2
 1397 000a 0000     		.short	0
ARM GAS  /tmp/ccGIKGrc.s 			page 27


 1398 000c 0000     		.short	0
 1399 000e 0000     		.space	2
 1400              		.section	.bss.RUN_MODE1,"aw",%nobits
 1401              		.align	2
 1402              		.set	.LANCHOR10,. + 0
 1403              		.type	RUN_MODE1, %object
 1404              		.size	RUN_MODE1, 2000
 1405              	RUN_MODE1:
 1406 0000 00000000 		.space	2000
 1406      00000000 
 1406      00000000 
 1406      00000000 
 1406      00000000 
 1407              		.section	.bss.RUN_MODE2,"aw",%nobits
 1408              		.align	2
 1409              		.set	.LANCHOR12,. + 0
 1410              		.type	RUN_MODE2, %object
 1411              		.size	RUN_MODE2, 2000
 1412              	RUN_MODE2:
 1413 0000 00000000 		.space	2000
 1413      00000000 
 1413      00000000 
 1413      00000000 
 1413      00000000 
 1414              		.section	.bss.rc,"aw",%nobits
 1415              		.set	.LANCHOR19,. + 0
 1416              		.type	rc, %object
 1417              		.size	rc, 1
 1418              	rc:
 1419 0000 00       		.space	1
 1420              		.section	.bss.arrayuse,"aw",%nobits
 1421              		.align	2
 1422              		.set	.LANCHOR7,. + 0
 1423              		.type	arrayuse, %object
 1424              		.size	arrayuse, 4
 1425              	arrayuse:
 1426 0000 00000000 		.space	4
 1427              		.section	.bss.adccfg,"aw",%nobits
 1428              		.align	2
 1429              		.set	.LANCHOR22,. + 0
 1430              		.type	adccfg, %object
 1431              		.size	adccfg, 4
 1432              	adccfg:
 1433 0000 00000000 		.space	4
 1434              		.section	.rodata.shell_cfg1,"a",%progbits
 1435              		.align	2
 1436              		.set	.LANCHOR1,. + 0
 1437              		.type	shell_cfg1, %object
 1438              		.size	shell_cfg1, 8
 1439              	shell_cfg1:
 1440 0000 00000000 		.word	SD1
 1441 0004 00000000 		.word	commands
 1442              		.section	.data.fhandlers,"aw",%progbits
 1443              		.align	2
 1444              		.set	.LANCHOR26,. + 0
 1445              		.type	fhandlers, %object
 1446              		.size	fhandlers, 4
ARM GAS  /tmp/ccGIKGrc.s 			page 28


 1447              	fhandlers:
 1448 0000 00000000 		.word	termination_handler
 1449              		.section	.bss.sdMutex,"aw",%nobits
 1450              		.align	2
 1451              		.set	.LANCHOR16,. + 0
 1452              		.type	sdMutex, %object
 1453              		.size	sdMutex, 16
 1454              	sdMutex:
 1455 0000 00000000 		.space	16
 1455      00000000 
 1455      00000000 
 1455      00000000 
 1456              		.section	.bss.buff_sem,"aw",%nobits
 1457              		.align	2
 1458              		.set	.LANCHOR14,. + 0
 1459              		.type	buff_sem, %object
 1460              		.size	buff_sem, 12
 1461              	buff_sem:
 1462 0000 00000000 		.space	12
 1462      00000000 
 1462      00000000 
 1463              		.section	.bss.fil,"aw",%nobits
 1464              		.align	2
 1465              		.set	.LANCHOR20,. + 0
 1466              		.type	fil, %object
 1467              		.size	fil, 548
 1468              	fil:
 1469 0000 00000000 		.space	548
 1469      00000000 
 1469      00000000 
 1469      00000000 
 1469      00000000 
 1470              		.text
 1471              	.Letext0:
 1472              		.file 3 "/nfs/nfs5/home/research/hardware/arm2/gcc-arm-embedded/gcc-arm-none-eabi-4_8-2014q2/lib/g
 1473              		.file 4 "/nfs/nfs5/home/research/hardware/arm2/gcc-arm-embedded/gcc-arm-none-eabi-4_8-2014q2/arm-n
 1474              		.file 5 "/nfs/nfs5/home/research/hardware/arm2/gcc-arm-embedded/gcc-arm-none-eabi-4_8-2014q2/arm-n
 1475              		.file 6 "../ChibiOS/os/rt/ports/ARMCMx/compilers/GCC/chtypes.h"
 1476              		.file 7 "../ChibiOS/os/rt/include/chsystypes.h"
 1477              		.file 8 "../ChibiOS/os/rt/include/chschd.h"
 1478              		.file 9 "../ChibiOS/os/ext/CMSIS/ST/STM32F3xx/stm32f303xc.h"
 1479              		.file 10 "../ChibiOS/os/rt/ports/ARMCMx/chcore.h"
 1480              		.file 11 "../ChibiOS/os/rt/ports/ARMCMx/chcore_v7m.h"
 1481              		.file 12 "../ChibiOS/os/hal/ports/STM32/LLD/TIMv1/stm32_tim.h"
 1482              		.file 13 "../ChibiOS/os/rt/include/chtm.h"
 1483              		.file 14 "../ChibiOS/os/rt/include/chsem.h"
 1484              		.file 15 "../ChibiOS/os/rt/include/chmtx.h"
 1485              		.file 16 "../ChibiOS/os/rt/include/chthreads.h"
 1486              		.file 17 "../ChibiOS/os/rt/include/chevents.h"
 1487              		.file 18 "../ChibiOS/os/rt/include/chqueues.h"
 1488              		.file 19 "../ChibiOS/os/rt/include/chstreams.h"
 1489              		.file 20 "../ChibiOS/os/hal/ports/STM32/LLD/DMAv1/stm32_dma.h"
 1490              		.file 21 "../ChibiOS/os/hal/include/hal_ioblock.h"
 1491              		.file 22 "../ChibiOS/os/hal/ports/STM32/LLD/GPIOv2/pal_lld.h"
 1492              		.file 23 "../ChibiOS/os/hal/include/adc.h"
 1493              		.file 24 "../ChibiOS/os/hal/ports/STM32/LLD/ADCv3/adc_lld.h"
 1494              		.file 25 "../ChibiOS/os/hal/include/gpt.h"
ARM GAS  /tmp/ccGIKGrc.s 			page 29


 1495              		.file 26 "../ChibiOS/os/hal/ports/STM32/LLD/TIMv1/gpt_lld.h"
 1496              		.file 27 "../ChibiOS/os/hal/include/serial.h"
 1497              		.file 28 "../ChibiOS/os/hal/ports/STM32/LLD/USARTv2/serial_lld.h"
 1498              		.file 29 "../ChibiOS/os/hal/include/spi.h"
 1499              		.file 30 "../ChibiOS/os/hal/ports/STM32/LLD/SPIv2/spi_lld.h"
 1500              		.file 31 "../ChibiOS/os/hal/include/mmc_spi.h"
 1501              		.file 32 "../ChibiOS/os/various/shell.h"
 1502              		.file 33 "../ChibiOS/ext/fatfs/src/integer.h"
 1503              		.file 34 "../ChibiOS/ext/fatfs/src/ff.h"
 1504              		.file 35 "../ChibiOS/os/ext/CMSIS/include/core_cm4.h"
 1505              		.file 36 "../ChibiOS/os/hal/lib/streams/chprintf.h"
 1506              		.file 37 "/nfs/nfs5/home/research/hardware/arm2/gcc-arm-embedded/gcc-arm-none-eabi-4_8-2014q2/arm-
 1507              		.file 38 "../ChibiOS/os/rt/include/chsys.h"
 1508              		.file 39 "../ChibiOS/os/hal/include/hal.h"