ARM GAS  /tmp/ccKFnoS1.s 			page 1


   1              		.syntax unified
   2              		.cpu cortex-m4
   3              		.fpu softvfp
   4              		.eabi_attribute 20, 1
   5              		.eabi_attribute 21, 1
   6              		.eabi_attribute 23, 3
   7              		.eabi_attribute 24, 1
   8              		.eabi_attribute 25, 1
   9              		.eabi_attribute 26, 1
  10              		.eabi_attribute 30, 2
  11              		.eabi_attribute 34, 1
  12              		.eabi_attribute 18, 4
  13              		.thumb
  14              		.file	"memstreams.c"
  15              		.text
  16              	.Ltext0:
  17              		.cfi_sections	.debug_frame
  18              		.section	.text.put,"ax",%progbits
  19              		.align	2
  20              		.p2align 4,,15
  21              		.thumb
  22              		.thumb_func
  23              		.type	put, %function
  24              	put:
  25              	.LFB274:
  26              		.file 1 "../ChibiOS/os/hal/lib/streams/memstreams.c"
  27              		.loc 1 66 0
  28              		.cfi_startproc
  29              		@ args = 0, pretend = 0, frame = 0
  30              		@ frame_needed = 0, uses_anonymous_args = 0
  31              		@ link register save eliminated.
  32              	.LVL0:
  33              		.loc 1 69 0
  34 0000 C368     		ldr	r3, [r0, #12]
  35 0002 8268     		ldr	r2, [r0, #8]
  36 0004 9A42     		cmp	r2, r3
  37 0006 06D0     		beq	.L3
  38              		.loc 1 71 0
  39 0008 4268     		ldr	r2, [r0, #4]
  40 000a D154     		strb	r1, [r2, r3]
  41              		.loc 1 72 0
  42 000c C368     		ldr	r3, [r0, #12]
  43 000e 0133     		adds	r3, r3, #1
  44 0010 C360     		str	r3, [r0, #12]
  45              		.loc 1 73 0
  46 0012 0020     		movs	r0, #0
  47              	.LVL1:
  48 0014 7047     		bx	lr
  49              	.LVL2:
  50              	.L3:
  51              		.loc 1 70 0
  52 0016 6FF00100 		mvn	r0, #1
  53              	.LVL3:
  54              		.loc 1 74 0
  55 001a 7047     		bx	lr
  56              		.cfi_endproc
  57              	.LFE274:
ARM GAS  /tmp/ccKFnoS1.s 			page 2


  58              		.size	put, .-put
  59 001c AFF30080 		.section	.text.get,"ax",%progbits
  60              		.align	2
  61              		.p2align 4,,15
  62              		.thumb
  63              		.thumb_func
  64              		.type	get, %function
  65              	get:
  66              	.LFB275:
  67              		.loc 1 76 0
  68              		.cfi_startproc
  69              		@ args = 0, pretend = 0, frame = 0
  70              		@ frame_needed = 0, uses_anonymous_args = 0
  71              		@ link register save eliminated.
  72              	.LVL4:
  73              		.loc 1 80 0
  74 0000 0269     		ldr	r2, [r0, #16]
  75 0002 C168     		ldr	r1, [r0, #12]
  76 0004 9142     		cmp	r1, r2
  77              		.loc 1 76 0
  78 0006 0346     		mov	r3, r0
  79              	.LVL5:
  80              		.loc 1 80 0
  81 0008 04D0     		beq	.L7
  82              		.loc 1 82 0
  83 000a 4168     		ldr	r1, [r0, #4]
  84 000c 885C     		ldrb	r0, [r1, r2]	@ zero_extendqisi2
  85              	.LVL6:
  86              		.loc 1 83 0
  87 000e 0132     		adds	r2, r2, #1
  88              	.LVL7:
  89 0010 1A61     		str	r2, [r3, #16]
  90              	.LVL8:
  91              		.loc 1 84 0
  92 0012 7047     		bx	lr
  93              	.LVL9:
  94              	.L7:
  95              		.loc 1 81 0
  96 0014 6FF00100 		mvn	r0, #1
  97              	.LVL10:
  98              		.loc 1 85 0
  99 0018 7047     		bx	lr
 100              		.cfi_endproc
 101              	.LFE275:
 102              		.size	get, .-get
 103 001a 00BFAFF3 		.section	.text.reads,"ax",%progbits
 103      0080
 104              		.align	2
 105              		.p2align 4,,15
 106              		.thumb
 107              		.thumb_func
 108              		.type	reads, %function
 109              	reads:
 110              	.LFB273:
 111              		.loc 1 56 0
 112              		.cfi_startproc
 113              		@ args = 0, pretend = 0, frame = 0
ARM GAS  /tmp/ccKFnoS1.s 			page 3


 114              		@ frame_needed = 0, uses_anonymous_args = 0
 115              	.LVL11:
 116 0000 38B5     		push	{r3, r4, r5, lr}
 117              		.cfi_def_cfa_offset 16
 118              		.cfi_offset 3, -16
 119              		.cfi_offset 4, -12
 120              		.cfi_offset 5, -8
 121              		.cfi_offset 14, -4
 122              		.loc 1 56 0
 123 0002 0446     		mov	r4, r0
 124              	.LVL12:
 125              		.loc 1 61 0
 126 0004 0846     		mov	r0, r1
 127              	.LVL13:
 128              		.loc 1 59 0
 129 0006 2369     		ldr	r3, [r4, #16]
 130 0008 E568     		ldr	r5, [r4, #12]
 131              		.loc 1 61 0
 132 000a 6168     		ldr	r1, [r4, #4]
 133              	.LVL14:
 134              		.loc 1 59 0
 135 000c ED1A     		subs	r5, r5, r3
 136 000e AA42     		cmp	r2, r5
 137 0010 38BF     		it	cc
 138 0012 1546     		movcc	r5, r2
 139              	.LVL15:
 140              		.loc 1 61 0
 141 0014 1944     		add	r1, r1, r3
 142 0016 2A46     		mov	r2, r5
 143 0018 FFF7FEFF 		bl	memcpy
 144              	.LVL16:
 145              		.loc 1 62 0
 146 001c 2369     		ldr	r3, [r4, #16]
 147 001e 2B44     		add	r3, r3, r5
 148 0020 2361     		str	r3, [r4, #16]
 149              		.loc 1 64 0
 150 0022 2846     		mov	r0, r5
 151 0024 38BD     		pop	{r3, r4, r5, pc}
 152              		.cfi_endproc
 153              	.LFE273:
 154              		.size	reads, .-reads
 155 0026 00BFAFF3 		.section	.text.writes,"ax",%progbits
 155      0080AFF3 
 155      0080
 156              		.align	2
 157              		.p2align 4,,15
 158              		.thumb
 159              		.thumb_func
 160              		.type	writes, %function
 161              	writes:
 162              	.LFB272:
 163              		.loc 1 46 0
 164              		.cfi_startproc
 165              		@ args = 0, pretend = 0, frame = 0
 166              		@ frame_needed = 0, uses_anonymous_args = 0
 167              	.LVL17:
 168 0000 38B5     		push	{r3, r4, r5, lr}
ARM GAS  /tmp/ccKFnoS1.s 			page 4


 169              		.cfi_def_cfa_offset 16
 170              		.cfi_offset 3, -16
 171              		.cfi_offset 4, -12
 172              		.cfi_offset 5, -8
 173              		.cfi_offset 14, -4
 174              		.loc 1 49 0
 175 0002 C368     		ldr	r3, [r0, #12]
 176 0004 8568     		ldr	r5, [r0, #8]
 177              		.loc 1 46 0
 178 0006 0446     		mov	r4, r0
 179              	.LVL18:
 180              		.loc 1 49 0
 181 0008 ED1A     		subs	r5, r5, r3
 182              		.loc 1 51 0
 183 000a 4068     		ldr	r0, [r0, #4]
 184              	.LVL19:
 185 000c AA42     		cmp	r2, r5
 186 000e 38BF     		it	cc
 187 0010 1546     		movcc	r5, r2
 188              	.LVL20:
 189 0012 1844     		add	r0, r0, r3
 190 0014 2A46     		mov	r2, r5
 191 0016 FFF7FEFF 		bl	memcpy
 192              	.LVL21:
 193              		.loc 1 52 0
 194 001a E368     		ldr	r3, [r4, #12]
 195 001c 2B44     		add	r3, r3, r5
 196 001e E360     		str	r3, [r4, #12]
 197              		.loc 1 54 0
 198 0020 2846     		mov	r0, r5
 199 0022 38BD     		pop	{r3, r4, r5, pc}
 200              		.cfi_endproc
 201              	.LFE272:
 202              		.size	writes, .-writes
 203 0024 AFF30080 		.section	.text.msObjectInit,"ax",%progbits
 203      AFF30080 
 203      AFF30080 
 204              		.align	2
 205              		.p2align 4,,15
 206              		.global	msObjectInit
 207              		.thumb
 208              		.thumb_func
 209              		.type	msObjectInit, %function
 210              	msObjectInit:
 211              	.LFB276:
 212              		.loc 1 104 0
 213              		.cfi_startproc
 214              		@ args = 0, pretend = 0, frame = 0
 215              		@ frame_needed = 0, uses_anonymous_args = 0
 216              		@ link register save eliminated.
 217              	.LVL22:
 218 0000 10B4     		push	{r4}
 219              		.cfi_def_cfa_offset 4
 220              		.cfi_offset 4, -4
 221              		.loc 1 107 0
 222 0002 4160     		str	r1, [r0, #4]
 223              		.loc 1 106 0
ARM GAS  /tmp/ccKFnoS1.s 			page 5


 224 0004 044C     		ldr	r4, .L11
 225 0006 0460     		str	r4, [r0]
 226              		.loc 1 110 0
 227 0008 0021     		movs	r1, #0
 228              	.LVL23:
 229              		.loc 1 108 0
 230 000a 8260     		str	r2, [r0, #8]
 231              		.loc 1 109 0
 232 000c C360     		str	r3, [r0, #12]
 233              		.loc 1 110 0
 234 000e 0161     		str	r1, [r0, #16]
 235              		.loc 1 111 0
 236 0010 5DF8044B 		ldr	r4, [sp], #4
 237 0014 7047     		bx	lr
 238              	.L12:
 239 0016 00BF     		.align	2
 240              	.L11:
 241 0018 00000000 		.word	.LANCHOR0
 242              		.cfi_endproc
 243              	.LFE276:
 244              		.size	msObjectInit, .-msObjectInit
 245 001c AFF30080 		.section	.rodata.vmt,"a",%progbits
 246              		.align	2
 247              		.set	.LANCHOR0,. + 0
 248              		.type	vmt, %object
 249              		.size	vmt, 16
 250              	vmt:
 251 0000 00000000 		.word	writes
 252 0004 00000000 		.word	reads
 253 0008 00000000 		.word	put
 254 000c 00000000 		.word	get
 255              		.text
 256              	.Letext0:
 257              		.file 2 "/nfs/nfs5/home/research/hardware/arm2/gcc-arm-embedded/gcc-arm-none-eabi-4_8-2014q2/lib/g
 258              		.file 3 "/nfs/nfs5/home/research/hardware/arm2/gcc-arm-embedded/gcc-arm-none-eabi-4_8-2014q2/arm-n
 259              		.file 4 "/nfs/nfs5/home/research/hardware/arm2/gcc-arm-embedded/gcc-arm-none-eabi-4_8-2014q2/arm-n
 260              		.file 5 "../ChibiOS/os/rt/ports/ARMCMx/compilers/GCC/chtypes.h"
 261              		.file 6 "../ChibiOS/os/rt/include/chsystypes.h"
 262              		.file 7 "../ChibiOS/os/rt/include/chschd.h"
 263              		.file 8 "../ChibiOS/os/rt/ports/ARMCMx/chcore.h"
 264              		.file 9 "../ChibiOS/os/rt/ports/ARMCMx/chcore_v7m.h"
 265              		.file 10 "../ChibiOS/os/rt/include/chtm.h"
 266              		.file 11 "../ChibiOS/os/rt/include/chsem.h"
 267              		.file 12 "../ChibiOS/os/rt/include/chmtx.h"
 268              		.file 13 "../ChibiOS/os/hal/lib/streams/memstreams.h"
 269              		.file 14 "../ChibiOS/os/ext/CMSIS/include/core_cm4.h"