ARM GAS  /tmp/ccCmsSUX.s 			page 1


   1              		.syntax unified
   2              		.cpu cortex-m4
   3              		.fpu softvfp
   4              		.eabi_attribute 20, 1
   5              		.eabi_attribute 21, 1
   6              		.eabi_attribute 23, 3
   7              		.eabi_attribute 24, 1
   8              		.eabi_attribute 25, 1
   9              		.eabi_attribute 26, 1
  10              		.eabi_attribute 30, 2
  11              		.eabi_attribute 34, 1
  12              		.eabi_attribute 18, 4
  13              		.thumb
  14              		.file	"testqueues.c"
  15              		.text
  16              	.Ltext0:
  17              		.cfi_sections	.debug_frame
  18              		.section	.text.notify,"ax",%progbits
  19              		.align	2
  20              		.p2align 4,,15
  21              		.thumb
  22              		.thumb_func
  23              		.type	notify, %function
  24              	notify:
  25              	.LFB241:
  26              		.file 1 "../ChibiOS/test/rt/testqueues.c"
  27              		.loc 1 57 0
  28              		.cfi_startproc
  29              		@ args = 0, pretend = 0, frame = 0
  30              		@ frame_needed = 0, uses_anonymous_args = 0
  31              		@ link register save eliminated.
  32              	.LVL0:
  33 0000 7047     		bx	lr
  34              		.cfi_endproc
  35              	.LFE241:
  36              		.size	notify, .-notify
  37 0002 00BFAFF3 		.section	.text.thread1,"ax",%progbits
  37      0080AFF3 
  37      0080AFF3 
  37      0080
  38              		.align	2
  39              		.p2align 4,,15
  40              		.thumb
  41              		.thumb_func
  42              		.type	thread1, %function
  43              	thread1:
  44              	.LFB243:
  45              		.loc 1 83 0
  46              		.cfi_startproc
  47              		@ args = 0, pretend = 0, frame = 0
  48              		@ frame_needed = 0, uses_anonymous_args = 0
  49              		@ link register save eliminated.
  50              	.LVL1:
  51              		.loc 1 86 0
  52 0000 0248     		ldr	r0, .L3
  53              	.LVL2:
  54 0002 4FF4FA61 		mov	r1, #2000
ARM GAS  /tmp/ccCmsSUX.s 			page 2


  55 0006 FFF7FEBF 		b	chIQGetTimeout
  56              	.LVL3:
  57              	.L4:
  58 000a 00BF     		.align	2
  59              	.L3:
  60 000c 00000000 		.word	.LANCHOR0
  61              		.cfi_endproc
  62              	.LFE243:
  63              		.size	thread1, .-thread1
  64              		.section	.text.queues1_setup,"ax",%progbits
  65              		.align	2
  66              		.p2align 4,,15
  67              		.thumb
  68              		.thumb_func
  69              		.type	queues1_setup, %function
  70              	queues1_setup:
  71              	.LFB242:
  72              		.loc 1 78 0
  73              		.cfi_startproc
  74              		@ args = 0, pretend = 0, frame = 0
  75              		@ frame_needed = 0, uses_anonymous_args = 0
  76 0000 00B5     		push	{lr}
  77              		.cfi_def_cfa_offset 4
  78              		.cfi_offset 14, -4
  79              		.loc 1 80 0
  80 0002 064B     		ldr	r3, .L6
  81 0004 0648     		ldr	r0, .L6+4
  82 0006 1968     		ldr	r1, [r3]
  83 0008 064B     		ldr	r3, .L6+8
  84              		.loc 1 78 0
  85 000a 83B0     		sub	sp, sp, #12
  86              		.cfi_def_cfa_offset 16
  87              		.loc 1 80 0
  88 000c 0022     		movs	r2, #0
  89 000e 0092     		str	r2, [sp]
  90 0010 0422     		movs	r2, #4
  91 0012 FFF7FEFF 		bl	chIQObjectInit
  92              	.LVL4:
  93              		.loc 1 81 0
  94 0016 03B0     		add	sp, sp, #12
  95              		@ sp needed
  96 0018 5DF804FB 		ldr	pc, [sp], #4
  97              	.L7:
  98              		.align	2
  99              	.L6:
 100 001c 00000000 		.word	wa
 101 0020 00000000 		.word	.LANCHOR0
 102 0024 00000000 		.word	notify
 103              		.cfi_endproc
 104              	.LFE242:
 105              		.size	queues1_setup, .-queues1_setup
 106 0028 AFF30080 		.section	.text.thread2,"ax",%progbits
 106      AFF30080 
 107              		.align	2
 108              		.p2align 4,,15
 109              		.thumb
 110              		.thumb_func
ARM GAS  /tmp/ccCmsSUX.s 			page 3


 111              		.type	thread2, %function
 112              	thread2:
 113              	.LFB246:
 114              		.loc 1 169 0
 115              		.cfi_startproc
 116              		@ args = 0, pretend = 0, frame = 0
 117              		@ frame_needed = 0, uses_anonymous_args = 0
 118              		@ link register save eliminated.
 119              	.LVL5:
 120              		.loc 1 172 0
 121 0000 0248     		ldr	r0, .L9
 122              	.LVL6:
 123 0002 0021     		movs	r1, #0
 124 0004 4FF4FA62 		mov	r2, #2000
 125 0008 FFF7FEBF 		b	chOQPutTimeout
 126              	.LVL7:
 127              	.L10:
 128              		.align	2
 129              	.L9:
 130 000c 00000000 		.word	.LANCHOR1
 131              		.cfi_endproc
 132              	.LFE246:
 133              		.size	thread2, .-thread2
 134              		.section	.text.queues2_setup,"ax",%progbits
 135              		.align	2
 136              		.p2align 4,,15
 137              		.thumb
 138              		.thumb_func
 139              		.type	queues2_setup, %function
 140              	queues2_setup:
 141              	.LFB245:
 142              		.loc 1 164 0
 143              		.cfi_startproc
 144              		@ args = 0, pretend = 0, frame = 0
 145              		@ frame_needed = 0, uses_anonymous_args = 0
 146 0000 00B5     		push	{lr}
 147              		.cfi_def_cfa_offset 4
 148              		.cfi_offset 14, -4
 149              		.loc 1 166 0
 150 0002 064B     		ldr	r3, .L12
 151 0004 0648     		ldr	r0, .L12+4
 152 0006 1968     		ldr	r1, [r3]
 153 0008 064B     		ldr	r3, .L12+8
 154              		.loc 1 164 0
 155 000a 83B0     		sub	sp, sp, #12
 156              		.cfi_def_cfa_offset 16
 157              		.loc 1 166 0
 158 000c 0022     		movs	r2, #0
 159 000e 0092     		str	r2, [sp]
 160 0010 0422     		movs	r2, #4
 161 0012 FFF7FEFF 		bl	chOQObjectInit
 162              	.LVL8:
 163              		.loc 1 167 0
 164 0016 03B0     		add	sp, sp, #12
 165              		@ sp needed
 166 0018 5DF804FB 		ldr	pc, [sp], #4
 167              	.L13:
ARM GAS  /tmp/ccCmsSUX.s 			page 4


 168              		.align	2
 169              	.L12:
 170 001c 00000000 		.word	wa
 171 0020 00000000 		.word	.LANCHOR1
 172 0024 00000000 		.word	notify
 173              		.cfi_endproc
 174              	.LFE245:
 175              		.size	queues2_setup, .-queues2_setup
 176 0028 AFF30080 		.section	.text.queues1_execute,"ax",%progbits
 176      AFF30080 
 177              		.align	2
 178              		.p2align 4,,15
 179              		.thumb
 180              		.thumb_func
 181              		.type	queues1_execute, %function
 182              	queues1_execute:
 183              	.LFB244:
 184              		.loc 1 89 0
 185              		.cfi_startproc
 186              		@ args = 0, pretend = 0, frame = 0
 187              		@ frame_needed = 0, uses_anonymous_args = 0
 188              	.LVL9:
 189 0000 2DE9F041 		push	{r4, r5, r6, r7, r8, lr}
 190              		.cfi_def_cfa_offset 24
 191              		.cfi_offset 4, -24
 192              		.cfi_offset 5, -20
 193              		.cfi_offset 6, -16
 194              		.cfi_offset 7, -12
 195              		.cfi_offset 8, -8
 196              		.cfi_offset 14, -4
 197              	.LBB882:
 198              	.LBB883:
 199              	.LBB884:
 200              	.LBB885:
 201              		.file 2 "../ChibiOS/os/ext/CMSIS/include/core_cmFunc.h"
 202              		.loc 2 548 0
 203 0004 2024     		movs	r4, #32
 204              	.LBE885:
 205              	.LBE884:
 206              	.LBE883:
 207              	.LBE882:
 208              		.loc 1 89 0
 209 0006 82B0     		sub	sp, sp, #8
 210              		.cfi_def_cfa_offset 32
 211              	.LBB889:
 212              	.LBB888:
 213              	.LBB887:
 214              	.LBB886:
 215              		.loc 2 548 0
 216              	@ 548 "../ChibiOS/os/ext/CMSIS/include/core_cmFunc.h" 1
 217 0008 84F31188 		MSR basepri, r4
 218              	@ 0 "" 2
 219              	.LVL10:
 220              		.thumb
 221              	.LBE886:
 222              	.LBE887:
 223              	.LBE888:
ARM GAS  /tmp/ccCmsSUX.s 			page 5


 224              	.LBE889:
 225              	.LBB890:
 226              	.LBB891:
 227              		.file 3 "../ChibiOS/os/rt/include/chqueues.h"
 228              		.loc 3 307 0
 229 000c 924B     		ldr	r3, .L40
 230 000e 9968     		ldr	r1, [r3, #8]
 231              	.LBE891:
 232              	.LBE890:
 233              		.loc 1 94 0
 234 0010 D1F10101 		rsbs	r1, r1, #1
 235 0014 4FF00100 		mov	r0, #1
 236 0018 38BF     		it	cc
 237 001a 0021     		movcc	r1, #0
 238 001c FFF7FEFF 		bl	_test_assert
 239              	.LVL11:
 240 0020 0646     		mov	r6, r0
 241 0022 E8B9     		cbnz	r0, .L36
 242              	.LVL12:
 243              	.LBB892:
 244              	.LBB893:
 245              	.LBB894:
 246              	.LBB895:
 247              	.LBB896:
 248              		.loc 2 548 0
 249              	@ 548 "../ChibiOS/os/ext/CMSIS/include/core_cmFunc.h" 1
 250 0024 80F31188 		MSR basepri, r0
 251              	@ 0 "" 2
 252              	.LVL13:
 253              		.thumb
 254              	.LBE896:
 255              	.LBE895:
 256              	.LBE894:
 257              	.LBE893:
 258              	.LBE892:
 259              	.LBB897:
 260              	.LBB898:
 261              	.LBB899:
 262              	.LBB900:
 263              	@ 548 "../ChibiOS/os/ext/CMSIS/include/core_cmFunc.h" 1
 264 0028 84F31188 		MSR basepri, r4
 265              	@ 0 "" 2
 266              	.LVL14:
 267              		.thumb
 268 002c 4124     		movs	r4, #65
 269              	.LVL15:
 270              	.L18:
 271              	.LBE900:
 272              	.LBE899:
 273              	.LBE898:
 274              	.LBE897:
 275              		.loc 1 99 0 discriminator 2
 276 002e 8A4D     		ldr	r5, .L40
 277 0030 2146     		mov	r1, r4
 278 0032 0134     		adds	r4, r4, #1
 279 0034 2846     		mov	r0, r5
 280 0036 E4B2     		uxtb	r4, r4
ARM GAS  /tmp/ccCmsSUX.s 			page 6


 281 0038 FFF7FEFF 		bl	chIQPutI
 282              	.LVL16:
 283              		.loc 1 98 0 discriminator 2
 284 003c 452C     		cmp	r4, #69
 285 003e F6D1     		bne	.L18
 286              	.LVL17:
 287              	.LBB901:
 288              	.LBB902:
 289              	.LBB903:
 290              	.LBB904:
 291              	.LBB905:
 292              		.loc 2 548 0
 293 0040 0023     		movs	r3, #0
 294              	@ 548 "../ChibiOS/os/ext/CMSIS/include/core_cmFunc.h" 1
 295 0042 83F31188 		MSR basepri, r3
 296              	@ 0 "" 2
 297              	.LVL18:
 298              		.thumb
 299              	.LBE905:
 300              	.LBE904:
 301              	.LBE903:
 302              	.LBE902:
 303              	.LBE901:
 304              	.LBB906:
 305              	.LBB907:
 306              	.LBB908:
 307              	.LBB909:
 308 0046 2023     		movs	r3, #32
 309              	@ 548 "../ChibiOS/os/ext/CMSIS/include/core_cmFunc.h" 1
 310 0048 83F31188 		MSR basepri, r3
 311              	@ 0 "" 2
 312              	.LVL19:
 313              		.thumb
 314              	.LBE909:
 315              	.LBE908:
 316              	.LBE907:
 317              	.LBE906:
 318              	.LBB910:
 319              	.LBB911:
 320              		.loc 3 325 0
 321 004c 6A69     		ldr	r2, [r5, #20]
 322 004e AB69     		ldr	r3, [r5, #24]
 323 0050 9A42     		cmp	r2, r3
 324 0052 3BD0     		beq	.L39
 325              	.L19:
 326              	.LBE911:
 327              	.LBE910:
 328              		.loc 1 101 0
 329 0054 3146     		mov	r1, r6
 330 0056 0220     		movs	r0, #2
 331 0058 FFF7FEFF 		bl	_test_assert
 332              	.LVL20:
 333 005c 0446     		mov	r4, r0
 334 005e 28B1     		cbz	r0, .L20
 335              	.LVL21:
 336              	.L36:
 337              	.LBB913:
ARM GAS  /tmp/ccCmsSUX.s 			page 7


 338              	.LBB914:
 339              	.LBB915:
 340              	.LBB916:
 341              	.LBB917:
 342              		.loc 2 548 0
 343 0060 0023     		movs	r3, #0
 344              	@ 548 "../ChibiOS/os/ext/CMSIS/include/core_cmFunc.h" 1
 345 0062 83F31188 		MSR basepri, r3
 346              	@ 0 "" 2
 347              	.LVL22:
 348              		.thumb
 349              	.L14:
 350              	.LBE917:
 351              	.LBE916:
 352              	.LBE915:
 353              	.LBE914:
 354              	.LBE913:
 355              		.loc 1 146 0
 356 0066 02B0     		add	sp, sp, #8
 357              		@ sp needed
 358 0068 BDE8F081 		pop	{r4, r5, r6, r7, r8, pc}
 359              	.LVL23:
 360              	.L20:
 361              	.LBB918:
 362              	.LBB919:
 363              	.LBB920:
 364              	.LBB921:
 365              	.LBB922:
 366              	.LBB923:
 367              	.LBB924:
 368              		.loc 2 548 0
 369              	@ 548 "../ChibiOS/os/ext/CMSIS/include/core_cmFunc.h" 1
 370 006c 80F31188 		MSR basepri, r0
 371              	@ 0 "" 2
 372              	.LVL24:
 373              		.thumb
 374              	.LBE924:
 375              	.LBE923:
 376              	.LBE922:
 377              	.LBE921:
 378              	.LBE920:
 379              	.LBB925:
 380              	.LBB926:
 381              	.LBB927:
 382              	.LBB928:
 383 0070 2023     		movs	r3, #32
 384              	@ 548 "../ChibiOS/os/ext/CMSIS/include/core_cmFunc.h" 1
 385 0072 83F31188 		MSR basepri, r3
 386              	@ 0 "" 2
 387              		.thumb
 388              	.LBE928:
 389              	.LBE927:
 390              	.LBE926:
 391              	.LBE925:
 392              		.loc 1 102 0
 393 0076 7848     		ldr	r0, .L40
 394 0078 2146     		mov	r1, r4
ARM GAS  /tmp/ccCmsSUX.s 			page 8


 395 007a FFF7FEFF 		bl	chIQPutI
 396              	.LVL25:
 397 007e 0430     		adds	r0, r0, #4
 398 0080 14BF     		ite	ne
 399 0082 0021     		movne	r1, #0
 400 0084 0121     		moveq	r1, #1
 401 0086 0320     		movs	r0, #3
 402 0088 FFF7FEFF 		bl	_test_assert
 403              	.LVL26:
 404 008c C8B9     		cbnz	r0, .L37
 405              	.LVL27:
 406              	.LBB929:
 407              	.LBB930:
 408              	.LBB931:
 409              	.LBB932:
 410              	.LBB933:
 411              		.loc 2 548 0
 412              	@ 548 "../ChibiOS/os/ext/CMSIS/include/core_cmFunc.h" 1
 413 008e 80F31188 		MSR basepri, r0
 414              	@ 0 "" 2
 415              	.LVL28:
 416              		.thumb
 417 0092 0424     		movs	r4, #4
 418              	.LVL29:
 419              	.L23:
 420              	.LBE933:
 421              	.LBE932:
 422              	.LBE931:
 423              	.LBE930:
 424              	.LBE929:
 425              	.LBB934:
 426              	.LBB935:
 427              		.loc 3 343 0
 428 0094 704D     		ldr	r5, .L40
 429 0096 4FF0FF31 		mov	r1, #-1
 430 009a 2846     		mov	r0, r5
 431 009c FFF7FEFF 		bl	chIQGetTimeout
 432              	.LVL30:
 433              	.LBE935:
 434              	.LBE934:
 435              		.loc 1 106 0
 436 00a0 C0B2     		uxtb	r0, r0
 437 00a2 FFF7FEFF 		bl	test_emit_token
 438              	.LVL31:
 439              		.loc 1 105 0
 440 00a6 013C     		subs	r4, r4, #1
 441              	.LVL32:
 442 00a8 F4D1     		bne	.L23
 443              	.LVL33:
 444              	.LBB936:
 445              	.LBB937:
 446              	.LBB938:
 447              	.LBB939:
 448              		.loc 2 548 0
 449 00aa 2026     		movs	r6, #32
 450              	@ 548 "../ChibiOS/os/ext/CMSIS/include/core_cmFunc.h" 1
 451 00ac 86F31188 		MSR basepri, r6
ARM GAS  /tmp/ccCmsSUX.s 			page 9


 452              	@ 0 "" 2
 453              	.LVL34:
 454              		.thumb
 455              	.LBE939:
 456              	.LBE938:
 457              	.LBE937:
 458              	.LBE936:
 459              	.LBB940:
 460              	.LBB941:
 461              		.loc 3 307 0
 462 00b0 A968     		ldr	r1, [r5, #8]
 463              	.LBE941:
 464              	.LBE940:
 465              		.loc 1 107 0
 466 00b2 D1F10101 		rsbs	r1, r1, #1
 467 00b6 38BF     		it	cc
 468 00b8 0021     		movcc	r1, #0
 469 00ba 0420     		movs	r0, #4
 470 00bc FFF7FEFF 		bl	_test_assert
 471              	.LVL35:
 472 00c0 48B1     		cbz	r0, .L24
 473              	.LVL36:
 474              	.L37:
 475              	.LBB942:
 476              	.LBB943:
 477              	.LBB944:
 478              	.LBB945:
 479              	.LBB946:
 480              		.loc 2 548 0
 481              	@ 548 "../ChibiOS/os/ext/CMSIS/include/core_cmFunc.h" 1
 482 00c2 84F31188 		MSR basepri, r4
 483              	@ 0 "" 2
 484              		.thumb
 485              	.LBE946:
 486              	.LBE945:
 487              	.LBE944:
 488              	.LBE943:
 489              	.LBE942:
 490              	.LBE919:
 491              	.LBE918:
 492              		.loc 1 146 0
 493 00c6 02B0     		add	sp, sp, #8
 494              		@ sp needed
 495 00c8 BDE8F081 		pop	{r4, r5, r6, r7, r8, pc}
 496              	.LVL37:
 497              	.L39:
 498              	.LBB1036:
 499              	.LBB912:
 500              		.loc 3 325 0
 501 00cc AE68     		ldr	r6, [r5, #8]
 502 00ce 0036     		adds	r6, r6, #0
 503 00d0 18BF     		it	ne
 504 00d2 0126     		movne	r6, #1
 505 00d4 BEE7     		b	.L19
 506              	.LVL38:
 507              	.L24:
 508              	.LBE912:
ARM GAS  /tmp/ccCmsSUX.s 			page 10


 509              	.LBE1036:
 510              	.LBB1037:
 511              	.LBB1034:
 512              	.LBB947:
 513              	.LBB948:
 514              	.LBB949:
 515              	.LBB950:
 516              	.LBB951:
 517              		.loc 2 548 0
 518              	@ 548 "../ChibiOS/os/ext/CMSIS/include/core_cmFunc.h" 1
 519 00d6 84F31188 		MSR basepri, r4
 520              	@ 0 "" 2
 521              		.thumb
 522              	.LBE951:
 523              	.LBE950:
 524              	.LBE949:
 525              	.LBE948:
 526              	.LBE947:
 527              		.loc 1 108 0
 528 00da 0520     		movs	r0, #5
 529 00dc 5F49     		ldr	r1, .L40+4
 530 00de FFF7FEFF 		bl	_test_assert_sequence
 531              	.LVL39:
 532 00e2 0028     		cmp	r0, #0
 533 00e4 BFD1     		bne	.L14
 534              	.LVL40:
 535              	.LBB952:
 536              	.LBB953:
 537              	.LBB954:
 538              	.LBB955:
 539              		.loc 2 548 0
 540              	@ 548 "../ChibiOS/os/ext/CMSIS/include/core_cmFunc.h" 1
 541 00e6 86F31188 		MSR basepri, r6
 542              	@ 0 "" 2
 543              	.LVL41:
 544              		.thumb
 545 00ea 4124     		movs	r4, #65
 546              	.LVL42:
 547              	.L27:
 548              	.LBE955:
 549              	.LBE954:
 550              	.LBE953:
 551              	.LBE952:
 552              		.loc 1 113 0
 553 00ec 5A4D     		ldr	r5, .L40
 554 00ee 2146     		mov	r1, r4
 555 00f0 0134     		adds	r4, r4, #1
 556 00f2 2846     		mov	r0, r5
 557 00f4 E4B2     		uxtb	r4, r4
 558 00f6 FFF7FEFF 		bl	chIQPutI
 559              	.LVL43:
 560              		.loc 1 112 0
 561 00fa 452C     		cmp	r4, #69
 562 00fc F6D1     		bne	.L27
 563              	.LVL44:
 564              	.LBB956:
 565              	.LBB957:
ARM GAS  /tmp/ccCmsSUX.s 			page 11


 566              	.LBB958:
 567              	.LBB959:
 568              	.LBB960:
 569              		.loc 2 548 0
 570 00fe 0023     		movs	r3, #0
 571              	@ 548 "../ChibiOS/os/ext/CMSIS/include/core_cmFunc.h" 1
 572 0100 83F31188 		MSR basepri, r3
 573              	@ 0 "" 2
 574              		.thumb
 575              	.LBE960:
 576              	.LBE959:
 577              	.LBE958:
 578              	.LBE957:
 579              	.LBE956:
 580              		.loc 1 117 0
 581 0104 564E     		ldr	r6, .L40+8
 582 0106 0822     		movs	r2, #8
 583 0108 7168     		ldr	r1, [r6, #4]
 584 010a 2846     		mov	r0, r5
 585 010c FFF7FEFF 		bl	chIQReadTimeout
 586              	.LVL45:
 587              		.loc 1 118 0
 588 0110 041F     		subs	r4, r0, #4
 589 0112 6142     		rsbs	r1, r4, #0
 590 0114 6141     		adcs	r1, r1, r4
 591 0116 0620     		movs	r0, #6
 592              	.LVL46:
 593 0118 FFF7FEFF 		bl	_test_assert
 594              	.LVL47:
 595 011c 0446     		mov	r4, r0
 596              	.LVL48:
 597 011e 0028     		cmp	r0, #0
 598 0120 A1D1     		bne	.L14
 599              	.LVL49:
 600              	.LBB961:
 601              	.LBB962:
 602              	.LBB963:
 603              	.LBB964:
 604              		.loc 2 548 0
 605 0122 2027     		movs	r7, #32
 606              	@ 548 "../ChibiOS/os/ext/CMSIS/include/core_cmFunc.h" 1
 607 0124 87F31188 		MSR basepri, r7
 608              	@ 0 "" 2
 609              	.LVL50:
 610              		.thumb
 611              	.LBE964:
 612              	.LBE963:
 613              	.LBE962:
 614              	.LBE961:
 615              	.LBB965:
 616              	.LBB966:
 617              		.loc 3 307 0
 618 0128 A968     		ldr	r1, [r5, #8]
 619              	.LBE966:
 620              	.LBE965:
 621              		.loc 1 119 0
 622 012a D1F10101 		rsbs	r1, r1, #1
ARM GAS  /tmp/ccCmsSUX.s 			page 12


 623 012e 38BF     		it	cc
 624 0130 0021     		movcc	r1, #0
 625 0132 0720     		movs	r0, #7
 626 0134 FFF7FEFF 		bl	_test_assert
 627              	.LVL51:
 628 0138 0028     		cmp	r0, #0
 629 013a C2D1     		bne	.L37
 630              	.LVL52:
 631              	.LBB967:
 632              	.LBB968:
 633              	.LBB969:
 634              	.LBB970:
 635              	.LBB971:
 636              		.loc 2 548 0
 637              	@ 548 "../ChibiOS/os/ext/CMSIS/include/core_cmFunc.h" 1
 638 013c 80F31188 		MSR basepri, r0
 639              	@ 0 "" 2
 640              	.LVL53:
 641              		.thumb
 642              	.LBE971:
 643              	.LBE970:
 644              	.LBE969:
 645              	.LBE968:
 646              	.LBE967:
 647              	.LBB972:
 648              	.LBB973:
 649              	.LBB974:
 650              	.LBB975:
 651              	@ 548 "../ChibiOS/os/ext/CMSIS/include/core_cmFunc.h" 1
 652 0140 87F31188 		MSR basepri, r7
 653              	@ 0 "" 2
 654              	.LVL54:
 655              		.thumb
 656 0144 4124     		movs	r4, #65
 657              	.LVL55:
 658              	.L31:
 659              	.LBE975:
 660              	.LBE974:
 661              	.LBE973:
 662              	.LBE972:
 663              		.loc 1 124 0
 664 0146 444D     		ldr	r5, .L40
 665 0148 2146     		mov	r1, r4
 666 014a 0134     		adds	r4, r4, #1
 667 014c 2846     		mov	r0, r5
 668 014e E4B2     		uxtb	r4, r4
 669 0150 FFF7FEFF 		bl	chIQPutI
 670              	.LVL56:
 671              		.loc 1 123 0
 672 0154 452C     		cmp	r4, #69
 673 0156 F6D1     		bne	.L31
 674              	.LVL57:
 675              	.LBB976:
 676              	.LBB977:
 677              	.LBB978:
 678              	.LBB979:
 679              	.LBB980:
ARM GAS  /tmp/ccCmsSUX.s 			page 13


 680              		.loc 2 548 0
 681 0158 0023     		movs	r3, #0
 682              	@ 548 "../ChibiOS/os/ext/CMSIS/include/core_cmFunc.h" 1
 683 015a 83F31188 		MSR basepri, r3
 684              	@ 0 "" 2
 685              		.thumb
 686              	.LBE980:
 687              	.LBE979:
 688              	.LBE978:
 689              	.LBE977:
 690              	.LBE976:
 691              		.loc 1 128 0
 692 015e 7468     		ldr	r4, [r6, #4]
 693 0160 DFF8FC80 		ldr	r8, .L40+8
 694 0164 2146     		mov	r1, r4
 695 0166 2846     		mov	r0, r5
 696 0168 0222     		movs	r2, #2
 697 016a FFF7FEFF 		bl	chIQReadTimeout
 698              	.LVL58:
 699              		.loc 1 129 0
 700 016e 0238     		subs	r0, r0, #2
 701              	.LVL59:
 702 0170 4142     		rsbs	r1, r0, #0
 703 0172 4141     		adcs	r1, r1, r0
 704 0174 0820     		movs	r0, #8
 705              	.LVL60:
 706 0176 FFF7FEFF 		bl	_test_assert
 707              	.LVL61:
 708 017a 0028     		cmp	r0, #0
 709 017c 7FF473AF 		bne	.L14
 710              		.loc 1 130 0
 711 0180 0346     		mov	r3, r0
 712 0182 2146     		mov	r1, r4
 713 0184 0222     		movs	r2, #2
 714 0186 2846     		mov	r0, r5
 715 0188 FFF7FEFF 		bl	chIQReadTimeout
 716              	.LVL62:
 717              		.loc 1 131 0
 718 018c 821E     		subs	r2, r0, #2
 719 018e 5142     		rsbs	r1, r2, #0
 720 0190 5141     		adcs	r1, r1, r2
 721 0192 0920     		movs	r0, #9
 722              	.LVL63:
 723 0194 FFF7FEFF 		bl	_test_assert
 724              	.LVL64:
 725 0198 0746     		mov	r7, r0
 726 019a 0028     		cmp	r0, #0
 727 019c 7FF463AF 		bne	.L14
 728              	.LVL65:
 729              	.LBB981:
 730              	.LBB982:
 731              	.LBB983:
 732              	.LBB984:
 733              		.loc 2 548 0
 734 01a0 2026     		movs	r6, #32
 735              	@ 548 "../ChibiOS/os/ext/CMSIS/include/core_cmFunc.h" 1
 736 01a2 86F31188 		MSR basepri, r6
ARM GAS  /tmp/ccCmsSUX.s 			page 14


 737              	@ 0 "" 2
 738              	.LVL66:
 739              		.thumb
 740              	.LBE984:
 741              	.LBE983:
 742              	.LBE982:
 743              	.LBE981:
 744              	.LBB985:
 745              	.LBB986:
 746              		.loc 3 307 0
 747 01a6 A968     		ldr	r1, [r5, #8]
 748              	.LBE986:
 749              	.LBE985:
 750              		.loc 1 132 0
 751 01a8 D1F10101 		rsbs	r1, r1, #1
 752 01ac 4FF00A00 		mov	r0, #10
 753 01b0 38BF     		it	cc
 754 01b2 0021     		movcc	r1, #0
 755 01b4 FFF7FEFF 		bl	_test_assert
 756              	.LVL67:
 757 01b8 0446     		mov	r4, r0
 758 01ba 10B1     		cbz	r0, .L32
 759              	.L35:
 760              	.LVL68:
 761              	.LBB987:
 762              	.LBB988:
 763              	.LBB989:
 764              	.LBB990:
 765              	.LBB991:
 766              		.loc 2 548 0
 767              	@ 548 "../ChibiOS/os/ext/CMSIS/include/core_cmFunc.h" 1
 768 01bc 87F31188 		MSR basepri, r7
 769              	@ 0 "" 2
 770              		.thumb
 771 01c0 51E7     		b	.L14
 772              	.LVL69:
 773              	.L32:
 774              	.LBE991:
 775              	.LBE990:
 776              	.LBE989:
 777              	.LBE988:
 778              	.LBE987:
 779              	.LBB992:
 780              	.LBB993:
 781              	.LBB994:
 782              	.LBB995:
 783              	.LBB996:
 784              	@ 548 "../ChibiOS/os/ext/CMSIS/include/core_cmFunc.h" 1
 785 01c2 80F31188 		MSR basepri, r0
 786              	@ 0 "" 2
 787              	.LVL70:
 788              		.thumb
 789              	.LBE996:
 790              	.LBE995:
 791              	.LBE994:
 792              	.LBE993:
 793              	.LBE992:
ARM GAS  /tmp/ccCmsSUX.s 			page 15


 794              	.LBB997:
 795              	.LBB998:
 796              	.LBB999:
 797              	.LBB1000:
 798              	@ 548 "../ChibiOS/os/ext/CMSIS/include/core_cmFunc.h" 1
 799 01c6 86F31188 		MSR basepri, r6
 800              	@ 0 "" 2
 801              		.thumb
 802              	.LBE1000:
 803              	.LBE999:
 804              	.LBE998:
 805              	.LBE997:
 806              		.loc 1 136 0
 807 01ca 2146     		mov	r1, r4
 808 01cc 2846     		mov	r0, r5
 809 01ce FFF7FEFF 		bl	chIQPutI
 810              	.LVL71:
 811              		.loc 1 137 0
 812 01d2 2846     		mov	r0, r5
 813 01d4 FFF7FEFF 		bl	chIQResetI
 814              	.LVL72:
 815              	.LBB1001:
 816              	.LBB1002:
 817              	.LBB1003:
 818              	.LBB1004:
 819              	.LBB1005:
 820              		.loc 2 548 0
 821              	@ 548 "../ChibiOS/os/ext/CMSIS/include/core_cmFunc.h" 1
 822 01d8 84F31188 		MSR basepri, r4
 823              	@ 0 "" 2
 824              	.LVL73:
 825              		.thumb
 826              	.LBE1005:
 827              	.LBE1004:
 828              	.LBE1003:
 829              	.LBE1002:
 830              	.LBE1001:
 831              	.LBB1006:
 832              	.LBB1007:
 833              	.LBB1008:
 834              	.LBB1009:
 835              	@ 548 "../ChibiOS/os/ext/CMSIS/include/core_cmFunc.h" 1
 836 01dc 86F31188 		MSR basepri, r6
 837              	@ 0 "" 2
 838              	.LVL74:
 839              		.thumb
 840              	.LBE1009:
 841              	.LBE1008:
 842              	.LBE1007:
 843              	.LBE1006:
 844              	.LBB1010:
 845              	.LBB1011:
 846              		.loc 3 274 0
 847 01e0 A968     		ldr	r1, [r5, #8]
 848              	.LBE1011:
 849              	.LBE1010:
 850              		.loc 1 139 0
ARM GAS  /tmp/ccCmsSUX.s 			page 16


 851 01e2 D1F10101 		rsbs	r1, r1, #1
 852 01e6 4FF00B00 		mov	r0, #11
 853 01ea 38BF     		it	cc
 854 01ec 0021     		movcc	r1, #0
 855 01ee FFF7FEFF 		bl	_test_assert
 856              	.LVL75:
 857 01f2 0746     		mov	r7, r0
 858 01f4 0028     		cmp	r0, #0
 859 01f6 7FF464AF 		bne	.L37
 860              	.LVL76:
 861              	.LBB1012:
 862              	.LBB1013:
 863              	.LBB1014:
 864              	.LBB1015:
 865              	.LBB1016:
 866              		.loc 2 548 0
 867              	@ 548 "../ChibiOS/os/ext/CMSIS/include/core_cmFunc.h" 1
 868 01fa 80F31188 		MSR basepri, r0
 869              	@ 0 "" 2
 870              		.thumb
 871              	.LBE1016:
 872              	.LBE1015:
 873              	.LBE1014:
 874              	.LBE1013:
 875              	.LBE1012:
 876              	.LBB1017:
 877              	.LBB1018:
 878              	.LBB1019:
 879              	.LBB1020:
 880              		.file 4 "../ChibiOS/os/rt/include/chthreads.h"
 881              		.loc 4 176 0
 882 01fe 194B     		ldr	r3, .L40+12
 883              	.LBE1020:
 884              	.LBE1019:
 885              	.LBE1018:
 886              	.LBE1017:
 887              		.loc 1 140 0
 888 0200 D8F80000 		ldr	r0, [r8]
 889              	.LBB1022:
 890              	.LBB1021:
 891              		.loc 4 189 0
 892 0204 9A69     		ldr	r2, [r3, #24]
 893              	.LBE1021:
 894              	.LBE1022:
 895              		.loc 1 140 0
 896 0206 184B     		ldr	r3, .L40+16
 897 0208 9268     		ldr	r2, [r2, #8]
 898 020a 0097     		str	r7, [sp]
 899 020c 0132     		adds	r2, r2, #1
 900 020e 4FF4A471 		mov	r1, #328
 901 0212 FFF7FEFF 		bl	chThdCreateStatic
 902              	.LVL77:
 903 0216 154B     		ldr	r3, .L40+20
 904 0218 1860     		str	r0, [r3]
 905              	.LVL78:
 906              	.LBB1023:
 907              	.LBB1024:
ARM GAS  /tmp/ccCmsSUX.s 			page 17


 908              	.LBB1025:
 909              	.LBB1026:
 910              		.loc 2 548 0
 911              	@ 548 "../ChibiOS/os/ext/CMSIS/include/core_cmFunc.h" 1
 912 021a 86F31188 		MSR basepri, r6
 913              	@ 0 "" 2
 914              	.LVL79:
 915              		.thumb
 916              	.LBE1026:
 917              	.LBE1025:
 918              	.LBE1024:
 919              	.LBE1023:
 920              	.LBB1027:
 921              	.LBB1028:
 922              		.loc 3 274 0
 923 021e A968     		ldr	r1, [r5, #8]
 924              	.LBE1028:
 925              	.LBE1027:
 926              		.loc 1 141 0
 927 0220 D1F10101 		rsbs	r1, r1, #1
 928 0224 38BF     		it	cc
 929 0226 0021     		movcc	r1, #0
 930 0228 0C20     		movs	r0, #12
 931 022a FFF7FEFF 		bl	_test_assert
 932              	.LVL80:
 933 022e 0028     		cmp	r0, #0
 934 0230 C4D1     		bne	.L35
 935              	.LVL81:
 936              	.LBB1029:
 937              	.LBB1030:
 938              	.LBB1031:
 939              	.LBB1032:
 940              	.LBB1033:
 941              		.loc 2 548 0
 942              	@ 548 "../ChibiOS/os/ext/CMSIS/include/core_cmFunc.h" 1
 943 0232 80F31188 		MSR basepri, r0
 944              	@ 0 "" 2
 945              		.thumb
 946              	.LBE1033:
 947              	.LBE1032:
 948              	.LBE1031:
 949              	.LBE1030:
 950              	.LBE1029:
 951              		.loc 1 142 0
 952 0236 FFF7FEFF 		bl	test_wait_threads
 953              	.LVL82:
 954              		.loc 1 145 0
 955 023a 2846     		mov	r0, r5
 956 023c 0A21     		movs	r1, #10
 957 023e FFF7FEFF 		bl	chIQGetTimeout
 958              	.LVL83:
 959 0242 B0F1FF33 		subs	r3, r0, #-1
 960 0246 5942     		rsbs	r1, r3, #0
 961 0248 5941     		adcs	r1, r1, r3
 962 024a 0D20     		movs	r0, #13
 963              	.LBE1034:
 964              	.LBE1037:
ARM GAS  /tmp/ccCmsSUX.s 			page 18


 965              		.loc 1 146 0
 966 024c 02B0     		add	sp, sp, #8
 967              		@ sp needed
 968 024e BDE8F041 		pop	{r4, r5, r6, r7, r8, lr}
 969              	.LBB1038:
 970              	.LBB1035:
 971              		.loc 1 145 0
 972 0252 FFF7FEBF 		b	_test_assert
 973              	.LVL84:
 974              	.L41:
 975 0256 00BF     		.align	2
 976              	.L40:
 977 0258 00000000 		.word	.LANCHOR0
 978 025c 00000000 		.word	.LC0
 979 0260 00000000 		.word	wa
 980 0264 00000000 		.word	ch
 981 0268 00000000 		.word	thread1
 982 026c 00000000 		.word	threads
 983              	.LBE1035:
 984              	.LBE1038:
 985              		.cfi_endproc
 986              	.LFE244:
 987              		.size	queues1_execute, .-queues1_execute
 988              		.section	.text.queues2_execute,"ax",%progbits
 989              		.align	2
 990              		.p2align 4,,15
 991              		.thumb
 992              		.thumb_func
 993              		.type	queues2_execute, %function
 994              	queues2_execute:
 995              	.LFB247:
 996              		.loc 1 175 0
 997              		.cfi_startproc
 998              		@ args = 0, pretend = 0, frame = 0
 999              		@ frame_needed = 0, uses_anonymous_args = 0
 1000              	.LVL85:
 1001 0000 2DE9F043 		push	{r4, r5, r6, r7, r8, r9, lr}
 1002              		.cfi_def_cfa_offset 28
 1003              		.cfi_offset 4, -28
 1004              		.cfi_offset 5, -24
 1005              		.cfi_offset 6, -20
 1006              		.cfi_offset 7, -16
 1007              		.cfi_offset 8, -12
 1008              		.cfi_offset 9, -8
 1009              		.cfi_offset 14, -4
 1010              	.LBB1221:
 1011              	.LBB1222:
 1012              	.LBB1223:
 1013              	.LBB1224:
 1014              		.loc 2 548 0
 1015 0004 2023     		movs	r3, #32
 1016              	.LBE1224:
 1017              	.LBE1223:
 1018              	.LBE1222:
 1019              	.LBE1221:
 1020              		.loc 1 175 0
 1021 0006 83B0     		sub	sp, sp, #12
ARM GAS  /tmp/ccCmsSUX.s 			page 19


 1022              		.cfi_def_cfa_offset 40
 1023              	.LBB1228:
 1024              	.LBB1227:
 1025              	.LBB1226:
 1026              	.LBB1225:
 1027              		.loc 2 548 0
 1028              	@ 548 "../ChibiOS/os/ext/CMSIS/include/core_cmFunc.h" 1
 1029 0008 83F31188 		MSR basepri, r3
 1030              	@ 0 "" 2
 1031              	.LVL86:
 1032              		.thumb
 1033              	.LBE1225:
 1034              	.LBE1226:
 1035              	.LBE1227:
 1036              	.LBE1228:
 1037              	.LBB1229:
 1038              	.LBB1230:
 1039              		.loc 3 393 0
 1040 000c 8B4B     		ldr	r3, .L65
 1041 000e 5969     		ldr	r1, [r3, #20]
 1042 0010 9A69     		ldr	r2, [r3, #24]
 1043 0012 9142     		cmp	r1, r2
 1044 0014 60D0     		beq	.L63
 1045 0016 0021     		movs	r1, #0
 1046              	.L43:
 1047              	.LBE1230:
 1048              	.LBE1229:
 1049              		.loc 1 180 0
 1050 0018 0120     		movs	r0, #1
 1051 001a FFF7FEFF 		bl	_test_assert
 1052              	.LVL87:
 1053 001e 0028     		cmp	r0, #0
 1054 0020 39D1     		bne	.L62
 1055              	.LVL88:
 1056              	.LBB1232:
 1057              	.LBB1233:
 1058              	.LBB1234:
 1059              	.LBB1235:
 1060              	.LBB1236:
 1061              		.loc 2 548 0
 1062              	@ 548 "../ChibiOS/os/ext/CMSIS/include/core_cmFunc.h" 1
 1063 0022 80F31188 		MSR basepri, r0
 1064              	@ 0 "" 2
 1065              	.LVL89:
 1066              		.thumb
 1067 0026 4124     		movs	r4, #65
 1068              	.LVL90:
 1069              	.L47:
 1070              	.LBE1236:
 1071              	.LBE1235:
 1072              	.LBE1234:
 1073              	.LBE1233:
 1074              	.LBE1232:
 1075              	.LBB1237:
 1076              	.LBB1238:
 1077              		.loc 3 430 0 discriminator 2
 1078 0028 844D     		ldr	r5, .L65
ARM GAS  /tmp/ccCmsSUX.s 			page 20


 1079 002a 2146     		mov	r1, r4
 1080 002c 0134     		adds	r4, r4, #1
 1081              	.LVL91:
 1082 002e 2846     		mov	r0, r5
 1083 0030 4FF0FF32 		mov	r2, #-1
 1084 0034 E4B2     		uxtb	r4, r4
 1085 0036 FFF7FEFF 		bl	chOQPutTimeout
 1086              	.LVL92:
 1087              	.LBE1238:
 1088              	.LBE1237:
 1089              		.loc 1 183 0 discriminator 2
 1090 003a 452C     		cmp	r4, #69
 1091 003c F4D1     		bne	.L47
 1092              	.LVL93:
 1093              	.LBB1239:
 1094              	.LBB1240:
 1095              	.LBB1241:
 1096              	.LBB1242:
 1097              		.loc 2 548 0
 1098 003e 4FF02009 		mov	r9, #32
 1099              	@ 548 "../ChibiOS/os/ext/CMSIS/include/core_cmFunc.h" 1
 1100 0042 89F31188 		MSR basepri, r9
 1101              	@ 0 "" 2
 1102              	.LVL94:
 1103              		.thumb
 1104              	.LBE1242:
 1105              	.LBE1241:
 1106              	.LBE1240:
 1107              	.LBE1239:
 1108              	.LBB1243:
 1109              	.LBB1244:
 1110              		.loc 3 411 0
 1111 0046 A968     		ldr	r1, [r5, #8]
 1112              	.LBE1244:
 1113              	.LBE1243:
 1114              		.loc 1 185 0
 1115 0048 D1F10101 		rsbs	r1, r1, #1
 1116 004c 4FF00200 		mov	r0, #2
 1117 0050 38BF     		it	cc
 1118 0052 0021     		movcc	r1, #0
 1119 0054 FFF7FEFF 		bl	_test_assert
 1120              	.LVL95:
 1121 0058 0646     		mov	r6, r0
 1122 005a E0B9     		cbnz	r0, .L62
 1123              	.LVL96:
 1124              	.LBB1245:
 1125              	.LBB1246:
 1126              	.LBB1247:
 1127              	.LBB1248:
 1128              	.LBB1249:
 1129              	.LBB1250:
 1130              	.LBB1251:
 1131              		.loc 2 548 0
 1132              	@ 548 "../ChibiOS/os/ext/CMSIS/include/core_cmFunc.h" 1
 1133 005c 80F31188 		MSR basepri, r0
 1134              	@ 0 "" 2
 1135              	.LVL97:
ARM GAS  /tmp/ccCmsSUX.s 			page 21


 1136              		.thumb
 1137 0060 0424     		movs	r4, #4
 1138              	.LBE1251:
 1139              	.LBE1250:
 1140              	.LBE1249:
 1141              	.LBE1248:
 1142              	.LBE1247:
 1143              	.LBB1252:
 1144              	.LBB1253:
 1145              	.LBB1254:
 1146              	.LBB1255:
 1147              	.LBB1256:
 1148              	.LBB1257:
 1149 0062 8046     		mov	r8, r0
 1150              	.LVL98:
 1151              	.L50:
 1152              	.LBE1257:
 1153              	.LBE1256:
 1154              	.LBE1255:
 1155              	.LBE1254:
 1156              	.LBE1253:
 1157              	.LBB1262:
 1158              	.LBB1263:
 1159              	.LBB1264:
 1160              	.LBB1265:
 1161 0064 2027     		movs	r7, #32
 1162              	@ 548 "../ChibiOS/os/ext/CMSIS/include/core_cmFunc.h" 1
 1163 0066 89F31188 		MSR basepri, r9
 1164              	@ 0 "" 2
 1165              		.thumb
 1166              	.LBE1265:
 1167              	.LBE1264:
 1168              	.LBE1263:
 1169              	.LBE1262:
 1170              		.loc 1 192 0
 1171 006a 744D     		ldr	r5, .L65
 1172 006c 2846     		mov	r0, r5
 1173 006e FFF7FEFF 		bl	chOQGetI
 1174              	.LVL99:
 1175              	.LBB1266:
 1176              	.LBB1261:
 1177              	.LBB1260:
 1178              	.LBB1259:
 1179              	.LBB1258:
 1180              		.loc 2 548 0
 1181              	@ 548 "../ChibiOS/os/ext/CMSIS/include/core_cmFunc.h" 1
 1182 0072 88F31188 		MSR basepri, r8
 1183              	@ 0 "" 2
 1184              		.thumb
 1185              	.LBE1258:
 1186              	.LBE1259:
 1187              	.LBE1260:
 1188              	.LBE1261:
 1189              	.LBE1266:
 1190              		.loc 1 194 0
 1191 0076 C0B2     		uxtb	r0, r0
 1192              	.LVL100:
ARM GAS  /tmp/ccCmsSUX.s 			page 22


 1193 0078 FFF7FEFF 		bl	test_emit_token
 1194              	.LVL101:
 1195              	.LBE1252:
 1196              		.loc 1 188 0
 1197 007c 013C     		subs	r4, r4, #1
 1198              	.LVL102:
 1199 007e F1D1     		bne	.L50
 1200              	.LVL103:
 1201              	.LBB1267:
 1202              	.LBB1268:
 1203              	.LBB1269:
 1204              	.LBB1270:
 1205              		.loc 2 548 0
 1206              	@ 548 "../ChibiOS/os/ext/CMSIS/include/core_cmFunc.h" 1
 1207 0080 87F31188 		MSR basepri, r7
 1208              	@ 0 "" 2
 1209              	.LVL104:
 1210              		.thumb
 1211              	.LBE1270:
 1212              	.LBE1269:
 1213              	.LBE1268:
 1214              	.LBE1267:
 1215              	.LBB1271:
 1216              	.LBB1272:
 1217              		.loc 3 393 0
 1218 0084 6A69     		ldr	r2, [r5, #20]
 1219 0086 AB69     		ldr	r3, [r5, #24]
 1220 0088 9A42     		cmp	r2, r3
 1221 008a 2AD0     		beq	.L64
 1222              	.L51:
 1223              	.LBE1272:
 1224              	.LBE1271:
 1225              		.loc 1 196 0
 1226 008c 3146     		mov	r1, r6
 1227 008e 0320     		movs	r0, #3
 1228 0090 FFF7FEFF 		bl	_test_assert
 1229              	.LVL105:
 1230 0094 28B1     		cbz	r0, .L52
 1231              	.LVL106:
 1232              	.L62:
 1233              	.LBB1274:
 1234              	.LBB1275:
 1235              	.LBB1276:
 1236              	.LBB1277:
 1237              	.LBB1278:
 1238              		.loc 2 548 0
 1239 0096 0023     		movs	r3, #0
 1240              	@ 548 "../ChibiOS/os/ext/CMSIS/include/core_cmFunc.h" 1
 1241 0098 83F31188 		MSR basepri, r3
 1242              	@ 0 "" 2
 1243              	.LVL107:
 1244              		.thumb
 1245              	.L42:
 1246              	.LBE1278:
 1247              	.LBE1277:
 1248              	.LBE1276:
 1249              	.LBE1275:
ARM GAS  /tmp/ccCmsSUX.s 			page 23


 1250              	.LBE1274:
 1251              	.LBE1246:
 1252              	.LBE1245:
 1253              		.loc 1 223 0
 1254 009c 03B0     		add	sp, sp, #12
 1255              		@ sp needed
 1256 009e BDE8F083 		pop	{r4, r5, r6, r7, r8, r9, pc}
 1257              	.LVL108:
 1258              	.L52:
 1259              	.LBB1376:
 1260              	.LBB1373:
 1261              	.LBB1279:
 1262              	.LBB1280:
 1263              	.LBB1281:
 1264              	.LBB1282:
 1265              	.LBB1283:
 1266              		.loc 2 548 0
 1267              	@ 548 "../ChibiOS/os/ext/CMSIS/include/core_cmFunc.h" 1
 1268 00a2 80F31188 		MSR basepri, r0
 1269              	@ 0 "" 2
 1270              		.thumb
 1271              	.LBE1283:
 1272              	.LBE1282:
 1273              	.LBE1281:
 1274              	.LBE1280:
 1275              	.LBE1279:
 1276              		.loc 1 197 0
 1277 00a6 0420     		movs	r0, #4
 1278 00a8 6549     		ldr	r1, .L65+4
 1279 00aa FFF7FEFF 		bl	_test_assert_sequence
 1280              	.LVL109:
 1281 00ae 0446     		mov	r4, r0
 1282              	.LVL110:
 1283 00b0 0028     		cmp	r0, #0
 1284 00b2 F3D1     		bne	.L42
 1285              	.LVL111:
 1286              	.LBB1284:
 1287              	.LBB1285:
 1288              	.LBB1286:
 1289              	.LBB1287:
 1290              		.loc 2 548 0
 1291 00b4 2026     		movs	r6, #32
 1292              	@ 548 "../ChibiOS/os/ext/CMSIS/include/core_cmFunc.h" 1
 1293 00b6 86F31188 		MSR basepri, r6
 1294              	@ 0 "" 2
 1295              		.thumb
 1296              	.LBE1287:
 1297              	.LBE1286:
 1298              	.LBE1285:
 1299              	.LBE1284:
 1300              		.loc 1 198 0
 1301 00ba 604D     		ldr	r5, .L65
 1302 00bc 2846     		mov	r0, r5
 1303 00be FFF7FEFF 		bl	chOQGetI
 1304              	.LVL112:
 1305 00c2 0330     		adds	r0, r0, #3
 1306 00c4 14BF     		ite	ne
ARM GAS  /tmp/ccCmsSUX.s 			page 24


 1307 00c6 0021     		movne	r1, #0
 1308 00c8 0121     		moveq	r1, #1
 1309 00ca 0520     		movs	r0, #5
 1310 00cc FFF7FEFF 		bl	_test_assert
 1311              	.LVL113:
 1312 00d0 60B1     		cbz	r0, .L54
 1313              	.LVL114:
 1314              	.LBB1288:
 1315              	.LBB1289:
 1316              	.LBB1290:
 1317              	.LBB1291:
 1318              	.LBB1292:
 1319              		.loc 2 548 0
 1320              	@ 548 "../ChibiOS/os/ext/CMSIS/include/core_cmFunc.h" 1
 1321 00d2 84F31188 		MSR basepri, r4
 1322              	@ 0 "" 2
 1323              		.thumb
 1324 00d6 E1E7     		b	.L42
 1325              	.LVL115:
 1326              	.L63:
 1327              	.LBE1292:
 1328              	.LBE1291:
 1329              	.LBE1290:
 1330              	.LBE1289:
 1331              	.LBE1288:
 1332              	.LBE1373:
 1333              	.LBE1376:
 1334              	.LBB1377:
 1335              	.LBB1231:
 1336              		.loc 3 393 0
 1337 00d8 9968     		ldr	r1, [r3, #8]
 1338 00da 0031     		adds	r1, r1, #0
 1339 00dc 18BF     		it	ne
 1340 00de 0121     		movne	r1, #1
 1341 00e0 9AE7     		b	.L43
 1342              	.LVL116:
 1343              	.L64:
 1344              	.LBE1231:
 1345              	.LBE1377:
 1346              	.LBB1378:
 1347              	.LBB1374:
 1348              	.LBB1293:
 1349              	.LBB1273:
 1350 00e2 AE68     		ldr	r6, [r5, #8]
 1351 00e4 0036     		adds	r6, r6, #0
 1352 00e6 18BF     		it	ne
 1353 00e8 0126     		movne	r6, #1
 1354 00ea CFE7     		b	.L51
 1355              	.LVL117:
 1356              	.L54:
 1357              	.LBE1273:
 1358              	.LBE1293:
 1359              	.LBB1294:
 1360              	.LBB1295:
 1361              	.LBB1296:
 1362              	.LBB1297:
 1363              	.LBB1298:
ARM GAS  /tmp/ccCmsSUX.s 			page 25


 1364              		.loc 2 548 0
 1365              	@ 548 "../ChibiOS/os/ext/CMSIS/include/core_cmFunc.h" 1
 1366 00ec 80F31188 		MSR basepri, r0
 1367              	@ 0 "" 2
 1368              		.thumb
 1369              	.LBE1298:
 1370              	.LBE1297:
 1371              	.LBE1296:
 1372              	.LBE1295:
 1373              	.LBE1294:
 1374              		.loc 1 201 0
 1375 00f0 544F     		ldr	r7, .L65+8
 1376 00f2 7C68     		ldr	r4, [r7, #4]
 1377 00f4 0346     		mov	r3, r0
 1378 00f6 2146     		mov	r1, r4
 1379 00f8 0822     		movs	r2, #8
 1380 00fa 2846     		mov	r0, r5
 1381 00fc FFF7FEFF 		bl	chOQWriteTimeout
 1382              	.LVL118:
 1383              		.loc 1 202 0
 1384 0100 B0F10408 		subs	r8, r0, #4
 1385 0104 D8F10001 		rsbs	r1, r8, #0
 1386 0108 51EB0801 		adcs	r1, r1, r8
 1387 010c 0620     		movs	r0, #6
 1388              	.LVL119:
 1389 010e FFF7FEFF 		bl	_test_assert
 1390              	.LVL120:
 1391 0112 8046     		mov	r8, r0
 1392              	.LVL121:
 1393 0114 0028     		cmp	r0, #0
 1394 0116 C1D1     		bne	.L42
 1395              	.LVL122:
 1396              	.LBB1299:
 1397              	.LBB1300:
 1398              	.LBB1301:
 1399              	.LBB1302:
 1400              		.loc 2 548 0
 1401              	@ 548 "../ChibiOS/os/ext/CMSIS/include/core_cmFunc.h" 1
 1402 0118 86F31188 		MSR basepri, r6
 1403              	@ 0 "" 2
 1404              	.LVL123:
 1405              		.thumb
 1406              	.LBE1302:
 1407              	.LBE1301:
 1408              	.LBE1300:
 1409              	.LBE1299:
 1410              	.LBB1303:
 1411              	.LBB1304:
 1412              		.loc 3 411 0
 1413 011c A968     		ldr	r1, [r5, #8]
 1414              	.LBE1304:
 1415              	.LBE1303:
 1416              		.loc 1 203 0
 1417 011e D1F10101 		rsbs	r1, r1, #1
 1418 0122 4FF00700 		mov	r0, #7
 1419 0126 38BF     		it	cc
 1420 0128 0021     		movcc	r1, #0
ARM GAS  /tmp/ccCmsSUX.s 			page 26


 1421 012a FFF7FEFF 		bl	_test_assert
 1422              	.LVL124:
 1423 012e 8146     		mov	r9, r0
 1424 0130 10B1     		cbz	r0, .L56
 1425              	.LVL125:
 1426              	.LBB1305:
 1427              	.LBB1306:
 1428              	.LBB1307:
 1429              	.LBB1308:
 1430              	.LBB1309:
 1431              		.loc 2 548 0
 1432              	@ 548 "../ChibiOS/os/ext/CMSIS/include/core_cmFunc.h" 1
 1433 0132 88F31188 		MSR basepri, r8
 1434              	@ 0 "" 2
 1435              		.thumb
 1436 0136 B1E7     		b	.L42
 1437              	.LVL126:
 1438              	.L56:
 1439              	.LBE1309:
 1440              	.LBE1308:
 1441              	.LBE1307:
 1442              	.LBE1306:
 1443              	.LBE1305:
 1444              	.LBB1310:
 1445              	.LBB1311:
 1446              	.LBB1312:
 1447              	.LBB1313:
 1448              	.LBB1314:
 1449              	@ 548 "../ChibiOS/os/ext/CMSIS/include/core_cmFunc.h" 1
 1450 0138 80F31188 		MSR basepri, r0
 1451              	@ 0 "" 2
 1452              		.thumb
 1453              	.LBE1314:
 1454              	.LBE1313:
 1455              	.LBE1312:
 1456              	.LBE1311:
 1457              	.LBE1310:
 1458              	.LBB1315:
 1459              	.LBB1316:
 1460              	.LBB1317:
 1461              	.LBB1318:
 1462              		.loc 4 176 0
 1463 013c 424B     		ldr	r3, .L65+12
 1464              	.LBE1318:
 1465              	.LBE1317:
 1466              	.LBE1316:
 1467              	.LBE1315:
 1468              		.loc 1 204 0
 1469 013e 3868     		ldr	r0, [r7]
 1470              	.LBB1320:
 1471              	.LBB1319:
 1472              		.loc 4 189 0
 1473 0140 9A69     		ldr	r2, [r3, #24]
 1474              	.LBE1319:
 1475              	.LBE1320:
 1476              		.loc 1 204 0
 1477 0142 424B     		ldr	r3, .L65+16
ARM GAS  /tmp/ccCmsSUX.s 			page 27


 1478 0144 9268     		ldr	r2, [r2, #8]
 1479 0146 CDF80090 		str	r9, [sp]
 1480 014a 0132     		adds	r2, r2, #1
 1481 014c 4FF4A471 		mov	r1, #328
 1482 0150 FFF7FEFF 		bl	chThdCreateStatic
 1483              	.LVL127:
 1484 0154 3E4B     		ldr	r3, .L65+20
 1485 0156 1860     		str	r0, [r3]
 1486              	.LVL128:
 1487              	.LBB1321:
 1488              	.LBB1322:
 1489              	.LBB1323:
 1490              	.LBB1324:
 1491              		.loc 2 548 0
 1492              	@ 548 "../ChibiOS/os/ext/CMSIS/include/core_cmFunc.h" 1
 1493 0158 86F31188 		MSR basepri, r6
 1494              	@ 0 "" 2
 1495              	.LVL129:
 1496              		.thumb
 1497              	.LBE1324:
 1498              	.LBE1323:
 1499              	.LBE1322:
 1500              	.LBE1321:
 1501              	.LBB1325:
 1502              	.LBB1326:
 1503              		.loc 3 359 0
 1504 015c 2A69     		ldr	r2, [r5, #16]
 1505 015e EB68     		ldr	r3, [r5, #12]
 1506 0160 A968     		ldr	r1, [r5, #8]
 1507 0162 D31A     		subs	r3, r2, r3
 1508 0164 591A     		subs	r1, r3, r1
 1509              	.LBE1326:
 1510              	.LBE1325:
 1511              		.loc 1 205 0
 1512 0166 B1F1040C 		subs	ip, r1, #4
 1513 016a DCF10001 		rsbs	r1, ip, #0
 1514 016e 51EB0C01 		adcs	r1, r1, ip
 1515 0172 0820     		movs	r0, #8
 1516 0174 FFF7FEFF 		bl	_test_assert
 1517              	.LVL130:
 1518 0178 0746     		mov	r7, r0
 1519 017a 10B1     		cbz	r0, .L57
 1520              	.LVL131:
 1521              	.LBB1327:
 1522              	.LBB1328:
 1523              	.LBB1329:
 1524              	.LBB1330:
 1525              	.LBB1331:
 1526              		.loc 2 548 0
 1527              	@ 548 "../ChibiOS/os/ext/CMSIS/include/core_cmFunc.h" 1
 1528 017c 89F31188 		MSR basepri, r9
 1529              	@ 0 "" 2
 1530              		.thumb
 1531 0180 8CE7     		b	.L42
 1532              	.LVL132:
 1533              	.L57:
 1534              	.LBE1331:
ARM GAS  /tmp/ccCmsSUX.s 			page 28


 1535              	.LBE1330:
 1536              	.LBE1329:
 1537              	.LBE1328:
 1538              	.LBE1327:
 1539              	.LBB1332:
 1540              	.LBB1333:
 1541              	.LBB1334:
 1542              	.LBB1335:
 1543              	.LBB1336:
 1544              	@ 548 "../ChibiOS/os/ext/CMSIS/include/core_cmFunc.h" 1
 1545 0182 80F31188 		MSR basepri, r0
 1546              	@ 0 "" 2
 1547              		.thumb
 1548              	.LBE1336:
 1549              	.LBE1335:
 1550              	.LBE1334:
 1551              	.LBE1333:
 1552              	.LBE1332:
 1553              		.loc 1 206 0
 1554 0186 FFF7FEFF 		bl	test_wait_threads
 1555              	.LVL133:
 1556              	.LBB1337:
 1557              	.LBB1338:
 1558              	.LBB1339:
 1559              	.LBB1340:
 1560              		.loc 2 548 0
 1561              	@ 548 "../ChibiOS/os/ext/CMSIS/include/core_cmFunc.h" 1
 1562 018a 86F31188 		MSR basepri, r6
 1563              	@ 0 "" 2
 1564              		.thumb
 1565              	.LBE1340:
 1566              	.LBE1339:
 1567              	.LBE1338:
 1568              	.LBE1337:
 1569              		.loc 1 210 0
 1570 018e 2846     		mov	r0, r5
 1571 0190 FFF7FEFF 		bl	chOQResetI
 1572              	.LVL134:
 1573              	.LBB1341:
 1574              	.LBB1342:
 1575              	.LBB1343:
 1576              	.LBB1344:
 1577              	.LBB1345:
 1578              		.loc 2 548 0
 1579              	@ 548 "../ChibiOS/os/ext/CMSIS/include/core_cmFunc.h" 1
 1580 0194 87F31188 		MSR basepri, r7
 1581              	@ 0 "" 2
 1582              	.LVL135:
 1583              		.thumb
 1584              	.LBE1345:
 1585              	.LBE1344:
 1586              	.LBE1343:
 1587              	.LBE1342:
 1588              	.LBE1341:
 1589              	.LBB1346:
 1590              	.LBB1347:
 1591              	.LBB1348:
ARM GAS  /tmp/ccCmsSUX.s 			page 29


 1592              	.LBB1349:
 1593              	@ 548 "../ChibiOS/os/ext/CMSIS/include/core_cmFunc.h" 1
 1594 0198 86F31188 		MSR basepri, r6
 1595              	@ 0 "" 2
 1596              	.LVL136:
 1597              		.thumb
 1598              	.LBE1349:
 1599              	.LBE1348:
 1600              	.LBE1347:
 1601              	.LBE1346:
 1602              	.LBB1350:
 1603              	.LBB1351:
 1604              		.loc 3 359 0
 1605 019c 2A69     		ldr	r2, [r5, #16]
 1606 019e EB68     		ldr	r3, [r5, #12]
 1607 01a0 A968     		ldr	r1, [r5, #8]
 1608 01a2 D31A     		subs	r3, r2, r3
 1609              	.LBE1351:
 1610              	.LBE1350:
 1611              		.loc 1 212 0
 1612 01a4 B3EB010E 		subs	lr, r3, r1
 1613 01a8 DEF10001 		rsbs	r1, lr, #0
 1614 01ac 51EB0E01 		adcs	r1, r1, lr
 1615 01b0 0920     		movs	r0, #9
 1616 01b2 FFF7FEFF 		bl	_test_assert
 1617              	.LVL137:
 1618 01b6 0346     		mov	r3, r0
 1619 01b8 10B1     		cbz	r0, .L58
 1620              	.LVL138:
 1621              	.LBB1352:
 1622              	.LBB1353:
 1623              	.LBB1354:
 1624              	.LBB1355:
 1625              	.LBB1356:
 1626              		.loc 2 548 0
 1627              	@ 548 "../ChibiOS/os/ext/CMSIS/include/core_cmFunc.h" 1
 1628 01ba 87F31188 		MSR basepri, r7
 1629              	@ 0 "" 2
 1630              		.thumb
 1631 01be 6DE7     		b	.L42
 1632              	.LVL139:
 1633              	.L58:
 1634              	.LBE1356:
 1635              	.LBE1355:
 1636              	.LBE1354:
 1637              	.LBE1353:
 1638              	.LBE1352:
 1639              	.LBB1357:
 1640              	.LBB1358:
 1641              	.LBB1359:
 1642              	.LBB1360:
 1643              	.LBB1361:
 1644              	@ 548 "../ChibiOS/os/ext/CMSIS/include/core_cmFunc.h" 1
 1645 01c0 80F31188 		MSR basepri, r0
 1646              	@ 0 "" 2
 1647              		.thumb
 1648              	.LBE1361:
ARM GAS  /tmp/ccCmsSUX.s 			page 30


 1649              	.LBE1360:
 1650              	.LBE1359:
 1651              	.LBE1358:
 1652              	.LBE1357:
 1653              		.loc 1 215 0
 1654 01c4 0222     		movs	r2, #2
 1655 01c6 2146     		mov	r1, r4
 1656 01c8 2846     		mov	r0, r5
 1657 01ca FFF7FEFF 		bl	chOQWriteTimeout
 1658              	.LVL140:
 1659              		.loc 1 216 0
 1660 01ce 0238     		subs	r0, r0, #2
 1661              	.LVL141:
 1662 01d0 4142     		rsbs	r1, r0, #0
 1663 01d2 4141     		adcs	r1, r1, r0
 1664 01d4 0A20     		movs	r0, #10
 1665              	.LVL142:
 1666 01d6 FFF7FEFF 		bl	_test_assert
 1667              	.LVL143:
 1668 01da 0346     		mov	r3, r0
 1669 01dc 0028     		cmp	r0, #0
 1670 01de 7FF45DAF 		bne	.L42
 1671              		.loc 1 217 0
 1672 01e2 2146     		mov	r1, r4
 1673 01e4 0222     		movs	r2, #2
 1674 01e6 2846     		mov	r0, r5
 1675 01e8 FFF7FEFF 		bl	chOQWriteTimeout
 1676              	.LVL144:
 1677              		.loc 1 218 0
 1678 01ec 821E     		subs	r2, r0, #2
 1679 01ee 5142     		rsbs	r1, r2, #0
 1680 01f0 5141     		adcs	r1, r1, r2
 1681 01f2 0B20     		movs	r0, #11
 1682              	.LVL145:
 1683 01f4 FFF7FEFF 		bl	_test_assert
 1684              	.LVL146:
 1685 01f8 0028     		cmp	r0, #0
 1686 01fa 7FF44FAF 		bne	.L42
 1687              	.LVL147:
 1688              	.LBB1362:
 1689              	.LBB1363:
 1690              	.LBB1364:
 1691              	.LBB1365:
 1692              		.loc 2 548 0
 1693              	@ 548 "../ChibiOS/os/ext/CMSIS/include/core_cmFunc.h" 1
 1694 01fe 86F31188 		MSR basepri, r6
 1695              	@ 0 "" 2
 1696              	.LVL148:
 1697              		.thumb
 1698              	.LBE1365:
 1699              	.LBE1364:
 1700              	.LBE1363:
 1701              	.LBE1362:
 1702              	.LBB1366:
 1703              	.LBB1367:
 1704              		.loc 3 411 0
 1705 0202 A968     		ldr	r1, [r5, #8]
ARM GAS  /tmp/ccCmsSUX.s 			page 31


 1706              	.LBE1367:
 1707              	.LBE1366:
 1708              		.loc 1 219 0
 1709 0204 D1F10101 		rsbs	r1, r1, #1
 1710 0208 38BF     		it	cc
 1711 020a 0021     		movcc	r1, #0
 1712 020c 0C20     		movs	r0, #12
 1713 020e FFF7FEFF 		bl	_test_assert
 1714              	.LVL149:
 1715 0212 0028     		cmp	r0, #0
 1716 0214 7FF43FAF 		bne	.L62
 1717              	.LVL150:
 1718              	.LBB1368:
 1719              	.LBB1369:
 1720              	.LBB1370:
 1721              	.LBB1371:
 1722              	.LBB1372:
 1723              		.loc 2 548 0
 1724 0218 0021     		movs	r1, #0
 1725              	@ 548 "../ChibiOS/os/ext/CMSIS/include/core_cmFunc.h" 1
 1726 021a 81F31188 		MSR basepri, r1
 1727              	@ 0 "" 2
 1728              		.thumb
 1729              	.LBE1372:
 1730              	.LBE1371:
 1731              	.LBE1370:
 1732              	.LBE1369:
 1733              	.LBE1368:
 1734              		.loc 1 222 0
 1735 021e 0A22     		movs	r2, #10
 1736 0220 0648     		ldr	r0, .L65
 1737 0222 FFF7FEFF 		bl	chOQPutTimeout
 1738              	.LVL151:
 1739 0226 B0F1FF33 		subs	r3, r0, #-1
 1740 022a 5942     		rsbs	r1, r3, #0
 1741 022c 5941     		adcs	r1, r1, r3
 1742 022e 0D20     		movs	r0, #13
 1743              	.LBE1374:
 1744              	.LBE1378:
 1745              		.loc 1 223 0
 1746 0230 03B0     		add	sp, sp, #12
 1747              		@ sp needed
 1748 0232 BDE8F043 		pop	{r4, r5, r6, r7, r8, r9, lr}
 1749              	.LBB1379:
 1750              	.LBB1375:
 1751              		.loc 1 222 0
 1752 0236 FFF7FEBF 		b	_test_assert
 1753              	.LVL152:
 1754              	.L66:
 1755 023a 00BF     		.align	2
 1756              	.L65:
 1757 023c 00000000 		.word	.LANCHOR1
 1758 0240 00000000 		.word	.LC0
 1759 0244 00000000 		.word	wa
 1760 0248 00000000 		.word	ch
 1761 024c 00000000 		.word	thread2
 1762 0250 00000000 		.word	threads
ARM GAS  /tmp/ccCmsSUX.s 			page 32


 1763              	.LBE1375:
 1764              	.LBE1379:
 1765              		.cfi_endproc
 1766              	.LFE247:
 1767              		.size	queues2_execute, .-queues2_execute
 1768              		.global	patternqueues
 1769              		.global	testqueues2
 1770              		.global	testqueues1
 1771 0254 AFF30080 		.section	.rodata.testqueues1,"a",%progbits
 1771      AFF30080 
 1771      AFF30080 
 1772              		.align	2
 1773              		.type	testqueues1, %object
 1774              		.size	testqueues1, 16
 1775              	testqueues1:
 1776 0000 20000000 		.word	.LC2
 1777 0004 00000000 		.word	queues1_setup
 1778 0008 00000000 		.word	0
 1779 000c 00000000 		.word	queues1_execute
 1780              		.section	.rodata.testqueues2,"a",%progbits
 1781              		.align	2
 1782              		.type	testqueues2, %object
 1783              		.size	testqueues2, 16
 1784              	testqueues2:
 1785 0000 08000000 		.word	.LC1
 1786 0004 00000000 		.word	queues2_setup
 1787 0008 00000000 		.word	0
 1788 000c 00000000 		.word	queues2_execute
 1789              		.section	.rodata.str1.4,"aMS",%progbits,1
 1790              		.align	2
 1791              	.LC0:
 1792 0000 41424344 		.ascii	"ABCD\000"
 1792      00
 1793 0005 000000   		.space	3
 1794              	.LC1:
 1795 0008 51756575 		.ascii	"Queues, output queues\000"
 1795      65732C20 
 1795      6F757470 
 1795      75742071 
 1795      75657565 
 1796 001e 0000     		.space	2
 1797              	.LC2:
 1798 0020 51756575 		.ascii	"Queues, input queues\000"
 1798      65732C20 
 1798      696E7075 
 1798      74207175 
 1798      65756573 
 1799 0035 000000   		.section	.rodata.patternqueues,"a",%progbits
 1800              		.align	2
 1801              		.type	patternqueues, %object
 1802              		.size	patternqueues, 12
 1803              	patternqueues:
 1804 0000 00000000 		.word	testqueues1
 1805 0004 00000000 		.word	testqueues2
 1806 0008 00000000 		.word	0
 1807              		.section	.data.oq,"aw",%progbits
 1808              		.align	2
ARM GAS  /tmp/ccCmsSUX.s 			page 33


 1809              		.set	.LANCHOR1,. + 0
 1810              		.type	oq, %object
 1811              		.size	oq, 36
 1812              	oq:
 1813 0000 00000000 		.word	oq
 1814 0004 00000000 		.word	oq
 1815 0008 04000000 		.word	4
 1816 000c 48010000 		.word	test+328
 1817 0010 4C010000 		.word	test+332
 1818 0014 48010000 		.word	test+328
 1819 0018 48010000 		.word	test+328
 1820 001c 00000000 		.word	notify
 1821 0020 00000000 		.word	0
 1822              		.section	.data.iq,"aw",%progbits
 1823              		.align	2
 1824              		.set	.LANCHOR0,. + 0
 1825              		.type	iq, %object
 1826              		.size	iq, 36
 1827              	iq:
 1828 0000 00000000 		.word	iq
 1829 0004 00000000 		.word	iq
 1830 0008 00000000 		.word	0
 1831 000c 00000000 		.word	test
 1832 0010 04000000 		.word	test+4
 1833 0014 00000000 		.word	test
 1834 0018 00000000 		.word	test
 1835 001c 00000000 		.word	notify
 1836 0020 00000000 		.word	0
 1837              		.text
 1838              	.Letext0:
 1839              		.file 5 "/nfs/nfs5/home/research/hardware/arm2/gcc-arm-embedded/gcc-arm-none-eabi-4_8-2014q2/lib/g
 1840              		.file 6 "/nfs/nfs5/home/research/hardware/arm2/gcc-arm-embedded/gcc-arm-none-eabi-4_8-2014q2/arm-n
 1841              		.file 7 "/nfs/nfs5/home/research/hardware/arm2/gcc-arm-embedded/gcc-arm-none-eabi-4_8-2014q2/arm-n
 1842              		.file 8 "../ChibiOS/os/rt/ports/ARMCMx/compilers/GCC/chtypes.h"
 1843              		.file 9 "../ChibiOS/os/rt/include/chsystypes.h"
 1844              		.file 10 "../ChibiOS/os/rt/include/chschd.h"
 1845              		.file 11 "../ChibiOS/os/rt/ports/ARMCMx/chcore.h"
 1846              		.file 12 "../ChibiOS/os/rt/ports/ARMCMx/chcore_v7m.h"
 1847              		.file 13 "../ChibiOS/os/rt/include/chtm.h"
 1848              		.file 14 "../ChibiOS/os/rt/include/chsem.h"
 1849              		.file 15 "../ChibiOS/os/rt/include/chmtx.h"
 1850              		.file 16 "../ChibiOS/test/rt/test.h"
 1851              		.file 17 "../ChibiOS/os/rt/include/chsys.h"
 1852              		.file 18 "../ChibiOS/os/ext/CMSIS/include/core_cm4.h"