ARM GAS  /tmp/ccrXC91b.s 			page 1


   1              		.syntax unified
   2              		.cpu cortex-m4
   3              		.fpu softvfp
   4              		.eabi_attribute 20, 1
   5              		.eabi_attribute 21, 1
   6              		.eabi_attribute 23, 3
   7              		.eabi_attribute 24, 1
   8              		.eabi_attribute 25, 1
   9              		.eabi_attribute 26, 1
  10              		.eabi_attribute 30, 2
  11              		.eabi_attribute 34, 1
  12              		.eabi_attribute 18, 4
  13              		.thumb
  14              		.file	"testsys.c"
  15              		.text
  16              	.Ltext0:
  17              		.cfi_sections	.debug_frame
  18              		.section	.text.sys2_execute,"ax",%progbits
  19              		.align	2
  20              		.p2align 4,,15
  21              		.thumb
  22              		.thumb_func
  23              		.type	sys2_execute, %function
  24              	sys2_execute:
  25              	.LFB243:
  26              		.file 1 "../ChibiOS/test/rt/testsys.c"
  27              		.loc 1 115 0
  28              		.cfi_startproc
  29              		@ args = 0, pretend = 0, frame = 0
  30              		@ frame_needed = 0, uses_anonymous_args = 0
  31              		@ link register save eliminated.
  32              	.LVL0:
  33              	.LBB324:
  34              	.LBB325:
  35              	.LBB326:
  36              	.LBB327:
  37              		.file 2 "../ChibiOS/os/ext/CMSIS/include/core_cmFunc.h"
  38              		.loc 2 548 0
  39 0000 2023     		movs	r3, #32
  40              	@ 548 "../ChibiOS/os/ext/CMSIS/include/core_cmFunc.h" 1
  41 0002 83F31188 		MSR basepri, r3
  42              	@ 0 "" 2
  43              		.thumb
  44              	.LBE327:
  45              	.LBE326:
  46              	.LBB328:
  47              	.LBB329:
  48              		.loc 2 333 0
  49              	@ 333 "../ChibiOS/os/ext/CMSIS/include/core_cmFunc.h" 1
  50 0006 62B6     		cpsie i
  51              	@ 0 "" 2
  52              		.thumb
  53              	.LBE329:
  54              	.LBE328:
  55              	.LBE325:
  56              	.LBE324:
  57              	.LBB330:
ARM GAS  /tmp/ccrXC91b.s 			page 2


  58              	.LBB331:
  59              	.LBB332:
  60              	.LBB333:
  61              		.loc 2 344 0
  62              	@ 344 "../ChibiOS/os/ext/CMSIS/include/core_cmFunc.h" 1
  63 0008 72B6     		cpsid i
  64              	@ 0 "" 2
  65              	.LVL1:
  66              		.thumb
  67              	.LBE333:
  68              	.LBE332:
  69              	.LBE331:
  70              	.LBE330:
  71              	.LBB334:
  72              	.LBB335:
  73              	.LBB336:
  74              	.LBB337:
  75              		.loc 2 548 0
  76              	@ 548 "../ChibiOS/os/ext/CMSIS/include/core_cmFunc.h" 1
  77 000a 83F31188 		MSR basepri, r3
  78              	@ 0 "" 2
  79              		.thumb
  80              	.LBE337:
  81              	.LBE336:
  82              	.LBB338:
  83              	.LBB339:
  84              		.loc 2 333 0
  85              	@ 333 "../ChibiOS/os/ext/CMSIS/include/core_cmFunc.h" 1
  86 000e 62B6     		cpsie i
  87              	@ 0 "" 2
  88              	.LVL2:
  89              		.thumb
  90              	.LBE339:
  91              	.LBE338:
  92              	.LBE335:
  93              	.LBE334:
  94              	.LBB340:
  95              	.LBB341:
  96              	.LBB342:
  97              	.LBB343:
  98              		.loc 2 548 0
  99 0010 0023     		movs	r3, #0
 100              	@ 548 "../ChibiOS/os/ext/CMSIS/include/core_cmFunc.h" 1
 101 0012 83F31188 		MSR basepri, r3
 102              	@ 0 "" 2
 103              		.thumb
 104              	.LBE343:
 105              	.LBE342:
 106              	.LBB344:
 107              	.LBB345:
 108              		.loc 2 333 0
 109              	@ 333 "../ChibiOS/os/ext/CMSIS/include/core_cmFunc.h" 1
 110 0016 62B6     		cpsie i
 111              	@ 0 "" 2
 112              		.thumb
 113 0018 7047     		bx	lr
 114              	.LBE345:
ARM GAS  /tmp/ccrXC91b.s 			page 3


 115              	.LBE344:
 116              	.LBE341:
 117              	.LBE340:
 118              		.cfi_endproc
 119              	.LFE243:
 120              		.size	sys2_execute, .-sys2_execute
 121 001a 00BFAFF3 		.section	.text.vtcb,"ax",%progbits
 121      0080
 122              		.align	2
 123              		.p2align 4,,15
 124              		.thumb
 125              		.thumb_func
 126              		.type	vtcb, %function
 127              	vtcb:
 128              	.LFB241:
 129              		.loc 1 53 0
 130              		.cfi_startproc
 131              		@ args = 0, pretend = 0, frame = 0
 132              		@ frame_needed = 0, uses_anonymous_args = 0
 133              	.LVL3:
 134 0000 10B5     		push	{r4, lr}
 135              		.cfi_def_cfa_offset 8
 136              		.cfi_offset 4, -8
 137              		.cfi_offset 14, -4
 138              	.LBB346:
 139              	.LBB347:
 140              	.LBB348:
 141              	.LBB349:
 142              	.LBB350:
 143              		.loc 2 548 0
 144 0002 2023     		movs	r3, #32
 145              	@ 548 "../ChibiOS/os/ext/CMSIS/include/core_cmFunc.h" 1
 146 0004 83F31188 		MSR basepri, r3
 147              	@ 0 "" 2
 148              	.LVL4:
 149              		.thumb
 150              	.LBE350:
 151              	.LBE349:
 152              	.LBE348:
 153              	.LBE347:
 154              	.LBE346:
 155              	.LBB351:
 156              	.LBB352:
 157              	.LBB353:
 158              	.LBB354:
 159              	.LBB355:
 160 0008 0024     		movs	r4, #0
 161              	@ 548 "../ChibiOS/os/ext/CMSIS/include/core_cmFunc.h" 1
 162 000a 84F31188 		MSR basepri, r4
 163              	@ 0 "" 2
 164              	.LVL5:
 165              		.thumb
 166              	.LBE355:
 167              	.LBE354:
 168              	.LBE353:
 169              	.LBE352:
 170              	.LBE351:
ARM GAS  /tmp/ccrXC91b.s 			page 4


 171              	.LBB356:
 172              	.LBB357:
 173              	.LBB358:
 174              	.LBB359:
 175              	.LBB360:
 176              	@ 548 "../ChibiOS/os/ext/CMSIS/include/core_cmFunc.h" 1
 177 000e 83F31188 		MSR basepri, r3
 178              	@ 0 "" 2
 179              		.thumb
 180              	.LBE360:
 181              	.LBE359:
 182              	.LBE358:
 183              	.LBE357:
 184              	.LBE356:
 185              		.loc 1 64 0
 186 0012 FFF7FEFF 		bl	chSysGetStatusAndLockX
 187              	.LVL6:
 188              		.loc 1 65 0
 189 0016 FFF7FEFF 		bl	chSysRestoreStatusX
 190              	.LVL7:
 191              	.LBB361:
 192              	.LBB362:
 193              	.LBB363:
 194              	.LBB364:
 195              	.LBB365:
 196              		.loc 2 548 0
 197              	@ 548 "../ChibiOS/os/ext/CMSIS/include/core_cmFunc.h" 1
 198 001a 84F31188 		MSR basepri, r4
 199              	@ 0 "" 2
 200              		.thumb
 201 001e 10BD     		pop	{r4, pc}
 202              	.LBE365:
 203              	.LBE364:
 204              	.LBE363:
 205              	.LBE362:
 206              	.LBE361:
 207              		.cfi_endproc
 208              	.LFE241:
 209              		.size	vtcb, .-vtcb
 210              		.section	.text.sys3_execute,"ax",%progbits
 211              		.align	2
 212              		.p2align 4,,15
 213              		.thumb
 214              		.thumb_func
 215              		.type	sys3_execute, %function
 216              	sys3_execute:
 217              	.LFB244:
 218              		.loc 1 138 0
 219              		.cfi_startproc
 220              		@ args = 0, pretend = 0, frame = 0
 221              		@ frame_needed = 0, uses_anonymous_args = 0
 222              	.LVL8:
 223 0000 38B5     		push	{r3, r4, r5, lr}
 224              		.cfi_def_cfa_offset 16
 225              		.cfi_offset 3, -16
 226              		.cfi_offset 4, -12
 227              		.cfi_offset 5, -8
ARM GAS  /tmp/ccrXC91b.s 			page 5


 228              		.cfi_offset 14, -4
 229              	.LBB431:
 230              	.LBB432:
 231              	.LBB433:
 232              	.LBB434:
 233              		.loc 2 548 0
 234 0002 2024     		movs	r4, #32
 235              	@ 548 "../ChibiOS/os/ext/CMSIS/include/core_cmFunc.h" 1
 236 0004 84F31188 		MSR basepri, r4
 237              	@ 0 "" 2
 238              		.thumb
 239              	.LBE434:
 240              	.LBE433:
 241              	.LBE432:
 242              	.LBE431:
 243              		.loc 1 142 0
 244 0008 0120     		movs	r0, #1
 245 000a FFF7FEFF 		bl	chSysIntegrityCheckI
 246              	.LVL9:
 247              	.LBB435:
 248              	.LBB436:
 249              	.LBB437:
 250              	.LBB438:
 251              	.LBB439:
 252              		.loc 2 548 0
 253 000e 0023     		movs	r3, #0
 254              	@ 548 "../ChibiOS/os/ext/CMSIS/include/core_cmFunc.h" 1
 255 0010 83F31188 		MSR basepri, r3
 256              	@ 0 "" 2
 257              		.thumb
 258              	.LBE439:
 259              	.LBE438:
 260              	.LBE437:
 261              	.LBE436:
 262              	.LBE435:
 263              		.loc 1 144 0
 264 0014 80F00101 		eor	r1, r0, #1
 265 0018 C9B2     		uxtb	r1, r1
 266 001a 0120     		movs	r0, #1
 267              	.LVL10:
 268 001c FFF7FEFF 		bl	_test_assert
 269              	.LVL11:
 270 0020 0546     		mov	r5, r0
 271 0022 00B1     		cbz	r0, .L8
 272              	.L3:
 273 0024 38BD     		pop	{r3, r4, r5, pc}
 274              	.L8:
 275              	.LVL12:
 276              	.LBB440:
 277              	.LBB441:
 278              	.LBB442:
 279              	.LBB443:
 280              		.loc 2 548 0
 281              	@ 548 "../ChibiOS/os/ext/CMSIS/include/core_cmFunc.h" 1
 282 0026 84F31188 		MSR basepri, r4
 283              	@ 0 "" 2
 284              		.thumb
ARM GAS  /tmp/ccrXC91b.s 			page 6


 285              	.LBE443:
 286              	.LBE442:
 287              	.LBE441:
 288              	.LBE440:
 289              		.loc 1 147 0
 290 002a 0220     		movs	r0, #2
 291 002c FFF7FEFF 		bl	chSysIntegrityCheckI
 292              	.LVL13:
 293              	.LBB444:
 294              	.LBB445:
 295              	.LBB446:
 296              	.LBB447:
 297              	.LBB448:
 298              		.loc 2 548 0
 299              	@ 548 "../ChibiOS/os/ext/CMSIS/include/core_cmFunc.h" 1
 300 0030 85F31188 		MSR basepri, r5
 301              	@ 0 "" 2
 302              		.thumb
 303              	.LBE448:
 304              	.LBE447:
 305              	.LBE446:
 306              	.LBE445:
 307              	.LBE444:
 308              		.loc 1 149 0
 309 0034 80F00101 		eor	r1, r0, #1
 310 0038 C9B2     		uxtb	r1, r1
 311 003a 0220     		movs	r0, #2
 312              	.LVL14:
 313 003c FFF7FEFF 		bl	_test_assert
 314              	.LVL15:
 315 0040 0546     		mov	r5, r0
 316 0042 0028     		cmp	r0, #0
 317 0044 EED1     		bne	.L3
 318              	.LVL16:
 319              	.LBB449:
 320              	.LBB450:
 321              	.LBB451:
 322              	.LBB452:
 323              		.loc 2 548 0
 324              	@ 548 "../ChibiOS/os/ext/CMSIS/include/core_cmFunc.h" 1
 325 0046 84F31188 		MSR basepri, r4
 326              	@ 0 "" 2
 327              		.thumb
 328              	.LBE452:
 329              	.LBE451:
 330              	.LBE450:
 331              	.LBE449:
 332              		.loc 1 152 0
 333 004a 0420     		movs	r0, #4
 334 004c FFF7FEFF 		bl	chSysIntegrityCheckI
 335              	.LVL17:
 336              	.LBB453:
 337              	.LBB454:
 338              	.LBB455:
 339              	.LBB456:
 340              	.LBB457:
 341              		.loc 2 548 0
ARM GAS  /tmp/ccrXC91b.s 			page 7


 342              	@ 548 "../ChibiOS/os/ext/CMSIS/include/core_cmFunc.h" 1
 343 0050 85F31188 		MSR basepri, r5
 344              	@ 0 "" 2
 345              		.thumb
 346              	.LBE457:
 347              	.LBE456:
 348              	.LBE455:
 349              	.LBE454:
 350              	.LBE453:
 351              		.loc 1 154 0
 352 0054 80F00101 		eor	r1, r0, #1
 353 0058 C9B2     		uxtb	r1, r1
 354 005a 0320     		movs	r0, #3
 355              	.LVL18:
 356 005c FFF7FEFF 		bl	_test_assert
 357              	.LVL19:
 358 0060 0546     		mov	r5, r0
 359 0062 0028     		cmp	r0, #0
 360 0064 DED1     		bne	.L3
 361              	.LVL20:
 362              	.LBB458:
 363              	.LBB459:
 364              	.LBB460:
 365              	.LBB461:
 366              	.LBB462:
 367              	.LBB463:
 368              		.loc 2 548 0
 369              	@ 548 "../ChibiOS/os/ext/CMSIS/include/core_cmFunc.h" 1
 370 0066 84F31188 		MSR basepri, r4
 371              	@ 0 "" 2
 372              		.thumb
 373              	.LBE463:
 374              	.LBE462:
 375              	.LBE461:
 376              	.LBE460:
 377              		.loc 1 157 0
 378 006a 0820     		movs	r0, #8
 379 006c FFF7FEFF 		bl	chSysIntegrityCheckI
 380              	.LVL21:
 381              	.LBB464:
 382              	.LBB465:
 383              	.LBB466:
 384              	.LBB467:
 385              	.LBB468:
 386              		.loc 2 548 0
 387              	@ 548 "../ChibiOS/os/ext/CMSIS/include/core_cmFunc.h" 1
 388 0070 85F31188 		MSR basepri, r5
 389              	@ 0 "" 2
 390              		.thumb
 391              	.LBE468:
 392              	.LBE467:
 393              	.LBE466:
 394              	.LBE465:
 395              	.LBE464:
 396              		.loc 1 159 0
 397 0074 80F00101 		eor	r1, r0, #1
 398 0078 C9B2     		uxtb	r1, r1
ARM GAS  /tmp/ccrXC91b.s 			page 8


 399 007a 0420     		movs	r0, #4
 400              	.LVL22:
 401              	.LBE459:
 402              	.LBE458:
 403              		.loc 1 160 0
 404 007c BDE83840 		pop	{r3, r4, r5, lr}
 405              	.LBB470:
 406              	.LBB469:
 407              		.loc 1 159 0
 408 0080 FFF7FEBF 		b	_test_assert
 409              	.LVL23:
 410              	.LBE469:
 411              	.LBE470:
 412              		.cfi_endproc
 413              	.LFE244:
 414              		.size	sys3_execute, .-sys3_execute
 415 0084 AFF30080 		.section	.text.sys1_execute,"ax",%progbits
 415      AFF30080 
 415      AFF30080 
 416              		.align	2
 417              		.p2align 4,,15
 418              		.thumb
 419              		.thumb_func
 420              		.type	sys1_execute, %function
 421              	sys1_execute:
 422              	.LFB242:
 423              		.loc 1 69 0
 424              		.cfi_startproc
 425              		@ args = 0, pretend = 0, frame = 24
 426              		@ frame_needed = 0, uses_anonymous_args = 0
 427 0000 10B5     		push	{r4, lr}
 428              		.cfi_def_cfa_offset 8
 429              		.cfi_offset 4, -8
 430              		.cfi_offset 14, -4
 431 0002 86B0     		sub	sp, sp, #24
 432              		.cfi_def_cfa_offset 32
 433              		.loc 1 74 0
 434 0004 FFF7FEFF 		bl	chSysGetStatusAndLockX
 435              	.LVL24:
 436              		.loc 1 75 0
 437 0008 FFF7FEFF 		bl	chSysRestoreStatusX
 438              	.LVL25:
 439              	.LBB561:
 440              	.LBB562:
 441              	.LBB563:
 442              	.LBB564:
 443              		.loc 2 548 0
 444 000c 2024     		movs	r4, #32
 445              	@ 548 "../ChibiOS/os/ext/CMSIS/include/core_cmFunc.h" 1
 446 000e 84F31188 		MSR basepri, r4
 447              	@ 0 "" 2
 448              		.thumb
 449              	.LBE564:
 450              	.LBE563:
 451              	.LBE562:
 452              	.LBE561:
 453              		.loc 1 79 0
ARM GAS  /tmp/ccrXC91b.s 			page 9


 454 0012 FFF7FEFF 		bl	chSysGetStatusAndLockX
 455              	.LVL26:
 456              		.loc 1 80 0
 457 0016 FFF7FEFF 		bl	chSysRestoreStatusX
 458              	.LVL27:
 459              	.LBB565:
 460              	.LBB566:
 461              	.LBB567:
 462              	.LBB568:
 463              	.LBB569:
 464              		.loc 2 548 0
 465 001a 0023     		movs	r3, #0
 466              	@ 548 "../ChibiOS/os/ext/CMSIS/include/core_cmFunc.h" 1
 467 001c 83F31188 		MSR basepri, r3
 468              	@ 0 "" 2
 469              		.thumb
 470              	.LBE569:
 471              	.LBE568:
 472              	.LBE567:
 473              	.LBE566:
 474              	.LBE565:
 475              	.LBB570:
 476              	.LBB571:
 477              	.LBB572:
 478              	.LBB573:
 479              	.LBB574:
 480              	.LBB575:
 481              		.loc 2 535 0
 482              	@ 535 "../ChibiOS/os/ext/CMSIS/include/core_cmFunc.h" 1
 483 0020 EFF31183 		MRS r3, basepri
 484              	@ 0 "" 2
 485              	.LVL28:
 486              		.thumb
 487              	.LBE575:
 488              	.LBE574:
 489              	.LBE573:
 490              	.LBE572:
 491              		.file 3 "../ChibiOS/os/rt/include/chsys.h"
 492              		.loc 3 422 0
 493 0024 0BB9     		cbnz	r3, .L10
 494              	.LVL29:
 495              	.LBB576:
 496              	.LBB577:
 497              	.LBB578:
 498              	.LBB579:
 499              		.loc 2 548 0
 500              	@ 548 "../ChibiOS/os/ext/CMSIS/include/core_cmFunc.h" 1
 501 0026 84F31188 		MSR basepri, r4
 502              	@ 0 "" 2
 503              	.LVL30:
 504              		.thumb
 505              	.L10:
 506              	.LBE579:
 507              	.LBE578:
 508              	.LBE577:
 509              	.LBE576:
 510              	.LBE571:
ARM GAS  /tmp/ccrXC91b.s 			page 10


 511              	.LBE570:
 512              	.LBB580:
 513              	.LBB581:
 514              	.LBB582:
 515              	.LBB583:
 516              	.LBB584:
 517              	.LBB585:
 518              		.loc 2 535 0
 519              	@ 535 "../ChibiOS/os/ext/CMSIS/include/core_cmFunc.h" 1
 520 002a EFF31183 		MRS r3, basepri
 521              	@ 0 "" 2
 522              	.LVL31:
 523              		.thumb
 524              	.LBE585:
 525              	.LBE584:
 526              	.LBE583:
 527              	.LBE582:
 528              		.loc 3 422 0
 529 002e 13B9     		cbnz	r3, .L11
 530              	.LVL32:
 531              	.LBB586:
 532              	.LBB587:
 533              	.LBB588:
 534              	.LBB589:
 535              		.loc 2 548 0
 536 0030 2023     		movs	r3, #32
 537              	.LVL33:
 538              	@ 548 "../ChibiOS/os/ext/CMSIS/include/core_cmFunc.h" 1
 539 0032 83F31188 		MSR basepri, r3
 540              	@ 0 "" 2
 541              	.LVL34:
 542              		.thumb
 543              	.L11:
 544              	.LBE589:
 545              	.LBE588:
 546              	.LBE587:
 547              	.LBE586:
 548              	.LBE581:
 549              	.LBE580:
 550              	.LBB590:
 551              	.LBB591:
 552              	.LBB592:
 553              	.LBB593:
 554              	.LBB594:
 555 0036 0023     		movs	r3, #0
 556              	@ 548 "../ChibiOS/os/ext/CMSIS/include/core_cmFunc.h" 1
 557 0038 83F31188 		MSR basepri, r3
 558              	@ 0 "" 2
 559              	.LVL35:
 560              		.thumb
 561              	.LBE594:
 562              	.LBE593:
 563              	.LBE592:
 564              	.LBE591:
 565              	.LBE590:
 566              	.LBB595:
 567              	.LBB596:
ARM GAS  /tmp/ccrXC91b.s 			page 11


 568              	.LBB597:
 569              	.LBB598:
 570 003c 2022     		movs	r2, #32
 571              	@ 548 "../ChibiOS/os/ext/CMSIS/include/core_cmFunc.h" 1
 572 003e 82F31188 		MSR basepri, r2
 573              	@ 0 "" 2
 574              		.thumb
 575              	.LBE598:
 576              	.LBE597:
 577              	.LBE596:
 578              	.LBE595:
 579              	.LBB599:
 580              	.LBB600:
 581              	.LBB601:
 582              	.LBB602:
 583              	.LBB603:
 584              	.LBB604:
 585              		.loc 2 535 0
 586              	@ 535 "../ChibiOS/os/ext/CMSIS/include/core_cmFunc.h" 1
 587 0042 EFF31182 		MRS r2, basepri
 588              	@ 0 "" 2
 589              	.LVL36:
 590              		.thumb
 591              	.LBE604:
 592              	.LBE603:
 593              	.LBE602:
 594              	.LBE601:
 595              		.loc 3 436 0
 596 0046 0AB1     		cbz	r2, .L12
 597              	.LVL37:
 598              	.LBB605:
 599              	.LBB606:
 600              	.LBB607:
 601              	.LBB608:
 602              	.LBB609:
 603              		.loc 2 548 0
 604              	@ 548 "../ChibiOS/os/ext/CMSIS/include/core_cmFunc.h" 1
 605 0048 83F31188 		MSR basepri, r3
 606              	@ 0 "" 2
 607              	.LVL38:
 608              		.thumb
 609              	.L12:
 610              	.LBE609:
 611              	.LBE608:
 612              	.LBE607:
 613              	.LBE606:
 614              	.LBE605:
 615              	.LBE600:
 616              	.LBE599:
 617              	.LBB610:
 618              	.LBB611:
 619              	.LBB612:
 620              	.LBB613:
 621              	.LBB614:
 622              	.LBB615:
 623              		.loc 2 535 0
 624              	@ 535 "../ChibiOS/os/ext/CMSIS/include/core_cmFunc.h" 1
ARM GAS  /tmp/ccrXC91b.s 			page 12


 625 004c EFF31183 		MRS r3, basepri
 626              	@ 0 "" 2
 627              	.LVL39:
 628              		.thumb
 629              	.LBE615:
 630              	.LBE614:
 631              	.LBE613:
 632              	.LBE612:
 633              		.loc 3 436 0
 634 0050 13B1     		cbz	r3, .L13
 635              	.LVL40:
 636              	.LBB616:
 637              	.LBB617:
 638              	.LBB618:
 639              	.LBB619:
 640              	.LBB620:
 641              		.loc 2 548 0
 642 0052 0023     		movs	r3, #0
 643              	.LVL41:
 644              	@ 548 "../ChibiOS/os/ext/CMSIS/include/core_cmFunc.h" 1
 645 0054 83F31188 		MSR basepri, r3
 646              	@ 0 "" 2
 647              	.LVL42:
 648              		.thumb
 649              	.L13:
 650              	.LBE620:
 651              	.LBE619:
 652              	.LBE618:
 653              	.LBE617:
 654              	.LBE616:
 655              	.LBE611:
 656              	.LBE610:
 657              	.LBB621:
 658              	.LBB622:
 659              		.file 4 "../ChibiOS/os/rt/include/chvt.h"
 660              		.loc 4 212 0
 661 0058 0023     		movs	r3, #0
 662 005a 0493     		str	r3, [sp, #16]
 663              	.LVL43:
 664              	.LBE622:
 665              	.LBE621:
 666              	.LBB623:
 667              	.LBB624:
 668              	.LBB625:
 669              	.LBB626:
 670              	.LBB627:
 671              		.loc 2 548 0
 672 005c 2023     		movs	r3, #32
 673              	@ 548 "../ChibiOS/os/ext/CMSIS/include/core_cmFunc.h" 1
 674 005e 83F31188 		MSR basepri, r3
 675              	@ 0 "" 2
 676              	.LVL44:
 677              		.thumb
 678              	.LBE627:
 679              	.LBE626:
 680              	.LBE625:
 681              	.LBE624:
ARM GAS  /tmp/ccrXC91b.s 			page 13


 682              	.LBB628:
 683              	.LBB629:
 684              	.LBB630:
 685              	.LBB631:
 686              		.loc 4 412 0
 687 0062 049B     		ldr	r3, [sp, #16]
 688              		.loc 4 413 0
 689 0064 01AC     		add	r4, sp, #4
 690              	.LVL45:
 691              		.loc 4 412 0
 692 0066 13B1     		cbz	r3, .L14
 693              		.loc 4 413 0
 694 0068 2046     		mov	r0, r4
 695 006a FFF7FEFF 		bl	chVTDoResetI
 696              	.LVL46:
 697              	.L14:
 698              	.LBE631:
 699              	.LBE630:
 700              		.loc 4 460 0
 701 006e 2046     		mov	r0, r4
 702 0070 0121     		movs	r1, #1
 703 0072 0C4A     		ldr	r2, .L26
 704 0074 0023     		movs	r3, #0
 705 0076 FFF7FEFF 		bl	chVTDoSetI
 706              	.LVL47:
 707              	.LBE629:
 708              	.LBE628:
 709              	.LBB632:
 710              	.LBB633:
 711              	.LBB634:
 712              	.LBB635:
 713              	.LBB636:
 714              		.loc 2 548 0
 715 007a 0024     		movs	r4, #0
 716              	.LVL48:
 717              	@ 548 "../ChibiOS/os/ext/CMSIS/include/core_cmFunc.h" 1
 718 007c 84F31188 		MSR basepri, r4
 719              	@ 0 "" 2
 720              		.thumb
 721              	.LBE636:
 722              	.LBE635:
 723              	.LBE634:
 724              	.LBE633:
 725              	.LBE632:
 726              	.LBE623:
 727              		.loc 1 96 0
 728 0080 0A20     		movs	r0, #10
 729 0082 FFF7FEFF 		bl	chThdSleep
 730              	.LVL49:
 731              	.LBB637:
 732              	.LBB638:
 733              	.LBB639:
 734              	.LBB640:
 735              	.LBB641:
 736              	.LBB642:
 737              		.loc 2 548 0
 738 0086 2023     		movs	r3, #32
ARM GAS  /tmp/ccrXC91b.s 			page 14


 739              	@ 548 "../ChibiOS/os/ext/CMSIS/include/core_cmFunc.h" 1
 740 0088 83F31188 		MSR basepri, r3
 741              	@ 0 "" 2
 742              		.thumb
 743              	.LBE642:
 744              	.LBE641:
 745              	.LBE640:
 746              	.LBE639:
 747              	.LBE638:
 748              	.LBE637:
 749              		.loc 4 390 0
 750 008c 0499     		ldr	r1, [sp, #16]
 751              	.LVL50:
 752              	.LBB649:
 753              	.LBB648:
 754              	.LBB643:
 755              	.LBB644:
 756              	.LBB645:
 757              	.LBB646:
 758              	.LBB647:
 759              		.loc 2 548 0
 760              	@ 548 "../ChibiOS/os/ext/CMSIS/include/core_cmFunc.h" 1
 761 008e 84F31188 		MSR basepri, r4
 762              	@ 0 "" 2
 763              		.thumb
 764              	.LBE647:
 765              	.LBE646:
 766              	.LBE645:
 767              	.LBE644:
 768              	.LBE643:
 769              	.LBE648:
 770              	.LBE649:
 771              		.loc 1 98 0
 772 0092 0B1B     		subs	r3, r1, r4
 773 0094 5942     		rsbs	r1, r3, #0
 774 0096 5941     		adcs	r1, r1, r3
 775 0098 0120     		movs	r0, #1
 776 009a FFF7FEFF 		bl	_test_assert
 777              	.LVL51:
 778              		.loc 1 99 0
 779 009e 06B0     		add	sp, sp, #24
 780              		@ sp needed
 781 00a0 10BD     		pop	{r4, pc}
 782              	.LVL52:
 783              	.L27:
 784 00a2 00BF     		.align	2
 785              	.L26:
 786 00a4 00000000 		.word	vtcb
 787              		.cfi_endproc
 788              	.LFE242:
 789              		.size	sys1_execute, .-sys1_execute
 790              		.global	patternsys
 791              		.global	testsys3
 792              		.global	testsys2
 793              		.global	testsys1
 794 00a8 AFF30080 		.section	.rodata.testsys1,"a",%progbits
 794      AFF30080 
ARM GAS  /tmp/ccrXC91b.s 			page 15


 795              		.align	2
 796              		.type	testsys1, %object
 797              		.size	testsys1, 16
 798              	testsys1:
 799 0000 30000000 		.word	.LC2
 800 0004 00000000 		.word	0
 801 0008 00000000 		.word	0
 802 000c 00000000 		.word	sys1_execute
 803              		.section	.rodata.testsys2,"a",%progbits
 804              		.align	2
 805              		.type	testsys2, %object
 806              		.size	testsys2, 16
 807              	testsys2:
 808 0000 14000000 		.word	.LC1
 809 0004 00000000 		.word	0
 810 0008 00000000 		.word	0
 811 000c 00000000 		.word	sys2_execute
 812              		.section	.rodata.testsys3,"a",%progbits
 813              		.align	2
 814              		.type	testsys3, %object
 815              		.size	testsys3, 16
 816              	testsys3:
 817 0000 00000000 		.word	.LC0
 818 0004 00000000 		.word	0
 819 0008 00000000 		.word	0
 820 000c 00000000 		.word	sys3_execute
 821              		.section	.rodata.str1.4,"aMS",%progbits,1
 822              		.align	2
 823              	.LC0:
 824 0000 53797374 		.ascii	"System, integrity\000"
 824      656D2C20 
 824      696E7465 
 824      67726974 
 824      7900
 825 0012 0000     		.space	2
 826              	.LC1:
 827 0014 53797374 		.ascii	"System, interrupts handling\000"
 827      656D2C20 
 827      696E7465 
 827      72727570 
 827      74732068 
 828              	.LC2:
 829 0030 53797374 		.ascii	"System, critical zones\000"
 829      656D2C20 
 829      63726974 
 829      6963616C 
 829      207A6F6E 
 830 0047 00       		.section	.rodata.patternsys,"a",%progbits
 831              		.align	2
 832              		.type	patternsys, %object
 833              		.size	patternsys, 16
 834              	patternsys:
 835 0000 00000000 		.word	testsys1
 836 0004 00000000 		.word	testsys2
 837 0008 00000000 		.word	testsys3
 838 000c 00000000 		.word	0
 839              		.text
ARM GAS  /tmp/ccrXC91b.s 			page 16


 840              	.Letext0:
 841              		.file 5 "/nfs/nfs5/home/research/hardware/arm2/gcc-arm-embedded/gcc-arm-none-eabi-4_8-2014q2/lib/g
 842              		.file 6 "/nfs/nfs5/home/research/hardware/arm2/gcc-arm-embedded/gcc-arm-none-eabi-4_8-2014q2/arm-n
 843              		.file 7 "/nfs/nfs5/home/research/hardware/arm2/gcc-arm-embedded/gcc-arm-none-eabi-4_8-2014q2/arm-n
 844              		.file 8 "../ChibiOS/os/rt/ports/ARMCMx/compilers/GCC/chtypes.h"
 845              		.file 9 "../ChibiOS/os/rt/include/chsystypes.h"
 846              		.file 10 "../ChibiOS/os/rt/include/chschd.h"
 847              		.file 11 "../ChibiOS/os/rt/ports/ARMCMx/chcore.h"
 848              		.file 12 "../ChibiOS/os/rt/ports/ARMCMx/chcore_v7m.h"
 849              		.file 13 "../ChibiOS/os/rt/include/chtm.h"
 850              		.file 14 "../ChibiOS/os/rt/include/chsem.h"
 851              		.file 15 "../ChibiOS/os/rt/include/chmtx.h"
 852              		.file 16 "../ChibiOS/test/rt/test.h"
 853              		.file 17 "../ChibiOS/os/ext/CMSIS/include/core_cm4.h"
 854              		.file 18 "../ChibiOS/os/rt/include/chthreads.h"
 855              		.section	.debug_info,"",%progbits
 856              	.Ldebug_info0:
 857 0000 62150000 		.4byte	0x1562
 858 0004 0400     		.2byte	0x4
 859 0006 00000000 		.4byte	.Ldebug_abbrev0
 860 000a 04       		.byte	0x4
 861 000b 01       		.uleb128 0x1
 862 000c C4050000 		.4byte	.LASF156
 863 0010 01       		.byte	0x1
 864 0011 72010000 		.4byte	.LASF157
 865 0015 21050000 		.4byte	.LASF158
 866 0019 30000000 		.4byte	.Ldebug_ranges0+0x30
 867 001d 00000000 		.4byte	0
 868 0021 00000000 		.4byte	.Ldebug_line0
 869 0025 02       		.uleb128 0x2
 870 0026 04       		.byte	0x4
 871 0027 05       		.byte	0x5
 872 0028 696E7400 		.ascii	"int\000"
 873 002c 03       		.uleb128 0x3
 874 002d 15000000 		.4byte	.LASF2
 875 0031 05       		.byte	0x5
 876 0032 D4       		.byte	0xd4
 877 0033 37000000 		.4byte	0x37
 878 0037 04       		.uleb128 0x4
 879 0038 04       		.byte	0x4
 880 0039 07       		.byte	0x7
 881 003a 09020000 		.4byte	.LASF0
 882 003e 04       		.uleb128 0x4
 883 003f 01       		.byte	0x1
 884 0040 06       		.byte	0x6
 885 0041 FB000000 		.4byte	.LASF1
 886 0045 03       		.uleb128 0x3
 887 0046 36000000 		.4byte	.LASF3
 888 004a 06       		.byte	0x6
 889 004b 1C       		.byte	0x1c
 890 004c 50000000 		.4byte	0x50
 891 0050 04       		.uleb128 0x4
 892 0051 01       		.byte	0x1
 893 0052 08       		.byte	0x8
 894 0053 48040000 		.4byte	.LASF4
 895 0057 04       		.uleb128 0x4
 896 0058 02       		.byte	0x2
ARM GAS  /tmp/ccrXC91b.s 			page 17


 897 0059 05       		.byte	0x5
 898 005a 64040000 		.4byte	.LASF5
 899 005e 04       		.uleb128 0x4
 900 005f 02       		.byte	0x2
 901 0060 07       		.byte	0x7
 902 0061 7C020000 		.4byte	.LASF6
 903 0065 03       		.uleb128 0x3
 904 0066 D4020000 		.4byte	.LASF7
 905 006a 06       		.byte	0x6
 906 006b 37       		.byte	0x37
 907 006c 70000000 		.4byte	0x70
 908 0070 04       		.uleb128 0x4
 909 0071 04       		.byte	0x4
 910 0072 05       		.byte	0x5
 911 0073 53010000 		.4byte	.LASF8
 912 0077 03       		.uleb128 0x3
 913 0078 C3060000 		.4byte	.LASF9
 914 007c 06       		.byte	0x6
 915 007d 38       		.byte	0x38
 916 007e 82000000 		.4byte	0x82
 917 0082 04       		.uleb128 0x4
 918 0083 04       		.byte	0x4
 919 0084 07       		.byte	0x7
 920 0085 8F050000 		.4byte	.LASF10
 921 0089 04       		.uleb128 0x4
 922 008a 08       		.byte	0x8
 923 008b 05       		.byte	0x5
 924 008c ED000000 		.4byte	.LASF11
 925 0090 03       		.uleb128 0x3
 926 0091 D7030000 		.4byte	.LASF12
 927 0095 06       		.byte	0x6
 928 0096 4E       		.byte	0x4e
 929 0097 9B000000 		.4byte	0x9b
 930 009b 04       		.uleb128 0x4
 931 009c 08       		.byte	0x8
 932 009d 07       		.byte	0x7
 933 009e 65000000 		.4byte	.LASF13
 934 00a2 03       		.uleb128 0x3
 935 00a3 69070000 		.4byte	.LASF14
 936 00a7 07       		.byte	0x7
 937 00a8 2A       		.byte	0x2a
 938 00a9 45000000 		.4byte	0x45
 939 00ad 03       		.uleb128 0x3
 940 00ae 40040000 		.4byte	.LASF15
 941 00b2 07       		.byte	0x7
 942 00b3 41       		.byte	0x41
 943 00b4 65000000 		.4byte	0x65
 944 00b8 03       		.uleb128 0x3
 945 00b9 11050000 		.4byte	.LASF16
 946 00bd 07       		.byte	0x7
 947 00be 42       		.byte	0x42
 948 00bf 77000000 		.4byte	0x77
 949 00c3 03       		.uleb128 0x3
 950 00c4 21000000 		.4byte	.LASF17
 951 00c8 07       		.byte	0x7
 952 00c9 4E       		.byte	0x4e
 953 00ca 90000000 		.4byte	0x90
ARM GAS  /tmp/ccrXC91b.s 			page 18


 954 00ce 03       		.uleb128 0x3
 955 00cf 0E070000 		.4byte	.LASF18
 956 00d3 08       		.byte	0x8
 957 00d4 39       		.byte	0x39
 958 00d5 B8000000 		.4byte	0xb8
 959 00d9 03       		.uleb128 0x3
 960 00da C4010000 		.4byte	.LASF19
 961 00de 08       		.byte	0x8
 962 00df 3B       		.byte	0x3b
 963 00e0 B8000000 		.4byte	0xb8
 964 00e4 03       		.uleb128 0x3
 965 00e5 BA070000 		.4byte	.LASF20
 966 00e9 08       		.byte	0x8
 967 00ea 3C       		.byte	0x3c
 968 00eb A2000000 		.4byte	0xa2
 969 00ef 03       		.uleb128 0x3
 970 00f0 69010000 		.4byte	.LASF21
 971 00f4 08       		.byte	0x8
 972 00f5 3D       		.byte	0x3d
 973 00f6 A2000000 		.4byte	0xa2
 974 00fa 03       		.uleb128 0x3
 975 00fb 00000000 		.4byte	.LASF22
 976 00ff 08       		.byte	0x8
 977 0100 3E       		.byte	0x3e
 978 0101 A2000000 		.4byte	0xa2
 979 0105 03       		.uleb128 0x3
 980 0106 0F040000 		.4byte	.LASF23
 981 010a 08       		.byte	0x8
 982 010b 40       		.byte	0x40
 983 010c B8000000 		.4byte	0xb8
 984 0110 03       		.uleb128 0x3
 985 0111 99020000 		.4byte	.LASF24
 986 0115 08       		.byte	0x8
 987 0116 41       		.byte	0x41
 988 0117 AD000000 		.4byte	0xad
 989 011b 03       		.uleb128 0x3
 990 011c 2A000000 		.4byte	.LASF25
 991 0120 08       		.byte	0x8
 992 0121 43       		.byte	0x43
 993 0122 B8000000 		.4byte	0xb8
 994 0126 03       		.uleb128 0x3
 995 0127 03020000 		.4byte	.LASF26
 996 012b 08       		.byte	0x8
 997 012c 45       		.byte	0x45
 998 012d AD000000 		.4byte	0xad
 999 0131 03       		.uleb128 0x3
 1000 0132 A5060000 		.4byte	.LASF27
 1001 0136 09       		.byte	0x9
 1002 0137 33       		.byte	0x33
 1003 0138 B8000000 		.4byte	0xb8
 1004 013c 03       		.uleb128 0x3
 1005 013d BB050000 		.4byte	.LASF28
 1006 0141 09       		.byte	0x9
 1007 0142 3F       		.byte	0x3f
 1008 0143 47010000 		.4byte	0x147
 1009 0147 05       		.uleb128 0x5
 1010 0148 8F020000 		.4byte	.LASF47
ARM GAS  /tmp/ccrXC91b.s 			page 19


 1011 014c 40       		.byte	0x40
 1012 014d 0A       		.byte	0xa
 1013 014e C2       		.byte	0xc2
 1014 014f 27020000 		.4byte	0x227
 1015 0153 06       		.uleb128 0x6
 1016 0154 7C040000 		.4byte	.LASF29
 1017 0158 0A       		.byte	0xa
 1018 0159 C3       		.byte	0xc3
 1019 015a 32020000 		.4byte	0x232
 1020 015e 00       		.byte	0
 1021 015f 06       		.uleb128 0x6
 1022 0160 00040000 		.4byte	.LASF30
 1023 0164 0A       		.byte	0xa
 1024 0165 C5       		.byte	0xc5
 1025 0166 32020000 		.4byte	0x232
 1026 016a 04       		.byte	0x4
 1027 016b 06       		.uleb128 0x6
 1028 016c D9000000 		.4byte	.LASF31
 1029 0170 0A       		.byte	0xa
 1030 0171 C7       		.byte	0xc7
 1031 0172 05010000 		.4byte	0x105
 1032 0176 08       		.byte	0x8
 1033 0177 06       		.uleb128 0x6
 1034 0178 EA070000 		.4byte	.LASF32
 1035 017c 0A       		.byte	0xa
 1036 017d C8       		.byte	0xc8
 1037 017e 62040000 		.4byte	0x462
 1038 0182 0C       		.byte	0xc
 1039 0183 06       		.uleb128 0x6
 1040 0184 B4010000 		.4byte	.LASF33
 1041 0188 0A       		.byte	0xa
 1042 0189 CA       		.byte	0xca
 1043 018a 32020000 		.4byte	0x232
 1044 018e 10       		.byte	0x10
 1045 018f 06       		.uleb128 0x6
 1046 0190 6D030000 		.4byte	.LASF34
 1047 0194 0A       		.byte	0xa
 1048 0195 CB       		.byte	0xcb
 1049 0196 32020000 		.4byte	0x232
 1050 019a 14       		.byte	0x14
 1051 019b 06       		.uleb128 0x6
 1052 019c 82070000 		.4byte	.LASF35
 1053 01a0 0A       		.byte	0xa
 1054 01a1 D2       		.byte	0xd2
 1055 01a2 ED050000 		.4byte	0x5ed
 1056 01a6 18       		.byte	0x18
 1057 01a7 06       		.uleb128 0x6
 1058 01a8 5C040000 		.4byte	.LASF36
 1059 01ac 0A       		.byte	0xa
 1060 01ad DD       		.byte	0xdd
 1061 01ae EF000000 		.4byte	0xef
 1062 01b2 1C       		.byte	0x1c
 1063 01b3 06       		.uleb128 0x6
 1064 01b4 9A040000 		.4byte	.LASF37
 1065 01b8 0A       		.byte	0xa
 1066 01b9 E1       		.byte	0xe1
 1067 01ba E4000000 		.4byte	0xe4
ARM GAS  /tmp/ccrXC91b.s 			page 20


 1068 01be 1D       		.byte	0x1d
 1069 01bf 06       		.uleb128 0x6
 1070 01c0 50070000 		.4byte	.LASF38
 1071 01c4 0A       		.byte	0xa
 1072 01c5 E6       		.byte	0xe6
 1073 01c6 FA000000 		.4byte	0xfa
 1074 01ca 1E       		.byte	0x1e
 1075 01cb 07       		.uleb128 0x7
 1076 01cc 705F7500 		.ascii	"p_u\000"
 1077 01d0 0A       		.byte	0xa
 1078 01d1 3701     		.2byte	0x137
 1079 01d3 1C050000 		.4byte	0x51c
 1080 01d7 20       		.byte	0x20
 1081 01d8 08       		.uleb128 0x8
 1082 01d9 F8020000 		.4byte	.LASF39
 1083 01dd 0A       		.byte	0xa
 1084 01de 3C01     		.2byte	0x13c
 1085 01e0 38020000 		.4byte	0x238
 1086 01e4 24       		.byte	0x24
 1087 01e5 08       		.uleb128 0x8
 1088 01e6 2E020000 		.4byte	.LASF40
 1089 01ea 0A       		.byte	0xa
 1090 01eb 4201     		.2byte	0x142
 1091 01ed 5C020000 		.4byte	0x25c
 1092 01f1 28       		.byte	0x28
 1093 01f2 08       		.uleb128 0x8
 1094 01f3 FB040000 		.4byte	.LASF41
 1095 01f7 0A       		.byte	0xa
 1096 01f8 4801     		.2byte	0x148
 1097 01fa 1B010000 		.4byte	0x11b
 1098 01fe 30       		.byte	0x30
 1099 01ff 08       		.uleb128 0x8
 1100 0200 B3020000 		.4byte	.LASF42
 1101 0204 0A       		.byte	0xa
 1102 0205 4F01     		.2byte	0x14f
 1103 0207 E7050000 		.4byte	0x5e7
 1104 020b 34       		.byte	0x34
 1105 020c 08       		.uleb128 0x8
 1106 020d AF060000 		.4byte	.LASF43
 1107 0211 0A       		.byte	0xa
 1108 0212 5301     		.2byte	0x153
 1109 0214 05010000 		.4byte	0x105
 1110 0218 38       		.byte	0x38
 1111 0219 08       		.uleb128 0x8
 1112 021a 07010000 		.4byte	.LASF44
 1113 021e 0A       		.byte	0xa
 1114 021f 5A01     		.2byte	0x15a
 1115 0221 0F030000 		.4byte	0x30f
 1116 0225 3C       		.byte	0x3c
 1117 0226 00       		.byte	0
 1118 0227 03       		.uleb128 0x3
 1119 0228 0B030000 		.4byte	.LASF45
 1120 022c 09       		.byte	0x9
 1121 022d 44       		.byte	0x44
 1122 022e 32020000 		.4byte	0x232
 1123 0232 09       		.uleb128 0x9
 1124 0233 04       		.byte	0x4
ARM GAS  /tmp/ccrXC91b.s 			page 21


 1125 0234 3C010000 		.4byte	0x13c
 1126 0238 03       		.uleb128 0x3
 1127 0239 96070000 		.4byte	.LASF46
 1128 023d 09       		.byte	0x9
 1129 023e 49       		.byte	0x49
 1130 023f 43020000 		.4byte	0x243
 1131 0243 05       		.uleb128 0x5
 1132 0244 68050000 		.4byte	.LASF48
 1133 0248 04       		.byte	0x4
 1134 0249 0A       		.byte	0xa
 1135 024a B0       		.byte	0xb0
 1136 024b 5C020000 		.4byte	0x25c
 1137 024f 06       		.uleb128 0x6
 1138 0250 7C040000 		.4byte	.LASF29
 1139 0254 0A       		.byte	0xa
 1140 0255 B1       		.byte	0xb1
 1141 0256 32020000 		.4byte	0x232
 1142 025a 00       		.byte	0
 1143 025b 00       		.byte	0
 1144 025c 03       		.uleb128 0x3
 1145 025d 37070000 		.4byte	.LASF49
 1146 0261 09       		.byte	0x9
 1147 0262 50       		.byte	0x50
 1148 0263 67020000 		.4byte	0x267
 1149 0267 05       		.uleb128 0x5
 1150 0268 C8000000 		.4byte	.LASF50
 1151 026c 08       		.byte	0x8
 1152 026d 0A       		.byte	0xa
 1153 026e B7       		.byte	0xb7
 1154 026f 8C020000 		.4byte	0x28c
 1155 0273 06       		.uleb128 0x6
 1156 0274 7C040000 		.4byte	.LASF29
 1157 0278 0A       		.byte	0xa
 1158 0279 B8       		.byte	0xb8
 1159 027a 32020000 		.4byte	0x232
 1160 027e 00       		.byte	0
 1161 027f 06       		.uleb128 0x6
 1162 0280 00040000 		.4byte	.LASF30
 1163 0284 0A       		.byte	0xa
 1164 0285 B9       		.byte	0xb9
 1165 0286 32020000 		.4byte	0x232
 1166 028a 04       		.byte	0x4
 1167 028b 00       		.byte	0
 1168 028c 03       		.uleb128 0x3
 1169 028d 08000000 		.4byte	.LASF51
 1170 0291 09       		.byte	0x9
 1171 0292 57       		.byte	0x57
 1172 0293 97020000 		.4byte	0x297
 1173 0297 0A       		.uleb128 0xa
 1174 0298 56020000 		.4byte	.LASF52
 1175 029c 1C       		.byte	0x1c
 1176 029d 0A       		.byte	0xa
 1177 029e 9201     		.2byte	0x192
 1178 02a0 F3020000 		.4byte	0x2f3
 1179 02a4 08       		.uleb128 0x8
 1180 02a5 50030000 		.4byte	.LASF53
 1181 02a9 0A       		.byte	0xa
ARM GAS  /tmp/ccrXC91b.s 			page 22


 1182 02aa 9301     		.2byte	0x193
 1183 02ac 5C020000 		.4byte	0x25c
 1184 02b0 00       		.byte	0
 1185 02b1 08       		.uleb128 0x8
 1186 02b2 6E040000 		.4byte	.LASF54
 1187 02b6 0A       		.byte	0xa
 1188 02b7 9401     		.2byte	0x194
 1189 02b9 05010000 		.4byte	0x105
 1190 02bd 08       		.byte	0x8
 1191 02be 08       		.uleb128 0x8
 1192 02bf 75030000 		.4byte	.LASF55
 1193 02c3 0A       		.byte	0xa
 1194 02c4 9601     		.2byte	0x196
 1195 02c6 62040000 		.4byte	0x462
 1196 02ca 0C       		.byte	0xc
 1197 02cb 08       		.uleb128 0x8
 1198 02cc CD010000 		.4byte	.LASF56
 1199 02d0 0A       		.byte	0xa
 1200 02d1 9901     		.2byte	0x199
 1201 02d3 32020000 		.4byte	0x232
 1202 02d7 10       		.byte	0x10
 1203 02d8 08       		.uleb128 0x8
 1204 02d9 C2030000 		.4byte	.LASF57
 1205 02dd 0A       		.byte	0xa
 1206 02de 9A01     		.2byte	0x19a
 1207 02e0 32020000 		.4byte	0x232
 1208 02e4 14       		.byte	0x14
 1209 02e5 08       		.uleb128 0x8
 1210 02e6 B8030000 		.4byte	.LASF58
 1211 02ea 0A       		.byte	0xa
 1212 02eb 9D01     		.2byte	0x19d
 1213 02ed 32020000 		.4byte	0x232
 1214 02f1 18       		.byte	0x18
 1215 02f2 00       		.byte	0
 1216 02f3 03       		.uleb128 0x3
 1217 02f4 BA060000 		.4byte	.LASF59
 1218 02f8 09       		.byte	0x9
 1219 02f9 5C       		.byte	0x5c
 1220 02fa FE020000 		.4byte	0x2fe
 1221 02fe 09       		.uleb128 0x9
 1222 02ff 04       		.byte	0x4
 1223 0300 04030000 		.4byte	0x304
 1224 0304 0B       		.uleb128 0xb
 1225 0305 0F030000 		.4byte	0x30f
 1226 0309 0C       		.uleb128 0xc
 1227 030a 0F030000 		.4byte	0x30f
 1228 030e 00       		.byte	0
 1229 030f 0D       		.uleb128 0xd
 1230 0310 04       		.byte	0x4
 1231 0311 03       		.uleb128 0x3
 1232 0312 F0030000 		.4byte	.LASF60
 1233 0316 09       		.byte	0x9
 1234 0317 61       		.byte	0x61
 1235 0318 1C030000 		.4byte	0x31c
 1236 031c 0A       		.uleb128 0xa
 1237 031d C9040000 		.4byte	.LASF61
 1238 0321 14       		.byte	0x14
ARM GAS  /tmp/ccrXC91b.s 			page 23


 1239 0322 0A       		.byte	0xa
 1240 0323 6D01     		.2byte	0x16d
 1241 0325 6B030000 		.4byte	0x36b
 1242 0329 08       		.uleb128 0x8
 1243 032a 16020000 		.4byte	.LASF62
 1244 032e 0A       		.byte	0xa
 1245 032f 6E01     		.2byte	0x16e
 1246 0331 FF050000 		.4byte	0x5ff
 1247 0335 00       		.byte	0
 1248 0336 08       		.uleb128 0x8
 1249 0337 DE010000 		.4byte	.LASF63
 1250 033b 0A       		.byte	0xa
 1251 033c 6F01     		.2byte	0x16f
 1252 033e FF050000 		.4byte	0x5ff
 1253 0342 04       		.byte	0x4
 1254 0343 08       		.uleb128 0x8
 1255 0344 25020000 		.4byte	.LASF64
 1256 0348 0A       		.byte	0xa
 1257 0349 7001     		.2byte	0x170
 1258 034b 31010000 		.4byte	0x131
 1259 034f 08       		.byte	0x8
 1260 0350 08       		.uleb128 0x8
 1261 0351 F0070000 		.4byte	.LASF65
 1262 0355 0A       		.byte	0xa
 1263 0356 7101     		.2byte	0x171
 1264 0358 F3020000 		.4byte	0x2f3
 1265 035c 0C       		.byte	0xc
 1266 035d 08       		.uleb128 0x8
 1267 035e 29070000 		.4byte	.LASF66
 1268 0362 0A       		.byte	0xa
 1269 0363 7301     		.2byte	0x173
 1270 0365 0F030000 		.4byte	0x30f
 1271 0369 10       		.byte	0x10
 1272 036a 00       		.byte	0
 1273 036b 03       		.uleb128 0x3
 1274 036c A5000000 		.4byte	.LASF67
 1275 0370 09       		.byte	0x9
 1276 0371 66       		.byte	0x66
 1277 0372 76030000 		.4byte	0x376
 1278 0376 0A       		.uleb128 0xa
 1279 0377 1E030000 		.4byte	.LASF68
 1280 037b 10       		.byte	0x10
 1281 037c 0A       		.byte	0xa
 1282 037d 7D01     		.2byte	0x17d
 1283 037f B8030000 		.4byte	0x3b8
 1284 0383 08       		.uleb128 0x8
 1285 0384 16020000 		.4byte	.LASF62
 1286 0388 0A       		.byte	0xa
 1287 0389 7E01     		.2byte	0x17e
 1288 038b FF050000 		.4byte	0x5ff
 1289 038f 00       		.byte	0
 1290 0390 08       		.uleb128 0x8
 1291 0391 DE010000 		.4byte	.LASF63
 1292 0395 0A       		.byte	0xa
 1293 0396 8001     		.2byte	0x180
 1294 0398 FF050000 		.4byte	0x5ff
 1295 039c 04       		.byte	0x4
ARM GAS  /tmp/ccrXC91b.s 			page 24


 1296 039d 08       		.uleb128 0x8
 1297 039e 25020000 		.4byte	.LASF64
 1298 03a2 0A       		.byte	0xa
 1299 03a3 8201     		.2byte	0x182
 1300 03a5 31010000 		.4byte	0x131
 1301 03a9 08       		.byte	0x8
 1302 03aa 08       		.uleb128 0x8
 1303 03ab 58030000 		.4byte	.LASF69
 1304 03af 0A       		.byte	0xa
 1305 03b0 8A01     		.2byte	0x18a
 1306 03b2 31010000 		.4byte	0x131
 1307 03b6 0C       		.byte	0xc
 1308 03b7 00       		.byte	0
 1309 03b8 03       		.uleb128 0x3
 1310 03b9 4C000000 		.4byte	.LASF70
 1311 03bd 09       		.byte	0x9
 1312 03be 6B       		.byte	0x6b
 1313 03bf C3030000 		.4byte	0x3c3
 1314 03c3 0A       		.uleb128 0xa
 1315 03c4 2A040000 		.4byte	.LASF71
 1316 03c8 04       		.byte	0x4
 1317 03c9 0A       		.byte	0xa
 1318 03ca A401     		.2byte	0x1a4
 1319 03cc DE030000 		.4byte	0x3de
 1320 03d0 08       		.uleb128 0x8
 1321 03d1 DC060000 		.4byte	.LASF72
 1322 03d5 0A       		.byte	0xa
 1323 03d6 AC01     		.2byte	0x1ac
 1324 03d8 05060000 		.4byte	0x605
 1325 03dc 00       		.byte	0
 1326 03dd 00       		.byte	0
 1327 03de 03       		.uleb128 0x3
 1328 03df F5060000 		.4byte	.LASF73
 1329 03e3 09       		.byte	0x9
 1330 03e4 70       		.byte	0x70
 1331 03e5 E9030000 		.4byte	0x3e9
 1332 03e9 0E       		.uleb128 0xe
 1333 03ea 49010000 		.4byte	.LASF74
 1334 03ee 5001     		.2byte	0x150
 1335 03f0 0A       		.byte	0xa
 1336 03f1 C401     		.2byte	0x1c4
 1337 03f3 45040000 		.4byte	0x445
 1338 03f7 08       		.uleb128 0x8
 1339 03f8 57070000 		.4byte	.LASF75
 1340 03fc 0A       		.byte	0xa
 1341 03fd C801     		.2byte	0x1c8
 1342 03ff 8C020000 		.4byte	0x28c
 1343 0403 00       		.byte	0
 1344 0404 08       		.uleb128 0x8
 1345 0405 30010000 		.4byte	.LASF76
 1346 0409 0A       		.byte	0xa
 1347 040a CC01     		.2byte	0x1cc
 1348 040c 6B030000 		.4byte	0x36b
 1349 0410 1C       		.byte	0x1c
 1350 0411 07       		.uleb128 0x7
 1351 0412 64626700 		.ascii	"dbg\000"
 1352 0416 0A       		.byte	0xa
ARM GAS  /tmp/ccrXC91b.s 			page 25


 1353 0417 D001     		.2byte	0x1d0
 1354 0419 B8030000 		.4byte	0x3b8
 1355 041d 2C       		.byte	0x2c
 1356 041e 08       		.uleb128 0x8
 1357 041f 92000000 		.4byte	.LASF77
 1358 0423 0A       		.byte	0xa
 1359 0424 D401     		.2byte	0x1d4
 1360 0426 3C010000 		.4byte	0x13c
 1361 042a 30       		.byte	0x30
 1362 042b 07       		.uleb128 0x7
 1363 042c 746D00   		.ascii	"tm\000"
 1364 042f 0A       		.byte	0xa
 1365 0430 D901     		.2byte	0x1d9
 1366 0432 11050000 		.4byte	0x511
 1367 0436 70       		.byte	0x70
 1368 0437 08       		.uleb128 0x8
 1369 0438 F4010000 		.4byte	.LASF78
 1370 043c 0A       		.byte	0xa
 1371 043d E501     		.2byte	0x1e5
 1372 043f 0A060000 		.4byte	0x60a
 1373 0443 78       		.byte	0x78
 1374 0444 00       		.byte	0
 1375 0445 04       		.uleb128 0x4
 1376 0446 04       		.byte	0x4
 1377 0447 07       		.byte	0x7
 1378 0448 02030000 		.4byte	.LASF79
 1379 044c 03       		.uleb128 0x3
 1380 044d D5010000 		.4byte	.LASF80
 1381 0451 0B       		.byte	0xb
 1382 0452 65       		.byte	0x65
 1383 0453 0F030000 		.4byte	0x30f
 1384 0457 03       		.uleb128 0x3
 1385 0458 ED020000 		.4byte	.LASF81
 1386 045c 0B       		.byte	0xb
 1387 045d 6D       		.byte	0x6d
 1388 045e C3000000 		.4byte	0xc3
 1389 0462 05       		.uleb128 0x5
 1390 0463 ED060000 		.4byte	.LASF82
 1391 0467 04       		.byte	0x4
 1392 0468 0B       		.byte	0xb
 1393 0469 89       		.byte	0x89
 1394 046a 7B040000 		.4byte	0x47b
 1395 046e 0F       		.uleb128 0xf
 1396 046f 72313300 		.ascii	"r13\000"
 1397 0473 0B       		.byte	0xb
 1398 0474 8A       		.byte	0x8a
 1399 0475 F6040000 		.4byte	0x4f6
 1400 0479 00       		.byte	0
 1401 047a 00       		.byte	0
 1402 047b 05       		.uleb128 0x5
 1403 047c 40000000 		.4byte	.LASF83
 1404 0480 24       		.byte	0x24
 1405 0481 0C       		.byte	0xc
 1406 0482 FD       		.byte	0xfd
 1407 0483 F6040000 		.4byte	0x4f6
 1408 0487 07       		.uleb128 0x7
 1409 0488 723400   		.ascii	"r4\000"
ARM GAS  /tmp/ccrXC91b.s 			page 26


 1410 048b 0C       		.byte	0xc
 1411 048c 1001     		.2byte	0x110
 1412 048e 4C040000 		.4byte	0x44c
 1413 0492 00       		.byte	0
 1414 0493 07       		.uleb128 0x7
 1415 0494 723500   		.ascii	"r5\000"
 1416 0497 0C       		.byte	0xc
 1417 0498 1101     		.2byte	0x111
 1418 049a 4C040000 		.4byte	0x44c
 1419 049e 04       		.byte	0x4
 1420 049f 07       		.uleb128 0x7
 1421 04a0 723600   		.ascii	"r6\000"
 1422 04a3 0C       		.byte	0xc
 1423 04a4 1201     		.2byte	0x112
 1424 04a6 4C040000 		.4byte	0x44c
 1425 04aa 08       		.byte	0x8
 1426 04ab 07       		.uleb128 0x7
 1427 04ac 723700   		.ascii	"r7\000"
 1428 04af 0C       		.byte	0xc
 1429 04b0 1301     		.2byte	0x113
 1430 04b2 4C040000 		.4byte	0x44c
 1431 04b6 0C       		.byte	0xc
 1432 04b7 07       		.uleb128 0x7
 1433 04b8 723800   		.ascii	"r8\000"
 1434 04bb 0C       		.byte	0xc
 1435 04bc 1401     		.2byte	0x114
 1436 04be 4C040000 		.4byte	0x44c
 1437 04c2 10       		.byte	0x10
 1438 04c3 07       		.uleb128 0x7
 1439 04c4 723900   		.ascii	"r9\000"
 1440 04c7 0C       		.byte	0xc
 1441 04c8 1501     		.2byte	0x115
 1442 04ca 4C040000 		.4byte	0x44c
 1443 04ce 14       		.byte	0x14
 1444 04cf 07       		.uleb128 0x7
 1445 04d0 72313000 		.ascii	"r10\000"
 1446 04d4 0C       		.byte	0xc
 1447 04d5 1601     		.2byte	0x116
 1448 04d7 4C040000 		.4byte	0x44c
 1449 04db 18       		.byte	0x18
 1450 04dc 07       		.uleb128 0x7
 1451 04dd 72313100 		.ascii	"r11\000"
 1452 04e1 0C       		.byte	0xc
 1453 04e2 1701     		.2byte	0x117
 1454 04e4 4C040000 		.4byte	0x44c
 1455 04e8 1C       		.byte	0x1c
 1456 04e9 07       		.uleb128 0x7
 1457 04ea 6C7200   		.ascii	"lr\000"
 1458 04ed 0C       		.byte	0xc
 1459 04ee 1801     		.2byte	0x118
 1460 04f0 4C040000 		.4byte	0x44c
 1461 04f4 20       		.byte	0x20
 1462 04f5 00       		.byte	0
 1463 04f6 09       		.uleb128 0x9
 1464 04f7 04       		.byte	0x4
 1465 04f8 7B040000 		.4byte	0x47b
 1466 04fc 10       		.uleb128 0x10
ARM GAS  /tmp/ccrXC91b.s 			page 27


 1467 04fd 04       		.byte	0x4
 1468 04fe 0D       		.byte	0xd
 1469 04ff 38       		.byte	0x38
 1470 0500 11050000 		.4byte	0x511
 1471 0504 06       		.uleb128 0x6
 1472 0505 E6060000 		.4byte	.LASF84
 1473 0509 0D       		.byte	0xd
 1474 050a 3C       		.byte	0x3c
 1475 050b CE000000 		.4byte	0xce
 1476 050f 00       		.byte	0
 1477 0510 00       		.byte	0
 1478 0511 03       		.uleb128 0x3
 1479 0512 A1030000 		.4byte	.LASF85
 1480 0516 0D       		.byte	0xd
 1481 0517 3D       		.byte	0x3d
 1482 0518 FC040000 		.4byte	0x4fc
 1483 051c 11       		.uleb128 0x11
 1484 051d 04       		.byte	0x4
 1485 051e 0A       		.byte	0xa
 1486 051f FA       		.byte	0xfa
 1487 0520 85050000 		.4byte	0x585
 1488 0524 12       		.uleb128 0x12
 1489 0525 C2040000 		.4byte	.LASF86
 1490 0529 0A       		.byte	0xa
 1491 052a 0101     		.2byte	0x101
 1492 052c 10010000 		.4byte	0x110
 1493 0530 12       		.uleb128 0x12
 1494 0531 89000000 		.4byte	.LASF87
 1495 0535 0A       		.byte	0xa
 1496 0536 0801     		.2byte	0x108
 1497 0538 10010000 		.4byte	0x110
 1498 053c 12       		.uleb128 0x12
 1499 053d AC020000 		.4byte	.LASF88
 1500 0541 0A       		.byte	0xa
 1501 0542 0F01     		.2byte	0x10f
 1502 0544 0F030000 		.4byte	0x30f
 1503 0548 12       		.uleb128 0x12
 1504 0549 43010000 		.4byte	.LASF89
 1505 054d 0A       		.byte	0xa
 1506 054e 1601     		.2byte	0x116
 1507 0550 85050000 		.4byte	0x585
 1508 0554 12       		.uleb128 0x12
 1509 0555 9D000000 		.4byte	.LASF90
 1510 0559 0A       		.byte	0xa
 1511 055a 1B01     		.2byte	0x11b
 1512 055c 10010000 		.4byte	0x110
 1513 0560 12       		.uleb128 0x12
 1514 0561 1E020000 		.4byte	.LASF91
 1515 0565 0A       		.byte	0xa
 1516 0566 2401     		.2byte	0x124
 1517 0568 B0050000 		.4byte	0x5b0
 1518 056c 12       		.uleb128 0x12
 1519 056d 1A050000 		.4byte	.LASF92
 1520 0571 0A       		.byte	0xa
 1521 0572 2D01     		.2byte	0x12d
 1522 0574 E7050000 		.4byte	0x5e7
 1523 0578 12       		.uleb128 0x12
ARM GAS  /tmp/ccrXC91b.s 			page 28


 1524 0579 75040000 		.4byte	.LASF93
 1525 057d 0A       		.byte	0xa
 1526 057e 3501     		.2byte	0x135
 1527 0580 1B010000 		.4byte	0x11b
 1528 0584 00       		.byte	0
 1529 0585 09       		.uleb128 0x9
 1530 0586 04       		.byte	0x4
 1531 0587 27020000 		.4byte	0x227
 1532 058b 05       		.uleb128 0x5
 1533 058c EE040000 		.4byte	.LASF94
 1534 0590 0C       		.byte	0xc
 1535 0591 0E       		.byte	0xe
 1536 0592 34       		.byte	0x34
 1537 0593 B0050000 		.4byte	0x5b0
 1538 0597 06       		.uleb128 0x6
 1539 0598 BC010000 		.4byte	.LASF95
 1540 059c 0E       		.byte	0xe
 1541 059d 35       		.byte	0x35
 1542 059e 5C020000 		.4byte	0x25c
 1543 05a2 00       		.byte	0
 1544 05a3 06       		.uleb128 0x6
 1545 05a4 76020000 		.4byte	.LASF96
 1546 05a8 0E       		.byte	0xe
 1547 05a9 37       		.byte	0x37
 1548 05aa 26010000 		.4byte	0x126
 1549 05ae 08       		.byte	0x8
 1550 05af 00       		.byte	0
 1551 05b0 09       		.uleb128 0x9
 1552 05b1 04       		.byte	0x4
 1553 05b2 8B050000 		.4byte	0x58b
 1554 05b6 05       		.uleb128 0x5
 1555 05b7 47070000 		.4byte	.LASF97
 1556 05bb 10       		.byte	0x10
 1557 05bc 0F       		.byte	0xf
 1558 05bd 39       		.byte	0x39
 1559 05be E7050000 		.4byte	0x5e7
 1560 05c2 06       		.uleb128 0x6
 1561 05c3 0F010000 		.4byte	.LASF98
 1562 05c7 0F       		.byte	0xf
 1563 05c8 3A       		.byte	0x3a
 1564 05c9 5C020000 		.4byte	0x25c
 1565 05cd 00       		.byte	0
 1566 05ce 06       		.uleb128 0x6
 1567 05cf CE070000 		.4byte	.LASF99
 1568 05d3 0F       		.byte	0xf
 1569 05d4 3C       		.byte	0x3c
 1570 05d5 32020000 		.4byte	0x232
 1571 05d9 08       		.byte	0x8
 1572 05da 06       		.uleb128 0x6
 1573 05db 9E060000 		.4byte	.LASF100
 1574 05df 0F       		.byte	0xf
 1575 05e0 3E       		.byte	0x3e
 1576 05e1 25060000 		.4byte	0x625
 1577 05e5 0C       		.byte	0xc
 1578 05e6 00       		.byte	0
 1579 05e7 09       		.uleb128 0x9
 1580 05e8 04       		.byte	0x4
ARM GAS  /tmp/ccrXC91b.s 			page 29


 1581 05e9 B6050000 		.4byte	0x5b6
 1582 05ed 09       		.uleb128 0x9
 1583 05ee 04       		.byte	0x4
 1584 05ef F3050000 		.4byte	0x5f3
 1585 05f3 13       		.uleb128 0x13
 1586 05f4 F8050000 		.4byte	0x5f8
 1587 05f8 04       		.uleb128 0x4
 1588 05f9 01       		.byte	0x1
 1589 05fa 08       		.byte	0x8
 1590 05fb A1050000 		.4byte	.LASF101
 1591 05ff 09       		.uleb128 0x9
 1592 0600 04       		.byte	0x4
 1593 0601 11030000 		.4byte	0x311
 1594 0605 14       		.uleb128 0x14
 1595 0606 ED050000 		.4byte	0x5ed
 1596 060a 15       		.uleb128 0x15
 1597 060b 57040000 		.4byte	0x457
 1598 060f 1A060000 		.4byte	0x61a
 1599 0613 16       		.uleb128 0x16
 1600 0614 45040000 		.4byte	0x445
 1601 0618 1A       		.byte	0x1a
 1602 0619 00       		.byte	0
 1603 061a 03       		.uleb128 0x3
 1604 061b E6010000 		.4byte	.LASF102
 1605 061f 0F       		.byte	0xf
 1606 0620 34       		.byte	0x34
 1607 0621 B6050000 		.4byte	0x5b6
 1608 0625 09       		.uleb128 0x9
 1609 0626 04       		.byte	0x4
 1610 0627 1A060000 		.4byte	0x61a
 1611 062b 05       		.uleb128 0x5
 1612 062c E5040000 		.4byte	.LASF103
 1613 0630 10       		.byte	0x10
 1614 0631 10       		.byte	0x10
 1615 0632 3B       		.byte	0x3b
 1616 0633 68060000 		.4byte	0x668
 1617 0637 06       		.uleb128 0x6
 1618 0638 64020000 		.4byte	.LASF104
 1619 063c 10       		.byte	0x10
 1620 063d 3C       		.byte	0x3c
 1621 063e ED050000 		.4byte	0x5ed
 1622 0642 00       		.byte	0
 1623 0643 06       		.uleb128 0x6
 1624 0644 B2030000 		.4byte	.LASF105
 1625 0648 10       		.byte	0x10
 1626 0649 3D       		.byte	0x3d
 1627 064a 69060000 		.4byte	0x669
 1628 064e 04       		.byte	0x4
 1629 064f 06       		.uleb128 0x6
 1630 0650 4D020000 		.4byte	.LASF106
 1631 0654 10       		.byte	0x10
 1632 0655 3E       		.byte	0x3e
 1633 0656 69060000 		.4byte	0x669
 1634 065a 08       		.byte	0x8
 1635 065b 06       		.uleb128 0x6
 1636 065c 07040000 		.4byte	.LASF107
 1637 0660 10       		.byte	0x10
ARM GAS  /tmp/ccrXC91b.s 			page 30


 1638 0661 3F       		.byte	0x3f
 1639 0662 69060000 		.4byte	0x669
 1640 0666 0C       		.byte	0xc
 1641 0667 00       		.byte	0
 1642 0668 17       		.uleb128 0x17
 1643 0669 09       		.uleb128 0x9
 1644 066a 04       		.byte	0x4
 1645 066b 68060000 		.4byte	0x668
 1646 066f 18       		.uleb128 0x18
 1647 0670 8F010000 		.4byte	.LASF117
 1648 0674 02       		.byte	0x2
 1649 0675 1302     		.2byte	0x213
 1650 0677 B8000000 		.4byte	0xb8
 1651 067b 03       		.byte	0x3
 1652 067c 8D060000 		.4byte	0x68d
 1653 0680 19       		.uleb128 0x19
 1654 0681 D6070000 		.4byte	.LASF119
 1655 0685 02       		.byte	0x2
 1656 0686 1502     		.2byte	0x215
 1657 0688 B8000000 		.4byte	0xb8
 1658 068c 00       		.byte	0
 1659 068d 1A       		.uleb128 0x1a
 1660 068e CE060000 		.4byte	.LASF124
 1661 0692 02       		.byte	0x2
 1662 0693 2202     		.2byte	0x222
 1663 0695 03       		.byte	0x3
 1664 0696 A7060000 		.4byte	0x6a7
 1665 069a 1B       		.uleb128 0x1b
 1666 069b EE010000 		.4byte	.LASF121
 1667 069f 02       		.byte	0x2
 1668 06a0 2202     		.2byte	0x222
 1669 06a2 B8000000 		.4byte	0xb8
 1670 06a6 00       		.byte	0
 1671 06a7 1C       		.uleb128 0x1c
 1672 06a8 5B000000 		.4byte	.LASF108
 1673 06ac 0C       		.byte	0xc
 1674 06ad C801     		.2byte	0x1c8
 1675 06af 03       		.byte	0x3
 1676 06b0 1C       		.uleb128 0x1c
 1677 06b1 37010000 		.4byte	.LASF109
 1678 06b5 0C       		.byte	0xc
 1679 06b6 E001     		.2byte	0x1e0
 1680 06b8 03       		.byte	0x3
 1681 06b9 1C       		.uleb128 0x1c
 1682 06ba E2030000 		.4byte	.LASF110
 1683 06be 02       		.byte	0x2
 1684 06bf 5601     		.2byte	0x156
 1685 06c1 03       		.byte	0x3
 1686 06c2 1C       		.uleb128 0x1c
 1687 06c3 CA030000 		.4byte	.LASF111
 1688 06c7 02       		.byte	0x2
 1689 06c8 4B01     		.2byte	0x14b
 1690 06ca 03       		.byte	0x3
 1691 06cb 1C       		.uleb128 0x1c
 1692 06cc 5C010000 		.4byte	.LASF112
 1693 06d0 0C       		.byte	0xc
 1694 06d1 0402     		.2byte	0x204
ARM GAS  /tmp/ccrXC91b.s 			page 31


 1695 06d3 03       		.byte	0x3
 1696 06d4 1C       		.uleb128 0x1c
 1697 06d5 9F020000 		.4byte	.LASF113
 1698 06d9 0C       		.byte	0xc
 1699 06da 0E02     		.2byte	0x20e
 1700 06dc 03       		.byte	0x3
 1701 06dd 1C       		.uleb128 0x1c
 1702 06de C8020000 		.4byte	.LASF114
 1703 06e2 0C       		.byte	0xc
 1704 06e3 1C02     		.2byte	0x21c
 1705 06e5 03       		.byte	0x3
 1706 06e6 1C       		.uleb128 0x1c
 1707 06e7 16070000 		.4byte	.LASF115
 1708 06eb 0C       		.byte	0xc
 1709 06ec EF01     		.2byte	0x1ef
 1710 06ee 03       		.byte	0x3
 1711 06ef 1C       		.uleb128 0x1c
 1712 06f0 A6050000 		.4byte	.LASF116
 1713 06f4 0C       		.byte	0xc
 1714 06f5 FA01     		.2byte	0x1fa
 1715 06f7 03       		.byte	0x3
 1716 06f8 18       		.uleb128 0x18
 1717 06f9 39020000 		.4byte	.LASF118
 1718 06fd 0C       		.byte	0xc
 1719 06fe 9A01     		.2byte	0x19a
 1720 0700 D9000000 		.4byte	0xd9
 1721 0704 03       		.byte	0x3
 1722 0705 16070000 		.4byte	0x716
 1723 0709 1D       		.uleb128 0x1d
 1724 070a 73747300 		.ascii	"sts\000"
 1725 070e 0C       		.byte	0xc
 1726 070f 9B01     		.2byte	0x19b
 1727 0711 D9000000 		.4byte	0xd9
 1728 0715 00       		.byte	0
 1729 0716 18       		.uleb128 0x18
 1730 0717 7B030000 		.4byte	.LASF120
 1731 071b 0C       		.byte	0xc
 1732 071c AE01     		.2byte	0x1ae
 1733 071e 34070000 		.4byte	0x734
 1734 0722 03       		.byte	0x3
 1735 0723 34070000 		.4byte	0x734
 1736 0727 1E       		.uleb128 0x1e
 1737 0728 73747300 		.ascii	"sts\000"
 1738 072c 0C       		.byte	0xc
 1739 072d AE01     		.2byte	0x1ae
 1740 072f D9000000 		.4byte	0xd9
 1741 0733 00       		.byte	0
 1742 0734 04       		.uleb128 0x4
 1743 0735 01       		.byte	0x1
 1744 0736 02       		.byte	0x2
 1745 0737 3A040000 		.4byte	.LASF122
 1746 073b 1C       		.uleb128 0x1c
 1747 073c AB040000 		.4byte	.LASF123
 1748 0740 03       		.byte	0x3
 1749 0741 5A01     		.2byte	0x15a
 1750 0743 03       		.byte	0x3
 1751 0744 1A       		.uleb128 0x1a
ARM GAS  /tmp/ccrXC91b.s 			page 32


 1752 0745 C2070000 		.4byte	.LASF125
 1753 0749 03       		.byte	0x3
 1754 074a 6601     		.2byte	0x166
 1755 074c 03       		.byte	0x3
 1756 074d 5F070000 		.4byte	0x75f
 1757 0751 1F       		.uleb128 0x1f
 1758 0752 A2040000 		.4byte	.LASF126
 1759 0756 6F070000 		.4byte	0x76f
 1760 075a C2070000 		.4byte	.LASF125
 1761 075e 00       		.byte	0
 1762 075f 15       		.uleb128 0x15
 1763 0760 F8050000 		.4byte	0x5f8
 1764 0764 6F070000 		.4byte	0x76f
 1765 0768 16       		.uleb128 0x16
 1766 0769 45040000 		.4byte	0x445
 1767 076d 0B       		.byte	0xb
 1768 076e 00       		.byte	0
 1769 076f 13       		.uleb128 0x13
 1770 0770 5F070000 		.4byte	0x75f
 1771 0774 20       		.uleb128 0x20
 1772 0775 DE020000 		.4byte	.LASF127
 1773 0779 04       		.byte	0x4
 1774 077a D2       		.byte	0xd2
 1775 077b 03       		.byte	0x3
 1776 077c 8C070000 		.4byte	0x78c
 1777 0780 21       		.uleb128 0x21
 1778 0781 76747000 		.ascii	"vtp\000"
 1779 0785 04       		.byte	0x4
 1780 0786 D2       		.byte	0xd2
 1781 0787 FF050000 		.4byte	0x5ff
 1782 078b 00       		.byte	0
 1783 078c 18       		.uleb128 0x18
 1784 078d B5040000 		.4byte	.LASF128
 1785 0791 04       		.byte	0x4
 1786 0792 7501     		.2byte	0x175
 1787 0794 34070000 		.4byte	0x734
 1788 0798 03       		.byte	0x3
 1789 0799 AA070000 		.4byte	0x7aa
 1790 079d 1E       		.uleb128 0x1e
 1791 079e 76747000 		.ascii	"vtp\000"
 1792 07a2 04       		.byte	0x4
 1793 07a3 7501     		.2byte	0x175
 1794 07a5 FF050000 		.4byte	0x5ff
 1795 07a9 00       		.byte	0
 1796 07aa 1C       		.uleb128 0x1c
 1797 07ab 94030000 		.4byte	.LASF129
 1798 07af 03       		.byte	0x3
 1799 07b0 4001     		.2byte	0x140
 1800 07b2 03       		.byte	0x3
 1801 07b3 1C       		.uleb128 0x1c
 1802 07b4 69020000 		.4byte	.LASF130
 1803 07b8 03       		.byte	0x3
 1804 07b9 2F01     		.2byte	0x12f
 1805 07bb 03       		.byte	0x3
 1806 07bc 1C       		.uleb128 0x1c
 1807 07bd 9D010000 		.4byte	.LASF131
 1808 07c1 03       		.byte	0x3
ARM GAS  /tmp/ccrXC91b.s 			page 33


 1809 07c2 4F01     		.2byte	0x14f
 1810 07c4 03       		.byte	0x3
 1811 07c5 1C       		.uleb128 0x1c
 1812 07c6 71070000 		.4byte	.LASF132
 1813 07ca 03       		.byte	0x3
 1814 07cb 8201     		.2byte	0x182
 1815 07cd 03       		.byte	0x3
 1816 07ce 1C       		.uleb128 0x1c
 1817 07cf 17040000 		.4byte	.LASF133
 1818 07d3 03       		.byte	0x3
 1819 07d4 9601     		.2byte	0x196
 1820 07d6 03       		.byte	0x3
 1821 07d7 1A       		.uleb128 0x1a
 1822 07d8 DA040000 		.4byte	.LASF134
 1823 07dc 04       		.byte	0x4
 1824 07dd 9A01     		.2byte	0x19a
 1825 07df 03       		.byte	0x3
 1826 07e0 F1070000 		.4byte	0x7f1
 1827 07e4 1E       		.uleb128 0x1e
 1828 07e5 76747000 		.ascii	"vtp\000"
 1829 07e9 04       		.byte	0x4
 1830 07ea 9A01     		.2byte	0x19a
 1831 07ec FF050000 		.4byte	0x5ff
 1832 07f0 00       		.byte	0
 1833 07f1 1C       		.uleb128 0x1c
 1834 07f2 83040000 		.4byte	.LASF135
 1835 07f6 03       		.byte	0x3
 1836 07f7 A401     		.2byte	0x1a4
 1837 07f9 03       		.byte	0x3
 1838 07fa 1C       		.uleb128 0x1c
 1839 07fb 17010000 		.4byte	.LASF136
 1840 07ff 03       		.byte	0x3
 1841 0800 B201     		.2byte	0x1b2
 1842 0802 03       		.byte	0x3
 1843 0803 1A       		.uleb128 0x1a
 1844 0804 8C030000 		.4byte	.LASF137
 1845 0808 04       		.byte	0x4
 1846 0809 E501     		.2byte	0x1e5
 1847 080b 03       		.byte	0x3
 1848 080c 41080000 		.4byte	0x841
 1849 0810 1E       		.uleb128 0x1e
 1850 0811 76747000 		.ascii	"vtp\000"
 1851 0815 04       		.byte	0x4
 1852 0816 E501     		.2byte	0x1e5
 1853 0818 FF050000 		.4byte	0x5ff
 1854 081c 1B       		.uleb128 0x1b
 1855 081d 56040000 		.4byte	.LASF138
 1856 0821 04       		.byte	0x4
 1857 0822 E501     		.2byte	0x1e5
 1858 0824 31010000 		.4byte	0x131
 1859 0828 1B       		.uleb128 0x1b
 1860 0829 30070000 		.4byte	.LASF139
 1861 082d 04       		.byte	0x4
 1862 082e E601     		.2byte	0x1e6
 1863 0830 F3020000 		.4byte	0x2f3
 1864 0834 1E       		.uleb128 0x1e
 1865 0835 70617200 		.ascii	"par\000"
ARM GAS  /tmp/ccrXC91b.s 			page 34


 1866 0839 04       		.byte	0x4
 1867 083a E601     		.2byte	0x1e6
 1868 083c 0F030000 		.4byte	0x30f
 1869 0840 00       		.byte	0
 1870 0841 18       		.uleb128 0x18
 1871 0842 5D070000 		.4byte	.LASF140
 1872 0846 04       		.byte	0x4
 1873 0847 8601     		.2byte	0x186
 1874 0849 34070000 		.4byte	0x734
 1875 084d 03       		.byte	0x3
 1876 084e 69080000 		.4byte	0x869
 1877 0852 1E       		.uleb128 0x1e
 1878 0853 76747000 		.ascii	"vtp\000"
 1879 0857 04       		.byte	0x4
 1880 0858 8601     		.2byte	0x186
 1881 085a FF050000 		.4byte	0x5ff
 1882 085e 1D       		.uleb128 0x1d
 1883 085f 6200     		.ascii	"b\000"
 1884 0861 04       		.byte	0x4
 1885 0862 8701     		.2byte	0x187
 1886 0864 34070000 		.4byte	0x734
 1887 0868 00       		.byte	0
 1888 0869 20       		.uleb128 0x20
 1889 086a E0000000 		.4byte	.LASF141
 1890 086e 01       		.byte	0x1
 1891 086f 8A       		.byte	0x8a
 1892 0870 01       		.byte	0x1
 1893 0871 81080000 		.4byte	0x881
 1894 0875 22       		.uleb128 0x22
 1895 0876 D6070000 		.4byte	.LASF119
 1896 087a 01       		.byte	0x1
 1897 087b 8B       		.byte	0x8b
 1898 087c 34070000 		.4byte	0x734
 1899 0880 00       		.byte	0
 1900 0881 1A       		.uleb128 0x1a
 1901 0882 64030000 		.4byte	.LASF142
 1902 0886 04       		.byte	0x4
 1903 0887 C801     		.2byte	0x1c8
 1904 0889 03       		.byte	0x3
 1905 088a BF080000 		.4byte	0x8bf
 1906 088e 1E       		.uleb128 0x1e
 1907 088f 76747000 		.ascii	"vtp\000"
 1908 0893 04       		.byte	0x4
 1909 0894 C801     		.2byte	0x1c8
 1910 0896 FF050000 		.4byte	0x5ff
 1911 089a 1B       		.uleb128 0x1b
 1912 089b 56040000 		.4byte	.LASF138
 1913 089f 04       		.byte	0x4
 1914 08a0 C801     		.2byte	0x1c8
 1915 08a2 31010000 		.4byte	0x131
 1916 08a6 1B       		.uleb128 0x1b
 1917 08a7 30070000 		.4byte	.LASF139
 1918 08ab 04       		.byte	0x4
 1919 08ac C901     		.2byte	0x1c9
 1920 08ae F3020000 		.4byte	0x2f3
 1921 08b2 1E       		.uleb128 0x1e
 1922 08b3 70617200 		.ascii	"par\000"
ARM GAS  /tmp/ccrXC91b.s 			page 35


 1923 08b7 04       		.byte	0x4
 1924 08b8 C901     		.2byte	0x1c9
 1925 08ba 0F030000 		.4byte	0x30f
 1926 08be 00       		.byte	0
 1927 08bf 23       		.uleb128 0x23
 1928 08c0 DD070000 		.4byte	.LASF143
 1929 08c4 01       		.byte	0x1
 1930 08c5 73       		.byte	0x73
 1931 08c6 00000000 		.4byte	.LFB243
 1932 08ca 1A000000 		.4byte	.LFE243-.LFB243
 1933 08ce 01       		.uleb128 0x1
 1934 08cf 9C       		.byte	0x9c
 1935 08d0 F6090000 		.4byte	0x9f6
 1936 08d4 24       		.uleb128 0x24
 1937 08d5 AA070000 		.4byte	0x7aa
 1938 08d9 00000000 		.4byte	.LBB324
 1939 08dd 08000000 		.4byte	.LBE324-.LBB324
 1940 08e1 01       		.byte	0x1
 1941 08e2 75       		.byte	0x75
 1942 08e3 24090000 		.4byte	0x924
 1943 08e7 25       		.uleb128 0x25
 1944 08e8 D4060000 		.4byte	0x6d4
 1945 08ec 00000000 		.4byte	.LBB325
 1946 08f0 08000000 		.4byte	.LBE325-.LBB325
 1947 08f4 03       		.byte	0x3
 1948 08f5 4201     		.2byte	0x142
 1949 08f7 26       		.uleb128 0x26
 1950 08f8 8D060000 		.4byte	0x68d
 1951 08fc 00000000 		.4byte	.LBB326
 1952 0900 06000000 		.4byte	.LBE326-.LBB326
 1953 0904 0C       		.byte	0xc
 1954 0905 1102     		.2byte	0x211
 1955 0907 12090000 		.4byte	0x912
 1956 090b 27       		.uleb128 0x27
 1957 090c 9A060000 		.4byte	0x69a
 1958 0910 20       		.byte	0x20
 1959 0911 00       		.byte	0
 1960 0912 28       		.uleb128 0x28
 1961 0913 C2060000 		.4byte	0x6c2
 1962 0917 06000000 		.4byte	.LBB328
 1963 091b 02000000 		.4byte	.LBE328-.LBB328
 1964 091f 0C       		.byte	0xc
 1965 0920 1202     		.2byte	0x212
 1966 0922 00       		.byte	0
 1967 0923 00       		.byte	0
 1968 0924 24       		.uleb128 0x24
 1969 0925 B3070000 		.4byte	0x7b3
 1970 0929 08000000 		.4byte	.LBB330
 1971 092d 02000000 		.4byte	.LBE330-.LBB330
 1972 0931 01       		.byte	0x1
 1973 0932 76       		.byte	0x76
 1974 0933 59090000 		.4byte	0x959
 1975 0937 25       		.uleb128 0x25
 1976 0938 CB060000 		.4byte	0x6cb
 1977 093c 08000000 		.4byte	.LBB331
 1978 0940 02000000 		.4byte	.LBE331-.LBB331
 1979 0944 03       		.byte	0x3
ARM GAS  /tmp/ccrXC91b.s 			page 36


 1980 0945 3101     		.2byte	0x131
 1981 0947 28       		.uleb128 0x28
 1982 0948 B9060000 		.4byte	0x6b9
 1983 094c 08000000 		.4byte	.LBB332
 1984 0950 02000000 		.4byte	.LBE332-.LBB332
 1985 0954 0C       		.byte	0xc
 1986 0955 0602     		.2byte	0x206
 1987 0957 00       		.byte	0
 1988 0958 00       		.byte	0
 1989 0959 24       		.uleb128 0x24
 1990 095a AA070000 		.4byte	0x7aa
 1991 095e 0A000000 		.4byte	.LBB334
 1992 0962 06000000 		.4byte	.LBE334-.LBB334
 1993 0966 01       		.byte	0x1
 1994 0967 77       		.byte	0x77
 1995 0968 A9090000 		.4byte	0x9a9
 1996 096c 25       		.uleb128 0x25
 1997 096d D4060000 		.4byte	0x6d4
 1998 0971 0A000000 		.4byte	.LBB335
 1999 0975 06000000 		.4byte	.LBE335-.LBB335
 2000 0979 03       		.byte	0x3
 2001 097a 4201     		.2byte	0x142
 2002 097c 26       		.uleb128 0x26
 2003 097d 8D060000 		.4byte	0x68d
 2004 0981 0A000000 		.4byte	.LBB336
 2005 0985 04000000 		.4byte	.LBE336-.LBB336
 2006 0989 0C       		.byte	0xc
 2007 098a 1102     		.2byte	0x211
 2008 098c 97090000 		.4byte	0x997
 2009 0990 27       		.uleb128 0x27
 2010 0991 9A060000 		.4byte	0x69a
 2011 0995 20       		.byte	0x20
 2012 0996 00       		.byte	0
 2013 0997 28       		.uleb128 0x28
 2014 0998 C2060000 		.4byte	0x6c2
 2015 099c 0E000000 		.4byte	.LBB338
 2016 09a0 02000000 		.4byte	.LBE338-.LBB338
 2017 09a4 0C       		.byte	0xc
 2018 09a5 1202     		.2byte	0x212
 2019 09a7 00       		.byte	0
 2020 09a8 00       		.byte	0
 2021 09a9 29       		.uleb128 0x29
 2022 09aa BC070000 		.4byte	0x7bc
 2023 09ae 10000000 		.4byte	.LBB340
 2024 09b2 0A000000 		.4byte	.LBE340-.LBB340
 2025 09b6 01       		.byte	0x1
 2026 09b7 78       		.byte	0x78
 2027 09b8 25       		.uleb128 0x25
 2028 09b9 DD060000 		.4byte	0x6dd
 2029 09bd 10000000 		.4byte	.LBB341
 2030 09c1 0A000000 		.4byte	.LBE341-.LBB341
 2031 09c5 03       		.byte	0x3
 2032 09c6 5201     		.2byte	0x152
 2033 09c8 26       		.uleb128 0x26
 2034 09c9 8D060000 		.4byte	0x68d
 2035 09cd 10000000 		.4byte	.LBB342
 2036 09d1 06000000 		.4byte	.LBE342-.LBB342
ARM GAS  /tmp/ccrXC91b.s 			page 37


 2037 09d5 0C       		.byte	0xc
 2038 09d6 1F02     		.2byte	0x21f
 2039 09d8 E3090000 		.4byte	0x9e3
 2040 09dc 27       		.uleb128 0x27
 2041 09dd 9A060000 		.4byte	0x69a
 2042 09e1 00       		.byte	0
 2043 09e2 00       		.byte	0
 2044 09e3 28       		.uleb128 0x28
 2045 09e4 C2060000 		.4byte	0x6c2
 2046 09e8 16000000 		.4byte	.LBB344
 2047 09ec 04000000 		.4byte	.LBE344-.LBB344
 2048 09f0 0C       		.byte	0xc
 2049 09f1 2102     		.2byte	0x221
 2050 09f3 00       		.byte	0
 2051 09f4 00       		.byte	0
 2052 09f5 00       		.byte	0
 2053 09f6 23       		.uleb128 0x23
 2054 09f7 1C000000 		.4byte	.LASF144
 2055 09fb 01       		.byte	0x1
 2056 09fc 35       		.byte	0x35
 2057 09fd 00000000 		.4byte	.LFB241
 2058 0a01 20000000 		.4byte	.LFE241-.LFB241
 2059 0a05 01       		.uleb128 0x1
 2060 0a06 9C       		.byte	0x9c
 2061 0a07 6E0B0000 		.4byte	0xb6e
 2062 0a0b 2A       		.uleb128 0x2a
 2063 0a0c 7000     		.ascii	"p\000"
 2064 0a0e 01       		.byte	0x1
 2065 0a0f 35       		.byte	0x35
 2066 0a10 0F030000 		.4byte	0x30f
 2067 0a14 00000000 		.4byte	.LLST0
 2068 0a18 2B       		.uleb128 0x2b
 2069 0a19 73747300 		.ascii	"sts\000"
 2070 0a1d 01       		.byte	0x1
 2071 0a1e 36       		.byte	0x36
 2072 0a1f D9000000 		.4byte	0xd9
 2073 0a23 21000000 		.4byte	.LLST1
 2074 0a27 24       		.uleb128 0x24
 2075 0a28 C5070000 		.4byte	0x7c5
 2076 0a2c 02000000 		.4byte	.LBB346
 2077 0a30 06000000 		.4byte	.LBE346-.LBB346
 2078 0a34 01       		.byte	0x1
 2079 0a35 3B       		.byte	0x3b
 2080 0a36 740A0000 		.4byte	0xa74
 2081 0a3a 25       		.uleb128 0x25
 2082 0a3b E6060000 		.4byte	0x6e6
 2083 0a3f 02000000 		.4byte	.LBB347
 2084 0a43 06000000 		.4byte	.LBE347-.LBB347
 2085 0a47 03       		.byte	0x3
 2086 0a48 8401     		.2byte	0x184
 2087 0a4a 25       		.uleb128 0x25
 2088 0a4b A7060000 		.4byte	0x6a7
 2089 0a4f 02000000 		.4byte	.LBB348
 2090 0a53 06000000 		.4byte	.LBE348-.LBB348
 2091 0a57 0C       		.byte	0xc
 2092 0a58 F101     		.2byte	0x1f1
 2093 0a5a 25       		.uleb128 0x25
ARM GAS  /tmp/ccrXC91b.s 			page 38


 2094 0a5b 8D060000 		.4byte	0x68d
 2095 0a5f 02000000 		.4byte	.LBB349
 2096 0a63 06000000 		.4byte	.LBE349-.LBB349
 2097 0a67 0C       		.byte	0xc
 2098 0a68 D001     		.2byte	0x1d0
 2099 0a6a 27       		.uleb128 0x27
 2100 0a6b 9A060000 		.4byte	0x69a
 2101 0a6f 20       		.byte	0x20
 2102 0a70 00       		.byte	0
 2103 0a71 00       		.byte	0
 2104 0a72 00       		.byte	0
 2105 0a73 00       		.byte	0
 2106 0a74 24       		.uleb128 0x24
 2107 0a75 CE070000 		.4byte	0x7ce
 2108 0a79 08000000 		.4byte	.LBB351
 2109 0a7d 06000000 		.4byte	.LBE351-.LBB351
 2110 0a81 01       		.byte	0x1
 2111 0a82 3C       		.byte	0x3c
 2112 0a83 C10A0000 		.4byte	0xac1
 2113 0a87 25       		.uleb128 0x25
 2114 0a88 EF060000 		.4byte	0x6ef
 2115 0a8c 08000000 		.4byte	.LBB352
 2116 0a90 06000000 		.4byte	.LBE352-.LBB352
 2117 0a94 03       		.byte	0x3
 2118 0a95 9A01     		.2byte	0x19a
 2119 0a97 25       		.uleb128 0x25
 2120 0a98 B0060000 		.4byte	0x6b0
 2121 0a9c 08000000 		.4byte	.LBB353
 2122 0aa0 06000000 		.4byte	.LBE353-.LBB353
 2123 0aa4 0C       		.byte	0xc
 2124 0aa5 FC01     		.2byte	0x1fc
 2125 0aa7 25       		.uleb128 0x25
 2126 0aa8 8D060000 		.4byte	0x68d
 2127 0aac 08000000 		.4byte	.LBB354
 2128 0ab0 06000000 		.4byte	.LBE354-.LBB354
 2129 0ab4 0C       		.byte	0xc
 2130 0ab5 E301     		.2byte	0x1e3
 2131 0ab7 27       		.uleb128 0x27
 2132 0ab8 9A060000 		.4byte	0x69a
 2133 0abc 00       		.byte	0
 2134 0abd 00       		.byte	0
 2135 0abe 00       		.byte	0
 2136 0abf 00       		.byte	0
 2137 0ac0 00       		.byte	0
 2138 0ac1 24       		.uleb128 0x24
 2139 0ac2 C5070000 		.4byte	0x7c5
 2140 0ac6 0E000000 		.4byte	.LBB356
 2141 0aca 04000000 		.4byte	.LBE356-.LBB356
 2142 0ace 01       		.byte	0x1
 2143 0acf 3F       		.byte	0x3f
 2144 0ad0 0E0B0000 		.4byte	0xb0e
 2145 0ad4 25       		.uleb128 0x25
 2146 0ad5 E6060000 		.4byte	0x6e6
 2147 0ad9 0E000000 		.4byte	.LBB357
 2148 0add 04000000 		.4byte	.LBE357-.LBB357
 2149 0ae1 03       		.byte	0x3
 2150 0ae2 8401     		.2byte	0x184
ARM GAS  /tmp/ccrXC91b.s 			page 39


 2151 0ae4 25       		.uleb128 0x25
 2152 0ae5 A7060000 		.4byte	0x6a7
 2153 0ae9 0E000000 		.4byte	.LBB358
 2154 0aed 04000000 		.4byte	.LBE358-.LBB358
 2155 0af1 0C       		.byte	0xc
 2156 0af2 F101     		.2byte	0x1f1
 2157 0af4 25       		.uleb128 0x25
 2158 0af5 8D060000 		.4byte	0x68d
 2159 0af9 0E000000 		.4byte	.LBB359
 2160 0afd 04000000 		.4byte	.LBE359-.LBB359
 2161 0b01 0C       		.byte	0xc
 2162 0b02 D001     		.2byte	0x1d0
 2163 0b04 27       		.uleb128 0x27
 2164 0b05 9A060000 		.4byte	0x69a
 2165 0b09 20       		.byte	0x20
 2166 0b0a 00       		.byte	0
 2167 0b0b 00       		.byte	0
 2168 0b0c 00       		.byte	0
 2169 0b0d 00       		.byte	0
 2170 0b0e 24       		.uleb128 0x24
 2171 0b0f CE070000 		.4byte	0x7ce
 2172 0b13 1A000000 		.4byte	.LBB361
 2173 0b17 06000000 		.4byte	.LBE361-.LBB361
 2174 0b1b 01       		.byte	0x1
 2175 0b1c 42       		.byte	0x42
 2176 0b1d 5B0B0000 		.4byte	0xb5b
 2177 0b21 25       		.uleb128 0x25
 2178 0b22 EF060000 		.4byte	0x6ef
 2179 0b26 1A000000 		.4byte	.LBB362
 2180 0b2a 06000000 		.4byte	.LBE362-.LBB362
 2181 0b2e 03       		.byte	0x3
 2182 0b2f 9A01     		.2byte	0x19a
 2183 0b31 25       		.uleb128 0x25
 2184 0b32 B0060000 		.4byte	0x6b0
 2185 0b36 1A000000 		.4byte	.LBB363
 2186 0b3a 06000000 		.4byte	.LBE363-.LBB363
 2187 0b3e 0C       		.byte	0xc
 2188 0b3f FC01     		.2byte	0x1fc
 2189 0b41 25       		.uleb128 0x25
 2190 0b42 8D060000 		.4byte	0x68d
 2191 0b46 1A000000 		.4byte	.LBB364
 2192 0b4a 06000000 		.4byte	.LBE364-.LBB364
 2193 0b4e 0C       		.byte	0xc
 2194 0b4f E301     		.2byte	0x1e3
 2195 0b51 27       		.uleb128 0x27
 2196 0b52 9A060000 		.4byte	0x69a
 2197 0b56 00       		.byte	0
 2198 0b57 00       		.byte	0
 2199 0b58 00       		.byte	0
 2200 0b59 00       		.byte	0
 2201 0b5a 00       		.byte	0
 2202 0b5b 2C       		.uleb128 0x2c
 2203 0b5c 16000000 		.4byte	.LVL6
 2204 0b60 D9140000 		.4byte	0x14d9
 2205 0b64 2C       		.uleb128 0x2c
 2206 0b65 1A000000 		.4byte	.LVL7
 2207 0b69 E5140000 		.4byte	0x14e5
ARM GAS  /tmp/ccrXC91b.s 			page 40


 2208 0b6d 00       		.byte	0
 2209 0b6e 2D       		.uleb128 0x2d
 2210 0b6f 69080000 		.4byte	0x869
 2211 0b73 00000000 		.4byte	.LFB244
 2212 0b77 84000000 		.4byte	.LFE244-.LFB244
 2213 0b7b 01       		.uleb128 0x1
 2214 0b7c 9C       		.byte	0x9c
 2215 0b7d 4A0E0000 		.4byte	0xe4a
 2216 0b81 2E       		.uleb128 0x2e
 2217 0b82 75080000 		.4byte	0x875
 2218 0b86 34000000 		.4byte	.LLST2
 2219 0b8a 24       		.uleb128 0x24
 2220 0b8b 3B070000 		.4byte	0x73b
 2221 0b8f 02000000 		.4byte	.LBB431
 2222 0b93 06000000 		.4byte	.LBE431-.LBB431
 2223 0b97 01       		.byte	0x1
 2224 0b98 8D       		.byte	0x8d
 2225 0b99 C60B0000 		.4byte	0xbc6
 2226 0b9d 25       		.uleb128 0x25
 2227 0b9e A7060000 		.4byte	0x6a7
 2228 0ba2 02000000 		.4byte	.LBB432
 2229 0ba6 06000000 		.4byte	.LBE432-.LBB432
 2230 0baa 03       		.byte	0x3
 2231 0bab 5C01     		.2byte	0x15c
 2232 0bad 25       		.uleb128 0x25
 2233 0bae 8D060000 		.4byte	0x68d
 2234 0bb2 02000000 		.4byte	.LBB433
 2235 0bb6 06000000 		.4byte	.LBE433-.LBB433
 2236 0bba 0C       		.byte	0xc
 2237 0bbb D001     		.2byte	0x1d0
 2238 0bbd 27       		.uleb128 0x27
 2239 0bbe 9A060000 		.4byte	0x69a
 2240 0bc2 20       		.byte	0x20
 2241 0bc3 00       		.byte	0
 2242 0bc4 00       		.byte	0
 2243 0bc5 00       		.byte	0
 2244 0bc6 24       		.uleb128 0x24
 2245 0bc7 44070000 		.4byte	0x744
 2246 0bcb 0E000000 		.4byte	.LBB435
 2247 0bcf 06000000 		.4byte	.LBE435-.LBB435
 2248 0bd3 01       		.byte	0x1
 2249 0bd4 8F       		.byte	0x8f
 2250 0bd5 110C0000 		.4byte	0xc11
 2251 0bd9 2F       		.uleb128 0x2f
 2252 0bda 0E000000 		.4byte	.LBB436
 2253 0bde 06000000 		.4byte	.LBE436-.LBB436
 2254 0be2 30       		.uleb128 0x30
 2255 0be3 51070000 		.4byte	0x751
 2256 0be7 25       		.uleb128 0x25
 2257 0be8 B0060000 		.4byte	0x6b0
 2258 0bec 0E000000 		.4byte	.LBB437
 2259 0bf0 06000000 		.4byte	.LBE437-.LBB437
 2260 0bf4 03       		.byte	0x3
 2261 0bf5 7301     		.2byte	0x173
 2262 0bf7 25       		.uleb128 0x25
 2263 0bf8 8D060000 		.4byte	0x68d
 2264 0bfc 0E000000 		.4byte	.LBB438
ARM GAS  /tmp/ccrXC91b.s 			page 41


 2265 0c00 06000000 		.4byte	.LBE438-.LBB438
 2266 0c04 0C       		.byte	0xc
 2267 0c05 E301     		.2byte	0x1e3
 2268 0c07 27       		.uleb128 0x27
 2269 0c08 9A060000 		.4byte	0x69a
 2270 0c0c 00       		.byte	0
 2271 0c0d 00       		.byte	0
 2272 0c0e 00       		.byte	0
 2273 0c0f 00       		.byte	0
 2274 0c10 00       		.byte	0
 2275 0c11 24       		.uleb128 0x24
 2276 0c12 3B070000 		.4byte	0x73b
 2277 0c16 26000000 		.4byte	.LBB440
 2278 0c1a 04000000 		.4byte	.LBE440-.LBB440
 2279 0c1e 01       		.byte	0x1
 2280 0c1f 92       		.byte	0x92
 2281 0c20 4D0C0000 		.4byte	0xc4d
 2282 0c24 25       		.uleb128 0x25
 2283 0c25 A7060000 		.4byte	0x6a7
 2284 0c29 26000000 		.4byte	.LBB441
 2285 0c2d 04000000 		.4byte	.LBE441-.LBB441
 2286 0c31 03       		.byte	0x3
 2287 0c32 5C01     		.2byte	0x15c
 2288 0c34 25       		.uleb128 0x25
 2289 0c35 8D060000 		.4byte	0x68d
 2290 0c39 26000000 		.4byte	.LBB442
 2291 0c3d 04000000 		.4byte	.LBE442-.LBB442
 2292 0c41 0C       		.byte	0xc
 2293 0c42 D001     		.2byte	0x1d0
 2294 0c44 27       		.uleb128 0x27
 2295 0c45 9A060000 		.4byte	0x69a
 2296 0c49 20       		.byte	0x20
 2297 0c4a 00       		.byte	0
 2298 0c4b 00       		.byte	0
 2299 0c4c 00       		.byte	0
 2300 0c4d 24       		.uleb128 0x24
 2301 0c4e 44070000 		.4byte	0x744
 2302 0c52 30000000 		.4byte	.LBB444
 2303 0c56 04000000 		.4byte	.LBE444-.LBB444
 2304 0c5a 01       		.byte	0x1
 2305 0c5b 94       		.byte	0x94
 2306 0c5c 980C0000 		.4byte	0xc98
 2307 0c60 2F       		.uleb128 0x2f
 2308 0c61 30000000 		.4byte	.LBB445
 2309 0c65 04000000 		.4byte	.LBE445-.LBB445
 2310 0c69 30       		.uleb128 0x30
 2311 0c6a 51070000 		.4byte	0x751
 2312 0c6e 25       		.uleb128 0x25
 2313 0c6f B0060000 		.4byte	0x6b0
 2314 0c73 30000000 		.4byte	.LBB446
 2315 0c77 04000000 		.4byte	.LBE446-.LBB446
 2316 0c7b 03       		.byte	0x3
 2317 0c7c 7301     		.2byte	0x173
 2318 0c7e 25       		.uleb128 0x25
 2319 0c7f 8D060000 		.4byte	0x68d
 2320 0c83 30000000 		.4byte	.LBB447
 2321 0c87 04000000 		.4byte	.LBE447-.LBB447
ARM GAS  /tmp/ccrXC91b.s 			page 42


 2322 0c8b 0C       		.byte	0xc
 2323 0c8c E301     		.2byte	0x1e3
 2324 0c8e 27       		.uleb128 0x27
 2325 0c8f 9A060000 		.4byte	0x69a
 2326 0c93 00       		.byte	0
 2327 0c94 00       		.byte	0
 2328 0c95 00       		.byte	0
 2329 0c96 00       		.byte	0
 2330 0c97 00       		.byte	0
 2331 0c98 24       		.uleb128 0x24
 2332 0c99 3B070000 		.4byte	0x73b
 2333 0c9d 46000000 		.4byte	.LBB449
 2334 0ca1 04000000 		.4byte	.LBE449-.LBB449
 2335 0ca5 01       		.byte	0x1
 2336 0ca6 97       		.byte	0x97
 2337 0ca7 D40C0000 		.4byte	0xcd4
 2338 0cab 25       		.uleb128 0x25
 2339 0cac A7060000 		.4byte	0x6a7
 2340 0cb0 46000000 		.4byte	.LBB450
 2341 0cb4 04000000 		.4byte	.LBE450-.LBB450
 2342 0cb8 03       		.byte	0x3
 2343 0cb9 5C01     		.2byte	0x15c
 2344 0cbb 25       		.uleb128 0x25
 2345 0cbc 8D060000 		.4byte	0x68d
 2346 0cc0 46000000 		.4byte	.LBB451
 2347 0cc4 04000000 		.4byte	.LBE451-.LBB451
 2348 0cc8 0C       		.byte	0xc
 2349 0cc9 D001     		.2byte	0x1d0
 2350 0ccb 27       		.uleb128 0x27
 2351 0ccc 9A060000 		.4byte	0x69a
 2352 0cd0 20       		.byte	0x20
 2353 0cd1 00       		.byte	0
 2354 0cd2 00       		.byte	0
 2355 0cd3 00       		.byte	0
 2356 0cd4 24       		.uleb128 0x24
 2357 0cd5 44070000 		.4byte	0x744
 2358 0cd9 50000000 		.4byte	.LBB453
 2359 0cdd 04000000 		.4byte	.LBE453-.LBB453
 2360 0ce1 01       		.byte	0x1
 2361 0ce2 99       		.byte	0x99
 2362 0ce3 1F0D0000 		.4byte	0xd1f
 2363 0ce7 2F       		.uleb128 0x2f
 2364 0ce8 50000000 		.4byte	.LBB454
 2365 0cec 04000000 		.4byte	.LBE454-.LBB454
 2366 0cf0 30       		.uleb128 0x30
 2367 0cf1 51070000 		.4byte	0x751
 2368 0cf5 25       		.uleb128 0x25
 2369 0cf6 B0060000 		.4byte	0x6b0
 2370 0cfa 50000000 		.4byte	.LBB455
 2371 0cfe 04000000 		.4byte	.LBE455-.LBB455
 2372 0d02 03       		.byte	0x3
 2373 0d03 7301     		.2byte	0x173
 2374 0d05 25       		.uleb128 0x25
 2375 0d06 8D060000 		.4byte	0x68d
 2376 0d0a 50000000 		.4byte	.LBB456
 2377 0d0e 04000000 		.4byte	.LBE456-.LBB456
 2378 0d12 0C       		.byte	0xc
ARM GAS  /tmp/ccrXC91b.s 			page 43


 2379 0d13 E301     		.2byte	0x1e3
 2380 0d15 27       		.uleb128 0x27
 2381 0d16 9A060000 		.4byte	0x69a
 2382 0d1a 00       		.byte	0
 2383 0d1b 00       		.byte	0
 2384 0d1c 00       		.byte	0
 2385 0d1d 00       		.byte	0
 2386 0d1e 00       		.byte	0
 2387 0d1f 31       		.uleb128 0x31
 2388 0d20 00000000 		.4byte	.Ldebug_ranges0+0
 2389 0d24 DB0D0000 		.4byte	0xddb
 2390 0d28 2E       		.uleb128 0x2e
 2391 0d29 75080000 		.4byte	0x875
 2392 0d2d 5D000000 		.4byte	.LLST3
 2393 0d31 24       		.uleb128 0x24
 2394 0d32 3B070000 		.4byte	0x73b
 2395 0d36 66000000 		.4byte	.LBB460
 2396 0d3a 04000000 		.4byte	.LBE460-.LBB460
 2397 0d3e 01       		.byte	0x1
 2398 0d3f 9C       		.byte	0x9c
 2399 0d40 6D0D0000 		.4byte	0xd6d
 2400 0d44 25       		.uleb128 0x25
 2401 0d45 A7060000 		.4byte	0x6a7
 2402 0d49 66000000 		.4byte	.LBB461
 2403 0d4d 04000000 		.4byte	.LBE461-.LBB461
 2404 0d51 03       		.byte	0x3
 2405 0d52 5C01     		.2byte	0x15c
 2406 0d54 25       		.uleb128 0x25
 2407 0d55 8D060000 		.4byte	0x68d
 2408 0d59 66000000 		.4byte	.LBB462
 2409 0d5d 04000000 		.4byte	.LBE462-.LBB462
 2410 0d61 0C       		.byte	0xc
 2411 0d62 D001     		.2byte	0x1d0
 2412 0d64 27       		.uleb128 0x27
 2413 0d65 9A060000 		.4byte	0x69a
 2414 0d69 20       		.byte	0x20
 2415 0d6a 00       		.byte	0
 2416 0d6b 00       		.byte	0
 2417 0d6c 00       		.byte	0
 2418 0d6d 24       		.uleb128 0x24
 2419 0d6e 44070000 		.4byte	0x744
 2420 0d72 70000000 		.4byte	.LBB464
 2421 0d76 04000000 		.4byte	.LBE464-.LBB464
 2422 0d7a 01       		.byte	0x1
 2423 0d7b 9E       		.byte	0x9e
 2424 0d7c B80D0000 		.4byte	0xdb8
 2425 0d80 2F       		.uleb128 0x2f
 2426 0d81 70000000 		.4byte	.LBB465
 2427 0d85 04000000 		.4byte	.LBE465-.LBB465
 2428 0d89 30       		.uleb128 0x30
 2429 0d8a 51070000 		.4byte	0x751
 2430 0d8e 25       		.uleb128 0x25
 2431 0d8f B0060000 		.4byte	0x6b0
 2432 0d93 70000000 		.4byte	.LBB466
 2433 0d97 04000000 		.4byte	.LBE466-.LBB466
 2434 0d9b 03       		.byte	0x3
 2435 0d9c 7301     		.2byte	0x173
ARM GAS  /tmp/ccrXC91b.s 			page 44


 2436 0d9e 25       		.uleb128 0x25
 2437 0d9f 8D060000 		.4byte	0x68d
 2438 0da3 70000000 		.4byte	.LBB467
 2439 0da7 04000000 		.4byte	.LBE467-.LBB467
 2440 0dab 0C       		.byte	0xc
 2441 0dac E301     		.2byte	0x1e3
 2442 0dae 27       		.uleb128 0x27
 2443 0daf 9A060000 		.4byte	0x69a
 2444 0db3 00       		.byte	0
 2445 0db4 00       		.byte	0
 2446 0db5 00       		.byte	0
 2447 0db6 00       		.byte	0
 2448 0db7 00       		.byte	0
 2449 0db8 32       		.uleb128 0x32
 2450 0db9 70000000 		.4byte	.LVL21
 2451 0dbd F7140000 		.4byte	0x14f7
 2452 0dc1 CB0D0000 		.4byte	0xdcb
 2453 0dc5 33       		.uleb128 0x33
 2454 0dc6 01       		.uleb128 0x1
 2455 0dc7 50       		.byte	0x50
 2456 0dc8 01       		.uleb128 0x1
 2457 0dc9 38       		.byte	0x38
 2458 0dca 00       		.byte	0
 2459 0dcb 34       		.uleb128 0x34
 2460 0dcc 84000000 		.4byte	.LVL23
 2461 0dd0 0D150000 		.4byte	0x150d
 2462 0dd4 33       		.uleb128 0x33
 2463 0dd5 01       		.uleb128 0x1
 2464 0dd6 50       		.byte	0x50
 2465 0dd7 01       		.uleb128 0x1
 2466 0dd8 34       		.byte	0x34
 2467 0dd9 00       		.byte	0
 2468 0dda 00       		.byte	0
 2469 0ddb 32       		.uleb128 0x32
 2470 0ddc 0E000000 		.4byte	.LVL9
 2471 0de0 F7140000 		.4byte	0x14f7
 2472 0de4 EE0D0000 		.4byte	0xdee
 2473 0de8 33       		.uleb128 0x33
 2474 0de9 01       		.uleb128 0x1
 2475 0dea 50       		.byte	0x50
 2476 0deb 01       		.uleb128 0x1
 2477 0dec 31       		.byte	0x31
 2478 0ded 00       		.byte	0
 2479 0dee 32       		.uleb128 0x32
 2480 0def 20000000 		.4byte	.LVL11
 2481 0df3 0D150000 		.4byte	0x150d
 2482 0df7 010E0000 		.4byte	0xe01
 2483 0dfb 33       		.uleb128 0x33
 2484 0dfc 01       		.uleb128 0x1
 2485 0dfd 50       		.byte	0x50
 2486 0dfe 01       		.uleb128 0x1
 2487 0dff 31       		.byte	0x31
 2488 0e00 00       		.byte	0
 2489 0e01 32       		.uleb128 0x32
 2490 0e02 30000000 		.4byte	.LVL13
 2491 0e06 F7140000 		.4byte	0x14f7
 2492 0e0a 140E0000 		.4byte	0xe14
ARM GAS  /tmp/ccrXC91b.s 			page 45


 2493 0e0e 33       		.uleb128 0x33
 2494 0e0f 01       		.uleb128 0x1
 2495 0e10 50       		.byte	0x50
 2496 0e11 01       		.uleb128 0x1
 2497 0e12 32       		.byte	0x32
 2498 0e13 00       		.byte	0
 2499 0e14 32       		.uleb128 0x32
 2500 0e15 40000000 		.4byte	.LVL15
 2501 0e19 0D150000 		.4byte	0x150d
 2502 0e1d 270E0000 		.4byte	0xe27
 2503 0e21 33       		.uleb128 0x33
 2504 0e22 01       		.uleb128 0x1
 2505 0e23 50       		.byte	0x50
 2506 0e24 01       		.uleb128 0x1
 2507 0e25 32       		.byte	0x32
 2508 0e26 00       		.byte	0
 2509 0e27 32       		.uleb128 0x32
 2510 0e28 50000000 		.4byte	.LVL17
 2511 0e2c F7140000 		.4byte	0x14f7
 2512 0e30 3A0E0000 		.4byte	0xe3a
 2513 0e34 33       		.uleb128 0x33
 2514 0e35 01       		.uleb128 0x1
 2515 0e36 50       		.byte	0x50
 2516 0e37 01       		.uleb128 0x1
 2517 0e38 34       		.byte	0x34
 2518 0e39 00       		.byte	0
 2519 0e3a 35       		.uleb128 0x35
 2520 0e3b 60000000 		.4byte	.LVL19
 2521 0e3f 0D150000 		.4byte	0x150d
 2522 0e43 33       		.uleb128 0x33
 2523 0e44 01       		.uleb128 0x1
 2524 0e45 50       		.byte	0x50
 2525 0e46 01       		.uleb128 0x1
 2526 0e47 33       		.byte	0x33
 2527 0e48 00       		.byte	0
 2528 0e49 00       		.byte	0
 2529 0e4a 23       		.uleb128 0x23
 2530 0e4b 01070000 		.4byte	.LASF145
 2531 0e4f 01       		.byte	0x1
 2532 0e50 45       		.byte	0x45
 2533 0e51 00000000 		.4byte	.LFB242
 2534 0e55 A8000000 		.4byte	.LFE242-.LFB242
 2535 0e59 01       		.uleb128 0x1
 2536 0e5a 9C       		.byte	0x9c
 2537 0e5b 59140000 		.4byte	0x1459
 2538 0e5f 2B       		.uleb128 0x2b
 2539 0e60 73747300 		.ascii	"sts\000"
 2540 0e64 01       		.byte	0x1
 2541 0e65 46       		.byte	0x46
 2542 0e66 D9000000 		.4byte	0xd9
 2543 0e6a 70000000 		.4byte	.LLST4
 2544 0e6e 36       		.uleb128 0x36
 2545 0e6f 767400   		.ascii	"vt\000"
 2546 0e72 01       		.byte	0x1
 2547 0e73 47       		.byte	0x47
 2548 0e74 11030000 		.4byte	0x311
 2549 0e78 02       		.uleb128 0x2
ARM GAS  /tmp/ccrXC91b.s 			page 46


 2550 0e79 91       		.byte	0x91
 2551 0e7a 64       		.sleb128 -28
 2552 0e7b 24       		.uleb128 0x24
 2553 0e7c 3B070000 		.4byte	0x73b
 2554 0e80 0C000000 		.4byte	.LBB561
 2555 0e84 06000000 		.4byte	.LBE561-.LBB561
 2556 0e88 01       		.byte	0x1
 2557 0e89 4E       		.byte	0x4e
 2558 0e8a B70E0000 		.4byte	0xeb7
 2559 0e8e 25       		.uleb128 0x25
 2560 0e8f A7060000 		.4byte	0x6a7
 2561 0e93 0C000000 		.4byte	.LBB562
 2562 0e97 06000000 		.4byte	.LBE562-.LBB562
 2563 0e9b 03       		.byte	0x3
 2564 0e9c 5C01     		.2byte	0x15c
 2565 0e9e 25       		.uleb128 0x25
 2566 0e9f 8D060000 		.4byte	0x68d
 2567 0ea3 0C000000 		.4byte	.LBB563
 2568 0ea7 06000000 		.4byte	.LBE563-.LBB563
 2569 0eab 0C       		.byte	0xc
 2570 0eac D001     		.2byte	0x1d0
 2571 0eae 27       		.uleb128 0x27
 2572 0eaf 9A060000 		.4byte	0x69a
 2573 0eb3 20       		.byte	0x20
 2574 0eb4 00       		.byte	0
 2575 0eb5 00       		.byte	0
 2576 0eb6 00       		.byte	0
 2577 0eb7 24       		.uleb128 0x24
 2578 0eb8 44070000 		.4byte	0x744
 2579 0ebc 1A000000 		.4byte	.LBB565
 2580 0ec0 06000000 		.4byte	.LBE565-.LBB565
 2581 0ec4 01       		.byte	0x1
 2582 0ec5 51       		.byte	0x51
 2583 0ec6 020F0000 		.4byte	0xf02
 2584 0eca 2F       		.uleb128 0x2f
 2585 0ecb 1A000000 		.4byte	.LBB566
 2586 0ecf 06000000 		.4byte	.LBE566-.LBB566
 2587 0ed3 30       		.uleb128 0x30
 2588 0ed4 51070000 		.4byte	0x751
 2589 0ed8 25       		.uleb128 0x25
 2590 0ed9 B0060000 		.4byte	0x6b0
 2591 0edd 1A000000 		.4byte	.LBB567
 2592 0ee1 06000000 		.4byte	.LBE567-.LBB567
 2593 0ee5 03       		.byte	0x3
 2594 0ee6 7301     		.2byte	0x173
 2595 0ee8 25       		.uleb128 0x25
 2596 0ee9 8D060000 		.4byte	0x68d
 2597 0eed 1A000000 		.4byte	.LBB568
 2598 0ef1 06000000 		.4byte	.LBE568-.LBB568
 2599 0ef5 0C       		.byte	0xc
 2600 0ef6 E301     		.2byte	0x1e3
 2601 0ef8 27       		.uleb128 0x27
 2602 0ef9 9A060000 		.4byte	0x69a
 2603 0efd 00       		.byte	0
 2604 0efe 00       		.byte	0
 2605 0eff 00       		.byte	0
 2606 0f00 00       		.byte	0
ARM GAS  /tmp/ccrXC91b.s 			page 47


 2607 0f01 00       		.byte	0
 2608 0f02 24       		.uleb128 0x24
 2609 0f03 F1070000 		.4byte	0x7f1
 2610 0f07 20000000 		.4byte	.LBB570
 2611 0f0b 0A000000 		.4byte	.LBE570-.LBB570
 2612 0f0f 01       		.byte	0x1
 2613 0f10 54       		.byte	0x54
 2614 0f11 9A0F0000 		.4byte	0xf9a
 2615 0f15 26       		.uleb128 0x26
 2616 0f16 F8060000 		.4byte	0x6f8
 2617 0f1a 20000000 		.4byte	.LBB572
 2618 0f1e 04000000 		.4byte	.LBE572-.LBB572
 2619 0f22 03       		.byte	0x3
 2620 0f23 A601     		.2byte	0x1a6
 2621 0f25 5D0F0000 		.4byte	0xf5d
 2622 0f29 2F       		.uleb128 0x2f
 2623 0f2a 20000000 		.4byte	.LBB573
 2624 0f2e 04000000 		.4byte	.LBE573-.LBB573
 2625 0f32 30       		.uleb128 0x30
 2626 0f33 09070000 		.4byte	0x709
 2627 0f37 25       		.uleb128 0x25
 2628 0f38 6F060000 		.4byte	0x66f
 2629 0f3c 20000000 		.4byte	.LBB574
 2630 0f40 04000000 		.4byte	.LBE574-.LBB574
 2631 0f44 0C       		.byte	0xc
 2632 0f45 9E01     		.2byte	0x19e
 2633 0f47 2F       		.uleb128 0x2f
 2634 0f48 20000000 		.4byte	.LBB575
 2635 0f4c 04000000 		.4byte	.LBE575-.LBB575
 2636 0f50 2E       		.uleb128 0x2e
 2637 0f51 80060000 		.4byte	0x680
 2638 0f55 8E000000 		.4byte	.LLST5
 2639 0f59 00       		.byte	0
 2640 0f5a 00       		.byte	0
 2641 0f5b 00       		.byte	0
 2642 0f5c 00       		.byte	0
 2643 0f5d 25       		.uleb128 0x25
 2644 0f5e 3B070000 		.4byte	0x73b
 2645 0f62 26000000 		.4byte	.LBB576
 2646 0f66 04000000 		.4byte	.LBE576-.LBB576
 2647 0f6a 03       		.byte	0x3
 2648 0f6b A701     		.2byte	0x1a7
 2649 0f6d 25       		.uleb128 0x25
 2650 0f6e A7060000 		.4byte	0x6a7
 2651 0f72 26000000 		.4byte	.LBB577
 2652 0f76 04000000 		.4byte	.LBE577-.LBB577
 2653 0f7a 03       		.byte	0x3
 2654 0f7b 5C01     		.2byte	0x15c
 2655 0f7d 25       		.uleb128 0x25
 2656 0f7e 8D060000 		.4byte	0x68d
 2657 0f82 26000000 		.4byte	.LBB578
 2658 0f86 04000000 		.4byte	.LBE578-.LBB578
 2659 0f8a 0C       		.byte	0xc
 2660 0f8b D001     		.2byte	0x1d0
 2661 0f8d 37       		.uleb128 0x37
 2662 0f8e 9A060000 		.4byte	0x69a
 2663 0f92 A1000000 		.4byte	.LLST6
ARM GAS  /tmp/ccrXC91b.s 			page 48


 2664 0f96 00       		.byte	0
 2665 0f97 00       		.byte	0
 2666 0f98 00       		.byte	0
 2667 0f99 00       		.byte	0
 2668 0f9a 24       		.uleb128 0x24
 2669 0f9b F1070000 		.4byte	0x7f1
 2670 0f9f 2A000000 		.4byte	.LBB580
 2671 0fa3 0C000000 		.4byte	.LBE580-.LBB580
 2672 0fa7 01       		.byte	0x1
 2673 0fa8 55       		.byte	0x55
 2674 0fa9 32100000 		.4byte	0x1032
 2675 0fad 26       		.uleb128 0x26
 2676 0fae F8060000 		.4byte	0x6f8
 2677 0fb2 2A000000 		.4byte	.LBB582
 2678 0fb6 04000000 		.4byte	.LBE582-.LBB582
 2679 0fba 03       		.byte	0x3
 2680 0fbb A601     		.2byte	0x1a6
 2681 0fbd F50F0000 		.4byte	0xff5
 2682 0fc1 2F       		.uleb128 0x2f
 2683 0fc2 2A000000 		.4byte	.LBB583
 2684 0fc6 04000000 		.4byte	.LBE583-.LBB583
 2685 0fca 30       		.uleb128 0x30
 2686 0fcb 09070000 		.4byte	0x709
 2687 0fcf 25       		.uleb128 0x25
 2688 0fd0 6F060000 		.4byte	0x66f
 2689 0fd4 2A000000 		.4byte	.LBB584
 2690 0fd8 04000000 		.4byte	.LBE584-.LBB584
 2691 0fdc 0C       		.byte	0xc
 2692 0fdd 9E01     		.2byte	0x19e
 2693 0fdf 2F       		.uleb128 0x2f
 2694 0fe0 2A000000 		.4byte	.LBB585
 2695 0fe4 04000000 		.4byte	.LBE585-.LBB585
 2696 0fe8 2E       		.uleb128 0x2e
 2697 0fe9 80060000 		.4byte	0x680
 2698 0fed B6000000 		.4byte	.LLST7
 2699 0ff1 00       		.byte	0
 2700 0ff2 00       		.byte	0
 2701 0ff3 00       		.byte	0
 2702 0ff4 00       		.byte	0
 2703 0ff5 25       		.uleb128 0x25
 2704 0ff6 3B070000 		.4byte	0x73b
 2705 0ffa 30000000 		.4byte	.LBB586
 2706 0ffe 06000000 		.4byte	.LBE586-.LBB586
 2707 1002 03       		.byte	0x3
 2708 1003 A701     		.2byte	0x1a7
 2709 1005 25       		.uleb128 0x25
 2710 1006 A7060000 		.4byte	0x6a7
 2711 100a 30000000 		.4byte	.LBB587
 2712 100e 06000000 		.4byte	.LBE587-.LBB587
 2713 1012 03       		.byte	0x3
 2714 1013 5C01     		.2byte	0x15c
 2715 1015 25       		.uleb128 0x25
 2716 1016 8D060000 		.4byte	0x68d
 2717 101a 30000000 		.4byte	.LBB588
 2718 101e 06000000 		.4byte	.LBE588-.LBB588
 2719 1022 0C       		.byte	0xc
 2720 1023 D001     		.2byte	0x1d0
ARM GAS  /tmp/ccrXC91b.s 			page 49


 2721 1025 37       		.uleb128 0x37
 2722 1026 9A060000 		.4byte	0x69a
 2723 102a C9000000 		.4byte	.LLST8
 2724 102e 00       		.byte	0
 2725 102f 00       		.byte	0
 2726 1030 00       		.byte	0
 2727 1031 00       		.byte	0
 2728 1032 24       		.uleb128 0x24
 2729 1033 44070000 		.4byte	0x744
 2730 1037 36000000 		.4byte	.LBB590
 2731 103b 06000000 		.4byte	.LBE590-.LBB590
 2732 103f 01       		.byte	0x1
 2733 1040 56       		.byte	0x56
 2734 1041 7D100000 		.4byte	0x107d
 2735 1045 2F       		.uleb128 0x2f
 2736 1046 36000000 		.4byte	.LBB591
 2737 104a 06000000 		.4byte	.LBE591-.LBB591
 2738 104e 30       		.uleb128 0x30
 2739 104f 51070000 		.4byte	0x751
 2740 1053 25       		.uleb128 0x25
 2741 1054 B0060000 		.4byte	0x6b0
 2742 1058 36000000 		.4byte	.LBB592
 2743 105c 06000000 		.4byte	.LBE592-.LBB592
 2744 1060 03       		.byte	0x3
 2745 1061 7301     		.2byte	0x173
 2746 1063 25       		.uleb128 0x25
 2747 1064 8D060000 		.4byte	0x68d
 2748 1068 36000000 		.4byte	.LBB593
 2749 106c 06000000 		.4byte	.LBE593-.LBB593
 2750 1070 0C       		.byte	0xc
 2751 1071 E301     		.2byte	0x1e3
 2752 1073 27       		.uleb128 0x27
 2753 1074 9A060000 		.4byte	0x69a
 2754 1078 00       		.byte	0
 2755 1079 00       		.byte	0
 2756 107a 00       		.byte	0
 2757 107b 00       		.byte	0
 2758 107c 00       		.byte	0
 2759 107d 24       		.uleb128 0x24
 2760 107e 3B070000 		.4byte	0x73b
 2761 1082 3C000000 		.4byte	.LBB595
 2762 1086 06000000 		.4byte	.LBE595-.LBB595
 2763 108a 01       		.byte	0x1
 2764 108b 59       		.byte	0x59
 2765 108c B9100000 		.4byte	0x10b9
 2766 1090 25       		.uleb128 0x25
 2767 1091 A7060000 		.4byte	0x6a7
 2768 1095 3C000000 		.4byte	.LBB596
 2769 1099 06000000 		.4byte	.LBE596-.LBB596
 2770 109d 03       		.byte	0x3
 2771 109e 5C01     		.2byte	0x15c
 2772 10a0 25       		.uleb128 0x25
 2773 10a1 8D060000 		.4byte	0x68d
 2774 10a5 3C000000 		.4byte	.LBB597
 2775 10a9 06000000 		.4byte	.LBE597-.LBB597
 2776 10ad 0C       		.byte	0xc
 2777 10ae D001     		.2byte	0x1d0
ARM GAS  /tmp/ccrXC91b.s 			page 50


 2778 10b0 27       		.uleb128 0x27
 2779 10b1 9A060000 		.4byte	0x69a
 2780 10b5 20       		.byte	0x20
 2781 10b6 00       		.byte	0
 2782 10b7 00       		.byte	0
 2783 10b8 00       		.byte	0
 2784 10b9 24       		.uleb128 0x24
 2785 10ba FA070000 		.4byte	0x7fa
 2786 10be 42000000 		.4byte	.LBB599
 2787 10c2 0A000000 		.4byte	.LBE599-.LBB599
 2788 10c6 01       		.byte	0x1
 2789 10c7 5A       		.byte	0x5a
 2790 10c8 60110000 		.4byte	0x1160
 2791 10cc 26       		.uleb128 0x26
 2792 10cd F8060000 		.4byte	0x6f8
 2793 10d1 42000000 		.4byte	.LBB601
 2794 10d5 04000000 		.4byte	.LBE601-.LBB601
 2795 10d9 03       		.byte	0x3
 2796 10da B401     		.2byte	0x1b4
 2797 10dc 14110000 		.4byte	0x1114
 2798 10e0 2F       		.uleb128 0x2f
 2799 10e1 42000000 		.4byte	.LBB602
 2800 10e5 04000000 		.4byte	.LBE602-.LBB602
 2801 10e9 30       		.uleb128 0x30
 2802 10ea 09070000 		.4byte	0x709
 2803 10ee 25       		.uleb128 0x25
 2804 10ef 6F060000 		.4byte	0x66f
 2805 10f3 42000000 		.4byte	.LBB603
 2806 10f7 04000000 		.4byte	.LBE603-.LBB603
 2807 10fb 0C       		.byte	0xc
 2808 10fc 9E01     		.2byte	0x19e
 2809 10fe 2F       		.uleb128 0x2f
 2810 10ff 42000000 		.4byte	.LBB604
 2811 1103 04000000 		.4byte	.LBE604-.LBB604
 2812 1107 2E       		.uleb128 0x2e
 2813 1108 80060000 		.4byte	0x680
 2814 110c DE000000 		.4byte	.LLST9
 2815 1110 00       		.byte	0
 2816 1111 00       		.byte	0
 2817 1112 00       		.byte	0
 2818 1113 00       		.byte	0
 2819 1114 25       		.uleb128 0x25
 2820 1115 44070000 		.4byte	0x744
 2821 1119 48000000 		.4byte	.LBB605
 2822 111d 04000000 		.4byte	.LBE605-.LBB605
 2823 1121 03       		.byte	0x3
 2824 1122 B501     		.2byte	0x1b5
 2825 1124 2F       		.uleb128 0x2f
 2826 1125 48000000 		.4byte	.LBB606
 2827 1129 04000000 		.4byte	.LBE606-.LBB606
 2828 112d 30       		.uleb128 0x30
 2829 112e 51070000 		.4byte	0x751
 2830 1132 25       		.uleb128 0x25
 2831 1133 B0060000 		.4byte	0x6b0
 2832 1137 48000000 		.4byte	.LBB607
 2833 113b 04000000 		.4byte	.LBE607-.LBB607
 2834 113f 03       		.byte	0x3
ARM GAS  /tmp/ccrXC91b.s 			page 51


 2835 1140 7301     		.2byte	0x173
 2836 1142 25       		.uleb128 0x25
 2837 1143 8D060000 		.4byte	0x68d
 2838 1147 48000000 		.4byte	.LBB608
 2839 114b 04000000 		.4byte	.LBE608-.LBB608
 2840 114f 0C       		.byte	0xc
 2841 1150 E301     		.2byte	0x1e3
 2842 1152 37       		.uleb128 0x37
 2843 1153 9A060000 		.4byte	0x69a
 2844 1157 F1000000 		.4byte	.LLST10
 2845 115b 00       		.byte	0
 2846 115c 00       		.byte	0
 2847 115d 00       		.byte	0
 2848 115e 00       		.byte	0
 2849 115f 00       		.byte	0
 2850 1160 24       		.uleb128 0x24
 2851 1161 FA070000 		.4byte	0x7fa
 2852 1165 4C000000 		.4byte	.LBB610
 2853 1169 0C000000 		.4byte	.LBE610-.LBB610
 2854 116d 01       		.byte	0x1
 2855 116e 5B       		.byte	0x5b
 2856 116f 07120000 		.4byte	0x1207
 2857 1173 26       		.uleb128 0x26
 2858 1174 F8060000 		.4byte	0x6f8
 2859 1178 4C000000 		.4byte	.LBB612
 2860 117c 04000000 		.4byte	.LBE612-.LBB612
 2861 1180 03       		.byte	0x3
 2862 1181 B401     		.2byte	0x1b4
 2863 1183 BB110000 		.4byte	0x11bb
 2864 1187 2F       		.uleb128 0x2f
 2865 1188 4C000000 		.4byte	.LBB613
 2866 118c 04000000 		.4byte	.LBE613-.LBB613
 2867 1190 30       		.uleb128 0x30
 2868 1191 09070000 		.4byte	0x709
 2869 1195 25       		.uleb128 0x25
 2870 1196 6F060000 		.4byte	0x66f
 2871 119a 4C000000 		.4byte	.LBB614
 2872 119e 04000000 		.4byte	.LBE614-.LBB614
 2873 11a2 0C       		.byte	0xc
 2874 11a3 9E01     		.2byte	0x19e
 2875 11a5 2F       		.uleb128 0x2f
 2876 11a6 4C000000 		.4byte	.LBB615
 2877 11aa 04000000 		.4byte	.LBE615-.LBB615
 2878 11ae 2E       		.uleb128 0x2e
 2879 11af 80060000 		.4byte	0x680
 2880 11b3 05010000 		.4byte	.LLST11
 2881 11b7 00       		.byte	0
 2882 11b8 00       		.byte	0
 2883 11b9 00       		.byte	0
 2884 11ba 00       		.byte	0
 2885 11bb 25       		.uleb128 0x25
 2886 11bc 44070000 		.4byte	0x744
 2887 11c0 52000000 		.4byte	.LBB616
 2888 11c4 06000000 		.4byte	.LBE616-.LBB616
 2889 11c8 03       		.byte	0x3
 2890 11c9 B501     		.2byte	0x1b5
 2891 11cb 2F       		.uleb128 0x2f
ARM GAS  /tmp/ccrXC91b.s 			page 52


 2892 11cc 52000000 		.4byte	.LBB617
 2893 11d0 06000000 		.4byte	.LBE617-.LBB617
 2894 11d4 30       		.uleb128 0x30
 2895 11d5 51070000 		.4byte	0x751
 2896 11d9 25       		.uleb128 0x25
 2897 11da B0060000 		.4byte	0x6b0
 2898 11de 52000000 		.4byte	.LBB618
 2899 11e2 06000000 		.4byte	.LBE618-.LBB618
 2900 11e6 03       		.byte	0x3
 2901 11e7 7301     		.2byte	0x173
 2902 11e9 25       		.uleb128 0x25
 2903 11ea 8D060000 		.4byte	0x68d
 2904 11ee 52000000 		.4byte	.LBB619
 2905 11f2 06000000 		.4byte	.LBE619-.LBB619
 2906 11f6 0C       		.byte	0xc
 2907 11f7 E301     		.2byte	0x1e3
 2908 11f9 37       		.uleb128 0x37
 2909 11fa 9A060000 		.4byte	0x69a
 2910 11fe 18010000 		.4byte	.LLST12
 2911 1202 00       		.byte	0
 2912 1203 00       		.byte	0
 2913 1204 00       		.byte	0
 2914 1205 00       		.byte	0
 2915 1206 00       		.byte	0
 2916 1207 24       		.uleb128 0x24
 2917 1208 74070000 		.4byte	0x774
 2918 120c 58000000 		.4byte	.LBB621
 2919 1210 04000000 		.4byte	.LBE621-.LBB621
 2920 1214 01       		.byte	0x1
 2921 1215 5E       		.byte	0x5e
 2922 1216 24120000 		.4byte	0x1224
 2923 121a 37       		.uleb128 0x37
 2924 121b 80070000 		.4byte	0x780
 2925 121f 2C010000 		.4byte	.LLST13
 2926 1223 00       		.byte	0
 2927 1224 24       		.uleb128 0x24
 2928 1225 03080000 		.4byte	0x803
 2929 1229 5C000000 		.4byte	.LBB623
 2930 122d 24000000 		.4byte	.LBE623-.LBB623
 2931 1231 01       		.byte	0x1
 2932 1232 5F       		.byte	0x5f
 2933 1233 65130000 		.4byte	0x1365
 2934 1237 27       		.uleb128 0x27
 2935 1238 34080000 		.4byte	0x834
 2936 123c 00       		.byte	0
 2937 123d 38       		.uleb128 0x38
 2938 123e 28080000 		.4byte	0x828
 2939 1242 06       		.uleb128 0x6
 2940 1243 03       		.byte	0x3
 2941 1244 00000000 		.4byte	vtcb
 2942 1248 9F       		.byte	0x9f
 2943 1249 27       		.uleb128 0x27
 2944 124a 1C080000 		.4byte	0x81c
 2945 124e 01       		.byte	0x1
 2946 124f 37       		.uleb128 0x37
 2947 1250 10080000 		.4byte	0x810
 2948 1254 66010000 		.4byte	.LLST14
ARM GAS  /tmp/ccrXC91b.s 			page 53


 2949 1258 26       		.uleb128 0x26
 2950 1259 3B070000 		.4byte	0x73b
 2951 125d 5C000000 		.4byte	.LBB624
 2952 1261 06000000 		.4byte	.LBE624-.LBB624
 2953 1265 04       		.byte	0x4
 2954 1266 E801     		.2byte	0x1e8
 2955 1268 95120000 		.4byte	0x1295
 2956 126c 25       		.uleb128 0x25
 2957 126d A7060000 		.4byte	0x6a7
 2958 1271 5C000000 		.4byte	.LBB625
 2959 1275 06000000 		.4byte	.LBE625-.LBB625
 2960 1279 03       		.byte	0x3
 2961 127a 5C01     		.2byte	0x15c
 2962 127c 25       		.uleb128 0x25
 2963 127d 8D060000 		.4byte	0x68d
 2964 1281 5C000000 		.4byte	.LBB626
 2965 1285 06000000 		.4byte	.LBE626-.LBB626
 2966 1289 0C       		.byte	0xc
 2967 128a D001     		.2byte	0x1d0
 2968 128c 27       		.uleb128 0x27
 2969 128d 9A060000 		.4byte	0x69a
 2970 1291 20       		.byte	0x20
 2971 1292 00       		.byte	0
 2972 1293 00       		.byte	0
 2973 1294 00       		.byte	0
 2974 1295 26       		.uleb128 0x26
 2975 1296 81080000 		.4byte	0x881
 2976 129a 62000000 		.4byte	.LBB628
 2977 129e 18000000 		.4byte	.LBE628-.LBB628
 2978 12a2 04       		.byte	0x4
 2979 12a3 E901     		.2byte	0x1e9
 2980 12a5 1C130000 		.4byte	0x131c
 2981 12a9 27       		.uleb128 0x27
 2982 12aa 9A080000 		.4byte	0x89a
 2983 12ae 01       		.byte	0x1
 2984 12af 38       		.uleb128 0x38
 2985 12b0 A6080000 		.4byte	0x8a6
 2986 12b4 06       		.uleb128 0x6
 2987 12b5 03       		.byte	0x3
 2988 12b6 00000000 		.4byte	vtcb
 2989 12ba 9F       		.byte	0x9f
 2990 12bb 27       		.uleb128 0x27
 2991 12bc B2080000 		.4byte	0x8b2
 2992 12c0 00       		.byte	0
 2993 12c1 37       		.uleb128 0x37
 2994 12c2 8E080000 		.4byte	0x88e
 2995 12c6 A0010000 		.4byte	.LLST15
 2996 12ca 26       		.uleb128 0x26
 2997 12cb D7070000 		.4byte	0x7d7
 2998 12cf 62000000 		.4byte	.LBB630
 2999 12d3 0C000000 		.4byte	.LBE630-.LBB630
 3000 12d7 04       		.byte	0x4
 3001 12d8 CB01     		.2byte	0x1cb
 3002 12da F8120000 		.4byte	0x12f8
 3003 12de 37       		.uleb128 0x37
 3004 12df E4070000 		.4byte	0x7e4
 3005 12e3 A0010000 		.4byte	.LLST15
ARM GAS  /tmp/ccrXC91b.s 			page 54


 3006 12e7 35       		.uleb128 0x35
 3007 12e8 6E000000 		.4byte	.LVL46
 3008 12ec 27150000 		.4byte	0x1527
 3009 12f0 33       		.uleb128 0x33
 3010 12f1 01       		.uleb128 0x1
 3011 12f2 50       		.byte	0x50
 3012 12f3 02       		.uleb128 0x2
 3013 12f4 74       		.byte	0x74
 3014 12f5 00       		.sleb128 0
 3015 12f6 00       		.byte	0
 3016 12f7 00       		.byte	0
 3017 12f8 35       		.uleb128 0x35
 3018 12f9 7A000000 		.4byte	.LVL47
 3019 12fd 38150000 		.4byte	0x1538
 3020 1301 33       		.uleb128 0x33
 3021 1302 01       		.uleb128 0x1
 3022 1303 53       		.byte	0x53
 3023 1304 01       		.uleb128 0x1
 3024 1305 30       		.byte	0x30
 3025 1306 33       		.uleb128 0x33
 3026 1307 01       		.uleb128 0x1
 3027 1308 52       		.byte	0x52
 3028 1309 05       		.uleb128 0x5
 3029 130a 03       		.byte	0x3
 3030 130b 00000000 		.4byte	vtcb
 3031 130f 33       		.uleb128 0x33
 3032 1310 01       		.uleb128 0x1
 3033 1311 51       		.byte	0x51
 3034 1312 01       		.uleb128 0x1
 3035 1313 31       		.byte	0x31
 3036 1314 33       		.uleb128 0x33
 3037 1315 01       		.uleb128 0x1
 3038 1316 50       		.byte	0x50
 3039 1317 02       		.uleb128 0x2
 3040 1318 74       		.byte	0x74
 3041 1319 00       		.sleb128 0
 3042 131a 00       		.byte	0
 3043 131b 00       		.byte	0
 3044 131c 25       		.uleb128 0x25
 3045 131d 44070000 		.4byte	0x744
 3046 1321 7A000000 		.4byte	.LBB632
 3047 1325 06000000 		.4byte	.LBE632-.LBB632
 3048 1329 04       		.byte	0x4
 3049 132a EA01     		.2byte	0x1ea
 3050 132c 2F       		.uleb128 0x2f
 3051 132d 7A000000 		.4byte	.LBB633
 3052 1331 06000000 		.4byte	.LBE633-.LBB633
 3053 1335 30       		.uleb128 0x30
 3054 1336 51070000 		.4byte	0x751
 3055 133a 25       		.uleb128 0x25
 3056 133b B0060000 		.4byte	0x6b0
 3057 133f 7A000000 		.4byte	.LBB634
 3058 1343 06000000 		.4byte	.LBE634-.LBB634
 3059 1347 03       		.byte	0x3
 3060 1348 7301     		.2byte	0x173
 3061 134a 25       		.uleb128 0x25
 3062 134b 8D060000 		.4byte	0x68d
ARM GAS  /tmp/ccrXC91b.s 			page 55


 3063 134f 7A000000 		.4byte	.LBB635
 3064 1353 06000000 		.4byte	.LBE635-.LBB635
 3065 1357 0C       		.byte	0xc
 3066 1358 E301     		.2byte	0x1e3
 3067 135a 27       		.uleb128 0x27
 3068 135b 9A060000 		.4byte	0x69a
 3069 135f 00       		.byte	0
 3070 1360 00       		.byte	0
 3071 1361 00       		.byte	0
 3072 1362 00       		.byte	0
 3073 1363 00       		.byte	0
 3074 1364 00       		.byte	0
 3075 1365 39       		.uleb128 0x39
 3076 1366 41080000 		.4byte	0x841
 3077 136a 86000000 		.4byte	.LBB637
 3078 136e 18000000 		.4byte	.Ldebug_ranges0+0x18
 3079 1372 01       		.byte	0x1
 3080 1373 62       		.byte	0x62
 3081 1374 12140000 		.4byte	0x1412
 3082 1378 37       		.uleb128 0x37
 3083 1379 52080000 		.4byte	0x852
 3084 137d DA010000 		.4byte	.LLST17
 3085 1381 3A       		.uleb128 0x3a
 3086 1382 18000000 		.4byte	.Ldebug_ranges0+0x18
 3087 1386 30       		.uleb128 0x30
 3088 1387 5E080000 		.4byte	0x85e
 3089 138b 26       		.uleb128 0x26
 3090 138c 3B070000 		.4byte	0x73b
 3091 1390 86000000 		.4byte	.LBB639
 3092 1394 06000000 		.4byte	.LBE639-.LBB639
 3093 1398 04       		.byte	0x4
 3094 1399 8901     		.2byte	0x189
 3095 139b C8130000 		.4byte	0x13c8
 3096 139f 25       		.uleb128 0x25
 3097 13a0 A7060000 		.4byte	0x6a7
 3098 13a4 86000000 		.4byte	.LBB640
 3099 13a8 06000000 		.4byte	.LBE640-.LBB640
 3100 13ac 03       		.byte	0x3
 3101 13ad 5C01     		.2byte	0x15c
 3102 13af 25       		.uleb128 0x25
 3103 13b0 8D060000 		.4byte	0x68d
 3104 13b4 86000000 		.4byte	.LBB641
 3105 13b8 06000000 		.4byte	.LBE641-.LBB641
 3106 13bc 0C       		.byte	0xc
 3107 13bd D001     		.2byte	0x1d0
 3108 13bf 27       		.uleb128 0x27
 3109 13c0 9A060000 		.4byte	0x69a
 3110 13c4 20       		.byte	0x20
 3111 13c5 00       		.byte	0
 3112 13c6 00       		.byte	0
 3113 13c7 00       		.byte	0
 3114 13c8 25       		.uleb128 0x25
 3115 13c9 44070000 		.4byte	0x744
 3116 13cd 8E000000 		.4byte	.LBB643
 3117 13d1 04000000 		.4byte	.LBE643-.LBB643
 3118 13d5 04       		.byte	0x4
 3119 13d6 8B01     		.2byte	0x18b
ARM GAS  /tmp/ccrXC91b.s 			page 56


 3120 13d8 2F       		.uleb128 0x2f
 3121 13d9 8E000000 		.4byte	.LBB644
 3122 13dd 04000000 		.4byte	.LBE644-.LBB644
 3123 13e1 30       		.uleb128 0x30
 3124 13e2 51070000 		.4byte	0x751
 3125 13e6 25       		.uleb128 0x25
 3126 13e7 B0060000 		.4byte	0x6b0
 3127 13eb 8E000000 		.4byte	.LBB645
 3128 13ef 04000000 		.4byte	.LBE645-.LBB645
 3129 13f3 03       		.byte	0x3
 3130 13f4 7301     		.2byte	0x173
 3131 13f6 25       		.uleb128 0x25
 3132 13f7 8D060000 		.4byte	0x68d
 3133 13fb 8E000000 		.4byte	.LBB646
 3134 13ff 04000000 		.4byte	.LBE646-.LBB646
 3135 1403 0C       		.byte	0xc
 3136 1404 E301     		.2byte	0x1e3
 3137 1406 27       		.uleb128 0x27
 3138 1407 9A060000 		.4byte	0x69a
 3139 140b 00       		.byte	0
 3140 140c 00       		.byte	0
 3141 140d 00       		.byte	0
 3142 140e 00       		.byte	0
 3143 140f 00       		.byte	0
 3144 1410 00       		.byte	0
 3145 1411 00       		.byte	0
 3146 1412 2C       		.uleb128 0x2c
 3147 1413 08000000 		.4byte	.LVL24
 3148 1417 D9140000 		.4byte	0x14d9
 3149 141b 2C       		.uleb128 0x2c
 3150 141c 0C000000 		.4byte	.LVL25
 3151 1420 E5140000 		.4byte	0x14e5
 3152 1424 2C       		.uleb128 0x2c
 3153 1425 16000000 		.4byte	.LVL26
 3154 1429 D9140000 		.4byte	0x14d9
 3155 142d 2C       		.uleb128 0x2c
 3156 142e 1A000000 		.4byte	.LVL27
 3157 1432 E5140000 		.4byte	0x14e5
 3158 1436 32       		.uleb128 0x32
 3159 1437 86000000 		.4byte	.LVL49
 3160 143b 58150000 		.4byte	0x1558
 3161 143f 49140000 		.4byte	0x1449
 3162 1443 33       		.uleb128 0x33
 3163 1444 01       		.uleb128 0x1
 3164 1445 50       		.byte	0x50
 3165 1446 01       		.uleb128 0x1
 3166 1447 3A       		.byte	0x3a
 3167 1448 00       		.byte	0
 3168 1449 35       		.uleb128 0x35
 3169 144a 9E000000 		.4byte	.LVL51
 3170 144e 0D150000 		.4byte	0x150d
 3171 1452 33       		.uleb128 0x33
 3172 1453 01       		.uleb128 0x1
 3173 1454 50       		.byte	0x50
 3174 1455 01       		.uleb128 0x1
 3175 1456 31       		.byte	0x31
 3176 1457 00       		.byte	0
ARM GAS  /tmp/ccrXC91b.s 			page 57


 3177 1458 00       		.byte	0
 3178 1459 3B       		.uleb128 0x3b
 3179 145a BB000000 		.4byte	.LASF146
 3180 145e 11       		.byte	0x11
 3181 145f FA06     		.2byte	0x6fa
 3182 1461 65140000 		.4byte	0x1465
 3183 1465 14       		.uleb128 0x14
 3184 1466 AD000000 		.4byte	0xad
 3185 146a 3C       		.uleb128 0x3c
 3186 146b 636800   		.ascii	"ch\000"
 3187 146e 0A       		.byte	0xa
 3188 146f 0B02     		.2byte	0x20b
 3189 1471 DE030000 		.4byte	0x3de
 3190 1475 3D       		.uleb128 0x3d
 3191 1476 35030000 		.4byte	.LASF147
 3192 147a 01       		.byte	0x1
 3193 147b 65       		.byte	0x65
 3194 147c 86140000 		.4byte	0x1486
 3195 1480 05       		.uleb128 0x5
 3196 1481 03       		.byte	0x3
 3197 1482 00000000 		.4byte	testsys1
 3198 1486 13       		.uleb128 0x13
 3199 1487 2B060000 		.4byte	0x62b
 3200 148b 3D       		.uleb128 0x3d
 3201 148c 3E030000 		.4byte	.LASF148
 3202 1490 01       		.byte	0x1
 3203 1491 7B       		.byte	0x7b
 3204 1492 86140000 		.4byte	0x1486
 3205 1496 05       		.uleb128 0x5
 3206 1497 03       		.byte	0x3
 3207 1498 00000000 		.4byte	testsys2
 3208 149c 3D       		.uleb128 0x3d
 3209 149d 47030000 		.4byte	.LASF149
 3210 14a1 01       		.byte	0x1
 3211 14a2 A2       		.byte	0xa2
 3212 14a3 86140000 		.4byte	0x1486
 3213 14a7 05       		.uleb128 0x5
 3214 14a8 03       		.byte	0x3
 3215 14a9 00000000 		.4byte	testsys3
 3216 14ad 15       		.uleb128 0x15
 3217 14ae BD140000 		.4byte	0x14bd
 3218 14b2 BD140000 		.4byte	0x14bd
 3219 14b6 16       		.uleb128 0x16
 3220 14b7 45040000 		.4byte	0x445
 3221 14bb 03       		.byte	0x3
 3222 14bc 00       		.byte	0
 3223 14bd 09       		.uleb128 0x9
 3224 14be 04       		.byte	0x4
 3225 14bf 86140000 		.4byte	0x1486
 3226 14c3 3D       		.uleb128 0x3d
 3227 14c4 A9010000 		.4byte	.LASF150
 3228 14c8 01       		.byte	0x1
 3229 14c9 AC       		.byte	0xac
 3230 14ca D4140000 		.4byte	0x14d4
 3231 14ce 05       		.uleb128 0x5
 3232 14cf 03       		.byte	0x3
 3233 14d0 00000000 		.4byte	patternsys
ARM GAS  /tmp/ccrXC91b.s 			page 58


 3234 14d4 13       		.uleb128 0x13
 3235 14d5 AD140000 		.4byte	0x14ad
 3236 14d9 3E       		.uleb128 0x3e
 3237 14da 78050000 		.4byte	.LASF159
 3238 14de 03       		.byte	0x3
 3239 14df 1901     		.2byte	0x119
 3240 14e1 D9000000 		.4byte	0xd9
 3241 14e5 3F       		.uleb128 0x3f
 3242 14e6 54050000 		.4byte	.LASF153
 3243 14ea 03       		.byte	0x3
 3244 14eb 1A01     		.2byte	0x11a
 3245 14ed F7140000 		.4byte	0x14f7
 3246 14f1 0C       		.uleb128 0xc
 3247 14f2 D9000000 		.4byte	0xd9
 3248 14f6 00       		.byte	0
 3249 14f7 40       		.uleb128 0x40
 3250 14f8 A5070000 		.4byte	.LASF151
 3251 14fc 03       		.byte	0x3
 3252 14fd 1701     		.2byte	0x117
 3253 14ff 34070000 		.4byte	0x734
 3254 1503 0D150000 		.4byte	0x150d
 3255 1507 0C       		.uleb128 0xc
 3256 1508 37000000 		.4byte	0x37
 3257 150c 00       		.byte	0
 3258 150d 41       		.uleb128 0x41
 3259 150e 89070000 		.4byte	.LASF152
 3260 1512 10       		.byte	0x10
 3261 1513 5A       		.byte	0x5a
 3262 1514 34070000 		.4byte	0x734
 3263 1518 27150000 		.4byte	0x1527
 3264 151c 0C       		.uleb128 0xc
 3265 151d 37000000 		.4byte	0x37
 3266 1521 0C       		.uleb128 0xc
 3267 1522 34070000 		.4byte	0x734
 3268 1526 00       		.byte	0
 3269 1527 42       		.uleb128 0x42
 3270 1528 7C000000 		.4byte	.LASF154
 3271 152c 04       		.byte	0x4
 3272 152d BE       		.byte	0xbe
 3273 152e 38150000 		.4byte	0x1538
 3274 1532 0C       		.uleb128 0xc
 3275 1533 FF050000 		.4byte	0x5ff
 3276 1537 00       		.byte	0
 3277 1538 42       		.uleb128 0x42
 3278 1539 BD020000 		.4byte	.LASF155
 3279 153d 04       		.byte	0x4
 3280 153e BC       		.byte	0xbc
 3281 153f 58150000 		.4byte	0x1558
 3282 1543 0C       		.uleb128 0xc
 3283 1544 FF050000 		.4byte	0x5ff
 3284 1548 0C       		.uleb128 0xc
 3285 1549 31010000 		.4byte	0x131
 3286 154d 0C       		.uleb128 0xc
 3287 154e F3020000 		.4byte	0x2f3
 3288 1552 0C       		.uleb128 0xc
 3289 1553 0F030000 		.4byte	0x30f
 3290 1557 00       		.byte	0
ARM GAS  /tmp/ccrXC91b.s 			page 59


 3291 1558 43       		.uleb128 0x43
 3292 1559 06050000 		.4byte	.LASF160
 3293 155d 12       		.byte	0x12
 3294 155e 96       		.byte	0x96
 3295 155f 0C       		.uleb128 0xc
 3296 1560 31010000 		.4byte	0x131
 3297 1564 00       		.byte	0
 3298 1565 00       		.byte	0
 3299              		.section	.debug_abbrev,"",%progbits
 3300              	.Ldebug_abbrev0:
 3301 0000 01       		.uleb128 0x1
 3302 0001 11       		.uleb128 0x11
 3303 0002 01       		.byte	0x1
 3304 0003 25       		.uleb128 0x25
 3305 0004 0E       		.uleb128 0xe
 3306 0005 13       		.uleb128 0x13
 3307 0006 0B       		.uleb128 0xb
 3308 0007 03       		.uleb128 0x3
 3309 0008 0E       		.uleb128 0xe
 3310 0009 1B       		.uleb128 0x1b
 3311 000a 0E       		.uleb128 0xe
 3312 000b 55       		.uleb128 0x55
 3313 000c 17       		.uleb128 0x17
 3314 000d 11       		.uleb128 0x11
 3315 000e 01       		.uleb128 0x1
 3316 000f 10       		.uleb128 0x10
 3317 0010 17       		.uleb128 0x17
 3318 0011 00       		.byte	0
 3319 0012 00       		.byte	0
 3320 0013 02       		.uleb128 0x2
 3321 0014 24       		.uleb128 0x24
 3322 0015 00       		.byte	0
 3323 0016 0B       		.uleb128 0xb
 3324 0017 0B       		.uleb128 0xb
 3325 0018 3E       		.uleb128 0x3e
 3326 0019 0B       		.uleb128 0xb
 3327 001a 03       		.uleb128 0x3
 3328 001b 08       		.uleb128 0x8
 3329 001c 00       		.byte	0
 3330 001d 00       		.byte	0
 3331 001e 03       		.uleb128 0x3
 3332 001f 16       		.uleb128 0x16
 3333 0020 00       		.byte	0
 3334 0021 03       		.uleb128 0x3
 3335 0022 0E       		.uleb128 0xe
 3336 0023 3A       		.uleb128 0x3a
 3337 0024 0B       		.uleb128 0xb
 3338 0025 3B       		.uleb128 0x3b
 3339 0026 0B       		.uleb128 0xb
 3340 0027 49       		.uleb128 0x49
 3341 0028 13       		.uleb128 0x13
 3342 0029 00       		.byte	0
 3343 002a 00       		.byte	0
 3344 002b 04       		.uleb128 0x4
 3345 002c 24       		.uleb128 0x24
 3346 002d 00       		.byte	0
 3347 002e 0B       		.uleb128 0xb
ARM GAS  /tmp/ccrXC91b.s 			page 60


 3348 002f 0B       		.uleb128 0xb
 3349 0030 3E       		.uleb128 0x3e
 3350 0031 0B       		.uleb128 0xb
 3351 0032 03       		.uleb128 0x3
 3352 0033 0E       		.uleb128 0xe
 3353 0034 00       		.byte	0
 3354 0035 00       		.byte	0
 3355 0036 05       		.uleb128 0x5
 3356 0037 13       		.uleb128 0x13
 3357 0038 01       		.byte	0x1
 3358 0039 03       		.uleb128 0x3
 3359 003a 0E       		.uleb128 0xe
 3360 003b 0B       		.uleb128 0xb
 3361 003c 0B       		.uleb128 0xb
 3362 003d 3A       		.uleb128 0x3a
 3363 003e 0B       		.uleb128 0xb
 3364 003f 3B       		.uleb128 0x3b
 3365 0040 0B       		.uleb128 0xb
 3366 0041 01       		.uleb128 0x1
 3367 0042 13       		.uleb128 0x13
 3368 0043 00       		.byte	0
 3369 0044 00       		.byte	0
 3370 0045 06       		.uleb128 0x6
 3371 0046 0D       		.uleb128 0xd
 3372 0047 00       		.byte	0
 3373 0048 03       		.uleb128 0x3
 3374 0049 0E       		.uleb128 0xe
 3375 004a 3A       		.uleb128 0x3a
 3376 004b 0B       		.uleb128 0xb
 3377 004c 3B       		.uleb128 0x3b
 3378 004d 0B       		.uleb128 0xb
 3379 004e 49       		.uleb128 0x49
 3380 004f 13       		.uleb128 0x13
 3381 0050 38       		.uleb128 0x38
 3382 0051 0B       		.uleb128 0xb
 3383 0052 00       		.byte	0
 3384 0053 00       		.byte	0
 3385 0054 07       		.uleb128 0x7
 3386 0055 0D       		.uleb128 0xd
 3387 0056 00       		.byte	0
 3388 0057 03       		.uleb128 0x3
 3389 0058 08       		.uleb128 0x8
 3390 0059 3A       		.uleb128 0x3a
 3391 005a 0B       		.uleb128 0xb
 3392 005b 3B       		.uleb128 0x3b
 3393 005c 05       		.uleb128 0x5
 3394 005d 49       		.uleb128 0x49
 3395 005e 13       		.uleb128 0x13
 3396 005f 38       		.uleb128 0x38
 3397 0060 0B       		.uleb128 0xb
 3398 0061 00       		.byte	0
 3399 0062 00       		.byte	0
 3400 0063 08       		.uleb128 0x8
 3401 0064 0D       		.uleb128 0xd
 3402 0065 00       		.byte	0
 3403 0066 03       		.uleb128 0x3
 3404 0067 0E       		.uleb128 0xe
ARM GAS  /tmp/ccrXC91b.s 			page 61


 3405 0068 3A       		.uleb128 0x3a
 3406 0069 0B       		.uleb128 0xb
 3407 006a 3B       		.uleb128 0x3b
 3408 006b 05       		.uleb128 0x5
 3409 006c 49       		.uleb128 0x49
 3410 006d 13       		.uleb128 0x13
 3411 006e 38       		.uleb128 0x38
 3412 006f 0B       		.uleb128 0xb
 3413 0070 00       		.byte	0
 3414 0071 00       		.byte	0
 3415 0072 09       		.uleb128 0x9
 3416 0073 0F       		.uleb128 0xf
 3417 0074 00       		.byte	0
 3418 0075 0B       		.uleb128 0xb
 3419 0076 0B       		.uleb128 0xb
 3420 0077 49       		.uleb128 0x49
 3421 0078 13       		.uleb128 0x13
 3422 0079 00       		.byte	0
 3423 007a 00       		.byte	0
 3424 007b 0A       		.uleb128 0xa
 3425 007c 13       		.uleb128 0x13
 3426 007d 01       		.byte	0x1
 3427 007e 03       		.uleb128 0x3
 3428 007f 0E       		.uleb128 0xe
 3429 0080 0B       		.uleb128 0xb
 3430 0081 0B       		.uleb128 0xb
 3431 0082 3A       		.uleb128 0x3a
 3432 0083 0B       		.uleb128 0xb
 3433 0084 3B       		.uleb128 0x3b
 3434 0085 05       		.uleb128 0x5
 3435 0086 01       		.uleb128 0x1
 3436 0087 13       		.uleb128 0x13
 3437 0088 00       		.byte	0
 3438 0089 00       		.byte	0
 3439 008a 0B       		.uleb128 0xb
 3440 008b 15       		.uleb128 0x15
 3441 008c 01       		.byte	0x1
 3442 008d 27       		.uleb128 0x27
 3443 008e 19       		.uleb128 0x19
 3444 008f 01       		.uleb128 0x1
 3445 0090 13       		.uleb128 0x13
 3446 0091 00       		.byte	0
 3447 0092 00       		.byte	0
 3448 0093 0C       		.uleb128 0xc
 3449 0094 05       		.uleb128 0x5
 3450 0095 00       		.byte	0
 3451 0096 49       		.uleb128 0x49
 3452 0097 13       		.uleb128 0x13
 3453 0098 00       		.byte	0
 3454 0099 00       		.byte	0
 3455 009a 0D       		.uleb128 0xd
 3456 009b 0F       		.uleb128 0xf
 3457 009c 00       		.byte	0
 3458 009d 0B       		.uleb128 0xb
 3459 009e 0B       		.uleb128 0xb
 3460 009f 00       		.byte	0
 3461 00a0 00       		.byte	0
ARM GAS  /tmp/ccrXC91b.s 			page 62


 3462 00a1 0E       		.uleb128 0xe
 3463 00a2 13       		.uleb128 0x13
 3464 00a3 01       		.byte	0x1
 3465 00a4 03       		.uleb128 0x3
 3466 00a5 0E       		.uleb128 0xe
 3467 00a6 0B       		.uleb128 0xb
 3468 00a7 05       		.uleb128 0x5
 3469 00a8 3A       		.uleb128 0x3a
 3470 00a9 0B       		.uleb128 0xb
 3471 00aa 3B       		.uleb128 0x3b
 3472 00ab 05       		.uleb128 0x5
 3473 00ac 01       		.uleb128 0x1
 3474 00ad 13       		.uleb128 0x13
 3475 00ae 00       		.byte	0
 3476 00af 00       		.byte	0
 3477 00b0 0F       		.uleb128 0xf
 3478 00b1 0D       		.uleb128 0xd
 3479 00b2 00       		.byte	0
 3480 00b3 03       		.uleb128 0x3
 3481 00b4 08       		.uleb128 0x8
 3482 00b5 3A       		.uleb128 0x3a
 3483 00b6 0B       		.uleb128 0xb
 3484 00b7 3B       		.uleb128 0x3b
 3485 00b8 0B       		.uleb128 0xb
 3486 00b9 49       		.uleb128 0x49
 3487 00ba 13       		.uleb128 0x13
 3488 00bb 38       		.uleb128 0x38
 3489 00bc 0B       		.uleb128 0xb
 3490 00bd 00       		.byte	0
 3491 00be 00       		.byte	0
 3492 00bf 10       		.uleb128 0x10
 3493 00c0 13       		.uleb128 0x13
 3494 00c1 01       		.byte	0x1
 3495 00c2 0B       		.uleb128 0xb
 3496 00c3 0B       		.uleb128 0xb
 3497 00c4 3A       		.uleb128 0x3a
 3498 00c5 0B       		.uleb128 0xb
 3499 00c6 3B       		.uleb128 0x3b
 3500 00c7 0B       		.uleb128 0xb
 3501 00c8 01       		.uleb128 0x1
 3502 00c9 13       		.uleb128 0x13
 3503 00ca 00       		.byte	0
 3504 00cb 00       		.byte	0
 3505 00cc 11       		.uleb128 0x11
 3506 00cd 17       		.uleb128 0x17
 3507 00ce 01       		.byte	0x1
 3508 00cf 0B       		.uleb128 0xb
 3509 00d0 0B       		.uleb128 0xb
 3510 00d1 3A       		.uleb128 0x3a
 3511 00d2 0B       		.uleb128 0xb
 3512 00d3 3B       		.uleb128 0x3b
 3513 00d4 0B       		.uleb128 0xb
 3514 00d5 01       		.uleb128 0x1
 3515 00d6 13       		.uleb128 0x13
 3516 00d7 00       		.byte	0
 3517 00d8 00       		.byte	0
 3518 00d9 12       		.uleb128 0x12
ARM GAS  /tmp/ccrXC91b.s 			page 63


 3519 00da 0D       		.uleb128 0xd
 3520 00db 00       		.byte	0
 3521 00dc 03       		.uleb128 0x3
 3522 00dd 0E       		.uleb128 0xe
 3523 00de 3A       		.uleb128 0x3a
 3524 00df 0B       		.uleb128 0xb
 3525 00e0 3B       		.uleb128 0x3b
 3526 00e1 05       		.uleb128 0x5
 3527 00e2 49       		.uleb128 0x49
 3528 00e3 13       		.uleb128 0x13
 3529 00e4 00       		.byte	0
 3530 00e5 00       		.byte	0
 3531 00e6 13       		.uleb128 0x13
 3532 00e7 26       		.uleb128 0x26
 3533 00e8 00       		.byte	0
 3534 00e9 49       		.uleb128 0x49
 3535 00ea 13       		.uleb128 0x13
 3536 00eb 00       		.byte	0
 3537 00ec 00       		.byte	0
 3538 00ed 14       		.uleb128 0x14
 3539 00ee 35       		.uleb128 0x35
 3540 00ef 00       		.byte	0
 3541 00f0 49       		.uleb128 0x49
 3542 00f1 13       		.uleb128 0x13
 3543 00f2 00       		.byte	0
 3544 00f3 00       		.byte	0
 3545 00f4 15       		.uleb128 0x15
 3546 00f5 01       		.uleb128 0x1
 3547 00f6 01       		.byte	0x1
 3548 00f7 49       		.uleb128 0x49
 3549 00f8 13       		.uleb128 0x13
 3550 00f9 01       		.uleb128 0x1
 3551 00fa 13       		.uleb128 0x13
 3552 00fb 00       		.byte	0
 3553 00fc 00       		.byte	0
 3554 00fd 16       		.uleb128 0x16
 3555 00fe 21       		.uleb128 0x21
 3556 00ff 00       		.byte	0
 3557 0100 49       		.uleb128 0x49
 3558 0101 13       		.uleb128 0x13
 3559 0102 2F       		.uleb128 0x2f
 3560 0103 0B       		.uleb128 0xb
 3561 0104 00       		.byte	0
 3562 0105 00       		.byte	0
 3563 0106 17       		.uleb128 0x17
 3564 0107 15       		.uleb128 0x15
 3565 0108 00       		.byte	0
 3566 0109 27       		.uleb128 0x27
 3567 010a 19       		.uleb128 0x19
 3568 010b 00       		.byte	0
 3569 010c 00       		.byte	0
 3570 010d 18       		.uleb128 0x18
 3571 010e 2E       		.uleb128 0x2e
 3572 010f 01       		.byte	0x1
 3573 0110 03       		.uleb128 0x3
 3574 0111 0E       		.uleb128 0xe
 3575 0112 3A       		.uleb128 0x3a
ARM GAS  /tmp/ccrXC91b.s 			page 64


 3576 0113 0B       		.uleb128 0xb
 3577 0114 3B       		.uleb128 0x3b
 3578 0115 05       		.uleb128 0x5
 3579 0116 27       		.uleb128 0x27
 3580 0117 19       		.uleb128 0x19
 3581 0118 49       		.uleb128 0x49
 3582 0119 13       		.uleb128 0x13
 3583 011a 20       		.uleb128 0x20
 3584 011b 0B       		.uleb128 0xb
 3585 011c 01       		.uleb128 0x1
 3586 011d 13       		.uleb128 0x13
 3587 011e 00       		.byte	0
 3588 011f 00       		.byte	0
 3589 0120 19       		.uleb128 0x19
 3590 0121 34       		.uleb128 0x34
 3591 0122 00       		.byte	0
 3592 0123 03       		.uleb128 0x3
 3593 0124 0E       		.uleb128 0xe
 3594 0125 3A       		.uleb128 0x3a
 3595 0126 0B       		.uleb128 0xb
 3596 0127 3B       		.uleb128 0x3b
 3597 0128 05       		.uleb128 0x5
 3598 0129 49       		.uleb128 0x49
 3599 012a 13       		.uleb128 0x13
 3600 012b 00       		.byte	0
 3601 012c 00       		.byte	0
 3602 012d 1A       		.uleb128 0x1a
 3603 012e 2E       		.uleb128 0x2e
 3604 012f 01       		.byte	0x1
 3605 0130 03       		.uleb128 0x3
 3606 0131 0E       		.uleb128 0xe
 3607 0132 3A       		.uleb128 0x3a
 3608 0133 0B       		.uleb128 0xb
 3609 0134 3B       		.uleb128 0x3b
 3610 0135 05       		.uleb128 0x5
 3611 0136 27       		.uleb128 0x27
 3612 0137 19       		.uleb128 0x19
 3613 0138 20       		.uleb128 0x20
 3614 0139 0B       		.uleb128 0xb
 3615 013a 01       		.uleb128 0x1
 3616 013b 13       		.uleb128 0x13
 3617 013c 00       		.byte	0
 3618 013d 00       		.byte	0
 3619 013e 1B       		.uleb128 0x1b
 3620 013f 05       		.uleb128 0x5
 3621 0140 00       		.byte	0
 3622 0141 03       		.uleb128 0x3
 3623 0142 0E       		.uleb128 0xe
 3624 0143 3A       		.uleb128 0x3a
 3625 0144 0B       		.uleb128 0xb
 3626 0145 3B       		.uleb128 0x3b
 3627 0146 05       		.uleb128 0x5
 3628 0147 49       		.uleb128 0x49
 3629 0148 13       		.uleb128 0x13
 3630 0149 00       		.byte	0
 3631 014a 00       		.byte	0
 3632 014b 1C       		.uleb128 0x1c
ARM GAS  /tmp/ccrXC91b.s 			page 65


 3633 014c 2E       		.uleb128 0x2e
 3634 014d 00       		.byte	0
 3635 014e 03       		.uleb128 0x3
 3636 014f 0E       		.uleb128 0xe
 3637 0150 3A       		.uleb128 0x3a
 3638 0151 0B       		.uleb128 0xb
 3639 0152 3B       		.uleb128 0x3b
 3640 0153 05       		.uleb128 0x5
 3641 0154 27       		.uleb128 0x27
 3642 0155 19       		.uleb128 0x19
 3643 0156 20       		.uleb128 0x20
 3644 0157 0B       		.uleb128 0xb
 3645 0158 00       		.byte	0
 3646 0159 00       		.byte	0
 3647 015a 1D       		.uleb128 0x1d
 3648 015b 34       		.uleb128 0x34
 3649 015c 00       		.byte	0
 3650 015d 03       		.uleb128 0x3
 3651 015e 08       		.uleb128 0x8
 3652 015f 3A       		.uleb128 0x3a
 3653 0160 0B       		.uleb128 0xb
 3654 0161 3B       		.uleb128 0x3b
 3655 0162 05       		.uleb128 0x5
 3656 0163 49       		.uleb128 0x49
 3657 0164 13       		.uleb128 0x13
 3658 0165 00       		.byte	0
 3659 0166 00       		.byte	0
 3660 0167 1E       		.uleb128 0x1e
 3661 0168 05       		.uleb128 0x5
 3662 0169 00       		.byte	0
 3663 016a 03       		.uleb128 0x3
 3664 016b 08       		.uleb128 0x8
 3665 016c 3A       		.uleb128 0x3a
 3666 016d 0B       		.uleb128 0xb
 3667 016e 3B       		.uleb128 0x3b
 3668 016f 05       		.uleb128 0x5
 3669 0170 49       		.uleb128 0x49
 3670 0171 13       		.uleb128 0x13
 3671 0172 00       		.byte	0
 3672 0173 00       		.byte	0
 3673 0174 1F       		.uleb128 0x1f
 3674 0175 34       		.uleb128 0x34
 3675 0176 00       		.byte	0
 3676 0177 03       		.uleb128 0x3
 3677 0178 0E       		.uleb128 0xe
 3678 0179 49       		.uleb128 0x49
 3679 017a 13       		.uleb128 0x13
 3680 017b 34       		.uleb128 0x34
 3681 017c 19       		.uleb128 0x19
 3682 017d 1C       		.uleb128 0x1c
 3683 017e 0E       		.uleb128 0xe
 3684 017f 00       		.byte	0
 3685 0180 00       		.byte	0
 3686 0181 20       		.uleb128 0x20
 3687 0182 2E       		.uleb128 0x2e
 3688 0183 01       		.byte	0x1
 3689 0184 03       		.uleb128 0x3
ARM GAS  /tmp/ccrXC91b.s 			page 66


 3690 0185 0E       		.uleb128 0xe
 3691 0186 3A       		.uleb128 0x3a
 3692 0187 0B       		.uleb128 0xb
 3693 0188 3B       		.uleb128 0x3b
 3694 0189 0B       		.uleb128 0xb
 3695 018a 27       		.uleb128 0x27
 3696 018b 19       		.uleb128 0x19
 3697 018c 20       		.uleb128 0x20
 3698 018d 0B       		.uleb128 0xb
 3699 018e 01       		.uleb128 0x1
 3700 018f 13       		.uleb128 0x13
 3701 0190 00       		.byte	0
 3702 0191 00       		.byte	0
 3703 0192 21       		.uleb128 0x21
 3704 0193 05       		.uleb128 0x5
 3705 0194 00       		.byte	0
 3706 0195 03       		.uleb128 0x3
 3707 0196 08       		.uleb128 0x8
 3708 0197 3A       		.uleb128 0x3a
 3709 0198 0B       		.uleb128 0xb
 3710 0199 3B       		.uleb128 0x3b
 3711 019a 0B       		.uleb128 0xb
 3712 019b 49       		.uleb128 0x49
 3713 019c 13       		.uleb128 0x13
 3714 019d 00       		.byte	0
 3715 019e 00       		.byte	0
 3716 019f 22       		.uleb128 0x22
 3717 01a0 34       		.uleb128 0x34
 3718 01a1 00       		.byte	0
 3719 01a2 03       		.uleb128 0x3
 3720 01a3 0E       		.uleb128 0xe
 3721 01a4 3A       		.uleb128 0x3a
 3722 01a5 0B       		.uleb128 0xb
 3723 01a6 3B       		.uleb128 0x3b
 3724 01a7 0B       		.uleb128 0xb
 3725 01a8 49       		.uleb128 0x49
 3726 01a9 13       		.uleb128 0x13
 3727 01aa 00       		.byte	0
 3728 01ab 00       		.byte	0
 3729 01ac 23       		.uleb128 0x23
 3730 01ad 2E       		.uleb128 0x2e
 3731 01ae 01       		.byte	0x1
 3732 01af 03       		.uleb128 0x3
 3733 01b0 0E       		.uleb128 0xe
 3734 01b1 3A       		.uleb128 0x3a
 3735 01b2 0B       		.uleb128 0xb
 3736 01b3 3B       		.uleb128 0x3b
 3737 01b4 0B       		.uleb128 0xb
 3738 01b5 27       		.uleb128 0x27
 3739 01b6 19       		.uleb128 0x19
 3740 01b7 11       		.uleb128 0x11
 3741 01b8 01       		.uleb128 0x1
 3742 01b9 12       		.uleb128 0x12
 3743 01ba 06       		.uleb128 0x6
 3744 01bb 40       		.uleb128 0x40
 3745 01bc 18       		.uleb128 0x18
 3746 01bd 9742     		.uleb128 0x2117
ARM GAS  /tmp/ccrXC91b.s 			page 67


 3747 01bf 19       		.uleb128 0x19
 3748 01c0 01       		.uleb128 0x1
 3749 01c1 13       		.uleb128 0x13
 3750 01c2 00       		.byte	0
 3751 01c3 00       		.byte	0
 3752 01c4 24       		.uleb128 0x24
 3753 01c5 1D       		.uleb128 0x1d
 3754 01c6 01       		.byte	0x1
 3755 01c7 31       		.uleb128 0x31
 3756 01c8 13       		.uleb128 0x13
 3757 01c9 11       		.uleb128 0x11
 3758 01ca 01       		.uleb128 0x1
 3759 01cb 12       		.uleb128 0x12
 3760 01cc 06       		.uleb128 0x6
 3761 01cd 58       		.uleb128 0x58
 3762 01ce 0B       		.uleb128 0xb
 3763 01cf 59       		.uleb128 0x59
 3764 01d0 0B       		.uleb128 0xb
 3765 01d1 01       		.uleb128 0x1
 3766 01d2 13       		.uleb128 0x13
 3767 01d3 00       		.byte	0
 3768 01d4 00       		.byte	0
 3769 01d5 25       		.uleb128 0x25
 3770 01d6 1D       		.uleb128 0x1d
 3771 01d7 01       		.byte	0x1
 3772 01d8 31       		.uleb128 0x31
 3773 01d9 13       		.uleb128 0x13
 3774 01da 11       		.uleb128 0x11
 3775 01db 01       		.uleb128 0x1
 3776 01dc 12       		.uleb128 0x12
 3777 01dd 06       		.uleb128 0x6
 3778 01de 58       		.uleb128 0x58
 3779 01df 0B       		.uleb128 0xb
 3780 01e0 59       		.uleb128 0x59
 3781 01e1 05       		.uleb128 0x5
 3782 01e2 00       		.byte	0
 3783 01e3 00       		.byte	0
 3784 01e4 26       		.uleb128 0x26
 3785 01e5 1D       		.uleb128 0x1d
 3786 01e6 01       		.byte	0x1
 3787 01e7 31       		.uleb128 0x31
 3788 01e8 13       		.uleb128 0x13
 3789 01e9 11       		.uleb128 0x11
 3790 01ea 01       		.uleb128 0x1
 3791 01eb 12       		.uleb128 0x12
 3792 01ec 06       		.uleb128 0x6
 3793 01ed 58       		.uleb128 0x58
 3794 01ee 0B       		.uleb128 0xb
 3795 01ef 59       		.uleb128 0x59
 3796 01f0 05       		.uleb128 0x5
 3797 01f1 01       		.uleb128 0x1
 3798 01f2 13       		.uleb128 0x13
 3799 01f3 00       		.byte	0
 3800 01f4 00       		.byte	0
 3801 01f5 27       		.uleb128 0x27
 3802 01f6 05       		.uleb128 0x5
 3803 01f7 00       		.byte	0
ARM GAS  /tmp/ccrXC91b.s 			page 68


 3804 01f8 31       		.uleb128 0x31
 3805 01f9 13       		.uleb128 0x13
 3806 01fa 1C       		.uleb128 0x1c
 3807 01fb 0B       		.uleb128 0xb
 3808 01fc 00       		.byte	0
 3809 01fd 00       		.byte	0
 3810 01fe 28       		.uleb128 0x28
 3811 01ff 1D       		.uleb128 0x1d
 3812 0200 00       		.byte	0
 3813 0201 31       		.uleb128 0x31
 3814 0202 13       		.uleb128 0x13
 3815 0203 11       		.uleb128 0x11
 3816 0204 01       		.uleb128 0x1
 3817 0205 12       		.uleb128 0x12
 3818 0206 06       		.uleb128 0x6
 3819 0207 58       		.uleb128 0x58
 3820 0208 0B       		.uleb128 0xb
 3821 0209 59       		.uleb128 0x59
 3822 020a 05       		.uleb128 0x5
 3823 020b 00       		.byte	0
 3824 020c 00       		.byte	0
 3825 020d 29       		.uleb128 0x29
 3826 020e 1D       		.uleb128 0x1d
 3827 020f 01       		.byte	0x1
 3828 0210 31       		.uleb128 0x31
 3829 0211 13       		.uleb128 0x13
 3830 0212 11       		.uleb128 0x11
 3831 0213 01       		.uleb128 0x1
 3832 0214 12       		.uleb128 0x12
 3833 0215 06       		.uleb128 0x6
 3834 0216 58       		.uleb128 0x58
 3835 0217 0B       		.uleb128 0xb
 3836 0218 59       		.uleb128 0x59
 3837 0219 0B       		.uleb128 0xb
 3838 021a 00       		.byte	0
 3839 021b 00       		.byte	0
 3840 021c 2A       		.uleb128 0x2a
 3841 021d 05       		.uleb128 0x5
 3842 021e 00       		.byte	0
 3843 021f 03       		.uleb128 0x3
 3844 0220 08       		.uleb128 0x8
 3845 0221 3A       		.uleb128 0x3a
 3846 0222 0B       		.uleb128 0xb
 3847 0223 3B       		.uleb128 0x3b
 3848 0224 0B       		.uleb128 0xb
 3849 0225 49       		.uleb128 0x49
 3850 0226 13       		.uleb128 0x13
 3851 0227 02       		.uleb128 0x2
 3852 0228 17       		.uleb128 0x17
 3853 0229 00       		.byte	0
 3854 022a 00       		.byte	0
 3855 022b 2B       		.uleb128 0x2b
 3856 022c 34       		.uleb128 0x34
 3857 022d 00       		.byte	0
 3858 022e 03       		.uleb128 0x3
 3859 022f 08       		.uleb128 0x8
 3860 0230 3A       		.uleb128 0x3a
ARM GAS  /tmp/ccrXC91b.s 			page 69


 3861 0231 0B       		.uleb128 0xb
 3862 0232 3B       		.uleb128 0x3b
 3863 0233 0B       		.uleb128 0xb
 3864 0234 49       		.uleb128 0x49
 3865 0235 13       		.uleb128 0x13
 3866 0236 02       		.uleb128 0x2
 3867 0237 17       		.uleb128 0x17
 3868 0238 00       		.byte	0
 3869 0239 00       		.byte	0
 3870 023a 2C       		.uleb128 0x2c
 3871 023b 898201   		.uleb128 0x4109
 3872 023e 00       		.byte	0
 3873 023f 11       		.uleb128 0x11
 3874 0240 01       		.uleb128 0x1
 3875 0241 31       		.uleb128 0x31
 3876 0242 13       		.uleb128 0x13
 3877 0243 00       		.byte	0
 3878 0244 00       		.byte	0
 3879 0245 2D       		.uleb128 0x2d
 3880 0246 2E       		.uleb128 0x2e
 3881 0247 01       		.byte	0x1
 3882 0248 31       		.uleb128 0x31
 3883 0249 13       		.uleb128 0x13
 3884 024a 11       		.uleb128 0x11
 3885 024b 01       		.uleb128 0x1
 3886 024c 12       		.uleb128 0x12
 3887 024d 06       		.uleb128 0x6
 3888 024e 40       		.uleb128 0x40
 3889 024f 18       		.uleb128 0x18
 3890 0250 9742     		.uleb128 0x2117
 3891 0252 19       		.uleb128 0x19
 3892 0253 01       		.uleb128 0x1
 3893 0254 13       		.uleb128 0x13
 3894 0255 00       		.byte	0
 3895 0256 00       		.byte	0
 3896 0257 2E       		.uleb128 0x2e
 3897 0258 34       		.uleb128 0x34
 3898 0259 00       		.byte	0
 3899 025a 31       		.uleb128 0x31
 3900 025b 13       		.uleb128 0x13
 3901 025c 02       		.uleb128 0x2
 3902 025d 17       		.uleb128 0x17
 3903 025e 00       		.byte	0
 3904 025f 00       		.byte	0
 3905 0260 2F       		.uleb128 0x2f
 3906 0261 0B       		.uleb128 0xb
 3907 0262 01       		.byte	0x1
 3908 0263 11       		.uleb128 0x11
 3909 0264 01       		.uleb128 0x1
 3910 0265 12       		.uleb128 0x12
 3911 0266 06       		.uleb128 0x6
 3912 0267 00       		.byte	0
 3913 0268 00       		.byte	0
 3914 0269 30       		.uleb128 0x30
 3915 026a 34       		.uleb128 0x34
 3916 026b 00       		.byte	0
 3917 026c 31       		.uleb128 0x31
ARM GAS  /tmp/ccrXC91b.s 			page 70


 3918 026d 13       		.uleb128 0x13
 3919 026e 00       		.byte	0
 3920 026f 00       		.byte	0
 3921 0270 31       		.uleb128 0x31
 3922 0271 0B       		.uleb128 0xb
 3923 0272 01       		.byte	0x1
 3924 0273 55       		.uleb128 0x55
 3925 0274 17       		.uleb128 0x17
 3926 0275 01       		.uleb128 0x1
 3927 0276 13       		.uleb128 0x13
 3928 0277 00       		.byte	0
 3929 0278 00       		.byte	0
 3930 0279 32       		.uleb128 0x32
 3931 027a 898201   		.uleb128 0x4109
 3932 027d 01       		.byte	0x1
 3933 027e 11       		.uleb128 0x11
 3934 027f 01       		.uleb128 0x1
 3935 0280 31       		.uleb128 0x31
 3936 0281 13       		.uleb128 0x13
 3937 0282 01       		.uleb128 0x1
 3938 0283 13       		.uleb128 0x13
 3939 0284 00       		.byte	0
 3940 0285 00       		.byte	0
 3941 0286 33       		.uleb128 0x33
 3942 0287 8A8201   		.uleb128 0x410a
 3943 028a 00       		.byte	0
 3944 028b 02       		.uleb128 0x2
 3945 028c 18       		.uleb128 0x18
 3946 028d 9142     		.uleb128 0x2111
 3947 028f 18       		.uleb128 0x18
 3948 0290 00       		.byte	0
 3949 0291 00       		.byte	0
 3950 0292 34       		.uleb128 0x34
 3951 0293 898201   		.uleb128 0x4109
 3952 0296 01       		.byte	0x1
 3953 0297 11       		.uleb128 0x11
 3954 0298 01       		.uleb128 0x1
 3955 0299 9542     		.uleb128 0x2115
 3956 029b 19       		.uleb128 0x19
 3957 029c 31       		.uleb128 0x31
 3958 029d 13       		.uleb128 0x13
 3959 029e 00       		.byte	0
 3960 029f 00       		.byte	0
 3961 02a0 35       		.uleb128 0x35
 3962 02a1 898201   		.uleb128 0x4109
 3963 02a4 01       		.byte	0x1
 3964 02a5 11       		.uleb128 0x11
 3965 02a6 01       		.uleb128 0x1
 3966 02a7 31       		.uleb128 0x31
 3967 02a8 13       		.uleb128 0x13
 3968 02a9 00       		.byte	0
 3969 02aa 00       		.byte	0
 3970 02ab 36       		.uleb128 0x36
 3971 02ac 34       		.uleb128 0x34
 3972 02ad 00       		.byte	0
 3973 02ae 03       		.uleb128 0x3
 3974 02af 08       		.uleb128 0x8
ARM GAS  /tmp/ccrXC91b.s 			page 71


 3975 02b0 3A       		.uleb128 0x3a
 3976 02b1 0B       		.uleb128 0xb
 3977 02b2 3B       		.uleb128 0x3b
 3978 02b3 0B       		.uleb128 0xb
 3979 02b4 49       		.uleb128 0x49
 3980 02b5 13       		.uleb128 0x13
 3981 02b6 02       		.uleb128 0x2
 3982 02b7 18       		.uleb128 0x18
 3983 02b8 00       		.byte	0
 3984 02b9 00       		.byte	0
 3985 02ba 37       		.uleb128 0x37
 3986 02bb 05       		.uleb128 0x5
 3987 02bc 00       		.byte	0
 3988 02bd 31       		.uleb128 0x31
 3989 02be 13       		.uleb128 0x13
 3990 02bf 02       		.uleb128 0x2
 3991 02c0 17       		.uleb128 0x17
 3992 02c1 00       		.byte	0
 3993 02c2 00       		.byte	0
 3994 02c3 38       		.uleb128 0x38
 3995 02c4 05       		.uleb128 0x5
 3996 02c5 00       		.byte	0
 3997 02c6 31       		.uleb128 0x31
 3998 02c7 13       		.uleb128 0x13
 3999 02c8 02       		.uleb128 0x2
 4000 02c9 18       		.uleb128 0x18
 4001 02ca 00       		.byte	0
 4002 02cb 00       		.byte	0
 4003 02cc 39       		.uleb128 0x39
 4004 02cd 1D       		.uleb128 0x1d
 4005 02ce 01       		.byte	0x1
 4006 02cf 31       		.uleb128 0x31
 4007 02d0 13       		.uleb128 0x13
 4008 02d1 52       		.uleb128 0x52
 4009 02d2 01       		.uleb128 0x1
 4010 02d3 55       		.uleb128 0x55
 4011 02d4 17       		.uleb128 0x17
 4012 02d5 58       		.uleb128 0x58
 4013 02d6 0B       		.uleb128 0xb
 4014 02d7 59       		.uleb128 0x59
 4015 02d8 0B       		.uleb128 0xb
 4016 02d9 01       		.uleb128 0x1
 4017 02da 13       		.uleb128 0x13
 4018 02db 00       		.byte	0
 4019 02dc 00       		.byte	0
 4020 02dd 3A       		.uleb128 0x3a
 4021 02de 0B       		.uleb128 0xb
 4022 02df 01       		.byte	0x1
 4023 02e0 55       		.uleb128 0x55
 4024 02e1 17       		.uleb128 0x17
 4025 02e2 00       		.byte	0
 4026 02e3 00       		.byte	0
 4027 02e4 3B       		.uleb128 0x3b
 4028 02e5 34       		.uleb128 0x34
 4029 02e6 00       		.byte	0
 4030 02e7 03       		.uleb128 0x3
 4031 02e8 0E       		.uleb128 0xe
ARM GAS  /tmp/ccrXC91b.s 			page 72


 4032 02e9 3A       		.uleb128 0x3a
 4033 02ea 0B       		.uleb128 0xb
 4034 02eb 3B       		.uleb128 0x3b
 4035 02ec 05       		.uleb128 0x5
 4036 02ed 49       		.uleb128 0x49
 4037 02ee 13       		.uleb128 0x13
 4038 02ef 3F       		.uleb128 0x3f
 4039 02f0 19       		.uleb128 0x19
 4040 02f1 3C       		.uleb128 0x3c
 4041 02f2 19       		.uleb128 0x19
 4042 02f3 00       		.byte	0
 4043 02f4 00       		.byte	0
 4044 02f5 3C       		.uleb128 0x3c
 4045 02f6 34       		.uleb128 0x34
 4046 02f7 00       		.byte	0
 4047 02f8 03       		.uleb128 0x3
 4048 02f9 08       		.uleb128 0x8
 4049 02fa 3A       		.uleb128 0x3a
 4050 02fb 0B       		.uleb128 0xb
 4051 02fc 3B       		.uleb128 0x3b
 4052 02fd 05       		.uleb128 0x5
 4053 02fe 49       		.uleb128 0x49
 4054 02ff 13       		.uleb128 0x13
 4055 0300 3F       		.uleb128 0x3f
 4056 0301 19       		.uleb128 0x19
 4057 0302 3C       		.uleb128 0x3c
 4058 0303 19       		.uleb128 0x19
 4059 0304 00       		.byte	0
 4060 0305 00       		.byte	0
 4061 0306 3D       		.uleb128 0x3d
 4062 0307 34       		.uleb128 0x34
 4063 0308 00       		.byte	0
 4064 0309 03       		.uleb128 0x3
 4065 030a 0E       		.uleb128 0xe
 4066 030b 3A       		.uleb128 0x3a
 4067 030c 0B       		.uleb128 0xb
 4068 030d 3B       		.uleb128 0x3b
 4069 030e 0B       		.uleb128 0xb
 4070 030f 49       		.uleb128 0x49
 4071 0310 13       		.uleb128 0x13
 4072 0311 3F       		.uleb128 0x3f
 4073 0312 19       		.uleb128 0x19
 4074 0313 02       		.uleb128 0x2
 4075 0314 18       		.uleb128 0x18
 4076 0315 00       		.byte	0
 4077 0316 00       		.byte	0
 4078 0317 3E       		.uleb128 0x3e
 4079 0318 2E       		.uleb128 0x2e
 4080 0319 00       		.byte	0
 4081 031a 3F       		.uleb128 0x3f
 4082 031b 19       		.uleb128 0x19
 4083 031c 03       		.uleb128 0x3
 4084 031d 0E       		.uleb128 0xe
 4085 031e 3A       		.uleb128 0x3a
 4086 031f 0B       		.uleb128 0xb
 4087 0320 3B       		.uleb128 0x3b
 4088 0321 05       		.uleb128 0x5
ARM GAS  /tmp/ccrXC91b.s 			page 73


 4089 0322 27       		.uleb128 0x27
 4090 0323 19       		.uleb128 0x19
 4091 0324 49       		.uleb128 0x49
 4092 0325 13       		.uleb128 0x13
 4093 0326 3C       		.uleb128 0x3c
 4094 0327 19       		.uleb128 0x19
 4095 0328 00       		.byte	0
 4096 0329 00       		.byte	0
 4097 032a 3F       		.uleb128 0x3f
 4098 032b 2E       		.uleb128 0x2e
 4099 032c 01       		.byte	0x1
 4100 032d 3F       		.uleb128 0x3f
 4101 032e 19       		.uleb128 0x19
 4102 032f 03       		.uleb128 0x3
 4103 0330 0E       		.uleb128 0xe
 4104 0331 3A       		.uleb128 0x3a
 4105 0332 0B       		.uleb128 0xb
 4106 0333 3B       		.uleb128 0x3b
 4107 0334 05       		.uleb128 0x5
 4108 0335 27       		.uleb128 0x27
 4109 0336 19       		.uleb128 0x19
 4110 0337 3C       		.uleb128 0x3c
 4111 0338 19       		.uleb128 0x19
 4112 0339 01       		.uleb128 0x1
 4113 033a 13       		.uleb128 0x13
 4114 033b 00       		.byte	0
 4115 033c 00       		.byte	0
 4116 033d 40       		.uleb128 0x40
 4117 033e 2E       		.uleb128 0x2e
 4118 033f 01       		.byte	0x1
 4119 0340 3F       		.uleb128 0x3f
 4120 0341 19       		.uleb128 0x19
 4121 0342 03       		.uleb128 0x3
 4122 0343 0E       		.uleb128 0xe
 4123 0344 3A       		.uleb128 0x3a
 4124 0345 0B       		.uleb128 0xb
 4125 0346 3B       		.uleb128 0x3b
 4126 0347 05       		.uleb128 0x5
 4127 0348 27       		.uleb128 0x27
 4128 0349 19       		.uleb128 0x19
 4129 034a 49       		.uleb128 0x49
 4130 034b 13       		.uleb128 0x13
 4131 034c 3C       		.uleb128 0x3c
 4132 034d 19       		.uleb128 0x19
 4133 034e 01       		.uleb128 0x1
 4134 034f 13       		.uleb128 0x13
 4135 0350 00       		.byte	0
 4136 0351 00       		.byte	0
 4137 0352 41       		.uleb128 0x41
 4138 0353 2E       		.uleb128 0x2e
 4139 0354 01       		.byte	0x1
 4140 0355 3F       		.uleb128 0x3f
 4141 0356 19       		.uleb128 0x19
 4142 0357 03       		.uleb128 0x3
 4143 0358 0E       		.uleb128 0xe
 4144 0359 3A       		.uleb128 0x3a
 4145 035a 0B       		.uleb128 0xb
ARM GAS  /tmp/ccrXC91b.s 			page 74


 4146 035b 3B       		.uleb128 0x3b
 4147 035c 0B       		.uleb128 0xb
 4148 035d 27       		.uleb128 0x27
 4149 035e 19       		.uleb128 0x19
 4150 035f 49       		.uleb128 0x49
 4151 0360 13       		.uleb128 0x13
 4152 0361 3C       		.uleb128 0x3c
 4153 0362 19       		.uleb128 0x19
 4154 0363 01       		.uleb128 0x1
 4155 0364 13       		.uleb128 0x13
 4156 0365 00       		.byte	0
 4157 0366 00       		.byte	0
 4158 0367 42       		.uleb128 0x42
 4159 0368 2E       		.uleb128 0x2e
 4160 0369 01       		.byte	0x1
 4161 036a 3F       		.uleb128 0x3f
 4162 036b 19       		.uleb128 0x19
 4163 036c 03       		.uleb128 0x3
 4164 036d 0E       		.uleb128 0xe
 4165 036e 3A       		.uleb128 0x3a
 4166 036f 0B       		.uleb128 0xb
 4167 0370 3B       		.uleb128 0x3b
 4168 0371 0B       		.uleb128 0xb
 4169 0372 27       		.uleb128 0x27
 4170 0373 19       		.uleb128 0x19
 4171 0374 3C       		.uleb128 0x3c
 4172 0375 19       		.uleb128 0x19
 4173 0376 01       		.uleb128 0x1
 4174 0377 13       		.uleb128 0x13
 4175 0378 00       		.byte	0
 4176 0379 00       		.byte	0
 4177 037a 43       		.uleb128 0x43
 4178 037b 2E       		.uleb128 0x2e
 4179 037c 01       		.byte	0x1
 4180 037d 3F       		.uleb128 0x3f
 4181 037e 19       		.uleb128 0x19
 4182 037f 03       		.uleb128 0x3
 4183 0380 0E       		.uleb128 0xe
 4184 0381 3A       		.uleb128 0x3a
 4185 0382 0B       		.uleb128 0xb
 4186 0383 3B       		.uleb128 0x3b
 4187 0384 0B       		.uleb128 0xb
 4188 0385 27       		.uleb128 0x27
 4189 0386 19       		.uleb128 0x19
 4190 0387 3C       		.uleb128 0x3c
 4191 0388 19       		.uleb128 0x19
 4192 0389 00       		.byte	0
 4193 038a 00       		.byte	0
 4194 038b 00       		.byte	0
 4195              		.section	.debug_loc,"",%progbits
 4196              	.Ldebug_loc0:
 4197              	.LLST0:
 4198 0000 00000000 		.4byte	.LVL3
 4199 0004 15000000 		.4byte	.LVL6-1
 4200 0008 0100     		.2byte	0x1
 4201 000a 50       		.byte	0x50
 4202 000b 15000000 		.4byte	.LVL6-1
ARM GAS  /tmp/ccrXC91b.s 			page 75


 4203 000f 20000000 		.4byte	.LFE241
 4204 0013 0400     		.2byte	0x4
 4205 0015 F3       		.byte	0xf3
 4206 0016 01       		.uleb128 0x1
 4207 0017 50       		.byte	0x50
 4208 0018 9F       		.byte	0x9f
 4209 0019 00000000 		.4byte	0
 4210 001d 00000000 		.4byte	0
 4211              	.LLST1:
 4212 0021 16000000 		.4byte	.LVL6
 4213 0025 19000000 		.4byte	.LVL7-1
 4214 0029 0100     		.2byte	0x1
 4215 002b 50       		.byte	0x50
 4216 002c 00000000 		.4byte	0
 4217 0030 00000000 		.4byte	0
 4218              	.LLST2:
 4219 0034 0E000000 		.4byte	.LVL9
 4220 0038 1C000000 		.4byte	.LVL10
 4221 003c 0100     		.2byte	0x1
 4222 003e 50       		.byte	0x50
 4223 003f 30000000 		.4byte	.LVL13
 4224 0043 3C000000 		.4byte	.LVL14
 4225 0047 0100     		.2byte	0x1
 4226 0049 50       		.byte	0x50
 4227 004a 50000000 		.4byte	.LVL17
 4228 004e 5C000000 		.4byte	.LVL18
 4229 0052 0100     		.2byte	0x1
 4230 0054 50       		.byte	0x50
 4231 0055 00000000 		.4byte	0
 4232 0059 00000000 		.4byte	0
 4233              	.LLST3:
 4234 005d 70000000 		.4byte	.LVL21
 4235 0061 7C000000 		.4byte	.LVL22
 4236 0065 0100     		.2byte	0x1
 4237 0067 50       		.byte	0x50
 4238 0068 00000000 		.4byte	0
 4239 006c 00000000 		.4byte	0
 4240              	.LLST4:
 4241 0070 08000000 		.4byte	.LVL24
 4242 0074 0B000000 		.4byte	.LVL25-1
 4243 0078 0100     		.2byte	0x1
 4244 007a 50       		.byte	0x50
 4245 007b 16000000 		.4byte	.LVL26
 4246 007f 19000000 		.4byte	.LVL27-1
 4247 0083 0100     		.2byte	0x1
 4248 0085 50       		.byte	0x50
 4249 0086 00000000 		.4byte	0
 4250 008a 00000000 		.4byte	0
 4251              	.LLST5:
 4252 008e 24000000 		.4byte	.LVL28
 4253 0092 2E000000 		.4byte	.LVL31
 4254 0096 0100     		.2byte	0x1
 4255 0098 53       		.byte	0x53
 4256 0099 00000000 		.4byte	0
 4257 009d 00000000 		.4byte	0
 4258              	.LLST6:
 4259 00a1 26000000 		.4byte	.LVL29
ARM GAS  /tmp/ccrXC91b.s 			page 76


 4260 00a5 2A000000 		.4byte	.LVL30
 4261 00a9 0300     		.2byte	0x3
 4262 00ab 08       		.byte	0x8
 4263 00ac 20       		.byte	0x20
 4264 00ad 9F       		.byte	0x9f
 4265 00ae 00000000 		.4byte	0
 4266 00b2 00000000 		.4byte	0
 4267              	.LLST7:
 4268 00b6 2E000000 		.4byte	.LVL31
 4269 00ba 32000000 		.4byte	.LVL33
 4270 00be 0100     		.2byte	0x1
 4271 00c0 53       		.byte	0x53
 4272 00c1 00000000 		.4byte	0
 4273 00c5 00000000 		.4byte	0
 4274              	.LLST8:
 4275 00c9 30000000 		.4byte	.LVL32
 4276 00cd 36000000 		.4byte	.LVL34
 4277 00d1 0300     		.2byte	0x3
 4278 00d3 08       		.byte	0x8
 4279 00d4 20       		.byte	0x20
 4280 00d5 9F       		.byte	0x9f
 4281 00d6 00000000 		.4byte	0
 4282 00da 00000000 		.4byte	0
 4283              	.LLST9:
 4284 00de 46000000 		.4byte	.LVL36
 4285 00e2 6D000000 		.4byte	.LVL46-1
 4286 00e6 0100     		.2byte	0x1
 4287 00e8 52       		.byte	0x52
 4288 00e9 00000000 		.4byte	0
 4289 00ed 00000000 		.4byte	0
 4290              	.LLST10:
 4291 00f1 48000000 		.4byte	.LVL37
 4292 00f5 4C000000 		.4byte	.LVL38
 4293 00f9 0200     		.2byte	0x2
 4294 00fb 30       		.byte	0x30
 4295 00fc 9F       		.byte	0x9f
 4296 00fd 00000000 		.4byte	0
 4297 0101 00000000 		.4byte	0
 4298              	.LLST11:
 4299 0105 50000000 		.4byte	.LVL39
 4300 0109 54000000 		.4byte	.LVL41
 4301 010d 0100     		.2byte	0x1
 4302 010f 53       		.byte	0x53
 4303 0110 00000000 		.4byte	0
 4304 0114 00000000 		.4byte	0
 4305              	.LLST12:
 4306 0118 52000000 		.4byte	.LVL40
 4307 011c 58000000 		.4byte	.LVL42
 4308 0120 0200     		.2byte	0x2
 4309 0122 30       		.byte	0x30
 4310 0123 9F       		.byte	0x9f
 4311 0124 00000000 		.4byte	0
 4312 0128 00000000 		.4byte	0
 4313              	.LLST13:
 4314 012c 58000000 		.4byte	.LVL42
 4315 0130 66000000 		.4byte	.LVL45
 4316 0134 0300     		.2byte	0x3
ARM GAS  /tmp/ccrXC91b.s 			page 77


 4317 0136 91       		.byte	0x91
 4318 0137 64       		.sleb128 -28
 4319 0138 9F       		.byte	0x9f
 4320 0139 66000000 		.4byte	.LVL45
 4321 013d 7C000000 		.4byte	.LVL48
 4322 0141 0100     		.2byte	0x1
 4323 0143 54       		.byte	0x54
 4324 0144 7C000000 		.4byte	.LVL48
 4325 0148 A2000000 		.4byte	.LVL52
 4326 014c 0300     		.2byte	0x3
 4327 014e 91       		.byte	0x91
 4328 014f 64       		.sleb128 -28
 4329 0150 9F       		.byte	0x9f
 4330 0151 A2000000 		.4byte	.LVL52
 4331 0155 A8000000 		.4byte	.LFE242
 4332 0159 0300     		.2byte	0x3
 4333 015b 7D       		.byte	0x7d
 4334 015c 64       		.sleb128 -28
 4335 015d 9F       		.byte	0x9f
 4336 015e 00000000 		.4byte	0
 4337 0162 00000000 		.4byte	0
 4338              	.LLST14:
 4339 0166 5C000000 		.4byte	.LVL43
 4340 016a 66000000 		.4byte	.LVL45
 4341 016e 0300     		.2byte	0x3
 4342 0170 91       		.byte	0x91
 4343 0171 64       		.sleb128 -28
 4344 0172 9F       		.byte	0x9f
 4345 0173 66000000 		.4byte	.LVL45
 4346 0177 7C000000 		.4byte	.LVL48
 4347 017b 0100     		.2byte	0x1
 4348 017d 54       		.byte	0x54
 4349 017e 7C000000 		.4byte	.LVL48
 4350 0182 A2000000 		.4byte	.LVL52
 4351 0186 0300     		.2byte	0x3
 4352 0188 91       		.byte	0x91
 4353 0189 64       		.sleb128 -28
 4354 018a 9F       		.byte	0x9f
 4355 018b A2000000 		.4byte	.LVL52
 4356 018f A8000000 		.4byte	.LFE242
 4357 0193 0300     		.2byte	0x3
 4358 0195 7D       		.byte	0x7d
 4359 0196 64       		.sleb128 -28
 4360 0197 9F       		.byte	0x9f
 4361 0198 00000000 		.4byte	0
 4362 019c 00000000 		.4byte	0
 4363              	.LLST15:
 4364 01a0 62000000 		.4byte	.LVL44
 4365 01a4 66000000 		.4byte	.LVL45
 4366 01a8 0300     		.2byte	0x3
 4367 01aa 91       		.byte	0x91
 4368 01ab 64       		.sleb128 -28
 4369 01ac 9F       		.byte	0x9f
 4370 01ad 66000000 		.4byte	.LVL45
 4371 01b1 7C000000 		.4byte	.LVL48
 4372 01b5 0100     		.2byte	0x1
 4373 01b7 54       		.byte	0x54
ARM GAS  /tmp/ccrXC91b.s 			page 78


 4374 01b8 7C000000 		.4byte	.LVL48
 4375 01bc A2000000 		.4byte	.LVL52
 4376 01c0 0300     		.2byte	0x3
 4377 01c2 91       		.byte	0x91
 4378 01c3 64       		.sleb128 -28
 4379 01c4 9F       		.byte	0x9f
 4380 01c5 A2000000 		.4byte	.LVL52
 4381 01c9 A8000000 		.4byte	.LFE242
 4382 01cd 0300     		.2byte	0x3
 4383 01cf 7D       		.byte	0x7d
 4384 01d0 64       		.sleb128 -28
 4385 01d1 9F       		.byte	0x9f
 4386 01d2 00000000 		.4byte	0
 4387 01d6 00000000 		.4byte	0
 4388              	.LLST17:
 4389 01da 86000000 		.4byte	.LVL49
 4390 01de A2000000 		.4byte	.LVL52
 4391 01e2 0300     		.2byte	0x3
 4392 01e4 91       		.byte	0x91
 4393 01e5 64       		.sleb128 -28
 4394 01e6 9F       		.byte	0x9f
 4395 01e7 A2000000 		.4byte	.LVL52
 4396 01eb A8000000 		.4byte	.LFE242
 4397 01ef 0300     		.2byte	0x3
 4398 01f1 7D       		.byte	0x7d
 4399 01f2 64       		.sleb128 -28
 4400 01f3 9F       		.byte	0x9f
 4401 01f4 00000000 		.4byte	0
 4402 01f8 00000000 		.4byte	0
 4403              		.section	.debug_aranges,"",%progbits
 4404 0000 34000000 		.4byte	0x34
 4405 0004 0200     		.2byte	0x2
 4406 0006 00000000 		.4byte	.Ldebug_info0
 4407 000a 04       		.byte	0x4
 4408 000b 00       		.byte	0
 4409 000c 0000     		.2byte	0
 4410 000e 0000     		.2byte	0
 4411 0010 00000000 		.4byte	.LFB243
 4412 0014 1A000000 		.4byte	.LFE243-.LFB243
 4413 0018 00000000 		.4byte	.LFB241
 4414 001c 20000000 		.4byte	.LFE241-.LFB241
 4415 0020 00000000 		.4byte	.LFB244
 4416 0024 84000000 		.4byte	.LFE244-.LFB244
 4417 0028 00000000 		.4byte	.LFB242
 4418 002c A8000000 		.4byte	.LFE242-.LFB242
 4419 0030 00000000 		.4byte	0
 4420 0034 00000000 		.4byte	0
 4421              		.section	.debug_ranges,"",%progbits
 4422              	.Ldebug_ranges0:
 4423 0000 66000000 		.4byte	.LBB459
 4424 0004 7C000000 		.4byte	.LBE459
 4425 0008 80000000 		.4byte	.LBB469
 4426 000c 84000000 		.4byte	.LBE469
 4427 0010 00000000 		.4byte	0
 4428 0014 00000000 		.4byte	0
 4429 0018 86000000 		.4byte	.LBB637
 4430 001c 8C000000 		.4byte	.LBE637
ARM GAS  /tmp/ccrXC91b.s 			page 79


 4431 0020 8E000000 		.4byte	.LBB649
 4432 0024 92000000 		.4byte	.LBE649
 4433 0028 00000000 		.4byte	0
 4434 002c 00000000 		.4byte	0
 4435 0030 00000000 		.4byte	.LFB243
 4436 0034 1A000000 		.4byte	.LFE243
 4437 0038 00000000 		.4byte	.LFB241
 4438 003c 20000000 		.4byte	.LFE241
 4439 0040 00000000 		.4byte	.LFB244
 4440 0044 84000000 		.4byte	.LFE244
 4441 0048 00000000 		.4byte	.LFB242
 4442 004c A8000000 		.4byte	.LFE242
 4443 0050 00000000 		.4byte	0
 4444 0054 00000000 		.4byte	0
 4445              		.section	.debug_line,"",%progbits
 4446              	.Ldebug_line0:
 4447 0000 4D040000 		.section	.debug_str,"MS",%progbits,1
 4447      0200E802 
 4447      00000201 
 4447      FB0E0D00 
 4447      01010101 
 4448              	.LASF22:
 4449 0000 74726566 		.ascii	"trefs_t\000"
 4449      735F7400 
 4450              	.LASF51:
 4451 0008 72656164 		.ascii	"ready_list_t\000"
 4451      795F6C69 
 4451      73745F74 
 4451      00
 4452              	.LASF2:
 4453 0015 73697A65 		.ascii	"size_t\000"
 4453      5F7400
 4454              	.LASF144:
 4455 001c 76746362 		.ascii	"vtcb\000"
 4455      00
 4456              	.LASF17:
 4457 0021 75696E74 		.ascii	"uint64_t\000"
 4457      36345F74 
 4457      00
 4458              	.LASF25:
 4459 002a 6576656E 		.ascii	"eventmask_t\000"
 4459      746D6173 
 4459      6B5F7400 
 4460              	.LASF3:
 4461 0036 5F5F7569 		.ascii	"__uint8_t\000"
 4461      6E74385F 
 4461      7400
 4462              	.LASF83:
 4463 0040 706F7274 		.ascii	"port_intctx\000"
 4463      5F696E74 
 4463      63747800 
 4464              	.LASF70:
 4465 004c 73797374 		.ascii	"system_debug_t\000"
 4465      656D5F64 
 4465      65627567 
 4465      5F7400
 4466              	.LASF108:
ARM GAS  /tmp/ccrXC91b.s 			page 80


 4467 005b 706F7274 		.ascii	"port_lock\000"
 4467      5F6C6F63 
 4467      6B00
 4468              	.LASF13:
 4469 0065 6C6F6E67 		.ascii	"long long unsigned int\000"
 4469      206C6F6E 
 4469      6720756E 
 4469      7369676E 
 4469      65642069 
 4470              	.LASF154:
 4471 007c 63685654 		.ascii	"chVTDoResetI\000"
 4471      446F5265 
 4471      73657449 
 4471      00
 4472              	.LASF87:
 4473 0089 65786974 		.ascii	"exitcode\000"
 4473      636F6465 
 4473      00
 4474              	.LASF77:
 4475 0092 6D61696E 		.ascii	"mainthread\000"
 4475      74687265 
 4475      616400
 4476              	.LASF90:
 4477 009d 73656E74 		.ascii	"sentmsg\000"
 4477      6D736700 
 4478              	.LASF67:
 4479 00a5 76697274 		.ascii	"virtual_timers_list_t\000"
 4479      75616C5F 
 4479      74696D65 
 4479      72735F6C 
 4479      6973745F 
 4480              	.LASF146:
 4481 00bb 49544D5F 		.ascii	"ITM_RxBuffer\000"
 4481      52784275 
 4481      66666572 
 4481      00
 4482              	.LASF50:
 4483 00c8 63685F74 		.ascii	"ch_threads_queue\000"
 4483      68726561 
 4483      64735F71 
 4483      75657565 
 4483      00
 4484              	.LASF31:
 4485 00d9 705F7072 		.ascii	"p_prio\000"
 4485      696F00
 4486              	.LASF141:
 4487 00e0 73797333 		.ascii	"sys3_execute\000"
 4487      5F657865 
 4487      63757465 
 4487      00
 4488              	.LASF11:
 4489 00ed 6C6F6E67 		.ascii	"long long int\000"
 4489      206C6F6E 
 4489      6720696E 
 4489      7400
 4490              	.LASF1:
 4491 00fb 7369676E 		.ascii	"signed char\000"
ARM GAS  /tmp/ccrXC91b.s 			page 81


 4491      65642063 
 4491      68617200 
 4492              	.LASF44:
 4493 0107 705F6D70 		.ascii	"p_mpool\000"
 4493      6F6F6C00 
 4494              	.LASF98:
 4495 010f 6D5F7175 		.ascii	"m_queue\000"
 4495      65756500 
 4496              	.LASF136:
 4497 0117 63685379 		.ascii	"chSysUnconditionalUnlock\000"
 4497      73556E63 
 4497      6F6E6469 
 4497      74696F6E 
 4497      616C556E 
 4498              	.LASF76:
 4499 0130 76746C69 		.ascii	"vtlist\000"
 4499      737400
 4500              	.LASF109:
 4501 0137 706F7274 		.ascii	"port_unlock\000"
 4501      5F756E6C 
 4501      6F636B00 
 4502              	.LASF89:
 4503 0143 77747472 		.ascii	"wttrp\000"
 4503      7000
 4504              	.LASF74:
 4505 0149 63685F73 		.ascii	"ch_system\000"
 4505      79737465 
 4505      6D00
 4506              	.LASF8:
 4507 0153 6C6F6E67 		.ascii	"long int\000"
 4507      20696E74 
 4507      00
 4508              	.LASF112:
 4509 015c 706F7274 		.ascii	"port_disable\000"
 4509      5F646973 
 4509      61626C65 
 4509      00
 4510              	.LASF21:
 4511 0169 74737461 		.ascii	"tstate_t\000"
 4511      74655F74 
 4511      00
 4512              	.LASF157:
 4513 0172 2E2E2F43 		.ascii	"../ChibiOS/test/rt/testsys.c\000"
 4513      68696269 
 4513      4F532F74 
 4513      6573742F 
 4513      72742F74 
 4514              	.LASF117:
 4515 018f 5F5F6765 		.ascii	"__get_BASEPRI\000"
 4515      745F4241 
 4515      53455052 
 4515      4900
 4516              	.LASF131:
 4517 019d 63685379 		.ascii	"chSysEnable\000"
 4517      73456E61 
 4517      626C6500 
 4518              	.LASF150:
ARM GAS  /tmp/ccrXC91b.s 			page 82


 4519 01a9 70617474 		.ascii	"patternsys\000"
 4519      65726E73 
 4519      797300
 4520              	.LASF33:
 4521 01b4 705F6E65 		.ascii	"p_newer\000"
 4521      77657200 
 4522              	.LASF95:
 4523 01bc 735F7175 		.ascii	"s_queue\000"
 4523      65756500 
 4524              	.LASF19:
 4525 01c4 73797373 		.ascii	"syssts_t\000"
 4525      74735F74 
 4525      00
 4526              	.LASF56:
 4527 01cd 725F6E65 		.ascii	"r_newer\000"
 4527      77657200 
 4528              	.LASF80:
 4529 01d5 72656761 		.ascii	"regarm_t\000"
 4529      726D5F74 
 4529      00
 4530              	.LASF63:
 4531 01de 76745F70 		.ascii	"vt_prev\000"
 4531      72657600 
 4532              	.LASF102:
 4533 01e6 6D757465 		.ascii	"mutex_t\000"
 4533      785F7400 
 4534              	.LASF121:
 4535 01ee 76616C75 		.ascii	"value\000"
 4535      6500
 4536              	.LASF78:
 4537 01f4 69646C65 		.ascii	"idle_thread_wa\000"
 4537      5F746872 
 4537      6561645F 
 4537      776100
 4538              	.LASF26:
 4539 0203 636E745F 		.ascii	"cnt_t\000"
 4539      7400
 4540              	.LASF0:
 4541 0209 756E7369 		.ascii	"unsigned int\000"
 4541      676E6564 
 4541      20696E74 
 4541      00
 4542              	.LASF62:
 4543 0216 76745F6E 		.ascii	"vt_next\000"
 4543      65787400 
 4544              	.LASF91:
 4545 021e 77747365 		.ascii	"wtsemp\000"
 4545      6D7000
 4546              	.LASF64:
 4547 0225 76745F64 		.ascii	"vt_delta\000"
 4547      656C7461 
 4547      00
 4548              	.LASF40:
 4549 022e 705F6D73 		.ascii	"p_msgqueue\000"
 4549      67717565 
 4549      756500
 4550              	.LASF118:
ARM GAS  /tmp/ccrXC91b.s 			page 83


 4551 0239 706F7274 		.ascii	"port_get_irq_status\000"
 4551      5F676574 
 4551      5F697271 
 4551      5F737461 
 4551      74757300 
 4552              	.LASF106:
 4553 024d 74656172 		.ascii	"teardown\000"
 4553      646F776E 
 4553      00
 4554              	.LASF52:
 4555 0256 63685F72 		.ascii	"ch_ready_list\000"
 4555      65616479 
 4555      5F6C6973 
 4555      7400
 4556              	.LASF104:
 4557 0264 6E616D65 		.ascii	"name\000"
 4557      00
 4558              	.LASF130:
 4559 0269 63685379 		.ascii	"chSysDisable\000"
 4559      73446973 
 4559      61626C65 
 4559      00
 4560              	.LASF96:
 4561 0276 735F636E 		.ascii	"s_cnt\000"
 4561      7400
 4562              	.LASF6:
 4563 027c 73686F72 		.ascii	"short unsigned int\000"
 4563      7420756E 
 4563      7369676E 
 4563      65642069 
 4563      6E7400
 4564              	.LASF47:
 4565 028f 63685F74 		.ascii	"ch_thread\000"
 4565      68726561 
 4565      6400
 4566              	.LASF24:
 4567 0299 6D73675F 		.ascii	"msg_t\000"
 4567      7400
 4568              	.LASF113:
 4569 029f 706F7274 		.ascii	"port_suspend\000"
 4569      5F737573 
 4569      70656E64 
 4569      00
 4570              	.LASF88:
 4571 02ac 77746F62 		.ascii	"wtobjp\000"
 4571      6A7000
 4572              	.LASF42:
 4573 02b3 705F6D74 		.ascii	"p_mtxlist\000"
 4573      786C6973 
 4573      7400
 4574              	.LASF155:
 4575 02bd 63685654 		.ascii	"chVTDoSetI\000"
 4575      446F5365 
 4575      744900
 4576              	.LASF114:
 4577 02c8 706F7274 		.ascii	"port_enable\000"
 4577      5F656E61 
ARM GAS  /tmp/ccrXC91b.s 			page 84


 4577      626C6500 
 4578              	.LASF7:
 4579 02d4 5F5F696E 		.ascii	"__int32_t\000"
 4579      7433325F 
 4579      7400
 4580              	.LASF127:
 4581 02de 63685654 		.ascii	"chVTObjectInit\000"
 4581      4F626A65 
 4581      6374496E 
 4581      697400
 4582              	.LASF81:
 4583 02ed 73746B61 		.ascii	"stkalign_t\000"
 4583      6C69676E 
 4583      5F7400
 4584              	.LASF39:
 4585 02f8 705F7761 		.ascii	"p_waiting\000"
 4585      6974696E 
 4585      6700
 4586              	.LASF79:
 4587 0302 73697A65 		.ascii	"sizetype\000"
 4587      74797065 
 4587      00
 4588              	.LASF45:
 4589 030b 74687265 		.ascii	"thread_reference_t\000"
 4589      61645F72 
 4589      65666572 
 4589      656E6365 
 4589      5F7400
 4590              	.LASF68:
 4591 031e 63685F76 		.ascii	"ch_virtual_timers_list\000"
 4591      69727475 
 4591      616C5F74 
 4591      696D6572 
 4591      735F6C69 
 4592              	.LASF147:
 4593 0335 74657374 		.ascii	"testsys1\000"
 4593      73797331 
 4593      00
 4594              	.LASF148:
 4595 033e 74657374 		.ascii	"testsys2\000"
 4595      73797332 
 4595      00
 4596              	.LASF149:
 4597 0347 74657374 		.ascii	"testsys3\000"
 4597      73797333 
 4597      00
 4598              	.LASF53:
 4599 0350 725F7175 		.ascii	"r_queue\000"
 4599      65756500 
 4600              	.LASF69:
 4601 0358 76745F6C 		.ascii	"vt_lasttime\000"
 4601      61737474 
 4601      696D6500 
 4602              	.LASF142:
 4603 0364 63685654 		.ascii	"chVTSetI\000"
 4603      53657449 
 4603      00
ARM GAS  /tmp/ccrXC91b.s 			page 85


 4604              	.LASF34:
 4605 036d 705F6F6C 		.ascii	"p_older\000"
 4605      64657200 
 4606              	.LASF55:
 4607 0375 725F6374 		.ascii	"r_ctx\000"
 4607      7800
 4608              	.LASF120:
 4609 037b 706F7274 		.ascii	"port_irq_enabled\000"
 4609      5F697271 
 4609      5F656E61 
 4609      626C6564 
 4609      00
 4610              	.LASF137:
 4611 038c 63685654 		.ascii	"chVTSet\000"
 4611      53657400 
 4612              	.LASF129:
 4613 0394 63685379 		.ascii	"chSysSuspend\000"
 4613      73537573 
 4613      70656E64 
 4613      00
 4614              	.LASF85:
 4615 03a1 746D5F63 		.ascii	"tm_calibration_t\000"
 4615      616C6962 
 4615      72617469 
 4615      6F6E5F74 
 4615      00
 4616              	.LASF105:
 4617 03b2 73657475 		.ascii	"setup\000"
 4617      7000
 4618              	.LASF58:
 4619 03b8 725F6375 		.ascii	"r_current\000"
 4619      7272656E 
 4619      7400
 4620              	.LASF57:
 4621 03c2 725F6F6C 		.ascii	"r_older\000"
 4621      64657200 
 4622              	.LASF111:
 4623 03ca 5F5F656E 		.ascii	"__enable_irq\000"
 4623      61626C65 
 4623      5F697271 
 4623      00
 4624              	.LASF12:
 4625 03d7 5F5F7569 		.ascii	"__uint64_t\000"
 4625      6E743634 
 4625      5F7400
 4626              	.LASF110:
 4627 03e2 5F5F6469 		.ascii	"__disable_irq\000"
 4627      7361626C 
 4627      655F6972 
 4627      7100
 4628              	.LASF60:
 4629 03f0 76697274 		.ascii	"virtual_timer_t\000"
 4629      75616C5F 
 4629      74696D65 
 4629      725F7400 
 4630              	.LASF30:
 4631 0400 705F7072 		.ascii	"p_prev\000"
ARM GAS  /tmp/ccrXC91b.s 			page 86


 4631      657600
 4632              	.LASF107:
 4633 0407 65786563 		.ascii	"execute\000"
 4633      75746500 
 4634              	.LASF23:
 4635 040f 74707269 		.ascii	"tprio_t\000"
 4635      6F5F7400 
 4636              	.LASF133:
 4637 0417 63685379 		.ascii	"chSysUnlockFromISR\000"
 4637      73556E6C 
 4637      6F636B46 
 4637      726F6D49 
 4637      535200
 4638              	.LASF71:
 4639 042a 63685F73 		.ascii	"ch_system_debug\000"
 4639      79737465 
 4639      6D5F6465 
 4639      62756700 
 4640              	.LASF122:
 4641 043a 5F426F6F 		.ascii	"_Bool\000"
 4641      6C00
 4642              	.LASF15:
 4643 0440 696E7433 		.ascii	"int32_t\000"
 4643      325F7400 
 4644              	.LASF4:
 4645 0448 756E7369 		.ascii	"unsigned char\000"
 4645      676E6564 
 4645      20636861 
 4645      7200
 4646              	.LASF138:
 4647 0456 64656C61 		.ascii	"delay\000"
 4647      7900
 4648              	.LASF36:
 4649 045c 705F7374 		.ascii	"p_state\000"
 4649      61746500 
 4650              	.LASF5:
 4651 0464 73686F72 		.ascii	"short int\000"
 4651      7420696E 
 4651      7400
 4652              	.LASF54:
 4653 046e 725F7072 		.ascii	"r_prio\000"
 4653      696F00
 4654              	.LASF93:
 4655 0475 65776D61 		.ascii	"ewmask\000"
 4655      736B00
 4656              	.LASF29:
 4657 047c 705F6E65 		.ascii	"p_next\000"
 4657      787400
 4658              	.LASF135:
 4659 0483 63685379 		.ascii	"chSysUnconditionalLock\000"
 4659      73556E63 
 4659      6F6E6469 
 4659      74696F6E 
 4659      616C4C6F 
 4660              	.LASF37:
 4661 049a 705F666C 		.ascii	"p_flags\000"
 4661      61677300 
ARM GAS  /tmp/ccrXC91b.s 			page 87


 4662              	.LASF126:
 4663 04a2 5F5F6675 		.ascii	"__func__\000"
 4663      6E635F5F 
 4663      00
 4664              	.LASF123:
 4665 04ab 63685379 		.ascii	"chSysLock\000"
 4665      734C6F63 
 4665      6B00
 4666              	.LASF128:
 4667 04b5 63685654 		.ascii	"chVTIsArmedI\000"
 4667      49734172 
 4667      6D656449 
 4667      00
 4668              	.LASF86:
 4669 04c2 7264796D 		.ascii	"rdymsg\000"
 4669      736700
 4670              	.LASF61:
 4671 04c9 63685F76 		.ascii	"ch_virtual_timer\000"
 4671      69727475 
 4671      616C5F74 
 4671      696D6572 
 4671      00
 4672              	.LASF134:
 4673 04da 63685654 		.ascii	"chVTResetI\000"
 4673      52657365 
 4673      744900
 4674              	.LASF103:
 4675 04e5 74657374 		.ascii	"testcase\000"
 4675      63617365 
 4675      00
 4676              	.LASF94:
 4677 04ee 63685F73 		.ascii	"ch_semaphore\000"
 4677      656D6170 
 4677      686F7265 
 4677      00
 4678              	.LASF41:
 4679 04fb 705F6570 		.ascii	"p_epending\000"
 4679      656E6469 
 4679      6E6700
 4680              	.LASF160:
 4681 0506 63685468 		.ascii	"chThdSleep\000"
 4681      64536C65 
 4681      657000
 4682              	.LASF16:
 4683 0511 75696E74 		.ascii	"uint32_t\000"
 4683      33325F74 
 4683      00
 4684              	.LASF92:
 4685 051a 77746D74 		.ascii	"wtmtxp\000"
 4685      787000
 4686              	.LASF158:
 4687 0521 2F6E6673 		.ascii	"/nfs/nfs4/home/cojthack/442FinalProject/milestone3\000"
 4687      2F6E6673 
 4687      342F686F 
 4687      6D652F63 
 4687      6F6A7468 
 4688              	.LASF153:
ARM GAS  /tmp/ccrXC91b.s 			page 88


 4689 0554 63685379 		.ascii	"chSysRestoreStatusX\000"
 4689      73526573 
 4689      746F7265 
 4689      53746174 
 4689      75735800 
 4690              	.LASF48:
 4691 0568 63685F74 		.ascii	"ch_threads_list\000"
 4691      68726561 
 4691      64735F6C 
 4691      69737400 
 4692              	.LASF159:
 4693 0578 63685379 		.ascii	"chSysGetStatusAndLockX\000"
 4693      73476574 
 4693      53746174 
 4693      7573416E 
 4693      644C6F63 
 4694              	.LASF10:
 4695 058f 6C6F6E67 		.ascii	"long unsigned int\000"
 4695      20756E73 
 4695      69676E65 
 4695      6420696E 
 4695      7400
 4696              	.LASF101:
 4697 05a1 63686172 		.ascii	"char\000"
 4697      00
 4698              	.LASF116:
 4699 05a6 706F7274 		.ascii	"port_unlock_from_isr\000"
 4699      5F756E6C 
 4699      6F636B5F 
 4699      66726F6D 
 4699      5F697372 
 4700              	.LASF28:
 4701 05bb 74687265 		.ascii	"thread_t\000"
 4701      61645F74 
 4701      00
 4702              	.LASF156:
 4703 05c4 474E5520 		.ascii	"GNU C 4.8.4 20140526 (release) [ARM/embedded-4_8-br"
 4703      4320342E 
 4703      382E3420 
 4703      32303134 
 4703      30353236 
 4704 05f7 616E6368 		.ascii	"anch revision 211358] -mcpu=cortex-m4 -mno-thumb-in"
 4704      20726576 
 4704      6973696F 
 4704      6E203231 
 4704      31333538 
 4705 062a 74657277 		.ascii	"terwork -mthumb -ggdb -O2 -fomit-frame-pointer -fal"
 4705      6F726B20 
 4705      2D6D7468 
 4705      756D6220 
 4705      2D676764 
 4706 065d 69676E2D 		.ascii	"ign-functions=16 -ffunction-sections -fdata-section"
 4706      66756E63 
 4706      74696F6E 
 4706      733D3136 
 4706      202D6666 
 4707 0690 73202D66 		.ascii	"s -fno-common\000"
ARM GAS  /tmp/ccrXC91b.s 			page 89


 4707      6E6F2D63 
 4707      6F6D6D6F 
 4707      6E00
 4708              	.LASF100:
 4709 069e 6D5F6E65 		.ascii	"m_next\000"
 4709      787400
 4710              	.LASF27:
 4711 06a5 73797374 		.ascii	"systime_t\000"
 4711      696D655F 
 4711      7400
 4712              	.LASF43:
 4713 06af 705F7265 		.ascii	"p_realprio\000"
 4713      616C7072 
 4713      696F00
 4714              	.LASF59:
 4715 06ba 76746675 		.ascii	"vtfunc_t\000"
 4715      6E635F74 
 4715      00
 4716              	.LASF9:
 4717 06c3 5F5F7569 		.ascii	"__uint32_t\000"
 4717      6E743332 
 4717      5F7400
 4718              	.LASF124:
 4719 06ce 5F5F7365 		.ascii	"__set_BASEPRI\000"
 4719      745F4241 
 4719      53455052 
 4719      4900
 4720              	.LASF72:
 4721 06dc 70616E69 		.ascii	"panic_msg\000"
 4721      635F6D73 
 4721      6700
 4722              	.LASF84:
 4723 06e6 6F666673 		.ascii	"offset\000"
 4723      657400
 4724              	.LASF82:
 4725 06ed 636F6E74 		.ascii	"context\000"
 4725      65787400 
 4726              	.LASF73:
 4727 06f5 63685F73 		.ascii	"ch_system_t\000"
 4727      79737465 
 4727      6D5F7400 
 4728              	.LASF145:
 4729 0701 73797331 		.ascii	"sys1_execute\000"
 4729      5F657865 
 4729      63757465 
 4729      00
 4730              	.LASF18:
 4731 070e 7274636E 		.ascii	"rtcnt_t\000"
 4731      745F7400 
 4732              	.LASF115:
 4733 0716 706F7274 		.ascii	"port_lock_from_isr\000"
 4733      5F6C6F63 
 4733      6B5F6672 
 4733      6F6D5F69 
 4733      737200
 4734              	.LASF66:
 4735 0729 76745F70 		.ascii	"vt_par\000"
ARM GAS  /tmp/ccrXC91b.s 			page 90


 4735      617200
 4736              	.LASF139:
 4737 0730 76746675 		.ascii	"vtfunc\000"
 4737      6E6300
 4738              	.LASF49:
 4739 0737 74687265 		.ascii	"threads_queue_t\000"
 4739      6164735F 
 4739      71756575 
 4739      655F7400 
 4740              	.LASF97:
 4741 0747 63685F6D 		.ascii	"ch_mutex\000"
 4741      75746578 
 4741      00
 4742              	.LASF38:
 4743 0750 705F7265 		.ascii	"p_refs\000"
 4743      667300
 4744              	.LASF75:
 4745 0757 726C6973 		.ascii	"rlist\000"
 4745      7400
 4746              	.LASF140:
 4747 075d 63685654 		.ascii	"chVTIsArmed\000"
 4747      49734172 
 4747      6D656400 
 4748              	.LASF14:
 4749 0769 75696E74 		.ascii	"uint8_t\000"
 4749      385F7400 
 4750              	.LASF132:
 4751 0771 63685379 		.ascii	"chSysLockFromISR\000"
 4751      734C6F63 
 4751      6B46726F 
 4751      6D495352 
 4751      00
 4752              	.LASF35:
 4753 0782 705F6E61 		.ascii	"p_name\000"
 4753      6D6500
 4754              	.LASF152:
 4755 0789 5F746573 		.ascii	"_test_assert\000"
 4755      745F6173 
 4755      73657274 
 4755      00
 4756              	.LASF46:
 4757 0796 74687265 		.ascii	"threads_list_t\000"
 4757      6164735F 
 4757      6C697374 
 4757      5F7400
 4758              	.LASF151:
 4759 07a5 63685379 		.ascii	"chSysIntegrityCheckI\000"
 4759      73496E74 
 4759      65677269 
 4759      74794368 
 4759      65636B49 
 4760              	.LASF20:
 4761 07ba 746D6F64 		.ascii	"tmode_t\000"
 4761      655F7400 
 4762              	.LASF125:
 4763 07c2 63685379 		.ascii	"chSysUnlock\000"
 4763      73556E6C 
ARM GAS  /tmp/ccrXC91b.s 			page 91


 4763      6F636B00 
 4764              	.LASF99:
 4765 07ce 6D5F6F77 		.ascii	"m_owner\000"
 4765      6E657200 
 4766              	.LASF119:
 4767 07d6 72657375 		.ascii	"result\000"
 4767      6C7400
 4768              	.LASF143:
 4769 07dd 73797332 		.ascii	"sys2_execute\000"
 4769      5F657865 
 4769      63757465 
 4769      00
 4770              	.LASF32:
 4771 07ea 705F6374 		.ascii	"p_ctx\000"
 4771      7800
 4772              	.LASF65:
 4773 07f0 76745F66 		.ascii	"vt_func\000"
 4773      756E6300 
 4774              		.ident	"GCC: (GNU Tools for ARM Embedded Processors) 4.8.4 20140526 (release) [ARM/embedded-4_8-br
ARM GAS  /tmp/ccrXC91b.s 			page 92


DEFINED SYMBOLS
                            *ABS*:00000000 testsys.c
     /tmp/ccrXC91b.s:19     .text.sys2_execute:00000000 $t
     /tmp/ccrXC91b.s:24     .text.sys2_execute:00000000 sys2_execute
     /tmp/ccrXC91b.s:122    .text.vtcb:00000000 $t
     /tmp/ccrXC91b.s:127    .text.vtcb:00000000 vtcb
     /tmp/ccrXC91b.s:211    .text.sys3_execute:00000000 $t
     /tmp/ccrXC91b.s:216    .text.sys3_execute:00000000 sys3_execute
     /tmp/ccrXC91b.s:416    .text.sys1_execute:00000000 $t
     /tmp/ccrXC91b.s:421    .text.sys1_execute:00000000 sys1_execute
     /tmp/ccrXC91b.s:786    .text.sys1_execute:000000a4 $d
     /tmp/ccrXC91b.s:834    .rodata.patternsys:00000000 patternsys
     /tmp/ccrXC91b.s:816    .rodata.testsys3:00000000 testsys3
     /tmp/ccrXC91b.s:807    .rodata.testsys2:00000000 testsys2
     /tmp/ccrXC91b.s:798    .rodata.testsys1:00000000 testsys1
     /tmp/ccrXC91b.s:795    .rodata.testsys1:00000000 $d
     /tmp/ccrXC91b.s:804    .rodata.testsys2:00000000 $d
     /tmp/ccrXC91b.s:813    .rodata.testsys3:00000000 $d
     /tmp/ccrXC91b.s:822    .rodata.str1.4:00000000 $d
     /tmp/ccrXC91b.s:831    .rodata.patternsys:00000000 $d
                     .debug_frame:00000010 $d
     /tmp/ccrXC91b.s:794    .text.sys1_execute:000000a8 $t

UNDEFINED SYMBOLS
chSysGetStatusAndLockX
chSysRestoreStatusX
chSysIntegrityCheckI
_test_assert
chVTDoResetI
chVTDoSetI
chThdSleep
