ARM GAS  /tmp/ccqE1nSF.s 			page 1


   1              		.syntax unified
   2              		.cpu cortex-m4
   3              		.fpu softvfp
   4              		.eabi_attribute 20, 1
   5              		.eabi_attribute 21, 1
   6              		.eabi_attribute 23, 3
   7              		.eabi_attribute 24, 1
   8              		.eabi_attribute 25, 1
   9              		.eabi_attribute 26, 1
  10              		.eabi_attribute 30, 2
  11              		.eabi_attribute 34, 1
  12              		.eabi_attribute 18, 4
  13              		.thumb
  14              		.file	"testdyn.c"
  15              		.text
  16              	.Ltext0:
  17              		.cfi_sections	.debug_frame
  18              		.section	.text.dyn1_execute,"ax",%progbits
  19              		.align	2
  20              		.p2align 4,,15
  21              		.thumb
  22              		.thumb_func
  23              		.type	dyn1_execute, %function
  24              	dyn1_execute:
  25              	.LFB243:
  26              		.file 1 "../ChibiOS/test/rt/testdyn.c"
  27              		.loc 1 82 0
  28              		.cfi_startproc
  29              		@ args = 0, pretend = 0, frame = 8
  30              		@ frame_needed = 0, uses_anonymous_args = 0
  31 0000 70B5     		push	{r4, r5, r6, lr}
  32              		.cfi_def_cfa_offset 16
  33              		.cfi_offset 4, -16
  34              		.cfi_offset 5, -12
  35              		.cfi_offset 6, -8
  36              		.cfi_offset 14, -4
  37              	.LBB16:
  38              	.LBB17:
  39              	.LBB18:
  40              	.LBB19:
  41              		.file 2 "../ChibiOS/os/rt/include/chthreads.h"
  42              		.loc 2 176 0
  43 0002 334B     		ldr	r3, .L12
  44              	.LBE19:
  45              	.LBE18:
  46              	.LBE17:
  47              	.LBE16:
  48              		.loc 1 87 0
  49 0004 3348     		ldr	r0, .L12+4
  50              	.LBB22:
  51              	.LBB20:
  52              		.loc 2 189 0
  53 0006 9B69     		ldr	r3, [r3, #24]
  54              	.LBE20:
  55              	.LBE22:
  56              		.loc 1 89 0
  57 0008 334C     		ldr	r4, .L12+8
ARM GAS  /tmp/ccqE1nSF.s 			page 2


  58              	.LBB23:
  59              	.LBB21:
  60              		.loc 2 189 0
  61 000a 9D68     		ldr	r5, [r3, #8]
  62              	.LBE21:
  63              	.LBE23:
  64              		.loc 1 82 0
  65 000c 84B0     		sub	sp, sp, #16
  66              		.cfi_def_cfa_offset 32
  67              		.loc 1 87 0
  68 000e 03A9     		add	r1, sp, #12
  69 0010 FFF7FEFF 		bl	chHeapStatus
  70              	.LVL0:
  71              		.loc 1 89 0
  72 0014 314B     		ldr	r3, .L12+12
  73 0016 0093     		str	r3, [sp]
  74 0018 6A1E     		subs	r2, r5, #1
  75 001a 314B     		ldr	r3, .L12+16
  76 001c 2D48     		ldr	r0, .L12+4
  77 001e 4FF4A471 		mov	r1, #328
  78 0022 FFF7FEFF 		bl	chThdCreateFromHeap
  79              	.LVL1:
  80              		.loc 1 92 0
  81 0026 2F4B     		ldr	r3, .L12+20
  82              		.loc 1 89 0
  83 0028 2060     		str	r0, [r4]
  84              		.loc 1 92 0
  85 002a AA1E     		subs	r2, r5, #2
  86 002c 0093     		str	r3, [sp]
  87 002e 4FF4A471 		mov	r1, #328
  88 0032 2B4B     		ldr	r3, .L12+16
  89 0034 2748     		ldr	r0, .L12+4
  90 0036 FFF7FEFF 		bl	chThdCreateFromHeap
  91              	.LVL2:
  92              		.loc 1 96 0
  93 003a 02A9     		add	r1, sp, #8
  94              		.loc 1 92 0
  95 003c 6060     		str	r0, [r4, #4]
  96              		.loc 1 96 0
  97 003e 2548     		ldr	r0, .L12+4
  98 0040 FFF7FEFF 		bl	chHeapStatus
  99              	.LVL3:
 100              		.loc 1 97 0
 101 0044 0299     		ldr	r1, [sp, #8]
 102 0046 2348     		ldr	r0, .L12+4
 103 0048 FFF7FEFF 		bl	chHeapAlloc
 104              	.LVL4:
 105              		.loc 1 98 0
 106 004c 264B     		ldr	r3, .L12+24
 107 004e 0093     		str	r3, [sp]
 108 0050 4FF4A471 		mov	r1, #328
 109              		.loc 1 97 0
 110 0054 0646     		mov	r6, r0
 111              	.LVL5:
 112              		.loc 1 98 0
 113 0056 EA1E     		subs	r2, r5, #3
 114 0058 214B     		ldr	r3, .L12+16
ARM GAS  /tmp/ccqE1nSF.s 			page 3


 115 005a 1E48     		ldr	r0, .L12+4
 116              	.LVL6:
 117 005c FFF7FEFF 		bl	chThdCreateFromHeap
 118              	.LVL7:
 119 0060 A060     		str	r0, [r4, #8]
 120              		.loc 1 101 0
 121 0062 3046     		mov	r0, r6
 122 0064 FFF7FEFF 		bl	chHeapFree
 123              	.LVL8:
 124              		.loc 1 103 0
 125 0068 2168     		ldr	r1, [r4]
 126 006a 21B1     		cbz	r1, .L2
 127              		.loc 1 103 0 is_stmt 0 discriminator 1
 128 006c 6168     		ldr	r1, [r4, #4]
 129 006e 11B1     		cbz	r1, .L2
 130 0070 A168     		ldr	r1, [r4, #8]
 131 0072 19B3     		cbz	r1, .L10
 132 0074 0021     		movs	r1, #0
 133              	.L2:
 134              		.loc 1 103 0 discriminator 4
 135 0076 0120     		movs	r0, #1
 136 0078 FFF7FEFF 		bl	_test_assert
 137              	.LVL9:
 138 007c 08B1     		cbz	r0, .L11
 139              	.L1:
 140              		.loc 1 117 0 is_stmt 1
 141 007e 04B0     		add	sp, sp, #16
 142              		@ sp needed
 143 0080 70BD     		pop	{r4, r5, r6, pc}
 144              	.LVL10:
 145              	.L11:
 146              		.loc 1 111 0
 147 0082 FFF7FEFF 		bl	test_wait_threads
 148              	.LVL11:
 149              		.loc 1 112 0
 150 0086 0220     		movs	r0, #2
 151 0088 1849     		ldr	r1, .L12+28
 152 008a FFF7FEFF 		bl	_test_assert_sequence
 153              	.LVL12:
 154 008e 0028     		cmp	r0, #0
 155 0090 F5D1     		bne	.L1
 156              		.loc 1 115 0
 157 0092 02A9     		add	r1, sp, #8
 158 0094 0F48     		ldr	r0, .L12+4
 159 0096 FFF7FEFF 		bl	chHeapStatus
 160              	.LVL13:
 161 009a 421E     		subs	r2, r0, #1
 162 009c 5142     		rsbs	r1, r2, #0
 163 009e 5141     		adcs	r1, r1, r2
 164 00a0 0320     		movs	r0, #3
 165 00a2 FFF7FEFF 		bl	_test_assert
 166              	.LVL14:
 167 00a6 0028     		cmp	r0, #0
 168 00a8 E9D1     		bne	.L1
 169              		.loc 1 116 0
 170 00aa 0299     		ldr	r1, [sp, #8]
 171 00ac 039B     		ldr	r3, [sp, #12]
ARM GAS  /tmp/ccqE1nSF.s 			page 4


 172 00ae CB1A     		subs	r3, r1, r3
 173 00b0 5942     		rsbs	r1, r3, #0
 174 00b2 5941     		adcs	r1, r1, r3
 175 00b4 0420     		movs	r0, #4
 176 00b6 FFF7FEFF 		bl	_test_assert
 177              	.LVL15:
 178 00ba E0E7     		b	.L1
 179              	.L10:
 180              		.loc 1 103 0 discriminator 1
 181 00bc E368     		ldr	r3, [r4, #12]
 182 00be 002B     		cmp	r3, #0
 183 00c0 D9D1     		bne	.L2
 184 00c2 2169     		ldr	r1, [r4, #16]
 185 00c4 D1F10101 		rsbs	r1, r1, #1
 186 00c8 38BF     		it	cc
 187 00ca 0021     		movcc	r1, #0
 188 00cc D3E7     		b	.L2
 189              	.L13:
 190 00ce 00BF     		.align	2
 191              	.L12:
 192 00d0 00000000 		.word	ch
 193 00d4 00000000 		.word	.LANCHOR0
 194 00d8 00000000 		.word	threads
 195 00dc 00000000 		.word	.LC0
 196 00e0 00000000 		.word	thread
 197 00e4 04000000 		.word	.LC1
 198 00e8 08000000 		.word	.LC2
 199 00ec 0C000000 		.word	.LC3
 200              		.cfi_endproc
 201              	.LFE243:
 202              		.size	dyn1_execute, .-dyn1_execute
 203              		.section	.text.thread,"ax",%progbits
 204              		.align	2
 205              		.p2align 4,,15
 206              		.thumb
 207              		.thumb_func
 208              		.type	thread, %function
 209              	thread:
 210              	.LFB241:
 211              		.loc 1 71 0
 212              		.cfi_startproc
 213              		@ args = 0, pretend = 0, frame = 0
 214              		@ frame_needed = 0, uses_anonymous_args = 0
 215              		@ link register save eliminated.
 216              	.LVL16:
 217              		.loc 1 73 0
 218 0000 0078     		ldrb	r0, [r0]	@ zero_extendqisi2
 219              	.LVL17:
 220 0002 FFF7FEBF 		b	test_emit_token
 221              	.LVL18:
 222              		.cfi_endproc
 223              	.LFE241:
 224              		.size	thread, .-thread
 225 0006 00BFAFF3 		.section	.text.dyn1_setup,"ax",%progbits
 225      0080AFF3 
 225      0080
 226              		.align	2
ARM GAS  /tmp/ccqE1nSF.s 			page 5


 227              		.p2align 4,,15
 228              		.thumb
 229              		.thumb_func
 230              		.type	dyn1_setup, %function
 231              	dyn1_setup:
 232              	.LFB242:
 233              		.loc 1 77 0
 234              		.cfi_startproc
 235              		@ args = 0, pretend = 0, frame = 0
 236              		@ frame_needed = 0, uses_anonymous_args = 0
 237              		@ link register save eliminated.
 238              		.loc 1 79 0
 239 0000 0248     		ldr	r0, .L16
 240 0002 0349     		ldr	r1, .L16+4
 241 0004 4FF4CD62 		mov	r2, #1640
 242 0008 FFF7FEBF 		b	chHeapObjectInit
 243              	.LVL19:
 244              	.L17:
 245              		.align	2
 246              	.L16:
 247 000c 00000000 		.word	.LANCHOR0
 248 0010 00000000 		.word	test
 249              		.cfi_endproc
 250              	.LFE242:
 251              		.size	dyn1_setup, .-dyn1_setup
 252 0014 AFF30080 		.section	.text.dyn3_setup,"ax",%progbits
 252      AFF30080 
 252      AFF30080 
 253              		.align	2
 254              		.p2align 4,,15
 255              		.thumb
 256              		.thumb_func
 257              		.type	dyn3_setup, %function
 258              	dyn3_setup:
 259              	.LFB247:
 260              		.loc 1 204 0
 261              		.cfi_startproc
 262              		@ args = 0, pretend = 0, frame = 0
 263              		@ frame_needed = 0, uses_anonymous_args = 0
 264              		@ link register save eliminated.
 265              		.loc 1 206 0
 266 0000 0248     		ldr	r0, .L19
 267 0002 0349     		ldr	r1, .L19+4
 268 0004 4FF4CD62 		mov	r2, #1640
 269 0008 FFF7FEBF 		b	chHeapObjectInit
 270              	.LVL20:
 271              	.L20:
 272              		.align	2
 273              	.L19:
 274 000c 00000000 		.word	.LANCHOR0
 275 0010 00000000 		.word	test
 276              		.cfi_endproc
 277              	.LFE247:
 278              		.size	dyn3_setup, .-dyn3_setup
 279 0014 AFF30080 		.section	.text.dyn2_execute,"ax",%progbits
 279      AFF30080 
 279      AFF30080 
ARM GAS  /tmp/ccqE1nSF.s 			page 6


 280              		.align	2
 281              		.p2align 4,,15
 282              		.thumb
 283              		.thumb_func
 284              		.type	dyn2_execute, %function
 285              	dyn2_execute:
 286              	.LFB245:
 287              		.loc 1 143 0
 288              		.cfi_startproc
 289              		@ args = 0, pretend = 0, frame = 0
 290              		@ frame_needed = 0, uses_anonymous_args = 0
 291              	.LBB24:
 292              	.LBB25:
 293              	.LBB26:
 294              	.LBB27:
 295              		.loc 2 176 0
 296 0000 324B     		ldr	r3, .L35
 297              	.LBE27:
 298              	.LBE26:
 299              		.loc 2 189 0
 300 0002 9B69     		ldr	r3, [r3, #24]
 301              	.LBE25:
 302              	.LBE24:
 303              		.loc 1 143 0
 304 0004 70B5     		push	{r4, r5, r6, lr}
 305              		.cfi_def_cfa_offset 16
 306              		.cfi_offset 4, -16
 307              		.cfi_offset 5, -12
 308              		.cfi_offset 6, -8
 309              		.cfi_offset 14, -4
 310 0006 324C     		ldr	r4, .L35+4
 311              	.LBB29:
 312              	.LBB28:
 313              		.loc 2 189 0
 314 0008 9D68     		ldr	r5, [r3, #8]
 315              	.LVL21:
 316 000a 04F11006 		add	r6, r4, #16
 317              	.LVL22:
 318              	.L23:
 319              	.LBE28:
 320              	.LBE29:
 321              		.loc 1 149 0 discriminator 2
 322 000e 54F8041F 		ldr	r1, [r4, #4]!
 323 0012 3048     		ldr	r0, .L35+8
 324 0014 FFF7FEFF 		bl	chPoolFree
 325              	.LVL23:
 326              		.loc 1 148 0 discriminator 2
 327 0018 B442     		cmp	r4, r6
 328 001a F8D1     		bne	.L23
 329              		.loc 1 152 0
 330 001c 2E4A     		ldr	r2, .L35+12
 331 001e 2F4B     		ldr	r3, .L35+16
 332 0020 2C48     		ldr	r0, .L35+8
 333 0022 2F4C     		ldr	r4, .L35+20
 334 0024 691E     		subs	r1, r5, #1
 335 0026 FFF7FEFF 		bl	chThdCreateFromMemoryPool
 336              	.LVL24:
ARM GAS  /tmp/ccqE1nSF.s 			page 7


 337              		.loc 1 153 0
 338 002a A91E     		subs	r1, r5, #2
 339              		.loc 1 152 0
 340 002c 2060     		str	r0, [r4]
 341              		.loc 1 153 0
 342 002e 2A4A     		ldr	r2, .L35+12
 343 0030 2C4B     		ldr	r3, .L35+24
 344 0032 2848     		ldr	r0, .L35+8
 345 0034 FFF7FEFF 		bl	chThdCreateFromMemoryPool
 346              	.LVL25:
 347              		.loc 1 154 0
 348 0038 E91E     		subs	r1, r5, #3
 349              		.loc 1 153 0
 350 003a 6060     		str	r0, [r4, #4]
 351              		.loc 1 154 0
 352 003c 264A     		ldr	r2, .L35+12
 353 003e 2A4B     		ldr	r3, .L35+28
 354 0040 2448     		ldr	r0, .L35+8
 355 0042 FFF7FEFF 		bl	chThdCreateFromMemoryPool
 356              	.LVL26:
 357              		.loc 1 155 0
 358 0046 291F     		subs	r1, r5, #4
 359              		.loc 1 154 0
 360 0048 A060     		str	r0, [r4, #8]
 361              		.loc 1 155 0
 362 004a 234A     		ldr	r2, .L35+12
 363 004c 274B     		ldr	r3, .L35+32
 364 004e 2148     		ldr	r0, .L35+8
 365 0050 FFF7FEFF 		bl	chThdCreateFromMemoryPool
 366              	.LVL27:
 367              		.loc 1 156 0
 368 0054 691F     		subs	r1, r5, #5
 369              		.loc 1 155 0
 370 0056 E060     		str	r0, [r4, #12]
 371              		.loc 1 156 0
 372 0058 1F4A     		ldr	r2, .L35+12
 373 005a 1E48     		ldr	r0, .L35+8
 374 005c 244B     		ldr	r3, .L35+36
 375 005e FFF7FEFF 		bl	chThdCreateFromMemoryPool
 376              	.LVL28:
 377              		.loc 1 158 0
 378 0062 2168     		ldr	r1, [r4]
 379              		.loc 1 156 0
 380 0064 2061     		str	r0, [r4, #16]
 381              		.loc 1 158 0
 382 0066 49B1     		cbz	r1, .L24
 383              		.loc 1 158 0 is_stmt 0 discriminator 1
 384 0068 6168     		ldr	r1, [r4, #4]
 385 006a 39B1     		cbz	r1, .L24
 386 006c A168     		ldr	r1, [r4, #8]
 387 006e 29B1     		cbz	r1, .L24
 388 0070 E168     		ldr	r1, [r4, #12]
 389 0072 19B1     		cbz	r1, .L24
 390 0074 D0F10101 		rsbs	r1, r0, #1
 391 0078 38BF     		it	cc
 392 007a 0021     		movcc	r1, #0
 393              	.L24:
ARM GAS  /tmp/ccqE1nSF.s 			page 8


 394              		.loc 1 158 0 discriminator 4
 395 007c 0120     		movs	r0, #1
 396 007e FFF7FEFF 		bl	_test_assert
 397              	.LVL29:
 398 0082 00B1     		cbz	r0, .L34
 399              	.L21:
 400 0084 70BD     		pop	{r4, r5, r6, pc}
 401              	.L34:
 402              		.loc 1 166 0 is_stmt 1
 403 0086 FFF7FEFF 		bl	test_wait_threads
 404              	.LVL30:
 405              		.loc 1 167 0
 406 008a 0220     		movs	r0, #2
 407 008c 1949     		ldr	r1, .L35+40
 408 008e FFF7FEFF 		bl	_test_assert_sequence
 409              	.LVL31:
 410 0092 0028     		cmp	r0, #0
 411 0094 F6D1     		bne	.L21
 412 0096 0424     		movs	r4, #4
 413              	.L29:
 414              	.LVL32:
 415              		.loc 1 171 0
 416 0098 0E48     		ldr	r0, .L35+8
 417 009a FFF7FEFF 		bl	chPoolAlloc
 418              	.LVL33:
 419 009e 011C     		adds	r1, r0, #0
 420 00a0 18BF     		it	ne
 421 00a2 0121     		movne	r1, #1
 422 00a4 0320     		movs	r0, #3
 423 00a6 FFF7FEFF 		bl	_test_assert
 424              	.LVL34:
 425 00aa 0028     		cmp	r0, #0
 426 00ac EAD1     		bne	.L21
 427              		.loc 1 170 0
 428 00ae 013C     		subs	r4, r4, #1
 429              	.LVL35:
 430 00b0 F2D1     		bne	.L29
 431              		.loc 1 172 0
 432 00b2 0848     		ldr	r0, .L35+8
 433 00b4 FFF7FEFF 		bl	chPoolAlloc
 434              	.LVL36:
 435 00b8 D0F10101 		rsbs	r1, r0, #1
 436 00bc 38BF     		it	cc
 437 00be 0021     		movcc	r1, #0
 438 00c0 0420     		movs	r0, #4
 439              		.loc 1 173 0
 440 00c2 BDE87040 		pop	{r4, r5, r6, lr}
 441              	.LVL37:
 442              		.loc 1 172 0
 443 00c6 FFF7FEBF 		b	_test_assert
 444              	.LVL38:
 445              	.L36:
 446 00ca 00BF     		.align	2
 447              	.L35:
 448 00cc 00000000 		.word	ch
 449 00d0 FCFFFFFF 		.word	wa-4
 450 00d4 00000000 		.word	.LANCHOR1
ARM GAS  /tmp/ccqE1nSF.s 			page 9


 451 00d8 00000000 		.word	thread
 452 00dc 00000000 		.word	.LC0
 453 00e0 00000000 		.word	threads
 454 00e4 04000000 		.word	.LC1
 455 00e8 08000000 		.word	.LC2
 456 00ec 10000000 		.word	.LC4
 457 00f0 14000000 		.word	.LC5
 458 00f4 18000000 		.word	.LC6
 459              		.cfi_endproc
 460              	.LFE245:
 461              		.size	dyn2_execute, .-dyn2_execute
 462 00f8 AFF30080 		.section	.text.dyn2_setup,"ax",%progbits
 462      AFF30080 
 463              		.align	2
 464              		.p2align 4,,15
 465              		.thumb
 466              		.thumb_func
 467              		.type	dyn2_setup, %function
 468              	dyn2_setup:
 469              	.LFB244:
 470              		.loc 1 138 0
 471              		.cfi_startproc
 472              		@ args = 0, pretend = 0, frame = 0
 473              		@ frame_needed = 0, uses_anonymous_args = 0
 474              		@ link register save eliminated.
 475              		.loc 1 140 0
 476 0000 0248     		ldr	r0, .L38
 477 0002 4FF4A471 		mov	r1, #328
 478 0006 0022     		movs	r2, #0
 479 0008 FFF7FEBF 		b	chPoolObjectInit
 480              	.LVL39:
 481              	.L39:
 482              		.align	2
 483              	.L38:
 484 000c 00000000 		.word	.LANCHOR1
 485              		.cfi_endproc
 486              	.LFE244:
 487              		.size	dyn2_setup, .-dyn2_setup
 488              		.section	.text.regfind,"ax",%progbits
 489              		.align	2
 490              		.p2align 4,,15
 491              		.thumb
 492              		.thumb_func
 493              		.type	regfind, %function
 494              	regfind:
 495              	.LFB246:
 496              		.loc 1 192 0
 497              		.cfi_startproc
 498              		@ args = 0, pretend = 0, frame = 0
 499              		@ frame_needed = 0, uses_anonymous_args = 0
 500              	.LVL40:
 501 0000 38B5     		push	{r3, r4, r5, lr}
 502              		.cfi_def_cfa_offset 16
 503              		.cfi_offset 3, -16
 504              		.cfi_offset 4, -12
 505              		.cfi_offset 5, -8
 506              		.cfi_offset 14, -4
ARM GAS  /tmp/ccqE1nSF.s 			page 10


 507              		.loc 1 192 0
 508 0002 0546     		mov	r5, r0
 509              		.loc 1 196 0
 510 0004 FFF7FEFF 		bl	chRegFirstThread
 511              	.LVL41:
 512              		.loc 1 194 0
 513 0008 0024     		movs	r4, #0
 514              		.loc 1 196 0
 515 000a 0346     		mov	r3, r0
 516              	.LVL42:
 517              	.L42:
 518              		.loc 1 199 0 discriminator 1
 519 000c 1846     		mov	r0, r3
 520              		.loc 1 198 0 discriminator 1
 521 000e AB42     		cmp	r3, r5
 522 0010 08BF     		it	eq
 523 0012 44F00104 		orreq	r4, r4, #1
 524              	.LVL43:
 525              		.loc 1 199 0 discriminator 1
 526 0016 FFF7FEFF 		bl	chRegNextThread
 527              	.LVL44:
 528              		.loc 1 200 0 discriminator 1
 529 001a 0346     		mov	r3, r0
 530 001c 0028     		cmp	r0, #0
 531 001e F5D1     		bne	.L42
 532              		.loc 1 202 0
 533 0020 2046     		mov	r0, r4
 534              	.LVL45:
 535 0022 38BD     		pop	{r3, r4, r5, pc}
 536              		.cfi_endproc
 537              	.LFE246:
 538              		.size	regfind, .-regfind
 539 0024 AFF30080 		.section	.text.dyn3_execute,"ax",%progbits
 539      AFF30080 
 539      AFF30080 
 540              		.align	2
 541              		.p2align 4,,15
 542              		.thumb
 543              		.thumb_func
 544              		.type	dyn3_execute, %function
 545              	dyn3_execute:
 546              	.LFB248:
 547              		.loc 1 209 0
 548              		.cfi_startproc
 549              		@ args = 0, pretend = 0, frame = 0
 550              		@ frame_needed = 0, uses_anonymous_args = 0
 551 0000 10B5     		push	{r4, lr}
 552              		.cfi_def_cfa_offset 8
 553              		.cfi_offset 4, -8
 554              		.cfi_offset 14, -4
 555              	.LBB30:
 556              	.LBB31:
 557              	.LBB32:
 558              	.LBB33:
 559              		.loc 2 176 0
 560 0002 4A4B     		ldr	r3, .L48
 561              	.LBE33:
ARM GAS  /tmp/ccqE1nSF.s 			page 11


 562              	.LBE32:
 563              	.LBE31:
 564              	.LBE30:
 565              		.loc 1 214 0
 566 0004 4A49     		ldr	r1, .L48+4
 567              	.LBB35:
 568              	.LBB34:
 569              		.loc 2 189 0
 570 0006 9B69     		ldr	r3, [r3, #24]
 571              	.LBE34:
 572              	.LBE35:
 573              		.loc 1 214 0
 574 0008 4A48     		ldr	r0, .L48+8
 575 000a 9A68     		ldr	r2, [r3, #8]
 576 000c 4A4B     		ldr	r3, .L48+12
 577              		.loc 1 209 0
 578 000e 82B0     		sub	sp, sp, #8
 579              		.cfi_def_cfa_offset 16
 580              		.loc 1 214 0
 581 0010 013A     		subs	r2, r2, #1
 582 0012 0091     		str	r1, [sp]
 583 0014 4FF4A471 		mov	r1, #328
 584 0018 FFF7FEFF 		bl	chThdCreateFromHeap
 585              	.LVL46:
 586 001c 0446     		mov	r4, r0
 587              	.LVL47:
 588              		.loc 1 215 0
 589 001e 0120     		movs	r0, #1
 590              	.LVL48:
 591 0020 A17F     		ldrb	r1, [r4, #30]	@ zero_extendqisi2
 592 0022 B1EB000C 		subs	ip, r1, r0
 593 0026 DCF10001 		rsbs	r1, ip, #0
 594 002a 51EB0C01 		adcs	r1, r1, ip
 595 002e FFF7FEFF 		bl	_test_assert
 596              	.LVL49:
 597 0032 08B1     		cbz	r0, .L47
 598              	.L43:
 599              		.loc 1 237 0
 600 0034 02B0     		add	sp, sp, #8
 601              		@ sp needed
 602 0036 10BD     		pop	{r4, pc}
 603              	.LVL50:
 604              	.L47:
 605              		.loc 1 216 0
 606 0038 2046     		mov	r0, r4
 607 003a FFF7FEFF 		bl	chThdAddRef
 608              	.LVL51:
 609              		.loc 1 217 0
 610 003e A17F     		ldrb	r1, [r4, #30]	@ zero_extendqisi2
 611 0040 0220     		movs	r0, #2
 612 0042 B1EB000E 		subs	lr, r1, r0
 613 0046 DEF10001 		rsbs	r1, lr, #0
 614 004a 51EB0E01 		adcs	r1, r1, lr
 615 004e FFF7FEFF 		bl	_test_assert
 616              	.LVL52:
 617 0052 0028     		cmp	r0, #0
 618 0054 EED1     		bne	.L43
ARM GAS  /tmp/ccqE1nSF.s 			page 12


 619              		.loc 1 218 0
 620 0056 2046     		mov	r0, r4
 621 0058 FFF7FEFF 		bl	chThdRelease
 622              	.LVL53:
 623              		.loc 1 219 0
 624 005c A17F     		ldrb	r1, [r4, #30]	@ zero_extendqisi2
 625 005e 4A1E     		subs	r2, r1, #1
 626 0060 5142     		rsbs	r1, r2, #0
 627 0062 5141     		adcs	r1, r1, r2
 628 0064 0320     		movs	r0, #3
 629 0066 FFF7FEFF 		bl	_test_assert
 630              	.LVL54:
 631 006a 0028     		cmp	r0, #0
 632 006c E2D1     		bne	.L43
 633              		.loc 1 222 0
 634 006e 2046     		mov	r0, r4
 635 0070 FFF7FEFF 		bl	regfind
 636              	.LVL55:
 637 0074 0146     		mov	r1, r0
 638 0076 0420     		movs	r0, #4
 639 0078 FFF7FEFF 		bl	_test_assert
 640              	.LVL56:
 641 007c 0028     		cmp	r0, #0
 642 007e D9D1     		bne	.L43
 643              		.loc 1 223 0
 644 0080 2046     		mov	r0, r4
 645 0082 FFF7FEFF 		bl	regfind
 646              	.LVL57:
 647 0086 0146     		mov	r1, r0
 648 0088 0520     		movs	r0, #5
 649 008a FFF7FEFF 		bl	_test_assert
 650              	.LVL58:
 651 008e 0028     		cmp	r0, #0
 652 0090 D0D1     		bne	.L43
 653              		.loc 1 226 0
 654 0092 2046     		mov	r0, r4
 655 0094 FFF7FEFF 		bl	chThdRelease
 656              	.LVL59:
 657              		.loc 1 227 0
 658 0098 A17F     		ldrb	r1, [r4, #30]	@ zero_extendqisi2
 659 009a D1F10101 		rsbs	r1, r1, #1
 660 009e 38BF     		it	cc
 661 00a0 0021     		movcc	r1, #0
 662 00a2 0620     		movs	r0, #6
 663 00a4 FFF7FEFF 		bl	_test_assert
 664              	.LVL60:
 665 00a8 0028     		cmp	r0, #0
 666 00aa C3D1     		bne	.L43
 667              		.loc 1 228 0
 668 00ac 217F     		ldrb	r1, [r4, #28]	@ zero_extendqisi2
 669 00ae D1F10101 		rsbs	r1, r1, #1
 670 00b2 38BF     		it	cc
 671 00b4 0021     		movcc	r1, #0
 672 00b6 0720     		movs	r0, #7
 673 00b8 FFF7FEFF 		bl	_test_assert
 674              	.LVL61:
 675 00bc 0028     		cmp	r0, #0
ARM GAS  /tmp/ccqE1nSF.s 			page 13


 676 00be B9D1     		bne	.L43
 677              		.loc 1 229 0
 678 00c0 2046     		mov	r0, r4
 679 00c2 FFF7FEFF 		bl	regfind
 680              	.LVL62:
 681 00c6 0146     		mov	r1, r0
 682 00c8 0820     		movs	r0, #8
 683 00ca FFF7FEFF 		bl	_test_assert
 684              	.LVL63:
 685 00ce 0028     		cmp	r0, #0
 686 00d0 B0D1     		bne	.L43
 687              		.loc 1 230 0
 688 00d2 2046     		mov	r0, r4
 689 00d4 FFF7FEFF 		bl	regfind
 690              	.LVL64:
 691 00d8 0146     		mov	r1, r0
 692 00da 0920     		movs	r0, #9
 693 00dc FFF7FEFF 		bl	_test_assert
 694              	.LVL65:
 695 00e0 0028     		cmp	r0, #0
 696 00e2 A7D1     		bne	.L43
 697              		.loc 1 231 0
 698 00e4 4FF4FA70 		mov	r0, #500
 699 00e8 FFF7FEFF 		bl	chThdSleep
 700              	.LVL66:
 701              		.loc 1 232 0
 702 00ec 217F     		ldrb	r1, [r4, #28]	@ zero_extendqisi2
 703 00ee B1F10F03 		subs	r3, r1, #15
 704 00f2 5942     		rsbs	r1, r3, #0
 705 00f4 5941     		adcs	r1, r1, r3
 706 00f6 0A20     		movs	r0, #10
 707 00f8 FFF7FEFF 		bl	_test_assert
 708              	.LVL67:
 709 00fc 0028     		cmp	r0, #0
 710 00fe 99D1     		bne	.L43
 711              		.loc 1 235 0
 712 0100 2046     		mov	r0, r4
 713 0102 FFF7FEFF 		bl	regfind
 714              	.LVL68:
 715 0106 0146     		mov	r1, r0
 716 0108 0B20     		movs	r0, #11
 717 010a FFF7FEFF 		bl	_test_assert
 718              	.LVL69:
 719 010e 0028     		cmp	r0, #0
 720 0110 90D1     		bne	.L43
 721              		.loc 1 236 0
 722 0112 2046     		mov	r0, r4
 723 0114 FFF7FEFF 		bl	regfind
 724              	.LVL70:
 725 0118 80F00101 		eor	r1, r0, #1
 726 011c C9B2     		uxtb	r1, r1
 727 011e 0C20     		movs	r0, #12
 728              		.loc 1 237 0
 729 0120 02B0     		add	sp, sp, #8
 730              		@ sp needed
 731 0122 BDE81040 		pop	{r4, lr}
 732              	.LVL71:
ARM GAS  /tmp/ccqE1nSF.s 			page 14


 733              		.loc 1 236 0
 734 0126 FFF7FEBF 		b	_test_assert
 735              	.LVL72:
 736              	.L49:
 737 012a 00BF     		.align	2
 738              	.L48:
 739 012c 00000000 		.word	ch
 740 0130 00000000 		.word	.LC0
 741 0134 00000000 		.word	.LANCHOR0
 742 0138 00000000 		.word	thread
 743              		.cfi_endproc
 744              	.LFE248:
 745              		.size	dyn3_execute, .-dyn3_execute
 746              		.global	patterndyn
 747              		.global	testdyn3
 748              		.global	testdyn2
 749              		.global	testdyn1
 750 013c AFF30080 		.section	.rodata.testdyn1,"a",%progbits
 751              		.align	2
 752              		.type	testdyn1, %object
 753              		.size	testdyn1, 16
 754              	testdyn1:
 755 0000 78000000 		.word	.LC9
 756 0004 00000000 		.word	dyn1_setup
 757 0008 00000000 		.word	0
 758 000c 00000000 		.word	dyn1_execute
 759              		.section	.rodata.testdyn2,"a",%progbits
 760              		.align	2
 761              		.type	testdyn2, %object
 762              		.size	testdyn2, 16
 763              	testdyn2:
 764 0000 48000000 		.word	.LC8
 765 0004 00000000 		.word	dyn2_setup
 766 0008 00000000 		.word	0
 767 000c 00000000 		.word	dyn2_execute
 768              		.section	.rodata.testdyn3,"a",%progbits
 769              		.align	2
 770              		.type	testdyn3, %object
 771              		.size	testdyn3, 16
 772              	testdyn3:
 773 0000 20000000 		.word	.LC7
 774 0004 00000000 		.word	dyn3_setup
 775 0008 00000000 		.word	0
 776 000c 00000000 		.word	dyn3_execute
 777              		.section	.bss.mp1,"aw",%nobits
 778              		.align	2
 779              		.set	.LANCHOR1,. + 0
 780              		.type	mp1, %object
 781              		.size	mp1, 12
 782              	mp1:
 783 0000 00000000 		.space	12
 783      00000000 
 783      00000000 
 784              		.section	.rodata.str1.4,"aMS",%progbits,1
 785              		.align	2
 786              	.LC0:
 787 0000 4100     		.ascii	"A\000"
ARM GAS  /tmp/ccqE1nSF.s 			page 15


 788 0002 0000     		.space	2
 789              	.LC1:
 790 0004 4200     		.ascii	"B\000"
 791 0006 0000     		.space	2
 792              	.LC2:
 793 0008 4300     		.ascii	"C\000"
 794 000a 0000     		.space	2
 795              	.LC3:
 796 000c 414200   		.ascii	"AB\000"
 797 000f 00       		.space	1
 798              	.LC4:
 799 0010 4400     		.ascii	"D\000"
 800 0012 0000     		.space	2
 801              	.LC5:
 802 0014 4500     		.ascii	"E\000"
 803 0016 0000     		.space	2
 804              	.LC6:
 805 0018 41424344 		.ascii	"ABCD\000"
 805      00
 806 001d 000000   		.space	3
 807              	.LC7:
 808 0020 44796E61 		.ascii	"Dynamic APIs, registry and references\000"
 808      6D696320 
 808      41504973 
 808      2C207265 
 808      67697374 
 809 0046 0000     		.space	2
 810              	.LC8:
 811 0048 44796E61 		.ascii	"Dynamic APIs, threads creation from memory pool\000"
 811      6D696320 
 811      41504973 
 811      2C207468 
 811      72656164 
 812              	.LC9:
 813 0078 44796E61 		.ascii	"Dynamic APIs, threads creation from heap\000"
 813      6D696320 
 813      41504973 
 813      2C207468 
 813      72656164 
 814 00a1 000000   		.section	.rodata.patterndyn,"a",%progbits
 815              		.align	2
 816              		.type	patterndyn, %object
 817              		.size	patterndyn, 16
 818              	patterndyn:
 819 0000 00000000 		.word	testdyn1
 820 0004 00000000 		.word	testdyn2
 821 0008 00000000 		.word	testdyn3
 822 000c 00000000 		.word	0
 823              		.section	.bss.heap1,"aw",%nobits
 824              		.align	3
 825              		.set	.LANCHOR0,. + 0
 826              		.type	heap1, %object
 827              		.size	heap1, 32
 828              	heap1:
 829 0000 00000000 		.space	32
 829      00000000 
 829      00000000 
ARM GAS  /tmp/ccqE1nSF.s 			page 16


 829      00000000 
 829      00000000 
 830              		.text
 831              	.Letext0:
 832              		.file 3 "/nfs/nfs5/home/research/hardware/arm2/gcc-arm-embedded/gcc-arm-none-eabi-4_8-2014q2/lib/g
 833              		.file 4 "/nfs/nfs5/home/research/hardware/arm2/gcc-arm-embedded/gcc-arm-none-eabi-4_8-2014q2/arm-n
 834              		.file 5 "/nfs/nfs5/home/research/hardware/arm2/gcc-arm-embedded/gcc-arm-none-eabi-4_8-2014q2/arm-n
 835              		.file 6 "../ChibiOS/os/rt/ports/ARMCMx/compilers/GCC/chtypes.h"
 836              		.file 7 "../ChibiOS/os/rt/include/chsystypes.h"
 837              		.file 8 "../ChibiOS/os/rt/include/chschd.h"
 838              		.file 9 "../ChibiOS/os/rt/ports/ARMCMx/chcore.h"
 839              		.file 10 "../ChibiOS/os/rt/ports/ARMCMx/chcore_v7m.h"
 840              		.file 11 "../ChibiOS/os/rt/include/chtm.h"
 841              		.file 12 "../ChibiOS/os/rt/include/chsem.h"
 842              		.file 13 "../ChibiOS/os/rt/include/chmtx.h"
 843              		.file 14 "../ChibiOS/os/rt/include/chmemcore.h"
 844              		.file 15 "../ChibiOS/os/rt/include/chheap.h"
 845              		.file 16 "../ChibiOS/os/rt/include/chmempools.h"
 846              		.file 17 "../ChibiOS/test/rt/test.h"
 847              		.file 18 "../ChibiOS/os/ext/CMSIS/include/core_cm4.h"
 848              		.file 19 "../ChibiOS/os/rt/include/chdynamic.h"
 849              		.file 20 "../ChibiOS/os/rt/include/chregistry.h"