ARM GAS  /tmp/ccrXC91b.s 			page 1


   1              		.syntax unified
   2              		.cpu cortex-m4
   3              		.fpu softvfp
   4              		.eabi_attribute 20, 1
   5              		.eabi_attribute 21, 1
   6              		.eabi_attribute 23, 3
   7              		.eabi_attribute 24, 1
   8              		.eabi_attribute 25, 1
   9              		.eabi_attribute 26, 1
  10              		.eabi_attribute 30, 2
  11              		.eabi_attribute 34, 1
  12              		.eabi_attribute 18, 4
  13              		.thumb
  14              		.file	"testsys.c"
  15              		.text
  16              	.Ltext0:
  17              		.cfi_sections	.debug_frame
  18              		.section	.text.sys2_execute,"ax",%progbits
  19              		.align	2
  20              		.p2align 4,,15
  21              		.thumb
  22              		.thumb_func
  23              		.type	sys2_execute, %function
  24              	sys2_execute:
  25              	.LFB243:
  26              		.file 1 "../ChibiOS/test/rt/testsys.c"
  27              		.loc 1 115 0
  28              		.cfi_startproc
  29              		@ args = 0, pretend = 0, frame = 0
  30              		@ frame_needed = 0, uses_anonymous_args = 0
  31              		@ link register save eliminated.
  32              	.LVL0:
  33              	.LBB324:
  34              	.LBB325:
  35              	.LBB326:
  36              	.LBB327:
  37              		.file 2 "../ChibiOS/os/ext/CMSIS/include/core_cmFunc.h"
  38              		.loc 2 548 0
  39 0000 2023     		movs	r3, #32
  40              	@ 548 "../ChibiOS/os/ext/CMSIS/include/core_cmFunc.h" 1
  41 0002 83F31188 		MSR basepri, r3
  42              	@ 0 "" 2
  43              		.thumb
  44              	.LBE327:
  45              	.LBE326:
  46              	.LBB328:
  47              	.LBB329:
  48              		.loc 2 333 0
  49              	@ 333 "../ChibiOS/os/ext/CMSIS/include/core_cmFunc.h" 1
  50 0006 62B6     		cpsie i
  51              	@ 0 "" 2
  52              		.thumb
  53              	.LBE329:
  54              	.LBE328:
  55              	.LBE325:
  56              	.LBE324:
  57              	.LBB330:
ARM GAS  /tmp/ccrXC91b.s 			page 2


  58              	.LBB331:
  59              	.LBB332:
  60              	.LBB333:
  61              		.loc 2 344 0
  62              	@ 344 "../ChibiOS/os/ext/CMSIS/include/core_cmFunc.h" 1
  63 0008 72B6     		cpsid i
  64              	@ 0 "" 2
  65              	.LVL1:
  66              		.thumb
  67              	.LBE333:
  68              	.LBE332:
  69              	.LBE331:
  70              	.LBE330:
  71              	.LBB334:
  72              	.LBB335:
  73              	.LBB336:
  74              	.LBB337:
  75              		.loc 2 548 0
  76              	@ 548 "../ChibiOS/os/ext/CMSIS/include/core_cmFunc.h" 1
  77 000a 83F31188 		MSR basepri, r3
  78              	@ 0 "" 2
  79              		.thumb
  80              	.LBE337:
  81              	.LBE336:
  82              	.LBB338:
  83              	.LBB339:
  84              		.loc 2 333 0
  85              	@ 333 "../ChibiOS/os/ext/CMSIS/include/core_cmFunc.h" 1
  86 000e 62B6     		cpsie i
  87              	@ 0 "" 2
  88              	.LVL2:
  89              		.thumb
  90              	.LBE339:
  91              	.LBE338:
  92              	.LBE335:
  93              	.LBE334:
  94              	.LBB340:
  95              	.LBB341:
  96              	.LBB342:
  97              	.LBB343:
  98              		.loc 2 548 0
  99 0010 0023     		movs	r3, #0
 100              	@ 548 "../ChibiOS/os/ext/CMSIS/include/core_cmFunc.h" 1
 101 0012 83F31188 		MSR basepri, r3
 102              	@ 0 "" 2
 103              		.thumb
 104              	.LBE343:
 105              	.LBE342:
 106              	.LBB344:
 107              	.LBB345:
 108              		.loc 2 333 0
 109              	@ 333 "../ChibiOS/os/ext/CMSIS/include/core_cmFunc.h" 1
 110 0016 62B6     		cpsie i
 111              	@ 0 "" 2
 112              		.thumb
 113 0018 7047     		bx	lr
 114              	.LBE345:
ARM GAS  /tmp/ccrXC91b.s 			page 3


 115              	.LBE344:
 116              	.LBE341:
 117              	.LBE340:
 118              		.cfi_endproc
 119              	.LFE243:
 120              		.size	sys2_execute, .-sys2_execute
 121 001a 00BFAFF3 		.section	.text.vtcb,"ax",%progbits
 121      0080
 122              		.align	2
 123              		.p2align 4,,15
 124              		.thumb
 125              		.thumb_func
 126              		.type	vtcb, %function
 127              	vtcb:
 128              	.LFB241:
 129              		.loc 1 53 0
 130              		.cfi_startproc
 131              		@ args = 0, pretend = 0, frame = 0
 132              		@ frame_needed = 0, uses_anonymous_args = 0
 133              	.LVL3:
 134 0000 10B5     		push	{r4, lr}
 135              		.cfi_def_cfa_offset 8
 136              		.cfi_offset 4, -8
 137              		.cfi_offset 14, -4
 138              	.LBB346:
 139              	.LBB347:
 140              	.LBB348:
 141              	.LBB349:
 142              	.LBB350:
 143              		.loc 2 548 0
 144 0002 2023     		movs	r3, #32
 145              	@ 548 "../ChibiOS/os/ext/CMSIS/include/core_cmFunc.h" 1
 146 0004 83F31188 		MSR basepri, r3
 147              	@ 0 "" 2
 148              	.LVL4:
 149              		.thumb
 150              	.LBE350:
 151              	.LBE349:
 152              	.LBE348:
 153              	.LBE347:
 154              	.LBE346:
 155              	.LBB351:
 156              	.LBB352:
 157              	.LBB353:
 158              	.LBB354:
 159              	.LBB355:
 160 0008 0024     		movs	r4, #0
 161              	@ 548 "../ChibiOS/os/ext/CMSIS/include/core_cmFunc.h" 1
 162 000a 84F31188 		MSR basepri, r4
 163              	@ 0 "" 2
 164              	.LVL5:
 165              		.thumb
 166              	.LBE355:
 167              	.LBE354:
 168              	.LBE353:
 169              	.LBE352:
 170              	.LBE351:
ARM GAS  /tmp/ccrXC91b.s 			page 4


 171              	.LBB356:
 172              	.LBB357:
 173              	.LBB358:
 174              	.LBB359:
 175              	.LBB360:
 176              	@ 548 "../ChibiOS/os/ext/CMSIS/include/core_cmFunc.h" 1
 177 000e 83F31188 		MSR basepri, r3
 178              	@ 0 "" 2
 179              		.thumb
 180              	.LBE360:
 181              	.LBE359:
 182              	.LBE358:
 183              	.LBE357:
 184              	.LBE356:
 185              		.loc 1 64 0
 186 0012 FFF7FEFF 		bl	chSysGetStatusAndLockX
 187              	.LVL6:
 188              		.loc 1 65 0
 189 0016 FFF7FEFF 		bl	chSysRestoreStatusX
 190              	.LVL7:
 191              	.LBB361:
 192              	.LBB362:
 193              	.LBB363:
 194              	.LBB364:
 195              	.LBB365:
 196              		.loc 2 548 0
 197              	@ 548 "../ChibiOS/os/ext/CMSIS/include/core_cmFunc.h" 1
 198 001a 84F31188 		MSR basepri, r4
 199              	@ 0 "" 2
 200              		.thumb
 201 001e 10BD     		pop	{r4, pc}
 202              	.LBE365:
 203              	.LBE364:
 204              	.LBE363:
 205              	.LBE362:
 206              	.LBE361:
 207              		.cfi_endproc
 208              	.LFE241:
 209              		.size	vtcb, .-vtcb
 210              		.section	.text.sys3_execute,"ax",%progbits
 211              		.align	2
 212              		.p2align 4,,15
 213              		.thumb
 214              		.thumb_func
 215              		.type	sys3_execute, %function
 216              	sys3_execute:
 217              	.LFB244:
 218              		.loc 1 138 0
 219              		.cfi_startproc
 220              		@ args = 0, pretend = 0, frame = 0
 221              		@ frame_needed = 0, uses_anonymous_args = 0
 222              	.LVL8:
 223 0000 38B5     		push	{r3, r4, r5, lr}
 224              		.cfi_def_cfa_offset 16
 225              		.cfi_offset 3, -16
 226              		.cfi_offset 4, -12
 227              		.cfi_offset 5, -8
ARM GAS  /tmp/ccrXC91b.s 			page 5


 228              		.cfi_offset 14, -4
 229              	.LBB431:
 230              	.LBB432:
 231              	.LBB433:
 232              	.LBB434:
 233              		.loc 2 548 0
 234 0002 2024     		movs	r4, #32
 235              	@ 548 "../ChibiOS/os/ext/CMSIS/include/core_cmFunc.h" 1
 236 0004 84F31188 		MSR basepri, r4
 237              	@ 0 "" 2
 238              		.thumb
 239              	.LBE434:
 240              	.LBE433:
 241              	.LBE432:
 242              	.LBE431:
 243              		.loc 1 142 0
 244 0008 0120     		movs	r0, #1
 245 000a FFF7FEFF 		bl	chSysIntegrityCheckI
 246              	.LVL9:
 247              	.LBB435:
 248              	.LBB436:
 249              	.LBB437:
 250              	.LBB438:
 251              	.LBB439:
 252              		.loc 2 548 0
 253 000e 0023     		movs	r3, #0
 254              	@ 548 "../ChibiOS/os/ext/CMSIS/include/core_cmFunc.h" 1
 255 0010 83F31188 		MSR basepri, r3
 256              	@ 0 "" 2
 257              		.thumb
 258              	.LBE439:
 259              	.LBE438:
 260              	.LBE437:
 261              	.LBE436:
 262              	.LBE435:
 263              		.loc 1 144 0
 264 0014 80F00101 		eor	r1, r0, #1
 265 0018 C9B2     		uxtb	r1, r1
 266 001a 0120     		movs	r0, #1
 267              	.LVL10:
 268 001c FFF7FEFF 		bl	_test_assert
 269              	.LVL11:
 270 0020 0546     		mov	r5, r0
 271 0022 00B1     		cbz	r0, .L8
 272              	.L3:
 273 0024 38BD     		pop	{r3, r4, r5, pc}
 274              	.L8:
 275              	.LVL12:
 276              	.LBB440:
 277              	.LBB441:
 278              	.LBB442:
 279              	.LBB443:
 280              		.loc 2 548 0
 281              	@ 548 "../ChibiOS/os/ext/CMSIS/include/core_cmFunc.h" 1
 282 0026 84F31188 		MSR basepri, r4
 283              	@ 0 "" 2
 284              		.thumb
ARM GAS  /tmp/ccrXC91b.s 			page 6


 285              	.LBE443:
 286              	.LBE442:
 287              	.LBE441:
 288              	.LBE440:
 289              		.loc 1 147 0
 290 002a 0220     		movs	r0, #2
 291 002c FFF7FEFF 		bl	chSysIntegrityCheckI
 292              	.LVL13:
 293              	.LBB444:
 294              	.LBB445:
 295              	.LBB446:
 296              	.LBB447:
 297              	.LBB448:
 298              		.loc 2 548 0
 299              	@ 548 "../ChibiOS/os/ext/CMSIS/include/core_cmFunc.h" 1
 300 0030 85F31188 		MSR basepri, r5
 301              	@ 0 "" 2
 302              		.thumb
 303              	.LBE448:
 304              	.LBE447:
 305              	.LBE446:
 306              	.LBE445:
 307              	.LBE444:
 308              		.loc 1 149 0
 309 0034 80F00101 		eor	r1, r0, #1
 310 0038 C9B2     		uxtb	r1, r1
 311 003a 0220     		movs	r0, #2
 312              	.LVL14:
 313 003c FFF7FEFF 		bl	_test_assert
 314              	.LVL15:
 315 0040 0546     		mov	r5, r0
 316 0042 0028     		cmp	r0, #0
 317 0044 EED1     		bne	.L3
 318              	.LVL16:
 319              	.LBB449:
 320              	.LBB450:
 321              	.LBB451:
 322              	.LBB452:
 323              		.loc 2 548 0
 324              	@ 548 "../ChibiOS/os/ext/CMSIS/include/core_cmFunc.h" 1
 325 0046 84F31188 		MSR basepri, r4
 326              	@ 0 "" 2
 327              		.thumb
 328              	.LBE452:
 329              	.LBE451:
 330              	.LBE450:
 331              	.LBE449:
 332              		.loc 1 152 0
 333 004a 0420     		movs	r0, #4
 334 004c FFF7FEFF 		bl	chSysIntegrityCheckI
 335              	.LVL17:
 336              	.LBB453:
 337              	.LBB454:
 338              	.LBB455:
 339              	.LBB456:
 340              	.LBB457:
 341              		.loc 2 548 0
ARM GAS  /tmp/ccrXC91b.s 			page 7


 342              	@ 548 "../ChibiOS/os/ext/CMSIS/include/core_cmFunc.h" 1
 343 0050 85F31188 		MSR basepri, r5
 344              	@ 0 "" 2
 345              		.thumb
 346              	.LBE457:
 347              	.LBE456:
 348              	.LBE455:
 349              	.LBE454:
 350              	.LBE453:
 351              		.loc 1 154 0
 352 0054 80F00101 		eor	r1, r0, #1
 353 0058 C9B2     		uxtb	r1, r1
 354 005a 0320     		movs	r0, #3
 355              	.LVL18:
 356 005c FFF7FEFF 		bl	_test_assert
 357              	.LVL19:
 358 0060 0546     		mov	r5, r0
 359 0062 0028     		cmp	r0, #0
 360 0064 DED1     		bne	.L3
 361              	.LVL20:
 362              	.LBB458:
 363              	.LBB459:
 364              	.LBB460:
 365              	.LBB461:
 366              	.LBB462:
 367              	.LBB463:
 368              		.loc 2 548 0
 369              	@ 548 "../ChibiOS/os/ext/CMSIS/include/core_cmFunc.h" 1
 370 0066 84F31188 		MSR basepri, r4
 371              	@ 0 "" 2
 372              		.thumb
 373              	.LBE463:
 374              	.LBE462:
 375              	.LBE461:
 376              	.LBE460:
 377              		.loc 1 157 0
 378 006a 0820     		movs	r0, #8
 379 006c FFF7FEFF 		bl	chSysIntegrityCheckI
 380              	.LVL21:
 381              	.LBB464:
 382              	.LBB465:
 383              	.LBB466:
 384              	.LBB467:
 385              	.LBB468:
 386              		.loc 2 548 0
 387              	@ 548 "../ChibiOS/os/ext/CMSIS/include/core_cmFunc.h" 1
 388 0070 85F31188 		MSR basepri, r5
 389              	@ 0 "" 2
 390              		.thumb
 391              	.LBE468:
 392              	.LBE467:
 393              	.LBE466:
 394              	.LBE465:
 395              	.LBE464:
 396              		.loc 1 159 0
 397 0074 80F00101 		eor	r1, r0, #1
 398 0078 C9B2     		uxtb	r1, r1
ARM GAS  /tmp/ccrXC91b.s 			page 8


 399 007a 0420     		movs	r0, #4
 400              	.LVL22:
 401              	.LBE459:
 402              	.LBE458:
 403              		.loc 1 160 0
 404 007c BDE83840 		pop	{r3, r4, r5, lr}
 405              	.LBB470:
 406              	.LBB469:
 407              		.loc 1 159 0
 408 0080 FFF7FEBF 		b	_test_assert
 409              	.LVL23:
 410              	.LBE469:
 411              	.LBE470:
 412              		.cfi_endproc
 413              	.LFE244:
 414              		.size	sys3_execute, .-sys3_execute
 415 0084 AFF30080 		.section	.text.sys1_execute,"ax",%progbits
 415      AFF30080 
 415      AFF30080 
 416              		.align	2
 417              		.p2align 4,,15
 418              		.thumb
 419              		.thumb_func
 420              		.type	sys1_execute, %function
 421              	sys1_execute:
 422              	.LFB242:
 423              		.loc 1 69 0
 424              		.cfi_startproc
 425              		@ args = 0, pretend = 0, frame = 24
 426              		@ frame_needed = 0, uses_anonymous_args = 0
 427 0000 10B5     		push	{r4, lr}
 428              		.cfi_def_cfa_offset 8
 429              		.cfi_offset 4, -8
 430              		.cfi_offset 14, -4
 431 0002 86B0     		sub	sp, sp, #24
 432              		.cfi_def_cfa_offset 32
 433              		.loc 1 74 0
 434 0004 FFF7FEFF 		bl	chSysGetStatusAndLockX
 435              	.LVL24:
 436              		.loc 1 75 0
 437 0008 FFF7FEFF 		bl	chSysRestoreStatusX
 438              	.LVL25:
 439              	.LBB561:
 440              	.LBB562:
 441              	.LBB563:
 442              	.LBB564:
 443              		.loc 2 548 0
 444 000c 2024     		movs	r4, #32
 445              	@ 548 "../ChibiOS/os/ext/CMSIS/include/core_cmFunc.h" 1
 446 000e 84F31188 		MSR basepri, r4
 447              	@ 0 "" 2
 448              		.thumb
 449              	.LBE564:
 450              	.LBE563:
 451              	.LBE562:
 452              	.LBE561:
 453              		.loc 1 79 0
ARM GAS  /tmp/ccrXC91b.s 			page 9


 454 0012 FFF7FEFF 		bl	chSysGetStatusAndLockX
 455              	.LVL26:
 456              		.loc 1 80 0
 457 0016 FFF7FEFF 		bl	chSysRestoreStatusX
 458              	.LVL27:
 459              	.LBB565:
 460              	.LBB566:
 461              	.LBB567:
 462              	.LBB568:
 463              	.LBB569:
 464              		.loc 2 548 0
 465 001a 0023     		movs	r3, #0
 466              	@ 548 "../ChibiOS/os/ext/CMSIS/include/core_cmFunc.h" 1
 467 001c 83F31188 		MSR basepri, r3
 468              	@ 0 "" 2
 469              		.thumb
 470              	.LBE569:
 471              	.LBE568:
 472              	.LBE567:
 473              	.LBE566:
 474              	.LBE565:
 475              	.LBB570:
 476              	.LBB571:
 477              	.LBB572:
 478              	.LBB573:
 479              	.LBB574:
 480              	.LBB575:
 481              		.loc 2 535 0
 482              	@ 535 "../ChibiOS/os/ext/CMSIS/include/core_cmFunc.h" 1
 483 0020 EFF31183 		MRS r3, basepri
 484              	@ 0 "" 2
 485              	.LVL28:
 486              		.thumb
 487              	.LBE575:
 488              	.LBE574:
 489              	.LBE573:
 490              	.LBE572:
 491              		.file 3 "../ChibiOS/os/rt/include/chsys.h"
 492              		.loc 3 422 0
 493 0024 0BB9     		cbnz	r3, .L10
 494              	.LVL29:
 495              	.LBB576:
 496              	.LBB577:
 497              	.LBB578:
 498              	.LBB579:
 499              		.loc 2 548 0
 500              	@ 548 "../ChibiOS/os/ext/CMSIS/include/core_cmFunc.h" 1
 501 0026 84F31188 		MSR basepri, r4
 502              	@ 0 "" 2
 503              	.LVL30:
 504              		.thumb
 505              	.L10:
 506              	.LBE579:
 507              	.LBE578:
 508              	.LBE577:
 509              	.LBE576:
 510              	.LBE571:
ARM GAS  /tmp/ccrXC91b.s 			page 10


 511              	.LBE570:
 512              	.LBB580:
 513              	.LBB581:
 514              	.LBB582:
 515              	.LBB583:
 516              	.LBB584:
 517              	.LBB585:
 518              		.loc 2 535 0
 519              	@ 535 "../ChibiOS/os/ext/CMSIS/include/core_cmFunc.h" 1
 520 002a EFF31183 		MRS r3, basepri
 521              	@ 0 "" 2
 522              	.LVL31:
 523              		.thumb
 524              	.LBE585:
 525              	.LBE584:
 526              	.LBE583:
 527              	.LBE582:
 528              		.loc 3 422 0
 529 002e 13B9     		cbnz	r3, .L11
 530              	.LVL32:
 531              	.LBB586:
 532              	.LBB587:
 533              	.LBB588:
 534              	.LBB589:
 535              		.loc 2 548 0
 536 0030 2023     		movs	r3, #32
 537              	.LVL33:
 538              	@ 548 "../ChibiOS/os/ext/CMSIS/include/core_cmFunc.h" 1
 539 0032 83F31188 		MSR basepri, r3
 540              	@ 0 "" 2
 541              	.LVL34:
 542              		.thumb
 543              	.L11:
 544              	.LBE589:
 545              	.LBE588:
 546              	.LBE587:
 547              	.LBE586:
 548              	.LBE581:
 549              	.LBE580:
 550              	.LBB590:
 551              	.LBB591:
 552              	.LBB592:
 553              	.LBB593:
 554              	.LBB594:
 555 0036 0023     		movs	r3, #0
 556              	@ 548 "../ChibiOS/os/ext/CMSIS/include/core_cmFunc.h" 1
 557 0038 83F31188 		MSR basepri, r3
 558              	@ 0 "" 2
 559              	.LVL35:
 560              		.thumb
 561              	.LBE594:
 562              	.LBE593:
 563              	.LBE592:
 564              	.LBE591:
 565              	.LBE590:
 566              	.LBB595:
 567              	.LBB596:
ARM GAS  /tmp/ccrXC91b.s 			page 11


 568              	.LBB597:
 569              	.LBB598:
 570 003c 2022     		movs	r2, #32
 571              	@ 548 "../ChibiOS/os/ext/CMSIS/include/core_cmFunc.h" 1
 572 003e 82F31188 		MSR basepri, r2
 573              	@ 0 "" 2
 574              		.thumb
 575              	.LBE598:
 576              	.LBE597:
 577              	.LBE596:
 578              	.LBE595:
 579              	.LBB599:
 580              	.LBB600:
 581              	.LBB601:
 582              	.LBB602:
 583              	.LBB603:
 584              	.LBB604:
 585              		.loc 2 535 0
 586              	@ 535 "../ChibiOS/os/ext/CMSIS/include/core_cmFunc.h" 1
 587 0042 EFF31182 		MRS r2, basepri
 588              	@ 0 "" 2
 589              	.LVL36:
 590              		.thumb
 591              	.LBE604:
 592              	.LBE603:
 593              	.LBE602:
 594              	.LBE601:
 595              		.loc 3 436 0
 596 0046 0AB1     		cbz	r2, .L12
 597              	.LVL37:
 598              	.LBB605:
 599              	.LBB606:
 600              	.LBB607:
 601              	.LBB608:
 602              	.LBB609:
 603              		.loc 2 548 0
 604              	@ 548 "../ChibiOS/os/ext/CMSIS/include/core_cmFunc.h" 1
 605 0048 83F31188 		MSR basepri, r3
 606              	@ 0 "" 2
 607              	.LVL38:
 608              		.thumb
 609              	.L12:
 610              	.LBE609:
 611              	.LBE608:
 612              	.LBE607:
 613              	.LBE606:
 614              	.LBE605:
 615              	.LBE600:
 616              	.LBE599:
 617              	.LBB610:
 618              	.LBB611:
 619              	.LBB612:
 620              	.LBB613:
 621              	.LBB614:
 622              	.LBB615:
 623              		.loc 2 535 0
 624              	@ 535 "../ChibiOS/os/ext/CMSIS/include/core_cmFunc.h" 1
ARM GAS  /tmp/ccrXC91b.s 			page 12


 625 004c EFF31183 		MRS r3, basepri
 626              	@ 0 "" 2
 627              	.LVL39:
 628              		.thumb
 629              	.LBE615:
 630              	.LBE614:
 631              	.LBE613:
 632              	.LBE612:
 633              		.loc 3 436 0
 634 0050 13B1     		cbz	r3, .L13
 635              	.LVL40:
 636              	.LBB616:
 637              	.LBB617:
 638              	.LBB618:
 639              	.LBB619:
 640              	.LBB620:
 641              		.loc 2 548 0
 642 0052 0023     		movs	r3, #0
 643              	.LVL41:
 644              	@ 548 "../ChibiOS/os/ext/CMSIS/include/core_cmFunc.h" 1
 645 0054 83F31188 		MSR basepri, r3
 646              	@ 0 "" 2
 647              	.LVL42:
 648              		.thumb
 649              	.L13:
 650              	.LBE620:
 651              	.LBE619:
 652              	.LBE618:
 653              	.LBE617:
 654              	.LBE616:
 655              	.LBE611:
 656              	.LBE610:
 657              	.LBB621:
 658              	.LBB622:
 659              		.file 4 "../ChibiOS/os/rt/include/chvt.h"
 660              		.loc 4 212 0
 661 0058 0023     		movs	r3, #0
 662 005a 0493     		str	r3, [sp, #16]
 663              	.LVL43:
 664              	.LBE622:
 665              	.LBE621:
 666              	.LBB623:
 667              	.LBB624:
 668              	.LBB625:
 669              	.LBB626:
 670              	.LBB627:
 671              		.loc 2 548 0
 672 005c 2023     		movs	r3, #32
 673              	@ 548 "../ChibiOS/os/ext/CMSIS/include/core_cmFunc.h" 1
 674 005e 83F31188 		MSR basepri, r3
 675              	@ 0 "" 2
 676              	.LVL44:
 677              		.thumb
 678              	.LBE627:
 679              	.LBE626:
 680              	.LBE625:
 681              	.LBE624:
ARM GAS  /tmp/ccrXC91b.s 			page 13


 682              	.LBB628:
 683              	.LBB629:
 684              	.LBB630:
 685              	.LBB631:
 686              		.loc 4 412 0
 687 0062 049B     		ldr	r3, [sp, #16]
 688              		.loc 4 413 0
 689 0064 01AC     		add	r4, sp, #4
 690              	.LVL45:
 691              		.loc 4 412 0
 692 0066 13B1     		cbz	r3, .L14
 693              		.loc 4 413 0
 694 0068 2046     		mov	r0, r4
 695 006a FFF7FEFF 		bl	chVTDoResetI
 696              	.LVL46:
 697              	.L14:
 698              	.LBE631:
 699              	.LBE630:
 700              		.loc 4 460 0
 701 006e 2046     		mov	r0, r4
 702 0070 0121     		movs	r1, #1
 703 0072 0C4A     		ldr	r2, .L26
 704 0074 0023     		movs	r3, #0
 705 0076 FFF7FEFF 		bl	chVTDoSetI
 706              	.LVL47:
 707              	.LBE629:
 708              	.LBE628:
 709              	.LBB632:
 710              	.LBB633:
 711              	.LBB634:
 712              	.LBB635:
 713              	.LBB636:
 714              		.loc 2 548 0
 715 007a 0024     		movs	r4, #0
 716              	.LVL48:
 717              	@ 548 "../ChibiOS/os/ext/CMSIS/include/core_cmFunc.h" 1
 718 007c 84F31188 		MSR basepri, r4
 719              	@ 0 "" 2
 720              		.thumb
 721              	.LBE636:
 722              	.LBE635:
 723              	.LBE634:
 724              	.LBE633:
 725              	.LBE632:
 726              	.LBE623:
 727              		.loc 1 96 0
 728 0080 0A20     		movs	r0, #10
 729 0082 FFF7FEFF 		bl	chThdSleep
 730              	.LVL49:
 731              	.LBB637:
 732              	.LBB638:
 733              	.LBB639:
 734              	.LBB640:
 735              	.LBB641:
 736              	.LBB642:
 737              		.loc 2 548 0
 738 0086 2023     		movs	r3, #32
ARM GAS  /tmp/ccrXC91b.s 			page 14


 739              	@ 548 "../ChibiOS/os/ext/CMSIS/include/core_cmFunc.h" 1
 740 0088 83F31188 		MSR basepri, r3
 741              	@ 0 "" 2
 742              		.thumb
 743              	.LBE642:
 744              	.LBE641:
 745              	.LBE640:
 746              	.LBE639:
 747              	.LBE638:
 748              	.LBE637:
 749              		.loc 4 390 0
 750 008c 0499     		ldr	r1, [sp, #16]
 751              	.LVL50:
 752              	.LBB649:
 753              	.LBB648:
 754              	.LBB643:
 755              	.LBB644:
 756              	.LBB645:
 757              	.LBB646:
 758              	.LBB647:
 759              		.loc 2 548 0
 760              	@ 548 "../ChibiOS/os/ext/CMSIS/include/core_cmFunc.h" 1
 761 008e 84F31188 		MSR basepri, r4
 762              	@ 0 "" 2
 763              		.thumb
 764              	.LBE647:
 765              	.LBE646:
 766              	.LBE645:
 767              	.LBE644:
 768              	.LBE643:
 769              	.LBE648:
 770              	.LBE649:
 771              		.loc 1 98 0
 772 0092 0B1B     		subs	r3, r1, r4
 773 0094 5942     		rsbs	r1, r3, #0
 774 0096 5941     		adcs	r1, r1, r3
 775 0098 0120     		movs	r0, #1
 776 009a FFF7FEFF 		bl	_test_assert
 777              	.LVL51:
 778              		.loc 1 99 0
 779 009e 06B0     		add	sp, sp, #24
 780              		@ sp needed
 781 00a0 10BD     		pop	{r4, pc}
 782              	.LVL52:
 783              	.L27:
 784 00a2 00BF     		.align	2
 785              	.L26:
 786 00a4 00000000 		.word	vtcb
 787              		.cfi_endproc
 788              	.LFE242:
 789              		.size	sys1_execute, .-sys1_execute
 790              		.global	patternsys
 791              		.global	testsys3
 792              		.global	testsys2
 793              		.global	testsys1
 794 00a8 AFF30080 		.section	.rodata.testsys1,"a",%progbits
 794      AFF30080 
ARM GAS  /tmp/ccrXC91b.s 			page 15


 795              		.align	2
 796              		.type	testsys1, %object
 797              		.size	testsys1, 16
 798              	testsys1:
 799 0000 30000000 		.word	.LC2
 800 0004 00000000 		.word	0
 801 0008 00000000 		.word	0
 802 000c 00000000 		.word	sys1_execute
 803              		.section	.rodata.testsys2,"a",%progbits
 804              		.align	2
 805              		.type	testsys2, %object
 806              		.size	testsys2, 16
 807              	testsys2:
 808 0000 14000000 		.word	.LC1
 809 0004 00000000 		.word	0
 810 0008 00000000 		.word	0
 811 000c 00000000 		.word	sys2_execute
 812              		.section	.rodata.testsys3,"a",%progbits
 813              		.align	2
 814              		.type	testsys3, %object
 815              		.size	testsys3, 16
 816              	testsys3:
 817 0000 00000000 		.word	.LC0
 818 0004 00000000 		.word	0
 819 0008 00000000 		.word	0
 820 000c 00000000 		.word	sys3_execute
 821              		.section	.rodata.str1.4,"aMS",%progbits,1
 822              		.align	2
 823              	.LC0:
 824 0000 53797374 		.ascii	"System, integrity\000"
 824      656D2C20 
 824      696E7465 
 824      67726974 
 824      7900
 825 0012 0000     		.space	2
 826              	.LC1:
 827 0014 53797374 		.ascii	"System, interrupts handling\000"
 827      656D2C20 
 827      696E7465 
 827      72727570 
 827      74732068 
 828              	.LC2:
 829 0030 53797374 		.ascii	"System, critical zones\000"
 829      656D2C20 
 829      63726974 
 829      6963616C 
 829      207A6F6E 
 830 0047 00       		.section	.rodata.patternsys,"a",%progbits
 831              		.align	2
 832              		.type	patternsys, %object
 833              		.size	patternsys, 16
 834              	patternsys:
 835 0000 00000000 		.word	testsys1
 836 0004 00000000 		.word	testsys2
 837 0008 00000000 		.word	testsys3
 838 000c 00000000 		.word	0
 839              		.text
ARM GAS  /tmp/ccrXC91b.s 			page 16


 840              	.Letext0:
 841              		.file 5 "/nfs/nfs5/home/research/hardware/arm2/gcc-arm-embedded/gcc-arm-none-eabi-4_8-2014q2/lib/g
 842              		.file 6 "/nfs/nfs5/home/research/hardware/arm2/gcc-arm-embedded/gcc-arm-none-eabi-4_8-2014q2/arm-n
 843              		.file 7 "/nfs/nfs5/home/research/hardware/arm2/gcc-arm-embedded/gcc-arm-none-eabi-4_8-2014q2/arm-n
 844              		.file 8 "../ChibiOS/os/rt/ports/ARMCMx/compilers/GCC/chtypes.h"
 845              		.file 9 "../ChibiOS/os/rt/include/chsystypes.h"
 846              		.file 10 "../ChibiOS/os/rt/include/chschd.h"
 847              		.file 11 "../ChibiOS/os/rt/ports/ARMCMx/chcore.h"
 848              		.file 12 "../ChibiOS/os/rt/ports/ARMCMx/chcore_v7m.h"
 849              		.file 13 "../ChibiOS/os/rt/include/chtm.h"
 850              		.file 14 "../ChibiOS/os/rt/include/chsem.h"
 851              		.file 15 "../ChibiOS/os/rt/include/chmtx.h"
 852              		.file 16 "../ChibiOS/test/rt/test.h"
 853              		.file 17 "../ChibiOS/os/ext/CMSIS/include/core_cm4.h"
 854              		.file 18 "../ChibiOS/os/rt/include/chthreads.h"