Archive member included because of file (symbol)

/nfs/nfs5/home/research/hardware/arm2/gcc-arm-embedded/gcc-arm-none-eabi-4_8-2014q2/bin/../lib/gcc/arm-none-eabi/4.8.4/armv7e-m/libgcc.a(_arm_addsubdf3.o)
                              build/obj/main.o (__aeabi_dsub)
/nfs/nfs5/home/research/hardware/arm2/gcc-arm-embedded/gcc-arm-none-eabi-4_8-2014q2/bin/../lib/gcc/arm-none-eabi/4.8.4/armv7e-m/libgcc.a(_arm_muldivdf3.o)
                              build/obj/main.o (__aeabi_dmul)
/nfs/nfs5/home/research/hardware/arm2/gcc-arm-embedded/gcc-arm-none-eabi-4_8-2014q2/bin/../lib/gcc/arm-none-eabi/4.8.4/armv7e-m/libgcc.a(_arm_fixdfsi.o)
                              build/obj/main.o (__aeabi_d2iz)
/nfs/nfs5/home/research/hardware/arm2/gcc-arm-embedded/gcc-arm-none-eabi-4_8-2014q2/bin/../lib/gcc/arm-none-eabi/4.8.4/../../../../arm-none-eabi/lib/armv7e-m/libg.a(lib_a-asctime.o)
                              build/obj/main.o (asctime)
/nfs/nfs5/home/research/hardware/arm2/gcc-arm-embedded/gcc-arm-none-eabi-4_8-2014q2/bin/../lib/gcc/arm-none-eabi/4.8.4/../../../../arm-none-eabi/lib/armv7e-m/libg.a(lib_a-asctime_r.o)
                              /nfs/nfs5/home/research/hardware/arm2/gcc-arm-embedded/gcc-arm-none-eabi-4_8-2014q2/bin/../lib/gcc/arm-none-eabi/4.8.4/../../../../arm-none-eabi/lib/armv7e-m/libg.a(lib_a-asctime.o) (asctime_r)
/nfs/nfs5/home/research/hardware/arm2/gcc-arm-embedded/gcc-arm-none-eabi-4_8-2014q2/bin/../lib/gcc/arm-none-eabi/4.8.4/../../../../arm-none-eabi/lib/armv7e-m/libg.a(lib_a-atoi.o)
                              build/obj/main.o (atoi)
/nfs/nfs5/home/research/hardware/arm2/gcc-arm-embedded/gcc-arm-none-eabi-4_8-2014q2/bin/../lib/gcc/arm-none-eabi/4.8.4/../../../../arm-none-eabi/lib/armv7e-m/libg.a(lib_a-impure.o)
                              /nfs/nfs5/home/research/hardware/arm2/gcc-arm-embedded/gcc-arm-none-eabi-4_8-2014q2/bin/../lib/gcc/arm-none-eabi/4.8.4/../../../../arm-none-eabi/lib/armv7e-m/libg.a(lib_a-asctime.o) (_impure_ptr)
/nfs/nfs5/home/research/hardware/arm2/gcc-arm-embedded/gcc-arm-none-eabi-4_8-2014q2/bin/../lib/gcc/arm-none-eabi/4.8.4/../../../../arm-none-eabi/lib/armv7e-m/libg.a(lib_a-lcltime.o)
                              build/obj/main.o (localtime)
/nfs/nfs5/home/research/hardware/arm2/gcc-arm-embedded/gcc-arm-none-eabi-4_8-2014q2/bin/../lib/gcc/arm-none-eabi/4.8.4/../../../../arm-none-eabi/lib/armv7e-m/libg.a(lib_a-lcltime_r.o)
                              /nfs/nfs5/home/research/hardware/arm2/gcc-arm-embedded/gcc-arm-none-eabi-4_8-2014q2/bin/../lib/gcc/arm-none-eabi/4.8.4/../../../../arm-none-eabi/lib/armv7e-m/libg.a(lib_a-lcltime.o) (localtime_r)
/nfs/nfs5/home/research/hardware/arm2/gcc-arm-embedded/gcc-arm-none-eabi-4_8-2014q2/bin/../lib/gcc/arm-none-eabi/4.8.4/../../../../arm-none-eabi/lib/armv7e-m/libg.a(lib_a-memcpy.o)
                              build/obj/hal_buffers.o (memcpy)
/nfs/nfs5/home/research/hardware/arm2/gcc-arm-embedded/gcc-arm-none-eabi-4_8-2014q2/bin/../lib/gcc/arm-none-eabi/4.8.4/../../../../arm-none-eabi/lib/armv7e-m/libg.a(lib_a-memset.o)
                              build/obj/syscalls.o (memset)
/nfs/nfs5/home/research/hardware/arm2/gcc-arm-embedded/gcc-arm-none-eabi-4_8-2014q2/bin/../lib/gcc/arm-none-eabi/4.8.4/../../../../arm-none-eabi/lib/armv7e-m/libg.a(lib_a-mktm_r.o)
                              /nfs/nfs5/home/research/hardware/arm2/gcc-arm-embedded/gcc-arm-none-eabi-4_8-2014q2/bin/../lib/gcc/arm-none-eabi/4.8.4/../../../../arm-none-eabi/lib/armv7e-m/libg.a(lib_a-lcltime_r.o) (_mktm_r)
/nfs/nfs5/home/research/hardware/arm2/gcc-arm-embedded/gcc-arm-none-eabi-4_8-2014q2/bin/../lib/gcc/arm-none-eabi/4.8.4/../../../../arm-none-eabi/lib/armv7e-m/libg.a(lib_a-siprintf.o)
                              /nfs/nfs5/home/research/hardware/arm2/gcc-arm-embedded/gcc-arm-none-eabi-4_8-2014q2/bin/../lib/gcc/arm-none-eabi/4.8.4/../../../../arm-none-eabi/lib/armv7e-m/libg.a(lib_a-asctime_r.o) (siprintf)
/nfs/nfs5/home/research/hardware/arm2/gcc-arm-embedded/gcc-arm-none-eabi-4_8-2014q2/bin/../lib/gcc/arm-none-eabi/4.8.4/../../../../arm-none-eabi/lib/armv7e-m/libg.a(lib_a-sprintf.o)
                              build/obj/main.o (sprintf)
/nfs/nfs5/home/research/hardware/arm2/gcc-arm-embedded/gcc-arm-none-eabi-4_8-2014q2/bin/../lib/gcc/arm-none-eabi/4.8.4/../../../../arm-none-eabi/lib/armv7e-m/libg.a(lib_a-strcmp.o)
                              build/obj/shell.o (strcmp)
/nfs/nfs5/home/research/hardware/arm2/gcc-arm-embedded/gcc-arm-none-eabi-4_8-2014q2/bin/../lib/gcc/arm-none-eabi/4.8.4/../../../../arm-none-eabi/lib/armv7e-m/libg.a(lib_a-strlen.o)
                              build/obj/main.o (strlen)
/nfs/nfs5/home/research/hardware/arm2/gcc-arm-embedded/gcc-arm-none-eabi-4_8-2014q2/bin/../lib/gcc/arm-none-eabi/4.8.4/../../../../arm-none-eabi/lib/armv7e-m/libg.a(lib_a-strpbrk.o)
                              build/obj/shell.o (strpbrk)
/nfs/nfs5/home/research/hardware/arm2/gcc-arm-embedded/gcc-arm-none-eabi-4_8-2014q2/bin/../lib/gcc/arm-none-eabi/4.8.4/../../../../arm-none-eabi/lib/armv7e-m/libg.a(lib_a-strspn.o)
                              build/obj/shell.o (strspn)
/nfs/nfs5/home/research/hardware/arm2/gcc-arm-embedded/gcc-arm-none-eabi-4_8-2014q2/bin/../lib/gcc/arm-none-eabi/4.8.4/../../../../arm-none-eabi/lib/armv7e-m/libg.a(lib_a-strstr.o)
                              build/obj/main.o (strstr)
/nfs/nfs5/home/research/hardware/arm2/gcc-arm-embedded/gcc-arm-none-eabi-4_8-2014q2/bin/../lib/gcc/arm-none-eabi/4.8.4/../../../../arm-none-eabi/lib/armv7e-m/libg.a(lib_a-strtol.o)
                              /nfs/nfs5/home/research/hardware/arm2/gcc-arm-embedded/gcc-arm-none-eabi-4_8-2014q2/bin/../lib/gcc/arm-none-eabi/4.8.4/../../../../arm-none-eabi/lib/armv7e-m/libg.a(lib_a-atoi.o) (_strtol_r)
/nfs/nfs5/home/research/hardware/arm2/gcc-arm-embedded/gcc-arm-none-eabi-4_8-2014q2/bin/../lib/gcc/arm-none-eabi/4.8.4/../../../../arm-none-eabi/lib/armv7e-m/libg.a(lib_a-svfiprintf.o)
                              /nfs/nfs5/home/research/hardware/arm2/gcc-arm-embedded/gcc-arm-none-eabi-4_8-2014q2/bin/../lib/gcc/arm-none-eabi/4.8.4/../../../../arm-none-eabi/lib/armv7e-m/libg.a(lib_a-siprintf.o) (_svfiprintf_r)
/nfs/nfs5/home/research/hardware/arm2/gcc-arm-embedded/gcc-arm-none-eabi-4_8-2014q2/bin/../lib/gcc/arm-none-eabi/4.8.4/../../../../arm-none-eabi/lib/armv7e-m/libg.a(lib_a-svfprintf.o)
                              /nfs/nfs5/home/research/hardware/arm2/gcc-arm-embedded/gcc-arm-none-eabi-4_8-2014q2/bin/../lib/gcc/arm-none-eabi/4.8.4/../../../../arm-none-eabi/lib/armv7e-m/libg.a(lib_a-sprintf.o) (_svfprintf_r)
/nfs/nfs5/home/research/hardware/arm2/gcc-arm-embedded/gcc-arm-none-eabi-4_8-2014q2/bin/../lib/gcc/arm-none-eabi/4.8.4/../../../../arm-none-eabi/lib/armv7e-m/libg.a(lib_a-tzlock.o)
                              /nfs/nfs5/home/research/hardware/arm2/gcc-arm-embedded/gcc-arm-none-eabi-4_8-2014q2/bin/../lib/gcc/arm-none-eabi/4.8.4/../../../../arm-none-eabi/lib/armv7e-m/libg.a(lib_a-mktm_r.o) (__tz_lock)
/nfs/nfs5/home/research/hardware/arm2/gcc-arm-embedded/gcc-arm-none-eabi-4_8-2014q2/bin/../lib/gcc/arm-none-eabi/4.8.4/../../../../arm-none-eabi/lib/armv7e-m/libg.a(lib_a-tzvars.o)
                              /nfs/nfs5/home/research/hardware/arm2/gcc-arm-embedded/gcc-arm-none-eabi-4_8-2014q2/bin/../lib/gcc/arm-none-eabi/4.8.4/../../../../arm-none-eabi/lib/armv7e-m/libg.a(lib_a-mktm_r.o) (_daylight)
/nfs/nfs5/home/research/hardware/arm2/gcc-arm-embedded/gcc-arm-none-eabi-4_8-2014q2/bin/../lib/gcc/arm-none-eabi/4.8.4/../../../../arm-none-eabi/lib/armv7e-m/libg.a(lib_a-ctype_.o)
                              /nfs/nfs5/home/research/hardware/arm2/gcc-arm-embedded/gcc-arm-none-eabi-4_8-2014q2/bin/../lib/gcc/arm-none-eabi/4.8.4/../../../../arm-none-eabi/lib/armv7e-m/libg.a(lib_a-strtol.o) (__ctype_ptr__)
/nfs/nfs5/home/research/hardware/arm2/gcc-arm-embedded/gcc-arm-none-eabi-4_8-2014q2/bin/../lib/gcc/arm-none-eabi/4.8.4/../../../../arm-none-eabi/lib/armv7e-m/libg.a(lib_a-dtoa.o)
                              /nfs/nfs5/home/research/hardware/arm2/gcc-arm-embedded/gcc-arm-none-eabi-4_8-2014q2/bin/../lib/gcc/arm-none-eabi/4.8.4/../../../../arm-none-eabi/lib/armv7e-m/libg.a(lib_a-svfprintf.o) (_dtoa_r)
/nfs/nfs5/home/research/hardware/arm2/gcc-arm-embedded/gcc-arm-none-eabi-4_8-2014q2/bin/../lib/gcc/arm-none-eabi/4.8.4/../../../../arm-none-eabi/lib/armv7e-m/libg.a(lib_a-freer.o)
                              /nfs/nfs5/home/research/hardware/arm2/gcc-arm-embedded/gcc-arm-none-eabi-4_8-2014q2/bin/../lib/gcc/arm-none-eabi/4.8.4/../../../../arm-none-eabi/lib/armv7e-m/libg.a(lib_a-svfiprintf.o) (_free_r)
/nfs/nfs5/home/research/hardware/arm2/gcc-arm-embedded/gcc-arm-none-eabi-4_8-2014q2/bin/../lib/gcc/arm-none-eabi/4.8.4/../../../../arm-none-eabi/lib/armv7e-m/libg.a(lib_a-gettzinfo.o)
                              /nfs/nfs5/home/research/hardware/arm2/gcc-arm-embedded/gcc-arm-none-eabi-4_8-2014q2/bin/../lib/gcc/arm-none-eabi/4.8.4/../../../../arm-none-eabi/lib/armv7e-m/libg.a(lib_a-mktm_r.o) (__gettzinfo)
/nfs/nfs5/home/research/hardware/arm2/gcc-arm-embedded/gcc-arm-none-eabi-4_8-2014q2/bin/../lib/gcc/arm-none-eabi/4.8.4/../../../../arm-none-eabi/lib/armv7e-m/libg.a(lib_a-locale.o)
                              /nfs/nfs5/home/research/hardware/arm2/gcc-arm-embedded/gcc-arm-none-eabi-4_8-2014q2/bin/../lib/gcc/arm-none-eabi/4.8.4/../../../../arm-none-eabi/lib/armv7e-m/libg.a(lib_a-svfprintf.o) (_localeconv_r)
/nfs/nfs5/home/research/hardware/arm2/gcc-arm-embedded/gcc-arm-none-eabi-4_8-2014q2/bin/../lib/gcc/arm-none-eabi/4.8.4/../../../../arm-none-eabi/lib/armv7e-m/libg.a(lib_a-mallocr.o)
                              /nfs/nfs5/home/research/hardware/arm2/gcc-arm-embedded/gcc-arm-none-eabi-4_8-2014q2/bin/../lib/gcc/arm-none-eabi/4.8.4/../../../../arm-none-eabi/lib/armv7e-m/libg.a(lib_a-svfiprintf.o) (_malloc_r)
/nfs/nfs5/home/research/hardware/arm2/gcc-arm-embedded/gcc-arm-none-eabi-4_8-2014q2/bin/../lib/gcc/arm-none-eabi/4.8.4/../../../../arm-none-eabi/lib/armv7e-m/libg.a(lib_a-memchr-stub.o)
                              /nfs/nfs5/home/research/hardware/arm2/gcc-arm-embedded/gcc-arm-none-eabi-4_8-2014q2/bin/../lib/gcc/arm-none-eabi/4.8.4/../../../../arm-none-eabi/lib/armv7e-m/libg.a(lib_a-strstr.o) (memchr)
/nfs/nfs5/home/research/hardware/arm2/gcc-arm-embedded/gcc-arm-none-eabi-4_8-2014q2/bin/../lib/gcc/arm-none-eabi/4.8.4/../../../../arm-none-eabi/lib/armv7e-m/libg.a(lib_a-memcmp.o)
                              /nfs/nfs5/home/research/hardware/arm2/gcc-arm-embedded/gcc-arm-none-eabi-4_8-2014q2/bin/../lib/gcc/arm-none-eabi/4.8.4/../../../../arm-none-eabi/lib/armv7e-m/libg.a(lib_a-strstr.o) (memcmp)
/nfs/nfs5/home/research/hardware/arm2/gcc-arm-embedded/gcc-arm-none-eabi-4_8-2014q2/bin/../lib/gcc/arm-none-eabi/4.8.4/../../../../arm-none-eabi/lib/armv7e-m/libg.a(lib_a-memmove.o)
                              /nfs/nfs5/home/research/hardware/arm2/gcc-arm-embedded/gcc-arm-none-eabi-4_8-2014q2/bin/../lib/gcc/arm-none-eabi/4.8.4/../../../../arm-none-eabi/lib/armv7e-m/libg.a(lib_a-svfiprintf.o) (memmove)
/nfs/nfs5/home/research/hardware/arm2/gcc-arm-embedded/gcc-arm-none-eabi-4_8-2014q2/bin/../lib/gcc/arm-none-eabi/4.8.4/../../../../arm-none-eabi/lib/armv7e-m/libg.a(lib_a-mlock.o)
                              /nfs/nfs5/home/research/hardware/arm2/gcc-arm-embedded/gcc-arm-none-eabi-4_8-2014q2/bin/../lib/gcc/arm-none-eabi/4.8.4/../../../../arm-none-eabi/lib/armv7e-m/libg.a(lib_a-freer.o) (__malloc_lock)
/nfs/nfs5/home/research/hardware/arm2/gcc-arm-embedded/gcc-arm-none-eabi-4_8-2014q2/bin/../lib/gcc/arm-none-eabi/4.8.4/../../../../arm-none-eabi/lib/armv7e-m/libg.a(lib_a-mprec.o)
                              /nfs/nfs5/home/research/hardware/arm2/gcc-arm-embedded/gcc-arm-none-eabi-4_8-2014q2/bin/../lib/gcc/arm-none-eabi/4.8.4/../../../../arm-none-eabi/lib/armv7e-m/libg.a(lib_a-dtoa.o) (_Balloc)
/nfs/nfs5/home/research/hardware/arm2/gcc-arm-embedded/gcc-arm-none-eabi-4_8-2014q2/bin/../lib/gcc/arm-none-eabi/4.8.4/../../../../arm-none-eabi/lib/armv7e-m/libg.a(lib_a-reallocr.o)
                              /nfs/nfs5/home/research/hardware/arm2/gcc-arm-embedded/gcc-arm-none-eabi-4_8-2014q2/bin/../lib/gcc/arm-none-eabi/4.8.4/../../../../arm-none-eabi/lib/armv7e-m/libg.a(lib_a-svfiprintf.o) (_realloc_r)
/nfs/nfs5/home/research/hardware/arm2/gcc-arm-embedded/gcc-arm-none-eabi-4_8-2014q2/bin/../lib/gcc/arm-none-eabi/4.8.4/../../../../arm-none-eabi/lib/armv7e-m/libg.a(lib_a-s_fpclassify.o)
                              /nfs/nfs5/home/research/hardware/arm2/gcc-arm-embedded/gcc-arm-none-eabi-4_8-2014q2/bin/../lib/gcc/arm-none-eabi/4.8.4/../../../../arm-none-eabi/lib/armv7e-m/libg.a(lib_a-svfprintf.o) (__fpclassifyd)
/nfs/nfs5/home/research/hardware/arm2/gcc-arm-embedded/gcc-arm-none-eabi-4_8-2014q2/bin/../lib/gcc/arm-none-eabi/4.8.4/../../../../arm-none-eabi/lib/armv7e-m/libg.a(lib_a-strchr.o)
                              /nfs/nfs5/home/research/hardware/arm2/gcc-arm-embedded/gcc-arm-none-eabi-4_8-2014q2/bin/../lib/gcc/arm-none-eabi/4.8.4/../../../../arm-none-eabi/lib/armv7e-m/libg.a(lib_a-strstr.o) (strchr)
/nfs/nfs5/home/research/hardware/arm2/gcc-arm-embedded/gcc-arm-none-eabi-4_8-2014q2/bin/../lib/gcc/arm-none-eabi/4.8.4/../../../../arm-none-eabi/lib/armv7e-m/libg.a(lib_a-callocr.o)
                              /nfs/nfs5/home/research/hardware/arm2/gcc-arm-embedded/gcc-arm-none-eabi-4_8-2014q2/bin/../lib/gcc/arm-none-eabi/4.8.4/../../../../arm-none-eabi/lib/armv7e-m/libg.a(lib_a-mprec.o) (_calloc_r)
/nfs/nfs5/home/research/hardware/arm2/gcc-arm-embedded/gcc-arm-none-eabi-4_8-2014q2/bin/../lib/gcc/arm-none-eabi/4.8.4/armv7e-m/libgcc.a(_arm_cmpdf2.o)
                              /nfs/nfs5/home/research/hardware/arm2/gcc-arm-embedded/gcc-arm-none-eabi-4_8-2014q2/bin/../lib/gcc/arm-none-eabi/4.8.4/../../../../arm-none-eabi/lib/armv7e-m/libg.a(lib_a-svfprintf.o) (__aeabi_dcmpeq)
/nfs/nfs5/home/research/hardware/arm2/gcc-arm-embedded/gcc-arm-none-eabi-4_8-2014q2/bin/../lib/gcc/arm-none-eabi/4.8.4/armv7e-m/libgcc.a(_aeabi_uldivmod.o)
                              /nfs/nfs5/home/research/hardware/arm2/gcc-arm-embedded/gcc-arm-none-eabi-4_8-2014q2/bin/../lib/gcc/arm-none-eabi/4.8.4/../../../../arm-none-eabi/lib/armv7e-m/libg.a(lib_a-svfiprintf.o) (__aeabi_uldivmod)
/nfs/nfs5/home/research/hardware/arm2/gcc-arm-embedded/gcc-arm-none-eabi-4_8-2014q2/bin/../lib/gcc/arm-none-eabi/4.8.4/armv7e-m/libgcc.a(bpabi.o)
                              /nfs/nfs5/home/research/hardware/arm2/gcc-arm-embedded/gcc-arm-none-eabi-4_8-2014q2/bin/../lib/gcc/arm-none-eabi/4.8.4/armv7e-m/libgcc.a(_aeabi_uldivmod.o) (__gnu_uldivmod_helper)
/nfs/nfs5/home/research/hardware/arm2/gcc-arm-embedded/gcc-arm-none-eabi-4_8-2014q2/bin/../lib/gcc/arm-none-eabi/4.8.4/armv7e-m/libgcc.a(_dvmd_tls.o)
                              /nfs/nfs5/home/research/hardware/arm2/gcc-arm-embedded/gcc-arm-none-eabi-4_8-2014q2/bin/../lib/gcc/arm-none-eabi/4.8.4/armv7e-m/libgcc.a(_aeabi_uldivmod.o) (__aeabi_ldiv0)
/nfs/nfs5/home/research/hardware/arm2/gcc-arm-embedded/gcc-arm-none-eabi-4_8-2014q2/bin/../lib/gcc/arm-none-eabi/4.8.4/armv7e-m/libgcc.a(_divdi3.o)
                              /nfs/nfs5/home/research/hardware/arm2/gcc-arm-embedded/gcc-arm-none-eabi-4_8-2014q2/bin/../lib/gcc/arm-none-eabi/4.8.4/armv7e-m/libgcc.a(bpabi.o) (__divdi3)
/nfs/nfs5/home/research/hardware/arm2/gcc-arm-embedded/gcc-arm-none-eabi-4_8-2014q2/bin/../lib/gcc/arm-none-eabi/4.8.4/armv7e-m/libgcc.a(_udivdi3.o)
                              /nfs/nfs5/home/research/hardware/arm2/gcc-arm-embedded/gcc-arm-none-eabi-4_8-2014q2/bin/../lib/gcc/arm-none-eabi/4.8.4/armv7e-m/libgcc.a(bpabi.o) (__udivdi3)

Discarded input sections

 .data          0x00000000        0x0 build/obj/crt0_v7m.o
 .bss           0x00000000        0x0 build/obj/crt0_v7m.o
 .data          0x00000000        0x0 build/obj/chcoreasm_v7m.o
 .bss           0x00000000        0x0 build/obj/chcoreasm_v7m.o
 .text          0x00000000        0x0 build/obj/crt1.o
 .data          0x00000000        0x0 build/obj/crt1.o
 .bss           0x00000000        0x0 build/obj/crt1.o
 .text.__early_init
                0x00000000       0x10 build/obj/crt1.o
 .text          0x00000000        0x0 build/obj/vectors.o
 .data          0x00000000        0x0 build/obj/vectors.o
 .bss           0x00000000        0x0 build/obj/vectors.o
 .text          0x00000000        0x0 build/obj/chsys.o
 .data          0x00000000        0x0 build/obj/chsys.o
 .bss           0x00000000        0x0 build/obj/chsys.o
 .text.chSysIntegrityCheckI
                0x00000000       0xb0 build/obj/chsys.o
 .text.chSysIsCounterWithinX
                0x00000000       0x10 build/obj/chsys.o
 .text          0x00000000        0x0 build/obj/chdebug.o
 .data          0x00000000        0x0 build/obj/chdebug.o
 .bss           0x00000000        0x0 build/obj/chdebug.o
 .debug_info    0x00000000      0x62a build/obj/chdebug.o
 .debug_abbrev  0x00000000      0x125 build/obj/chdebug.o
 .debug_aranges
                0x00000000       0x18 build/obj/chdebug.o
 .debug_line    0x00000000      0x20f build/obj/chdebug.o
 .debug_str     0x00000000      0x53d build/obj/chdebug.o
 .comment       0x00000000       0x71 build/obj/chdebug.o
 .ARM.attributes
                0x00000000       0x33 build/obj/chdebug.o
 .text          0x00000000        0x0 build/obj/chvt.o
 .data          0x00000000        0x0 build/obj/chvt.o
 .bss           0x00000000        0x0 build/obj/chvt.o
 .text          0x00000000        0x0 build/obj/chschd.o
 .data          0x00000000        0x0 build/obj/chschd.o
 .bss           0x00000000        0x0 build/obj/chschd.o
 .text.chSchDoRescheduleBehind
                0x00000000       0x40 build/obj/chschd.o
 .text          0x00000000        0x0 build/obj/chthreads.o
 .data          0x00000000        0x0 build/obj/chthreads.o
 .bss           0x00000000        0x0 build/obj/chthreads.o
 .text.chThdStart
                0x00000000       0x20 build/obj/chthreads.o
 .text.chThdSetPriority
                0x00000000       0x30 build/obj/chthreads.o
 .text.chThdTerminate
                0x00000000       0x20 build/obj/chthreads.o
 .text.chThdSleepUntil
                0x00000000       0x20 build/obj/chthreads.o
 .text.chThdSleepUntilWindowed
                0x00000000       0x30 build/obj/chthreads.o
 .text.chThdYield
                0x00000000       0x30 build/obj/chthreads.o
 .text.chThdSuspendTimeoutS
                0x00000000       0x20 build/obj/chthreads.o
 .text.chThdResumeS
                0x00000000       0x10 build/obj/chthreads.o
 .text.chThdResume
                0x00000000       0x20 build/obj/chthreads.o
 .text.chThdDequeueAllI
                0x00000000       0x30 build/obj/chthreads.o
 .text          0x00000000        0x0 build/obj/chtm.o
 .data          0x00000000        0x0 build/obj/chtm.o
 .bss           0x00000000        0x0 build/obj/chtm.o
 .text.chTMObjectInit
                0x00000000       0x20 build/obj/chtm.o
 .text.chTMChainMeasurementToX
                0x00000000       0x40 build/obj/chtm.o
 .text          0x00000000        0x0 build/obj/chdynamic.o
 .data          0x00000000        0x0 build/obj/chdynamic.o
 .bss           0x00000000        0x0 build/obj/chdynamic.o
 .text.chThdAddRef
                0x00000000       0x20 build/obj/chdynamic.o
 .text.chThdCreateFromMemoryPool
                0x00000000       0x40 build/obj/chdynamic.o
 .text          0x00000000        0x0 build/obj/chregistry.o
 .data          0x00000000        0x0 build/obj/chregistry.o
 .bss           0x00000000        0x0 build/obj/chregistry.o
 .text.chRegFirstThread
                0x00000000       0x20 build/obj/chregistry.o
 .text.chRegNextThread
                0x00000000       0x30 build/obj/chregistry.o
 .text          0x00000000        0x0 build/obj/chsem.o
 .data          0x00000000        0x0 build/obj/chsem.o
 .bss           0x00000000        0x0 build/obj/chsem.o
 .text.chSemResetI
                0x00000000       0x30 build/obj/chsem.o
 .text.chSemReset
                0x00000000       0x20 build/obj/chsem.o
 .text.chSemWaitTimeoutS
                0x00000000       0x40 build/obj/chsem.o
 .text.chSemWaitTimeout
                0x00000000       0x20 build/obj/chsem.o
 .text.chSemSignal
                0x00000000       0x40 build/obj/chsem.o
 .text.chSemAddCounterI
                0x00000000       0x30 build/obj/chsem.o
 .text.chSemSignalWait
                0x00000000       0x70 build/obj/chsem.o
 .text          0x00000000        0x0 build/obj/chmtx.o
 .data          0x00000000        0x0 build/obj/chmtx.o
 .bss           0x00000000        0x0 build/obj/chmtx.o
 .text.chMtxTryLock
                0x00000000       0x30 build/obj/chmtx.o
 .text.chMtxTryLockS
                0x00000000       0x20 build/obj/chmtx.o
 .text.chMtxUnlockS
                0x00000000       0x50 build/obj/chmtx.o
 .text.chMtxUnlockAll
                0x00000000       0x60 build/obj/chmtx.o
 .text          0x00000000        0x0 build/obj/chcond.o
 .data          0x00000000        0x0 build/obj/chcond.o
 .bss           0x00000000        0x0 build/obj/chcond.o
 .text.chCondObjectInit
                0x00000000       0x10 build/obj/chcond.o
 .text.chCondSignal
                0x00000000       0x30 build/obj/chcond.o
 .text.chCondSignalI
                0x00000000       0x20 build/obj/chcond.o
 .text.chCondBroadcastI
                0x00000000       0x30 build/obj/chcond.o
 .text.chCondBroadcast
                0x00000000       0x20 build/obj/chcond.o
 .text.chCondWaitS
                0x00000000       0x50 build/obj/chcond.o
 .text.chCondWait
                0x00000000       0x20 build/obj/chcond.o
 .text.chCondWaitTimeoutS
                0x00000000       0x60 build/obj/chcond.o
 .text.chCondWaitTimeout
                0x00000000       0x20 build/obj/chcond.o
 .debug_info    0x00000000      0xf0c build/obj/chcond.o
 .debug_abbrev  0x00000000      0x3da build/obj/chcond.o
 .debug_loc     0x00000000      0x36c build/obj/chcond.o
 .debug_aranges
                0x00000000       0x60 build/obj/chcond.o
 .debug_ranges  0x00000000       0xf0 build/obj/chcond.o
 .debug_line    0x00000000      0x450 build/obj/chcond.o
 .debug_str     0x00000000      0x70d build/obj/chcond.o
 .comment       0x00000000       0x71 build/obj/chcond.o
 .ARM.attributes
                0x00000000       0x33 build/obj/chcond.o
 .debug_frame   0x00000000      0x108 build/obj/chcond.o
 .text          0x00000000        0x0 build/obj/chevents.o
 .data          0x00000000        0x0 build/obj/chevents.o
 .bss           0x00000000        0x0 build/obj/chevents.o
 .text.chEvtUnregister
                0x00000000       0x30 build/obj/chevents.o
 .text.chEvtGetAndClearEvents
                0x00000000       0x20 build/obj/chevents.o
 .text.chEvtAddEvents
                0x00000000       0x20 build/obj/chevents.o
 .text.chEvtGetAndClearFlags
                0x00000000       0x20 build/obj/chevents.o
 .text.chEvtSignal
                0x00000000       0x20 build/obj/chevents.o
 .text.chEvtBroadcastFlags
                0x00000000       0x20 build/obj/chevents.o
 .text.chEvtGetAndClearFlagsI
                0x00000000       0x10 build/obj/chevents.o
 .text.chEvtWaitAny
                0x00000000       0x40 build/obj/chevents.o
 .text.chEvtWaitAll
                0x00000000       0x40 build/obj/chevents.o
 .text.chEvtWaitOneTimeout
                0x00000000       0x50 build/obj/chevents.o
 .text.chEvtWaitAnyTimeout
                0x00000000       0x50 build/obj/chevents.o
 .text.chEvtWaitAllTimeout
                0x00000000       0x50 build/obj/chevents.o
 .text          0x00000000        0x0 build/obj/chmsg.o
 .data          0x00000000        0x0 build/obj/chmsg.o
 .bss           0x00000000        0x0 build/obj/chmsg.o
 .text.chMsgSend
                0x00000000       0x40 build/obj/chmsg.o
 .text.chMsgWait
                0x00000000       0x40 build/obj/chmsg.o
 .text.chMsgRelease
                0x00000000       0x20 build/obj/chmsg.o
 .debug_info    0x00000000      0xaaa build/obj/chmsg.o
 .debug_abbrev  0x00000000      0x31f build/obj/chmsg.o
 .debug_loc     0x00000000      0x19a build/obj/chmsg.o
 .debug_aranges
                0x00000000       0x30 build/obj/chmsg.o
 .debug_ranges  0x00000000       0x80 build/obj/chmsg.o
 .debug_line    0x00000000      0x321 build/obj/chmsg.o
 .debug_str     0x00000000      0x60f build/obj/chmsg.o
 .comment       0x00000000       0x71 build/obj/chmsg.o
 .ARM.attributes
                0x00000000       0x33 build/obj/chmsg.o
 .debug_frame   0x00000000       0x68 build/obj/chmsg.o
 .text          0x00000000        0x0 build/obj/chmboxes.o
 .data          0x00000000        0x0 build/obj/chmboxes.o
 .bss           0x00000000        0x0 build/obj/chmboxes.o
 .text.chMBObjectInit
                0x00000000       0x30 build/obj/chmboxes.o
 .text.chMBResetI
                0x00000000       0x30 build/obj/chmboxes.o
 .text.chMBReset
                0x00000000       0x20 build/obj/chmboxes.o
 .text.chMBPostS
                0x00000000       0x40 build/obj/chmboxes.o
 .text.chMBPost
                0x00000000       0x20 build/obj/chmboxes.o
 .text.chMBPostI
                0x00000000       0x40 build/obj/chmboxes.o
 .text.chMBPostAheadS
                0x00000000       0x40 build/obj/chmboxes.o
 .text.chMBPostAhead
                0x00000000       0x20 build/obj/chmboxes.o
 .text.chMBPostAheadI
                0x00000000       0x30 build/obj/chmboxes.o
 .text.chMBFetchS
                0x00000000       0x40 build/obj/chmboxes.o
 .text.chMBFetch
                0x00000000       0x20 build/obj/chmboxes.o
 .text.chMBFetchI
                0x00000000       0x40 build/obj/chmboxes.o
 .debug_info    0x00000000      0xfb7 build/obj/chmboxes.o
 .debug_abbrev  0x00000000      0x365 build/obj/chmboxes.o
 .debug_loc     0x00000000      0x574 build/obj/chmboxes.o
 .debug_aranges
                0x00000000       0x78 build/obj/chmboxes.o
 .debug_ranges  0x00000000       0xb0 build/obj/chmboxes.o
 .debug_line    0x00000000      0x42e build/obj/chmboxes.o
 .debug_str     0x00000000      0x6dd build/obj/chmboxes.o
 .comment       0x00000000       0x71 build/obj/chmboxes.o
 .ARM.attributes
                0x00000000       0x33 build/obj/chmboxes.o
 .debug_frame   0x00000000      0x170 build/obj/chmboxes.o
 .text          0x00000000        0x0 build/obj/chqueues.o
 .data          0x00000000        0x0 build/obj/chqueues.o
 .bss           0x00000000        0x0 build/obj/chqueues.o
 .text.chIQResetI
                0x00000000       0x20 build/obj/chqueues.o
 .text.chOQResetI
                0x00000000       0x20 build/obj/chqueues.o
 .text          0x00000000        0x0 build/obj/chmemcore.o
 .data          0x00000000        0x0 build/obj/chmemcore.o
 .bss           0x00000000        0x0 build/obj/chmemcore.o
 .text.chCoreAllocI
                0x00000000       0x30 build/obj/chmemcore.o
 .text.chCoreGetStatusX
                0x00000000       0x20 build/obj/chmemcore.o
 .text          0x00000000        0x0 build/obj/chheap.o
 .data          0x00000000        0x0 build/obj/chheap.o
 .bss           0x00000000        0x0 build/obj/chheap.o
 .text.chHeapObjectInit
                0x00000000       0x20 build/obj/chheap.o
 .text.chHeapStatus
                0x00000000       0x40 build/obj/chheap.o
 .text          0x00000000        0x0 build/obj/chmempools.o
 .data          0x00000000        0x0 build/obj/chmempools.o
 .bss           0x00000000        0x0 build/obj/chmempools.o
 .text.chPoolObjectInit
                0x00000000       0x10 build/obj/chmempools.o
 .text.chPoolLoadArray
                0x00000000       0x30 build/obj/chmempools.o
 .text.chPoolAllocI
                0x00000000       0x20 build/obj/chmempools.o
 .text.chPoolAlloc
                0x00000000       0x30 build/obj/chmempools.o
 .text.chPoolFreeI
                0x00000000       0x10 build/obj/chmempools.o
 .text          0x00000000        0x0 build/obj/chcore.o
 .data          0x00000000        0x0 build/obj/chcore.o
 .bss           0x00000000        0x0 build/obj/chcore.o
 .debug_info    0x00000000      0x62a build/obj/chcore.o
 .debug_abbrev  0x00000000      0x125 build/obj/chcore.o
 .debug_aranges
                0x00000000       0x18 build/obj/chcore.o
 .debug_line    0x00000000      0x20f build/obj/chcore.o
 .debug_str     0x00000000      0x545 build/obj/chcore.o
 .comment       0x00000000       0x71 build/obj/chcore.o
 .ARM.attributes
                0x00000000       0x33 build/obj/chcore.o
 .text          0x00000000        0x0 build/obj/chcore_v7m.o
 .data          0x00000000        0x0 build/obj/chcore_v7m.o
 .bss           0x00000000        0x0 build/obj/chcore_v7m.o
 .text          0x00000000        0x0 build/obj/osal.o
 .data          0x00000000        0x0 build/obj/osal.o
 .bss           0x00000000        0x0 build/obj/osal.o
 .debug_info    0x00000000      0x62a build/obj/osal.o
 .debug_abbrev  0x00000000      0x125 build/obj/osal.o
 .debug_aranges
                0x00000000       0x18 build/obj/osal.o
 .debug_line    0x00000000      0x20f build/obj/osal.o
 .debug_str     0x00000000      0x53f build/obj/osal.o
 .comment       0x00000000       0x71 build/obj/osal.o
 .ARM.attributes
                0x00000000       0x33 build/obj/osal.o
 .text          0x00000000        0x0 build/obj/hal.o
 .data          0x00000000        0x0 build/obj/hal.o
 .bss           0x00000000        0x0 build/obj/hal.o
 .text          0x00000000        0x0 build/obj/st.o
 .data          0x00000000        0x0 build/obj/st.o
 .bss           0x00000000        0x0 build/obj/st.o
 .text.stGetAlarm
                0x00000000       0x10 build/obj/st.o
 .text          0x00000000        0x0 build/obj/hal_buffers.o
 .data          0x00000000        0x0 build/obj/hal_buffers.o
 .bss           0x00000000        0x0 build/obj/hal_buffers.o
 .text.ibqObjectInit
                0x00000000       0x30 build/obj/hal_buffers.o
 .text.ibqResetI
                0x00000000       0x20 build/obj/hal_buffers.o
 .text.ibqGetEmptyBufferI
                0x00000000       0x20 build/obj/hal_buffers.o
 .text.ibqPostFullBufferI
                0x00000000       0x30 build/obj/hal_buffers.o
 .text.ibqGetFullBufferTimeoutS
                0x00000000       0x30 build/obj/hal_buffers.o
 .text.ibqGetFullBufferTimeout
                0x00000000       0x20 build/obj/hal_buffers.o
 .text.ibqReleaseEmptyBufferS
                0x00000000       0x30 build/obj/hal_buffers.o
 .text.ibqReleaseEmptyBuffer
                0x00000000       0x20 build/obj/hal_buffers.o
 .text.ibqGetTimeout
                0x00000000       0x50 build/obj/hal_buffers.o
 .text.ibqReadTimeout
                0x00000000      0x110 build/obj/hal_buffers.o
 .text.obqObjectInit
                0x00000000       0x30 build/obj/hal_buffers.o
 .text.obqResetI
                0x00000000       0x20 build/obj/hal_buffers.o
 .text.obqGetFullBufferI
                0x00000000       0x20 build/obj/hal_buffers.o
 .text.obqReleaseEmptyBufferI
                0x00000000       0x30 build/obj/hal_buffers.o
 .text.obqGetEmptyBufferTimeoutS
                0x00000000       0x30 build/obj/hal_buffers.o
 .text.obqGetEmptyBufferTimeout
                0x00000000       0x20 build/obj/hal_buffers.o
 .text.obqPostFullBufferS
                0x00000000       0x30 build/obj/hal_buffers.o
 .text.obqPostFullBuffer
                0x00000000       0x20 build/obj/hal_buffers.o
 .text.obqPutTimeout
                0x00000000       0x50 build/obj/hal_buffers.o
 .text.obqWriteTimeout
                0x00000000      0x110 build/obj/hal_buffers.o
 .text.obqTryFlushI
                0x00000000       0x50 build/obj/hal_buffers.o
 .text.obqFlush
                0x00000000       0x20 build/obj/hal_buffers.o
 .debug_info    0x00000000     0x1ff9 build/obj/hal_buffers.o
 .debug_abbrev  0x00000000      0x4a5 build/obj/hal_buffers.o
 .debug_loc     0x00000000      0xb5f build/obj/hal_buffers.o
 .debug_aranges
                0x00000000       0xc8 build/obj/hal_buffers.o
 .debug_ranges  0x00000000      0x310 build/obj/hal_buffers.o
 .debug_line    0x00000000      0x8b6 build/obj/hal_buffers.o
 .debug_str     0x00000000      0x95f build/obj/hal_buffers.o
 .comment       0x00000000       0x71 build/obj/hal_buffers.o
 .ARM.attributes
                0x00000000       0x33 build/obj/hal_buffers.o
 .debug_frame   0x00000000      0x28c build/obj/hal_buffers.o
 .text          0x00000000        0x0 build/obj/hal_queues.o
 .data          0x00000000        0x0 build/obj/hal_queues.o
 .bss           0x00000000        0x0 build/obj/hal_queues.o
 .debug_info    0x00000000      0x631 build/obj/hal_queues.o
 .debug_abbrev  0x00000000      0x125 build/obj/hal_queues.o
 .debug_aranges
                0x00000000       0x18 build/obj/hal_queues.o
 .debug_line    0x00000000      0x20f build/obj/hal_queues.o
 .debug_str     0x00000000      0x547 build/obj/hal_queues.o
 .comment       0x00000000       0x71 build/obj/hal_queues.o
 .ARM.attributes
                0x00000000       0x33 build/obj/hal_queues.o
 .text          0x00000000        0x0 build/obj/hal_mmcsd.o
 .data          0x00000000        0x0 build/obj/hal_mmcsd.o
 .bss           0x00000000        0x0 build/obj/hal_mmcsd.o
 .text._mmcsd_get_capacity_ext
                0x00000000       0x20 build/obj/hal_mmcsd.o
 .text._mmcsd_unpack_sdc_cid
                0x00000000       0xb0 build/obj/hal_mmcsd.o
 .text._mmcsd_unpack_mmc_cid
                0x00000000       0xc0 build/obj/hal_mmcsd.o
 .text._mmcsd_unpack_csd_mmc
                0x00000000      0x190 build/obj/hal_mmcsd.o
 .text._mmcsd_unpack_csd_v10
                0x00000000      0x140 build/obj/hal_mmcsd.o
 .text._mmcsd_unpack_csd_v20
                0x00000000      0x130 build/obj/hal_mmcsd.o
 .text          0x00000000        0x0 build/obj/adc.o
 .data          0x00000000        0x0 build/obj/adc.o
 .bss           0x00000000        0x0 build/obj/adc.o
 .text.adcStop  0x00000000       0x20 build/obj/adc.o
 .text.adcStartConversionI
                0x00000000       0x20 build/obj/adc.o
 .text.adcStopConversion
                0x00000000       0x30 build/obj/adc.o
 .text.adcStopConversionI
                0x00000000       0x30 build/obj/adc.o
 .text.adcConvert
                0x00000000       0x30 build/obj/adc.o
 .text.adcAcquireBus
                0x00000000       0x10 build/obj/adc.o
 .text.adcReleaseBus
                0x00000000       0x10 build/obj/adc.o
 .text          0x00000000        0x0 build/obj/ext.o
 .data          0x00000000        0x0 build/obj/ext.o
 .bss           0x00000000        0x0 build/obj/ext.o
 .text.extStop  0x00000000       0x20 build/obj/ext.o
 .text.extChannelEnable
                0x00000000       0x20 build/obj/ext.o
 .text.extChannelDisable
                0x00000000       0x20 build/obj/ext.o
 .text.extSetChannelModeI
                0x00000000       0x20 build/obj/ext.o
 .text          0x00000000        0x0 build/obj/gpt.o
 .data          0x00000000        0x0 build/obj/gpt.o
 .bss           0x00000000        0x0 build/obj/gpt.o
 .text.gptStart
                0x00000000       0x20 build/obj/gpt.o
 .text.gptStop  0x00000000       0x20 build/obj/gpt.o
 .text.gptChangeInterval
                0x00000000       0x20 build/obj/gpt.o
 .text.gptStartContinuous
                0x00000000       0x20 build/obj/gpt.o
 .text.gptStartContinuousI
                0x00000000       0x10 build/obj/gpt.o
 .text.gptStartOneShot
                0x00000000       0x20 build/obj/gpt.o
 .text.gptStartOneShotI
                0x00000000       0x10 build/obj/gpt.o
 .text.gptStopTimer
                0x00000000       0x20 build/obj/gpt.o
 .text.gptStopTimerI
                0x00000000       0x10 build/obj/gpt.o
 .text.gptPolledDelay
                0x00000000       0x20 build/obj/gpt.o
 .text          0x00000000        0x0 build/obj/mmc_spi.o
 .data          0x00000000        0x0 build/obj/mmc_spi.o
 .bss           0x00000000        0x0 build/obj/mmc_spi.o
 .text.mmcStop  0x00000000       0x20 build/obj/mmc_spi.o
 .text.mmcErase
                0x00000000       0x50 build/obj/mmc_spi.o
 .text          0x00000000        0x0 build/obj/pal.o
 .data          0x00000000        0x0 build/obj/pal.o
 .bss           0x00000000        0x0 build/obj/pal.o
 .text.palReadBus
                0x00000000       0x10 build/obj/pal.o
 .text.palWriteBus
                0x00000000       0x20 build/obj/pal.o
 .text.palSetBusMode
                0x00000000       0x20 build/obj/pal.o
 .debug_info    0x00000000      0x8b2 build/obj/pal.o
 .debug_abbrev  0x00000000      0x1dc build/obj/pal.o
 .debug_loc     0x00000000       0x8f build/obj/pal.o
 .debug_aranges
                0x00000000       0x30 build/obj/pal.o
 .debug_ranges  0x00000000       0x20 build/obj/pal.o
 .debug_line    0x00000000      0x2c1 build/obj/pal.o
 .debug_str     0x00000000      0x624 build/obj/pal.o
 .comment       0x00000000       0x71 build/obj/pal.o
 .ARM.attributes
                0x00000000       0x33 build/obj/pal.o
 .debug_frame   0x00000000       0x54 build/obj/pal.o
 .text          0x00000000        0x0 build/obj/rtc.o
 .data          0x00000000        0x0 build/obj/rtc.o
 .bss           0x00000000        0x0 build/obj/rtc.o
 .text.rtcSetAlarm
                0x00000000       0x10 build/obj/rtc.o
 .text.rtcGetAlarm
                0x00000000       0x10 build/obj/rtc.o
 .text          0x00000000        0x0 build/obj/serial.o
 .data          0x00000000        0x0 build/obj/serial.o
 .bss           0x00000000        0x0 build/obj/serial.o
 .text.sdStop   0x00000000       0x30 build/obj/serial.o
 .text.sdRequestDataI
                0x00000000       0x20 build/obj/serial.o
 .text.sdPutWouldBlock
                0x00000000       0x20 build/obj/serial.o
 .text.sdGetWouldBlock
                0x00000000       0x20 build/obj/serial.o
 .text          0x00000000        0x0 build/obj/spi.o
 .data          0x00000000        0x0 build/obj/spi.o
 .bss           0x00000000        0x0 build/obj/spi.o
 .text.spiStartIgnore
                0x00000000       0x20 build/obj/spi.o
 .text.spiStartExchange
                0x00000000       0x20 build/obj/spi.o
 .text.spiStartSend
                0x00000000       0x20 build/obj/spi.o
 .text.spiStartReceive
                0x00000000       0x20 build/obj/spi.o
 .text.spiExchange
                0x00000000       0x30 build/obj/spi.o
 .text.spiAcquireBus
                0x00000000       0x10 build/obj/spi.o
 .text.spiReleaseBus
                0x00000000       0x10 build/obj/spi.o
 .text          0x00000000        0x0 build/obj/nvic.o
 .data          0x00000000        0x0 build/obj/nvic.o
 .bss           0x00000000        0x0 build/obj/nvic.o
 .text.nvicSetSystemHandlerPriority
                0x00000000       0x10 build/obj/nvic.o
 .text.nvicClearPending
                0x00000000       0x20 build/obj/nvic.o
 .text          0x00000000        0x0 build/obj/hal_lld.o
 .data          0x00000000        0x0 build/obj/hal_lld.o
 .bss           0x00000000        0x0 build/obj/hal_lld.o
 .data.SystemCoreClock
                0x00000000        0x4 build/obj/hal_lld.o
 .text          0x00000000        0x0 build/obj/stm32_dma.o
 .data          0x00000000        0x0 build/obj/stm32_dma.o
 .bss           0x00000000        0x0 build/obj/stm32_dma.o
 .text          0x00000000        0x0 build/obj/st_lld.o
 .data          0x00000000        0x0 build/obj/st_lld.o
 .bss           0x00000000        0x0 build/obj/st_lld.o
 .text          0x00000000        0x0 build/obj/adc_lld.o
 .data          0x00000000        0x0 build/obj/adc_lld.o
 .bss           0x00000000        0x0 build/obj/adc_lld.o
 .text.adc_lld_stop
                0x00000000       0x90 build/obj/adc_lld.o
 .text.adcSTM32EnableVREF
                0x00000000       0x10 build/obj/adc_lld.o
 .text.adcSTM32DisableVREF
                0x00000000       0x10 build/obj/adc_lld.o
 .text.adcSTM32EnableTS
                0x00000000       0x10 build/obj/adc_lld.o
 .text.adcSTM32DisableTS
                0x00000000       0x10 build/obj/adc_lld.o
 .text.adcSTM32EnableVBAT
                0x00000000       0x10 build/obj/adc_lld.o
 .text.adcSTM32DisableVBAT
                0x00000000       0x10 build/obj/adc_lld.o
 .text          0x00000000        0x0 build/obj/ext_lld.o
 .data          0x00000000        0x0 build/obj/ext_lld.o
 .bss           0x00000000        0x0 build/obj/ext_lld.o
 .text.ext_lld_stop
                0x00000000       0x30 build/obj/ext_lld.o
 .text          0x00000000        0x0 build/obj/ext_lld_isr.o
 .data          0x00000000        0x0 build/obj/ext_lld_isr.o
 .bss           0x00000000        0x0 build/obj/ext_lld_isr.o
 .text.ext_lld_exti_irq_disable
                0x00000000       0x60 build/obj/ext_lld_isr.o
 .text          0x00000000        0x0 build/obj/pal_lld.o
 .data          0x00000000        0x0 build/obj/pal_lld.o
 .bss           0x00000000        0x0 build/obj/pal_lld.o
 .text          0x00000000        0x0 build/obj/rtc_lld.o
 .data          0x00000000        0x0 build/obj/rtc_lld.o
 .bss           0x00000000        0x0 build/obj/rtc_lld.o
 .text.rtc_lld_set_alarm
                0x00000000       0x50 build/obj/rtc_lld.o
 .text.rtc_lld_get_alarm
                0x00000000       0x10 build/obj/rtc_lld.o
 .text.rtcSTM32SetPeriodicWakeup
                0x00000000       0x60 build/obj/rtc_lld.o
 .text.rtcSTM32GetPeriodicWakeup
                0x00000000       0x30 build/obj/rtc_lld.o
 .text          0x00000000        0x0 build/obj/spi_lld.o
 .data          0x00000000        0x0 build/obj/spi_lld.o
 .bss           0x00000000        0x0 build/obj/spi_lld.o
 .text.spi_lld_exchange
                0x00000000       0x40 build/obj/spi_lld.o
 .text.spi_lld_polled_exchange
                0x00000000       0x40 build/obj/spi_lld.o
 .text          0x00000000        0x0 build/obj/gpt_lld.o
 .data          0x00000000        0x0 build/obj/gpt_lld.o
 .bss           0x00000000        0x0 build/obj/gpt_lld.o
 .text.gpt_lld_start
                0x00000000       0x70 build/obj/gpt_lld.o
 .text.gpt_lld_stop
                0x00000000       0x40 build/obj/gpt_lld.o
 .text.gpt_lld_start_timer
                0x00000000       0x30 build/obj/gpt_lld.o
 .text.gpt_lld_stop_timer
                0x00000000       0x20 build/obj/gpt_lld.o
 .text.gpt_lld_polled_delay
                0x00000000       0x20 build/obj/gpt_lld.o
 .text          0x00000000        0x0 build/obj/serial_lld.o
 .data          0x00000000        0x0 build/obj/serial_lld.o
 .bss           0x00000000        0x0 build/obj/serial_lld.o
 .text.sd_lld_stop
                0x00000000       0x50 build/obj/serial_lld.o
 .text          0x00000000        0x0 build/obj/board.o
 .data          0x00000000        0x0 build/obj/board.o
 .bss           0x00000000        0x0 build/obj/board.o
 .text          0x00000000        0x0 build/obj/test.o
 .data          0x00000000        0x0 build/obj/test.o
 .bss           0x00000000        0x0 build/obj/test.o
 .text.tmr      0x00000000       0x10 build/obj/test.o
 .text.print_line
                0x00000000       0x30 build/obj/test.o
 .text.test_printn
                0x00000000       0x70 build/obj/test.o
 .text.test_print
                0x00000000       0x20 build/obj/test.o
 .text.test_println
                0x00000000       0x30 build/obj/test.o
 .text.test_emit_token
                0x00000000       0x20 build/obj/test.o
 .text._test_fail
                0x00000000       0x20 build/obj/test.o
 .text._test_assert
                0x00000000       0x30 build/obj/test.o
 .text._test_assert_sequence
                0x00000000       0x50 build/obj/test.o
 .text._test_assert_time_window
                0x00000000       0x40 build/obj/test.o
 .text.test_terminate_threads
                0x00000000       0x20 build/obj/test.o
 .text.test_wait_threads
                0x00000000       0x30 build/obj/test.o
 .text.test_wait_tick
                0x00000000       0x20 build/obj/test.o
 .text.test_start_timer
                0x00000000       0x50 build/obj/test.o
 .text.TestThread
                0x00000000      0x320 build/obj/test.o
 .bss.test      0x00000000      0x668 build/obj/test.o
 .bss.failpoint
                0x00000000        0x4 build/obj/test.o
 .bss.local_fail
                0x00000000        0x1 build/obj/test.o
 .bss.test_timer_done
                0x00000000        0x1 build/obj/test.o
 .rodata.wa     0x00000000       0x14 build/obj/test.o
 .bss.tokp      0x00000000        0x4 build/obj/test.o
 .rodata.patterns
                0x00000000       0x34 build/obj/test.o
 .rodata.str1.4
                0x00000000      0x210 build/obj/test.o
 .bss.vt        0x00000000       0x14 build/obj/test.o
 .bss.threads   0x00000000       0x14 build/obj/test.o
 .bss.chp       0x00000000        0x4 build/obj/test.o
 .bss.tokens_buffer
                0x00000000       0x10 build/obj/test.o
 .bss.test_global_fail
                0x00000000        0x1 build/obj/test.o
 .debug_info    0x00000000     0x19c9 build/obj/test.o
 .debug_abbrev  0x00000000      0x602 build/obj/test.o
 .debug_loc     0x00000000      0x92a build/obj/test.o
 .debug_aranges
                0x00000000       0x90 build/obj/test.o
 .debug_ranges  0x00000000      0x178 build/obj/test.o
 .debug_line    0x00000000      0x6d3 build/obj/test.o
 .debug_str     0x00000000      0x94d build/obj/test.o
 .comment       0x00000000       0x71 build/obj/test.o
 .ARM.attributes
                0x00000000       0x33 build/obj/test.o
 .debug_frame   0x00000000      0x1c0 build/obj/test.o
 .text          0x00000000        0x0 build/obj/testthd.o
 .data          0x00000000        0x0 build/obj/testthd.o
 .bss           0x00000000        0x0 build/obj/testthd.o
 .text.thd1_execute
                0x00000000       0xd0 build/obj/testthd.o
 .text.thread   0x00000000       0x10 build/obj/testthd.o
 .text.thd2_execute
                0x00000000       0xe0 build/obj/testthd.o
 .text.thd3_execute
                0x00000000      0x140 build/obj/testthd.o
 .text.thd4_execute
                0x00000000       0xa0 build/obj/testthd.o
 .rodata.testthd1
                0x00000000       0x10 build/obj/testthd.o
 .rodata.testthd2
                0x00000000       0x10 build/obj/testthd.o
 .rodata.testthd3
                0x00000000       0x10 build/obj/testthd.o
 .rodata.testthd4
                0x00000000       0x10 build/obj/testthd.o
 .rodata.patternthd
                0x00000000       0x14 build/obj/testthd.o
 .rodata.str1.4
                0x00000000       0x80 build/obj/testthd.o
 .debug_info    0x00000000     0x1542 build/obj/testthd.o
 .debug_abbrev  0x00000000      0x38b build/obj/testthd.o
 .debug_loc     0x00000000       0x89 build/obj/testthd.o
 .debug_aranges
                0x00000000       0x40 build/obj/testthd.o
 .debug_ranges  0x00000000       0xd8 build/obj/testthd.o
 .debug_line    0x00000000      0x547 build/obj/testthd.o
 .debug_str     0x00000000      0x7ad build/obj/testthd.o
 .comment       0x00000000       0x71 build/obj/testthd.o
 .ARM.attributes
                0x00000000       0x33 build/obj/testthd.o
 .debug_frame   0x00000000       0xb8 build/obj/testthd.o
 .text          0x00000000        0x0 build/obj/testsem.o
 .data          0x00000000        0x0 build/obj/testsem.o
 .bss           0x00000000        0x0 build/obj/testsem.o
 .text.sem1_execute
                0x00000000      0x150 build/obj/testsem.o
 .text.thread3  0x00000000       0x20 build/obj/testsem.o
 .text.thread1  0x00000000       0x20 build/obj/testsem.o
 .text.sem1_setup
                0x00000000       0x10 build/obj/testsem.o
 .text.sem2_setup
                0x00000000       0x10 build/obj/testsem.o
 .text.sem3_setup
                0x00000000       0x10 build/obj/testsem.o
 .text.thread2  0x00000000       0x30 build/obj/testsem.o
 .text.sem2_execute
                0x00000000      0x160 build/obj/testsem.o
 .text.sem3_execute
                0x00000000       0xa0 build/obj/testsem.o
 .text.thread4  0x00000000       0x30 build/obj/testsem.o
 .text.sem4_execute
                0x00000000      0x150 build/obj/testsem.o
 .rodata.testsem1
                0x00000000       0x10 build/obj/testsem.o
 .rodata.testsem2
                0x00000000       0x10 build/obj/testsem.o
 .rodata.testsem3
                0x00000000       0x10 build/obj/testsem.o
 .rodata.testsem4
                0x00000000       0x10 build/obj/testsem.o
 .data.sem1     0x00000000        0xc build/obj/testsem.o
 .rodata.patternsem
                0x00000000       0x14 build/obj/testsem.o
 .rodata.str1.4
                0x00000000       0x8c build/obj/testsem.o
 .debug_info    0x00000000     0x1ebf build/obj/testsem.o
 .debug_abbrev  0x00000000      0x42a build/obj/testsem.o
 .debug_loc     0x00000000      0x61a build/obj/testsem.o
 .debug_aranges
                0x00000000       0x70 build/obj/testsem.o
 .debug_ranges  0x00000000      0x180 build/obj/testsem.o
 .debug_line    0x00000000      0x66a build/obj/testsem.o
 .debug_str     0x00000000      0x8d9 build/obj/testsem.o
 .comment       0x00000000       0x71 build/obj/testsem.o
 .ARM.attributes
                0x00000000       0x33 build/obj/testsem.o
 .debug_frame   0x00000000      0x140 build/obj/testsem.o
 .text          0x00000000        0x0 build/obj/testmtx.o
 .data          0x00000000        0x0 build/obj/testmtx.o
 .bss           0x00000000        0x0 build/obj/testmtx.o
 .text.mtx1_execute
                0x00000000       0xe0 build/obj/testmtx.o
 .text.thread1  0x00000000       0x20 build/obj/testmtx.o
 .text.thread12
                0x00000000       0x20 build/obj/testmtx.o
 .text.mtx1_setup
                0x00000000       0x10 build/obj/testmtx.o
 .text.mtx4_setup
                0x00000000       0x20 build/obj/testmtx.o
 .text.mtx5_setup
                0x00000000       0x10 build/obj/testmtx.o
 .text.thread4b
                0x00000000       0x20 build/obj/testmtx.o
 .text.thread4a
                0x00000000       0x20 build/obj/testmtx.o
 .text.mtx4_execute
                0x00000000      0x270 build/obj/testmtx.o
 .text.mtx5_execute
                0x00000000       0xc0 build/obj/testmtx.o
 .text.mtx6_execute
                0x00000000       0xf0 build/obj/testmtx.o
 .text.thread10
                0x00000000       0x30 build/obj/testmtx.o
 .text.mtx6_setup
                0x00000000       0x20 build/obj/testmtx.o
 .text.mtx7_setup
                0x00000000       0x20 build/obj/testmtx.o
 .text.mtx8_setup
                0x00000000       0x30 build/obj/testmtx.o
 .text.mtx7_execute
                0x00000000       0xc0 build/obj/testmtx.o
 .text.mtx8_execute
                0x00000000       0xa0 build/obj/testmtx.o
 .text.thread11
                0x00000000       0x40 build/obj/testmtx.o
 .rodata.testmtx5
                0x00000000       0x10 build/obj/testmtx.o
 .rodata.testmtx6
                0x00000000       0x10 build/obj/testmtx.o
 .rodata.testmtx7
                0x00000000       0x10 build/obj/testmtx.o
 .rodata.testmtx8
                0x00000000       0x10 build/obj/testmtx.o
 .data.m1       0x00000000       0x10 build/obj/testmtx.o
 .data.m2       0x00000000       0x10 build/obj/testmtx.o
 .rodata.str1.4
                0x00000000       0xb4 build/obj/testmtx.o
 .rodata.patternmtx
                0x00000000       0x1c build/obj/testmtx.o
 .data.c1       0x00000000        0x8 build/obj/testmtx.o
 .rodata.testmtx1
                0x00000000       0x10 build/obj/testmtx.o
 .rodata.testmtx4
                0x00000000       0x10 build/obj/testmtx.o
 .debug_info    0x00000000     0x1b63 build/obj/testmtx.o
 .debug_abbrev  0x00000000      0x3a5 build/obj/testmtx.o
 .debug_loc     0x00000000      0x141 build/obj/testmtx.o
 .debug_aranges
                0x00000000       0xa8 build/obj/testmtx.o
 .debug_ranges  0x00000000      0x170 build/obj/testmtx.o
 .debug_line    0x00000000      0x6c1 build/obj/testmtx.o
 .debug_str     0x00000000      0x84a build/obj/testmtx.o
 .comment       0x00000000       0x71 build/obj/testmtx.o
 .ARM.attributes
                0x00000000       0x33 build/obj/testmtx.o
 .debug_frame   0x00000000      0x24c build/obj/testmtx.o
 .text          0x00000000        0x0 build/obj/testmsg.o
 .data          0x00000000        0x0 build/obj/testmsg.o
 .bss           0x00000000        0x0 build/obj/testmsg.o
 .text.msg1_execute
                0x00000000       0x80 build/obj/testmsg.o
 .text.thread   0x00000000       0x20 build/obj/testmsg.o
 .rodata.testmsg1
                0x00000000       0x10 build/obj/testmsg.o
 .rodata.str1.4
                0x00000000       0x14 build/obj/testmsg.o
 .rodata.patternmsg
                0x00000000        0x8 build/obj/testmsg.o
 .debug_info    0x00000000      0x979 build/obj/testmsg.o
 .debug_abbrev  0x00000000      0x289 build/obj/testmsg.o
 .debug_loc     0x00000000       0x60 build/obj/testmsg.o
 .debug_aranges
                0x00000000       0x28 build/obj/testmsg.o
 .debug_ranges  0x00000000       0x48 build/obj/testmsg.o
 .debug_line    0x00000000      0x334 build/obj/testmsg.o
 .debug_str     0x00000000      0x630 build/obj/testmsg.o
 .comment       0x00000000       0x71 build/obj/testmsg.o
 .ARM.attributes
                0x00000000       0x33 build/obj/testmsg.o
 .debug_frame   0x00000000       0x48 build/obj/testmsg.o
 .text          0x00000000        0x0 build/obj/testmbox.o
 .data          0x00000000        0x0 build/obj/testmbox.o
 .bss           0x00000000        0x0 build/obj/testmbox.o
 .text.mbox1_execute
                0x00000000      0x610 build/obj/testmbox.o
 .text.mbox1_setup
                0x00000000       0x20 build/obj/testmbox.o
 .data.mb1      0x00000000       0x28 build/obj/testmbox.o
 .rodata.patternmbox
                0x00000000        0x8 build/obj/testmbox.o
 .rodata.str1.4
                0x00000000       0x28 build/obj/testmbox.o
 .rodata.testmbox1
                0x00000000       0x10 build/obj/testmbox.o
 .debug_info    0x00000000     0x1ee8 build/obj/testmbox.o
 .debug_abbrev  0x00000000      0x334 build/obj/testmbox.o
 .debug_loc     0x00000000      0x71d build/obj/testmbox.o
 .debug_aranges
                0x00000000       0x28 build/obj/testmbox.o
 .debug_ranges  0x00000000       0x90 build/obj/testmbox.o
 .debug_line    0x00000000      0x527 build/obj/testmbox.o
 .debug_str     0x00000000      0x720 build/obj/testmbox.o
 .comment       0x00000000       0x71 build/obj/testmbox.o
 .ARM.attributes
                0x00000000       0x33 build/obj/testmbox.o
 .debug_frame   0x00000000       0x48 build/obj/testmbox.o
 .text          0x00000000        0x0 build/obj/testevt.o
 .data          0x00000000        0x0 build/obj/testevt.o
 .bss           0x00000000        0x0 build/obj/testevt.o
 .text.h3       0x00000000       0x10 build/obj/testevt.o
 .text.h2       0x00000000       0x10 build/obj/testevt.o
 .text.h1       0x00000000       0x10 build/obj/testevt.o
 .text.evt1_execute
                0x00000000       0x90 build/obj/testevt.o
 .text.evt1_setup
                0x00000000       0x10 build/obj/testevt.o
 .text.evt2_setup
                0x00000000       0x10 build/obj/testevt.o
 .text.evt3_setup
                0x00000000       0x10 build/obj/testevt.o
 .text.evt2_execute
                0x00000000      0x2b0 build/obj/testevt.o
 .text.thread2  0x00000000       0x30 build/obj/testevt.o
 .text.thread1  0x00000000       0x20 build/obj/testevt.o
 .text.evt3_execute
                0x00000000       0xb0 build/obj/testevt.o
 .rodata.patternevt
                0x00000000       0x10 build/obj/testevt.o
 .rodata.testevt2
                0x00000000       0x10 build/obj/testevt.o
 .rodata.str1.4
                0x00000000       0x5c build/obj/testevt.o
 .rodata.testevt1
                0x00000000       0x10 build/obj/testevt.o
 .rodata.evhndl
                0x00000000        0xc build/obj/testevt.o
 .rodata.testevt3
                0x00000000       0x10 build/obj/testevt.o
 .data.es1      0x00000000        0x4 build/obj/testevt.o
 .data.es2      0x00000000        0x4 build/obj/testevt.o
 .debug_info    0x00000000     0x1927 build/obj/testevt.o
 .debug_abbrev  0x00000000      0x3fa build/obj/testevt.o
 .debug_loc     0x00000000      0x35c build/obj/testevt.o
 .debug_aranges
                0x00000000       0x70 build/obj/testevt.o
 .debug_ranges  0x00000000      0x138 build/obj/testevt.o
 .debug_line    0x00000000      0x51e build/obj/testevt.o
 .debug_str     0x00000000      0x955 build/obj/testevt.o
 .comment       0x00000000       0x71 build/obj/testevt.o
 .ARM.attributes
                0x00000000       0x33 build/obj/testevt.o
 .debug_frame   0x00000000      0x114 build/obj/testevt.o
 .text          0x00000000        0x0 build/obj/testheap.o
 .data          0x00000000        0x0 build/obj/testheap.o
 .bss           0x00000000        0x0 build/obj/testheap.o
 .text.heap1_execute
                0x00000000      0x250 build/obj/testheap.o
 .text.heap1_setup
                0x00000000       0x20 build/obj/testheap.o
 .rodata.patternheap
                0x00000000        0x8 build/obj/testheap.o
 .rodata.str1.4
                0x00000000       0x28 build/obj/testheap.o
 .rodata.testheap1
                0x00000000       0x10 build/obj/testheap.o
 .bss.test_heap
                0x00000000       0x20 build/obj/testheap.o
 .debug_info    0x00000000      0xe61 build/obj/testheap.o
 .debug_abbrev  0x00000000      0x288 build/obj/testheap.o
 .debug_loc     0x00000000      0x157 build/obj/testheap.o
 .debug_aranges
                0x00000000       0x28 build/obj/testheap.o
 .debug_ranges  0x00000000       0x18 build/obj/testheap.o
 .debug_line    0x00000000      0x347 build/obj/testheap.o
 .debug_str     0x00000000      0x674 build/obj/testheap.o
 .comment       0x00000000       0x71 build/obj/testheap.o
 .ARM.attributes
                0x00000000       0x33 build/obj/testheap.o
 .debug_frame   0x00000000       0x44 build/obj/testheap.o
 .text          0x00000000        0x0 build/obj/testpools.o
 .data          0x00000000        0x0 build/obj/testpools.o
 .bss           0x00000000        0x0 build/obj/testpools.o
 .text.null_provider
                0x00000000       0x10 build/obj/testpools.o
 .text.pools1_setup
                0x00000000       0x10 build/obj/testpools.o
 .text.pools1_execute
                0x00000000       0xc0 build/obj/testpools.o
 .rodata.str1.4
                0x00000000       0x1c build/obj/testpools.o
 .rodata.patternpools
                0x00000000        0x8 build/obj/testpools.o
 .data.mp1      0x00000000        0xc build/obj/testpools.o
 .rodata.testpools1
                0x00000000       0x10 build/obj/testpools.o
 .debug_info    0x00000000      0x9d3 build/obj/testpools.o
 .debug_abbrev  0x00000000      0x25f build/obj/testpools.o
 .debug_loc     0x00000000       0xa6 build/obj/testpools.o
 .debug_aranges
                0x00000000       0x30 build/obj/testpools.o
 .debug_ranges  0x00000000       0x40 build/obj/testpools.o
 .debug_line    0x00000000      0x320 build/obj/testpools.o
 .debug_str     0x00000000      0x64d build/obj/testpools.o
 .comment       0x00000000       0x71 build/obj/testpools.o
 .ARM.attributes
                0x00000000       0x33 build/obj/testpools.o
 .debug_frame   0x00000000       0x50 build/obj/testpools.o
 .text          0x00000000        0x0 build/obj/testdyn.o
 .data          0x00000000        0x0 build/obj/testdyn.o
 .bss           0x00000000        0x0 build/obj/testdyn.o
 .text.dyn1_execute
                0x00000000       0xf0 build/obj/testdyn.o
 .text.thread   0x00000000       0x10 build/obj/testdyn.o
 .text.dyn1_setup
                0x00000000       0x20 build/obj/testdyn.o
 .text.dyn3_setup
                0x00000000       0x20 build/obj/testdyn.o
 .text.dyn2_execute
                0x00000000      0x100 build/obj/testdyn.o
 .text.dyn2_setup
                0x00000000       0x10 build/obj/testdyn.o
 .text.regfind  0x00000000       0x30 build/obj/testdyn.o
 .text.dyn3_execute
                0x00000000      0x140 build/obj/testdyn.o
 .rodata.testdyn1
                0x00000000       0x10 build/obj/testdyn.o
 .rodata.testdyn2
                0x00000000       0x10 build/obj/testdyn.o
 .rodata.testdyn3
                0x00000000       0x10 build/obj/testdyn.o
 .bss.mp1       0x00000000        0xc build/obj/testdyn.o
 .rodata.str1.4
                0x00000000       0xa4 build/obj/testdyn.o
 .rodata.patterndyn
                0x00000000       0x10 build/obj/testdyn.o
 .bss.heap1     0x00000000       0x20 build/obj/testdyn.o
 .debug_info    0x00000000     0x11c8 build/obj/testdyn.o
 .debug_abbrev  0x00000000      0x333 build/obj/testdyn.o
 .debug_loc     0x00000000      0x104 build/obj/testdyn.o
 .debug_aranges
                0x00000000       0x58 build/obj/testdyn.o
 .debug_ranges  0x00000000       0x98 build/obj/testdyn.o
 .debug_line    0x00000000      0x471 build/obj/testdyn.o
 .debug_str     0x00000000      0x7fe build/obj/testdyn.o
 .comment       0x00000000       0x71 build/obj/testdyn.o
 .ARM.attributes
                0x00000000       0x33 build/obj/testdyn.o
 .debug_frame   0x00000000       0xd0 build/obj/testdyn.o
 .text          0x00000000        0x0 build/obj/testqueues.o
 .data          0x00000000        0x0 build/obj/testqueues.o
 .bss           0x00000000        0x0 build/obj/testqueues.o
 .text.notify   0x00000000       0x10 build/obj/testqueues.o
 .text.thread1  0x00000000       0x10 build/obj/testqueues.o
 .text.queues1_setup
                0x00000000       0x30 build/obj/testqueues.o
 .text.thread2  0x00000000       0x10 build/obj/testqueues.o
 .text.queues2_setup
                0x00000000       0x30 build/obj/testqueues.o
 .text.queues1_execute
                0x00000000      0x270 build/obj/testqueues.o
 .text.queues2_execute
                0x00000000      0x260 build/obj/testqueues.o
 .rodata.testqueues1
                0x00000000       0x10 build/obj/testqueues.o
 .rodata.testqueues2
                0x00000000       0x10 build/obj/testqueues.o
 .rodata.str1.4
                0x00000000       0x38 build/obj/testqueues.o
 .rodata.patternqueues
                0x00000000        0xc build/obj/testqueues.o
 .data.oq       0x00000000       0x24 build/obj/testqueues.o
 .data.iq       0x00000000       0x24 build/obj/testqueues.o
 .debug_info    0x00000000     0x2285 build/obj/testqueues.o
 .debug_abbrev  0x00000000      0x3c0 build/obj/testqueues.o
 .debug_loc     0x00000000      0x61d build/obj/testqueues.o
 .debug_aranges
                0x00000000       0x50 build/obj/testqueues.o
 .debug_ranges  0x00000000      0x148 build/obj/testqueues.o
 .debug_line    0x00000000      0x613 build/obj/testqueues.o
 .debug_str     0x00000000      0x831 build/obj/testqueues.o
 .comment       0x00000000       0x71 build/obj/testqueues.o
 .ARM.attributes
                0x00000000       0x33 build/obj/testqueues.o
 .debug_frame   0x00000000       0xcc build/obj/testqueues.o
 .text          0x00000000        0x0 build/obj/testsys.o
 .data          0x00000000        0x0 build/obj/testsys.o
 .bss           0x00000000        0x0 build/obj/testsys.o
 .text.sys2_execute
                0x00000000       0x20 build/obj/testsys.o
 .text.vtcb     0x00000000       0x20 build/obj/testsys.o
 .text.sys3_execute
                0x00000000       0x90 build/obj/testsys.o
 .text.sys1_execute
                0x00000000       0xb0 build/obj/testsys.o
 .rodata.testsys1
                0x00000000       0x10 build/obj/testsys.o
 .rodata.testsys2
                0x00000000       0x10 build/obj/testsys.o
 .rodata.testsys3
                0x00000000       0x10 build/obj/testsys.o
 .rodata.str1.4
                0x00000000       0x48 build/obj/testsys.o
 .rodata.patternsys
                0x00000000       0x10 build/obj/testsys.o
 .debug_info    0x00000000     0x1566 build/obj/testsys.o
 .debug_abbrev  0x00000000      0x38c build/obj/testsys.o
 .debug_loc     0x00000000      0x1fc build/obj/testsys.o
 .debug_aranges
                0x00000000       0x38 build/obj/testsys.o
 .debug_ranges  0x00000000       0x58 build/obj/testsys.o
 .debug_line    0x00000000      0x451 build/obj/testsys.o
 .debug_str     0x00000000      0x7ef build/obj/testsys.o
 .comment       0x00000000       0x71 build/obj/testsys.o
 .ARM.attributes
                0x00000000       0x33 build/obj/testsys.o
 .debug_frame   0x00000000       0x78 build/obj/testsys.o
 .text          0x00000000        0x0 build/obj/testbmk.o
 .data          0x00000000        0x0 build/obj/testbmk.o
 .bss           0x00000000        0x0 build/obj/testbmk.o
 .text.tmo      0x00000000       0x10 build/obj/testbmk.o
 .text.bmk13_execute
                0x00000000       0xf0 build/obj/testbmk.o
 .text.thread2  0x00000000       0x20 build/obj/testbmk.o
 .text.bmk6_execute
                0x00000000       0x70 build/obj/testbmk.o
 .text.msg_loop_test
                0x00000000       0x40 build/obj/testbmk.o
 .text.bmk1_execute
                0x00000000       0x70 build/obj/testbmk.o
 .text.bmk2_execute
                0x00000000       0x70 build/obj/testbmk.o
 .text.bmk3_execute
                0x00000000       0xe0 build/obj/testbmk.o
 .text.thread1  0x00000000       0x10 build/obj/testbmk.o
 .text.bmk4_execute
                0x00000000       0xc0 build/obj/testbmk.o
 .text.thread4  0x00000000       0x30 build/obj/testbmk.o
 .text.bmk5_execute
                0x00000000       0x80 build/obj/testbmk.o
 .text.bmk7_execute
                0x00000000      0x110 build/obj/testbmk.o
 .text.thread3  0x00000000       0x30 build/obj/testbmk.o
 .text.bmk7_setup
                0x00000000       0x10 build/obj/testbmk.o
 .text.bmk11_setup
                0x00000000       0x10 build/obj/testbmk.o
 .text.bmk8_execute
                0x00000000       0xe0 build/obj/testbmk.o
 .text.thread8  0x00000000       0x30 build/obj/testbmk.o
 .text.bmk9_execute
                0x00000000       0xb0 build/obj/testbmk.o
 .text.bmk10_execute
                0x00000000       0x80 build/obj/testbmk.o
 .text.bmk11_execute
                0x00000000       0x70 build/obj/testbmk.o
 .text.bmk12_execute
                0x00000000       0x70 build/obj/testbmk.o
 .text.bmk12_setup
                0x00000000       0x10 build/obj/testbmk.o
 .bss.vt1.6551  0x00000000       0x14 build/obj/testbmk.o
 .rodata.patternbmk
                0x00000000       0x38 build/obj/testbmk.o
 .rodata.testbmk8
                0x00000000       0x10 build/obj/testbmk.o
 .rodata.testbmk3
                0x00000000       0x10 build/obj/testbmk.o
 .rodata.testbmk10
                0x00000000       0x10 build/obj/testbmk.o
 .rodata.testbmk4
                0x00000000       0x10 build/obj/testbmk.o
 .bss.iq.6541   0x00000000       0x24 build/obj/testbmk.o
 .bss.mtx1      0x00000000       0x10 build/obj/testbmk.o
 .rodata.testbmk12
                0x00000000       0x10 build/obj/testbmk.o
 .rodata.testbmk2
                0x00000000       0x10 build/obj/testbmk.o
 .rodata.str1.4
                0x00000000      0x2c8 build/obj/testbmk.o
 .bss.vt2.6552  0x00000000       0x14 build/obj/testbmk.o
 .rodata.testbmk9
                0x00000000       0x10 build/obj/testbmk.o
 .bss.sem1      0x00000000        0xc build/obj/testbmk.o
 .rodata.testbmk1
                0x00000000       0x10 build/obj/testbmk.o
 .rodata.testbmk11
                0x00000000       0x10 build/obj/testbmk.o
 .bss.ib.6540   0x00000000       0x10 build/obj/testbmk.o
 .rodata.testbmk13
                0x00000000       0x10 build/obj/testbmk.o
 .rodata.testbmk5
                0x00000000       0x10 build/obj/testbmk.o
 .rodata.testbmk6
                0x00000000       0x10 build/obj/testbmk.o
 .rodata.testbmk7
                0x00000000       0x10 build/obj/testbmk.o
 .debug_info    0x00000000     0x24aa build/obj/testbmk.o
 .debug_abbrev  0x00000000      0x465 build/obj/testbmk.o
 .debug_loc     0x00000000      0x2e9 build/obj/testbmk.o
 .debug_aranges
                0x00000000       0xd0 build/obj/testbmk.o
 .debug_ranges  0x00000000      0x1e0 build/obj/testbmk.o
 .debug_line    0x00000000      0x8c3 build/obj/testbmk.o
 .debug_str     0x00000000      0x9b7 build/obj/testbmk.o
 .comment       0x00000000       0x71 build/obj/testbmk.o
 .ARM.attributes
                0x00000000       0x33 build/obj/testbmk.o
 .debug_frame   0x00000000      0x2c8 build/obj/testbmk.o
 .text          0x00000000        0x0 build/obj/shell.o
 .data          0x00000000        0x0 build/obj/shell.o
 .bss           0x00000000        0x0 build/obj/shell.o
 .text.shellCreateStatic
                0x00000000       0x20 build/obj/shell.o
 .text          0x00000000        0x0 build/obj/evtimer.o
 .data          0x00000000        0x0 build/obj/evtimer.o
 .bss           0x00000000        0x0 build/obj/evtimer.o
 .text.tmrcb    0x00000000       0x30 build/obj/evtimer.o
 .text.evtObjectInit
                0x00000000       0x10 build/obj/evtimer.o
 .text.evtStart
                0x00000000       0x30 build/obj/evtimer.o
 .debug_info    0x00000000      0xbbf build/obj/evtimer.o
 .debug_abbrev  0x00000000      0x2f5 build/obj/evtimer.o
 .debug_loc     0x00000000      0x15f build/obj/evtimer.o
 .debug_aranges
                0x00000000       0x30 build/obj/evtimer.o
 .debug_ranges  0x00000000       0x80 build/obj/evtimer.o
 .debug_line    0x00000000      0x301 build/obj/evtimer.o
 .debug_str     0x00000000      0x735 build/obj/evtimer.o
 .comment       0x00000000       0x71 build/obj/evtimer.o
 .ARM.attributes
                0x00000000       0x33 build/obj/evtimer.o
 .debug_frame   0x00000000       0x5c build/obj/evtimer.o
 .text          0x00000000        0x0 build/obj/syscalls.o
 .data          0x00000000        0x0 build/obj/syscalls.o
 .bss           0x00000000        0x0 build/obj/syscalls.o
 .text._read_r  0x00000000       0x10 build/obj/syscalls.o
 .text._lseek_r
                0x00000000       0x10 build/obj/syscalls.o
 .text._write_r
                0x00000000       0x10 build/obj/syscalls.o
 .text._close_r
                0x00000000       0x10 build/obj/syscalls.o
 .text._fstat_r
                0x00000000       0x20 build/obj/syscalls.o
 .text._isatty_r
                0x00000000       0x10 build/obj/syscalls.o
 .text          0x00000000        0x0 build/obj/memstreams.o
 .data          0x00000000        0x0 build/obj/memstreams.o
 .bss           0x00000000        0x0 build/obj/memstreams.o
 .text.put      0x00000000       0x20 build/obj/memstreams.o
 .text.get      0x00000000       0x20 build/obj/memstreams.o
 .text.reads    0x00000000       0x30 build/obj/memstreams.o
 .text.writes   0x00000000       0x30 build/obj/memstreams.o
 .text.msObjectInit
                0x00000000       0x20 build/obj/memstreams.o
 .rodata.vmt    0x00000000       0x10 build/obj/memstreams.o
 .debug_info    0x00000000      0x939 build/obj/memstreams.o
 .debug_abbrev  0x00000000      0x20b build/obj/memstreams.o
 .debug_loc     0x00000000      0x1f4 build/obj/memstreams.o
 .debug_aranges
                0x00000000       0x40 build/obj/memstreams.o
 .debug_ranges  0x00000000       0x30 build/obj/memstreams.o
 .debug_line    0x00000000      0x342 build/obj/memstreams.o
 .debug_str     0x00000000      0x5a8 build/obj/memstreams.o
 .comment       0x00000000       0x71 build/obj/memstreams.o
 .ARM.attributes
                0x00000000       0x33 build/obj/memstreams.o
 .debug_frame   0x00000000       0x88 build/obj/memstreams.o
 .text          0x00000000        0x0 build/obj/chprintf.o
 .data          0x00000000        0x0 build/obj/chprintf.o
 .bss           0x00000000        0x0 build/obj/chprintf.o
 .text.chsnprintf
                0x00000000       0x60 build/obj/chprintf.o
 .text          0x00000000        0x0 build/obj/ff.o
 .data          0x00000000        0x0 build/obj/ff.o
 .bss           0x00000000        0x0 build/obj/ff.o
 .text.get_fileinfo.isra.1
                0x00000000       0x70 build/obj/ff.o
 .text.dir_remove
                0x00000000       0x40 build/obj/ff.o
 .text.dir_read.constprop.11
                0x00000000       0x60 build/obj/ff.o
 .text.clust2sect
                0x00000000       0x20 build/obj/ff.o
 .text.get_fat  0x00000000       0x20 build/obj/ff.o
 .text.put_fat  0x00000000       0x20 build/obj/ff.o
 .text.f_read   0x00000000      0x170 build/obj/ff.o
 .text.f_opendir
                0x00000000       0x80 build/obj/ff.o
 .text.f_closedir
                0x00000000       0x10 build/obj/ff.o
 .text.f_readdir
                0x00000000       0x60 build/obj/ff.o
 .text.f_stat   0x00000000       0x50 build/obj/ff.o
 .text.f_getfree
                0x00000000      0x100 build/obj/ff.o
 .text.f_truncate
                0x00000000       0xe0 build/obj/ff.o
 .text.f_unlink
                0x00000000       0xd0 build/obj/ff.o
 .text.f_mkdir  0x00000000      0x210 build/obj/ff.o
 .text.f_chmod  0x00000000       0x60 build/obj/ff.o
 .text.f_utime  0x00000000       0x60 build/obj/ff.o
 .text.f_rename
                0x00000000      0x150 build/obj/ff.o
 .text          0x00000000        0x0 build/obj/fatfs_diskio.o
 .data          0x00000000        0x0 build/obj/fatfs_diskio.o
 .bss           0x00000000        0x0 build/obj/fatfs_diskio.o
 .text          0x00000000        0x0 build/obj/fatfs_syscall.o
 .data          0x00000000        0x0 build/obj/fatfs_syscall.o
 .bss           0x00000000        0x0 build/obj/fatfs_syscall.o
 .debug_info    0x00000000      0x631 build/obj/fatfs_syscall.o
 .debug_abbrev  0x00000000      0x125 build/obj/fatfs_syscall.o
 .debug_aranges
                0x00000000       0x18 build/obj/fatfs_syscall.o
 .debug_line    0x00000000      0x20f build/obj/fatfs_syscall.o
 .debug_str     0x00000000      0x559 build/obj/fatfs_syscall.o
 .comment       0x00000000       0x71 build/obj/fatfs_syscall.o
 .ARM.attributes
                0x00000000       0x33 build/obj/fatfs_syscall.o
 .text          0x00000000        0x0 build/obj/main.o
 .data          0x00000000        0x0 build/obj/main.o
 .bss           0x00000000        0x0 build/obj/main.o
 .text.die      0x00000000       0x20 build/obj/main.o
 .rodata.Avg_Slope
                0x00000000        0x4 build/obj/main.o
 .bss.br        0x00000000        0x4 build/obj/main.o
 .bss.dir       0x00000000       0x1c build/obj/main.o
 .bss.fno       0x00000000       0x18 build/obj/main.o
 .bss.edgeTime  0x00000000        0x4 build/obj/main.o
 .rodata.V25    0x00000000        0x4 build/obj/main.o
 .bss.bw        0x00000000        0x4 build/obj/main.o
 .data          0x00000000        0x0 /nfs/nfs5/home/research/hardware/arm2/gcc-arm-embedded/gcc-arm-none-eabi-4_8-2014q2/bin/../lib/gcc/arm-none-eabi/4.8.4/armv7e-m/libgcc.a(_arm_addsubdf3.o)
 .bss           0x00000000        0x0 /nfs/nfs5/home/research/hardware/arm2/gcc-arm-embedded/gcc-arm-none-eabi-4_8-2014q2/bin/../lib/gcc/arm-none-eabi/4.8.4/armv7e-m/libgcc.a(_arm_addsubdf3.o)
 .data          0x00000000        0x0 /nfs/nfs5/home/research/hardware/arm2/gcc-arm-embedded/gcc-arm-none-eabi-4_8-2014q2/bin/../lib/gcc/arm-none-eabi/4.8.4/armv7e-m/libgcc.a(_arm_muldivdf3.o)
 .bss           0x00000000        0x0 /nfs/nfs5/home/research/hardware/arm2/gcc-arm-embedded/gcc-arm-none-eabi-4_8-2014q2/bin/../lib/gcc/arm-none-eabi/4.8.4/armv7e-m/libgcc.a(_arm_muldivdf3.o)
 .data          0x00000000        0x0 /nfs/nfs5/home/research/hardware/arm2/gcc-arm-embedded/gcc-arm-none-eabi-4_8-2014q2/bin/../lib/gcc/arm-none-eabi/4.8.4/armv7e-m/libgcc.a(_arm_fixdfsi.o)
 .bss           0x00000000        0x0 /nfs/nfs5/home/research/hardware/arm2/gcc-arm-embedded/gcc-arm-none-eabi-4_8-2014q2/bin/../lib/gcc/arm-none-eabi/4.8.4/armv7e-m/libgcc.a(_arm_fixdfsi.o)
 .text          0x00000000        0x0 /nfs/nfs5/home/research/hardware/arm2/gcc-arm-embedded/gcc-arm-none-eabi-4_8-2014q2/bin/../lib/gcc/arm-none-eabi/4.8.4/../../../../arm-none-eabi/lib/armv7e-m/libg.a(lib_a-asctime.o)
 .data          0x00000000        0x0 /nfs/nfs5/home/research/hardware/arm2/gcc-arm-embedded/gcc-arm-none-eabi-4_8-2014q2/bin/../lib/gcc/arm-none-eabi/4.8.4/../../../../arm-none-eabi/lib/armv7e-m/libg.a(lib_a-asctime.o)
 .bss           0x00000000        0x0 /nfs/nfs5/home/research/hardware/arm2/gcc-arm-embedded/gcc-arm-none-eabi-4_8-2014q2/bin/../lib/gcc/arm-none-eabi/4.8.4/../../../../arm-none-eabi/lib/armv7e-m/libg.a(lib_a-asctime.o)
 .text          0x00000000        0x0 /nfs/nfs5/home/research/hardware/arm2/gcc-arm-embedded/gcc-arm-none-eabi-4_8-2014q2/bin/../lib/gcc/arm-none-eabi/4.8.4/../../../../arm-none-eabi/lib/armv7e-m/libg.a(lib_a-asctime_r.o)
 .data          0x00000000        0x0 /nfs/nfs5/home/research/hardware/arm2/gcc-arm-embedded/gcc-arm-none-eabi-4_8-2014q2/bin/../lib/gcc/arm-none-eabi/4.8.4/../../../../arm-none-eabi/lib/armv7e-m/libg.a(lib_a-asctime_r.o)
 .bss           0x00000000        0x0 /nfs/nfs5/home/research/hardware/arm2/gcc-arm-embedded/gcc-arm-none-eabi-4_8-2014q2/bin/../lib/gcc/arm-none-eabi/4.8.4/../../../../arm-none-eabi/lib/armv7e-m/libg.a(lib_a-asctime_r.o)
 .text          0x00000000        0x0 /nfs/nfs5/home/research/hardware/arm2/gcc-arm-embedded/gcc-arm-none-eabi-4_8-2014q2/bin/../lib/gcc/arm-none-eabi/4.8.4/../../../../arm-none-eabi/lib/armv7e-m/libg.a(lib_a-atoi.o)
 .data          0x00000000        0x0 /nfs/nfs5/home/research/hardware/arm2/gcc-arm-embedded/gcc-arm-none-eabi-4_8-2014q2/bin/../lib/gcc/arm-none-eabi/4.8.4/../../../../arm-none-eabi/lib/armv7e-m/libg.a(lib_a-atoi.o)
 .bss           0x00000000        0x0 /nfs/nfs5/home/research/hardware/arm2/gcc-arm-embedded/gcc-arm-none-eabi-4_8-2014q2/bin/../lib/gcc/arm-none-eabi/4.8.4/../../../../arm-none-eabi/lib/armv7e-m/libg.a(lib_a-atoi.o)
 .text._atoi_r  0x00000000        0x8 /nfs/nfs5/home/research/hardware/arm2/gcc-arm-embedded/gcc-arm-none-eabi-4_8-2014q2/bin/../lib/gcc/arm-none-eabi/4.8.4/../../../../arm-none-eabi/lib/armv7e-m/libg.a(lib_a-atoi.o)
 .text          0x00000000        0x0 /nfs/nfs5/home/research/hardware/arm2/gcc-arm-embedded/gcc-arm-none-eabi-4_8-2014q2/bin/../lib/gcc/arm-none-eabi/4.8.4/../../../../arm-none-eabi/lib/armv7e-m/libg.a(lib_a-impure.o)
 .data          0x00000000        0x0 /nfs/nfs5/home/research/hardware/arm2/gcc-arm-embedded/gcc-arm-none-eabi-4_8-2014q2/bin/../lib/gcc/arm-none-eabi/4.8.4/../../../../arm-none-eabi/lib/armv7e-m/libg.a(lib_a-impure.o)
 .bss           0x00000000        0x0 /nfs/nfs5/home/research/hardware/arm2/gcc-arm-embedded/gcc-arm-none-eabi-4_8-2014q2/bin/../lib/gcc/arm-none-eabi/4.8.4/../../../../arm-none-eabi/lib/armv7e-m/libg.a(lib_a-impure.o)
 .rodata._global_impure_ptr
                0x00000000        0x4 /nfs/nfs5/home/research/hardware/arm2/gcc-arm-embedded/gcc-arm-none-eabi-4_8-2014q2/bin/../lib/gcc/arm-none-eabi/4.8.4/../../../../arm-none-eabi/lib/armv7e-m/libg.a(lib_a-impure.o)
 .text          0x00000000        0x0 /nfs/nfs5/home/research/hardware/arm2/gcc-arm-embedded/gcc-arm-none-eabi-4_8-2014q2/bin/../lib/gcc/arm-none-eabi/4.8.4/../../../../arm-none-eabi/lib/armv7e-m/libg.a(lib_a-lcltime.o)
 .data          0x00000000        0x0 /nfs/nfs5/home/research/hardware/arm2/gcc-arm-embedded/gcc-arm-none-eabi-4_8-2014q2/bin/../lib/gcc/arm-none-eabi/4.8.4/../../../../arm-none-eabi/lib/armv7e-m/libg.a(lib_a-lcltime.o)
 .bss           0x00000000        0x0 /nfs/nfs5/home/research/hardware/arm2/gcc-arm-embedded/gcc-arm-none-eabi-4_8-2014q2/bin/../lib/gcc/arm-none-eabi/4.8.4/../../../../arm-none-eabi/lib/armv7e-m/libg.a(lib_a-lcltime.o)
 .text          0x00000000        0x0 /nfs/nfs5/home/research/hardware/arm2/gcc-arm-embedded/gcc-arm-none-eabi-4_8-2014q2/bin/../lib/gcc/arm-none-eabi/4.8.4/../../../../arm-none-eabi/lib/armv7e-m/libg.a(lib_a-lcltime_r.o)
 .data          0x00000000        0x0 /nfs/nfs5/home/research/hardware/arm2/gcc-arm-embedded/gcc-arm-none-eabi-4_8-2014q2/bin/../lib/gcc/arm-none-eabi/4.8.4/../../../../arm-none-eabi/lib/armv7e-m/libg.a(lib_a-lcltime_r.o)
 .bss           0x00000000        0x0 /nfs/nfs5/home/research/hardware/arm2/gcc-arm-embedded/gcc-arm-none-eabi-4_8-2014q2/bin/../lib/gcc/arm-none-eabi/4.8.4/../../../../arm-none-eabi/lib/armv7e-m/libg.a(lib_a-lcltime_r.o)
 .data          0x00000000        0x0 /nfs/nfs5/home/research/hardware/arm2/gcc-arm-embedded/gcc-arm-none-eabi-4_8-2014q2/bin/../lib/gcc/arm-none-eabi/4.8.4/../../../../arm-none-eabi/lib/armv7e-m/libg.a(lib_a-memcpy.o)
 .bss           0x00000000        0x0 /nfs/nfs5/home/research/hardware/arm2/gcc-arm-embedded/gcc-arm-none-eabi-4_8-2014q2/bin/../lib/gcc/arm-none-eabi/4.8.4/../../../../arm-none-eabi/lib/armv7e-m/libg.a(lib_a-memcpy.o)
 .text          0x00000000        0x0 /nfs/nfs5/home/research/hardware/arm2/gcc-arm-embedded/gcc-arm-none-eabi-4_8-2014q2/bin/../lib/gcc/arm-none-eabi/4.8.4/../../../../arm-none-eabi/lib/armv7e-m/libg.a(lib_a-memset.o)
 .data          0x00000000        0x0 /nfs/nfs5/home/research/hardware/arm2/gcc-arm-embedded/gcc-arm-none-eabi-4_8-2014q2/bin/../lib/gcc/arm-none-eabi/4.8.4/../../../../arm-none-eabi/lib/armv7e-m/libg.a(lib_a-memset.o)
 .bss           0x00000000        0x0 /nfs/nfs5/home/research/hardware/arm2/gcc-arm-embedded/gcc-arm-none-eabi-4_8-2014q2/bin/../lib/gcc/arm-none-eabi/4.8.4/../../../../arm-none-eabi/lib/armv7e-m/libg.a(lib_a-memset.o)
 .text          0x00000000        0x0 /nfs/nfs5/home/research/hardware/arm2/gcc-arm-embedded/gcc-arm-none-eabi-4_8-2014q2/bin/../lib/gcc/arm-none-eabi/4.8.4/../../../../arm-none-eabi/lib/armv7e-m/libg.a(lib_a-mktm_r.o)
 .data          0x00000000        0x0 /nfs/nfs5/home/research/hardware/arm2/gcc-arm-embedded/gcc-arm-none-eabi-4_8-2014q2/bin/../lib/gcc/arm-none-eabi/4.8.4/../../../../arm-none-eabi/lib/armv7e-m/libg.a(lib_a-mktm_r.o)
 .bss           0x00000000        0x0 /nfs/nfs5/home/research/hardware/arm2/gcc-arm-embedded/gcc-arm-none-eabi-4_8-2014q2/bin/../lib/gcc/arm-none-eabi/4.8.4/../../../../arm-none-eabi/lib/armv7e-m/libg.a(lib_a-mktm_r.o)
 .text          0x00000000        0x0 /nfs/nfs5/home/research/hardware/arm2/gcc-arm-embedded/gcc-arm-none-eabi-4_8-2014q2/bin/../lib/gcc/arm-none-eabi/4.8.4/../../../../arm-none-eabi/lib/armv7e-m/libg.a(lib_a-siprintf.o)
 .data          0x00000000        0x0 /nfs/nfs5/home/research/hardware/arm2/gcc-arm-embedded/gcc-arm-none-eabi-4_8-2014q2/bin/../lib/gcc/arm-none-eabi/4.8.4/../../../../arm-none-eabi/lib/armv7e-m/libg.a(lib_a-siprintf.o)
 .bss           0x00000000        0x0 /nfs/nfs5/home/research/hardware/arm2/gcc-arm-embedded/gcc-arm-none-eabi-4_8-2014q2/bin/../lib/gcc/arm-none-eabi/4.8.4/../../../../arm-none-eabi/lib/armv7e-m/libg.a(lib_a-siprintf.o)
 .text._siprintf_r
                0x00000000       0x44 /nfs/nfs5/home/research/hardware/arm2/gcc-arm-embedded/gcc-arm-none-eabi-4_8-2014q2/bin/../lib/gcc/arm-none-eabi/4.8.4/../../../../arm-none-eabi/lib/armv7e-m/libg.a(lib_a-siprintf.o)
 .text          0x00000000        0x0 /nfs/nfs5/home/research/hardware/arm2/gcc-arm-embedded/gcc-arm-none-eabi-4_8-2014q2/bin/../lib/gcc/arm-none-eabi/4.8.4/../../../../arm-none-eabi/lib/armv7e-m/libg.a(lib_a-sprintf.o)
 .data          0x00000000        0x0 /nfs/nfs5/home/research/hardware/arm2/gcc-arm-embedded/gcc-arm-none-eabi-4_8-2014q2/bin/../lib/gcc/arm-none-eabi/4.8.4/../../../../arm-none-eabi/lib/armv7e-m/libg.a(lib_a-sprintf.o)
 .bss           0x00000000        0x0 /nfs/nfs5/home/research/hardware/arm2/gcc-arm-embedded/gcc-arm-none-eabi-4_8-2014q2/bin/../lib/gcc/arm-none-eabi/4.8.4/../../../../arm-none-eabi/lib/armv7e-m/libg.a(lib_a-sprintf.o)
 .text._sprintf_r
                0x00000000       0x44 /nfs/nfs5/home/research/hardware/arm2/gcc-arm-embedded/gcc-arm-none-eabi-4_8-2014q2/bin/../lib/gcc/arm-none-eabi/4.8.4/../../../../arm-none-eabi/lib/armv7e-m/libg.a(lib_a-sprintf.o)
 .data          0x00000000        0x0 /nfs/nfs5/home/research/hardware/arm2/gcc-arm-embedded/gcc-arm-none-eabi-4_8-2014q2/bin/../lib/gcc/arm-none-eabi/4.8.4/../../../../arm-none-eabi/lib/armv7e-m/libg.a(lib_a-strcmp.o)
 .bss           0x00000000        0x0 /nfs/nfs5/home/research/hardware/arm2/gcc-arm-embedded/gcc-arm-none-eabi-4_8-2014q2/bin/../lib/gcc/arm-none-eabi/4.8.4/../../../../arm-none-eabi/lib/armv7e-m/libg.a(lib_a-strcmp.o)
 .text          0x00000000        0x0 /nfs/nfs5/home/research/hardware/arm2/gcc-arm-embedded/gcc-arm-none-eabi-4_8-2014q2/bin/../lib/gcc/arm-none-eabi/4.8.4/../../../../arm-none-eabi/lib/armv7e-m/libg.a(lib_a-strlen.o)
 .data          0x00000000        0x0 /nfs/nfs5/home/research/hardware/arm2/gcc-arm-embedded/gcc-arm-none-eabi-4_8-2014q2/bin/../lib/gcc/arm-none-eabi/4.8.4/../../../../arm-none-eabi/lib/armv7e-m/libg.a(lib_a-strlen.o)
 .bss           0x00000000        0x0 /nfs/nfs5/home/research/hardware/arm2/gcc-arm-embedded/gcc-arm-none-eabi-4_8-2014q2/bin/../lib/gcc/arm-none-eabi/4.8.4/../../../../arm-none-eabi/lib/armv7e-m/libg.a(lib_a-strlen.o)
 .text          0x00000000        0x0 /nfs/nfs5/home/research/hardware/arm2/gcc-arm-embedded/gcc-arm-none-eabi-4_8-2014q2/bin/../lib/gcc/arm-none-eabi/4.8.4/../../../../arm-none-eabi/lib/armv7e-m/libg.a(lib_a-strpbrk.o)
 .data          0x00000000        0x0 /nfs/nfs5/home/research/hardware/arm2/gcc-arm-embedded/gcc-arm-none-eabi-4_8-2014q2/bin/../lib/gcc/arm-none-eabi/4.8.4/../../../../arm-none-eabi/lib/armv7e-m/libg.a(lib_a-strpbrk.o)
 .bss           0x00000000        0x0 /nfs/nfs5/home/research/hardware/arm2/gcc-arm-embedded/gcc-arm-none-eabi-4_8-2014q2/bin/../lib/gcc/arm-none-eabi/4.8.4/../../../../arm-none-eabi/lib/armv7e-m/libg.a(lib_a-strpbrk.o)
 .text          0x00000000        0x0 /nfs/nfs5/home/research/hardware/arm2/gcc-arm-embedded/gcc-arm-none-eabi-4_8-2014q2/bin/../lib/gcc/arm-none-eabi/4.8.4/../../../../arm-none-eabi/lib/armv7e-m/libg.a(lib_a-strspn.o)
 .data          0x00000000        0x0 /nfs/nfs5/home/research/hardware/arm2/gcc-arm-embedded/gcc-arm-none-eabi-4_8-2014q2/bin/../lib/gcc/arm-none-eabi/4.8.4/../../../../arm-none-eabi/lib/armv7e-m/libg.a(lib_a-strspn.o)
 .bss           0x00000000        0x0 /nfs/nfs5/home/research/hardware/arm2/gcc-arm-embedded/gcc-arm-none-eabi-4_8-2014q2/bin/../lib/gcc/arm-none-eabi/4.8.4/../../../../arm-none-eabi/lib/armv7e-m/libg.a(lib_a-strspn.o)
 .text          0x00000000        0x0 /nfs/nfs5/home/research/hardware/arm2/gcc-arm-embedded/gcc-arm-none-eabi-4_8-2014q2/bin/../lib/gcc/arm-none-eabi/4.8.4/../../../../arm-none-eabi/lib/armv7e-m/libg.a(lib_a-strstr.o)
 .data          0x00000000        0x0 /nfs/nfs5/home/research/hardware/arm2/gcc-arm-embedded/gcc-arm-none-eabi-4_8-2014q2/bin/../lib/gcc/arm-none-eabi/4.8.4/../../../../arm-none-eabi/lib/armv7e-m/libg.a(lib_a-strstr.o)
 .bss           0x00000000        0x0 /nfs/nfs5/home/research/hardware/arm2/gcc-arm-embedded/gcc-arm-none-eabi-4_8-2014q2/bin/../lib/gcc/arm-none-eabi/4.8.4/../../../../arm-none-eabi/lib/armv7e-m/libg.a(lib_a-strstr.o)
 .text          0x00000000        0x0 /nfs/nfs5/home/research/hardware/arm2/gcc-arm-embedded/gcc-arm-none-eabi-4_8-2014q2/bin/../lib/gcc/arm-none-eabi/4.8.4/../../../../arm-none-eabi/lib/armv7e-m/libg.a(lib_a-strtol.o)
 .data          0x00000000        0x0 /nfs/nfs5/home/research/hardware/arm2/gcc-arm-embedded/gcc-arm-none-eabi-4_8-2014q2/bin/../lib/gcc/arm-none-eabi/4.8.4/../../../../arm-none-eabi/lib/armv7e-m/libg.a(lib_a-strtol.o)
 .bss           0x00000000        0x0 /nfs/nfs5/home/research/hardware/arm2/gcc-arm-embedded/gcc-arm-none-eabi-4_8-2014q2/bin/../lib/gcc/arm-none-eabi/4.8.4/../../../../arm-none-eabi/lib/armv7e-m/libg.a(lib_a-strtol.o)
 .text          0x00000000        0x0 /nfs/nfs5/home/research/hardware/arm2/gcc-arm-embedded/gcc-arm-none-eabi-4_8-2014q2/bin/../lib/gcc/arm-none-eabi/4.8.4/../../../../arm-none-eabi/lib/armv7e-m/libg.a(lib_a-svfiprintf.o)
 .data          0x00000000        0x0 /nfs/nfs5/home/research/hardware/arm2/gcc-arm-embedded/gcc-arm-none-eabi-4_8-2014q2/bin/../lib/gcc/arm-none-eabi/4.8.4/../../../../arm-none-eabi/lib/armv7e-m/libg.a(lib_a-svfiprintf.o)
 .bss           0x00000000        0x0 /nfs/nfs5/home/research/hardware/arm2/gcc-arm-embedded/gcc-arm-none-eabi-4_8-2014q2/bin/../lib/gcc/arm-none-eabi/4.8.4/../../../../arm-none-eabi/lib/armv7e-m/libg.a(lib_a-svfiprintf.o)
 .text          0x00000000        0x0 /nfs/nfs5/home/research/hardware/arm2/gcc-arm-embedded/gcc-arm-none-eabi-4_8-2014q2/bin/../lib/gcc/arm-none-eabi/4.8.4/../../../../arm-none-eabi/lib/armv7e-m/libg.a(lib_a-svfprintf.o)
 .data          0x00000000        0x0 /nfs/nfs5/home/research/hardware/arm2/gcc-arm-embedded/gcc-arm-none-eabi-4_8-2014q2/bin/../lib/gcc/arm-none-eabi/4.8.4/../../../../arm-none-eabi/lib/armv7e-m/libg.a(lib_a-svfprintf.o)
 .bss           0x00000000        0x0 /nfs/nfs5/home/research/hardware/arm2/gcc-arm-embedded/gcc-arm-none-eabi-4_8-2014q2/bin/../lib/gcc/arm-none-eabi/4.8.4/../../../../arm-none-eabi/lib/armv7e-m/libg.a(lib_a-svfprintf.o)
 .text          0x00000000        0x0 /nfs/nfs5/home/research/hardware/arm2/gcc-arm-embedded/gcc-arm-none-eabi-4_8-2014q2/bin/../lib/gcc/arm-none-eabi/4.8.4/../../../../arm-none-eabi/lib/armv7e-m/libg.a(lib_a-tzlock.o)
 .data          0x00000000        0x0 /nfs/nfs5/home/research/hardware/arm2/gcc-arm-embedded/gcc-arm-none-eabi-4_8-2014q2/bin/../lib/gcc/arm-none-eabi/4.8.4/../../../../arm-none-eabi/lib/armv7e-m/libg.a(lib_a-tzlock.o)
 .bss           0x00000000        0x0 /nfs/nfs5/home/research/hardware/arm2/gcc-arm-embedded/gcc-arm-none-eabi-4_8-2014q2/bin/../lib/gcc/arm-none-eabi/4.8.4/../../../../arm-none-eabi/lib/armv7e-m/libg.a(lib_a-tzlock.o)
 .text          0x00000000        0x0 /nfs/nfs5/home/research/hardware/arm2/gcc-arm-embedded/gcc-arm-none-eabi-4_8-2014q2/bin/../lib/gcc/arm-none-eabi/4.8.4/../../../../arm-none-eabi/lib/armv7e-m/libg.a(lib_a-tzvars.o)
 .data          0x00000000        0x0 /nfs/nfs5/home/research/hardware/arm2/gcc-arm-embedded/gcc-arm-none-eabi-4_8-2014q2/bin/../lib/gcc/arm-none-eabi/4.8.4/../../../../arm-none-eabi/lib/armv7e-m/libg.a(lib_a-tzvars.o)
 .bss           0x00000000        0x0 /nfs/nfs5/home/research/hardware/arm2/gcc-arm-embedded/gcc-arm-none-eabi-4_8-2014q2/bin/../lib/gcc/arm-none-eabi/4.8.4/../../../../arm-none-eabi/lib/armv7e-m/libg.a(lib_a-tzvars.o)
 .data._tzname  0x00000000        0x8 /nfs/nfs5/home/research/hardware/arm2/gcc-arm-embedded/gcc-arm-none-eabi-4_8-2014q2/bin/../lib/gcc/arm-none-eabi/4.8.4/../../../../arm-none-eabi/lib/armv7e-m/libg.a(lib_a-tzvars.o)
 .bss._timezone
                0x00000000        0x4 /nfs/nfs5/home/research/hardware/arm2/gcc-arm-embedded/gcc-arm-none-eabi-4_8-2014q2/bin/../lib/gcc/arm-none-eabi/4.8.4/../../../../arm-none-eabi/lib/armv7e-m/libg.a(lib_a-tzvars.o)
 .rodata.str1.4
                0x00000000        0x4 /nfs/nfs5/home/research/hardware/arm2/gcc-arm-embedded/gcc-arm-none-eabi-4_8-2014q2/bin/../lib/gcc/arm-none-eabi/4.8.4/../../../../arm-none-eabi/lib/armv7e-m/libg.a(lib_a-tzvars.o)
 .text          0x00000000        0x0 /nfs/nfs5/home/research/hardware/arm2/gcc-arm-embedded/gcc-arm-none-eabi-4_8-2014q2/bin/../lib/gcc/arm-none-eabi/4.8.4/../../../../arm-none-eabi/lib/armv7e-m/libg.a(lib_a-ctype_.o)
 .data          0x00000000        0x0 /nfs/nfs5/home/research/hardware/arm2/gcc-arm-embedded/gcc-arm-none-eabi-4_8-2014q2/bin/../lib/gcc/arm-none-eabi/4.8.4/../../../../arm-none-eabi/lib/armv7e-m/libg.a(lib_a-ctype_.o)
 .bss           0x00000000        0x0 /nfs/nfs5/home/research/hardware/arm2/gcc-arm-embedded/gcc-arm-none-eabi-4_8-2014q2/bin/../lib/gcc/arm-none-eabi/4.8.4/../../../../arm-none-eabi/lib/armv7e-m/libg.a(lib_a-ctype_.o)
 .text          0x00000000        0x0 /nfs/nfs5/home/research/hardware/arm2/gcc-arm-embedded/gcc-arm-none-eabi-4_8-2014q2/bin/../lib/gcc/arm-none-eabi/4.8.4/../../../../arm-none-eabi/lib/armv7e-m/libg.a(lib_a-dtoa.o)
 .data          0x00000000        0x0 /nfs/nfs5/home/research/hardware/arm2/gcc-arm-embedded/gcc-arm-none-eabi-4_8-2014q2/bin/../lib/gcc/arm-none-eabi/4.8.4/../../../../arm-none-eabi/lib/armv7e-m/libg.a(lib_a-dtoa.o)
 .bss           0x00000000        0x0 /nfs/nfs5/home/research/hardware/arm2/gcc-arm-embedded/gcc-arm-none-eabi-4_8-2014q2/bin/../lib/gcc/arm-none-eabi/4.8.4/../../../../arm-none-eabi/lib/armv7e-m/libg.a(lib_a-dtoa.o)
 .text          0x00000000        0x0 /nfs/nfs5/home/research/hardware/arm2/gcc-arm-embedded/gcc-arm-none-eabi-4_8-2014q2/bin/../lib/gcc/arm-none-eabi/4.8.4/../../../../arm-none-eabi/lib/armv7e-m/libg.a(lib_a-freer.o)
 .data          0x00000000        0x0 /nfs/nfs5/home/research/hardware/arm2/gcc-arm-embedded/gcc-arm-none-eabi-4_8-2014q2/bin/../lib/gcc/arm-none-eabi/4.8.4/../../../../arm-none-eabi/lib/armv7e-m/libg.a(lib_a-freer.o)
 .bss           0x00000000        0x0 /nfs/nfs5/home/research/hardware/arm2/gcc-arm-embedded/gcc-arm-none-eabi-4_8-2014q2/bin/../lib/gcc/arm-none-eabi/4.8.4/../../../../arm-none-eabi/lib/armv7e-m/libg.a(lib_a-freer.o)
 .text          0x00000000        0x0 /nfs/nfs5/home/research/hardware/arm2/gcc-arm-embedded/gcc-arm-none-eabi-4_8-2014q2/bin/../lib/gcc/arm-none-eabi/4.8.4/../../../../arm-none-eabi/lib/armv7e-m/libg.a(lib_a-gettzinfo.o)
 .data          0x00000000        0x0 /nfs/nfs5/home/research/hardware/arm2/gcc-arm-embedded/gcc-arm-none-eabi-4_8-2014q2/bin/../lib/gcc/arm-none-eabi/4.8.4/../../../../arm-none-eabi/lib/armv7e-m/libg.a(lib_a-gettzinfo.o)
 .bss           0x00000000        0x0 /nfs/nfs5/home/research/hardware/arm2/gcc-arm-embedded/gcc-arm-none-eabi-4_8-2014q2/bin/../lib/gcc/arm-none-eabi/4.8.4/../../../../arm-none-eabi/lib/armv7e-m/libg.a(lib_a-gettzinfo.o)
 .text          0x00000000        0x0 /nfs/nfs5/home/research/hardware/arm2/gcc-arm-embedded/gcc-arm-none-eabi-4_8-2014q2/bin/../lib/gcc/arm-none-eabi/4.8.4/../../../../arm-none-eabi/lib/armv7e-m/libg.a(lib_a-locale.o)
 .data          0x00000000        0x0 /nfs/nfs5/home/research/hardware/arm2/gcc-arm-embedded/gcc-arm-none-eabi-4_8-2014q2/bin/../lib/gcc/arm-none-eabi/4.8.4/../../../../arm-none-eabi/lib/armv7e-m/libg.a(lib_a-locale.o)
 .bss           0x00000000        0x0 /nfs/nfs5/home/research/hardware/arm2/gcc-arm-embedded/gcc-arm-none-eabi-4_8-2014q2/bin/../lib/gcc/arm-none-eabi/4.8.4/../../../../arm-none-eabi/lib/armv7e-m/libg.a(lib_a-locale.o)
 .text._setlocale_r
                0x00000000       0x40 /nfs/nfs5/home/research/hardware/arm2/gcc-arm-embedded/gcc-arm-none-eabi-4_8-2014q2/bin/../lib/gcc/arm-none-eabi/4.8.4/../../../../arm-none-eabi/lib/armv7e-m/libg.a(lib_a-locale.o)
 .text.__locale_charset
                0x00000000        0x8 /nfs/nfs5/home/research/hardware/arm2/gcc-arm-embedded/gcc-arm-none-eabi-4_8-2014q2/bin/../lib/gcc/arm-none-eabi/4.8.4/../../../../arm-none-eabi/lib/armv7e-m/libg.a(lib_a-locale.o)
 .text.__locale_mb_cur_max
                0x00000000        0xc /nfs/nfs5/home/research/hardware/arm2/gcc-arm-embedded/gcc-arm-none-eabi-4_8-2014q2/bin/../lib/gcc/arm-none-eabi/4.8.4/../../../../arm-none-eabi/lib/armv7e-m/libg.a(lib_a-locale.o)
 .text.__locale_msgcharset
                0x00000000        0x8 /nfs/nfs5/home/research/hardware/arm2/gcc-arm-embedded/gcc-arm-none-eabi-4_8-2014q2/bin/../lib/gcc/arm-none-eabi/4.8.4/../../../../arm-none-eabi/lib/armv7e-m/libg.a(lib_a-locale.o)
 .text.__locale_cjk_lang
                0x00000000        0x4 /nfs/nfs5/home/research/hardware/arm2/gcc-arm-embedded/gcc-arm-none-eabi-4_8-2014q2/bin/../lib/gcc/arm-none-eabi/4.8.4/../../../../arm-none-eabi/lib/armv7e-m/libg.a(lib_a-locale.o)
 .text.setlocale
                0x00000000       0x10 /nfs/nfs5/home/research/hardware/arm2/gcc-arm-embedded/gcc-arm-none-eabi-4_8-2014q2/bin/../lib/gcc/arm-none-eabi/4.8.4/../../../../arm-none-eabi/lib/armv7e-m/libg.a(lib_a-locale.o)
 .text.localeconv
                0x00000000        0x8 /nfs/nfs5/home/research/hardware/arm2/gcc-arm-embedded/gcc-arm-none-eabi-4_8-2014q2/bin/../lib/gcc/arm-none-eabi/4.8.4/../../../../arm-none-eabi/lib/armv7e-m/libg.a(lib_a-locale.o)
 .data.lc_message_charset
                0x00000000       0x20 /nfs/nfs5/home/research/hardware/arm2/gcc-arm-embedded/gcc-arm-none-eabi-4_8-2014q2/bin/../lib/gcc/arm-none-eabi/4.8.4/../../../../arm-none-eabi/lib/armv7e-m/libg.a(lib_a-locale.o)
 .bss._PathLocale
                0x00000000        0x4 /nfs/nfs5/home/research/hardware/arm2/gcc-arm-embedded/gcc-arm-none-eabi-4_8-2014q2/bin/../lib/gcc/arm-none-eabi/4.8.4/../../../../arm-none-eabi/lib/armv7e-m/libg.a(lib_a-locale.o)
 .bss.__nlocale_changed
                0x00000000        0x4 /nfs/nfs5/home/research/hardware/arm2/gcc-arm-embedded/gcc-arm-none-eabi-4_8-2014q2/bin/../lib/gcc/arm-none-eabi/4.8.4/../../../../arm-none-eabi/lib/armv7e-m/libg.a(lib_a-locale.o)
 .bss.__mlocale_changed
                0x00000000        0x4 /nfs/nfs5/home/research/hardware/arm2/gcc-arm-embedded/gcc-arm-none-eabi-4_8-2014q2/bin/../lib/gcc/arm-none-eabi/4.8.4/../../../../arm-none-eabi/lib/armv7e-m/libg.a(lib_a-locale.o)
 .data.lc_ctype_charset
                0x00000000       0x20 /nfs/nfs5/home/research/hardware/arm2/gcc-arm-embedded/gcc-arm-none-eabi-4_8-2014q2/bin/../lib/gcc/arm-none-eabi/4.8.4/../../../../arm-none-eabi/lib/armv7e-m/libg.a(lib_a-locale.o)
 .data.__mb_cur_max
                0x00000000        0x4 /nfs/nfs5/home/research/hardware/arm2/gcc-arm-embedded/gcc-arm-none-eabi-4_8-2014q2/bin/../lib/gcc/arm-none-eabi/4.8.4/../../../../arm-none-eabi/lib/armv7e-m/libg.a(lib_a-locale.o)
 .text          0x00000000        0x0 /nfs/nfs5/home/research/hardware/arm2/gcc-arm-embedded/gcc-arm-none-eabi-4_8-2014q2/bin/../lib/gcc/arm-none-eabi/4.8.4/../../../../arm-none-eabi/lib/armv7e-m/libg.a(lib_a-mallocr.o)
 .data          0x00000000        0x0 /nfs/nfs5/home/research/hardware/arm2/gcc-arm-embedded/gcc-arm-none-eabi-4_8-2014q2/bin/../lib/gcc/arm-none-eabi/4.8.4/../../../../arm-none-eabi/lib/armv7e-m/libg.a(lib_a-mallocr.o)
 .bss           0x00000000        0x0 /nfs/nfs5/home/research/hardware/arm2/gcc-arm-embedded/gcc-arm-none-eabi-4_8-2014q2/bin/../lib/gcc/arm-none-eabi/4.8.4/../../../../arm-none-eabi/lib/armv7e-m/libg.a(lib_a-mallocr.o)
 .text          0x00000000        0x0 /nfs/nfs5/home/research/hardware/arm2/gcc-arm-embedded/gcc-arm-none-eabi-4_8-2014q2/bin/../lib/gcc/arm-none-eabi/4.8.4/../../../../arm-none-eabi/lib/armv7e-m/libg.a(lib_a-memchr-stub.o)
 .data          0x00000000        0x0 /nfs/nfs5/home/research/hardware/arm2/gcc-arm-embedded/gcc-arm-none-eabi-4_8-2014q2/bin/../lib/gcc/arm-none-eabi/4.8.4/../../../../arm-none-eabi/lib/armv7e-m/libg.a(lib_a-memchr-stub.o)
 .bss           0x00000000        0x0 /nfs/nfs5/home/research/hardware/arm2/gcc-arm-embedded/gcc-arm-none-eabi-4_8-2014q2/bin/../lib/gcc/arm-none-eabi/4.8.4/../../../../arm-none-eabi/lib/armv7e-m/libg.a(lib_a-memchr-stub.o)
 .text          0x00000000        0x0 /nfs/nfs5/home/research/hardware/arm2/gcc-arm-embedded/gcc-arm-none-eabi-4_8-2014q2/bin/../lib/gcc/arm-none-eabi/4.8.4/../../../../arm-none-eabi/lib/armv7e-m/libg.a(lib_a-memcmp.o)
 .data          0x00000000        0x0 /nfs/nfs5/home/research/hardware/arm2/gcc-arm-embedded/gcc-arm-none-eabi-4_8-2014q2/bin/../lib/gcc/arm-none-eabi/4.8.4/../../../../arm-none-eabi/lib/armv7e-m/libg.a(lib_a-memcmp.o)
 .bss           0x00000000        0x0 /nfs/nfs5/home/research/hardware/arm2/gcc-arm-embedded/gcc-arm-none-eabi-4_8-2014q2/bin/../lib/gcc/arm-none-eabi/4.8.4/../../../../arm-none-eabi/lib/armv7e-m/libg.a(lib_a-memcmp.o)
 .text          0x00000000        0x0 /nfs/nfs5/home/research/hardware/arm2/gcc-arm-embedded/gcc-arm-none-eabi-4_8-2014q2/bin/../lib/gcc/arm-none-eabi/4.8.4/../../../../arm-none-eabi/lib/armv7e-m/libg.a(lib_a-memmove.o)
 .data          0x00000000        0x0 /nfs/nfs5/home/research/hardware/arm2/gcc-arm-embedded/gcc-arm-none-eabi-4_8-2014q2/bin/../lib/gcc/arm-none-eabi/4.8.4/../../../../arm-none-eabi/lib/armv7e-m/libg.a(lib_a-memmove.o)
 .bss           0x00000000        0x0 /nfs/nfs5/home/research/hardware/arm2/gcc-arm-embedded/gcc-arm-none-eabi-4_8-2014q2/bin/../lib/gcc/arm-none-eabi/4.8.4/../../../../arm-none-eabi/lib/armv7e-m/libg.a(lib_a-memmove.o)
 .text          0x00000000        0x0 /nfs/nfs5/home/research/hardware/arm2/gcc-arm-embedded/gcc-arm-none-eabi-4_8-2014q2/bin/../lib/gcc/arm-none-eabi/4.8.4/../../../../arm-none-eabi/lib/armv7e-m/libg.a(lib_a-mlock.o)
 .data          0x00000000        0x0 /nfs/nfs5/home/research/hardware/arm2/gcc-arm-embedded/gcc-arm-none-eabi-4_8-2014q2/bin/../lib/gcc/arm-none-eabi/4.8.4/../../../../arm-none-eabi/lib/armv7e-m/libg.a(lib_a-mlock.o)
 .bss           0x00000000        0x0 /nfs/nfs5/home/research/hardware/arm2/gcc-arm-embedded/gcc-arm-none-eabi-4_8-2014q2/bin/../lib/gcc/arm-none-eabi/4.8.4/../../../../arm-none-eabi/lib/armv7e-m/libg.a(lib_a-mlock.o)
 .text          0x00000000        0x0 /nfs/nfs5/home/research/hardware/arm2/gcc-arm-embedded/gcc-arm-none-eabi-4_8-2014q2/bin/../lib/gcc/arm-none-eabi/4.8.4/../../../../arm-none-eabi/lib/armv7e-m/libg.a(lib_a-mprec.o)
 .data          0x00000000        0x0 /nfs/nfs5/home/research/hardware/arm2/gcc-arm-embedded/gcc-arm-none-eabi-4_8-2014q2/bin/../lib/gcc/arm-none-eabi/4.8.4/../../../../arm-none-eabi/lib/armv7e-m/libg.a(lib_a-mprec.o)
 .bss           0x00000000        0x0 /nfs/nfs5/home/research/hardware/arm2/gcc-arm-embedded/gcc-arm-none-eabi-4_8-2014q2/bin/../lib/gcc/arm-none-eabi/4.8.4/../../../../arm-none-eabi/lib/armv7e-m/libg.a(lib_a-mprec.o)
 .text.__s2b    0x00000000       0x98 /nfs/nfs5/home/research/hardware/arm2/gcc-arm-embedded/gcc-arm-none-eabi-4_8-2014q2/bin/../lib/gcc/arm-none-eabi/4.8.4/../../../../arm-none-eabi/lib/armv7e-m/libg.a(lib_a-mprec.o)
 .text.__ulp    0x00000000       0x40 /nfs/nfs5/home/research/hardware/arm2/gcc-arm-embedded/gcc-arm-none-eabi-4_8-2014q2/bin/../lib/gcc/arm-none-eabi/4.8.4/../../../../arm-none-eabi/lib/armv7e-m/libg.a(lib_a-mprec.o)
 .text.__b2d    0x00000000       0xb4 /nfs/nfs5/home/research/hardware/arm2/gcc-arm-embedded/gcc-arm-none-eabi-4_8-2014q2/bin/../lib/gcc/arm-none-eabi/4.8.4/../../../../arm-none-eabi/lib/armv7e-m/libg.a(lib_a-mprec.o)
 .text.__ratio  0x00000000       0x50 /nfs/nfs5/home/research/hardware/arm2/gcc-arm-embedded/gcc-arm-none-eabi-4_8-2014q2/bin/../lib/gcc/arm-none-eabi/4.8.4/../../../../arm-none-eabi/lib/armv7e-m/libg.a(lib_a-mprec.o)
 .text._mprec_log10
                0x00000000       0x34 /nfs/nfs5/home/research/hardware/arm2/gcc-arm-embedded/gcc-arm-none-eabi-4_8-2014q2/bin/../lib/gcc/arm-none-eabi/4.8.4/../../../../arm-none-eabi/lib/armv7e-m/libg.a(lib_a-mprec.o)
 .text.__copybits
                0x00000000       0x48 /nfs/nfs5/home/research/hardware/arm2/gcc-arm-embedded/gcc-arm-none-eabi-4_8-2014q2/bin/../lib/gcc/arm-none-eabi/4.8.4/../../../../arm-none-eabi/lib/armv7e-m/libg.a(lib_a-mprec.o)
 .text.__any_on
                0x00000000       0x60 /nfs/nfs5/home/research/hardware/arm2/gcc-arm-embedded/gcc-arm-none-eabi-4_8-2014q2/bin/../lib/gcc/arm-none-eabi/4.8.4/../../../../arm-none-eabi/lib/armv7e-m/libg.a(lib_a-mprec.o)
 .rodata.__mprec_tinytens
                0x00000000       0x28 /nfs/nfs5/home/research/hardware/arm2/gcc-arm-embedded/gcc-arm-none-eabi-4_8-2014q2/bin/../lib/gcc/arm-none-eabi/4.8.4/../../../../arm-none-eabi/lib/armv7e-m/libg.a(lib_a-mprec.o)
 .text          0x00000000        0x0 /nfs/nfs5/home/research/hardware/arm2/gcc-arm-embedded/gcc-arm-none-eabi-4_8-2014q2/bin/../lib/gcc/arm-none-eabi/4.8.4/../../../../arm-none-eabi/lib/armv7e-m/libg.a(lib_a-reallocr.o)
 .data          0x00000000        0x0 /nfs/nfs5/home/research/hardware/arm2/gcc-arm-embedded/gcc-arm-none-eabi-4_8-2014q2/bin/../lib/gcc/arm-none-eabi/4.8.4/../../../../arm-none-eabi/lib/armv7e-m/libg.a(lib_a-reallocr.o)
 .bss           0x00000000        0x0 /nfs/nfs5/home/research/hardware/arm2/gcc-arm-embedded/gcc-arm-none-eabi-4_8-2014q2/bin/../lib/gcc/arm-none-eabi/4.8.4/../../../../arm-none-eabi/lib/armv7e-m/libg.a(lib_a-reallocr.o)
 .text          0x00000000        0x0 /nfs/nfs5/home/research/hardware/arm2/gcc-arm-embedded/gcc-arm-none-eabi-4_8-2014q2/bin/../lib/gcc/arm-none-eabi/4.8.4/../../../../arm-none-eabi/lib/armv7e-m/libg.a(lib_a-s_fpclassify.o)
 .data          0x00000000        0x0 /nfs/nfs5/home/research/hardware/arm2/gcc-arm-embedded/gcc-arm-none-eabi-4_8-2014q2/bin/../lib/gcc/arm-none-eabi/4.8.4/../../../../arm-none-eabi/lib/armv7e-m/libg.a(lib_a-s_fpclassify.o)
 .bss           0x00000000        0x0 /nfs/nfs5/home/research/hardware/arm2/gcc-arm-embedded/gcc-arm-none-eabi-4_8-2014q2/bin/../lib/gcc/arm-none-eabi/4.8.4/../../../../arm-none-eabi/lib/armv7e-m/libg.a(lib_a-s_fpclassify.o)
 .text          0x00000000        0x0 /nfs/nfs5/home/research/hardware/arm2/gcc-arm-embedded/gcc-arm-none-eabi-4_8-2014q2/bin/../lib/gcc/arm-none-eabi/4.8.4/../../../../arm-none-eabi/lib/armv7e-m/libg.a(lib_a-strchr.o)
 .data          0x00000000        0x0 /nfs/nfs5/home/research/hardware/arm2/gcc-arm-embedded/gcc-arm-none-eabi-4_8-2014q2/bin/../lib/gcc/arm-none-eabi/4.8.4/../../../../arm-none-eabi/lib/armv7e-m/libg.a(lib_a-strchr.o)
 .bss           0x00000000        0x0 /nfs/nfs5/home/research/hardware/arm2/gcc-arm-embedded/gcc-arm-none-eabi-4_8-2014q2/bin/../lib/gcc/arm-none-eabi/4.8.4/../../../../arm-none-eabi/lib/armv7e-m/libg.a(lib_a-strchr.o)
 .text          0x00000000        0x0 /nfs/nfs5/home/research/hardware/arm2/gcc-arm-embedded/gcc-arm-none-eabi-4_8-2014q2/bin/../lib/gcc/arm-none-eabi/4.8.4/../../../../arm-none-eabi/lib/armv7e-m/libg.a(lib_a-callocr.o)
 .data          0x00000000        0x0 /nfs/nfs5/home/research/hardware/arm2/gcc-arm-embedded/gcc-arm-none-eabi-4_8-2014q2/bin/../lib/gcc/arm-none-eabi/4.8.4/../../../../arm-none-eabi/lib/armv7e-m/libg.a(lib_a-callocr.o)
 .bss           0x00000000        0x0 /nfs/nfs5/home/research/hardware/arm2/gcc-arm-embedded/gcc-arm-none-eabi-4_8-2014q2/bin/../lib/gcc/arm-none-eabi/4.8.4/../../../../arm-none-eabi/lib/armv7e-m/libg.a(lib_a-callocr.o)
 .data          0x00000000        0x0 /nfs/nfs5/home/research/hardware/arm2/gcc-arm-embedded/gcc-arm-none-eabi-4_8-2014q2/bin/../lib/gcc/arm-none-eabi/4.8.4/armv7e-m/libgcc.a(_arm_cmpdf2.o)
 .bss           0x00000000        0x0 /nfs/nfs5/home/research/hardware/arm2/gcc-arm-embedded/gcc-arm-none-eabi-4_8-2014q2/bin/../lib/gcc/arm-none-eabi/4.8.4/armv7e-m/libgcc.a(_arm_cmpdf2.o)
 .data          0x00000000        0x0 /nfs/nfs5/home/research/hardware/arm2/gcc-arm-embedded/gcc-arm-none-eabi-4_8-2014q2/bin/../lib/gcc/arm-none-eabi/4.8.4/armv7e-m/libgcc.a(_aeabi_uldivmod.o)
 .bss           0x00000000        0x0 /nfs/nfs5/home/research/hardware/arm2/gcc-arm-embedded/gcc-arm-none-eabi-4_8-2014q2/bin/../lib/gcc/arm-none-eabi/4.8.4/armv7e-m/libgcc.a(_aeabi_uldivmod.o)
 .data          0x00000000        0x0 /nfs/nfs5/home/research/hardware/arm2/gcc-arm-embedded/gcc-arm-none-eabi-4_8-2014q2/bin/../lib/gcc/arm-none-eabi/4.8.4/armv7e-m/libgcc.a(bpabi.o)
 .bss           0x00000000        0x0 /nfs/nfs5/home/research/hardware/arm2/gcc-arm-embedded/gcc-arm-none-eabi-4_8-2014q2/bin/../lib/gcc/arm-none-eabi/4.8.4/armv7e-m/libgcc.a(bpabi.o)
 .data          0x00000000        0x0 /nfs/nfs5/home/research/hardware/arm2/gcc-arm-embedded/gcc-arm-none-eabi-4_8-2014q2/bin/../lib/gcc/arm-none-eabi/4.8.4/armv7e-m/libgcc.a(_dvmd_tls.o)
 .bss           0x00000000        0x0 /nfs/nfs5/home/research/hardware/arm2/gcc-arm-embedded/gcc-arm-none-eabi-4_8-2014q2/bin/../lib/gcc/arm-none-eabi/4.8.4/armv7e-m/libgcc.a(_dvmd_tls.o)
 .data          0x00000000        0x0 /nfs/nfs5/home/research/hardware/arm2/gcc-arm-embedded/gcc-arm-none-eabi-4_8-2014q2/bin/../lib/gcc/arm-none-eabi/4.8.4/armv7e-m/libgcc.a(_divdi3.o)
 .bss           0x00000000        0x0 /nfs/nfs5/home/research/hardware/arm2/gcc-arm-embedded/gcc-arm-none-eabi-4_8-2014q2/bin/../lib/gcc/arm-none-eabi/4.8.4/armv7e-m/libgcc.a(_divdi3.o)
 .ARM.extab     0x00000000        0x0 /nfs/nfs5/home/research/hardware/arm2/gcc-arm-embedded/gcc-arm-none-eabi-4_8-2014q2/bin/../lib/gcc/arm-none-eabi/4.8.4/armv7e-m/libgcc.a(_divdi3.o)
 .data          0x00000000        0x0 /nfs/nfs5/home/research/hardware/arm2/gcc-arm-embedded/gcc-arm-none-eabi-4_8-2014q2/bin/../lib/gcc/arm-none-eabi/4.8.4/armv7e-m/libgcc.a(_udivdi3.o)
 .bss           0x00000000        0x0 /nfs/nfs5/home/research/hardware/arm2/gcc-arm-embedded/gcc-arm-none-eabi-4_8-2014q2/bin/../lib/gcc/arm-none-eabi/4.8.4/armv7e-m/libgcc.a(_udivdi3.o)
 .ARM.extab     0x00000000        0x0 /nfs/nfs5/home/research/hardware/arm2/gcc-arm-embedded/gcc-arm-none-eabi-4_8-2014q2/bin/../lib/gcc/arm-none-eabi/4.8.4/armv7e-m/libgcc.a(_udivdi3.o)

Memory Configuration

Name             Origin             Length             Attributes
flash            0x08000000         0x00040000
ram0             0x20000000         0x0000a000
ram1             0x00000000         0x00000000
ram2             0x00000000         0x00000000
ram3             0x00000000         0x00000000
ram4             0x10000000         0x00002000
ram5             0x00000000         0x00000000
ram6             0x00000000         0x00000000
ram7             0x00000000         0x00000000
*default*        0x00000000         0xffffffff

Linker script and memory map

LOAD build/obj/crt0_v7m.o
LOAD build/obj/chcoreasm_v7m.o
LOAD build/obj/crt1.o
LOAD build/obj/vectors.o
LOAD build/obj/chsys.o
LOAD build/obj/chdebug.o
LOAD build/obj/chvt.o
LOAD build/obj/chschd.o
LOAD build/obj/chthreads.o
LOAD build/obj/chtm.o
LOAD build/obj/chdynamic.o
LOAD build/obj/chregistry.o
LOAD build/obj/chsem.o
LOAD build/obj/chmtx.o
LOAD build/obj/chcond.o
LOAD build/obj/chevents.o
LOAD build/obj/chmsg.o
LOAD build/obj/chmboxes.o
LOAD build/obj/chqueues.o
LOAD build/obj/chmemcore.o
LOAD build/obj/chheap.o
LOAD build/obj/chmempools.o
LOAD build/obj/chcore.o
LOAD build/obj/chcore_v7m.o
LOAD build/obj/osal.o
LOAD build/obj/hal.o
LOAD build/obj/st.o
LOAD build/obj/hal_buffers.o
LOAD build/obj/hal_queues.o
LOAD build/obj/hal_mmcsd.o
LOAD build/obj/adc.o
LOAD build/obj/ext.o
LOAD build/obj/gpt.o
LOAD build/obj/mmc_spi.o
LOAD build/obj/pal.o
LOAD build/obj/rtc.o
LOAD build/obj/serial.o
LOAD build/obj/spi.o
LOAD build/obj/nvic.o
LOAD build/obj/hal_lld.o
LOAD build/obj/stm32_dma.o
LOAD build/obj/st_lld.o
LOAD build/obj/adc_lld.o
LOAD build/obj/ext_lld.o
LOAD build/obj/ext_lld_isr.o
LOAD build/obj/pal_lld.o
LOAD build/obj/rtc_lld.o
LOAD build/obj/spi_lld.o
LOAD build/obj/gpt_lld.o
LOAD build/obj/serial_lld.o
LOAD build/obj/board.o
LOAD build/obj/test.o
LOAD build/obj/testthd.o
LOAD build/obj/testsem.o
LOAD build/obj/testmtx.o
LOAD build/obj/testmsg.o
LOAD build/obj/testmbox.o
LOAD build/obj/testevt.o
LOAD build/obj/testheap.o
LOAD build/obj/testpools.o
LOAD build/obj/testdyn.o
LOAD build/obj/testqueues.o
LOAD build/obj/testsys.o
LOAD build/obj/testbmk.o
LOAD build/obj/shell.o
LOAD build/obj/evtimer.o
LOAD build/obj/syscalls.o
LOAD build/obj/memstreams.o
LOAD build/obj/chprintf.o
LOAD build/obj/ff.o
LOAD build/obj/fatfs_diskio.o
LOAD build/obj/fatfs_syscall.o
LOAD build/obj/main.o
                0x20000000                __ram0_start__ = ORIGIN (ram0)
                0x0000a000                __ram0_size__ = 0xa000
                0x2000a000                __ram0_end__ = (__ram0_start__ + __ram0_size__)
                0x00000000                __ram1_start__ = ORIGIN (ram1)
                0x00000000                __ram1_size__ = 0x0
                0x00000000                __ram1_end__ = (__ram1_start__ + __ram1_size__)
                0x00000000                __ram2_start__ = ORIGIN (ram2)
                0x00000000                __ram2_size__ = 0x0
                0x00000000                __ram2_end__ = (__ram2_start__ + __ram2_size__)
                0x00000000                __ram3_start__ = ORIGIN (ram3)
                0x00000000                __ram3_size__ = 0x0
                0x00000000                __ram3_end__ = (__ram3_start__ + __ram3_size__)
                0x10000000                __ram4_start__ = ORIGIN (ram4)
                0x00002000                __ram4_size__ = 0x2000
                0x10002000                __ram4_end__ = (__ram4_start__ + __ram4_size__)
                0x00000000                __ram5_start__ = ORIGIN (ram5)
                0x00000000                __ram5_size__ = 0x0
                0x00000000                __ram5_end__ = (__ram5_start__ + __ram5_size__)
                0x00000000                __ram6_start__ = ORIGIN (ram6)
                0x00000000                __ram6_size__ = 0x0
                0x00000000                __ram6_end__ = (__ram6_start__ + __ram6_size__)
                0x00000000                __ram7_start__ = ORIGIN (ram7)
                0x00000000                __ram7_size__ = 0x0
                0x00000000                __ram7_end__ = (__ram7_start__ + __ram7_size__)
                0x00000000                . = 0x0
                0x00000000                _text = .

startup         0x08000000      0x200
 *(.vectors)
 .vectors       0x08000000      0x200 build/obj/vectors.o
                0x08000000                _vectors

constructors    0x08000200        0x0
                0x08000200                __init_array_start = .
 *(SORT(.init_array.*))
 *(.init_array)
                0x08000200                __init_array_end = .

destructors     0x08000200        0x0
                0x08000200                __fini_array_start = .
 *(.fini_array)
 *(SORT(.fini_array.*))
                0x08000200                __fini_array_end = .

.text           0x08000200     0xcf4c
 *(.text)
 .text          0x08000200       0xd4 build/obj/crt0_v7m.o
                0x08000200                Reset_Handler
 *fill*         0x080002d4        0xc 
 .text          0x080002e0       0x28 build/obj/chcoreasm_v7m.o
                0x080002e0                _port_switch
                0x080002f0                _port_thread_start
                0x08000300                _port_switch_from_isr
                0x08000304                _port_exit_from_isr
 *fill*         0x08000308        0x8 
 .text          0x08000310      0x370 /nfs/nfs5/home/research/hardware/arm2/gcc-arm-embedded/gcc-arm-none-eabi-4_8-2014q2/bin/../lib/gcc/arm-none-eabi/4.8.4/armv7e-m/libgcc.a(_arm_addsubdf3.o)
                0x08000310                __aeabi_drsub
                0x08000318                __aeabi_dsub
                0x08000318                __subdf3
                0x0800031c                __adddf3
                0x0800031c                __aeabi_dadd
                0x08000594                __aeabi_ui2d
                0x08000594                __floatunsidf
                0x080005b4                __floatsidf
                0x080005b4                __aeabi_i2d
                0x080005d8                __extendsfdf2
                0x080005d8                __aeabi_f2d
                0x08000614                __aeabi_ul2d
                0x08000614                __floatundidf
                0x08000624                __floatdidf
                0x08000624                __aeabi_l2d
 .text          0x08000680      0x424 /nfs/nfs5/home/research/hardware/arm2/gcc-arm-embedded/gcc-arm-none-eabi-4_8-2014q2/bin/../lib/gcc/arm-none-eabi/4.8.4/armv7e-m/libgcc.a(_arm_muldivdf3.o)
                0x08000680                __aeabi_dmul
                0x08000680                __muldf3
                0x080008d4                __aeabi_ddiv
                0x080008d4                __divdf3
 *fill*         0x08000aa4        0xc 
 .text          0x08000ab0       0x50 /nfs/nfs5/home/research/hardware/arm2/gcc-arm-embedded/gcc-arm-none-eabi-4_8-2014q2/bin/../lib/gcc/arm-none-eabi/4.8.4/armv7e-m/libgcc.a(_arm_fixdfsi.o)
                0x08000ab0                __fixdfsi
                0x08000ab0                __aeabi_d2iz
 .text          0x08000b00      0x134 /nfs/nfs5/home/research/hardware/arm2/gcc-arm-embedded/gcc-arm-none-eabi-4_8-2014q2/bin/../lib/gcc/arm-none-eabi/4.8.4/../../../../arm-none-eabi/lib/armv7e-m/libg.a(lib_a-memcpy.o)
                0x08000b00                memcpy
 *fill*         0x08000c34        0xc 
 .text          0x08000c40      0x21c /nfs/nfs5/home/research/hardware/arm2/gcc-arm-embedded/gcc-arm-none-eabi-4_8-2014q2/bin/../lib/gcc/arm-none-eabi/4.8.4/../../../../arm-none-eabi/lib/armv7e-m/libg.a(lib_a-strcmp.o)
                0x08000c40                strcmp
 *fill*         0x08000e5c        0x4 
 .text          0x08000e60      0x110 /nfs/nfs5/home/research/hardware/arm2/gcc-arm-embedded/gcc-arm-none-eabi-4_8-2014q2/bin/../lib/gcc/arm-none-eabi/4.8.4/armv7e-m/libgcc.a(_arm_cmpdf2.o)
                0x08000e60                __gtdf2
                0x08000e60                __gedf2
                0x08000e68                __ltdf2
                0x08000e68                __ledf2
                0x08000e70                __cmpdf2
                0x08000e70                __eqdf2
                0x08000e70                __nedf2
                0x08000eec                __aeabi_cdrcmple
                0x08000efc                __aeabi_cdcmple
                0x08000efc                __aeabi_cdcmpeq
                0x08000f0c                __aeabi_dcmpeq
                0x08000f20                __aeabi_dcmplt
                0x08000f34                __aeabi_dcmple
                0x08000f48                __aeabi_dcmpge
                0x08000f5c                __aeabi_dcmpgt
 .text          0x08000f70       0x2c /nfs/nfs5/home/research/hardware/arm2/gcc-arm-embedded/gcc-arm-none-eabi-4_8-2014q2/bin/../lib/gcc/arm-none-eabi/4.8.4/armv7e-m/libgcc.a(_aeabi_uldivmod.o)
                0x08000f70                __aeabi_uldivmod
 *fill*         0x08000f9c        0x4 
 .text          0x08000fa0       0x60 /nfs/nfs5/home/research/hardware/arm2/gcc-arm-embedded/gcc-arm-none-eabi-4_8-2014q2/bin/../lib/gcc/arm-none-eabi/4.8.4/armv7e-m/libgcc.a(bpabi.o)
                0x08000fa0                __gnu_ldivmod_helper
                0x08000fd0                __gnu_uldivmod_helper
 .text          0x08001000        0x4 /nfs/nfs5/home/research/hardware/arm2/gcc-arm-embedded/gcc-arm-none-eabi-4_8-2014q2/bin/../lib/gcc/arm-none-eabi/4.8.4/armv7e-m/libgcc.a(_dvmd_tls.o)
                0x08001000                __aeabi_ldiv0
                0x08001000                __aeabi_idiv0
 *fill*         0x08001004        0xc 
 .text          0x08001010      0x298 /nfs/nfs5/home/research/hardware/arm2/gcc-arm-embedded/gcc-arm-none-eabi-4_8-2014q2/bin/../lib/gcc/arm-none-eabi/4.8.4/armv7e-m/libgcc.a(_divdi3.o)
                0x08001010                __divdi3
 *fill*         0x080012a8        0x8 
 .text          0x080012b0      0x284 /nfs/nfs5/home/research/hardware/arm2/gcc-arm-embedded/gcc-arm-none-eabi-4_8-2014q2/bin/../lib/gcc/arm-none-eabi/4.8.4/armv7e-m/libgcc.a(_udivdi3.o)
                0x080012b0                __udivdi3
 *(.text.*)
 *fill*         0x08001534        0xc 
 .text.__core_init
                0x08001540       0x10 build/obj/crt1.o
                0x08001540                __core_init
 .text.__late_init
                0x08001550       0x10 build/obj/crt1.o
                0x08001550                __late_init
 .text.__default_exit
                0x08001560       0x10 build/obj/crt1.o
                0x08001560                __default_exit
 .text.__init_ram_areas
                0x08001570       0x60 build/obj/crt1.o
                0x08001570                __init_ram_areas
 .text._unhandled_exception
                0x080015d0       0x10 build/obj/vectors.o
                0x080015d0                VectorAC
                0x080015d0                DebugMon_Handler
                0x080015d0                Vector11C
                0x080015d0                HardFault_Handler
                0x080015d0                Vector19C
                0x080015d0                Vector8C
                0x080015d0                SysTick_Handler
                0x080015d0                VectorDC
                0x080015d0                PendSV_Handler
                0x080015d0                Vector168
                0x080015d0                NMI_Handler
                0x080015d0                Vector110
                0x080015d0                VectorC8
                0x080015d0                Vector94
                0x080015d0                VectorA8
                0x080015d0                VectorB4
                0x080015d0                Vector160
                0x080015d0                UsageFault_Handler
                0x080015d0                VectorEC
                0x080015d0                Vector40
                0x080015d0                VectorF8
                0x080015d0                Vector108
                0x080015d0                VectorBC
                0x080015d0                Vector190
                0x080015d0                Vector150
                0x080015d0                Vector188
                0x080015d0                Vector198
                0x080015d0                Vector118
                0x080015d0                VectorCC
                0x080015d0                Vector54
                0x080015d0                Vector98
                0x080015d0                Vector138
                0x080015d0                Vector24
                0x080015d0                Vector178
                0x080015d0                VectorD0
                0x080015d0                VectorC0
                0x080015d0                Vector158
                0x080015d0                Vector134
                0x080015d0                VectorF0
                0x080015d0                Vector13C
                0x080015d0                Vector100
                0x080015d0                VectorF4
                0x080015d0                MemManage_Handler
                0x080015d0                VectorA0
                0x080015d0                VectorC4
                0x080015d0                Vector180
                0x080015d0                Vector90
                0x080015d0                Vector114
                0x080015d0                Vector164
                0x080015d0                Vector1C
                0x080015d0                Vector17C
                0x080015d0                Vector16C
                0x080015d0                Vector15C
                0x080015d0                _unhandled_exception
                0x080015d0                Vector170
                0x080015d0                Vector104
                0x080015d0                Vector184
                0x080015d0                Vector10C
                0x080015d0                Vector14C
                0x080015d0                BusFault_Handler
                0x080015d0                Vector50
                0x080015d0                Vector194
                0x080015d0                Vector154
                0x080015d0                Vector28
                0x080015d0                VectorB8
                0x080015d0                VectorFC
                0x080015d0                Vector34
                0x080015d0                Vector20
                0x080015d0                Vector18C
                0x080015d0                Vector174
 .text._idle_thread
                0x080015e0       0x10 build/obj/chsys.o
 .text.chSysInit
                0x080015f0       0xa0 build/obj/chsys.o
                0x080015f0                chSysInit
 .text.chSysHalt
                0x08001690       0x10 build/obj/chsys.o
                0x08001690                chSysHalt
 .text.chSysTimerHandlerI
                0x080016a0       0x80 build/obj/chsys.o
                0x080016a0                chSysTimerHandlerI
 .text.chSysGetStatusAndLockX
                0x08001720       0x20 build/obj/chsys.o
                0x08001720                chSysGetStatusAndLockX
 .text.chSysRestoreStatusX
                0x08001740       0x20 build/obj/chsys.o
                0x08001740                chSysRestoreStatusX
 .text.chSysPolledDelayX
                0x08001760       0x20 build/obj/chsys.o
                0x08001760                chSysPolledDelayX
 .text._vt_init
                0x08001780       0x20 build/obj/chvt.o
                0x08001780                _vt_init
 .text.chVTDoSetI
                0x080017a0       0x80 build/obj/chvt.o
                0x080017a0                chVTDoSetI
 .text.chVTDoResetI
                0x08001820       0x80 build/obj/chvt.o
                0x08001820                chVTDoResetI
 .text.wakeup   0x080018a0       0x70 build/obj/chschd.o
 .text._scheduler_init
                0x08001910       0x20 build/obj/chschd.o
                0x08001910                _scheduler_init
 .text.chSchReadyI
                0x08001930       0x30 build/obj/chschd.o
                0x08001930                chSchReadyI
 .text.chSchGoSleepS
                0x08001960       0x30 build/obj/chschd.o
                0x08001960                chSchGoSleepS
 .text.chSchGoSleepTimeoutS
                0x08001990       0x50 build/obj/chschd.o
                0x08001990                chSchGoSleepTimeoutS
 .text.chSchWakeupS
                0x080019e0       0x60 build/obj/chschd.o
                0x080019e0                chSchWakeupS
 .text.chSchIsPreemptionRequired
                0x08001a40       0x20 build/obj/chschd.o
                0x08001a40                chSchIsPreemptionRequired
 .text.chSchDoRescheduleAhead
                0x08001a60       0x40 build/obj/chschd.o
                0x08001a60                chSchDoRescheduleAhead
 .text.chSchRescheduleS
                0x08001aa0       0x20 build/obj/chschd.o
                0x08001aa0                chSchRescheduleS
 .text.chSchDoReschedule
                0x08001ac0       0x10 build/obj/chschd.o
                0x08001ac0                chSchDoReschedule
 .text._thread_init
                0x08001ad0       0x50 build/obj/chthreads.o
                0x08001ad0                _thread_init
 .text.chThdCreateI
                0x08001b20       0x70 build/obj/chthreads.o
                0x08001b20                chThdCreateI
 .text.chThdCreateStatic
                0x08001b90       0x80 build/obj/chthreads.o
                0x08001b90                chThdCreateStatic
 .text.chThdSleep
                0x08001c10       0x20 build/obj/chthreads.o
                0x08001c10                chThdSleep
 .text.chThdExitS
                0x08001c30       0x40 build/obj/chthreads.o
                0x08001c30                chThdExitS
 .text.chThdExit
                0x08001c70       0x10 build/obj/chthreads.o
                0x08001c70                chThdExit
 .text.chThdWait
                0x08001c80       0x40 build/obj/chthreads.o
                0x08001c80                chThdWait
 .text.chThdSuspendS
                0x08001cc0       0x20 build/obj/chthreads.o
                0x08001cc0                chThdSuspendS
 .text.chThdResumeI
                0x08001ce0       0x20 build/obj/chthreads.o
                0x08001ce0                chThdResumeI
 .text.chThdEnqueueTimeoutS
                0x08001d00       0x30 build/obj/chthreads.o
                0x08001d00                chThdEnqueueTimeoutS
 .text.chThdDequeueNextI
                0x08001d30       0x30 build/obj/chthreads.o
                0x08001d30                chThdDequeueNextI
 .text.chTMStartMeasurementX
                0x08001d60       0x10 build/obj/chtm.o
                0x08001d60                chTMStartMeasurementX
 .text.chTMStopMeasurementX
                0x08001d70       0x50 build/obj/chtm.o
                0x08001d70                chTMStopMeasurementX
 .text._tm_init
                0x08001dc0       0x40 build/obj/chtm.o
                0x08001dc0                _tm_init
 .text.chThdRelease
                0x08001e00       0x50 build/obj/chdynamic.o
                0x08001e00                chThdRelease
 .text.chThdCreateFromHeap
                0x08001e50       0x40 build/obj/chdynamic.o
                0x08001e50                chThdCreateFromHeap
 .text.chSemObjectInit
                0x08001e90       0x10 build/obj/chsem.o
                0x08001e90                chSemObjectInit
 .text.chSemWaitS
                0x08001ea0       0x40 build/obj/chsem.o
                0x08001ea0                chSemWaitS
 .text.chSemWait
                0x08001ee0       0x20 build/obj/chsem.o
                0x08001ee0                chSemWait
 .text.chSemSignalI
                0x08001f00       0x20 build/obj/chsem.o
                0x08001f00                chSemSignalI
 .text.chMtxObjectInit
                0x08001f20       0x10 build/obj/chmtx.o
                0x08001f20                chMtxObjectInit
 .text.chMtxLockS
                0x08001f30       0xd0 build/obj/chmtx.o
                0x08001f30                chMtxLockS
 .text.chMtxLock
                0x08002000       0x20 build/obj/chmtx.o
                0x08002000                chMtxLock
 .text.chMtxUnlock
                0x08002020       0x70 build/obj/chmtx.o
                0x08002020                chMtxUnlock
 .text.chEvtRegisterMaskWithFlags
                0x08002090       0x30 build/obj/chevents.o
                0x08002090                chEvtRegisterMaskWithFlags
 .text.chEvtSignalI
                0x080020c0       0x30 build/obj/chevents.o
                0x080020c0                chEvtSignalI
 .text.chEvtBroadcastFlagsI
                0x080020f0       0x30 build/obj/chevents.o
                0x080020f0                chEvtBroadcastFlagsI
 .text.chEvtDispatch
                0x08002120       0x40 build/obj/chevents.o
                0x08002120                chEvtDispatch
 .text.chEvtWaitOne
                0x08002160       0x40 build/obj/chevents.o
                0x08002160                chEvtWaitOne
 .text.chIQObjectInit
                0x080021a0       0x20 build/obj/chqueues.o
                0x080021a0                chIQObjectInit
 .text.chIQPutI
                0x080021c0       0x40 build/obj/chqueues.o
                0x080021c0                chIQPutI
 .text.chIQGetTimeout
                0x08002200       0x50 build/obj/chqueues.o
                0x08002200                chIQGetTimeout
 .text.chIQReadTimeout
                0x08002250       0x80 build/obj/chqueues.o
                0x08002250                chIQReadTimeout
 .text.chOQObjectInit
                0x080022d0       0x20 build/obj/chqueues.o
                0x080022d0                chOQObjectInit
 .text.chOQPutTimeout
                0x080022f0       0x60 build/obj/chqueues.o
                0x080022f0                chOQPutTimeout
 .text.chOQGetI
                0x08002350       0x40 build/obj/chqueues.o
                0x08002350                chOQGetI
 .text.chOQWriteTimeout
                0x08002390       0x90 build/obj/chqueues.o
                0x08002390                chOQWriteTimeout
 .text._core_init
                0x08002420       0x30 build/obj/chmemcore.o
                0x08002420                _core_init
 .text.chCoreAlloc
                0x08002450       0x40 build/obj/chmemcore.o
                0x08002450                chCoreAlloc
 .text._heap_init
                0x08002490       0x20 build/obj/chheap.o
                0x08002490                _heap_init
 .text.chHeapAlloc
                0x080024b0       0x90 build/obj/chheap.o
                0x080024b0                chHeapAlloc
 .text.chHeapFree
                0x08002540       0xa0 build/obj/chheap.o
                0x08002540                chHeapFree
 .text.chPoolFree
                0x080025e0       0x20 build/obj/chmempools.o
                0x080025e0                chPoolFree
 .text.SVC_Handler
                0x08002600       0x20 build/obj/chcore_v7m.o
                0x08002600                SVC_Handler
 .text._port_irq_epilogue
                0x08002620       0x50 build/obj/chcore_v7m.o
                0x08002620                _port_irq_epilogue
 .text.halInit  0x08002670       0x40 build/obj/hal.o
                0x08002670                halInit
 .text.stInit   0x080026b0       0x10 build/obj/st.o
                0x080026b0                stInit
 .text.stStartAlarm
                0x080026c0       0x10 build/obj/st.o
                0x080026c0                stStartAlarm
 .text.stStopAlarm
                0x080026d0       0x10 build/obj/st.o
                0x080026d0                stStopAlarm
 .text.stSetAlarm
                0x080026e0       0x10 build/obj/st.o
                0x080026e0                stSetAlarm
 .text._mmcsd_get_slice
                0x080026f0       0x50 build/obj/hal_mmcsd.o
                0x080026f0                _mmcsd_get_slice
 .text._mmcsd_get_capacity
                0x08002740       0x60 build/obj/hal_mmcsd.o
                0x08002740                _mmcsd_get_capacity
 .text.adcInit  0x080027a0       0x10 build/obj/adc.o
                0x080027a0                adcInit
 .text.adcObjectInit
                0x080027b0       0x20 build/obj/adc.o
                0x080027b0                adcObjectInit
 .text.adcStart
                0x080027d0       0x20 build/obj/adc.o
                0x080027d0                adcStart
 .text.adcStartConversion
                0x080027f0       0x20 build/obj/adc.o
                0x080027f0                adcStartConversion
 .text.extInit  0x08002810       0x10 build/obj/ext.o
                0x08002810                extInit
 .text.extObjectInit
                0x08002820       0x10 build/obj/ext.o
                0x08002820                extObjectInit
 .text.extStart
                0x08002830       0x20 build/obj/ext.o
                0x08002830                extStart
 .text.gptInit  0x08002850       0x10 build/obj/gpt.o
                0x08002850                gptInit
 .text.gptObjectInit
                0x08002860       0x10 build/obj/gpt.o
                0x08002860                gptObjectInit
 .text.mmcGetInfo
                0x08002870       0x20 build/obj/mmc_spi.o
                0x08002870                mmcGetInfo
 .text.recvr1.isra.0
                0x08002890       0x30 build/obj/mmc_spi.o
 .text.wait.isra.1
                0x080028c0       0x40 build/obj/mmc_spi.o
 .text.send_hdr
                0x08002900       0x70 build/obj/mmc_spi.o
 .text.send_command_R3
                0x08002970       0x40 build/obj/mmc_spi.o
 .text.send_command_R1
                0x080029b0       0x30 build/obj/mmc_spi.o
 .text.read_CxD
                0x080029e0       0xb0 build/obj/mmc_spi.o
 .text.mmcConnect
                0x08002a90      0x120 build/obj/mmc_spi.o
                0x08002a90                mmcConnect
 .text.sync.isra.2
                0x08002bb0       0x40 build/obj/mmc_spi.o
 .text.mmcDisconnect
                0x08002bf0       0x50 build/obj/mmc_spi.o
                0x08002bf0                mmcDisconnect
 .text.mmcSync  0x08002c40       0x30 build/obj/mmc_spi.o
                0x08002c40                mmcSync
 .text.mmcInit  0x08002c70       0x10 build/obj/mmc_spi.o
                0x08002c70                mmcInit
 .text.mmcObjectInit
                0x08002c80       0x20 build/obj/mmc_spi.o
                0x08002c80                mmcObjectInit
 .text.mmcStart
                0x08002ca0       0x10 build/obj/mmc_spi.o
                0x08002ca0                mmcStart
 .text.mmcStartSequentialRead
                0x08002cb0       0x60 build/obj/mmc_spi.o
                0x08002cb0                mmcStartSequentialRead
 .text.mmcSequentialRead
                0x08002d10       0x60 build/obj/mmc_spi.o
                0x08002d10                mmcSequentialRead
 .text.mmcStopSequentialRead
                0x08002d70       0x40 build/obj/mmc_spi.o
                0x08002d70                mmcStopSequentialRead
 .text.mmc_read
                0x08002db0       0x40 build/obj/mmc_spi.o
 .text.mmcStartSequentialWrite
                0x08002df0       0x60 build/obj/mmc_spi.o
                0x08002df0                mmcStartSequentialWrite
 .text.mmcSequentialWrite
                0x08002e50       0x80 build/obj/mmc_spi.o
                0x08002e50                mmcSequentialWrite
 .text.mmcStopSequentialWrite
                0x08002ed0       0x30 build/obj/mmc_spi.o
                0x08002ed0                mmcStopSequentialWrite
 .text.mmc_write
                0x08002f00       0x40 build/obj/mmc_spi.o
 .text.rtcInit  0x08002f40       0x10 build/obj/rtc.o
                0x08002f40                rtcInit
 .text.rtcObjectInit
                0x08002f50       0x10 build/obj/rtc.o
                0x08002f50                rtcObjectInit
 .text.rtcSetTime
                0x08002f60       0x10 build/obj/rtc.o
                0x08002f60                rtcSetTime
 .text.rtcGetTime
                0x08002f70       0x10 build/obj/rtc.o
                0x08002f70                rtcGetTime
 .text.rtcConvertDateTimeToStructTm
                0x08002f80       0xb0 build/obj/rtc.o
                0x08002f80                rtcConvertDateTimeToStructTm
 .text.rtcConvertStructTmToDateTime
                0x08003030       0x70 build/obj/rtc.o
                0x08003030                rtcConvertStructTmToDateTime
 .text.rtcConvertDateTimeToFAT
                0x080030a0       0x90 build/obj/rtc.o
                0x080030a0                rtcConvertDateTimeToFAT
 .text.readt    0x08003130       0x10 build/obj/serial.o
 .text.read     0x08003140       0x10 build/obj/serial.o
 .text.writet   0x08003150       0x10 build/obj/serial.o
 .text.write    0x08003160       0x10 build/obj/serial.o
 .text.gett     0x08003170       0x10 build/obj/serial.o
 .text.get      0x08003180       0x10 build/obj/serial.o
 .text.putt     0x08003190       0x10 build/obj/serial.o
 .text.put      0x080031a0       0x10 build/obj/serial.o
 .text.sdInit   0x080031b0       0x10 build/obj/serial.o
                0x080031b0                sdInit
 .text.sdObjectInit
                0x080031c0       0x50 build/obj/serial.o
                0x080031c0                sdObjectInit
 .text.sdStart  0x08003210       0x20 build/obj/serial.o
                0x08003210                sdStart
 .text.sdIncomingDataI
                0x08003230       0x40 build/obj/serial.o
                0x08003230                sdIncomingDataI
 .text.spiInit  0x08003270       0x10 build/obj/spi.o
                0x08003270                spiInit
 .text.spiObjectInit
                0x08003280       0x10 build/obj/spi.o
                0x08003280                spiObjectInit
 .text.spiStart
                0x08003290       0x20 build/obj/spi.o
                0x08003290                spiStart
 .text.spiStop  0x080032b0       0x20 build/obj/spi.o
                0x080032b0                spiStop
 .text.spiSelect
                0x080032d0       0x20 build/obj/spi.o
                0x080032d0                spiSelect
 .text.spiUnselect
                0x080032f0       0x20 build/obj/spi.o
                0x080032f0                spiUnselect
 .text.spiIgnore
                0x08003310       0x30 build/obj/spi.o
                0x08003310                spiIgnore
 .text.spiSend  0x08003340       0x30 build/obj/spi.o
                0x08003340                spiSend
 .text.spiReceive
                0x08003370       0x30 build/obj/spi.o
                0x08003370                spiReceive
 .text.nvicEnableVector
                0x080033a0       0x40 build/obj/nvic.o
                0x080033a0                nvicEnableVector
 .text.nvicDisableVector
                0x080033e0       0x30 build/obj/nvic.o
                0x080033e0                nvicDisableVector
 .text.hal_lld_init
                0x08003410       0x80 build/obj/hal_lld.o
                0x08003410                hal_lld_init
 .text.stm32_clock_init
                0x08003490       0xa0 build/obj/hal_lld.o
                0x08003490                stm32_clock_init
 .text.Vector6C
                0x08003530       0x30 build/obj/stm32_dma.o
                0x08003530                Vector6C
 .text.Vector70
                0x08003560       0x30 build/obj/stm32_dma.o
                0x08003560                Vector70
 .text.Vector74
                0x08003590       0x30 build/obj/stm32_dma.o
                0x08003590                Vector74
 .text.Vector78
                0x080035c0       0x30 build/obj/stm32_dma.o
                0x080035c0                Vector78
 .text.Vector7C
                0x080035f0       0x30 build/obj/stm32_dma.o
                0x080035f0                Vector7C
 .text.Vector80
                0x08003620       0x30 build/obj/stm32_dma.o
                0x08003620                Vector80
 .text.Vector84
                0x08003650       0x30 build/obj/stm32_dma.o
                0x08003650                Vector84
 .text.Vector120
                0x08003680       0x30 build/obj/stm32_dma.o
                0x08003680                Vector120
 .text.Vector124
                0x080036b0       0x30 build/obj/stm32_dma.o
                0x080036b0                Vector124
 .text.Vector128
                0x080036e0       0x30 build/obj/stm32_dma.o
                0x080036e0                Vector128
 .text.Vector12C
                0x08003710       0x30 build/obj/stm32_dma.o
                0x08003710                Vector12C
 .text.Vector130
                0x08003740       0x30 build/obj/stm32_dma.o
                0x08003740                Vector130
 .text.dmaInit  0x08003770       0x50 build/obj/stm32_dma.o
                0x08003770                dmaInit
 .text.dmaStreamAllocate
                0x080037c0       0xa0 build/obj/stm32_dma.o
                0x080037c0                dmaStreamAllocate
 .text.dmaStreamRelease
                0x08003860       0x60 build/obj/stm32_dma.o
                0x08003860                dmaStreamRelease
 .text.VectorB0
                0x080038c0       0x30 build/obj/st_lld.o
                0x080038c0                VectorB0
 .text.st_lld_init
                0x080038f0       0x50 build/obj/st_lld.o
                0x080038f0                st_lld_init
 .text.adc_lld_init
                0x08003940       0x70 build/obj/adc_lld.o
                0x08003940                adc_lld_init
 .text.adc_lld_start
                0x080039b0       0xa0 build/obj/adc_lld.o
                0x080039b0                adc_lld_start
 .text.adc_lld_start_conversion
                0x08003a50       0x90 build/obj/adc_lld.o
                0x08003a50                adc_lld_start_conversion
 .text.adc_lld_stop_conversion
                0x08003ae0       0x40 build/obj/adc_lld.o
                0x08003ae0                adc_lld_stop_conversion
 .text.adc_lld_serve_dma_interrupt
                0x08003b20       0xd0 build/obj/adc_lld.o
 .text.Vector88
                0x08003bf0      0x140 build/obj/adc_lld.o
                0x08003bf0                Vector88
 .text.ext_lld_init
                0x08003d30       0x10 build/obj/ext_lld.o
                0x08003d30                ext_lld_init
 .text.ext_lld_channel_enable
                0x08003d40      0x110 build/obj/ext_lld.o
                0x08003d40                ext_lld_channel_enable
 .text.ext_lld_channel_disable
                0x08003e50       0x50 build/obj/ext_lld.o
                0x08003e50                ext_lld_channel_disable
 .text.ext_lld_start
                0x08003ea0       0x40 build/obj/ext_lld.o
                0x08003ea0                ext_lld_start
 .text.Vector58
                0x08003ee0       0x30 build/obj/ext_lld_isr.o
                0x08003ee0                Vector58
 .text.Vector5C
                0x08003f10       0x30 build/obj/ext_lld_isr.o
                0x08003f10                Vector5C
 .text.Vector60
                0x08003f40       0x30 build/obj/ext_lld_isr.o
                0x08003f40                Vector60
 .text.Vector64
                0x08003f70       0x30 build/obj/ext_lld_isr.o
                0x08003f70                Vector64
 .text.Vector68
                0x08003fa0       0x30 build/obj/ext_lld_isr.o
                0x08003fa0                Vector68
 .text.Vector9C
                0x08003fd0       0x70 build/obj/ext_lld_isr.o
                0x08003fd0                Vector9C
 .text.VectorE0
                0x08004040       0x80 build/obj/ext_lld_isr.o
                0x08004040                VectorE0
 .text.Vector44
                0x080040c0       0x30 build/obj/ext_lld_isr.o
                0x080040c0                Vector44
 .text.VectorE4
                0x080040f0       0x30 build/obj/ext_lld_isr.o
                0x080040f0                VectorE4
 .text.VectorE8
                0x08004120       0x30 build/obj/ext_lld_isr.o
                0x08004120                VectorE8
 .text.Vector48
                0x08004150       0x30 build/obj/ext_lld_isr.o
                0x08004150                Vector48
 .text.Vector4C
                0x08004180       0x30 build/obj/ext_lld_isr.o
                0x08004180                Vector4C
 .text.Vector140
                0x080041b0       0x60 build/obj/ext_lld_isr.o
                0x080041b0                Vector140
 .text.Vector144
                0x08004210       0x70 build/obj/ext_lld_isr.o
                0x08004210                Vector144
 .text.Vector148
                0x08004280       0x30 build/obj/ext_lld_isr.o
                0x08004280                Vector148
 .text.ext_lld_exti_irq_enable
                0x080042b0       0x80 build/obj/ext_lld_isr.o
                0x080042b0                ext_lld_exti_irq_enable
 .text._pal_lld_init
                0x08004330      0x100 build/obj/pal_lld.o
                0x08004330                _pal_lld_init
 .text._pal_lld_setgroupmode
                0x08004430       0xd0 build/obj/pal_lld.o
                0x08004430                _pal_lld_setgroupmode
 .text.rtc_lld_init
                0x08004500       0x60 build/obj/rtc_lld.o
                0x08004500                rtc_lld_init
 .text.rtc_lld_set_time
                0x08004560      0x130 build/obj/rtc_lld.o
                0x08004560                rtc_lld_set_time
 .text.rtc_lld_get_time
                0x08004690       0xf0 build/obj/rtc_lld.o
                0x08004690                rtc_lld_get_time
 .text.spi_lld_serve_tx_interrupt
                0x08004780       0x10 build/obj/spi_lld.o
 .text.spi_lld_serve_rx_interrupt
                0x08004790       0x80 build/obj/spi_lld.o
 .text.spi_lld_init
                0x08004810       0x40 build/obj/spi_lld.o
                0x08004810                spi_lld_init
 .text.spi_lld_start
                0x08004850       0xb0 build/obj/spi_lld.o
                0x08004850                spi_lld_start
 .text.spi_lld_stop
                0x08004900       0x40 build/obj/spi_lld.o
                0x08004900                spi_lld_stop
 .text.spi_lld_select
                0x08004940       0x20 build/obj/spi_lld.o
                0x08004940                spi_lld_select
 .text.spi_lld_unselect
                0x08004960       0x20 build/obj/spi_lld.o
                0x08004960                spi_lld_unselect
 .text.spi_lld_ignore
                0x08004980       0x40 build/obj/spi_lld.o
                0x08004980                spi_lld_ignore
 .text.spi_lld_send
                0x080049c0       0x40 build/obj/spi_lld.o
                0x080049c0                spi_lld_send
 .text.spi_lld_receive
                0x08004a00       0x40 build/obj/spi_lld.o
                0x08004a00                spi_lld_receive
 .text.gpt_lld_init
                0x08004a40       0x20 build/obj/gpt_lld.o
                0x08004a40                gpt_lld_init
 .text.gpt_lld_serve_interrupt
                0x08004a60       0x30 build/obj/gpt_lld.o
                0x08004a60                gpt_lld_serve_interrupt
 .text.VectorA4
                0x08004a90       0x20 build/obj/gpt_lld.o
                0x08004a90                VectorA4
 .text.notify1  0x08004ab0       0x10 build/obj/serial_lld.o
 .text.notify2  0x08004ac0       0x10 build/obj/serial_lld.o
 .text.serve_interrupt
                0x08004ad0       0xf0 build/obj/serial_lld.o
 .text.VectorD4
                0x08004bc0       0x20 build/obj/serial_lld.o
                0x08004bc0                VectorD4
 .text.VectorD8
                0x08004be0       0x20 build/obj/serial_lld.o
                0x08004be0                VectorD8
 .text.sd_lld_init
                0x08004c00       0x60 build/obj/serial_lld.o
                0x08004c00                sd_lld_init
 .text.sd_lld_start
                0x08004c60       0x80 build/obj/serial_lld.o
                0x08004c60                sd_lld_start
 .text.__early_init
                0x08004ce0       0x10 build/obj/board.o
                0x08004ce0                __early_init
 .text.mmc_lld_is_card_inserted
                0x08004cf0       0x10 build/obj/board.o
                0x08004cf0                mmc_lld_is_card_inserted
 .text.mmc_lld_is_write_protected
                0x08004d00       0x10 build/obj/board.o
                0x08004d00                mmc_lld_is_write_protected
 .text.boardInit
                0x08004d10       0x10 build/obj/board.o
                0x08004d10                boardInit
 .text.cmd_systime
                0x08004d20       0x30 build/obj/shell.o
 .text.cmd_info
                0x08004d50       0xc0 build/obj/shell.o
 .text._strtok.constprop.2
                0x08004e10       0x40 build/obj/shell.o
 .text.shellInit
                0x08004e50       0x10 build/obj/shell.o
                0x08004e50                shellInit
 .text.shellExit
                0x08004e60       0x20 build/obj/shell.o
                0x08004e60                shellExit
 .text.shellCreate
                0x08004e80       0x20 build/obj/shell.o
                0x08004e80                shellCreate
 .text.shellGetLine
                0x08004ea0       0xa0 build/obj/shell.o
                0x08004ea0                shellGetLine
 .text.shell_thread
                0x08004f40      0x1a0 build/obj/shell.o
 .text._sbrk_r  0x080050e0       0x20 build/obj/syscalls.o
                0x080050e0                _sbrk_r
 .text.long_to_string_with_divisor.constprop.0
                0x08005100       0x50 build/obj/chprintf.o
 .text.chvprintf
                0x08005150      0x280 build/obj/chprintf.o
                0x08005150                chvprintf
 .text.chprintf
                0x080053d0       0x20 build/obj/chprintf.o
                0x080053d0                chprintf
 .text.get_ldnumber
                0x080053f0       0x50 build/obj/ff.o
 .text.validate
                0x08005440       0x30 build/obj/ff.o
 .text.sync_window.part.3
                0x08005470       0x50 build/obj/ff.o
 .text.sync_fs  0x080054c0       0xe0 build/obj/ff.o
 .text.move_window
                0x080055a0       0x40 build/obj/ff.o
 .text.check_fs
                0x080055e0       0x90 build/obj/ff.o
 .text.find_volume
                0x08005670      0x330 build/obj/ff.o
 .text.get_fat.part.6
                0x080059a0       0xd0 build/obj/ff.o
 .text.dir_sdi  0x08005a70       0xa0 build/obj/ff.o
 .text.put_fat.part.8
                0x08005b10      0x100 build/obj/ff.o
 .text.create_chain
                0x08005c10       0xd0 build/obj/ff.o
 .text.dir_next
                0x08005ce0      0x140 build/obj/ff.o
 .text.follow_path
                0x08005e20      0x200 build/obj/ff.o
 .text.remove_chain.part.10
                0x08006020       0x60 build/obj/ff.o
 .text.dir_register
                0x08006080       0x70 build/obj/ff.o
 .text.f_mount  0x080060f0       0x60 build/obj/ff.o
                0x080060f0                f_mount
 .text.f_open   0x08006150      0x180 build/obj/ff.o
                0x08006150                f_open
 .text.f_write  0x080062d0      0x1d0 build/obj/ff.o
                0x080062d0                f_write
 .text.f_sync   0x080064a0       0xb0 build/obj/ff.o
                0x080064a0                f_sync
 .text.f_close  0x08006550       0x20 build/obj/ff.o
                0x08006550                f_close
 .text.f_lseek  0x08006570      0x170 build/obj/ff.o
                0x08006570                f_lseek
 .text.disk_initialize
                0x080066e0       0x30 build/obj/fatfs_diskio.o
                0x080066e0                disk_initialize
 .text.disk_status
                0x08006710       0x30 build/obj/fatfs_diskio.o
                0x08006710                disk_status
 .text.disk_read
                0x08006740       0x60 build/obj/fatfs_diskio.o
                0x08006740                disk_read
 .text.disk_write
                0x080067a0       0x70 build/obj/fatfs_diskio.o
                0x080067a0                disk_write
 .text.disk_ioctl
                0x08006810       0x20 build/obj/fatfs_diskio.o
                0x08006810                disk_ioctl
 .text.get_fattime
                0x08006830       0x20 build/obj/fatfs_diskio.o
                0x08006830                get_fattime
 .text.cmd_data
                0x08006850       0x50 build/obj/main.o
                0x08006850                cmd_data
 .text.cmd_rtcSet
                0x080068a0       0x30 build/obj/main.o
                0x080068a0                cmd_rtcSet
 .text.extcb    0x080068d0       0x30 build/obj/main.o
 .text.termination_handler
                0x08006900       0x50 build/obj/main.o
 .text.counterThread
                0x08006950       0x40 build/obj/main.o
 .text.dataThread
                0x08006990       0xf0 build/obj/main.o
 .text.cmd_time
                0x08006a80      0x140 build/obj/main.o
 .text.init_mmc
                0x08006bc0       0x80 build/obj/main.o
                0x08006bc0                init_mmc
 .text.appendToCard
                0x08006c40       0xa0 build/obj/main.o
                0x08006c40                appendToCard
 .text.buttonThread
                0x08006ce0      0x190 build/obj/main.o
 .text.cmd_writeSD
                0x08006e70       0x30 build/obj/main.o
 .text.initSDcard
                0x08006ea0       0x50 build/obj/main.o
                0x08006ea0                initSDcard
 .text.startup.main
                0x08006ef0      0x1c0 build/obj/main.o
                0x08006ef0                main
 .text.asctime  0x080070b0       0x10 /nfs/nfs5/home/research/hardware/arm2/gcc-arm-embedded/gcc-arm-none-eabi-4_8-2014q2/bin/../lib/gcc/arm-none-eabi/4.8.4/../../../../arm-none-eabi/lib/armv7e-m/libg.a(lib_a-asctime.o)
                0x080070b0                asctime
 .text.asctime_r
                0x080070c0       0x50 /nfs/nfs5/home/research/hardware/arm2/gcc-arm-embedded/gcc-arm-none-eabi-4_8-2014q2/bin/../lib/gcc/arm-none-eabi/4.8.4/../../../../arm-none-eabi/lib/armv7e-m/libg.a(lib_a-asctime_r.o)
                0x080070c0                asctime_r
 .text.atoi     0x08007110        0x8 /nfs/nfs5/home/research/hardware/arm2/gcc-arm-embedded/gcc-arm-none-eabi-4_8-2014q2/bin/../lib/gcc/arm-none-eabi/4.8.4/../../../../arm-none-eabi/lib/armv7e-m/libg.a(lib_a-atoi.o)
                0x08007110                atoi
 *fill*         0x08007118        0x8 
 .text.localtime
                0x08007120       0x10 /nfs/nfs5/home/research/hardware/arm2/gcc-arm-embedded/gcc-arm-none-eabi-4_8-2014q2/bin/../lib/gcc/arm-none-eabi/4.8.4/../../../../arm-none-eabi/lib/armv7e-m/libg.a(lib_a-lcltime.o)
                0x08007120                localtime
 .text.localtime_r
                0x08007130        0x8 /nfs/nfs5/home/research/hardware/arm2/gcc-arm-embedded/gcc-arm-none-eabi-4_8-2014q2/bin/../lib/gcc/arm-none-eabi/4.8.4/../../../../arm-none-eabi/lib/armv7e-m/libg.a(lib_a-lcltime_r.o)
                0x08007130                localtime_r
 *fill*         0x08007138        0x8 
 .text.memset   0x08007140       0x94 /nfs/nfs5/home/research/hardware/arm2/gcc-arm-embedded/gcc-arm-none-eabi-4_8-2014q2/bin/../lib/gcc/arm-none-eabi/4.8.4/../../../../arm-none-eabi/lib/armv7e-m/libg.a(lib_a-memset.o)
                0x08007140                memset
 *fill*         0x080071d4        0xc 
 .text.__tzcalc_limits
                0x080071e0      0x190 /nfs/nfs5/home/research/hardware/arm2/gcc-arm-embedded/gcc-arm-none-eabi-4_8-2014q2/bin/../lib/gcc/arm-none-eabi/4.8.4/../../../../arm-none-eabi/lib/armv7e-m/libg.a(lib_a-mktm_r.o)
                0x080071e0                __tzcalc_limits
 .text._mktm_r  0x08007370      0x35c /nfs/nfs5/home/research/hardware/arm2/gcc-arm-embedded/gcc-arm-none-eabi-4_8-2014q2/bin/../lib/gcc/arm-none-eabi/4.8.4/../../../../arm-none-eabi/lib/armv7e-m/libg.a(lib_a-mktm_r.o)
                0x08007370                _mktm_r
 *fill*         0x080076cc        0x4 
 .text.siprintf
                0x080076d0       0x4c /nfs/nfs5/home/research/hardware/arm2/gcc-arm-embedded/gcc-arm-none-eabi-4_8-2014q2/bin/../lib/gcc/arm-none-eabi/4.8.4/../../../../arm-none-eabi/lib/armv7e-m/libg.a(lib_a-siprintf.o)
                0x080076d0                siprintf
 *fill*         0x0800771c        0x4 
 .text.sprintf  0x08007720       0x4c /nfs/nfs5/home/research/hardware/arm2/gcc-arm-embedded/gcc-arm-none-eabi-4_8-2014q2/bin/../lib/gcc/arm-none-eabi/4.8.4/../../../../arm-none-eabi/lib/armv7e-m/libg.a(lib_a-sprintf.o)
                0x08007720                sprintf
 *fill*         0x0800776c        0x4 
 .text.strlen   0x08007770       0x60 /nfs/nfs5/home/research/hardware/arm2/gcc-arm-embedded/gcc-arm-none-eabi-4_8-2014q2/bin/../lib/gcc/arm-none-eabi/4.8.4/../../../../arm-none-eabi/lib/armv7e-m/libg.a(lib_a-strlen.o)
                0x08007770                strlen
 .text.strpbrk  0x080077d0       0x50 /nfs/nfs5/home/research/hardware/arm2/gcc-arm-embedded/gcc-arm-none-eabi-4_8-2014q2/bin/../lib/gcc/arm-none-eabi/4.8.4/../../../../arm-none-eabi/lib/armv7e-m/libg.a(lib_a-strpbrk.o)
                0x080077d0                strpbrk
 .text.strspn   0x08007820       0x40 /nfs/nfs5/home/research/hardware/arm2/gcc-arm-embedded/gcc-arm-none-eabi-4_8-2014q2/bin/../lib/gcc/arm-none-eabi/4.8.4/../../../../arm-none-eabi/lib/armv7e-m/libg.a(lib_a-strspn.o)
                0x08007820                strspn
 .text.critical_factorization
                0x08007860       0xbc /nfs/nfs5/home/research/hardware/arm2/gcc-arm-embedded/gcc-arm-none-eabi-4_8-2014q2/bin/../lib/gcc/arm-none-eabi/4.8.4/../../../../arm-none-eabi/lib/armv7e-m/libg.a(lib_a-strstr.o)
 *fill*         0x0800791c        0x4 
 .text.two_way_long_needle
                0x08007920      0x1ec /nfs/nfs5/home/research/hardware/arm2/gcc-arm-embedded/gcc-arm-none-eabi-4_8-2014q2/bin/../lib/gcc/arm-none-eabi/4.8.4/../../../../arm-none-eabi/lib/armv7e-m/libg.a(lib_a-strstr.o)
 *fill*         0x08007b0c        0x4 
 .text.strstr   0x08007b10      0x200 /nfs/nfs5/home/research/hardware/arm2/gcc-arm-embedded/gcc-arm-none-eabi-4_8-2014q2/bin/../lib/gcc/arm-none-eabi/4.8.4/../../../../arm-none-eabi/lib/armv7e-m/libg.a(lib_a-strstr.o)
                0x08007b10                strstr
 .text._strtol_r
                0x08007d10      0x114 /nfs/nfs5/home/research/hardware/arm2/gcc-arm-embedded/gcc-arm-none-eabi-4_8-2014q2/bin/../lib/gcc/arm-none-eabi/4.8.4/../../../../arm-none-eabi/lib/armv7e-m/libg.a(lib_a-strtol.o)
                0x08007d10                _strtol_r
 *fill*         0x08007e24        0xc 
 .text.strtol   0x08007e30       0x18 /nfs/nfs5/home/research/hardware/arm2/gcc-arm-embedded/gcc-arm-none-eabi-4_8-2014q2/bin/../lib/gcc/arm-none-eabi/4.8.4/../../../../arm-none-eabi/lib/armv7e-m/libg.a(lib_a-strtol.o)
                0x08007e30                strtol
 *fill*         0x08007e48        0x8 
 .text.__ssprint_r
                0x08007e50      0x100 /nfs/nfs5/home/research/hardware/arm2/gcc-arm-embedded/gcc-arm-none-eabi-4_8-2014q2/bin/../lib/gcc/arm-none-eabi/4.8.4/../../../../arm-none-eabi/lib/armv7e-m/libg.a(lib_a-svfiprintf.o)
                0x08007e50                __ssprint_r
 .text._svfiprintf_r
                0x08007f50      0xb3c /nfs/nfs5/home/research/hardware/arm2/gcc-arm-embedded/gcc-arm-none-eabi-4_8-2014q2/bin/../lib/gcc/arm-none-eabi/4.8.4/../../../../arm-none-eabi/lib/armv7e-m/libg.a(lib_a-svfiprintf.o)
                0x08007f50                _svfiprintf_r
 *fill*         0x08008a8c        0x4 
 .text._svfprintf_r
                0x08008a90     0x14f8 /nfs/nfs5/home/research/hardware/arm2/gcc-arm-embedded/gcc-arm-none-eabi-4_8-2014q2/bin/../lib/gcc/arm-none-eabi/4.8.4/../../../../arm-none-eabi/lib/armv7e-m/libg.a(lib_a-svfprintf.o)
                0x08008a90                _svfprintf_r
 *fill*         0x08009f88        0x8 
 .text.__tz_lock
                0x08009f90        0x4 /nfs/nfs5/home/research/hardware/arm2/gcc-arm-embedded/gcc-arm-none-eabi-4_8-2014q2/bin/../lib/gcc/arm-none-eabi/4.8.4/../../../../arm-none-eabi/lib/armv7e-m/libg.a(lib_a-tzlock.o)
                0x08009f90                __tz_lock
 *fill*         0x08009f94        0xc 
 .text.__tz_unlock
                0x08009fa0        0x4 /nfs/nfs5/home/research/hardware/arm2/gcc-arm-embedded/gcc-arm-none-eabi-4_8-2014q2/bin/../lib/gcc/arm-none-eabi/4.8.4/../../../../arm-none-eabi/lib/armv7e-m/libg.a(lib_a-tzlock.o)
                0x08009fa0                __tz_unlock
 *fill*         0x08009fa4        0xc 
 .text.quorem   0x08009fb0      0x130 /nfs/nfs5/home/research/hardware/arm2/gcc-arm-embedded/gcc-arm-none-eabi-4_8-2014q2/bin/../lib/gcc/arm-none-eabi/4.8.4/../../../../arm-none-eabi/lib/armv7e-m/libg.a(lib_a-dtoa.o)
 .text._dtoa_r  0x0800a0e0      0xe38 /nfs/nfs5/home/research/hardware/arm2/gcc-arm-embedded/gcc-arm-none-eabi-4_8-2014q2/bin/../lib/gcc/arm-none-eabi/4.8.4/../../../../arm-none-eabi/lib/armv7e-m/libg.a(lib_a-dtoa.o)
                0x0800a0e0                _dtoa_r
 *fill*         0x0800af18        0x8 
 .text._malloc_trim_r
                0x0800af20       0x9c /nfs/nfs5/home/research/hardware/arm2/gcc-arm-embedded/gcc-arm-none-eabi-4_8-2014q2/bin/../lib/gcc/arm-none-eabi/4.8.4/../../../../arm-none-eabi/lib/armv7e-m/libg.a(lib_a-freer.o)
                0x0800af20                _malloc_trim_r
 *fill*         0x0800afbc        0x4 
 .text._free_r  0x0800afc0      0x19c /nfs/nfs5/home/research/hardware/arm2/gcc-arm-embedded/gcc-arm-none-eabi-4_8-2014q2/bin/../lib/gcc/arm-none-eabi/4.8.4/../../../../arm-none-eabi/lib/armv7e-m/libg.a(lib_a-freer.o)
                0x0800afc0                _free_r
 *fill*         0x0800b15c        0x4 
 .text.__gettzinfo
                0x0800b160        0x8 /nfs/nfs5/home/research/hardware/arm2/gcc-arm-embedded/gcc-arm-none-eabi-4_8-2014q2/bin/../lib/gcc/arm-none-eabi/4.8.4/../../../../arm-none-eabi/lib/armv7e-m/libg.a(lib_a-gettzinfo.o)
                0x0800b160                __gettzinfo
 *fill*         0x0800b168        0x8 
 .text._localeconv_r
                0x0800b170        0x8 /nfs/nfs5/home/research/hardware/arm2/gcc-arm-embedded/gcc-arm-none-eabi-4_8-2014q2/bin/../lib/gcc/arm-none-eabi/4.8.4/../../../../arm-none-eabi/lib/armv7e-m/libg.a(lib_a-locale.o)
                0x0800b170                _localeconv_r
 *fill*         0x0800b178        0x8 
 .text._malloc_r
                0x0800b180      0x538 /nfs/nfs5/home/research/hardware/arm2/gcc-arm-embedded/gcc-arm-none-eabi-4_8-2014q2/bin/../lib/gcc/arm-none-eabi/4.8.4/../../../../arm-none-eabi/lib/armv7e-m/libg.a(lib_a-mallocr.o)
                0x0800b180                _malloc_r
 *fill*         0x0800b6b8        0x8 
 .text.memchr   0x0800b6c0       0x90 /nfs/nfs5/home/research/hardware/arm2/gcc-arm-embedded/gcc-arm-none-eabi-4_8-2014q2/bin/../lib/gcc/arm-none-eabi/4.8.4/../../../../arm-none-eabi/lib/armv7e-m/libg.a(lib_a-memchr-stub.o)
                0x0800b6c0                memchr
 .text.memcmp   0x0800b750       0x68 /nfs/nfs5/home/research/hardware/arm2/gcc-arm-embedded/gcc-arm-none-eabi-4_8-2014q2/bin/../lib/gcc/arm-none-eabi/4.8.4/../../../../arm-none-eabi/lib/armv7e-m/libg.a(lib_a-memcmp.o)
                0x0800b750                memcmp
 *fill*         0x0800b7b8        0x8 
 .text.memmove  0x0800b7c0       0xc0 /nfs/nfs5/home/research/hardware/arm2/gcc-arm-embedded/gcc-arm-none-eabi-4_8-2014q2/bin/../lib/gcc/arm-none-eabi/4.8.4/../../../../arm-none-eabi/lib/armv7e-m/libg.a(lib_a-memmove.o)
                0x0800b7c0                memmove
 .text.__malloc_lock
                0x0800b880        0x4 /nfs/nfs5/home/research/hardware/arm2/gcc-arm-embedded/gcc-arm-none-eabi-4_8-2014q2/bin/../lib/gcc/arm-none-eabi/4.8.4/../../../../arm-none-eabi/lib/armv7e-m/libg.a(lib_a-mlock.o)
                0x0800b880                __malloc_lock
 *fill*         0x0800b884        0xc 
 .text.__malloc_unlock
                0x0800b890        0x4 /nfs/nfs5/home/research/hardware/arm2/gcc-arm-embedded/gcc-arm-none-eabi-4_8-2014q2/bin/../lib/gcc/arm-none-eabi/4.8.4/../../../../arm-none-eabi/lib/armv7e-m/libg.a(lib_a-mlock.o)
                0x0800b890                __malloc_unlock
 *fill*         0x0800b894        0xc 
 .text._Balloc  0x0800b8a0       0x4c /nfs/nfs5/home/research/hardware/arm2/gcc-arm-embedded/gcc-arm-none-eabi-4_8-2014q2/bin/../lib/gcc/arm-none-eabi/4.8.4/../../../../arm-none-eabi/lib/armv7e-m/libg.a(lib_a-mprec.o)
                0x0800b8a0                _Balloc
 *fill*         0x0800b8ec        0x4 
 .text._Bfree   0x0800b8f0       0x14 /nfs/nfs5/home/research/hardware/arm2/gcc-arm-embedded/gcc-arm-none-eabi-4_8-2014q2/bin/../lib/gcc/arm-none-eabi/4.8.4/../../../../arm-none-eabi/lib/armv7e-m/libg.a(lib_a-mprec.o)
                0x0800b8f0                _Bfree
 *fill*         0x0800b904        0xc 
 .text.__multadd
                0x0800b910       0x98 /nfs/nfs5/home/research/hardware/arm2/gcc-arm-embedded/gcc-arm-none-eabi-4_8-2014q2/bin/../lib/gcc/arm-none-eabi/4.8.4/../../../../arm-none-eabi/lib/armv7e-m/libg.a(lib_a-mprec.o)
                0x0800b910                __multadd
 *fill*         0x0800b9a8        0x8 
 .text.__hi0bits
                0x0800b9b0       0x40 /nfs/nfs5/home/research/hardware/arm2/gcc-arm-embedded/gcc-arm-none-eabi-4_8-2014q2/bin/../lib/gcc/arm-none-eabi/4.8.4/../../../../arm-none-eabi/lib/armv7e-m/libg.a(lib_a-mprec.o)
                0x0800b9b0                __hi0bits
 .text.__lo0bits
                0x0800b9f0       0x5c /nfs/nfs5/home/research/hardware/arm2/gcc-arm-embedded/gcc-arm-none-eabi-4_8-2014q2/bin/../lib/gcc/arm-none-eabi/4.8.4/../../../../arm-none-eabi/lib/armv7e-m/libg.a(lib_a-mprec.o)
                0x0800b9f0                __lo0bits
 *fill*         0x0800ba4c        0x4 
 .text.__i2b    0x0800ba50       0x14 /nfs/nfs5/home/research/hardware/arm2/gcc-arm-embedded/gcc-arm-none-eabi-4_8-2014q2/bin/../lib/gcc/arm-none-eabi/4.8.4/../../../../arm-none-eabi/lib/armv7e-m/libg.a(lib_a-mprec.o)
                0x0800ba50                __i2b
 *fill*         0x0800ba64        0xc 
 .text.__multiply
                0x0800ba70      0x13c /nfs/nfs5/home/research/hardware/arm2/gcc-arm-embedded/gcc-arm-none-eabi-4_8-2014q2/bin/../lib/gcc/arm-none-eabi/4.8.4/../../../../arm-none-eabi/lib/armv7e-m/libg.a(lib_a-mprec.o)
                0x0800ba70                __multiply
 *fill*         0x0800bbac        0x4 
 .text.__pow5mult
                0x0800bbb0       0x9c /nfs/nfs5/home/research/hardware/arm2/gcc-arm-embedded/gcc-arm-none-eabi-4_8-2014q2/bin/../lib/gcc/arm-none-eabi/4.8.4/../../../../arm-none-eabi/lib/armv7e-m/libg.a(lib_a-mprec.o)
                0x0800bbb0                __pow5mult
 *fill*         0x0800bc4c        0x4 
 .text.__lshift
                0x0800bc50       0xbc /nfs/nfs5/home/research/hardware/arm2/gcc-arm-embedded/gcc-arm-none-eabi-4_8-2014q2/bin/../lib/gcc/arm-none-eabi/4.8.4/../../../../arm-none-eabi/lib/armv7e-m/libg.a(lib_a-mprec.o)
                0x0800bc50                __lshift
 *fill*         0x0800bd0c        0x4 
 .text.__mcmp   0x0800bd10       0x48 /nfs/nfs5/home/research/hardware/arm2/gcc-arm-embedded/gcc-arm-none-eabi-4_8-2014q2/bin/../lib/gcc/arm-none-eabi/4.8.4/../../../../arm-none-eabi/lib/armv7e-m/libg.a(lib_a-mprec.o)
                0x0800bd10                __mcmp
 *fill*         0x0800bd58        0x8 
 .text.__mdiff  0x0800bd60       0xd4 /nfs/nfs5/home/research/hardware/arm2/gcc-arm-embedded/gcc-arm-none-eabi-4_8-2014q2/bin/../lib/gcc/arm-none-eabi/4.8.4/../../../../arm-none-eabi/lib/armv7e-m/libg.a(lib_a-mprec.o)
                0x0800bd60                __mdiff
 *fill*         0x0800be34        0xc 
 .text.__d2b    0x0800be40       0xbc /nfs/nfs5/home/research/hardware/arm2/gcc-arm-embedded/gcc-arm-none-eabi-4_8-2014q2/bin/../lib/gcc/arm-none-eabi/4.8.4/../../../../arm-none-eabi/lib/armv7e-m/libg.a(lib_a-mprec.o)
                0x0800be40                __d2b
 *fill*         0x0800befc        0x4 
 .text._realloc_r
                0x0800bf00      0x3cc /nfs/nfs5/home/research/hardware/arm2/gcc-arm-embedded/gcc-arm-none-eabi-4_8-2014q2/bin/../lib/gcc/arm-none-eabi/4.8.4/../../../../arm-none-eabi/lib/armv7e-m/libg.a(lib_a-reallocr.o)
                0x0800bf00                _realloc_r
 *fill*         0x0800c2cc        0x4 
 .text.__fpclassifyd
                0x0800c2d0       0x50 /nfs/nfs5/home/research/hardware/arm2/gcc-arm-embedded/gcc-arm-none-eabi-4_8-2014q2/bin/../lib/gcc/arm-none-eabi/4.8.4/../../../../arm-none-eabi/lib/armv7e-m/libg.a(lib_a-s_fpclassify.o)
                0x0800c2d0                __fpclassifyd
 .text.strchr   0x0800c320       0xf4 /nfs/nfs5/home/research/hardware/arm2/gcc-arm-embedded/gcc-arm-none-eabi-4_8-2014q2/bin/../lib/gcc/arm-none-eabi/4.8.4/../../../../arm-none-eabi/lib/armv7e-m/libg.a(lib_a-strchr.o)
                0x0800c320                strchr
 *fill*         0x0800c414        0xc 
 .text._calloc_r
                0x0800c420       0x60 /nfs/nfs5/home/research/hardware/arm2/gcc-arm-embedded/gcc-arm-none-eabi-4_8-2014q2/bin/../lib/gcc/arm-none-eabi/4.8.4/../../../../arm-none-eabi/lib/armv7e-m/libg.a(lib_a-callocr.o)
                0x0800c420                _calloc_r
 *(.rodata)
 *(.rodata.*)
 .rodata.ram_areas
                0x0800c480       0x80 build/obj/crt1.o
 .rodata.str1.4
                0x0800c500        0x5 build/obj/chsys.o
                                  0x8 (size before relaxing)
 *fill*         0x0800c505        0xb 
 .rodata.ch_debug
                0x0800c510       0x18 build/obj/chregistry.o
                0x0800c510                ch_debug
 *fill*         0x0800c528        0x8 
 .rodata.crc7_lookup_table
                0x0800c530      0x100 build/obj/mmc_spi.o
 .rodata.start.8177
                0x0800c630        0x4 build/obj/mmc_spi.o
 *fill*         0x0800c634        0xc 
 .rodata.stopcmd.8166
                0x0800c640        0x8 build/obj/mmc_spi.o
 *fill*         0x0800c648        0x8 
 .rodata.mmc_vmt
                0x0800c650       0x20 build/obj/mmc_spi.o
 .rodata.stop.8183
                0x0800c670        0x4 build/obj/mmc_spi.o
 *fill*         0x0800c674        0xc 
 .rodata.month_len
                0x0800c680        0xc build/obj/rtc.o
 *fill*         0x0800c68c        0x4 
 .rodata.vmt    0x0800c690       0x20 build/obj/serial.o
 .rodata._stm32_dma_streams
                0x0800c6b0       0xf0 build/obj/stm32_dma.o
                0x0800c6b0                _stm32_dma_streams
 .rodata.default_config
                0x0800c7a0        0x4 build/obj/adc_lld.o
 *fill*         0x0800c7a4        0xc 
 .rodata.dummytx
                0x0800c7b0        0x2 build/obj/spi_lld.o
 *fill*         0x0800c7b2        0xe 
 .rodata.str1.4
                0x0800c7c0        0xc build/obj/spi_lld.o
 *fill*         0x0800c7cc        0x4 
 .rodata.default_config
                0x0800c7d0       0x10 build/obj/serial_lld.o
 .rodata.pal_default_config
                0x0800c7e0       0xa8 build/obj/board.o
                0x0800c7e0                pal_default_config
 *fill*         0x0800c888        0x8 
 .rodata.str1.4
                0x0800c890      0x231 build/obj/shell.o
                                0x238 (size before relaxing)
 *fill*         0x0800cac1        0xf 
 .rodata.str1.4
                0x0800cad0        0x7 build/obj/chprintf.o
                                  0x8 (size before relaxing)
 *fill*         0x0800cad7        0x9 
 .rodata.str1.4
                0x0800cae0        0xf build/obj/ff.o
                                 0x10 (size before relaxing)
 *fill*         0x0800caef        0x1 
 .rodata.ExCvt  0x0800caf0       0x80 build/obj/ff.o
 .rodata.adcgrpcfg
                0x0800cb70       0x2c build/obj/main.o
 *fill*         0x0800cb9c        0x4 
 .rodata.lowSdcSpiConfig
                0x0800cba0       0x10 build/obj/main.o
 .rodata.str1.4
                0x0800cbb0      0x185 build/obj/main.o
                                0x190 (size before relaxing)
 *fill*         0x0800cd35        0xb 
 .rodata.mmcConfig
                0x0800cd40        0xc build/obj/main.o
 *fill*         0x0800cd4c        0x4 
 .rodata.commands
                0x0800cd50       0x28 build/obj/main.o
 *fill*         0x0800cd78        0x8 
 .rodata.highSdcSpiConfig
                0x0800cd80       0x10 build/obj/main.o
 .rodata.shell_cfg1
                0x0800cd90        0x8 build/obj/main.o
 *fill*         0x0800cd98        0x8 
 .rodata.day_name.4587
                0x0800cda0       0x18 /nfs/nfs5/home/research/hardware/arm2/gcc-arm-embedded/gcc-arm-none-eabi-4_8-2014q2/bin/../lib/gcc/arm-none-eabi/4.8.4/../../../../arm-none-eabi/lib/armv7e-m/libg.a(lib_a-asctime_r.o)
 *fill*         0x0800cdb8        0x8 
 .rodata.str1.4
                0x0800cdc0       0x20 /nfs/nfs5/home/research/hardware/arm2/gcc-arm-embedded/gcc-arm-none-eabi-4_8-2014q2/bin/../lib/gcc/arm-none-eabi/4.8.4/../../../../arm-none-eabi/lib/armv7e-m/libg.a(lib_a-asctime_r.o)
 .rodata.mon_name.4588
                0x0800cde0       0x24 /nfs/nfs5/home/research/hardware/arm2/gcc-arm-embedded/gcc-arm-none-eabi-4_8-2014q2/bin/../lib/gcc/arm-none-eabi/4.8.4/../../../../arm-none-eabi/lib/armv7e-m/libg.a(lib_a-asctime_r.o)
 *fill*         0x0800ce04        0xc 
 .rodata.str1.4
                0x0800ce10        0x2 /nfs/nfs5/home/research/hardware/arm2/gcc-arm-embedded/gcc-arm-none-eabi-4_8-2014q2/bin/../lib/gcc/arm-none-eabi/4.8.4/../../../../arm-none-eabi/lib/armv7e-m/libg.a(lib_a-impure.o)
                                  0x4 (size before relaxing)
 *fill*         0x0800ce12        0xe 
 .rodata.mon_lengths
                0x0800ce20       0x60 /nfs/nfs5/home/research/hardware/arm2/gcc-arm-embedded/gcc-arm-none-eabi-4_8-2014q2/bin/../lib/gcc/arm-none-eabi/4.8.4/../../../../arm-none-eabi/lib/armv7e-m/libg.a(lib_a-mktm_r.o)
 .rodata.year_lengths
                0x0800ce80        0x8 /nfs/nfs5/home/research/hardware/arm2/gcc-arm-embedded/gcc-arm-none-eabi-4_8-2014q2/bin/../lib/gcc/arm-none-eabi/4.8.4/../../../../arm-none-eabi/lib/armv7e-m/libg.a(lib_a-mktm_r.o)
 *fill*         0x0800ce88        0x8 
 .rodata.zeroes.6707
                0x0800ce90       0x10 /nfs/nfs5/home/research/hardware/arm2/gcc-arm-embedded/gcc-arm-none-eabi-4_8-2014q2/bin/../lib/gcc/arm-none-eabi/4.8.4/../../../../arm-none-eabi/lib/armv7e-m/libg.a(lib_a-svfiprintf.o)
 .rodata.str1.4
                0x0800cea0       0x25 /nfs/nfs5/home/research/hardware/arm2/gcc-arm-embedded/gcc-arm-none-eabi-4_8-2014q2/bin/../lib/gcc/arm-none-eabi/4.8.4/../../../../arm-none-eabi/lib/armv7e-m/libg.a(lib_a-svfiprintf.o)
                                 0x30 (size before relaxing)
 *fill*         0x0800cec5        0xb 
 .rodata.blanks.6706
                0x0800ced0       0x10 /nfs/nfs5/home/research/hardware/arm2/gcc-arm-embedded/gcc-arm-none-eabi-4_8-2014q2/bin/../lib/gcc/arm-none-eabi/4.8.4/../../../../arm-none-eabi/lib/armv7e-m/libg.a(lib_a-svfiprintf.o)
 .rodata.zeroes.6763
                0x0800cee0       0x10 /nfs/nfs5/home/research/hardware/arm2/gcc-arm-embedded/gcc-arm-none-eabi-4_8-2014q2/bin/../lib/gcc/arm-none-eabi/4.8.4/../../../../arm-none-eabi/lib/armv7e-m/libg.a(lib_a-svfprintf.o)
 .rodata.str1.4
                0x0800cef0       0x10 /nfs/nfs5/home/research/hardware/arm2/gcc-arm-embedded/gcc-arm-none-eabi-4_8-2014q2/bin/../lib/gcc/arm-none-eabi/4.8.4/../../../../arm-none-eabi/lib/armv7e-m/libg.a(lib_a-svfprintf.o)
                                 0x44 (size before relaxing)
 .rodata.blanks.6762
                0x0800cf00       0x10 /nfs/nfs5/home/research/hardware/arm2/gcc-arm-embedded/gcc-arm-none-eabi-4_8-2014q2/bin/../lib/gcc/arm-none-eabi/4.8.4/../../../../arm-none-eabi/lib/armv7e-m/libg.a(lib_a-svfprintf.o)
 .rodata._ctype_
                0x0800cf10      0x104 /nfs/nfs5/home/research/hardware/arm2/gcc-arm-embedded/gcc-arm-none-eabi-4_8-2014q2/bin/../lib/gcc/arm-none-eabi/4.8.4/../../../../arm-none-eabi/lib/armv7e-m/libg.a(lib_a-ctype_.o)
                0x0800cf10                _ctype_
 *fill*         0x0800d014        0xc 
 .rodata.str1.4
                0x0800d020       0x10 /nfs/nfs5/home/research/hardware/arm2/gcc-arm-embedded/gcc-arm-none-eabi-4_8-2014q2/bin/../lib/gcc/arm-none-eabi/4.8.4/../../../../arm-none-eabi/lib/armv7e-m/libg.a(lib_a-dtoa.o)
                                 0x14 (size before relaxing)
 .rodata.str1.4
                0x0800d030        0xc /nfs/nfs5/home/research/hardware/arm2/gcc-arm-embedded/gcc-arm-none-eabi-4_8-2014q2/bin/../lib/gcc/arm-none-eabi/4.8.4/../../../../arm-none-eabi/lib/armv7e-m/libg.a(lib_a-locale.o)
                                 0x14 (size before relaxing)
 *fill*         0x0800d03c        0x4 
 .rodata.__mprec_tens
                0x0800d040       0xc8 /nfs/nfs5/home/research/hardware/arm2/gcc-arm-embedded/gcc-arm-none-eabi-4_8-2014q2/bin/../lib/gcc/arm-none-eabi/4.8.4/../../../../arm-none-eabi/lib/armv7e-m/libg.a(lib_a-mprec.o)
                0x0800d040                __mprec_tens
 *fill*         0x0800d108        0x8 
 .rodata.__mprec_bigtens
                0x0800d110       0x28 /nfs/nfs5/home/research/hardware/arm2/gcc-arm-embedded/gcc-arm-none-eabi-4_8-2014q2/bin/../lib/gcc/arm-none-eabi/4.8.4/../../../../arm-none-eabi/lib/armv7e-m/libg.a(lib_a-mprec.o)
                0x0800d110                __mprec_bigtens
 *fill*         0x0800d138        0x8 
 .rodata.p05.5269
                0x0800d140        0xc /nfs/nfs5/home/research/hardware/arm2/gcc-arm-embedded/gcc-arm-none-eabi-4_8-2014q2/bin/../lib/gcc/arm-none-eabi/4.8.4/../../../../arm-none-eabi/lib/armv7e-m/libg.a(lib_a-mprec.o)
 *(.glue_7t)
 .glue_7t       0x00000000        0x0 linker stubs
 *(.glue_7)
 .glue_7        0x00000000        0x0 linker stubs
 *(.gcc*)

.vfp11_veneer   0x0800d14c        0x0
 .vfp11_veneer  0x00000000        0x0 linker stubs

.v4_bx          0x0800d14c        0x0
 .v4_bx         0x00000000        0x0 linker stubs

.iplt           0x0800d14c        0x0
 .iplt          0x00000000        0x0 build/obj/crt0_v7m.o

.ARM.extab
 *(.ARM.extab* .gnu.linkonce.armextab.*)

.ARM.exidx      0x0800d14c        0x8
                0x0800d14c                __exidx_start = .
 *(.ARM.exidx* .gnu.linkonce.armexidx.*)
 .ARM.exidx     0x0800d14c        0x8 /nfs/nfs5/home/research/hardware/arm2/gcc-arm-embedded/gcc-arm-none-eabi-4_8-2014q2/bin/../lib/gcc/arm-none-eabi/4.8.4/armv7e-m/libgcc.a(_divdi3.o)
 .ARM.exidx     0x0800d154        0x0 /nfs/nfs5/home/research/hardware/arm2/gcc-arm-embedded/gcc-arm-none-eabi-4_8-2014q2/bin/../lib/gcc/arm-none-eabi/4.8.4/armv7e-m/libgcc.a(_udivdi3.o)
                                  0x8 (size before relaxing)
                0x0800d154                __exidx_end = .

.rel.dyn        0x0800d154        0x0
 .rel.iplt      0x00000000        0x0 build/obj/crt0_v7m.o

.eh_frame_hdr
 *(.eh_frame_hdr)

.eh_frame
 *(.eh_frame)

.textalign      0x0800d154        0x4
                0x0800d158                . = ALIGN (0x8)
 *fill*         0x0800d154        0x4 
                0x0800d158                . = ALIGN (0x4)
                0x0800d158                PROVIDE (_etext, .)

.mstack         0x20000000      0x400
                0x20000000                . = ALIGN (0x8)
                0x20000000                __main_stack_base__ = .
                0x20000400                . = (. + __main_stack_size__)
 *fill*         0x20000000      0x400 
                0x20000400                . = ALIGN (0x8)
                0x20000400                __main_stack_end__ = .

.pstack         0x20000400      0x400
                0x20000400                __process_stack_base__ = .
                0x20000400                __main_thread_stack_base__ = .
                0x20000800                . = (. + __process_stack_size__)
 *fill*         0x20000400      0x400 
                0x20000800                . = ALIGN (0x8)
                0x20000800                __process_stack_end__ = .
                0x20000800                __main_thread_stack_end__ = .

.data           0x20000800      0xa18 load address 0x0800d158
                0x20000800                . = ALIGN (0x4)
                0x0800d158                PROVIDE (_textdata, LOADADDR (.data))
                0x20000800                PROVIDE (_data, .)
                0x0800d158                _textdata_start = LOADADDR (.data)
                0x20000800                _data_start = .
 *(.data)
 *(.data.*)
 .data.local_commands
                0x20000800       0x18 build/obj/shell.o
 .data.fhandlers
                0x20000818        0x4 build/obj/main.o
 .data.leds     0x2000081c       0x20 build/obj/main.o
                0x2000081c                leds
 .data.gpsCfg   0x2000083c       0x10 build/obj/main.o
 .data.trailExtcfg
                0x2000084c      0x110 build/obj/main.o
                0x2000084c                trailExtcfg
 *fill*         0x2000095c        0x4 
 .data.impure_data
                0x20000960      0x428 /nfs/nfs5/home/research/hardware/arm2/gcc-arm-embedded/gcc-arm-none-eabi-4_8-2014q2/bin/../lib/gcc/arm-none-eabi/4.8.4/../../../../arm-none-eabi/lib/armv7e-m/libg.a(lib_a-impure.o)
 .data._impure_ptr
                0x20000d88        0x4 /nfs/nfs5/home/research/hardware/arm2/gcc-arm-embedded/gcc-arm-none-eabi-4_8-2014q2/bin/../lib/gcc/arm-none-eabi/4.8.4/../../../../arm-none-eabi/lib/armv7e-m/libg.a(lib_a-impure.o)
                0x20000d88                _impure_ptr
 .data.__ctype_ptr__
                0x20000d8c        0x4 /nfs/nfs5/home/research/hardware/arm2/gcc-arm-embedded/gcc-arm-none-eabi-4_8-2014q2/bin/../lib/gcc/arm-none-eabi/4.8.4/../../../../arm-none-eabi/lib/armv7e-m/libg.a(lib_a-ctype_.o)
                0x20000d8c                __ctype_ptr__
 .data.tzinfo   0x20000d90       0x40 /nfs/nfs5/home/research/hardware/arm2/gcc-arm-embedded/gcc-arm-none-eabi-4_8-2014q2/bin/../lib/gcc/arm-none-eabi/4.8.4/../../../../arm-none-eabi/lib/armv7e-m/libg.a(lib_a-gettzinfo.o)
 .data.lconv    0x20000dd0       0x38 /nfs/nfs5/home/research/hardware/arm2/gcc-arm-embedded/gcc-arm-none-eabi-4_8-2014q2/bin/../lib/gcc/arm-none-eabi/4.8.4/../../../../arm-none-eabi/lib/armv7e-m/libg.a(lib_a-locale.o)
 .data.__malloc_av_
                0x20000e08      0x408 /nfs/nfs5/home/research/hardware/arm2/gcc-arm-embedded/gcc-arm-none-eabi-4_8-2014q2/bin/../lib/gcc/arm-none-eabi/4.8.4/../../../../arm-none-eabi/lib/armv7e-m/libg.a(lib_a-mallocr.o)
                0x20000e08                __malloc_av_
 .data.__malloc_trim_threshold
                0x20001210        0x4 /nfs/nfs5/home/research/hardware/arm2/gcc-arm-embedded/gcc-arm-none-eabi-4_8-2014q2/bin/../lib/gcc/arm-none-eabi/4.8.4/../../../../arm-none-eabi/lib/armv7e-m/libg.a(lib_a-mallocr.o)
                0x20001210                __malloc_trim_threshold
 .data.__malloc_sbrk_base
                0x20001214        0x4 /nfs/nfs5/home/research/hardware/arm2/gcc-arm-embedded/gcc-arm-none-eabi-4_8-2014q2/bin/../lib/gcc/arm-none-eabi/4.8.4/../../../../arm-none-eabi/lib/armv7e-m/libg.a(lib_a-mallocr.o)
                0x20001214                __malloc_sbrk_base
 *(.ramtext)
                0x20001218                . = ALIGN (0x4)
                0x20001218                PROVIDE (_edata, .)
                0x20001218                _data_end = .

.igot.plt       0x20001218        0x0 load address 0x0800db70
 .igot.plt      0x00000000        0x0 build/obj/crt0_v7m.o

.bss            0x20001218     0x1a18 load address 0x0800db70
                0x20001218                . = ALIGN (0x4)
                0x20001218                _bss_start = .
 *(.bss)
 *(.bss.*)
 .bss.ch        0x20001218      0x150 build/obj/chschd.o
                0x20001218                ch
 .bss.endmem    0x20001368        0x4 build/obj/chmemcore.o
 .bss.nextmem   0x2000136c        0x4 build/obj/chmemcore.o
 .bss.default_heap
                0x20001370       0x20 build/obj/chheap.o
 .bss._stm32_dma_isr_redir
                0x20001390       0x60 build/obj/stm32_dma.o
                0x20001390                _stm32_dma_isr_redir
 .bss.dma_streams_mask
                0x200013f0        0x4 build/obj/stm32_dma.o
 .bss.ADCD1     0x200013f4       0x38 build/obj/adc_lld.o
                0x200013f4                ADCD1
 .bss.clkmask   0x2000142c        0x4 build/obj/adc_lld.o
 .bss.EXTD1     0x20001430        0x8 build/obj/ext_lld.o
                0x20001430                EXTD1
 .bss.RTCD1     0x20001438        0x4 build/obj/rtc_lld.o
                0x20001438                RTCD1
 .bss.SPID2     0x2000143c       0x34 build/obj/spi_lld.o
                0x2000143c                SPID2
 .bss.dummyrx   0x20001470        0x2 build/obj/spi_lld.o
 *fill*         0x20001472        0x2 
 .bss.GPTD1     0x20001474       0x10 build/obj/gpt_lld.o
                0x20001474                GPTD1
 .bss.SD1       0x20001484      0x25c build/obj/serial_lld.o
                0x20001484                SD1
 .bss.SD2       0x200016e0      0x25c build/obj/serial_lld.o
                0x200016e0                SD2
 .bss.shell_terminated
                0x2000193c        0x4 build/obj/shell.o
                0x2000193c                shell_terminated
 .bss.Fsid      0x20001940        0x2 build/obj/ff.o
 *fill*         0x20001942        0x2 
 .bss.FatFs     0x20001944        0x4 build/obj/ff.o
 .bss.samples_buf
                0x20001948        0x4 build/obj/main.o
 .bss.rc        0x2000194c        0x1 build/obj/main.o
                0x2000194c                rc
 *fill*         0x2000194d        0x3 
 .bss.dayRTC    0x20001950        0x4 build/obj/main.o
                0x20001950                dayRTC
 .bss.tempList  0x20001954      0x280 build/obj/main.o
                0x20001954                tempList
 .bss.curGPS    0x20001bd4        0x4 build/obj/main.o
                0x20001bd4                curGPS
 .bss.total_count
                0x20001bd8        0x4 build/obj/main.o
                0x20001bd8                total_count
 .bss.adccfg    0x20001bdc        0x4 build/obj/main.o
 .bss.lastGPS   0x20001be0        0x4 build/obj/main.o
                0x20001be0                lastGPS
 .bss.dayGPS    0x20001be4        0x4 build/obj/main.o
                0x20001be4                dayGPS
 .bss.MMCD1     0x20001be8       0x34 build/obj/main.o
                0x20001be8                MMCD1
 *fill*         0x20001c1c        0x4 
 .bss.waCounterThread
                0x20001c20      0x148 build/obj/main.o
 .bss.shelltp1  0x20001d68        0x4 build/obj/main.o
 *fill*         0x20001d6c        0x4 
 .bss.waDataThread
                0x20001d70      0x148 build/obj/main.o
 .bss.waButtonThread
                0x20001eb8      0x8c8 build/obj/main.o
 .bss.SDC_FS    0x20002780      0x230 build/obj/main.o
                0x20002780                SDC_FS
 .bss.bsem      0x200029b0        0xc build/obj/main.o
                0x200029b0                bsem
 .bss.sdMutex   0x200029bc       0x10 build/obj/main.o
 .bss.temperature
                0x200029cc        0x4 build/obj/main.o
                0x200029cc                temperature
 .bss.fil       0x200029d0      0x224 build/obj/main.o
                0x200029d0                fil
 .bss.lastRTC   0x20002bf4        0x4 build/obj/main.o
                0x20002bf4                lastRTC
 .bss._daylight
                0x20002bf8        0x4 /nfs/nfs5/home/research/hardware/arm2/gcc-arm-embedded/gcc-arm-none-eabi-4_8-2014q2/bin/../lib/gcc/arm-none-eabi/4.8.4/../../../../arm-none-eabi/lib/armv7e-m/libg.a(lib_a-tzvars.o)
                0x20002bf8                _daylight
 .bss.__malloc_max_total_mem
                0x20002bfc        0x4 /nfs/nfs5/home/research/hardware/arm2/gcc-arm-embedded/gcc-arm-none-eabi-4_8-2014q2/bin/../lib/gcc/arm-none-eabi/4.8.4/../../../../arm-none-eabi/lib/armv7e-m/libg.a(lib_a-mallocr.o)
                0x20002bfc                __malloc_max_total_mem
 .bss.__malloc_max_sbrked_mem
                0x20002c00        0x4 /nfs/nfs5/home/research/hardware/arm2/gcc-arm-embedded/gcc-arm-none-eabi-4_8-2014q2/bin/../lib/gcc/arm-none-eabi/4.8.4/../../../../arm-none-eabi/lib/armv7e-m/libg.a(lib_a-mallocr.o)
                0x20002c00                __malloc_max_sbrked_mem
 .bss.__malloc_top_pad
                0x20002c04        0x4 /nfs/nfs5/home/research/hardware/arm2/gcc-arm-embedded/gcc-arm-none-eabi-4_8-2014q2/bin/../lib/gcc/arm-none-eabi/4.8.4/../../../../arm-none-eabi/lib/armv7e-m/libg.a(lib_a-mallocr.o)
                0x20002c04                __malloc_top_pad
 .bss.__malloc_current_mallinfo
                0x20002c08       0x28 /nfs/nfs5/home/research/hardware/arm2/gcc-arm-embedded/gcc-arm-none-eabi-4_8-2014q2/bin/../lib/gcc/arm-none-eabi/4.8.4/../../../../arm-none-eabi/lib/armv7e-m/libg.a(lib_a-mallocr.o)
                0x20002c08                __malloc_current_mallinfo
 *(COMMON)
                0x20002c30                . = ALIGN (0x4)
                0x20002c30                _bss_end = .
                0x20002c30                PROVIDE (end, .)

.ram0_init      0x20002c30        0x0 load address 0x0800db70
                0x20002c30                . = ALIGN (0x4)
                0x0800db70                __ram0_init_text__ = LOADADDR (.ram0_init)
                0x20002c30                __ram0_init__ = .
 *(.ram0_init)
 *(.ram0_init.*)
                0x20002c30                . = ALIGN (0x4)

.ram0           0x20002c30        0x0 load address 0x0800db70
                0x20002c30                . = ALIGN (0x4)
                0x20002c30                __ram0_clear__ = .
 *(.ram0_clear)
 *(.ram0_clear.*)
                0x20002c30                . = ALIGN (0x4)
                0x20002c30                __ram0_noinit__ = .
 *(.ram0)
 *(.ram0.*)
                0x20002c30                . = ALIGN (0x4)
                0x20002c30                __ram0_free__ = .

.ram1_init      0x00000000        0x0 load address 0x0800db70
                0x00000000                . = ALIGN (0x4)
                0x0800db70                __ram1_init_text__ = LOADADDR (.ram1_init)
                0x00000000                __ram1_init__ = .
 *(.ram1_init)
 *(.ram1_init.*)
                0x00000000                . = ALIGN (0x4)

.ram1           0x00000000        0x0 load address 0x0800db70
                0x00000000                . = ALIGN (0x4)
                0x00000000                __ram1_clear__ = .
 *(.ram1_clear)
 *(.ram1_clear.*)
                0x00000000                . = ALIGN (0x4)
                0x00000000                __ram1_noinit__ = .
 *(.ram1)
 *(.ram1.*)
                0x00000000                . = ALIGN (0x4)
                0x00000000                __ram1_free__ = .

.ram2_init      0x00000000        0x0 load address 0x0800db70
                0x00000000                . = ALIGN (0x4)
                0x0800db70                __ram2_init_text__ = LOADADDR (.ram2_init)
                0x00000000                __ram2_init__ = .
 *(.ram2_init)
 *(.ram2_init.*)
                0x00000000                . = ALIGN (0x4)

.ram2           0x00000000        0x0 load address 0x0800db70
                0x00000000                . = ALIGN (0x4)
                0x00000000                __ram2_clear__ = .
 *(.ram2_clear)
 *(.ram2_clear.*)
                0x00000000                . = ALIGN (0x4)
                0x00000000                __ram2_noinit__ = .
 *(.ram2)
 *(.ram2.*)
                0x00000000                . = ALIGN (0x4)
                0x00000000                __ram2_free__ = .

.ram3_init      0x00000000        0x0 load address 0x0800db70
                0x00000000                . = ALIGN (0x4)
                0x0800db70                __ram3_init_text__ = LOADADDR (.ram3_init)
                0x00000000                __ram3_init__ = .
 *(.ram3_init)
 *(.ram3_init.*)
                0x00000000                . = ALIGN (0x4)

.ram3           0x00000000        0x0 load address 0x0800db70
                0x00000000                . = ALIGN (0x4)
                0x00000000                __ram3_clear__ = .
 *(.ram3_clear)
 *(.ram3_clear.*)
                0x00000000                . = ALIGN (0x4)
                0x00000000                __ram3_noinit__ = .
 *(.ram3)
 *(.ram3.*)
                0x00000000                . = ALIGN (0x4)
                0x00000000                __ram3_free__ = .

.ram4_init      0x10000000        0x0 load address 0x0800db70
                0x10000000                . = ALIGN (0x4)
                0x0800db70                __ram4_init_text__ = LOADADDR (.ram4_init)
                0x10000000                __ram4_init__ = .
 *(.ram4_init)
 *(.ram4_init.*)
                0x10000000                . = ALIGN (0x4)

.ram4           0x10000000        0x0 load address 0x0800db70
                0x10000000                . = ALIGN (0x4)
                0x10000000                __ram4_clear__ = .
 *(.ram4_clear)
 *(.ram4_clear.*)
                0x10000000                . = ALIGN (0x4)
                0x10000000                __ram4_noinit__ = .
 *(.ram4)
 *(.ram4.*)
                0x10000000                . = ALIGN (0x4)
                0x10000000                __ram4_free__ = .

.ram5_init      0x00000000        0x0 load address 0x0800db70
                0x00000000                . = ALIGN (0x4)
                0x0800db70                __ram5_init_text__ = LOADADDR (.ram5_init)
                0x00000000                __ram5_init__ = .
 *(.ram5_init)
 *(.ram5_init.*)
                0x00000000                . = ALIGN (0x4)

.ram5           0x00000000        0x0 load address 0x0800db70
                0x00000000                . = ALIGN (0x4)
                0x00000000                __ram5_clear__ = .
 *(.ram5_clear)
 *(.ram5_clear.*)
                0x00000000                . = ALIGN (0x4)
                0x00000000                __ram5_noinit__ = .
 *(.ram5)
 *(.ram5.*)
                0x00000000                . = ALIGN (0x4)
                0x00000000                __ram5_free__ = .

.ram6_init      0x00000000        0x0 load address 0x0800db70
                0x00000000                . = ALIGN (0x4)
                0x0800db70                __ram6_init_text__ = LOADADDR (.ram6_init)
                0x00000000                __ram6_init__ = .
 *(.ram6_init)
 *(.ram6_init.*)
                0x00000000                . = ALIGN (0x4)

.ram6           0x00000000        0x0 load address 0x0800db70
                0x00000000                . = ALIGN (0x4)
                0x00000000                __ram6_clear__ = .
 *(.ram6_clear)
 *(.ram6_clear.*)
                0x00000000                . = ALIGN (0x4)
                0x00000000                __ram6_noinit__ = .
 *(.ram6)
 *(.ram6.*)
                0x00000000                . = ALIGN (0x4)
                0x00000000                __ram6_free__ = .

.ram7_init      0x00000000        0x0 load address 0x0800db70
                0x00000000                . = ALIGN (0x4)
                0x0800db70                __ram7_init_text__ = LOADADDR (.ram7_init)
                0x00000000                __ram7_init__ = .
 *(.ram7_init)
 *(.ram7_init.*)
                0x00000000                . = ALIGN (0x4)

.ram7           0x00000000        0x0 load address 0x0800db70
                0x00000000                . = ALIGN (0x4)
                0x00000000                __ram7_clear__ = .
 *(.ram7_clear)
 *(.ram7_clear.*)
                0x00000000                . = ALIGN (0x4)
                0x00000000                __ram7_noinit__ = .
 *(.ram7)
 *(.ram7.*)
                0x00000000                . = ALIGN (0x4)
                0x00000000                __ram7_free__ = .

.heap           0x20002c30     0x73d0
                0x20002c30                . = ALIGN (0x8)
                0x20002c30                __heap_base__ = .
                0x2000a000                . = (ORIGIN (HEAP_RAM) + 0xa000)
 *fill*         0x20002c30     0x73d0 
                0x2000a000                __heap_end__ = .
                0x00000400                __process_stack_size__ = 0x400
                0x00000400                __main_stack_size__ = 0x400
LOAD /nfs/nfs5/home/research/hardware/arm2/gcc-arm-embedded/gcc-arm-none-eabi-4_8-2014q2/bin/../lib/gcc/arm-none-eabi/4.8.4/../../../../arm-none-eabi/lib/armv7e-m/libm.a
START GROUP
LOAD /nfs/nfs5/home/research/hardware/arm2/gcc-arm-embedded/gcc-arm-none-eabi-4_8-2014q2/bin/../lib/gcc/arm-none-eabi/4.8.4/armv7e-m/libgcc.a
LOAD /nfs/nfs5/home/research/hardware/arm2/gcc-arm-embedded/gcc-arm-none-eabi-4_8-2014q2/bin/../lib/gcc/arm-none-eabi/4.8.4/../../../../arm-none-eabi/lib/armv7e-m/libg.a
LOAD /nfs/nfs5/home/research/hardware/arm2/gcc-arm-embedded/gcc-arm-none-eabi-4_8-2014q2/bin/../lib/gcc/arm-none-eabi/4.8.4/../../../../arm-none-eabi/lib/armv7e-m/libc.a
END GROUP
OUTPUT(build/lab1.elf elf32-littlearm)

.ARM.attributes
                0x00000000       0x2f
 .ARM.attributes
                0x00000000       0x21 build/obj/crt0_v7m.o
 .ARM.attributes
                0x00000021       0x21 build/obj/chcoreasm_v7m.o
 .ARM.attributes
                0x00000042       0x33 build/obj/crt1.o
 .ARM.attributes
                0x00000075       0x33 build/obj/vectors.o
 .ARM.attributes
                0x000000a8       0x33 build/obj/chsys.o
 .ARM.attributes
                0x000000db       0x33 build/obj/chvt.o
 .ARM.attributes
                0x0000010e       0x33 build/obj/chschd.o
 .ARM.attributes
                0x00000141       0x33 build/obj/chthreads.o
 .ARM.attributes
                0x00000174       0x33 build/obj/chtm.o
 .ARM.attributes
                0x000001a7       0x33 build/obj/chdynamic.o
 .ARM.attributes
                0x000001da       0x33 build/obj/chregistry.o
 .ARM.attributes
                0x0000020d       0x33 build/obj/chsem.o
 .ARM.attributes
                0x00000240       0x33 build/obj/chmtx.o
 .ARM.attributes
                0x00000273       0x33 build/obj/chevents.o
 .ARM.attributes
                0x000002a6       0x33 build/obj/chqueues.o
 .ARM.attributes
                0x000002d9       0x33 build/obj/chmemcore.o
 .ARM.attributes
                0x0000030c       0x33 build/obj/chheap.o
 .ARM.attributes
                0x0000033f       0x33 build/obj/chmempools.o
 .ARM.attributes
                0x00000372       0x33 build/obj/chcore_v7m.o
 .ARM.attributes
                0x000003a5       0x33 build/obj/hal.o
 .ARM.attributes
                0x000003d8       0x33 build/obj/st.o
 .ARM.attributes
                0x0000040b       0x33 build/obj/hal_mmcsd.o
 .ARM.attributes
                0x0000043e       0x33 build/obj/adc.o
 .ARM.attributes
                0x00000471       0x33 build/obj/ext.o
 .ARM.attributes
                0x000004a4       0x33 build/obj/gpt.o
 .ARM.attributes
                0x000004d7       0x33 build/obj/mmc_spi.o
 .ARM.attributes
                0x0000050a       0x33 build/obj/rtc.o
 .ARM.attributes
                0x0000053d       0x33 build/obj/serial.o
 .ARM.attributes
                0x00000570       0x33 build/obj/spi.o
 .ARM.attributes
                0x000005a3       0x33 build/obj/nvic.o
 .ARM.attributes
                0x000005d6       0x33 build/obj/hal_lld.o
 .ARM.attributes
                0x00000609       0x33 build/obj/stm32_dma.o
 .ARM.attributes
                0x0000063c       0x33 build/obj/st_lld.o
 .ARM.attributes
                0x0000066f       0x33 build/obj/adc_lld.o
 .ARM.attributes
                0x000006a2       0x33 build/obj/ext_lld.o
 .ARM.attributes
                0x000006d5       0x33 build/obj/ext_lld_isr.o
 .ARM.attributes
                0x00000708       0x33 build/obj/pal_lld.o
 .ARM.attributes
                0x0000073b       0x33 build/obj/rtc_lld.o
 .ARM.attributes
                0x0000076e       0x33 build/obj/spi_lld.o
 .ARM.attributes
                0x000007a1       0x33 build/obj/gpt_lld.o
 .ARM.attributes
                0x000007d4       0x33 build/obj/serial_lld.o
 .ARM.attributes
                0x00000807       0x33 build/obj/board.o
 .ARM.attributes
                0x0000083a       0x33 build/obj/shell.o
 .ARM.attributes
                0x0000086d       0x33 build/obj/syscalls.o
 .ARM.attributes
                0x000008a0       0x33 build/obj/chprintf.o
 .ARM.attributes
                0x000008d3       0x33 build/obj/ff.o
 .ARM.attributes
                0x00000906       0x33 build/obj/fatfs_diskio.o
 .ARM.attributes
                0x00000939       0x33 build/obj/main.o
 .ARM.attributes
                0x0000096c       0x1e /nfs/nfs5/home/research/hardware/arm2/gcc-arm-embedded/gcc-arm-none-eabi-4_8-2014q2/bin/../lib/gcc/arm-none-eabi/4.8.4/armv7e-m/libgcc.a(_arm_addsubdf3.o)
 .ARM.attributes
                0x0000098a       0x1e /nfs/nfs5/home/research/hardware/arm2/gcc-arm-embedded/gcc-arm-none-eabi-4_8-2014q2/bin/../lib/gcc/arm-none-eabi/4.8.4/armv7e-m/libgcc.a(_arm_muldivdf3.o)
 .ARM.attributes
                0x000009a8       0x1e /nfs/nfs5/home/research/hardware/arm2/gcc-arm-embedded/gcc-arm-none-eabi-4_8-2014q2/bin/../lib/gcc/arm-none-eabi/4.8.4/armv7e-m/libgcc.a(_arm_fixdfsi.o)
 .ARM.attributes
                0x000009c6       0x2e /nfs/nfs5/home/research/hardware/arm2/gcc-arm-embedded/gcc-arm-none-eabi-4_8-2014q2/bin/../lib/gcc/arm-none-eabi/4.8.4/../../../../arm-none-eabi/lib/armv7e-m/libg.a(lib_a-asctime.o)
 .ARM.attributes
                0x000009f4       0x2e /nfs/nfs5/home/research/hardware/arm2/gcc-arm-embedded/gcc-arm-none-eabi-4_8-2014q2/bin/../lib/gcc/arm-none-eabi/4.8.4/../../../../arm-none-eabi/lib/armv7e-m/libg.a(lib_a-asctime_r.o)
 .ARM.attributes
                0x00000a22       0x2e /nfs/nfs5/home/research/hardware/arm2/gcc-arm-embedded/gcc-arm-none-eabi-4_8-2014q2/bin/../lib/gcc/arm-none-eabi/4.8.4/../../../../arm-none-eabi/lib/armv7e-m/libg.a(lib_a-atoi.o)
 .ARM.attributes
                0x00000a50       0x2e /nfs/nfs5/home/research/hardware/arm2/gcc-arm-embedded/gcc-arm-none-eabi-4_8-2014q2/bin/../lib/gcc/arm-none-eabi/4.8.4/../../../../arm-none-eabi/lib/armv7e-m/libg.a(lib_a-impure.o)
 .ARM.attributes
                0x00000a7e       0x2e /nfs/nfs5/home/research/hardware/arm2/gcc-arm-embedded/gcc-arm-none-eabi-4_8-2014q2/bin/../lib/gcc/arm-none-eabi/4.8.4/../../../../arm-none-eabi/lib/armv7e-m/libg.a(lib_a-lcltime.o)
 .ARM.attributes
                0x00000aac       0x2e /nfs/nfs5/home/research/hardware/arm2/gcc-arm-embedded/gcc-arm-none-eabi-4_8-2014q2/bin/../lib/gcc/arm-none-eabi/4.8.4/../../../../arm-none-eabi/lib/armv7e-m/libg.a(lib_a-lcltime_r.o)
 .ARM.attributes
                0x00000ada       0x1c /nfs/nfs5/home/research/hardware/arm2/gcc-arm-embedded/gcc-arm-none-eabi-4_8-2014q2/bin/../lib/gcc/arm-none-eabi/4.8.4/../../../../arm-none-eabi/lib/armv7e-m/libg.a(lib_a-memcpy.o)
 .ARM.attributes
                0x00000af6       0x2e /nfs/nfs5/home/research/hardware/arm2/gcc-arm-embedded/gcc-arm-none-eabi-4_8-2014q2/bin/../lib/gcc/arm-none-eabi/4.8.4/../../../../arm-none-eabi/lib/armv7e-m/libg.a(lib_a-memset.o)
 .ARM.attributes
                0x00000b24       0x2e /nfs/nfs5/home/research/hardware/arm2/gcc-arm-embedded/gcc-arm-none-eabi-4_8-2014q2/bin/../lib/gcc/arm-none-eabi/4.8.4/../../../../arm-none-eabi/lib/armv7e-m/libg.a(lib_a-mktm_r.o)
 .ARM.attributes
                0x00000b52       0x2e /nfs/nfs5/home/research/hardware/arm2/gcc-arm-embedded/gcc-arm-none-eabi-4_8-2014q2/bin/../lib/gcc/arm-none-eabi/4.8.4/../../../../arm-none-eabi/lib/armv7e-m/libg.a(lib_a-siprintf.o)
 .ARM.attributes
                0x00000b80       0x2e /nfs/nfs5/home/research/hardware/arm2/gcc-arm-embedded/gcc-arm-none-eabi-4_8-2014q2/bin/../lib/gcc/arm-none-eabi/4.8.4/../../../../arm-none-eabi/lib/armv7e-m/libg.a(lib_a-sprintf.o)
 .ARM.attributes
                0x00000bae       0x1c /nfs/nfs5/home/research/hardware/arm2/gcc-arm-embedded/gcc-arm-none-eabi-4_8-2014q2/bin/../lib/gcc/arm-none-eabi/4.8.4/../../../../arm-none-eabi/lib/armv7e-m/libg.a(lib_a-strcmp.o)
 .ARM.attributes
                0x00000bca       0x2e /nfs/nfs5/home/research/hardware/arm2/gcc-arm-embedded/gcc-arm-none-eabi-4_8-2014q2/bin/../lib/gcc/arm-none-eabi/4.8.4/../../../../arm-none-eabi/lib/armv7e-m/libg.a(lib_a-strlen.o)
 .ARM.attributes
                0x00000bf8       0x2e /nfs/nfs5/home/research/hardware/arm2/gcc-arm-embedded/gcc-arm-none-eabi-4_8-2014q2/bin/../lib/gcc/arm-none-eabi/4.8.4/../../../../arm-none-eabi/lib/armv7e-m/libg.a(lib_a-strpbrk.o)
 .ARM.attributes
                0x00000c26       0x2e /nfs/nfs5/home/research/hardware/arm2/gcc-arm-embedded/gcc-arm-none-eabi-4_8-2014q2/bin/../lib/gcc/arm-none-eabi/4.8.4/../../../../arm-none-eabi/lib/armv7e-m/libg.a(lib_a-strspn.o)
 .ARM.attributes
                0x00000c54       0x2e /nfs/nfs5/home/research/hardware/arm2/gcc-arm-embedded/gcc-arm-none-eabi-4_8-2014q2/bin/../lib/gcc/arm-none-eabi/4.8.4/../../../../arm-none-eabi/lib/armv7e-m/libg.a(lib_a-strstr.o)
 .ARM.attributes
                0x00000c82       0x2e /nfs/nfs5/home/research/hardware/arm2/gcc-arm-embedded/gcc-arm-none-eabi-4_8-2014q2/bin/../lib/gcc/arm-none-eabi/4.8.4/../../../../arm-none-eabi/lib/armv7e-m/libg.a(lib_a-strtol.o)
 .ARM.attributes
                0x00000cb0       0x2e /nfs/nfs5/home/research/hardware/arm2/gcc-arm-embedded/gcc-arm-none-eabi-4_8-2014q2/bin/../lib/gcc/arm-none-eabi/4.8.4/../../../../arm-none-eabi/lib/armv7e-m/libg.a(lib_a-svfiprintf.o)
 .ARM.attributes
                0x00000cde       0x2e /nfs/nfs5/home/research/hardware/arm2/gcc-arm-embedded/gcc-arm-none-eabi-4_8-2014q2/bin/../lib/gcc/arm-none-eabi/4.8.4/../../../../arm-none-eabi/lib/armv7e-m/libg.a(lib_a-svfprintf.o)
 .ARM.attributes
                0x00000d0c       0x2e /nfs/nfs5/home/research/hardware/arm2/gcc-arm-embedded/gcc-arm-none-eabi-4_8-2014q2/bin/../lib/gcc/arm-none-eabi/4.8.4/../../../../arm-none-eabi/lib/armv7e-m/libg.a(lib_a-tzlock.o)
 .ARM.attributes
                0x00000d3a       0x2e /nfs/nfs5/home/research/hardware/arm2/gcc-arm-embedded/gcc-arm-none-eabi-4_8-2014q2/bin/../lib/gcc/arm-none-eabi/4.8.4/../../../../arm-none-eabi/lib/armv7e-m/libg.a(lib_a-tzvars.o)
 .ARM.attributes
                0x00000d68       0x2e /nfs/nfs5/home/research/hardware/arm2/gcc-arm-embedded/gcc-arm-none-eabi-4_8-2014q2/bin/../lib/gcc/arm-none-eabi/4.8.4/../../../../arm-none-eabi/lib/armv7e-m/libg.a(lib_a-ctype_.o)
 .ARM.attributes
                0x00000d96       0x2e /nfs/nfs5/home/research/hardware/arm2/gcc-arm-embedded/gcc-arm-none-eabi-4_8-2014q2/bin/../lib/gcc/arm-none-eabi/4.8.4/../../../../arm-none-eabi/lib/armv7e-m/libg.a(lib_a-dtoa.o)
 .ARM.attributes
                0x00000dc4       0x2e /nfs/nfs5/home/research/hardware/arm2/gcc-arm-embedded/gcc-arm-none-eabi-4_8-2014q2/bin/../lib/gcc/arm-none-eabi/4.8.4/../../../../arm-none-eabi/lib/armv7e-m/libg.a(lib_a-freer.o)
 .ARM.attributes
                0x00000df2       0x2e /nfs/nfs5/home/research/hardware/arm2/gcc-arm-embedded/gcc-arm-none-eabi-4_8-2014q2/bin/../lib/gcc/arm-none-eabi/4.8.4/../../../../arm-none-eabi/lib/armv7e-m/libg.a(lib_a-gettzinfo.o)
 .ARM.attributes
                0x00000e20       0x2e /nfs/nfs5/home/research/hardware/arm2/gcc-arm-embedded/gcc-arm-none-eabi-4_8-2014q2/bin/../lib/gcc/arm-none-eabi/4.8.4/../../../../arm-none-eabi/lib/armv7e-m/libg.a(lib_a-locale.o)
 .ARM.attributes
                0x00000e4e       0x2e /nfs/nfs5/home/research/hardware/arm2/gcc-arm-embedded/gcc-arm-none-eabi-4_8-2014q2/bin/../lib/gcc/arm-none-eabi/4.8.4/../../../../arm-none-eabi/lib/armv7e-m/libg.a(lib_a-mallocr.o)
 .ARM.attributes
                0x00000e7c       0x2e /nfs/nfs5/home/research/hardware/arm2/gcc-arm-embedded/gcc-arm-none-eabi-4_8-2014q2/bin/../lib/gcc/arm-none-eabi/4.8.4/../../../../arm-none-eabi/lib/armv7e-m/libg.a(lib_a-memchr-stub.o)
 .ARM.attributes
                0x00000eaa       0x2e /nfs/nfs5/home/research/hardware/arm2/gcc-arm-embedded/gcc-arm-none-eabi-4_8-2014q2/bin/../lib/gcc/arm-none-eabi/4.8.4/../../../../arm-none-eabi/lib/armv7e-m/libg.a(lib_a-memcmp.o)
 .ARM.attributes
                0x00000ed8       0x2e /nfs/nfs5/home/research/hardware/arm2/gcc-arm-embedded/gcc-arm-none-eabi-4_8-2014q2/bin/../lib/gcc/arm-none-eabi/4.8.4/../../../../arm-none-eabi/lib/armv7e-m/libg.a(lib_a-memmove.o)
 .ARM.attributes
                0x00000f06       0x2e /nfs/nfs5/home/research/hardware/arm2/gcc-arm-embedded/gcc-arm-none-eabi-4_8-2014q2/bin/../lib/gcc/arm-none-eabi/4.8.4/../../../../arm-none-eabi/lib/armv7e-m/libg.a(lib_a-mlock.o)
 .ARM.attributes
                0x00000f34       0x2e /nfs/nfs5/home/research/hardware/arm2/gcc-arm-embedded/gcc-arm-none-eabi-4_8-2014q2/bin/../lib/gcc/arm-none-eabi/4.8.4/../../../../arm-none-eabi/lib/armv7e-m/libg.a(lib_a-mprec.o)
 .ARM.attributes
                0x00000f62       0x2e /nfs/nfs5/home/research/hardware/arm2/gcc-arm-embedded/gcc-arm-none-eabi-4_8-2014q2/bin/../lib/gcc/arm-none-eabi/4.8.4/../../../../arm-none-eabi/lib/armv7e-m/libg.a(lib_a-reallocr.o)
 .ARM.attributes
                0x00000f90       0x2e /nfs/nfs5/home/research/hardware/arm2/gcc-arm-embedded/gcc-arm-none-eabi-4_8-2014q2/bin/../lib/gcc/arm-none-eabi/4.8.4/../../../../arm-none-eabi/lib/armv7e-m/libg.a(lib_a-s_fpclassify.o)
 .ARM.attributes
                0x00000fbe       0x2e /nfs/nfs5/home/research/hardware/arm2/gcc-arm-embedded/gcc-arm-none-eabi-4_8-2014q2/bin/../lib/gcc/arm-none-eabi/4.8.4/../../../../arm-none-eabi/lib/armv7e-m/libg.a(lib_a-strchr.o)
 .ARM.attributes
                0x00000fec       0x2e /nfs/nfs5/home/research/hardware/arm2/gcc-arm-embedded/gcc-arm-none-eabi-4_8-2014q2/bin/../lib/gcc/arm-none-eabi/4.8.4/../../../../arm-none-eabi/lib/armv7e-m/libg.a(lib_a-callocr.o)
 .ARM.attributes
                0x0000101a       0x1e /nfs/nfs5/home/research/hardware/arm2/gcc-arm-embedded/gcc-arm-none-eabi-4_8-2014q2/bin/../lib/gcc/arm-none-eabi/4.8.4/armv7e-m/libgcc.a(_arm_cmpdf2.o)
 .ARM.attributes
                0x00001038       0x1e /nfs/nfs5/home/research/hardware/arm2/gcc-arm-embedded/gcc-arm-none-eabi-4_8-2014q2/bin/../lib/gcc/arm-none-eabi/4.8.4/armv7e-m/libgcc.a(_aeabi_uldivmod.o)
 .ARM.attributes
                0x00001056       0x2e /nfs/nfs5/home/research/hardware/arm2/gcc-arm-embedded/gcc-arm-none-eabi-4_8-2014q2/bin/../lib/gcc/arm-none-eabi/4.8.4/armv7e-m/libgcc.a(bpabi.o)
 .ARM.attributes
                0x00001084       0x1e /nfs/nfs5/home/research/hardware/arm2/gcc-arm-embedded/gcc-arm-none-eabi-4_8-2014q2/bin/../lib/gcc/arm-none-eabi/4.8.4/armv7e-m/libgcc.a(_dvmd_tls.o)
 .ARM.attributes
                0x000010a2       0x2e /nfs/nfs5/home/research/hardware/arm2/gcc-arm-embedded/gcc-arm-none-eabi-4_8-2014q2/bin/../lib/gcc/arm-none-eabi/4.8.4/armv7e-m/libgcc.a(_divdi3.o)
 .ARM.attributes
                0x000010d0       0x2e /nfs/nfs5/home/research/hardware/arm2/gcc-arm-embedded/gcc-arm-none-eabi-4_8-2014q2/bin/../lib/gcc/arm-none-eabi/4.8.4/armv7e-m/libgcc.a(_udivdi3.o)

.comment        0x00000000       0x70
 .comment       0x00000000       0x70 build/obj/crt1.o
                                 0x71 (size before relaxing)
 .comment       0x00000000       0x71 build/obj/vectors.o
 .comment       0x00000000       0x71 build/obj/chsys.o
 .comment       0x00000000       0x71 build/obj/chvt.o
 .comment       0x00000000       0x71 build/obj/chschd.o
 .comment       0x00000000       0x71 build/obj/chthreads.o
 .comment       0x00000000       0x71 build/obj/chtm.o
 .comment       0x00000000       0x71 build/obj/chdynamic.o
 .comment       0x00000000       0x71 build/obj/chregistry.o
 .comment       0x00000000       0x71 build/obj/chsem.o
 .comment       0x00000000       0x71 build/obj/chmtx.o
 .comment       0x00000000       0x71 build/obj/chevents.o
 .comment       0x00000000       0x71 build/obj/chqueues.o
 .comment       0x00000000       0x71 build/obj/chmemcore.o
 .comment       0x00000000       0x71 build/obj/chheap.o
 .comment       0x00000000       0x71 build/obj/chmempools.o
 .comment       0x00000000       0x71 build/obj/chcore_v7m.o
 .comment       0x00000000       0x71 build/obj/hal.o
 .comment       0x00000000       0x71 build/obj/st.o
 .comment       0x00000000       0x71 build/obj/hal_mmcsd.o
 .comment       0x00000000       0x71 build/obj/adc.o
 .comment       0x00000000       0x71 build/obj/ext.o
 .comment       0x00000000       0x71 build/obj/gpt.o
 .comment       0x00000000       0x71 build/obj/mmc_spi.o
 .comment       0x00000000       0x71 build/obj/rtc.o
 .comment       0x00000000       0x71 build/obj/serial.o
 .comment       0x00000000       0x71 build/obj/spi.o
 .comment       0x00000000       0x71 build/obj/nvic.o
 .comment       0x00000000       0x71 build/obj/hal_lld.o
 .comment       0x00000000       0x71 build/obj/stm32_dma.o
 .comment       0x00000000       0x71 build/obj/st_lld.o
 .comment       0x00000000       0x71 build/obj/adc_lld.o
 .comment       0x00000000       0x71 build/obj/ext_lld.o
 .comment       0x00000000       0x71 build/obj/ext_lld_isr.o
 .comment       0x00000000       0x71 build/obj/pal_lld.o
 .comment       0x00000000       0x71 build/obj/rtc_lld.o
 .comment       0x00000000       0x71 build/obj/spi_lld.o
 .comment       0x00000000       0x71 build/obj/gpt_lld.o
 .comment       0x00000000       0x71 build/obj/serial_lld.o
 .comment       0x00000000       0x71 build/obj/board.o
 .comment       0x00000000       0x71 build/obj/shell.o
 .comment       0x00000000       0x71 build/obj/syscalls.o
 .comment       0x00000000       0x71 build/obj/chprintf.o
 .comment       0x00000000       0x71 build/obj/ff.o
 .comment       0x00000000       0x71 build/obj/fatfs_diskio.o
 .comment       0x00000000       0x71 build/obj/main.o

.debug_info     0x00000000    0x317ee
 .debug_info    0x00000000      0x319 build/obj/crt1.o
 .debug_info    0x00000319      0x1e7 build/obj/vectors.o
 .debug_info    0x00000500     0x18fd build/obj/chsys.o
 .debug_info    0x00001dfd      0x9fa build/obj/chvt.o
 .debug_info    0x000027f7      0xd48 build/obj/chschd.o
 .debug_info    0x0000353f     0x1c21 build/obj/chthreads.o
 .debug_info    0x00005160      0x9bd build/obj/chtm.o
 .debug_info    0x00005b1d      0xcdb build/obj/chdynamic.o
 .debug_info    0x000067f8      0x96d build/obj/chregistry.o
 .debug_info    0x00007165      0xfa9 build/obj/chsem.o
 .debug_info    0x0000810e      0xfb4 build/obj/chmtx.o
 .debug_info    0x000090c2     0x15b2 build/obj/chevents.o
 .debug_info    0x0000a674     0x1151 build/obj/chqueues.o
 .debug_info    0x0000b7c5      0x85a build/obj/chmemcore.o
 .debug_info    0x0000c01f      0x9bc build/obj/chheap.o
 .debug_info    0x0000c9db      0xbbb build/obj/chmempools.o
 .debug_info    0x0000d596      0xa55 build/obj/chcore_v7m.o
 .debug_info    0x0000dfeb      0x7fd build/obj/hal.o
 .debug_info    0x0000e7e8      0x8f6 build/obj/st.o
 .debug_info    0x0000f0de     0x1ed7 build/obj/hal_mmcsd.o
 .debug_info    0x00010fb5     0x167e build/obj/adc.o
 .debug_info    0x00012633      0xcf8 build/obj/ext.o
 .debug_info    0x0001332b     0x11ea build/obj/gpt.o
 .debug_info    0x00014515     0x20ee build/obj/mmc_spi.o
 .debug_info    0x00016603      0xd43 build/obj/rtc.o
 .debug_info    0x00017346     0x1771 build/obj/serial.o
 .debug_info    0x00018ab7     0x1b19 build/obj/spi.o
 .debug_info    0x0001a5d0      0x9ce build/obj/nvic.o
 .debug_info    0x0001af9e      0x87d build/obj/hal_lld.o
 .debug_info    0x0001b81b      0xd1d build/obj/stm32_dma.o
 .debug_info    0x0001c538      0xa3d build/obj/st_lld.o
 .debug_info    0x0001cf75     0x1a46 build/obj/adc_lld.o
 .debug_info    0x0001e9bb      0xa02 build/obj/ext_lld.o
 .debug_info    0x0001f3bd     0x10f7 build/obj/ext_lld_isr.o
 .debug_info    0x000204b4      0xaf9 build/obj/pal_lld.o
 .debug_info    0x00020fad      0xf06 build/obj/rtc_lld.o
 .debug_info    0x00021eb3     0x1114 build/obj/spi_lld.o
 .debug_info    0x00022fc7      0xbb8 build/obj/gpt_lld.o
 .debug_info    0x00023b7f     0x15c0 build/obj/serial_lld.o
 .debug_info    0x0002513f      0xdd7 build/obj/board.o
 .debug_info    0x00025f16     0x1852 build/obj/shell.o
 .debug_info    0x00027768     0x11cd build/obj/syscalls.o
 .debug_info    0x00028935      0xc58 build/obj/chprintf.o
 .debug_info    0x0002958d     0x3944 build/obj/ff.o
 .debug_info    0x0002ced1     0x129a build/obj/fatfs_diskio.o
 .debug_info    0x0002e16b     0x3683 build/obj/main.o

.debug_abbrev   0x00000000     0x8903
 .debug_abbrev  0x00000000       0xf7 build/obj/crt1.o
 .debug_abbrev  0x000000f7       0xc7 build/obj/vectors.o
 .debug_abbrev  0x000001be      0x557 build/obj/chsys.o
 .debug_abbrev  0x00000715      0x2a3 build/obj/chvt.o
 .debug_abbrev  0x000009b8      0x3fe build/obj/chschd.o
 .debug_abbrev  0x00000db6      0x4ad build/obj/chthreads.o
 .debug_abbrev  0x00001263      0x286 build/obj/chtm.o
 .debug_abbrev  0x000014e9      0x304 build/obj/chdynamic.o
 .debug_abbrev  0x000017ed      0x238 build/obj/chregistry.o
 .debug_abbrev  0x00001a25      0x3da build/obj/chsem.o
 .debug_abbrev  0x00001dff      0x3d2 build/obj/chmtx.o
 .debug_abbrev  0x000021d1      0x3b8 build/obj/chevents.o
 .debug_abbrev  0x00002589      0x3e0 build/obj/chqueues.o
 .debug_abbrev  0x00002969      0x28b build/obj/chmemcore.o
 .debug_abbrev  0x00002bf4      0x292 build/obj/chheap.o
 .debug_abbrev  0x00002e86      0x31e build/obj/chmempools.o
 .debug_abbrev  0x000031a4      0x22a build/obj/chcore_v7m.o
 .debug_abbrev  0x000033ce      0x1ba build/obj/hal.o
 .debug_abbrev  0x00003588      0x217 build/obj/st.o
 .debug_abbrev  0x0000379f      0x24c build/obj/hal_mmcsd.o
 .debug_abbrev  0x000039eb      0x393 build/obj/adc.o
 .debug_abbrev  0x00003d7e      0x299 build/obj/ext.o
 .debug_abbrev  0x00004017      0x2e1 build/obj/gpt.o
 .debug_abbrev  0x000042f8      0x48c build/obj/mmc_spi.o
 .debug_abbrev  0x00004784      0x292 build/obj/rtc.o
 .debug_abbrev  0x00004a16      0x434 build/obj/serial.o
 .debug_abbrev  0x00004e4a      0x36c build/obj/spi.o
 .debug_abbrev  0x000051b6      0x1ba build/obj/nvic.o
 .debug_abbrev  0x00005370      0x1c0 build/obj/hal_lld.o
 .debug_abbrev  0x00005530      0x294 build/obj/stm32_dma.o
 .debug_abbrev  0x000057c4      0x222 build/obj/st_lld.o
 .debug_abbrev  0x000059e6      0x399 build/obj/adc_lld.o
 .debug_abbrev  0x00005d7f      0x22c build/obj/ext_lld.o
 .debug_abbrev  0x00005fab      0x247 build/obj/ext_lld_isr.o
 .debug_abbrev  0x000061f2      0x20c build/obj/pal_lld.o
 .debug_abbrev  0x000063fe      0x372 build/obj/rtc_lld.o
 .debug_abbrev  0x00006770      0x394 build/obj/spi_lld.o
 .debug_abbrev  0x00006b04      0x289 build/obj/gpt_lld.o
 .debug_abbrev  0x00006d8d      0x3f1 build/obj/serial_lld.o
 .debug_abbrev  0x0000717e      0x1fe build/obj/board.o
 .debug_abbrev  0x0000737c      0x44d build/obj/shell.o
 .debug_abbrev  0x000077c9      0x24b build/obj/syscalls.o
 .debug_abbrev  0x00007a14      0x316 build/obj/chprintf.o
 .debug_abbrev  0x00007d2a      0x3ab build/obj/ff.o
 .debug_abbrev  0x000080d5      0x278 build/obj/fatfs_diskio.o
 .debug_abbrev  0x0000834d      0x5b6 build/obj/main.o

.debug_loc      0x00000000     0xdf32
 .debug_loc     0x00000000       0xda build/obj/crt1.o
 .debug_loc     0x000000da      0x2e9 build/obj/chsys.o
 .debug_loc     0x000003c3      0x28f build/obj/chvt.o
 .debug_loc     0x00000652      0x2ed build/obj/chschd.o
 .debug_loc     0x0000093f      0xa29 build/obj/chthreads.o
 .debug_loc     0x00001368       0x92 build/obj/chtm.o
 .debug_loc     0x000013fa      0x20d build/obj/chdynamic.o
 .debug_loc     0x00001607       0x3f build/obj/chregistry.o
 .debug_loc     0x00001646      0x4fc build/obj/chsem.o
 .debug_loc     0x00001b42      0x580 build/obj/chmtx.o
 .debug_loc     0x000020c2      0x59f build/obj/chevents.o
 .debug_loc     0x00002661      0x69b build/obj/chqueues.o
 .debug_loc     0x00002cfc       0xcc build/obj/chmemcore.o
 .debug_loc     0x00002dc8      0x37d build/obj/chheap.o
 .debug_loc     0x00003145      0x200 build/obj/chmempools.o
 .debug_loc     0x00003345       0xc1 build/obj/chcore_v7m.o
 .debug_loc     0x00003406      0x31a build/obj/hal_mmcsd.o
 .debug_loc     0x00003720      0x4da build/obj/adc.o
 .debug_loc     0x00003bfa      0x192 build/obj/ext.o
 .debug_loc     0x00003d8c      0x2ab build/obj/gpt.o
 .debug_loc     0x00004037      0xaf9 build/obj/mmc_spi.o
 .debug_loc     0x00004b30      0x62e build/obj/rtc.o
 .debug_loc     0x0000515e      0x6a2 build/obj/serial.o
 .debug_loc     0x00005800      0x4cd build/obj/spi.o
 .debug_loc     0x00005ccd       0xe0 build/obj/nvic.o
 .debug_loc     0x00005dad      0x1e8 build/obj/stm32_dma.o
 .debug_loc     0x00005f95       0x29 build/obj/st_lld.o
 .debug_loc     0x00005fbe      0x52b build/obj/adc_lld.o
 .debug_loc     0x000064e9      0x2e1 build/obj/ext_lld.o
 .debug_loc     0x000067ca      0x20f build/obj/ext_lld_isr.o
 .debug_loc     0x000069d9      0x1b2 build/obj/pal_lld.o
 .debug_loc     0x00006b8b      0x6f4 build/obj/rtc_lld.o
 .debug_loc     0x0000727f      0x352 build/obj/spi_lld.o
 .debug_loc     0x000075d1      0x163 build/obj/gpt_lld.o
 .debug_loc     0x00007734      0x584 build/obj/serial_lld.o
 .debug_loc     0x00007cb8       0x42 build/obj/board.o
 .debug_loc     0x00007cfa      0x784 build/obj/shell.o
 .debug_loc     0x0000847e      0x183 build/obj/syscalls.o
 .debug_loc     0x00008601      0x8c8 build/obj/chprintf.o
 .debug_loc     0x00008ec9     0x45b1 build/obj/ff.o
 .debug_loc     0x0000d47a      0x31a build/obj/fatfs_diskio.o
 .debug_loc     0x0000d794      0x79e build/obj/main.o

.debug_aranges  0x00000000     0x1128
 .debug_aranges
                0x00000000       0x40 build/obj/crt1.o
 .debug_aranges
                0x00000040       0x20 build/obj/vectors.o
 .debug_aranges
                0x00000060       0x60 build/obj/chsys.o
 .debug_aranges
                0x000000c0       0x30 build/obj/chvt.o
 .debug_aranges
                0x000000f0       0x70 build/obj/chschd.o
 .debug_aranges
                0x00000160       0xc0 build/obj/chthreads.o
 .debug_aranges
                0x00000220       0x40 build/obj/chtm.o
 .debug_aranges
                0x00000260       0x38 build/obj/chdynamic.o
 .debug_aranges
                0x00000298       0x28 build/obj/chregistry.o
 .debug_aranges
                0x000002c0       0x70 build/obj/chsem.o
 .debug_aranges
                0x00000330       0x58 build/obj/chmtx.o
 .debug_aranges
                0x00000388       0xa0 build/obj/chevents.o
 .debug_aranges
                0x00000428       0x68 build/obj/chqueues.o
 .debug_aranges
                0x00000490       0x38 build/obj/chmemcore.o
 .debug_aranges
                0x000004c8       0x40 build/obj/chheap.o
 .debug_aranges
                0x00000508       0x48 build/obj/chmempools.o
 .debug_aranges
                0x00000550       0x28 build/obj/chcore_v7m.o
 .debug_aranges
                0x00000578       0x20 build/obj/hal.o
 .debug_aranges
                0x00000598       0x40 build/obj/st.o
 .debug_aranges
                0x000005d8       0x58 build/obj/hal_mmcsd.o
 .debug_aranges
                0x00000630       0x70 build/obj/adc.o
 .debug_aranges
                0x000006a0       0x50 build/obj/ext.o
 .debug_aranges
                0x000006f0       0x78 build/obj/gpt.o
 .debug_aranges
                0x00000768       0xd8 build/obj/mmc_spi.o
 .debug_aranges
                0x00000840       0x60 build/obj/rtc.o
 .debug_aranges
                0x000008a0       0x98 build/obj/serial.o
 .debug_aranges
                0x00000938       0x98 build/obj/spi.o
 .debug_aranges
                0x000009d0       0x38 build/obj/nvic.o
 .debug_aranges
                0x00000a08       0x28 build/obj/hal_lld.o
 .debug_aranges
                0x00000a30       0x90 build/obj/stm32_dma.o
 .debug_aranges
                0x00000ac0       0x28 build/obj/st_lld.o
 .debug_aranges
                0x00000ae8       0x80 build/obj/adc_lld.o
 .debug_aranges
                0x00000b68       0x40 build/obj/ext_lld.o
 .debug_aranges
                0x00000ba8       0xa0 build/obj/ext_lld_isr.o
 .debug_aranges
                0x00000c48       0x28 build/obj/pal_lld.o
 .debug_aranges
                0x00000c70       0x50 build/obj/rtc_lld.o
 .debug_aranges
                0x00000cc0       0x78 build/obj/spi_lld.o
 .debug_aranges
                0x00000d38       0x58 build/obj/gpt_lld.o
 .debug_aranges
                0x00000d90       0x58 build/obj/serial_lld.o
 .debug_aranges
                0x00000de8       0x38 build/obj/board.o
 .debug_aranges
                0x00000e20       0x60 build/obj/shell.o
 .debug_aranges
                0x00000e80       0x50 build/obj/syscalls.o
 .debug_aranges
                0x00000ed0       0x38 build/obj/chprintf.o
 .debug_aranges
                0x00000f08      0x150 build/obj/ff.o
 .debug_aranges
                0x00001058       0x48 build/obj/fatfs_diskio.o
 .debug_aranges
                0x000010a0       0x88 build/obj/main.o

.debug_ranges   0x00000000     0x22f8
 .debug_ranges  0x00000000       0x30 build/obj/crt1.o
 .debug_ranges  0x00000030       0x10 build/obj/vectors.o
 .debug_ranges  0x00000040      0x158 build/obj/chsys.o
 .debug_ranges  0x00000198       0xb0 build/obj/chvt.o
 .debug_ranges  0x00000248      0x178 build/obj/chschd.o
 .debug_ranges  0x000003c0      0x238 build/obj/chthreads.o
 .debug_ranges  0x000005f8       0x98 build/obj/chtm.o
 .debug_ranges  0x00000690       0x28 build/obj/chdynamic.o
 .debug_ranges  0x000006b8       0x18 build/obj/chregistry.o
 .debug_ranges  0x000006d0      0x120 build/obj/chsem.o
 .debug_ranges  0x000007f0      0x180 build/obj/chmtx.o
 .debug_ranges  0x00000970       0xc0 build/obj/chevents.o
 .debug_ranges  0x00000a30      0x120 build/obj/chqueues.o
 .debug_ranges  0x00000b50       0x28 build/obj/chmemcore.o
 .debug_ranges  0x00000b78       0x30 build/obj/chheap.o
 .debug_ranges  0x00000ba8       0xe0 build/obj/chmempools.o
 .debug_ranges  0x00000c88       0x18 build/obj/chcore_v7m.o
 .debug_ranges  0x00000ca0       0x10 build/obj/hal.o
 .debug_ranges  0x00000cb0       0x30 build/obj/st.o
 .debug_ranges  0x00000ce0       0x48 build/obj/hal_mmcsd.o
 .debug_ranges  0x00000d28       0xd8 build/obj/adc.o
 .debug_ranges  0x00000e00       0x70 build/obj/ext.o
 .debug_ranges  0x00000e70       0x98 build/obj/gpt.o
 .debug_ranges  0x00000f08      0x128 build/obj/mmc_spi.o
 .debug_ranges  0x00001030       0x50 build/obj/rtc.o
 .debug_ranges  0x00001080      0x100 build/obj/serial.o
 .debug_ranges  0x00001180      0x100 build/obj/spi.o
 .debug_ranges  0x00001280       0x28 build/obj/nvic.o
 .debug_ranges  0x000012a8       0x30 build/obj/hal_lld.o
 .debug_ranges  0x000012d8      0x170 build/obj/stm32_dma.o
 .debug_ranges  0x00001448       0x18 build/obj/st_lld.o
 .debug_ranges  0x00001460       0xe0 build/obj/adc_lld.o
 .debug_ranges  0x00001540       0x30 build/obj/ext_lld.o
 .debug_ranges  0x00001570       0x90 build/obj/ext_lld_isr.o
 .debug_ranges  0x00001600       0xc0 build/obj/pal_lld.o
 .debug_ranges  0x000016c0      0x270 build/obj/rtc_lld.o
 .debug_ranges  0x00001930       0x80 build/obj/spi_lld.o
 .debug_ranges  0x000019b0       0x48 build/obj/gpt_lld.o
 .debug_ranges  0x000019f8       0xa8 build/obj/serial_lld.o
 .debug_ranges  0x00001aa0       0x28 build/obj/board.o
 .debug_ranges  0x00001ac8      0x148 build/obj/shell.o
 .debug_ranges  0x00001c10       0x40 build/obj/syscalls.o
 .debug_ranges  0x00001c50       0x40 build/obj/chprintf.o
 .debug_ranges  0x00001c90      0x558 build/obj/ff.o
 .debug_ranges  0x000021e8       0x38 build/obj/fatfs_diskio.o
 .debug_ranges  0x00002220       0xd8 build/obj/main.o

.debug_line     0x00000000     0xdb6f
 .debug_line    0x00000000      0x1e4 build/obj/crt1.o
 .debug_line    0x000001e4      0x1a0 build/obj/vectors.o
 .debug_line    0x00000384      0x5e5 build/obj/chsys.o
 .debug_line    0x00000969      0x39e build/obj/chvt.o
 .debug_line    0x00000d07      0x549 build/obj/chschd.o
 .debug_line    0x00001250      0x7a9 build/obj/chthreads.o
 .debug_line    0x000019f9      0x311 build/obj/chtm.o
 .debug_line    0x00001d0a      0x3cd build/obj/chdynamic.o
 .debug_line    0x000020d7      0x349 build/obj/chregistry.o
 .debug_line    0x00002420      0x481 build/obj/chsem.o
 .debug_line    0x000028a1      0x4c2 build/obj/chmtx.o
 .debug_line    0x00002d63      0x555 build/obj/chevents.o
 .debug_line    0x000032b8      0x583 build/obj/chqueues.o
 .debug_line    0x0000383b      0x341 build/obj/chmemcore.o
 .debug_line    0x00003b7c      0x3ad build/obj/chheap.o
 .debug_line    0x00003f29      0x3d2 build/obj/chmempools.o
 .debug_line    0x000042fb      0x290 build/obj/chcore_v7m.o
 .debug_line    0x0000458b      0x383 build/obj/hal.o
 .debug_line    0x0000490e      0x2e3 build/obj/st.o
 .debug_line    0x00004bf1      0x45a build/obj/hal_mmcsd.o
 .debug_line    0x0000504b      0x567 build/obj/adc.o
 .debug_line    0x000055b2      0x3ab build/obj/ext.o
 .debug_line    0x0000595d      0x42e build/obj/gpt.o
 .debug_line    0x00005d8b      0x7c8 build/obj/mmc_spi.o
 .debug_line    0x00006553      0x44e build/obj/rtc.o
 .debug_line    0x000069a1      0x572 build/obj/serial.o
 .debug_line    0x00006f13      0x642 build/obj/spi.o
 .debug_line    0x00007555      0x297 build/obj/nvic.o
 .debug_line    0x000077ec      0x3a6 build/obj/hal_lld.o
 .debug_line    0x00007b92      0x517 build/obj/stm32_dma.o
 .debug_line    0x000080a9      0x35e build/obj/st_lld.o
 .debug_line    0x00008407      0x6b1 build/obj/adc_lld.o
 .debug_line    0x00008ab8      0x42c build/obj/ext_lld.o
 .debug_line    0x00008ee4      0x4bc build/obj/ext_lld_isr.o
 .debug_line    0x000093a0      0x319 build/obj/pal_lld.o
 .debug_line    0x000096b9      0x5ac build/obj/rtc_lld.o
 .debug_line    0x00009c65      0x5b6 build/obj/spi_lld.o
 .debug_line    0x0000a21b      0x44e build/obj/gpt_lld.o
 .debug_line    0x0000a669      0x53d build/obj/serial_lld.o
 .debug_line    0x0000aba6      0x45d build/obj/board.o
 .debug_line    0x0000b003      0x594 build/obj/shell.o
 .debug_line    0x0000b597      0x3f4 build/obj/syscalls.o
 .debug_line    0x0000b98b      0x432 build/obj/chprintf.o
 .debug_line    0x0000bdbd     0x1027 build/obj/ff.o
 .debug_line    0x0000cde4      0x514 build/obj/fatfs_diskio.o
 .debug_line    0x0000d2f8      0x877 build/obj/main.o

.debug_str      0x00000000     0x4d7d
 .debug_str     0x00000000      0x432 build/obj/crt1.o
                                0x48b (size before relaxing)
 .debug_str     0x00000432      0x15c build/obj/vectors.o
                                0x328 (size before relaxing)
 .debug_str     0x0000058e      0xda5 build/obj/chsys.o
                                0xff0 (size before relaxing)
 .debug_str     0x00001333       0x68 build/obj/chvt.o
                                0x661 (size before relaxing)
 .debug_str     0x0000139b      0x130 build/obj/chschd.o
                                0x724 (size before relaxing)
 .debug_str     0x000014cb      0x211 build/obj/chthreads.o
                                0x8c3 (size before relaxing)
 .debug_str     0x000016dc       0xb9 build/obj/chtm.o
                                0x6b5 (size before relaxing)
 .debug_str     0x00001795      0x11f build/obj/chdynamic.o
                                0x6db (size before relaxing)
 .debug_str     0x000018b4       0x43 build/obj/chregistry.o
                                0x6c1 (size before relaxing)
 .debug_str     0x000018f7       0xc8 build/obj/chsem.o
                                0x6b7 (size before relaxing)
 .debug_str     0x000019bf       0xab build/obj/chmtx.o
                                0x685 (size before relaxing)
 .debug_str     0x00001a6a      0x1e9 build/obj/chevents.o
                                0x7b2 (size before relaxing)
 .debug_str     0x00001c53      0x174 build/obj/chqueues.o
                                0x73d (size before relaxing)
 .debug_str     0x00001dc7       0x75 build/obj/chmemcore.o
                                0x5f3 (size before relaxing)
 .debug_str     0x00001e3c       0x4f build/obj/chheap.o
                                0x62b (size before relaxing)
 .debug_str     0x00001e8b       0x66 build/obj/chmempools.o
                                0x650 (size before relaxing)
 .debug_str     0x00001ef1       0x8a build/obj/chcore_v7m.o
                                0x67f (size before relaxing)
 .debug_str     0x00001f7b      0x10f build/obj/hal.o
                                0x633 (size before relaxing)
 .debug_str     0x0000208a       0x81 build/obj/st.o
                                0x61a (size before relaxing)
 .debug_str     0x0000210b      0x42d build/obj/hal_mmcsd.o
                                0x9a0 (size before relaxing)
 .debug_str     0x00002538      0x417 build/obj/adc.o
                                0xa60 (size before relaxing)
 .debug_str     0x0000294f      0x143 build/obj/ext.o
                                0x6f5 (size before relaxing)
 .debug_str     0x00002a92      0x1c8 build/obj/gpt.o
                                0x7a0 (size before relaxing)
 .debug_str     0x00002c5a      0x348 build/obj/mmc_spi.o
                                0xaaa (size before relaxing)
 .debug_str     0x00002fa2      0x23e build/obj/rtc.o
                                0x7ec (size before relaxing)
 .debug_str     0x000031e0      0x196 build/obj/serial.o
                                0x949 (size before relaxing)
 .debug_str     0x00003376      0x120 build/obj/spi.o
                                0x931 (size before relaxing)
 .debug_str     0x00003496       0x7e build/obj/nvic.o
                                0x66f (size before relaxing)
 .debug_str     0x00003514      0x107 build/obj/hal_lld.o
                                0x652 (size before relaxing)
 .debug_str     0x0000361b      0x133 build/obj/stm32_dma.o
                                0x78c (size before relaxing)
 .debug_str     0x0000374e       0x9a build/obj/st_lld.o
                                0x706 (size before relaxing)
 .debug_str     0x000037e8      0x17b build/obj/adc_lld.o
                                0xbc4 (size before relaxing)
 .debug_str     0x00003963       0xa9 build/obj/ext_lld.o
                                0x711 (size before relaxing)
 .debug_str     0x00003a0c       0xc0 build/obj/ext_lld_isr.o
                                0xb47 (size before relaxing)
 .debug_str     0x00003acc       0x7c build/obj/pal_lld.o
                                0x6e4 (size before relaxing)
 .debug_str     0x00003b48      0x117 build/obj/rtc_lld.o
                                0x829 (size before relaxing)
 .debug_str     0x00003c5f       0xae build/obj/spi_lld.o
                                0x9b8 (size before relaxing)
 .debug_str     0x00003d0d       0x59 build/obj/gpt_lld.o
                                0x78a (size before relaxing)
 .debug_str     0x00003d66       0x7b build/obj/serial_lld.o
                                0x94a (size before relaxing)
 .debug_str     0x00003de1       0x6a build/obj/board.o
                                0x924 (size before relaxing)
 .debug_str     0x00003e4b      0x1a3 build/obj/shell.o
                                0x907 (size before relaxing)
 .debug_str     0x00003fee      0x496 build/obj/syscalls.o
                                0xa4e (size before relaxing)
 .debug_str     0x00004484      0x111 build/obj/chprintf.o
                                0x699 (size before relaxing)
 .debug_str     0x00004595      0x4ef build/obj/ff.o
                                0xa6d (size before relaxing)
 .debug_str     0x00004a84       0x3f build/obj/fatfs_diskio.o
                                0xae1 (size before relaxing)
 .debug_str     0x00004ac3      0x2ba build/obj/main.o
                               0x1617 (size before relaxing)

.debug_frame    0x00000000     0x3838
 .debug_frame   0x00000000       0x70 build/obj/crt1.o
 .debug_frame   0x00000070       0x20 build/obj/vectors.o
 .debug_frame   0x00000090       0xe8 build/obj/chsys.o
 .debug_frame   0x00000178       0x60 build/obj/chvt.o
 .debug_frame   0x000001d8      0x114 build/obj/chschd.o
 .debug_frame   0x000002ec      0x24c build/obj/chthreads.o
 .debug_frame   0x00000538       0x8c build/obj/chtm.o
 .debug_frame   0x000005c4       0x80 build/obj/chdynamic.o
 .debug_frame   0x00000644       0x3c build/obj/chregistry.o
 .debug_frame   0x00000680      0x130 build/obj/chsem.o
 .debug_frame   0x000007b0       0xd8 build/obj/chmtx.o
 .debug_frame   0x00000888      0x1cc build/obj/chevents.o
 .debug_frame   0x00000a54      0x158 build/obj/chqueues.o
 .debug_frame   0x00000bac       0x50 build/obj/chmemcore.o
 .debug_frame   0x00000bfc       0xa8 build/obj/chheap.o
 .debug_frame   0x00000ca4       0x94 build/obj/chmempools.o
 .debug_frame   0x00000d38       0x3c build/obj/chcore_v7m.o
 .debug_frame   0x00000d74       0x2c build/obj/hal.o
 .debug_frame   0x00000da0       0x60 build/obj/st.o
 .debug_frame   0x00000e00       0xf8 build/obj/hal_mmcsd.o
 .debug_frame   0x00000ef8      0x11c build/obj/adc.o
 .debug_frame   0x00001014       0xbc build/obj/ext.o
 .debug_frame   0x000010d0      0x118 build/obj/gpt.o
 .debug_frame   0x000011e8      0x2dc build/obj/mmc_spi.o
 .debug_frame   0x000014c4       0xe0 build/obj/rtc.o
 .debug_frame   0x000015a4      0x15c build/obj/serial.o
 .debug_frame   0x00001700      0x1a8 build/obj/spi.o
 .debug_frame   0x000018a8       0x60 build/obj/nvic.o
 .debug_frame   0x00001908       0x3c build/obj/hal_lld.o
 .debug_frame   0x00001944      0x1c4 build/obj/stm32_dma.o
 .debug_frame   0x00001b08       0x48 build/obj/st_lld.o
 .debug_frame   0x00001b50      0x150 build/obj/adc_lld.o
 .debug_frame   0x00001ca0       0x90 build/obj/ext_lld.o
 .debug_frame   0x00001d30      0x1ec build/obj/ext_lld_isr.o
 .debug_frame   0x00001f1c       0x5c build/obj/pal_lld.o
 .debug_frame   0x00001f78      0x104 build/obj/rtc_lld.o
 .debug_frame   0x0000207c      0x14c build/obj/spi_lld.o
 .debug_frame   0x000021c8       0xc4 build/obj/gpt_lld.o
 .debug_frame   0x0000228c       0xdc build/obj/serial_lld.o
 .debug_frame   0x00002368       0x50 build/obj/board.o
 .debug_frame   0x000023b8      0x110 build/obj/shell.o
 .debug_frame   0x000024c8       0x98 build/obj/syscalls.o
 .debug_frame   0x00002560       0xb8 build/obj/chprintf.o
 .debug_frame   0x00002618      0x564 build/obj/ff.o
 .debug_frame   0x00002b7c       0xb0 build/obj/fatfs_diskio.o
 .debug_frame   0x00002c2c      0x1ec build/obj/main.o
 .debug_frame   0x00002e18       0x20 /nfs/nfs5/home/research/hardware/arm2/gcc-arm-embedded/gcc-arm-none-eabi-4_8-2014q2/bin/../lib/gcc/arm-none-eabi/4.8.4/../../../../arm-none-eabi/lib/armv7e-m/libg.a(lib_a-asctime.o)
 .debug_frame   0x00002e38       0x30 /nfs/nfs5/home/research/hardware/arm2/gcc-arm-embedded/gcc-arm-none-eabi-4_8-2014q2/bin/../lib/gcc/arm-none-eabi/4.8.4/../../../../arm-none-eabi/lib/armv7e-m/libg.a(lib_a-asctime_r.o)
 .debug_frame   0x00002e68       0x30 /nfs/nfs5/home/research/hardware/arm2/gcc-arm-embedded/gcc-arm-none-eabi-4_8-2014q2/bin/../lib/gcc/arm-none-eabi/4.8.4/../../../../arm-none-eabi/lib/armv7e-m/libg.a(lib_a-atoi.o)
 .debug_frame   0x00002e98       0x20 /nfs/nfs5/home/research/hardware/arm2/gcc-arm-embedded/gcc-arm-none-eabi-4_8-2014q2/bin/../lib/gcc/arm-none-eabi/4.8.4/../../../../arm-none-eabi/lib/armv7e-m/libg.a(lib_a-lcltime.o)
 .debug_frame   0x00002eb8       0x20 /nfs/nfs5/home/research/hardware/arm2/gcc-arm-embedded/gcc-arm-none-eabi-4_8-2014q2/bin/../lib/gcc/arm-none-eabi/4.8.4/../../../../arm-none-eabi/lib/armv7e-m/libg.a(lib_a-lcltime_r.o)
 .debug_frame   0x00002ed8       0x2c /nfs/nfs5/home/research/hardware/arm2/gcc-arm-embedded/gcc-arm-none-eabi-4_8-2014q2/bin/../lib/gcc/arm-none-eabi/4.8.4/../../../../arm-none-eabi/lib/armv7e-m/libg.a(lib_a-memset.o)
 .debug_frame   0x00002f04       0x60 /nfs/nfs5/home/research/hardware/arm2/gcc-arm-embedded/gcc-arm-none-eabi-4_8-2014q2/bin/../lib/gcc/arm-none-eabi/4.8.4/../../../../arm-none-eabi/lib/armv7e-m/libg.a(lib_a-mktm_r.o)
 .debug_frame   0x00002f64       0x64 /nfs/nfs5/home/research/hardware/arm2/gcc-arm-embedded/gcc-arm-none-eabi-4_8-2014q2/bin/../lib/gcc/arm-none-eabi/4.8.4/../../../../arm-none-eabi/lib/armv7e-m/libg.a(lib_a-siprintf.o)
 .debug_frame   0x00002fc8       0x64 /nfs/nfs5/home/research/hardware/arm2/gcc-arm-embedded/gcc-arm-none-eabi-4_8-2014q2/bin/../lib/gcc/arm-none-eabi/4.8.4/../../../../arm-none-eabi/lib/armv7e-m/libg.a(lib_a-sprintf.o)
 .debug_frame   0x0000302c       0x20 /nfs/nfs5/home/research/hardware/arm2/gcc-arm-embedded/gcc-arm-none-eabi-4_8-2014q2/bin/../lib/gcc/arm-none-eabi/4.8.4/../../../../arm-none-eabi/lib/armv7e-m/libg.a(lib_a-strlen.o)
 .debug_frame   0x0000304c       0x2c /nfs/nfs5/home/research/hardware/arm2/gcc-arm-embedded/gcc-arm-none-eabi-4_8-2014q2/bin/../lib/gcc/arm-none-eabi/4.8.4/../../../../arm-none-eabi/lib/armv7e-m/libg.a(lib_a-strpbrk.o)
 .debug_frame   0x00003078       0x2c /nfs/nfs5/home/research/hardware/arm2/gcc-arm-embedded/gcc-arm-none-eabi-4_8-2014q2/bin/../lib/gcc/arm-none-eabi/4.8.4/../../../../arm-none-eabi/lib/armv7e-m/libg.a(lib_a-strspn.o)
 .debug_frame   0x000030a4       0x84 /nfs/nfs5/home/research/hardware/arm2/gcc-arm-embedded/gcc-arm-none-eabi-4_8-2014q2/bin/../lib/gcc/arm-none-eabi/4.8.4/../../../../arm-none-eabi/lib/armv7e-m/libg.a(lib_a-strstr.o)
 .debug_frame   0x00003128       0x50 /nfs/nfs5/home/research/hardware/arm2/gcc-arm-embedded/gcc-arm-none-eabi-4_8-2014q2/bin/../lib/gcc/arm-none-eabi/4.8.4/../../../../arm-none-eabi/lib/armv7e-m/libg.a(lib_a-strtol.o)
 .debug_frame   0x00003178       0x64 /nfs/nfs5/home/research/hardware/arm2/gcc-arm-embedded/gcc-arm-none-eabi-4_8-2014q2/bin/../lib/gcc/arm-none-eabi/4.8.4/../../../../arm-none-eabi/lib/armv7e-m/libg.a(lib_a-svfiprintf.o)
 .debug_frame   0x000031dc       0x3c /nfs/nfs5/home/research/hardware/arm2/gcc-arm-embedded/gcc-arm-none-eabi-4_8-2014q2/bin/../lib/gcc/arm-none-eabi/4.8.4/../../../../arm-none-eabi/lib/armv7e-m/libg.a(lib_a-svfprintf.o)
 .debug_frame   0x00003218       0x30 /nfs/nfs5/home/research/hardware/arm2/gcc-arm-embedded/gcc-arm-none-eabi-4_8-2014q2/bin/../lib/gcc/arm-none-eabi/4.8.4/../../../../arm-none-eabi/lib/armv7e-m/libg.a(lib_a-tzlock.o)
 .debug_frame   0x00003248       0x64 /nfs/nfs5/home/research/hardware/arm2/gcc-arm-embedded/gcc-arm-none-eabi-4_8-2014q2/bin/../lib/gcc/arm-none-eabi/4.8.4/../../../../arm-none-eabi/lib/armv7e-m/libg.a(lib_a-dtoa.o)
 .debug_frame   0x000032ac       0x50 /nfs/nfs5/home/research/hardware/arm2/gcc-arm-embedded/gcc-arm-none-eabi-4_8-2014q2/bin/../lib/gcc/arm-none-eabi/4.8.4/../../../../arm-none-eabi/lib/armv7e-m/libg.a(lib_a-freer.o)
 .debug_frame   0x000032fc       0x20 /nfs/nfs5/home/research/hardware/arm2/gcc-arm-embedded/gcc-arm-none-eabi-4_8-2014q2/bin/../lib/gcc/arm-none-eabi/4.8.4/../../../../arm-none-eabi/lib/armv7e-m/libg.a(lib_a-gettzinfo.o)
 .debug_frame   0x0000331c       0x98 /nfs/nfs5/home/research/hardware/arm2/gcc-arm-embedded/gcc-arm-none-eabi-4_8-2014q2/bin/../lib/gcc/arm-none-eabi/4.8.4/../../../../arm-none-eabi/lib/armv7e-m/libg.a(lib_a-locale.o)
 .debug_frame   0x000033b4       0x38 /nfs/nfs5/home/research/hardware/arm2/gcc-arm-embedded/gcc-arm-none-eabi-4_8-2014q2/bin/../lib/gcc/arm-none-eabi/4.8.4/../../../../arm-none-eabi/lib/armv7e-m/libg.a(lib_a-mallocr.o)
 .debug_frame   0x000033ec       0x2c /nfs/nfs5/home/research/hardware/arm2/gcc-arm-embedded/gcc-arm-none-eabi-4_8-2014q2/bin/../lib/gcc/arm-none-eabi/4.8.4/../../../../arm-none-eabi/lib/armv7e-m/libg.a(lib_a-memchr-stub.o)
 .debug_frame   0x00003418       0x2c /nfs/nfs5/home/research/hardware/arm2/gcc-arm-embedded/gcc-arm-none-eabi-4_8-2014q2/bin/../lib/gcc/arm-none-eabi/4.8.4/../../../../arm-none-eabi/lib/armv7e-m/libg.a(lib_a-memcmp.o)
 .debug_frame   0x00003444       0x2c /nfs/nfs5/home/research/hardware/arm2/gcc-arm-embedded/gcc-arm-none-eabi-4_8-2014q2/bin/../lib/gcc/arm-none-eabi/4.8.4/../../../../arm-none-eabi/lib/armv7e-m/libg.a(lib_a-memmove.o)
 .debug_frame   0x00003470       0x30 /nfs/nfs5/home/research/hardware/arm2/gcc-arm-embedded/gcc-arm-none-eabi-4_8-2014q2/bin/../lib/gcc/arm-none-eabi/4.8.4/../../../../arm-none-eabi/lib/armv7e-m/libg.a(lib_a-mlock.o)
 .debug_frame   0x000034a0      0x22c /nfs/nfs5/home/research/hardware/arm2/gcc-arm-embedded/gcc-arm-none-eabi-4_8-2014q2/bin/../lib/gcc/arm-none-eabi/4.8.4/../../../../arm-none-eabi/lib/armv7e-m/libg.a(lib_a-mprec.o)
 .debug_frame   0x000036cc       0x38 /nfs/nfs5/home/research/hardware/arm2/gcc-arm-embedded/gcc-arm-none-eabi-4_8-2014q2/bin/../lib/gcc/arm-none-eabi/4.8.4/../../../../arm-none-eabi/lib/armv7e-m/libg.a(lib_a-reallocr.o)
 .debug_frame   0x00003704       0x28 /nfs/nfs5/home/research/hardware/arm2/gcc-arm-embedded/gcc-arm-none-eabi-4_8-2014q2/bin/../lib/gcc/arm-none-eabi/4.8.4/../../../../arm-none-eabi/lib/armv7e-m/libg.a(lib_a-s_fpclassify.o)
 .debug_frame   0x0000372c       0x2c /nfs/nfs5/home/research/hardware/arm2/gcc-arm-embedded/gcc-arm-none-eabi-4_8-2014q2/bin/../lib/gcc/arm-none-eabi/4.8.4/../../../../arm-none-eabi/lib/armv7e-m/libg.a(lib_a-strchr.o)
 .debug_frame   0x00003758       0x28 /nfs/nfs5/home/research/hardware/arm2/gcc-arm-embedded/gcc-arm-none-eabi-4_8-2014q2/bin/../lib/gcc/arm-none-eabi/4.8.4/../../../../arm-none-eabi/lib/armv7e-m/libg.a(lib_a-callocr.o)
 .debug_frame   0x00003780       0x50 /nfs/nfs5/home/research/hardware/arm2/gcc-arm-embedded/gcc-arm-none-eabi-4_8-2014q2/bin/../lib/gcc/arm-none-eabi/4.8.4/armv7e-m/libgcc.a(bpabi.o)
 .debug_frame   0x000037d0       0x34 /nfs/nfs5/home/research/hardware/arm2/gcc-arm-embedded/gcc-arm-none-eabi-4_8-2014q2/bin/../lib/gcc/arm-none-eabi/4.8.4/armv7e-m/libgcc.a(_divdi3.o)
 .debug_frame   0x00003804       0x34 /nfs/nfs5/home/research/hardware/arm2/gcc-arm-embedded/gcc-arm-none-eabi-4_8-2014q2/bin/../lib/gcc/arm-none-eabi/4.8.4/armv7e-m/libgcc.a(_udivdi3.o)

Cross Reference Table

Symbol                                            File
ADCD1                                             build/obj/adc_lld.o
                                                  build/obj/main.o
Avg_Slope                                         build/obj/main.o
BusFault_Handler                                  build/obj/vectors.o
DebugMon_Handler                                  build/obj/vectors.o
EXTD1                                             build/obj/ext_lld.o
                                                  build/obj/main.o
                                                  build/obj/ext_lld_isr.o
GPTD1                                             build/obj/gpt_lld.o
HardFault_Handler                                 build/obj/vectors.o
MMCD1                                             build/obj/main.o
                                                  build/obj/fatfs_diskio.o
MemManage_Handler                                 build/obj/vectors.o
NMI_Handler                                       build/obj/vectors.o
PendSV_Handler                                    build/obj/vectors.o
RTCD1                                             build/obj/rtc_lld.o
                                                  build/obj/main.o
                                                  build/obj/fatfs_diskio.o
Reset_Handler                                     build/obj/crt0_v7m.o
SD1                                               build/obj/serial_lld.o
                                                  build/obj/main.o
SD2                                               build/obj/serial_lld.o
                                                  build/obj/main.o
SDC_FS                                            build/obj/main.o
SPID2                                             build/obj/spi_lld.o
                                                  build/obj/main.o
SVC_Handler                                       build/obj/chcore_v7m.o
                                                  build/obj/vectors.o
SysTick_Handler                                   build/obj/vectors.o
SystemCoreClock                                   build/obj/hal_lld.o
TestThread                                        build/obj/test.o
UsageFault_Handler                                build/obj/vectors.o
V25                                               build/obj/main.o
Vector100                                         build/obj/vectors.o
Vector104                                         build/obj/vectors.o
Vector108                                         build/obj/vectors.o
Vector10C                                         build/obj/vectors.o
Vector110                                         build/obj/vectors.o
Vector114                                         build/obj/vectors.o
Vector118                                         build/obj/vectors.o
Vector11C                                         build/obj/vectors.o
Vector120                                         build/obj/stm32_dma.o
                                                  build/obj/vectors.o
Vector124                                         build/obj/stm32_dma.o
                                                  build/obj/vectors.o
Vector128                                         build/obj/stm32_dma.o
                                                  build/obj/vectors.o
Vector12C                                         build/obj/stm32_dma.o
                                                  build/obj/vectors.o
Vector130                                         build/obj/stm32_dma.o
                                                  build/obj/vectors.o
Vector134                                         build/obj/vectors.o
Vector138                                         build/obj/vectors.o
Vector13C                                         build/obj/vectors.o
Vector140                                         build/obj/ext_lld_isr.o
                                                  build/obj/vectors.o
Vector144                                         build/obj/ext_lld_isr.o
                                                  build/obj/vectors.o
Vector148                                         build/obj/ext_lld_isr.o
                                                  build/obj/vectors.o
Vector14C                                         build/obj/vectors.o
Vector150                                         build/obj/vectors.o
Vector154                                         build/obj/vectors.o
Vector158                                         build/obj/vectors.o
Vector15C                                         build/obj/vectors.o
Vector160                                         build/obj/vectors.o
Vector164                                         build/obj/vectors.o
Vector168                                         build/obj/vectors.o
Vector16C                                         build/obj/vectors.o
Vector170                                         build/obj/vectors.o
Vector174                                         build/obj/vectors.o
Vector178                                         build/obj/vectors.o
Vector17C                                         build/obj/vectors.o
Vector180                                         build/obj/vectors.o
Vector184                                         build/obj/vectors.o
Vector188                                         build/obj/vectors.o
Vector18C                                         build/obj/vectors.o
Vector190                                         build/obj/vectors.o
Vector194                                         build/obj/vectors.o
Vector198                                         build/obj/vectors.o
Vector19C                                         build/obj/vectors.o
Vector1C                                          build/obj/vectors.o
Vector20                                          build/obj/vectors.o
Vector24                                          build/obj/vectors.o
Vector28                                          build/obj/vectors.o
Vector34                                          build/obj/vectors.o
Vector40                                          build/obj/vectors.o
Vector44                                          build/obj/ext_lld_isr.o
                                                  build/obj/vectors.o
Vector48                                          build/obj/ext_lld_isr.o
                                                  build/obj/vectors.o
Vector4C                                          build/obj/ext_lld_isr.o
                                                  build/obj/vectors.o
Vector50                                          build/obj/vectors.o
Vector54                                          build/obj/vectors.o
Vector58                                          build/obj/ext_lld_isr.o
                                                  build/obj/vectors.o
Vector5C                                          build/obj/ext_lld_isr.o
                                                  build/obj/vectors.o
Vector60                                          build/obj/ext_lld_isr.o
                                                  build/obj/vectors.o
Vector64                                          build/obj/ext_lld_isr.o
                                                  build/obj/vectors.o
Vector68                                          build/obj/ext_lld_isr.o
                                                  build/obj/vectors.o
Vector6C                                          build/obj/stm32_dma.o
                                                  build/obj/vectors.o
Vector70                                          build/obj/stm32_dma.o
                                                  build/obj/vectors.o
Vector74                                          build/obj/stm32_dma.o
                                                  build/obj/vectors.o
Vector78                                          build/obj/stm32_dma.o
                                                  build/obj/vectors.o
Vector7C                                          build/obj/stm32_dma.o
                                                  build/obj/vectors.o
Vector80                                          build/obj/stm32_dma.o
                                                  build/obj/vectors.o
Vector84                                          build/obj/stm32_dma.o
                                                  build/obj/vectors.o
Vector88                                          build/obj/adc_lld.o
                                                  build/obj/vectors.o
Vector8C                                          build/obj/vectors.o
Vector90                                          build/obj/vectors.o
Vector94                                          build/obj/vectors.o
Vector98                                          build/obj/vectors.o
Vector9C                                          build/obj/ext_lld_isr.o
                                                  build/obj/vectors.o
VectorA0                                          build/obj/vectors.o
VectorA4                                          build/obj/gpt_lld.o
                                                  build/obj/vectors.o
VectorA8                                          build/obj/vectors.o
VectorAC                                          build/obj/vectors.o
VectorB0                                          build/obj/st_lld.o
                                                  build/obj/vectors.o
VectorB4                                          build/obj/vectors.o
VectorB8                                          build/obj/vectors.o
VectorBC                                          build/obj/vectors.o
VectorC0                                          build/obj/vectors.o
VectorC4                                          build/obj/vectors.o
VectorC8                                          build/obj/vectors.o
VectorCC                                          build/obj/vectors.o
VectorD0                                          build/obj/vectors.o
VectorD4                                          build/obj/serial_lld.o
                                                  build/obj/vectors.o
VectorD8                                          build/obj/serial_lld.o
                                                  build/obj/vectors.o
VectorDC                                          build/obj/vectors.o
VectorE0                                          build/obj/ext_lld_isr.o
                                                  build/obj/vectors.o
VectorE4                                          build/obj/ext_lld_isr.o
                                                  build/obj/vectors.o
VectorE8                                          build/obj/ext_lld_isr.o
                                                  build/obj/vectors.o
VectorEC                                          build/obj/vectors.o
VectorF0                                          build/obj/vectors.o
VectorF4                                          build/obj/vectors.o
VectorF8                                          build/obj/vectors.o
VectorFC                                          build/obj/vectors.o
_Balloc                                           /nfs/nfs5/home/research/hardware/arm2/gcc-arm-embedded/gcc-arm-none-eabi-4_8-2014q2/bin/../lib/gcc/arm-none-eabi/4.8.4/../../../../arm-none-eabi/lib/armv7e-m/libg.a(lib_a-mprec.o)
                                                  /nfs/nfs5/home/research/hardware/arm2/gcc-arm-embedded/gcc-arm-none-eabi-4_8-2014q2/bin/../lib/gcc/arm-none-eabi/4.8.4/../../../../arm-none-eabi/lib/armv7e-m/libg.a(lib_a-dtoa.o)
_Bfree                                            /nfs/nfs5/home/research/hardware/arm2/gcc-arm-embedded/gcc-arm-none-eabi-4_8-2014q2/bin/../lib/gcc/arm-none-eabi/4.8.4/../../../../arm-none-eabi/lib/armv7e-m/libg.a(lib_a-mprec.o)
                                                  /nfs/nfs5/home/research/hardware/arm2/gcc-arm-embedded/gcc-arm-none-eabi-4_8-2014q2/bin/../lib/gcc/arm-none-eabi/4.8.4/../../../../arm-none-eabi/lib/armv7e-m/libg.a(lib_a-dtoa.o)
_PathLocale                                       /nfs/nfs5/home/research/hardware/arm2/gcc-arm-embedded/gcc-arm-none-eabi-4_8-2014q2/bin/../lib/gcc/arm-none-eabi/4.8.4/../../../../arm-none-eabi/lib/armv7e-m/libg.a(lib_a-locale.o)
__adddf3                                          /nfs/nfs5/home/research/hardware/arm2/gcc-arm-embedded/gcc-arm-none-eabi-4_8-2014q2/bin/../lib/gcc/arm-none-eabi/4.8.4/armv7e-m/libgcc.a(_arm_addsubdf3.o)
__aeabi_cdcmpeq                                   /nfs/nfs5/home/research/hardware/arm2/gcc-arm-embedded/gcc-arm-none-eabi-4_8-2014q2/bin/../lib/gcc/arm-none-eabi/4.8.4/armv7e-m/libgcc.a(_arm_cmpdf2.o)
__aeabi_cdcmple                                   /nfs/nfs5/home/research/hardware/arm2/gcc-arm-embedded/gcc-arm-none-eabi-4_8-2014q2/bin/../lib/gcc/arm-none-eabi/4.8.4/armv7e-m/libgcc.a(_arm_cmpdf2.o)
__aeabi_cdrcmple                                  /nfs/nfs5/home/research/hardware/arm2/gcc-arm-embedded/gcc-arm-none-eabi-4_8-2014q2/bin/../lib/gcc/arm-none-eabi/4.8.4/armv7e-m/libgcc.a(_arm_cmpdf2.o)
__aeabi_d2iz                                      /nfs/nfs5/home/research/hardware/arm2/gcc-arm-embedded/gcc-arm-none-eabi-4_8-2014q2/bin/../lib/gcc/arm-none-eabi/4.8.4/armv7e-m/libgcc.a(_arm_fixdfsi.o)
                                                  /nfs/nfs5/home/research/hardware/arm2/gcc-arm-embedded/gcc-arm-none-eabi-4_8-2014q2/bin/../lib/gcc/arm-none-eabi/4.8.4/../../../../arm-none-eabi/lib/armv7e-m/libg.a(lib_a-dtoa.o)
                                                  build/obj/main.o
__aeabi_dadd                                      /nfs/nfs5/home/research/hardware/arm2/gcc-arm-embedded/gcc-arm-none-eabi-4_8-2014q2/bin/../lib/gcc/arm-none-eabi/4.8.4/armv7e-m/libgcc.a(_arm_addsubdf3.o)
                                                  /nfs/nfs5/home/research/hardware/arm2/gcc-arm-embedded/gcc-arm-none-eabi-4_8-2014q2/bin/../lib/gcc/arm-none-eabi/4.8.4/../../../../arm-none-eabi/lib/armv7e-m/libg.a(lib_a-dtoa.o)
                                                  build/obj/main.o
__aeabi_dcmpeq                                    /nfs/nfs5/home/research/hardware/arm2/gcc-arm-embedded/gcc-arm-none-eabi-4_8-2014q2/bin/../lib/gcc/arm-none-eabi/4.8.4/armv7e-m/libgcc.a(_arm_cmpdf2.o)
                                                  /nfs/nfs5/home/research/hardware/arm2/gcc-arm-embedded/gcc-arm-none-eabi-4_8-2014q2/bin/../lib/gcc/arm-none-eabi/4.8.4/../../../../arm-none-eabi/lib/armv7e-m/libg.a(lib_a-dtoa.o)
                                                  /nfs/nfs5/home/research/hardware/arm2/gcc-arm-embedded/gcc-arm-none-eabi-4_8-2014q2/bin/../lib/gcc/arm-none-eabi/4.8.4/../../../../arm-none-eabi/lib/armv7e-m/libg.a(lib_a-svfprintf.o)
__aeabi_dcmpge                                    /nfs/nfs5/home/research/hardware/arm2/gcc-arm-embedded/gcc-arm-none-eabi-4_8-2014q2/bin/../lib/gcc/arm-none-eabi/4.8.4/armv7e-m/libgcc.a(_arm_cmpdf2.o)
                                                  /nfs/nfs5/home/research/hardware/arm2/gcc-arm-embedded/gcc-arm-none-eabi-4_8-2014q2/bin/../lib/gcc/arm-none-eabi/4.8.4/../../../../arm-none-eabi/lib/armv7e-m/libg.a(lib_a-dtoa.o)
__aeabi_dcmpgt                                    /nfs/nfs5/home/research/hardware/arm2/gcc-arm-embedded/gcc-arm-none-eabi-4_8-2014q2/bin/../lib/gcc/arm-none-eabi/4.8.4/armv7e-m/libgcc.a(_arm_cmpdf2.o)
                                                  /nfs/nfs5/home/research/hardware/arm2/gcc-arm-embedded/gcc-arm-none-eabi-4_8-2014q2/bin/../lib/gcc/arm-none-eabi/4.8.4/../../../../arm-none-eabi/lib/armv7e-m/libg.a(lib_a-dtoa.o)
__aeabi_dcmple                                    /nfs/nfs5/home/research/hardware/arm2/gcc-arm-embedded/gcc-arm-none-eabi-4_8-2014q2/bin/../lib/gcc/arm-none-eabi/4.8.4/armv7e-m/libgcc.a(_arm_cmpdf2.o)
__aeabi_dcmplt                                    /nfs/nfs5/home/research/hardware/arm2/gcc-arm-embedded/gcc-arm-none-eabi-4_8-2014q2/bin/../lib/gcc/arm-none-eabi/4.8.4/armv7e-m/libgcc.a(_arm_cmpdf2.o)
                                                  /nfs/nfs5/home/research/hardware/arm2/gcc-arm-embedded/gcc-arm-none-eabi-4_8-2014q2/bin/../lib/gcc/arm-none-eabi/4.8.4/../../../../arm-none-eabi/lib/armv7e-m/libg.a(lib_a-dtoa.o)
                                                  /nfs/nfs5/home/research/hardware/arm2/gcc-arm-embedded/gcc-arm-none-eabi-4_8-2014q2/bin/../lib/gcc/arm-none-eabi/4.8.4/../../../../arm-none-eabi/lib/armv7e-m/libg.a(lib_a-svfprintf.o)
__aeabi_ddiv                                      /nfs/nfs5/home/research/hardware/arm2/gcc-arm-embedded/gcc-arm-none-eabi-4_8-2014q2/bin/../lib/gcc/arm-none-eabi/4.8.4/armv7e-m/libgcc.a(_arm_muldivdf3.o)
                                                  /nfs/nfs5/home/research/hardware/arm2/gcc-arm-embedded/gcc-arm-none-eabi-4_8-2014q2/bin/../lib/gcc/arm-none-eabi/4.8.4/../../../../arm-none-eabi/lib/armv7e-m/libg.a(lib_a-mprec.o)
                                                  /nfs/nfs5/home/research/hardware/arm2/gcc-arm-embedded/gcc-arm-none-eabi-4_8-2014q2/bin/../lib/gcc/arm-none-eabi/4.8.4/../../../../arm-none-eabi/lib/armv7e-m/libg.a(lib_a-dtoa.o)
                                                  build/obj/main.o
__aeabi_dmul                                      /nfs/nfs5/home/research/hardware/arm2/gcc-arm-embedded/gcc-arm-none-eabi-4_8-2014q2/bin/../lib/gcc/arm-none-eabi/4.8.4/armv7e-m/libgcc.a(_arm_muldivdf3.o)
                                                  /nfs/nfs5/home/research/hardware/arm2/gcc-arm-embedded/gcc-arm-none-eabi-4_8-2014q2/bin/../lib/gcc/arm-none-eabi/4.8.4/../../../../arm-none-eabi/lib/armv7e-m/libg.a(lib_a-mprec.o)
                                                  /nfs/nfs5/home/research/hardware/arm2/gcc-arm-embedded/gcc-arm-none-eabi-4_8-2014q2/bin/../lib/gcc/arm-none-eabi/4.8.4/../../../../arm-none-eabi/lib/armv7e-m/libg.a(lib_a-dtoa.o)
                                                  build/obj/main.o
__aeabi_drsub                                     /nfs/nfs5/home/research/hardware/arm2/gcc-arm-embedded/gcc-arm-none-eabi-4_8-2014q2/bin/../lib/gcc/arm-none-eabi/4.8.4/armv7e-m/libgcc.a(_arm_addsubdf3.o)
__aeabi_dsub                                      /nfs/nfs5/home/research/hardware/arm2/gcc-arm-embedded/gcc-arm-none-eabi-4_8-2014q2/bin/../lib/gcc/arm-none-eabi/4.8.4/armv7e-m/libgcc.a(_arm_addsubdf3.o)
                                                  /nfs/nfs5/home/research/hardware/arm2/gcc-arm-embedded/gcc-arm-none-eabi-4_8-2014q2/bin/../lib/gcc/arm-none-eabi/4.8.4/../../../../arm-none-eabi/lib/armv7e-m/libg.a(lib_a-dtoa.o)
                                                  build/obj/main.o
__aeabi_f2d                                       /nfs/nfs5/home/research/hardware/arm2/gcc-arm-embedded/gcc-arm-none-eabi-4_8-2014q2/bin/../lib/gcc/arm-none-eabi/4.8.4/armv7e-m/libgcc.a(_arm_addsubdf3.o)
__aeabi_i2d                                       /nfs/nfs5/home/research/hardware/arm2/gcc-arm-embedded/gcc-arm-none-eabi-4_8-2014q2/bin/../lib/gcc/arm-none-eabi/4.8.4/armv7e-m/libgcc.a(_arm_addsubdf3.o)
                                                  /nfs/nfs5/home/research/hardware/arm2/gcc-arm-embedded/gcc-arm-none-eabi-4_8-2014q2/bin/../lib/gcc/arm-none-eabi/4.8.4/../../../../arm-none-eabi/lib/armv7e-m/libg.a(lib_a-dtoa.o)
                                                  build/obj/main.o
__aeabi_idiv0                                     /nfs/nfs5/home/research/hardware/arm2/gcc-arm-embedded/gcc-arm-none-eabi-4_8-2014q2/bin/../lib/gcc/arm-none-eabi/4.8.4/armv7e-m/libgcc.a(_dvmd_tls.o)
__aeabi_l2d                                       /nfs/nfs5/home/research/hardware/arm2/gcc-arm-embedded/gcc-arm-none-eabi-4_8-2014q2/bin/../lib/gcc/arm-none-eabi/4.8.4/armv7e-m/libgcc.a(_arm_addsubdf3.o)
__aeabi_ldiv0                                     /nfs/nfs5/home/research/hardware/arm2/gcc-arm-embedded/gcc-arm-none-eabi-4_8-2014q2/bin/../lib/gcc/arm-none-eabi/4.8.4/armv7e-m/libgcc.a(_dvmd_tls.o)
                                                  /nfs/nfs5/home/research/hardware/arm2/gcc-arm-embedded/gcc-arm-none-eabi-4_8-2014q2/bin/../lib/gcc/arm-none-eabi/4.8.4/armv7e-m/libgcc.a(_aeabi_uldivmod.o)
__aeabi_ui2d                                      /nfs/nfs5/home/research/hardware/arm2/gcc-arm-embedded/gcc-arm-none-eabi-4_8-2014q2/bin/../lib/gcc/arm-none-eabi/4.8.4/armv7e-m/libgcc.a(_arm_addsubdf3.o)
                                                  /nfs/nfs5/home/research/hardware/arm2/gcc-arm-embedded/gcc-arm-none-eabi-4_8-2014q2/bin/../lib/gcc/arm-none-eabi/4.8.4/../../../../arm-none-eabi/lib/armv7e-m/libg.a(lib_a-dtoa.o)
__aeabi_ul2d                                      /nfs/nfs5/home/research/hardware/arm2/gcc-arm-embedded/gcc-arm-none-eabi-4_8-2014q2/bin/../lib/gcc/arm-none-eabi/4.8.4/armv7e-m/libgcc.a(_arm_addsubdf3.o)
__aeabi_uldivmod                                  /nfs/nfs5/home/research/hardware/arm2/gcc-arm-embedded/gcc-arm-none-eabi-4_8-2014q2/bin/../lib/gcc/arm-none-eabi/4.8.4/armv7e-m/libgcc.a(_aeabi_uldivmod.o)
                                                  /nfs/nfs5/home/research/hardware/arm2/gcc-arm-embedded/gcc-arm-none-eabi-4_8-2014q2/bin/../lib/gcc/arm-none-eabi/4.8.4/../../../../arm-none-eabi/lib/armv7e-m/libg.a(lib_a-svfprintf.o)
                                                  /nfs/nfs5/home/research/hardware/arm2/gcc-arm-embedded/gcc-arm-none-eabi-4_8-2014q2/bin/../lib/gcc/arm-none-eabi/4.8.4/../../../../arm-none-eabi/lib/armv7e-m/libg.a(lib_a-svfiprintf.o)
__any_on                                          /nfs/nfs5/home/research/hardware/arm2/gcc-arm-embedded/gcc-arm-none-eabi-4_8-2014q2/bin/../lib/gcc/arm-none-eabi/4.8.4/../../../../arm-none-eabi/lib/armv7e-m/libg.a(lib_a-mprec.o)
__b2d                                             /nfs/nfs5/home/research/hardware/arm2/gcc-arm-embedded/gcc-arm-none-eabi-4_8-2014q2/bin/../lib/gcc/arm-none-eabi/4.8.4/../../../../arm-none-eabi/lib/armv7e-m/libg.a(lib_a-mprec.o)
__cmpdf2                                          /nfs/nfs5/home/research/hardware/arm2/gcc-arm-embedded/gcc-arm-none-eabi-4_8-2014q2/bin/../lib/gcc/arm-none-eabi/4.8.4/armv7e-m/libgcc.a(_arm_cmpdf2.o)
__copybits                                        /nfs/nfs5/home/research/hardware/arm2/gcc-arm-embedded/gcc-arm-none-eabi-4_8-2014q2/bin/../lib/gcc/arm-none-eabi/4.8.4/../../../../arm-none-eabi/lib/armv7e-m/libg.a(lib_a-mprec.o)
__core_init                                       build/obj/crt1.o
                                                  build/obj/crt0_v7m.o
__ctype_ptr__                                     /nfs/nfs5/home/research/hardware/arm2/gcc-arm-embedded/gcc-arm-none-eabi-4_8-2014q2/bin/../lib/gcc/arm-none-eabi/4.8.4/../../../../arm-none-eabi/lib/armv7e-m/libg.a(lib_a-ctype_.o)
                                                  /nfs/nfs5/home/research/hardware/arm2/gcc-arm-embedded/gcc-arm-none-eabi-4_8-2014q2/bin/../lib/gcc/arm-none-eabi/4.8.4/../../../../arm-none-eabi/lib/armv7e-m/libg.a(lib_a-strtol.o)
__d2b                                             /nfs/nfs5/home/research/hardware/arm2/gcc-arm-embedded/gcc-arm-none-eabi-4_8-2014q2/bin/../lib/gcc/arm-none-eabi/4.8.4/../../../../arm-none-eabi/lib/armv7e-m/libg.a(lib_a-mprec.o)
                                                  /nfs/nfs5/home/research/hardware/arm2/gcc-arm-embedded/gcc-arm-none-eabi-4_8-2014q2/bin/../lib/gcc/arm-none-eabi/4.8.4/../../../../arm-none-eabi/lib/armv7e-m/libg.a(lib_a-dtoa.o)
__default_exit                                    build/obj/crt1.o
                                                  build/obj/crt0_v7m.o
__divdf3                                          /nfs/nfs5/home/research/hardware/arm2/gcc-arm-embedded/gcc-arm-none-eabi-4_8-2014q2/bin/../lib/gcc/arm-none-eabi/4.8.4/armv7e-m/libgcc.a(_arm_muldivdf3.o)
__divdi3                                          /nfs/nfs5/home/research/hardware/arm2/gcc-arm-embedded/gcc-arm-none-eabi-4_8-2014q2/bin/../lib/gcc/arm-none-eabi/4.8.4/armv7e-m/libgcc.a(_divdi3.o)
                                                  /nfs/nfs5/home/research/hardware/arm2/gcc-arm-embedded/gcc-arm-none-eabi-4_8-2014q2/bin/../lib/gcc/arm-none-eabi/4.8.4/armv7e-m/libgcc.a(bpabi.o)
__early_init                                      build/obj/board.o
                                                  build/obj/crt1.o
                                                  build/obj/crt0_v7m.o
__eqdf2                                           /nfs/nfs5/home/research/hardware/arm2/gcc-arm-embedded/gcc-arm-none-eabi-4_8-2014q2/bin/../lib/gcc/arm-none-eabi/4.8.4/armv7e-m/libgcc.a(_arm_cmpdf2.o)
__extendsfdf2                                     /nfs/nfs5/home/research/hardware/arm2/gcc-arm-embedded/gcc-arm-none-eabi-4_8-2014q2/bin/../lib/gcc/arm-none-eabi/4.8.4/armv7e-m/libgcc.a(_arm_addsubdf3.o)
__fini_array_end                                  build/obj/crt0_v7m.o
__fini_array_start                                build/obj/crt0_v7m.o
__fixdfsi                                         /nfs/nfs5/home/research/hardware/arm2/gcc-arm-embedded/gcc-arm-none-eabi-4_8-2014q2/bin/../lib/gcc/arm-none-eabi/4.8.4/armv7e-m/libgcc.a(_arm_fixdfsi.o)
__floatdidf                                       /nfs/nfs5/home/research/hardware/arm2/gcc-arm-embedded/gcc-arm-none-eabi-4_8-2014q2/bin/../lib/gcc/arm-none-eabi/4.8.4/armv7e-m/libgcc.a(_arm_addsubdf3.o)
__floatsidf                                       /nfs/nfs5/home/research/hardware/arm2/gcc-arm-embedded/gcc-arm-none-eabi-4_8-2014q2/bin/../lib/gcc/arm-none-eabi/4.8.4/armv7e-m/libgcc.a(_arm_addsubdf3.o)
__floatundidf                                     /nfs/nfs5/home/research/hardware/arm2/gcc-arm-embedded/gcc-arm-none-eabi-4_8-2014q2/bin/../lib/gcc/arm-none-eabi/4.8.4/armv7e-m/libgcc.a(_arm_addsubdf3.o)
__floatunsidf                                     /nfs/nfs5/home/research/hardware/arm2/gcc-arm-embedded/gcc-arm-none-eabi-4_8-2014q2/bin/../lib/gcc/arm-none-eabi/4.8.4/armv7e-m/libgcc.a(_arm_addsubdf3.o)
__fpclassifyd                                     /nfs/nfs5/home/research/hardware/arm2/gcc-arm-embedded/gcc-arm-none-eabi-4_8-2014q2/bin/../lib/gcc/arm-none-eabi/4.8.4/../../../../arm-none-eabi/lib/armv7e-m/libg.a(lib_a-s_fpclassify.o)
                                                  /nfs/nfs5/home/research/hardware/arm2/gcc-arm-embedded/gcc-arm-none-eabi-4_8-2014q2/bin/../lib/gcc/arm-none-eabi/4.8.4/../../../../arm-none-eabi/lib/armv7e-m/libg.a(lib_a-svfprintf.o)
__gedf2                                           /nfs/nfs5/home/research/hardware/arm2/gcc-arm-embedded/gcc-arm-none-eabi-4_8-2014q2/bin/../lib/gcc/arm-none-eabi/4.8.4/armv7e-m/libgcc.a(_arm_cmpdf2.o)
__gettzinfo                                       /nfs/nfs5/home/research/hardware/arm2/gcc-arm-embedded/gcc-arm-none-eabi-4_8-2014q2/bin/../lib/gcc/arm-none-eabi/4.8.4/../../../../arm-none-eabi/lib/armv7e-m/libg.a(lib_a-gettzinfo.o)
                                                  /nfs/nfs5/home/research/hardware/arm2/gcc-arm-embedded/gcc-arm-none-eabi-4_8-2014q2/bin/../lib/gcc/arm-none-eabi/4.8.4/../../../../arm-none-eabi/lib/armv7e-m/libg.a(lib_a-mktm_r.o)
__gnu_ldivmod_helper                              /nfs/nfs5/home/research/hardware/arm2/gcc-arm-embedded/gcc-arm-none-eabi-4_8-2014q2/bin/../lib/gcc/arm-none-eabi/4.8.4/armv7e-m/libgcc.a(bpabi.o)
__gnu_uldivmod_helper                             /nfs/nfs5/home/research/hardware/arm2/gcc-arm-embedded/gcc-arm-none-eabi-4_8-2014q2/bin/../lib/gcc/arm-none-eabi/4.8.4/armv7e-m/libgcc.a(bpabi.o)
                                                  /nfs/nfs5/home/research/hardware/arm2/gcc-arm-embedded/gcc-arm-none-eabi-4_8-2014q2/bin/../lib/gcc/arm-none-eabi/4.8.4/armv7e-m/libgcc.a(_aeabi_uldivmod.o)
__gtdf2                                           /nfs/nfs5/home/research/hardware/arm2/gcc-arm-embedded/gcc-arm-none-eabi-4_8-2014q2/bin/../lib/gcc/arm-none-eabi/4.8.4/armv7e-m/libgcc.a(_arm_cmpdf2.o)
__heap_base__                                     build/obj/chmemcore.o
__heap_end__                                      build/obj/chmemcore.o
__hi0bits                                         /nfs/nfs5/home/research/hardware/arm2/gcc-arm-embedded/gcc-arm-none-eabi-4_8-2014q2/bin/../lib/gcc/arm-none-eabi/4.8.4/../../../../arm-none-eabi/lib/armv7e-m/libg.a(lib_a-mprec.o)
                                                  /nfs/nfs5/home/research/hardware/arm2/gcc-arm-embedded/gcc-arm-none-eabi-4_8-2014q2/bin/../lib/gcc/arm-none-eabi/4.8.4/../../../../arm-none-eabi/lib/armv7e-m/libg.a(lib_a-dtoa.o)
__i2b                                             /nfs/nfs5/home/research/hardware/arm2/gcc-arm-embedded/gcc-arm-none-eabi-4_8-2014q2/bin/../lib/gcc/arm-none-eabi/4.8.4/../../../../arm-none-eabi/lib/armv7e-m/libg.a(lib_a-mprec.o)
                                                  /nfs/nfs5/home/research/hardware/arm2/gcc-arm-embedded/gcc-arm-none-eabi-4_8-2014q2/bin/../lib/gcc/arm-none-eabi/4.8.4/../../../../arm-none-eabi/lib/armv7e-m/libg.a(lib_a-dtoa.o)
__init_array_end                                  build/obj/crt0_v7m.o
__init_array_start                                build/obj/crt0_v7m.o
__init_ram_areas                                  build/obj/crt1.o
                                                  build/obj/crt0_v7m.o
__late_init                                       build/obj/crt1.o
                                                  build/obj/crt0_v7m.o
__ledf2                                           /nfs/nfs5/home/research/hardware/arm2/gcc-arm-embedded/gcc-arm-none-eabi-4_8-2014q2/bin/../lib/gcc/arm-none-eabi/4.8.4/armv7e-m/libgcc.a(_arm_cmpdf2.o)
__lo0bits                                         /nfs/nfs5/home/research/hardware/arm2/gcc-arm-embedded/gcc-arm-none-eabi-4_8-2014q2/bin/../lib/gcc/arm-none-eabi/4.8.4/../../../../arm-none-eabi/lib/armv7e-m/libg.a(lib_a-mprec.o)
__locale_charset                                  /nfs/nfs5/home/research/hardware/arm2/gcc-arm-embedded/gcc-arm-none-eabi-4_8-2014q2/bin/../lib/gcc/arm-none-eabi/4.8.4/../../../../arm-none-eabi/lib/armv7e-m/libg.a(lib_a-locale.o)
__locale_cjk_lang                                 /nfs/nfs5/home/research/hardware/arm2/gcc-arm-embedded/gcc-arm-none-eabi-4_8-2014q2/bin/../lib/gcc/arm-none-eabi/4.8.4/../../../../arm-none-eabi/lib/armv7e-m/libg.a(lib_a-locale.o)
__locale_mb_cur_max                               /nfs/nfs5/home/research/hardware/arm2/gcc-arm-embedded/gcc-arm-none-eabi-4_8-2014q2/bin/../lib/gcc/arm-none-eabi/4.8.4/../../../../arm-none-eabi/lib/armv7e-m/libg.a(lib_a-locale.o)
__locale_msgcharset                               /nfs/nfs5/home/research/hardware/arm2/gcc-arm-embedded/gcc-arm-none-eabi-4_8-2014q2/bin/../lib/gcc/arm-none-eabi/4.8.4/../../../../arm-none-eabi/lib/armv7e-m/libg.a(lib_a-locale.o)
__lshift                                          /nfs/nfs5/home/research/hardware/arm2/gcc-arm-embedded/gcc-arm-none-eabi-4_8-2014q2/bin/../lib/gcc/arm-none-eabi/4.8.4/../../../../arm-none-eabi/lib/armv7e-m/libg.a(lib_a-mprec.o)
                                                  /nfs/nfs5/home/research/hardware/arm2/gcc-arm-embedded/gcc-arm-none-eabi-4_8-2014q2/bin/../lib/gcc/arm-none-eabi/4.8.4/../../../../arm-none-eabi/lib/armv7e-m/libg.a(lib_a-dtoa.o)
__ltdf2                                           /nfs/nfs5/home/research/hardware/arm2/gcc-arm-embedded/gcc-arm-none-eabi-4_8-2014q2/bin/../lib/gcc/arm-none-eabi/4.8.4/armv7e-m/libgcc.a(_arm_cmpdf2.o)
__main_stack_base__                               build/obj/crt0_v7m.o
__main_stack_end__                                build/obj/vectors.o
                                                  build/obj/crt0_v7m.o
__malloc_av_                                      /nfs/nfs5/home/research/hardware/arm2/gcc-arm-embedded/gcc-arm-none-eabi-4_8-2014q2/bin/../lib/gcc/arm-none-eabi/4.8.4/../../../../arm-none-eabi/lib/armv7e-m/libg.a(lib_a-mallocr.o)
                                                  /nfs/nfs5/home/research/hardware/arm2/gcc-arm-embedded/gcc-arm-none-eabi-4_8-2014q2/bin/../lib/gcc/arm-none-eabi/4.8.4/../../../../arm-none-eabi/lib/armv7e-m/libg.a(lib_a-reallocr.o)
                                                  /nfs/nfs5/home/research/hardware/arm2/gcc-arm-embedded/gcc-arm-none-eabi-4_8-2014q2/bin/../lib/gcc/arm-none-eabi/4.8.4/../../../../arm-none-eabi/lib/armv7e-m/libg.a(lib_a-freer.o)
__malloc_current_mallinfo                         /nfs/nfs5/home/research/hardware/arm2/gcc-arm-embedded/gcc-arm-none-eabi-4_8-2014q2/bin/../lib/gcc/arm-none-eabi/4.8.4/../../../../arm-none-eabi/lib/armv7e-m/libg.a(lib_a-mallocr.o)
                                                  /nfs/nfs5/home/research/hardware/arm2/gcc-arm-embedded/gcc-arm-none-eabi-4_8-2014q2/bin/../lib/gcc/arm-none-eabi/4.8.4/../../../../arm-none-eabi/lib/armv7e-m/libg.a(lib_a-freer.o)
__malloc_lock                                     /nfs/nfs5/home/research/hardware/arm2/gcc-arm-embedded/gcc-arm-none-eabi-4_8-2014q2/bin/../lib/gcc/arm-none-eabi/4.8.4/../../../../arm-none-eabi/lib/armv7e-m/libg.a(lib_a-mlock.o)
                                                  /nfs/nfs5/home/research/hardware/arm2/gcc-arm-embedded/gcc-arm-none-eabi-4_8-2014q2/bin/../lib/gcc/arm-none-eabi/4.8.4/../../../../arm-none-eabi/lib/armv7e-m/libg.a(lib_a-reallocr.o)
                                                  /nfs/nfs5/home/research/hardware/arm2/gcc-arm-embedded/gcc-arm-none-eabi-4_8-2014q2/bin/../lib/gcc/arm-none-eabi/4.8.4/../../../../arm-none-eabi/lib/armv7e-m/libg.a(lib_a-mallocr.o)
                                                  /nfs/nfs5/home/research/hardware/arm2/gcc-arm-embedded/gcc-arm-none-eabi-4_8-2014q2/bin/../lib/gcc/arm-none-eabi/4.8.4/../../../../arm-none-eabi/lib/armv7e-m/libg.a(lib_a-freer.o)
__malloc_max_sbrked_mem                           /nfs/nfs5/home/research/hardware/arm2/gcc-arm-embedded/gcc-arm-none-eabi-4_8-2014q2/bin/../lib/gcc/arm-none-eabi/4.8.4/../../../../arm-none-eabi/lib/armv7e-m/libg.a(lib_a-mallocr.o)
__malloc_max_total_mem                            /nfs/nfs5/home/research/hardware/arm2/gcc-arm-embedded/gcc-arm-none-eabi-4_8-2014q2/bin/../lib/gcc/arm-none-eabi/4.8.4/../../../../arm-none-eabi/lib/armv7e-m/libg.a(lib_a-mallocr.o)
__malloc_sbrk_base                                /nfs/nfs5/home/research/hardware/arm2/gcc-arm-embedded/gcc-arm-none-eabi-4_8-2014q2/bin/../lib/gcc/arm-none-eabi/4.8.4/../../../../arm-none-eabi/lib/armv7e-m/libg.a(lib_a-mallocr.o)
                                                  /nfs/nfs5/home/research/hardware/arm2/gcc-arm-embedded/gcc-arm-none-eabi-4_8-2014q2/bin/../lib/gcc/arm-none-eabi/4.8.4/../../../../arm-none-eabi/lib/armv7e-m/libg.a(lib_a-freer.o)
__malloc_top_pad                                  /nfs/nfs5/home/research/hardware/arm2/gcc-arm-embedded/gcc-arm-none-eabi-4_8-2014q2/bin/../lib/gcc/arm-none-eabi/4.8.4/../../../../arm-none-eabi/lib/armv7e-m/libg.a(lib_a-mallocr.o)
                                                  /nfs/nfs5/home/research/hardware/arm2/gcc-arm-embedded/gcc-arm-none-eabi-4_8-2014q2/bin/../lib/gcc/arm-none-eabi/4.8.4/../../../../arm-none-eabi/lib/armv7e-m/libg.a(lib_a-freer.o)
__malloc_trim_threshold                           /nfs/nfs5/home/research/hardware/arm2/gcc-arm-embedded/gcc-arm-none-eabi-4_8-2014q2/bin/../lib/gcc/arm-none-eabi/4.8.4/../../../../arm-none-eabi/lib/armv7e-m/libg.a(lib_a-mallocr.o)
                                                  /nfs/nfs5/home/research/hardware/arm2/gcc-arm-embedded/gcc-arm-none-eabi-4_8-2014q2/bin/../lib/gcc/arm-none-eabi/4.8.4/../../../../arm-none-eabi/lib/armv7e-m/libg.a(lib_a-freer.o)
__malloc_unlock                                   /nfs/nfs5/home/research/hardware/arm2/gcc-arm-embedded/gcc-arm-none-eabi-4_8-2014q2/bin/../lib/gcc/arm-none-eabi/4.8.4/../../../../arm-none-eabi/lib/armv7e-m/libg.a(lib_a-mlock.o)
                                                  /nfs/nfs5/home/research/hardware/arm2/gcc-arm-embedded/gcc-arm-none-eabi-4_8-2014q2/bin/../lib/gcc/arm-none-eabi/4.8.4/../../../../arm-none-eabi/lib/armv7e-m/libg.a(lib_a-reallocr.o)
                                                  /nfs/nfs5/home/research/hardware/arm2/gcc-arm-embedded/gcc-arm-none-eabi-4_8-2014q2/bin/../lib/gcc/arm-none-eabi/4.8.4/../../../../arm-none-eabi/lib/armv7e-m/libg.a(lib_a-mallocr.o)
                                                  /nfs/nfs5/home/research/hardware/arm2/gcc-arm-embedded/gcc-arm-none-eabi-4_8-2014q2/bin/../lib/gcc/arm-none-eabi/4.8.4/../../../../arm-none-eabi/lib/armv7e-m/libg.a(lib_a-freer.o)
__mb_cur_max                                      /nfs/nfs5/home/research/hardware/arm2/gcc-arm-embedded/gcc-arm-none-eabi-4_8-2014q2/bin/../lib/gcc/arm-none-eabi/4.8.4/../../../../arm-none-eabi/lib/armv7e-m/libg.a(lib_a-locale.o)
__mcmp                                            /nfs/nfs5/home/research/hardware/arm2/gcc-arm-embedded/gcc-arm-none-eabi-4_8-2014q2/bin/../lib/gcc/arm-none-eabi/4.8.4/../../../../arm-none-eabi/lib/armv7e-m/libg.a(lib_a-mprec.o)
                                                  /nfs/nfs5/home/research/hardware/arm2/gcc-arm-embedded/gcc-arm-none-eabi-4_8-2014q2/bin/../lib/gcc/arm-none-eabi/4.8.4/../../../../arm-none-eabi/lib/armv7e-m/libg.a(lib_a-dtoa.o)
__mdiff                                           /nfs/nfs5/home/research/hardware/arm2/gcc-arm-embedded/gcc-arm-none-eabi-4_8-2014q2/bin/../lib/gcc/arm-none-eabi/4.8.4/../../../../arm-none-eabi/lib/armv7e-m/libg.a(lib_a-mprec.o)
                                                  /nfs/nfs5/home/research/hardware/arm2/gcc-arm-embedded/gcc-arm-none-eabi-4_8-2014q2/bin/../lib/gcc/arm-none-eabi/4.8.4/../../../../arm-none-eabi/lib/armv7e-m/libg.a(lib_a-dtoa.o)
__mlocale_changed                                 /nfs/nfs5/home/research/hardware/arm2/gcc-arm-embedded/gcc-arm-none-eabi-4_8-2014q2/bin/../lib/gcc/arm-none-eabi/4.8.4/../../../../arm-none-eabi/lib/armv7e-m/libg.a(lib_a-locale.o)
__mprec_bigtens                                   /nfs/nfs5/home/research/hardware/arm2/gcc-arm-embedded/gcc-arm-none-eabi-4_8-2014q2/bin/../lib/gcc/arm-none-eabi/4.8.4/../../../../arm-none-eabi/lib/armv7e-m/libg.a(lib_a-mprec.o)
                                                  /nfs/nfs5/home/research/hardware/arm2/gcc-arm-embedded/gcc-arm-none-eabi-4_8-2014q2/bin/../lib/gcc/arm-none-eabi/4.8.4/../../../../arm-none-eabi/lib/armv7e-m/libg.a(lib_a-dtoa.o)
__mprec_tens                                      /nfs/nfs5/home/research/hardware/arm2/gcc-arm-embedded/gcc-arm-none-eabi-4_8-2014q2/bin/../lib/gcc/arm-none-eabi/4.8.4/../../../../arm-none-eabi/lib/armv7e-m/libg.a(lib_a-mprec.o)
                                                  /nfs/nfs5/home/research/hardware/arm2/gcc-arm-embedded/gcc-arm-none-eabi-4_8-2014q2/bin/../lib/gcc/arm-none-eabi/4.8.4/../../../../arm-none-eabi/lib/armv7e-m/libg.a(lib_a-dtoa.o)
__mprec_tinytens                                  /nfs/nfs5/home/research/hardware/arm2/gcc-arm-embedded/gcc-arm-none-eabi-4_8-2014q2/bin/../lib/gcc/arm-none-eabi/4.8.4/../../../../arm-none-eabi/lib/armv7e-m/libg.a(lib_a-mprec.o)
__muldf3                                          /nfs/nfs5/home/research/hardware/arm2/gcc-arm-embedded/gcc-arm-none-eabi-4_8-2014q2/bin/../lib/gcc/arm-none-eabi/4.8.4/armv7e-m/libgcc.a(_arm_muldivdf3.o)
__multadd                                         /nfs/nfs5/home/research/hardware/arm2/gcc-arm-embedded/gcc-arm-none-eabi-4_8-2014q2/bin/../lib/gcc/arm-none-eabi/4.8.4/../../../../arm-none-eabi/lib/armv7e-m/libg.a(lib_a-mprec.o)
                                                  /nfs/nfs5/home/research/hardware/arm2/gcc-arm-embedded/gcc-arm-none-eabi-4_8-2014q2/bin/../lib/gcc/arm-none-eabi/4.8.4/../../../../arm-none-eabi/lib/armv7e-m/libg.a(lib_a-dtoa.o)
__multiply                                        /nfs/nfs5/home/research/hardware/arm2/gcc-arm-embedded/gcc-arm-none-eabi-4_8-2014q2/bin/../lib/gcc/arm-none-eabi/4.8.4/../../../../arm-none-eabi/lib/armv7e-m/libg.a(lib_a-mprec.o)
                                                  /nfs/nfs5/home/research/hardware/arm2/gcc-arm-embedded/gcc-arm-none-eabi-4_8-2014q2/bin/../lib/gcc/arm-none-eabi/4.8.4/../../../../arm-none-eabi/lib/armv7e-m/libg.a(lib_a-dtoa.o)
__nedf2                                           /nfs/nfs5/home/research/hardware/arm2/gcc-arm-embedded/gcc-arm-none-eabi-4_8-2014q2/bin/../lib/gcc/arm-none-eabi/4.8.4/armv7e-m/libgcc.a(_arm_cmpdf2.o)
__nlocale_changed                                 /nfs/nfs5/home/research/hardware/arm2/gcc-arm-embedded/gcc-arm-none-eabi-4_8-2014q2/bin/../lib/gcc/arm-none-eabi/4.8.4/../../../../arm-none-eabi/lib/armv7e-m/libg.a(lib_a-locale.o)
__pow5mult                                        /nfs/nfs5/home/research/hardware/arm2/gcc-arm-embedded/gcc-arm-none-eabi-4_8-2014q2/bin/../lib/gcc/arm-none-eabi/4.8.4/../../../../arm-none-eabi/lib/armv7e-m/libg.a(lib_a-mprec.o)
                                                  /nfs/nfs5/home/research/hardware/arm2/gcc-arm-embedded/gcc-arm-none-eabi-4_8-2014q2/bin/../lib/gcc/arm-none-eabi/4.8.4/../../../../arm-none-eabi/lib/armv7e-m/libg.a(lib_a-dtoa.o)
__process_stack_base__                            build/obj/crt0_v7m.o
__process_stack_end__                             build/obj/crt0_v7m.o
__ram0_clear__                                    build/obj/crt1.o
__ram0_init__                                     build/obj/crt1.o
__ram0_init_text__                                build/obj/crt1.o
__ram0_noinit__                                   build/obj/crt1.o
__ram1_clear__                                    build/obj/crt1.o
__ram1_init__                                     build/obj/crt1.o
__ram1_init_text__                                build/obj/crt1.o
__ram1_noinit__                                   build/obj/crt1.o
__ram2_clear__                                    build/obj/crt1.o
__ram2_init__                                     build/obj/crt1.o
__ram2_init_text__                                build/obj/crt1.o
__ram2_noinit__                                   build/obj/crt1.o
__ram3_clear__                                    build/obj/crt1.o
__ram3_init__                                     build/obj/crt1.o
__ram3_init_text__                                build/obj/crt1.o
__ram3_noinit__                                   build/obj/crt1.o
__ram4_clear__                                    build/obj/crt1.o
__ram4_init__                                     build/obj/crt1.o
__ram4_init_text__                                build/obj/crt1.o
__ram4_noinit__                                   build/obj/crt1.o
__ram5_clear__                                    build/obj/crt1.o
__ram5_init__                                     build/obj/crt1.o
__ram5_init_text__                                build/obj/crt1.o
__ram5_noinit__                                   build/obj/crt1.o
__ram6_clear__                                    build/obj/crt1.o
__ram6_init__                                     build/obj/crt1.o
__ram6_init_text__                                build/obj/crt1.o
__ram6_noinit__                                   build/obj/crt1.o
__ram7_clear__                                    build/obj/crt1.o
__ram7_init__                                     build/obj/crt1.o
__ram7_init_text__                                build/obj/crt1.o
__ram7_noinit__                                   build/obj/crt1.o
__ratio                                           /nfs/nfs5/home/research/hardware/arm2/gcc-arm-embedded/gcc-arm-none-eabi-4_8-2014q2/bin/../lib/gcc/arm-none-eabi/4.8.4/../../../../arm-none-eabi/lib/armv7e-m/libg.a(lib_a-mprec.o)
__s2b                                             /nfs/nfs5/home/research/hardware/arm2/gcc-arm-embedded/gcc-arm-none-eabi-4_8-2014q2/bin/../lib/gcc/arm-none-eabi/4.8.4/../../../../arm-none-eabi/lib/armv7e-m/libg.a(lib_a-mprec.o)
__ssprint_r                                       /nfs/nfs5/home/research/hardware/arm2/gcc-arm-embedded/gcc-arm-none-eabi-4_8-2014q2/bin/../lib/gcc/arm-none-eabi/4.8.4/../../../../arm-none-eabi/lib/armv7e-m/libg.a(lib_a-svfiprintf.o)
                                                  /nfs/nfs5/home/research/hardware/arm2/gcc-arm-embedded/gcc-arm-none-eabi-4_8-2014q2/bin/../lib/gcc/arm-none-eabi/4.8.4/../../../../arm-none-eabi/lib/armv7e-m/libg.a(lib_a-svfprintf.o)
__subdf3                                          /nfs/nfs5/home/research/hardware/arm2/gcc-arm-embedded/gcc-arm-none-eabi-4_8-2014q2/bin/../lib/gcc/arm-none-eabi/4.8.4/armv7e-m/libgcc.a(_arm_addsubdf3.o)
__tz_lock                                         /nfs/nfs5/home/research/hardware/arm2/gcc-arm-embedded/gcc-arm-none-eabi-4_8-2014q2/bin/../lib/gcc/arm-none-eabi/4.8.4/../../../../arm-none-eabi/lib/armv7e-m/libg.a(lib_a-tzlock.o)
                                                  /nfs/nfs5/home/research/hardware/arm2/gcc-arm-embedded/gcc-arm-none-eabi-4_8-2014q2/bin/../lib/gcc/arm-none-eabi/4.8.4/../../../../arm-none-eabi/lib/armv7e-m/libg.a(lib_a-mktm_r.o)
__tz_unlock                                       /nfs/nfs5/home/research/hardware/arm2/gcc-arm-embedded/gcc-arm-none-eabi-4_8-2014q2/bin/../lib/gcc/arm-none-eabi/4.8.4/../../../../arm-none-eabi/lib/armv7e-m/libg.a(lib_a-tzlock.o)
                                                  /nfs/nfs5/home/research/hardware/arm2/gcc-arm-embedded/gcc-arm-none-eabi-4_8-2014q2/bin/../lib/gcc/arm-none-eabi/4.8.4/../../../../arm-none-eabi/lib/armv7e-m/libg.a(lib_a-mktm_r.o)
__tzcalc_limits                                   /nfs/nfs5/home/research/hardware/arm2/gcc-arm-embedded/gcc-arm-none-eabi-4_8-2014q2/bin/../lib/gcc/arm-none-eabi/4.8.4/../../../../arm-none-eabi/lib/armv7e-m/libg.a(lib_a-mktm_r.o)
__udivdi3                                         /nfs/nfs5/home/research/hardware/arm2/gcc-arm-embedded/gcc-arm-none-eabi-4_8-2014q2/bin/../lib/gcc/arm-none-eabi/4.8.4/armv7e-m/libgcc.a(_udivdi3.o)
                                                  /nfs/nfs5/home/research/hardware/arm2/gcc-arm-embedded/gcc-arm-none-eabi-4_8-2014q2/bin/../lib/gcc/arm-none-eabi/4.8.4/armv7e-m/libgcc.a(bpabi.o)
__ulp                                             /nfs/nfs5/home/research/hardware/arm2/gcc-arm-embedded/gcc-arm-none-eabi-4_8-2014q2/bin/../lib/gcc/arm-none-eabi/4.8.4/../../../../arm-none-eabi/lib/armv7e-m/libg.a(lib_a-mprec.o)
_atoi_r                                           /nfs/nfs5/home/research/hardware/arm2/gcc-arm-embedded/gcc-arm-none-eabi-4_8-2014q2/bin/../lib/gcc/arm-none-eabi/4.8.4/../../../../arm-none-eabi/lib/armv7e-m/libg.a(lib_a-atoi.o)
_bss_end                                          build/obj/crt0_v7m.o
_bss_start                                        build/obj/crt0_v7m.o
_calloc_r                                         /nfs/nfs5/home/research/hardware/arm2/gcc-arm-embedded/gcc-arm-none-eabi-4_8-2014q2/bin/../lib/gcc/arm-none-eabi/4.8.4/../../../../arm-none-eabi/lib/armv7e-m/libg.a(lib_a-callocr.o)
                                                  /nfs/nfs5/home/research/hardware/arm2/gcc-arm-embedded/gcc-arm-none-eabi-4_8-2014q2/bin/../lib/gcc/arm-none-eabi/4.8.4/../../../../arm-none-eabi/lib/armv7e-m/libg.a(lib_a-mprec.o)
_close_r                                          build/obj/syscalls.o
_core_init                                        build/obj/chmemcore.o
                                                  build/obj/chsys.o
_ctype_                                           /nfs/nfs5/home/research/hardware/arm2/gcc-arm-embedded/gcc-arm-none-eabi-4_8-2014q2/bin/../lib/gcc/arm-none-eabi/4.8.4/../../../../arm-none-eabi/lib/armv7e-m/libg.a(lib_a-ctype_.o)
_data_end                                         build/obj/crt0_v7m.o
_data_start                                       build/obj/crt0_v7m.o
_daylight                                         /nfs/nfs5/home/research/hardware/arm2/gcc-arm-embedded/gcc-arm-none-eabi-4_8-2014q2/bin/../lib/gcc/arm-none-eabi/4.8.4/../../../../arm-none-eabi/lib/armv7e-m/libg.a(lib_a-tzvars.o)
                                                  /nfs/nfs5/home/research/hardware/arm2/gcc-arm-embedded/gcc-arm-none-eabi-4_8-2014q2/bin/../lib/gcc/arm-none-eabi/4.8.4/../../../../arm-none-eabi/lib/armv7e-m/libg.a(lib_a-mktm_r.o)
_dtoa_r                                           /nfs/nfs5/home/research/hardware/arm2/gcc-arm-embedded/gcc-arm-none-eabi-4_8-2014q2/bin/../lib/gcc/arm-none-eabi/4.8.4/../../../../arm-none-eabi/lib/armv7e-m/libg.a(lib_a-dtoa.o)
                                                  /nfs/nfs5/home/research/hardware/arm2/gcc-arm-embedded/gcc-arm-none-eabi-4_8-2014q2/bin/../lib/gcc/arm-none-eabi/4.8.4/../../../../arm-none-eabi/lib/armv7e-m/libg.a(lib_a-svfprintf.o)
_free_r                                           /nfs/nfs5/home/research/hardware/arm2/gcc-arm-embedded/gcc-arm-none-eabi-4_8-2014q2/bin/../lib/gcc/arm-none-eabi/4.8.4/../../../../arm-none-eabi/lib/armv7e-m/libg.a(lib_a-freer.o)
                                                  /nfs/nfs5/home/research/hardware/arm2/gcc-arm-embedded/gcc-arm-none-eabi-4_8-2014q2/bin/../lib/gcc/arm-none-eabi/4.8.4/../../../../arm-none-eabi/lib/armv7e-m/libg.a(lib_a-reallocr.o)
                                                  /nfs/nfs5/home/research/hardware/arm2/gcc-arm-embedded/gcc-arm-none-eabi-4_8-2014q2/bin/../lib/gcc/arm-none-eabi/4.8.4/../../../../arm-none-eabi/lib/armv7e-m/libg.a(lib_a-mallocr.o)
                                                  /nfs/nfs5/home/research/hardware/arm2/gcc-arm-embedded/gcc-arm-none-eabi-4_8-2014q2/bin/../lib/gcc/arm-none-eabi/4.8.4/../../../../arm-none-eabi/lib/armv7e-m/libg.a(lib_a-svfiprintf.o)
_fstat_r                                          build/obj/syscalls.o
_global_impure_ptr                                /nfs/nfs5/home/research/hardware/arm2/gcc-arm-embedded/gcc-arm-none-eabi-4_8-2014q2/bin/../lib/gcc/arm-none-eabi/4.8.4/../../../../arm-none-eabi/lib/armv7e-m/libg.a(lib_a-impure.o)
_heap_init                                        build/obj/chheap.o
                                                  build/obj/chsys.o
_impure_ptr                                       /nfs/nfs5/home/research/hardware/arm2/gcc-arm-embedded/gcc-arm-none-eabi-4_8-2014q2/bin/../lib/gcc/arm-none-eabi/4.8.4/../../../../arm-none-eabi/lib/armv7e-m/libg.a(lib_a-impure.o)
                                                  /nfs/nfs5/home/research/hardware/arm2/gcc-arm-embedded/gcc-arm-none-eabi-4_8-2014q2/bin/../lib/gcc/arm-none-eabi/4.8.4/../../../../arm-none-eabi/lib/armv7e-m/libg.a(lib_a-locale.o)
                                                  /nfs/nfs5/home/research/hardware/arm2/gcc-arm-embedded/gcc-arm-none-eabi-4_8-2014q2/bin/../lib/gcc/arm-none-eabi/4.8.4/../../../../arm-none-eabi/lib/armv7e-m/libg.a(lib_a-strtol.o)
                                                  /nfs/nfs5/home/research/hardware/arm2/gcc-arm-embedded/gcc-arm-none-eabi-4_8-2014q2/bin/../lib/gcc/arm-none-eabi/4.8.4/../../../../arm-none-eabi/lib/armv7e-m/libg.a(lib_a-sprintf.o)
                                                  /nfs/nfs5/home/research/hardware/arm2/gcc-arm-embedded/gcc-arm-none-eabi-4_8-2014q2/bin/../lib/gcc/arm-none-eabi/4.8.4/../../../../arm-none-eabi/lib/armv7e-m/libg.a(lib_a-siprintf.o)
                                                  /nfs/nfs5/home/research/hardware/arm2/gcc-arm-embedded/gcc-arm-none-eabi-4_8-2014q2/bin/../lib/gcc/arm-none-eabi/4.8.4/../../../../arm-none-eabi/lib/armv7e-m/libg.a(lib_a-lcltime.o)
                                                  /nfs/nfs5/home/research/hardware/arm2/gcc-arm-embedded/gcc-arm-none-eabi-4_8-2014q2/bin/../lib/gcc/arm-none-eabi/4.8.4/../../../../arm-none-eabi/lib/armv7e-m/libg.a(lib_a-asctime.o)
_isatty_r                                         build/obj/syscalls.o
_localeconv_r                                     /nfs/nfs5/home/research/hardware/arm2/gcc-arm-embedded/gcc-arm-none-eabi-4_8-2014q2/bin/../lib/gcc/arm-none-eabi/4.8.4/../../../../arm-none-eabi/lib/armv7e-m/libg.a(lib_a-locale.o)
                                                  /nfs/nfs5/home/research/hardware/arm2/gcc-arm-embedded/gcc-arm-none-eabi-4_8-2014q2/bin/../lib/gcc/arm-none-eabi/4.8.4/../../../../arm-none-eabi/lib/armv7e-m/libg.a(lib_a-svfprintf.o)
_lseek_r                                          build/obj/syscalls.o
_malloc_r                                         /nfs/nfs5/home/research/hardware/arm2/gcc-arm-embedded/gcc-arm-none-eabi-4_8-2014q2/bin/../lib/gcc/arm-none-eabi/4.8.4/../../../../arm-none-eabi/lib/armv7e-m/libg.a(lib_a-mallocr.o)
                                                  /nfs/nfs5/home/research/hardware/arm2/gcc-arm-embedded/gcc-arm-none-eabi-4_8-2014q2/bin/../lib/gcc/arm-none-eabi/4.8.4/../../../../arm-none-eabi/lib/armv7e-m/libg.a(lib_a-callocr.o)
                                                  /nfs/nfs5/home/research/hardware/arm2/gcc-arm-embedded/gcc-arm-none-eabi-4_8-2014q2/bin/../lib/gcc/arm-none-eabi/4.8.4/../../../../arm-none-eabi/lib/armv7e-m/libg.a(lib_a-reallocr.o)
                                                  /nfs/nfs5/home/research/hardware/arm2/gcc-arm-embedded/gcc-arm-none-eabi-4_8-2014q2/bin/../lib/gcc/arm-none-eabi/4.8.4/../../../../arm-none-eabi/lib/armv7e-m/libg.a(lib_a-svfprintf.o)
                                                  /nfs/nfs5/home/research/hardware/arm2/gcc-arm-embedded/gcc-arm-none-eabi-4_8-2014q2/bin/../lib/gcc/arm-none-eabi/4.8.4/../../../../arm-none-eabi/lib/armv7e-m/libg.a(lib_a-svfiprintf.o)
_malloc_trim_r                                    /nfs/nfs5/home/research/hardware/arm2/gcc-arm-embedded/gcc-arm-none-eabi-4_8-2014q2/bin/../lib/gcc/arm-none-eabi/4.8.4/../../../../arm-none-eabi/lib/armv7e-m/libg.a(lib_a-freer.o)
_mktm_r                                           /nfs/nfs5/home/research/hardware/arm2/gcc-arm-embedded/gcc-arm-none-eabi-4_8-2014q2/bin/../lib/gcc/arm-none-eabi/4.8.4/../../../../arm-none-eabi/lib/armv7e-m/libg.a(lib_a-mktm_r.o)
                                                  /nfs/nfs5/home/research/hardware/arm2/gcc-arm-embedded/gcc-arm-none-eabi-4_8-2014q2/bin/../lib/gcc/arm-none-eabi/4.8.4/../../../../arm-none-eabi/lib/armv7e-m/libg.a(lib_a-lcltime_r.o)
_mmcsd_get_capacity                               build/obj/hal_mmcsd.o
                                                  build/obj/mmc_spi.o
_mmcsd_get_capacity_ext                           build/obj/hal_mmcsd.o
_mmcsd_get_slice                                  build/obj/hal_mmcsd.o
_mmcsd_unpack_csd_mmc                             build/obj/hal_mmcsd.o
_mmcsd_unpack_csd_v10                             build/obj/hal_mmcsd.o
_mmcsd_unpack_csd_v20                             build/obj/hal_mmcsd.o
_mmcsd_unpack_mmc_cid                             build/obj/hal_mmcsd.o
_mmcsd_unpack_sdc_cid                             build/obj/hal_mmcsd.o
_mprec_log10                                      /nfs/nfs5/home/research/hardware/arm2/gcc-arm-embedded/gcc-arm-none-eabi-4_8-2014q2/bin/../lib/gcc/arm-none-eabi/4.8.4/../../../../arm-none-eabi/lib/armv7e-m/libg.a(lib_a-mprec.o)
_pal_lld_init                                     build/obj/pal_lld.o
                                                  build/obj/hal.o
_pal_lld_setgroupmode                             build/obj/pal_lld.o
                                                  build/obj/main.o
                                                  build/obj/pal.o
_port_exit_from_isr                               build/obj/chcoreasm_v7m.o
                                                  build/obj/chcore_v7m.o
_port_irq_epilogue                                build/obj/chcore_v7m.o
                                                  build/obj/serial_lld.o
                                                  build/obj/gpt_lld.o
                                                  build/obj/ext_lld_isr.o
                                                  build/obj/adc_lld.o
                                                  build/obj/st_lld.o
                                                  build/obj/stm32_dma.o
_port_switch                                      build/obj/chcoreasm_v7m.o
                                                  build/obj/chschd.o
_port_switch_from_isr                             build/obj/chcoreasm_v7m.o
                                                  build/obj/chcore_v7m.o
_port_thread_start                                build/obj/chcoreasm_v7m.o
                                                  build/obj/chthreads.o
_read_r                                           build/obj/syscalls.o
_realloc_r                                        /nfs/nfs5/home/research/hardware/arm2/gcc-arm-embedded/gcc-arm-none-eabi-4_8-2014q2/bin/../lib/gcc/arm-none-eabi/4.8.4/../../../../arm-none-eabi/lib/armv7e-m/libg.a(lib_a-reallocr.o)
                                                  /nfs/nfs5/home/research/hardware/arm2/gcc-arm-embedded/gcc-arm-none-eabi-4_8-2014q2/bin/../lib/gcc/arm-none-eabi/4.8.4/../../../../arm-none-eabi/lib/armv7e-m/libg.a(lib_a-svfiprintf.o)
_sbrk_r                                           build/obj/syscalls.o
                                                  /nfs/nfs5/home/research/hardware/arm2/gcc-arm-embedded/gcc-arm-none-eabi-4_8-2014q2/bin/../lib/gcc/arm-none-eabi/4.8.4/../../../../arm-none-eabi/lib/armv7e-m/libg.a(lib_a-mallocr.o)
                                                  /nfs/nfs5/home/research/hardware/arm2/gcc-arm-embedded/gcc-arm-none-eabi-4_8-2014q2/bin/../lib/gcc/arm-none-eabi/4.8.4/../../../../arm-none-eabi/lib/armv7e-m/libg.a(lib_a-freer.o)
_scheduler_init                                   build/obj/chschd.o
                                                  build/obj/chsys.o
_setlocale_r                                      /nfs/nfs5/home/research/hardware/arm2/gcc-arm-embedded/gcc-arm-none-eabi-4_8-2014q2/bin/../lib/gcc/arm-none-eabi/4.8.4/../../../../arm-none-eabi/lib/armv7e-m/libg.a(lib_a-locale.o)
_siprintf_r                                       /nfs/nfs5/home/research/hardware/arm2/gcc-arm-embedded/gcc-arm-none-eabi-4_8-2014q2/bin/../lib/gcc/arm-none-eabi/4.8.4/../../../../arm-none-eabi/lib/armv7e-m/libg.a(lib_a-siprintf.o)
_sprintf_r                                        /nfs/nfs5/home/research/hardware/arm2/gcc-arm-embedded/gcc-arm-none-eabi-4_8-2014q2/bin/../lib/gcc/arm-none-eabi/4.8.4/../../../../arm-none-eabi/lib/armv7e-m/libg.a(lib_a-sprintf.o)
_stm32_dma_isr_redir                              build/obj/stm32_dma.o
_stm32_dma_streams                                build/obj/stm32_dma.o
                                                  build/obj/spi_lld.o
                                                  build/obj/adc_lld.o
_strtol_r                                         /nfs/nfs5/home/research/hardware/arm2/gcc-arm-embedded/gcc-arm-none-eabi-4_8-2014q2/bin/../lib/gcc/arm-none-eabi/4.8.4/../../../../arm-none-eabi/lib/armv7e-m/libg.a(lib_a-strtol.o)
                                                  /nfs/nfs5/home/research/hardware/arm2/gcc-arm-embedded/gcc-arm-none-eabi-4_8-2014q2/bin/../lib/gcc/arm-none-eabi/4.8.4/../../../../arm-none-eabi/lib/armv7e-m/libg.a(lib_a-atoi.o)
_svfiprintf_r                                     /nfs/nfs5/home/research/hardware/arm2/gcc-arm-embedded/gcc-arm-none-eabi-4_8-2014q2/bin/../lib/gcc/arm-none-eabi/4.8.4/../../../../arm-none-eabi/lib/armv7e-m/libg.a(lib_a-svfiprintf.o)
                                                  /nfs/nfs5/home/research/hardware/arm2/gcc-arm-embedded/gcc-arm-none-eabi-4_8-2014q2/bin/../lib/gcc/arm-none-eabi/4.8.4/../../../../arm-none-eabi/lib/armv7e-m/libg.a(lib_a-siprintf.o)
_svfprintf_r                                      /nfs/nfs5/home/research/hardware/arm2/gcc-arm-embedded/gcc-arm-none-eabi-4_8-2014q2/bin/../lib/gcc/arm-none-eabi/4.8.4/../../../../arm-none-eabi/lib/armv7e-m/libg.a(lib_a-svfprintf.o)
                                                  /nfs/nfs5/home/research/hardware/arm2/gcc-arm-embedded/gcc-arm-none-eabi-4_8-2014q2/bin/../lib/gcc/arm-none-eabi/4.8.4/../../../../arm-none-eabi/lib/armv7e-m/libg.a(lib_a-sprintf.o)
_test_assert                                      build/obj/test.o
                                                  build/obj/testsys.o
                                                  build/obj/testqueues.o
                                                  build/obj/testdyn.o
                                                  build/obj/testpools.o
                                                  build/obj/testheap.o
                                                  build/obj/testevt.o
                                                  build/obj/testmbox.o
                                                  build/obj/testmtx.o
                                                  build/obj/testsem.o
                                                  build/obj/testthd.o
_test_assert_sequence                             build/obj/test.o
                                                  build/obj/testqueues.o
                                                  build/obj/testdyn.o
                                                  build/obj/testevt.o
                                                  build/obj/testmbox.o
                                                  build/obj/testmsg.o
                                                  build/obj/testmtx.o
                                                  build/obj/testsem.o
                                                  build/obj/testthd.o
_test_assert_time_window                          build/obj/test.o
                                                  build/obj/testevt.o
                                                  build/obj/testsem.o
                                                  build/obj/testthd.o
_test_fail                                        build/obj/test.o
_textdata_start                                   build/obj/crt0_v7m.o
_thread_init                                      build/obj/chthreads.o
                                                  build/obj/chsys.o
_timezone                                         /nfs/nfs5/home/research/hardware/arm2/gcc-arm-embedded/gcc-arm-none-eabi-4_8-2014q2/bin/../lib/gcc/arm-none-eabi/4.8.4/../../../../arm-none-eabi/lib/armv7e-m/libg.a(lib_a-tzvars.o)
_tm_init                                          build/obj/chtm.o
                                                  build/obj/chsys.o
_tzname                                           /nfs/nfs5/home/research/hardware/arm2/gcc-arm-embedded/gcc-arm-none-eabi-4_8-2014q2/bin/../lib/gcc/arm-none-eabi/4.8.4/../../../../arm-none-eabi/lib/armv7e-m/libg.a(lib_a-tzvars.o)
_unhandled_exception                              build/obj/vectors.o
_vectors                                          build/obj/vectors.o
_vt_init                                          build/obj/chvt.o
                                                  build/obj/chsys.o
_write_r                                          build/obj/syscalls.o
adcAcquireBus                                     build/obj/adc.o
adcConvert                                        build/obj/adc.o
adcInit                                           build/obj/adc.o
                                                  build/obj/hal.o
adcObjectInit                                     build/obj/adc.o
                                                  build/obj/adc_lld.o
adcReleaseBus                                     build/obj/adc.o
adcSTM32DisableTS                                 build/obj/adc_lld.o
adcSTM32DisableVBAT                               build/obj/adc_lld.o
adcSTM32DisableVREF                               build/obj/adc_lld.o
adcSTM32EnableTS                                  build/obj/adc_lld.o
adcSTM32EnableVBAT                                build/obj/adc_lld.o
adcSTM32EnableVREF                                build/obj/adc_lld.o
adcStart                                          build/obj/adc.o
                                                  build/obj/main.o
adcStartConversion                                build/obj/adc.o
                                                  build/obj/main.o
adcStartConversionI                               build/obj/adc.o
adcStop                                           build/obj/adc.o
adcStopConversion                                 build/obj/adc.o
adcStopConversionI                                build/obj/adc.o
adc_lld_init                                      build/obj/adc_lld.o
                                                  build/obj/adc.o
adc_lld_start                                     build/obj/adc_lld.o
                                                  build/obj/adc.o
adc_lld_start_conversion                          build/obj/adc_lld.o
                                                  build/obj/adc.o
adc_lld_stop                                      build/obj/adc_lld.o
                                                  build/obj/adc.o
adc_lld_stop_conversion                           build/obj/adc_lld.o
                                                  build/obj/adc.o
appendToCard                                      build/obj/main.o
asctime                                           /nfs/nfs5/home/research/hardware/arm2/gcc-arm-embedded/gcc-arm-none-eabi-4_8-2014q2/bin/../lib/gcc/arm-none-eabi/4.8.4/../../../../arm-none-eabi/lib/armv7e-m/libg.a(lib_a-asctime.o)
                                                  build/obj/main.o
asctime_r                                         /nfs/nfs5/home/research/hardware/arm2/gcc-arm-embedded/gcc-arm-none-eabi-4_8-2014q2/bin/../lib/gcc/arm-none-eabi/4.8.4/../../../../arm-none-eabi/lib/armv7e-m/libg.a(lib_a-asctime_r.o)
                                                  /nfs/nfs5/home/research/hardware/arm2/gcc-arm-embedded/gcc-arm-none-eabi-4_8-2014q2/bin/../lib/gcc/arm-none-eabi/4.8.4/../../../../arm-none-eabi/lib/armv7e-m/libg.a(lib_a-asctime.o)
atoi                                              /nfs/nfs5/home/research/hardware/arm2/gcc-arm-embedded/gcc-arm-none-eabi-4_8-2014q2/bin/../lib/gcc/arm-none-eabi/4.8.4/../../../../arm-none-eabi/lib/armv7e-m/libg.a(lib_a-atoi.o)
                                                  build/obj/main.o
boardInit                                         build/obj/board.o
                                                  build/obj/hal.o
br                                                build/obj/main.o
bsem                                              build/obj/main.o
bw                                                build/obj/main.o
ch                                                build/obj/chschd.o
                                                  build/obj/shell.o
                                                  build/obj/testbmk.o
                                                  build/obj/testqueues.o
                                                  build/obj/testdyn.o
                                                  build/obj/testevt.o
                                                  build/obj/testmsg.o
                                                  build/obj/testmtx.o
                                                  build/obj/testsem.o
                                                  build/obj/testthd.o
                                                  build/obj/chmsg.o
                                                  build/obj/chevents.o
                                                  build/obj/chcond.o
                                                  build/obj/chmtx.o
                                                  build/obj/chsem.o
                                                  build/obj/chregistry.o
                                                  build/obj/chtm.o
                                                  build/obj/chthreads.o
                                                  build/obj/chvt.o
                                                  build/obj/chsys.o
chCondBroadcast                                   build/obj/chcond.o
                                                  build/obj/testmtx.o
chCondBroadcastI                                  build/obj/chcond.o
chCondObjectInit                                  build/obj/chcond.o
                                                  build/obj/testmtx.o
chCondSignal                                      build/obj/chcond.o
                                                  build/obj/testmtx.o
chCondSignalI                                     build/obj/chcond.o
                                                  build/obj/testmtx.o
chCondWait                                        build/obj/chcond.o
                                                  build/obj/testmtx.o
chCondWaitS                                       build/obj/chcond.o
chCondWaitTimeout                                 build/obj/chcond.o
                                                  build/obj/testmtx.o
chCondWaitTimeoutS                                build/obj/chcond.o
chCoreAlloc                                       build/obj/chmemcore.o
                                                  build/obj/syscalls.o
                                                  build/obj/chheap.o
chCoreAllocI                                      build/obj/chmemcore.o
chCoreGetStatusX                                  build/obj/chmemcore.o
                                                  build/obj/testheap.o
chEvtAddEvents                                    build/obj/chevents.o
                                                  build/obj/testevt.o
chEvtBroadcastFlags                               build/obj/chevents.o
                                                  build/obj/testevt.o
chEvtBroadcastFlagsI                              build/obj/chevents.o
                                                  build/obj/evtimer.o
                                                  build/obj/shell.o
                                                  build/obj/serial_lld.o
                                                  build/obj/serial.o
chEvtDispatch                                     build/obj/chevents.o
                                                  build/obj/main.o
                                                  build/obj/testevt.o
chEvtGetAndClearEvents                            build/obj/chevents.o
                                                  build/obj/testevt.o
chEvtGetAndClearFlags                             build/obj/chevents.o
chEvtGetAndClearFlagsI                            build/obj/chevents.o
chEvtRegisterMaskWithFlags                        build/obj/chevents.o
                                                  build/obj/main.o
                                                  build/obj/testevt.o
chEvtSignal                                       build/obj/chevents.o
                                                  build/obj/testevt.o
chEvtSignalI                                      build/obj/chevents.o
chEvtUnregister                                   build/obj/chevents.o
                                                  build/obj/testevt.o
chEvtWaitAll                                      build/obj/chevents.o
                                                  build/obj/testevt.o
chEvtWaitAllTimeout                               build/obj/chevents.o
                                                  build/obj/testevt.o
chEvtWaitAny                                      build/obj/chevents.o
                                                  build/obj/testevt.o
chEvtWaitAnyTimeout                               build/obj/chevents.o
                                                  build/obj/testevt.o
chEvtWaitOne                                      build/obj/chevents.o
                                                  build/obj/main.o
                                                  build/obj/testevt.o
chEvtWaitOneTimeout                               build/obj/chevents.o
                                                  build/obj/testevt.o
chHeapAlloc                                       build/obj/chheap.o
                                                  build/obj/testdyn.o
                                                  build/obj/testheap.o
                                                  build/obj/chdynamic.o
chHeapFree                                        build/obj/chheap.o
                                                  build/obj/testdyn.o
                                                  build/obj/testheap.o
                                                  build/obj/chdynamic.o
chHeapObjectInit                                  build/obj/chheap.o
                                                  build/obj/testdyn.o
                                                  build/obj/testheap.o
chHeapStatus                                      build/obj/chheap.o
                                                  build/obj/testdyn.o
                                                  build/obj/testheap.o
chIQGetTimeout                                    build/obj/chqueues.o
                                                  build/obj/testbmk.o
                                                  build/obj/testqueues.o
                                                  build/obj/serial.o
chIQObjectInit                                    build/obj/chqueues.o
                                                  build/obj/testbmk.o
                                                  build/obj/testqueues.o
                                                  build/obj/serial.o
chIQPutI                                          build/obj/chqueues.o
                                                  build/obj/testbmk.o
                                                  build/obj/testqueues.o
                                                  build/obj/serial.o
chIQReadTimeout                                   build/obj/chqueues.o
                                                  build/obj/main.o
                                                  build/obj/testqueues.o
                                                  build/obj/serial.o
chIQResetI                                        build/obj/chqueues.o
                                                  build/obj/testqueues.o
                                                  build/obj/serial.o
chMBFetch                                         build/obj/chmboxes.o
                                                  build/obj/testmbox.o
chMBFetchI                                        build/obj/chmboxes.o
                                                  build/obj/testmbox.o
chMBFetchS                                        build/obj/chmboxes.o
chMBObjectInit                                    build/obj/chmboxes.o
                                                  build/obj/testmbox.o
chMBPost                                          build/obj/chmboxes.o
                                                  build/obj/testmbox.o
chMBPostAhead                                     build/obj/chmboxes.o
                                                  build/obj/testmbox.o
chMBPostAheadI                                    build/obj/chmboxes.o
                                                  build/obj/testmbox.o
chMBPostAheadS                                    build/obj/chmboxes.o
chMBPostI                                         build/obj/chmboxes.o
                                                  build/obj/testmbox.o
chMBPostS                                         build/obj/chmboxes.o
chMBReset                                         build/obj/chmboxes.o
                                                  build/obj/testmbox.o
chMBResetI                                        build/obj/chmboxes.o
chMsgRelease                                      build/obj/chmsg.o
                                                  build/obj/testbmk.o
                                                  build/obj/testmsg.o
chMsgSend                                         build/obj/chmsg.o
                                                  build/obj/testbmk.o
                                                  build/obj/testmsg.o
chMsgWait                                         build/obj/chmsg.o
                                                  build/obj/testbmk.o
                                                  build/obj/testmsg.o
chMtxLock                                         build/obj/chmtx.o
                                                  build/obj/main.o
                                                  build/obj/testbmk.o
                                                  build/obj/testmtx.o
                                                  build/obj/spi.o
                                                  build/obj/adc.o
                                                  build/obj/chheap.o
chMtxLockS                                        build/obj/chmtx.o
                                                  build/obj/chcond.o
chMtxObjectInit                                   build/obj/chmtx.o
                                                  build/obj/main.o
                                                  build/obj/testbmk.o
                                                  build/obj/testmtx.o
                                                  build/obj/spi.o
                                                  build/obj/adc.o
                                                  build/obj/chheap.o
chMtxTryLock                                      build/obj/chmtx.o
                                                  build/obj/testmtx.o
chMtxTryLockS                                     build/obj/chmtx.o
chMtxUnlock                                       build/obj/chmtx.o
                                                  build/obj/main.o
                                                  build/obj/testbmk.o
                                                  build/obj/testmtx.o
                                                  build/obj/spi.o
                                                  build/obj/adc.o
                                                  build/obj/chheap.o
chMtxUnlockAll                                    build/obj/chmtx.o
                                                  build/obj/testmtx.o
chMtxUnlockS                                      build/obj/chmtx.o
                                                  build/obj/testmtx.o
                                                  build/obj/chcond.o
chOQGetI                                          build/obj/chqueues.o
                                                  build/obj/testqueues.o
                                                  build/obj/serial_lld.o
                                                  build/obj/serial.o
chOQObjectInit                                    build/obj/chqueues.o
                                                  build/obj/testqueues.o
                                                  build/obj/serial.o
chOQPutTimeout                                    build/obj/chqueues.o
                                                  build/obj/testqueues.o
                                                  build/obj/serial.o
chOQResetI                                        build/obj/chqueues.o
                                                  build/obj/testqueues.o
                                                  build/obj/serial.o
chOQWriteTimeout                                  build/obj/chqueues.o
                                                  build/obj/testqueues.o
                                                  build/obj/serial.o
chPoolAlloc                                       build/obj/chmempools.o
                                                  build/obj/testdyn.o
                                                  build/obj/testpools.o
                                                  build/obj/chdynamic.o
chPoolAllocI                                      build/obj/chmempools.o
chPoolFree                                        build/obj/chmempools.o
                                                  build/obj/testdyn.o
                                                  build/obj/testpools.o
                                                  build/obj/chdynamic.o
chPoolFreeI                                       build/obj/chmempools.o
chPoolLoadArray                                   build/obj/chmempools.o
                                                  build/obj/testpools.o
chPoolObjectInit                                  build/obj/chmempools.o
                                                  build/obj/testdyn.o
                                                  build/obj/testpools.o
chRegFirstThread                                  build/obj/chregistry.o
                                                  build/obj/testdyn.o
chRegNextThread                                   build/obj/chregistry.o
                                                  build/obj/testdyn.o
chSchDoReschedule                                 build/obj/chschd.o
                                                  build/obj/chcoreasm_v7m.o
chSchDoRescheduleAhead                            build/obj/chschd.o
chSchDoRescheduleBehind                           build/obj/chschd.o
                                                  build/obj/chthreads.o
chSchGoSleepS                                     build/obj/chschd.o
                                                  build/obj/testbmk.o
                                                  build/obj/chmsg.o
                                                  build/obj/chevents.o
                                                  build/obj/chcond.o
                                                  build/obj/chmtx.o
                                                  build/obj/chsem.o
                                                  build/obj/chthreads.o
chSchGoSleepTimeoutS                              build/obj/chschd.o
                                                  build/obj/chevents.o
                                                  build/obj/chcond.o
                                                  build/obj/chsem.o
                                                  build/obj/chthreads.o
chSchIsPreemptionRequired                         build/obj/chschd.o
                                                  build/obj/chcore_v7m.o
chSchReadyI                                       build/obj/chschd.o
                                                  build/obj/chmsg.o
                                                  build/obj/chevents.o
                                                  build/obj/chcond.o
                                                  build/obj/chmtx.o
                                                  build/obj/chsem.o
                                                  build/obj/chthreads.o
chSchRescheduleS                                  build/obj/chschd.o
                                                  build/obj/testmtx.o
                                                  build/obj/testsem.o
                                                  build/obj/serial.o
                                                  build/obj/chmboxes.o
                                                  build/obj/chevents.o
                                                  build/obj/chcond.o
                                                  build/obj/chmtx.o
                                                  build/obj/chsem.o
                                                  build/obj/chthreads.o
                                                  build/obj/chsys.o
chSchWakeupS                                      build/obj/chschd.o
                                                  build/obj/testbmk.o
                                                  build/obj/chmsg.o
                                                  build/obj/chcond.o
                                                  build/obj/chsem.o
                                                  build/obj/chdynamic.o
                                                  build/obj/chthreads.o
chSemAddCounterI                                  build/obj/chsem.o
                                                  build/obj/testsem.o
chSemObjectInit                                   build/obj/chsem.o
                                                  build/obj/main.o
                                                  build/obj/testbmk.o
                                                  build/obj/testsem.o
                                                  build/obj/chmboxes.o
chSemReset                                        build/obj/chsem.o
                                                  build/obj/testbmk.o
                                                  build/obj/testsem.o
chSemResetI                                       build/obj/chsem.o
                                                  build/obj/chmboxes.o
chSemSignal                                       build/obj/chsem.o
                                                  build/obj/testbmk.o
                                                  build/obj/testsem.o
chSemSignalI                                      build/obj/chsem.o
                                                  build/obj/main.o
                                                  build/obj/testsem.o
                                                  build/obj/chmboxes.o
chSemSignalWait                                   build/obj/chsem.o
                                                  build/obj/testsem.o
chSemWait                                         build/obj/chsem.o
                                                  build/obj/main.o
                                                  build/obj/testbmk.o
                                                  build/obj/testsem.o
chSemWaitS                                        build/obj/chsem.o
chSemWaitTimeout                                  build/obj/chsem.o
                                                  build/obj/testsem.o
chSemWaitTimeoutS                                 build/obj/chsem.o
                                                  build/obj/chmboxes.o
chSysGetStatusAndLockX                            build/obj/chsys.o
                                                  build/obj/testsys.o
                                                  build/obj/rtc_lld.o
chSysHalt                                         build/obj/chsys.o
                                                  build/obj/spi_lld.o
chSysInit                                         build/obj/chsys.o
                                                  build/obj/main.o
chSysIntegrityCheckI                              build/obj/chsys.o
                                                  build/obj/testsys.o
chSysIsCounterWithinX                             build/obj/chsys.o
chSysPolledDelayX                                 build/obj/chsys.o
                                                  build/obj/adc_lld.o
chSysRestoreStatusX                               build/obj/chsys.o
                                                  build/obj/testsys.o
                                                  build/obj/rtc_lld.o
chSysTimerHandlerI                                build/obj/chsys.o
                                                  build/obj/st_lld.o
chTMChainMeasurementToX                           build/obj/chtm.o
chTMObjectInit                                    build/obj/chtm.o
chTMStartMeasurementX                             build/obj/chtm.o
chTMStopMeasurementX                              build/obj/chtm.o
chThdAddRef                                       build/obj/chdynamic.o
                                                  build/obj/testdyn.o
chThdCreateFromHeap                               build/obj/chdynamic.o
                                                  build/obj/shell.o
                                                  build/obj/testdyn.o
chThdCreateFromMemoryPool                         build/obj/chdynamic.o
                                                  build/obj/testdyn.o
chThdCreateI                                      build/obj/chthreads.o
                                                  build/obj/testthd.o
                                                  build/obj/chdynamic.o
chThdCreateStatic                                 build/obj/chthreads.o
                                                  build/obj/main.o
                                                  build/obj/shell.o
                                                  build/obj/testbmk.o
                                                  build/obj/testqueues.o
                                                  build/obj/testevt.o
                                                  build/obj/testmsg.o
                                                  build/obj/testmtx.o
                                                  build/obj/testsem.o
                                                  build/obj/testthd.o
                                                  build/obj/chsys.o
chThdDequeueAllI                                  build/obj/chthreads.o
                                                  build/obj/hal_buffers.o
                                                  build/obj/chqueues.o
chThdDequeueNextI                                 build/obj/chthreads.o
                                                  build/obj/hal_buffers.o
                                                  build/obj/chqueues.o
chThdEnqueueTimeoutS                              build/obj/chthreads.o
                                                  build/obj/hal_buffers.o
                                                  build/obj/chqueues.o
chThdExit                                         build/obj/chthreads.o
                                                  build/obj/testbmk.o
                                                  build/obj/chcoreasm_v7m.o
chThdExitS                                        build/obj/chthreads.o
                                                  build/obj/shell.o
chThdRelease                                      build/obj/chdynamic.o
                                                  build/obj/testdyn.o
                                                  build/obj/chregistry.o
                                                  build/obj/chthreads.o
chThdResume                                       build/obj/chthreads.o
chThdResumeI                                      build/obj/chthreads.o
                                                  build/obj/spi_lld.o
                                                  build/obj/adc_lld.o
                                                  build/obj/adc.o
chThdResumeS                                      build/obj/chthreads.o
                                                  build/obj/adc.o
chThdSetPriority                                  build/obj/chthreads.o
                                                  build/obj/testthd.o
chThdSleep                                        build/obj/chthreads.o
                                                  build/obj/main.o
                                                  build/obj/testbmk.o
                                                  build/obj/testsys.o
                                                  build/obj/testdyn.o
                                                  build/obj/testevt.o
                                                  build/obj/testmtx.o
                                                  build/obj/testsem.o
                                                  build/obj/testthd.o
                                                  build/obj/test.o
                                                  build/obj/mmc_spi.o
chThdSleepUntil                                   build/obj/chthreads.o
                                                  build/obj/testthd.o
chThdSleepUntilWindowed                           build/obj/chthreads.o
chThdStart                                        build/obj/chthreads.o
                                                  build/obj/testthd.o
chThdSuspendS                                     build/obj/chthreads.o
                                                  build/obj/spi.o
                                                  build/obj/adc.o
chThdSuspendTimeoutS                              build/obj/chthreads.o
chThdTerminate                                    build/obj/chthreads.o
                                                  build/obj/test.o
chThdWait                                         build/obj/chthreads.o
                                                  build/obj/main.o
                                                  build/obj/testbmk.o
                                                  build/obj/test.o
chThdYield                                        build/obj/chthreads.o
                                                  build/obj/testbmk.o
chVTDoResetI                                      build/obj/chvt.o
                                                  build/obj/evtimer.o
                                                  build/obj/testbmk.o
                                                  build/obj/testsys.o
                                                  build/obj/test.o
                                                  build/obj/chschd.o
chVTDoSetI                                        build/obj/chvt.o
                                                  build/obj/evtimer.o
                                                  build/obj/testbmk.o
                                                  build/obj/testsys.o
                                                  build/obj/test.o
                                                  build/obj/chschd.o
ch_debug                                          build/obj/chregistry.o
                                                  build/obj/chsys.o
chprintf                                          build/obj/chprintf.o
                                                  build/obj/main.o
                                                  build/obj/shell.o
chsnprintf                                        build/obj/chprintf.o
chvprintf                                         build/obj/chprintf.o
clust2sect                                        build/obj/ff.o
cmd_data                                          build/obj/main.o
cmd_rtcSet                                        build/obj/main.o
curGPS                                            build/obj/main.o
dayGPS                                            build/obj/main.o
dayRTC                                            build/obj/main.o
die                                               build/obj/main.o
dir                                               build/obj/main.o
disk_initialize                                   build/obj/fatfs_diskio.o
                                                  build/obj/ff.o
disk_ioctl                                        build/obj/fatfs_diskio.o
                                                  build/obj/ff.o
disk_read                                         build/obj/fatfs_diskio.o
                                                  build/obj/ff.o
disk_status                                       build/obj/fatfs_diskio.o
                                                  build/obj/ff.o
disk_write                                        build/obj/fatfs_diskio.o
                                                  build/obj/ff.o
dmaInit                                           build/obj/stm32_dma.o
                                                  build/obj/hal_lld.o
dmaStreamAllocate                                 build/obj/stm32_dma.o
                                                  build/obj/spi_lld.o
                                                  build/obj/adc_lld.o
dmaStreamRelease                                  build/obj/stm32_dma.o
                                                  build/obj/spi_lld.o
                                                  build/obj/adc_lld.o
edgeTime                                          build/obj/main.o
evtObjectInit                                     build/obj/evtimer.o
evtStart                                          build/obj/evtimer.o
extChannelDisable                                 build/obj/ext.o
extChannelEnable                                  build/obj/ext.o
extInit                                           build/obj/ext.o
                                                  build/obj/hal.o
extObjectInit                                     build/obj/ext.o
                                                  build/obj/ext_lld.o
extSetChannelModeI                                build/obj/ext.o
extStart                                          build/obj/ext.o
                                                  build/obj/main.o
extStop                                           build/obj/ext.o
ext_lld_channel_disable                           build/obj/ext_lld.o
                                                  build/obj/ext.o
ext_lld_channel_enable                            build/obj/ext_lld.o
                                                  build/obj/ext.o
ext_lld_exti_irq_disable                          build/obj/ext_lld_isr.o
                                                  build/obj/ext_lld.o
ext_lld_exti_irq_enable                           build/obj/ext_lld_isr.o
                                                  build/obj/ext_lld.o
ext_lld_init                                      build/obj/ext_lld.o
                                                  build/obj/ext.o
ext_lld_start                                     build/obj/ext_lld.o
                                                  build/obj/ext.o
ext_lld_stop                                      build/obj/ext_lld.o
                                                  build/obj/ext.o
f_chmod                                           build/obj/ff.o
f_close                                           build/obj/ff.o
                                                  build/obj/main.o
f_closedir                                        build/obj/ff.o
f_getfree                                         build/obj/ff.o
f_lseek                                           build/obj/ff.o
                                                  build/obj/main.o
f_mkdir                                           build/obj/ff.o
f_mount                                           build/obj/ff.o
                                                  build/obj/main.o
f_open                                            build/obj/ff.o
                                                  build/obj/main.o
f_opendir                                         build/obj/ff.o
f_read                                            build/obj/ff.o
f_readdir                                         build/obj/ff.o
f_rename                                          build/obj/ff.o
f_stat                                            build/obj/ff.o
f_sync                                            build/obj/ff.o
f_truncate                                        build/obj/ff.o
f_unlink                                          build/obj/ff.o
f_utime                                           build/obj/ff.o
f_write                                           build/obj/ff.o
                                                  build/obj/main.o
fil                                               build/obj/main.o
fno                                               build/obj/main.o
get_fat                                           build/obj/ff.o
get_fattime                                       build/obj/fatfs_diskio.o
                                                  build/obj/ff.o
gptChangeInterval                                 build/obj/gpt.o
gptInit                                           build/obj/gpt.o
                                                  build/obj/hal.o
gptObjectInit                                     build/obj/gpt.o
                                                  build/obj/gpt_lld.o
gptPolledDelay                                    build/obj/gpt.o
gptStart                                          build/obj/gpt.o
gptStartContinuous                                build/obj/gpt.o
gptStartContinuousI                               build/obj/gpt.o
gptStartOneShot                                   build/obj/gpt.o
gptStartOneShotI                                  build/obj/gpt.o
gptStop                                           build/obj/gpt.o
gptStopTimer                                      build/obj/gpt.o
gptStopTimerI                                     build/obj/gpt.o
gpt_lld_init                                      build/obj/gpt_lld.o
                                                  build/obj/gpt.o
gpt_lld_polled_delay                              build/obj/gpt_lld.o
                                                  build/obj/gpt.o
gpt_lld_serve_interrupt                           build/obj/gpt_lld.o
gpt_lld_start                                     build/obj/gpt_lld.o
                                                  build/obj/gpt.o
gpt_lld_start_timer                               build/obj/gpt_lld.o
                                                  build/obj/gpt.o
gpt_lld_stop                                      build/obj/gpt_lld.o
                                                  build/obj/gpt.o
gpt_lld_stop_timer                                build/obj/gpt_lld.o
                                                  build/obj/gpt.o
halInit                                           build/obj/hal.o
                                                  build/obj/main.o
hal_lld_init                                      build/obj/hal_lld.o
                                                  build/obj/hal.o
ibqGetEmptyBufferI                                build/obj/hal_buffers.o
ibqGetFullBufferTimeout                           build/obj/hal_buffers.o
ibqGetFullBufferTimeoutS                          build/obj/hal_buffers.o
ibqGetTimeout                                     build/obj/hal_buffers.o
ibqObjectInit                                     build/obj/hal_buffers.o
ibqPostFullBufferI                                build/obj/hal_buffers.o
ibqReadTimeout                                    build/obj/hal_buffers.o
ibqReleaseEmptyBuffer                             build/obj/hal_buffers.o
ibqReleaseEmptyBufferS                            build/obj/hal_buffers.o
ibqResetI                                         build/obj/hal_buffers.o
initSDcard                                        build/obj/main.o
init_mmc                                          build/obj/main.o
lastGPS                                           build/obj/main.o
lastRTC                                           build/obj/main.o
leds                                              build/obj/main.o
localeconv                                        /nfs/nfs5/home/research/hardware/arm2/gcc-arm-embedded/gcc-arm-none-eabi-4_8-2014q2/bin/../lib/gcc/arm-none-eabi/4.8.4/../../../../arm-none-eabi/lib/armv7e-m/libg.a(lib_a-locale.o)
localtime                                         /nfs/nfs5/home/research/hardware/arm2/gcc-arm-embedded/gcc-arm-none-eabi-4_8-2014q2/bin/../lib/gcc/arm-none-eabi/4.8.4/../../../../arm-none-eabi/lib/armv7e-m/libg.a(lib_a-lcltime.o)
                                                  build/obj/main.o
localtime_r                                       /nfs/nfs5/home/research/hardware/arm2/gcc-arm-embedded/gcc-arm-none-eabi-4_8-2014q2/bin/../lib/gcc/arm-none-eabi/4.8.4/../../../../arm-none-eabi/lib/armv7e-m/libg.a(lib_a-lcltime_r.o)
                                                  /nfs/nfs5/home/research/hardware/arm2/gcc-arm-embedded/gcc-arm-none-eabi-4_8-2014q2/bin/../lib/gcc/arm-none-eabi/4.8.4/../../../../arm-none-eabi/lib/armv7e-m/libg.a(lib_a-lcltime.o)
main                                              build/obj/main.o
                                                  build/obj/crt0_v7m.o
memchr                                            /nfs/nfs5/home/research/hardware/arm2/gcc-arm-embedded/gcc-arm-none-eabi-4_8-2014q2/bin/../lib/gcc/arm-none-eabi/4.8.4/../../../../arm-none-eabi/lib/armv7e-m/libg.a(lib_a-memchr-stub.o)
                                                  /nfs/nfs5/home/research/hardware/arm2/gcc-arm-embedded/gcc-arm-none-eabi-4_8-2014q2/bin/../lib/gcc/arm-none-eabi/4.8.4/../../../../arm-none-eabi/lib/armv7e-m/libg.a(lib_a-svfprintf.o)
                                                  /nfs/nfs5/home/research/hardware/arm2/gcc-arm-embedded/gcc-arm-none-eabi-4_8-2014q2/bin/../lib/gcc/arm-none-eabi/4.8.4/../../../../arm-none-eabi/lib/armv7e-m/libg.a(lib_a-svfiprintf.o)
                                                  /nfs/nfs5/home/research/hardware/arm2/gcc-arm-embedded/gcc-arm-none-eabi-4_8-2014q2/bin/../lib/gcc/arm-none-eabi/4.8.4/../../../../arm-none-eabi/lib/armv7e-m/libg.a(lib_a-strstr.o)
memcmp                                            /nfs/nfs5/home/research/hardware/arm2/gcc-arm-embedded/gcc-arm-none-eabi-4_8-2014q2/bin/../lib/gcc/arm-none-eabi/4.8.4/../../../../arm-none-eabi/lib/armv7e-m/libg.a(lib_a-memcmp.o)
                                                  /nfs/nfs5/home/research/hardware/arm2/gcc-arm-embedded/gcc-arm-none-eabi-4_8-2014q2/bin/../lib/gcc/arm-none-eabi/4.8.4/../../../../arm-none-eabi/lib/armv7e-m/libg.a(lib_a-strstr.o)
memcpy                                            /nfs/nfs5/home/research/hardware/arm2/gcc-arm-embedded/gcc-arm-none-eabi-4_8-2014q2/bin/../lib/gcc/arm-none-eabi/4.8.4/../../../../arm-none-eabi/lib/armv7e-m/libg.a(lib_a-memcpy.o)
                                                  /nfs/nfs5/home/research/hardware/arm2/gcc-arm-embedded/gcc-arm-none-eabi-4_8-2014q2/bin/../lib/gcc/arm-none-eabi/4.8.4/../../../../arm-none-eabi/lib/armv7e-m/libg.a(lib_a-mprec.o)
                                                  /nfs/nfs5/home/research/hardware/arm2/gcc-arm-embedded/gcc-arm-none-eabi-4_8-2014q2/bin/../lib/gcc/arm-none-eabi/4.8.4/../../../../arm-none-eabi/lib/armv7e-m/libg.a(lib_a-dtoa.o)
                                                  /nfs/nfs5/home/research/hardware/arm2/gcc-arm-embedded/gcc-arm-none-eabi-4_8-2014q2/bin/../lib/gcc/arm-none-eabi/4.8.4/../../../../arm-none-eabi/lib/armv7e-m/libg.a(lib_a-svfiprintf.o)
                                                  build/obj/memstreams.o
                                                  build/obj/hal_buffers.o
memmove                                           /nfs/nfs5/home/research/hardware/arm2/gcc-arm-embedded/gcc-arm-none-eabi-4_8-2014q2/bin/../lib/gcc/arm-none-eabi/4.8.4/../../../../arm-none-eabi/lib/armv7e-m/libg.a(lib_a-memmove.o)
                                                  /nfs/nfs5/home/research/hardware/arm2/gcc-arm-embedded/gcc-arm-none-eabi-4_8-2014q2/bin/../lib/gcc/arm-none-eabi/4.8.4/../../../../arm-none-eabi/lib/armv7e-m/libg.a(lib_a-reallocr.o)
                                                  /nfs/nfs5/home/research/hardware/arm2/gcc-arm-embedded/gcc-arm-none-eabi-4_8-2014q2/bin/../lib/gcc/arm-none-eabi/4.8.4/../../../../arm-none-eabi/lib/armv7e-m/libg.a(lib_a-svfiprintf.o)
memset                                            /nfs/nfs5/home/research/hardware/arm2/gcc-arm-embedded/gcc-arm-none-eabi-4_8-2014q2/bin/../lib/gcc/arm-none-eabi/4.8.4/../../../../arm-none-eabi/lib/armv7e-m/libg.a(lib_a-memset.o)
                                                  /nfs/nfs5/home/research/hardware/arm2/gcc-arm-embedded/gcc-arm-none-eabi-4_8-2014q2/bin/../lib/gcc/arm-none-eabi/4.8.4/../../../../arm-none-eabi/lib/armv7e-m/libg.a(lib_a-callocr.o)
                                                  build/obj/syscalls.o
mmcConnect                                        build/obj/mmc_spi.o
                                                  build/obj/main.o
mmcDisconnect                                     build/obj/mmc_spi.o
mmcErase                                          build/obj/mmc_spi.o
mmcGetInfo                                        build/obj/mmc_spi.o
mmcInit                                           build/obj/mmc_spi.o
                                                  build/obj/hal.o
mmcObjectInit                                     build/obj/mmc_spi.o
                                                  build/obj/main.o
mmcSequentialRead                                 build/obj/mmc_spi.o
                                                  build/obj/fatfs_diskio.o
mmcSequentialWrite                                build/obj/mmc_spi.o
                                                  build/obj/fatfs_diskio.o
mmcStart                                          build/obj/mmc_spi.o
                                                  build/obj/main.o
mmcStartSequentialRead                            build/obj/mmc_spi.o
                                                  build/obj/fatfs_diskio.o
mmcStartSequentialWrite                           build/obj/mmc_spi.o
                                                  build/obj/fatfs_diskio.o
mmcStop                                           build/obj/mmc_spi.o
mmcStopSequentialRead                             build/obj/mmc_spi.o
                                                  build/obj/fatfs_diskio.o
mmcStopSequentialWrite                            build/obj/mmc_spi.o
                                                  build/obj/fatfs_diskio.o
mmcSync                                           build/obj/mmc_spi.o
mmc_lld_is_card_inserted                          build/obj/board.o
                                                  build/obj/mmc_spi.o
mmc_lld_is_write_protected                        build/obj/board.o
                                                  build/obj/fatfs_diskio.o
                                                  build/obj/mmc_spi.o
msObjectInit                                      build/obj/memstreams.o
                                                  build/obj/chprintf.o
nvicClearPending                                  build/obj/nvic.o
nvicDisableVector                                 build/obj/nvic.o
                                                  build/obj/gpt_lld.o
                                                  build/obj/ext_lld_isr.o
                                                  build/obj/stm32_dma.o
nvicEnableVector                                  build/obj/nvic.o
                                                  build/obj/serial_lld.o
                                                  build/obj/gpt_lld.o
                                                  build/obj/ext_lld_isr.o
                                                  build/obj/adc_lld.o
                                                  build/obj/st_lld.o
                                                  build/obj/stm32_dma.o
nvicSetSystemHandlerPriority                      build/obj/nvic.o
obqFlush                                          build/obj/hal_buffers.o
obqGetEmptyBufferTimeout                          build/obj/hal_buffers.o
obqGetEmptyBufferTimeoutS                         build/obj/hal_buffers.o
obqGetFullBufferI                                 build/obj/hal_buffers.o
obqObjectInit                                     build/obj/hal_buffers.o
obqPostFullBuffer                                 build/obj/hal_buffers.o
obqPostFullBufferS                                build/obj/hal_buffers.o
obqPutTimeout                                     build/obj/hal_buffers.o
obqReleaseEmptyBufferI                            build/obj/hal_buffers.o
obqResetI                                         build/obj/hal_buffers.o
obqTryFlushI                                      build/obj/hal_buffers.o
obqWriteTimeout                                   build/obj/hal_buffers.o
palReadBus                                        build/obj/pal.o
palSetBusMode                                     build/obj/pal.o
palWriteBus                                       build/obj/pal.o
pal_default_config                                build/obj/board.o
                                                  build/obj/hal.o
patternbmk                                        build/obj/testbmk.o
                                                  build/obj/test.o
patterndyn                                        build/obj/testdyn.o
                                                  build/obj/test.o
patternevt                                        build/obj/testevt.o
                                                  build/obj/test.o
patternheap                                       build/obj/testheap.o
                                                  build/obj/test.o
patternmbox                                       build/obj/testmbox.o
                                                  build/obj/test.o
patternmsg                                        build/obj/testmsg.o
                                                  build/obj/test.o
patternmtx                                        build/obj/testmtx.o
                                                  build/obj/test.o
patternpools                                      build/obj/testpools.o
                                                  build/obj/test.o
patternqueues                                     build/obj/testqueues.o
                                                  build/obj/test.o
patternsem                                        build/obj/testsem.o
                                                  build/obj/test.o
patternsys                                        build/obj/testsys.o
                                                  build/obj/test.o
patternthd                                        build/obj/testthd.o
                                                  build/obj/test.o
put_fat                                           build/obj/ff.o
rc                                                build/obj/main.o
rtcConvertDateTimeToFAT                           build/obj/rtc.o
                                                  build/obj/fatfs_diskio.o
rtcConvertDateTimeToStructTm                      build/obj/rtc.o
                                                  build/obj/main.o
rtcConvertStructTmToDateTime                      build/obj/rtc.o
                                                  build/obj/main.o
rtcGetAlarm                                       build/obj/rtc.o
rtcGetTime                                        build/obj/rtc.o
                                                  build/obj/main.o
                                                  build/obj/fatfs_diskio.o
rtcInit                                           build/obj/rtc.o
                                                  build/obj/hal.o
rtcObjectInit                                     build/obj/rtc.o
                                                  build/obj/rtc_lld.o
rtcSTM32GetPeriodicWakeup                         build/obj/rtc_lld.o
rtcSTM32SetPeriodicWakeup                         build/obj/rtc_lld.o
rtcSetAlarm                                       build/obj/rtc.o
rtcSetTime                                        build/obj/rtc.o
                                                  build/obj/main.o
rtc_lld_get_alarm                                 build/obj/rtc_lld.o
                                                  build/obj/rtc.o
rtc_lld_get_time                                  build/obj/rtc_lld.o
                                                  build/obj/rtc.o
rtc_lld_init                                      build/obj/rtc_lld.o
                                                  build/obj/rtc.o
rtc_lld_set_alarm                                 build/obj/rtc_lld.o
                                                  build/obj/rtc.o
rtc_lld_set_time                                  build/obj/rtc_lld.o
                                                  build/obj/rtc.o
sdGetWouldBlock                                   build/obj/serial.o
sdIncomingDataI                                   build/obj/serial.o
                                                  build/obj/serial_lld.o
sdInit                                            build/obj/serial.o
                                                  build/obj/hal.o
sdObjectInit                                      build/obj/serial.o
                                                  build/obj/serial_lld.o
sdPutWouldBlock                                   build/obj/serial.o
sdRequestDataI                                    build/obj/serial.o
sdStart                                           build/obj/serial.o
                                                  build/obj/main.o
sdStop                                            build/obj/serial.o
sd_lld_init                                       build/obj/serial_lld.o
                                                  build/obj/serial.o
sd_lld_start                                      build/obj/serial_lld.o
                                                  build/obj/serial.o
sd_lld_stop                                       build/obj/serial_lld.o
                                                  build/obj/serial.o
setlocale                                         /nfs/nfs5/home/research/hardware/arm2/gcc-arm-embedded/gcc-arm-none-eabi-4_8-2014q2/bin/../lib/gcc/arm-none-eabi/4.8.4/../../../../arm-none-eabi/lib/armv7e-m/libg.a(lib_a-locale.o)
shellCreate                                       build/obj/shell.o
                                                  build/obj/main.o
shellCreateStatic                                 build/obj/shell.o
shellExit                                         build/obj/shell.o
shellGetLine                                      build/obj/shell.o
shellInit                                         build/obj/shell.o
                                                  build/obj/main.o
shell_terminated                                  build/obj/shell.o
                                                  build/obj/main.o
siprintf                                          /nfs/nfs5/home/research/hardware/arm2/gcc-arm-embedded/gcc-arm-none-eabi-4_8-2014q2/bin/../lib/gcc/arm-none-eabi/4.8.4/../../../../arm-none-eabi/lib/armv7e-m/libg.a(lib_a-siprintf.o)
                                                  /nfs/nfs5/home/research/hardware/arm2/gcc-arm-embedded/gcc-arm-none-eabi-4_8-2014q2/bin/../lib/gcc/arm-none-eabi/4.8.4/../../../../arm-none-eabi/lib/armv7e-m/libg.a(lib_a-asctime_r.o)
spiAcquireBus                                     build/obj/spi.o
spiExchange                                       build/obj/spi.o
spiIgnore                                         build/obj/spi.o
                                                  build/obj/mmc_spi.o
spiInit                                           build/obj/spi.o
                                                  build/obj/hal.o
spiObjectInit                                     build/obj/spi.o
                                                  build/obj/spi_lld.o
spiReceive                                        build/obj/spi.o
                                                  build/obj/mmc_spi.o
spiReleaseBus                                     build/obj/spi.o
spiSelect                                         build/obj/spi.o
                                                  build/obj/mmc_spi.o
spiSend                                           build/obj/spi.o
                                                  build/obj/mmc_spi.o
spiStart                                          build/obj/spi.o
                                                  build/obj/mmc_spi.o
spiStartExchange                                  build/obj/spi.o
spiStartIgnore                                    build/obj/spi.o
spiStartReceive                                   build/obj/spi.o
spiStartSend                                      build/obj/spi.o
spiStop                                           build/obj/spi.o
                                                  build/obj/mmc_spi.o
spiUnselect                                       build/obj/spi.o
                                                  build/obj/mmc_spi.o
spi_lld_exchange                                  build/obj/spi_lld.o
                                                  build/obj/spi.o
spi_lld_ignore                                    build/obj/spi_lld.o
                                                  build/obj/spi.o
spi_lld_init                                      build/obj/spi_lld.o
                                                  build/obj/spi.o
spi_lld_polled_exchange                           build/obj/spi_lld.o
spi_lld_receive                                   build/obj/spi_lld.o
                                                  build/obj/spi.o
spi_lld_select                                    build/obj/spi_lld.o
                                                  build/obj/spi.o
spi_lld_send                                      build/obj/spi_lld.o
                                                  build/obj/spi.o
spi_lld_start                                     build/obj/spi_lld.o
                                                  build/obj/spi.o
spi_lld_stop                                      build/obj/spi_lld.o
                                                  build/obj/spi.o
spi_lld_unselect                                  build/obj/spi_lld.o
                                                  build/obj/spi.o
sprintf                                           /nfs/nfs5/home/research/hardware/arm2/gcc-arm-embedded/gcc-arm-none-eabi-4_8-2014q2/bin/../lib/gcc/arm-none-eabi/4.8.4/../../../../arm-none-eabi/lib/armv7e-m/libg.a(lib_a-sprintf.o)
                                                  build/obj/main.o
stGetAlarm                                        build/obj/st.o
stInit                                            build/obj/st.o
                                                  build/obj/hal.o
stSetAlarm                                        build/obj/st.o
                                                  build/obj/chvt.o
                                                  build/obj/chsys.o
stStartAlarm                                      build/obj/st.o
                                                  build/obj/chvt.o
stStopAlarm                                       build/obj/st.o
                                                  build/obj/chvt.o
                                                  build/obj/chsys.o
st_lld_init                                       build/obj/st_lld.o
                                                  build/obj/st.o
stm32_clock_init                                  build/obj/hal_lld.o
                                                  build/obj/board.o
strchr                                            /nfs/nfs5/home/research/hardware/arm2/gcc-arm-embedded/gcc-arm-none-eabi-4_8-2014q2/bin/../lib/gcc/arm-none-eabi/4.8.4/../../../../arm-none-eabi/lib/armv7e-m/libg.a(lib_a-strchr.o)
                                                  /nfs/nfs5/home/research/hardware/arm2/gcc-arm-embedded/gcc-arm-none-eabi-4_8-2014q2/bin/../lib/gcc/arm-none-eabi/4.8.4/../../../../arm-none-eabi/lib/armv7e-m/libg.a(lib_a-strstr.o)
strcmp                                            /nfs/nfs5/home/research/hardware/arm2/gcc-arm-embedded/gcc-arm-none-eabi-4_8-2014q2/bin/../lib/gcc/arm-none-eabi/4.8.4/../../../../arm-none-eabi/lib/armv7e-m/libg.a(lib_a-strcmp.o)
                                                  /nfs/nfs5/home/research/hardware/arm2/gcc-arm-embedded/gcc-arm-none-eabi-4_8-2014q2/bin/../lib/gcc/arm-none-eabi/4.8.4/../../../../arm-none-eabi/lib/armv7e-m/libg.a(lib_a-locale.o)
                                                  build/obj/shell.o
strlen                                            /nfs/nfs5/home/research/hardware/arm2/gcc-arm-embedded/gcc-arm-none-eabi-4_8-2014q2/bin/../lib/gcc/arm-none-eabi/4.8.4/../../../../arm-none-eabi/lib/armv7e-m/libg.a(lib_a-strlen.o)
                                                  /nfs/nfs5/home/research/hardware/arm2/gcc-arm-embedded/gcc-arm-none-eabi-4_8-2014q2/bin/../lib/gcc/arm-none-eabi/4.8.4/../../../../arm-none-eabi/lib/armv7e-m/libg.a(lib_a-svfprintf.o)
                                                  /nfs/nfs5/home/research/hardware/arm2/gcc-arm-embedded/gcc-arm-none-eabi-4_8-2014q2/bin/../lib/gcc/arm-none-eabi/4.8.4/../../../../arm-none-eabi/lib/armv7e-m/libg.a(lib_a-svfiprintf.o)
                                                  build/obj/main.o
strpbrk                                           /nfs/nfs5/home/research/hardware/arm2/gcc-arm-embedded/gcc-arm-none-eabi-4_8-2014q2/bin/../lib/gcc/arm-none-eabi/4.8.4/../../../../arm-none-eabi/lib/armv7e-m/libg.a(lib_a-strpbrk.o)
                                                  build/obj/shell.o
strspn                                            /nfs/nfs5/home/research/hardware/arm2/gcc-arm-embedded/gcc-arm-none-eabi-4_8-2014q2/bin/../lib/gcc/arm-none-eabi/4.8.4/../../../../arm-none-eabi/lib/armv7e-m/libg.a(lib_a-strspn.o)
                                                  build/obj/shell.o
strstr                                            /nfs/nfs5/home/research/hardware/arm2/gcc-arm-embedded/gcc-arm-none-eabi-4_8-2014q2/bin/../lib/gcc/arm-none-eabi/4.8.4/../../../../arm-none-eabi/lib/armv7e-m/libg.a(lib_a-strstr.o)
                                                  build/obj/main.o
strtol                                            /nfs/nfs5/home/research/hardware/arm2/gcc-arm-embedded/gcc-arm-none-eabi-4_8-2014q2/bin/../lib/gcc/arm-none-eabi/4.8.4/../../../../arm-none-eabi/lib/armv7e-m/libg.a(lib_a-strtol.o)
                                                  /nfs/nfs5/home/research/hardware/arm2/gcc-arm-embedded/gcc-arm-none-eabi-4_8-2014q2/bin/../lib/gcc/arm-none-eabi/4.8.4/../../../../arm-none-eabi/lib/armv7e-m/libg.a(lib_a-atoi.o)
tempList                                          build/obj/main.o
temperature                                       build/obj/main.o
test                                              build/obj/test.o
                                                  build/obj/testqueues.o
                                                  build/obj/testdyn.o
                                                  build/obj/testheap.o
                                                  build/obj/testmbox.o
test_emit_token                                   build/obj/test.o
                                                  build/obj/testqueues.o
                                                  build/obj/testdyn.o
                                                  build/obj/testevt.o
                                                  build/obj/testmbox.o
                                                  build/obj/testmsg.o
                                                  build/obj/testmtx.o
                                                  build/obj/testsem.o
                                                  build/obj/testthd.o
test_global_fail                                  build/obj/test.o
test_print                                        build/obj/test.o
                                                  build/obj/testbmk.o
test_println                                      build/obj/test.o
                                                  build/obj/testbmk.o
test_printn                                       build/obj/test.o
                                                  build/obj/testbmk.o
test_start_timer                                  build/obj/test.o
                                                  build/obj/testbmk.o
test_terminate_threads                            build/obj/test.o
                                                  build/obj/testbmk.o
test_timer_done                                   build/obj/test.o
                                                  build/obj/testbmk.o
test_wait_threads                                 build/obj/test.o
                                                  build/obj/testbmk.o
                                                  build/obj/testqueues.o
                                                  build/obj/testdyn.o
                                                  build/obj/testevt.o
                                                  build/obj/testmtx.o
                                                  build/obj/testsem.o
                                                  build/obj/testthd.o
test_wait_tick                                    build/obj/test.o
                                                  build/obj/testbmk.o
                                                  build/obj/testevt.o
                                                  build/obj/testsem.o
                                                  build/obj/testthd.o
testbmk1                                          build/obj/testbmk.o
testbmk10                                         build/obj/testbmk.o
testbmk11                                         build/obj/testbmk.o
testbmk12                                         build/obj/testbmk.o
testbmk13                                         build/obj/testbmk.o
testbmk2                                          build/obj/testbmk.o
testbmk3                                          build/obj/testbmk.o
testbmk4                                          build/obj/testbmk.o
testbmk5                                          build/obj/testbmk.o
testbmk6                                          build/obj/testbmk.o
testbmk7                                          build/obj/testbmk.o
testbmk8                                          build/obj/testbmk.o
testbmk9                                          build/obj/testbmk.o
testdyn1                                          build/obj/testdyn.o
testdyn2                                          build/obj/testdyn.o
testdyn3                                          build/obj/testdyn.o
testevt1                                          build/obj/testevt.o
testevt2                                          build/obj/testevt.o
testevt3                                          build/obj/testevt.o
testheap1                                         build/obj/testheap.o
testmbox1                                         build/obj/testmbox.o
testmsg1                                          build/obj/testmsg.o
testmtx1                                          build/obj/testmtx.o
testmtx4                                          build/obj/testmtx.o
testmtx5                                          build/obj/testmtx.o
testmtx6                                          build/obj/testmtx.o
testmtx7                                          build/obj/testmtx.o
testmtx8                                          build/obj/testmtx.o
testpools1                                        build/obj/testpools.o
testqueues1                                       build/obj/testqueues.o
testqueues2                                       build/obj/testqueues.o
testsem1                                          build/obj/testsem.o
testsem2                                          build/obj/testsem.o
testsem3                                          build/obj/testsem.o
testsem4                                          build/obj/testsem.o
testsys1                                          build/obj/testsys.o
testsys2                                          build/obj/testsys.o
testsys3                                          build/obj/testsys.o
testthd1                                          build/obj/testthd.o
testthd2                                          build/obj/testthd.o
testthd3                                          build/obj/testthd.o
testthd4                                          build/obj/testthd.o
threads                                           build/obj/test.o
                                                  build/obj/testbmk.o
                                                  build/obj/testqueues.o
                                                  build/obj/testdyn.o
                                                  build/obj/testevt.o
                                                  build/obj/testmsg.o
                                                  build/obj/testmtx.o
                                                  build/obj/testsem.o
                                                  build/obj/testthd.o
total_count                                       build/obj/main.o
trailExtcfg                                       build/obj/main.o
wa                                                build/obj/test.o
                                                  build/obj/testbmk.o
                                                  build/obj/testqueues.o
                                                  build/obj/testdyn.o
                                                  build/obj/testpools.o
                                                  build/obj/testevt.o
                                                  build/obj/testmsg.o
                                                  build/obj/testmtx.o
                                                  build/obj/testsem.o
                                                  build/obj/testthd.o
