ARM GAS  /tmp/ccuCDCR2.s 			page 1


   1              		.syntax unified
   2              		.cpu cortex-m4
   3              		.fpu softvfp
   4              		.eabi_attribute 20, 1
   5              		.eabi_attribute 21, 1
   6              		.eabi_attribute 23, 3
   7              		.eabi_attribute 24, 1
   8              		.eabi_attribute 25, 1
   9              		.eabi_attribute 26, 1
  10              		.eabi_attribute 30, 2
  11              		.eabi_attribute 34, 1
  12              		.eabi_attribute 18, 4
  13              		.thumb
  14              		.file	"chheap.c"
  15              		.text
  16              	.Ltext0:
  17              		.section	.gnu.lto_.jmpfuncs.b55afc261d902dac,"",%progbits
  18 0000 789C6362 		.ascii	"x\234cb`b\300\0062\2404+\003\003#S5\303\257\206\216"
  18      6062C006 
  18      32A0342B 
  18      03032353 
  18      35C3AF86 
  19 0015 06814C46 		.ascii	"\006\201LF\006m\206U\015\015 \026c.#C\022#\\9#\343\203"
  19      066D8655 
  19      0D0D2016 
  19      632E2343 
  19      12235C39 
  20 002c FF50C018 		.ascii	"\377P\300\030\301\230\311\0104\224\231\235\221\245\001"
  20      C198C908 
  20      3494999D 
  20      91A501
  21 003b C8042962 		.ascii	"\310\004)ba\006\222pT\0174\226\021\302d\203J0\000\000"
  21      61069270 
  21      540F3496 
  21      11C26483 
  21      4A300000 
  22 004f 14D512C5 		.ascii	"\024\325\022\305"
  23              		.text
  24              		.section	.gnu.lto_.inline.b55afc261d902dac,"",%progbits
  25 0000 789C6362 		.ascii	"x\234cb`b\300\006L\031!4+\003\003\207\000#\003\023\333"
  25      6062C006 
  25      4C192134 
  25      2B030387 
  25      00230313 
  26 0015 073D06B6 		.ascii	"\007=\006\266\005\362`\305L\334\014\014\214\014\314"
  26      05F260C5 
  26      4CDC0C0C 
  26      8C0CCC
  27 0024 0CDCC28C 		.ascii	"\014\334\302\214LL`u \202\231\265C\235\201{\205\033"
  27      4C4C6075 
  27      208299B5 
  27      439D817B 
  27      851B
  28 0036 1303D305 		.ascii	"\023\003\323\005~\026\270\272\011~,\014\372\037\030"
  28      7E16B8BA 
  28      097E2C0C 
  28      FA1F18
ARM GAS  /tmp/ccuCDCR2.s 			page 2


  29 0045 185918D2 		.ascii	"\030Y\030\322#\0303\031\231A\022\031p\026H##\210`1\353"
  29      23183319 
  29      99411219 
  29      70164823 
  29      23886031 
  30 005a E8E184D8 		.ascii	"\350\341\204\330\300\262@^\200\201c\237\236\002\222"
  30      C0B2405E 
  30      8081639F 
  30      9E0292
  31 0069 19A814AB 		.ascii	"\031\250\024\253 \204b\320\331\303\010\324\015\266\335"
  31      208462D0 
  31      D9C308D4 
  31      0DB6DD
  32 0078 61D53561 		.ascii	"a\3255a\006\276\031\316\030\326C)6\006\241\273\014\214"
  32      06BE19CE 
  32      18D64329 
  32      3606A1BB 
  32      0C8C
  33 008a 6CD85CC1 		.ascii	"l\330\\\301\010f\201\3640\246\303X\010\227\261\361<"
  33      086681F4 
  33      30A6C358 
  33      0897B1F1 
  33      3C
  34 009b 79C40E77 		.ascii	"y\304\016w\231\003\210h\000\332\331\304.\300\004&1\255"
  34      99038868 
  34      00DAD9C4 
  34      2EC00426 
  34      31AD
  35 00ad 62000049 		.ascii	"b\000\000I\345%f"
  35      E52566
  36              		.text
  37              		.section	.gnu.lto_.pureconst.b55afc261d902dac,"",%progbits
  38 0000 789C6362 		.ascii	"x\234cb`b\340f\200\000V\006\011f)\026)V)6)\000\004?"
  38      6062E066 
  38      80005606 
  38      09662916 
  38      29562936 
  39 0018 00A7     		.ascii	"\000\247"
  40              		.text
  41              		.section	.gnu.lto__heap_init.b55afc261d902dac,"",%progbits
  42 0000 789C6362 		.ascii	"x\234cb`b@\007\222@\374\225\221\201A\001H32302M8\307"
  42      60624007 
  42      9240FC95 
  42      91814101 
  42      48333233 
  43 0019 C0D0C8C1 		.ascii	"\300\320\310\301\304\310\010b002\32431\326G2\202\325"
  43      C4C80862 
  43      303032D4 
  43      3331D647 
  43      3282D5
  44 002c AE673AF0 		.ascii	"\256g:\360\340\377\377u\337\216M\277\3038\207\211\015"
  44      E0FFFF75 
  44      DF8E4DBF 
  44      C3388789 
  44      0D
  45 003d 28C2CAD0 		.ascii	"(\302\312\320\322\3200\001\2507\031\254\"\004H\202\264"
  45      D2D03001 
ARM GAS  /tmp/ccuCDCR2.s 			page 3


  45      A83719AC 
  45      22044882 
  45      B4
  46 004e 85323281 		.ascii	"\20522\201h\346\263\014M\277\232\277\367Z'2.dde\320"
  46      68E6B30C 
  46      4DBF9ABF 
  46      F75A2732 
  46      2E646465 
  47 0063 6658D500 		.ascii	"fX\325\000\004\366\231\214\014\263\031f564\010d22V3"
  47      04F6998C 
  47      0CB31966 
  47      35363408 
  47      64323256 
  48 0078 FC6AE800 		.ascii	"\374j\350\000\261\230r\301FD0\002\231`\333\222 \226"
  48      B19872C1 
  48      46443002 
  48      9960DB92 
  48      2096
  49 008a 32405434 		.ascii	"2@T4Tg22'3B\304\200\346\356\270\361\376\000\013\212"
  49      54673232 
  49      273342C4 
  49      80E6EEB8 
  49      F1FE000B 
  50 009f B9A5998C 		.ascii	"\271\245\231\214,Pfa&#+\224\031\233\311\310\206\260"
  50      2C506661 
  50      26232B94 
  50      199BC9C8 
  50      86B0
  51 00b1 989D388B 		.ascii	"\230\2358\213\031\2414\214\317\014\245Y\030`*Y`\316"
  51      19A1348C 
  51      CF0CA559 
  51      18602A59 
  51      60CE
  52 00c3 F8F1FE03 		.ascii	"\370\361\376\0033\2123\200vsP\323nV\270\235\034 \306"
  52      338A3380 
  52      767350D3 
  52      6E56B89D 
  52      1C20C6
  53 00d6 79869607 		.ascii	"y\206\226\007'\017sA\254\204\005\016\320$\316d\250\016"
  53      270F7341 
  53      AC84050E 
  53      D024CE64 
  53      A80E
  54 00e8 90084726 		.ascii	"\220\010G&#\027\324\342\211@\215\334@[\222\030\331\300"
  54      2317D4E2 
  54      89408DDC 
  54      405B9218 
  54      D9C0
  55 00fa D2508D99 		.ascii	"\322P\215\231\214<\014\014\027\031\032\037\234U\206"
  55      8C3C0C0C 
  55      17191A1F 
  55      9C5586
  56 0109 19050121 		.ascii	"\031\005\001!@\007\000\243\016d\226\234\236\236\276"
  56      400700A3 
  56      0E64969C 
  56      9E9EBE
  57 0118 73466652 		.ascii	"sFfR\246\177\260~~\261~Q\211~qQ\262~rFFjb\201^2\003"
ARM GAS  /tmp/ccuCDCR2.s 			page 4


  57      A67FB07E 
  57      7EB17E51 
  57      897E7151 
  57      B27E7246 
  58 0133 00236885 		.ascii	"\000#h\205\015"
  58      0D
  59              		.text
  60              		.section	.gnu.lto_chHeapObjectInit.b55afc261d902dac,"",%progbits
  61 0000 789CA552 		.ascii	"x\234\245R\275/\004Q\020\377\315\333[\356\254\257V#"
  61      BD2F0451 
  61      10FFCDDB 
  61      5BEEACAF 
  61      5623
  62 0012 9C6888DB 		.ascii	"\234h\210\333(\374\005\376\000\021$\224g#w\257\270\020"
  62      28FC05FE 
  62      00112494 
  62      672377AF 
  62      B810
  63 0024 A7A2F038 		.ascii	"\247\242\3608\011\252\273h\010\015J\005\355\225\253"
  63      09AABB68 
  63      080D4A05 
  63      ED95AB
  64 0033 210A5F89 		.ascii	"!\012_\211\204\362J\235\222\220\334\232\267\373\334"
  64      84F24A9D 
  64      9290DC9A 
  64      B7FBDC
  65 0042 E5444462 		.ascii	"\345DDb\222\235\231\315\316\373}\314>\001\201\357\321"
  65      929D99CD 
  65      CEFB7DCC 
  65      3E0181EF 
  65      D1
  66 0053 C54F8705 		.ascii	"\305O\207\005\364q%\013$J7\300Z\\\020\351\006\204UA"
  66      F471250B 
  66      244A37C0 
  66      5A5C10E9 
  66      06845541 
  67 0067 AB3314CE 		.ascii	"\2533\024\316\236\011\277\022\004\247\017\227\027\347"
  67      9E09BF12 
  67      04A70F97 
  67      17E7
  68 0075 B4DDDF46 		.ascii	"\264\335\337F\224#X\234(\316I$ \011\016'=lcC\251RO\022"
  68      9423589C 
  68      28CE4924 
  68      20090E27 
  68      3D6C6343 
  69 008d 474AEDF8 		.ascii	"GJ\355\370\217\233\273]\352p\275\244\252A@\222\204@"
  69      8F9BBB5D 
  69      EA70BDA4 
  69      AA414092 
  69      8440
  70 009f 2FC1234C 		.ascii	"/\301#L\363\213\325\023\226X\254QW\216\305\350\021\216"
  70      F38BD513 
  70      9658AC51 
  70      578EC5E8 
  70      118E
  71 00b1 49CE5ACC 		.ascii	"I\316Z\314\024\011]\255+\2104\035\221\2154\035S\022"
  71      14095DAD 
ARM GAS  /tmp/ccuCDCR2.s 			page 5


  71      2B88341D 
  71      918D341D 
  71      5312
  72 00c3 194D788D 		.ascii	"\031Mx\215\365\362\333\307\263\3710\210\023\3051,\311"
  72      F5F2DBC7 
  72      B3F93088 
  72      13C5312C 
  72      C9
  73 00d4 3EC03EA3 		.ascii	">\300>\2437e\310\322,\315!\366ld'\344\265u\303\247\257"
  73      3765C8D2 
  73      2CCD21F6 
  73      6C6427E4 
  73      B575C3A7 
  74 00e9 F6AA7756 		.ascii	"\366\252wV\303\351\031\026j\332)Iq\323\216KJ\324\341"
  74      C3E91916 
  74      6ADA2949 
  74      71D38E4B 
  74      4AD4E1
  75 00fc 5B7E8627 		.ascii	"[~\206'S\205\251\226\251\221\307\232\340r\325o\244d"
  75      5385A996 
  75      A991C79A 
  75      E072D56F 
  75      A464
  76 010e 1EE73F3C 		.ascii	"\036\347?<v\315\226cl\225\237\252~\343RF\352\266\206"
  76      76CD9663 
  76      6C959FAA 
  76      7EE35246 
  76      EAB686
  77 0121 EBB61CA6 		.ascii	"\353\266\034\246\2138ZX\236F\020\277z\250M\\\243\260"
  77      8B385A58 
  77      9E4610BF 
  77      7AA84D5C 
  77      A3B0
  78 0133 5578290E 		.ascii	"Ux)\016E\034\031Jd(\036\012x\013\202\240\303\354\366"
  78      451C194A 
  78      64281E0A 
  78      780B82A0 
  78      C3ECF6
  79 0146 AEF9FB7F 		.ascii	"\256\371\373\177q\376\314k\233\235%B\250\367\302kq\340"
  79      71FECC6B 
  79      9B9D2542 
  79      A8F7C26B 
  79      71E0
  80 0158 8BCB59C1 		.ascii	"\213\313Y\3012_7\003\225\227\324\372\363\232\232\352"
  80      325F3703 
  80      9597D4FA 
  80      F39A9AEA 
  81 0168 D7EA161B 		.ascii	"\327\352\026\033\2769\017\254\340]m\251NIm\236Y%cJj"
  81      BE390FAC 
  81      E05D6DA9 
  81      4E496D9E 
  81      5925634A 
  82 017d 07EEB156 		.ascii	"\007\356\261V\331\356\377\232\213b\222g\370\372i]\335"
  82      D9EEFF9A 
  82      8B629267 
  82      F8FA695D 
  82      DD
ARM GAS  /tmp/ccuCDCR2.s 			page 6


  83 018e A9943B9A 		.ascii	"\251\224;\232\225\263rl\302\235\317\273\213Kn~\321s"
  83      95B3726C 
  83      C29DCFBB 
  83      8B4B6E7E 
  83      D173
  84 01a0 BD6C762E 		.ascii	"\275lv.\275\220\362 \262\013\237\316\037\267\321"
  84      BD90F220 
  84      B20B9FCE 
  84      1FB7D1
  85              		.text
  86              		.section	.gnu.lto_chHeapAlloc.b55afc261d902dac,"",%progbits
  87 0000 789CC556 		.ascii	"x\234\305V]h\034U\024>\347\336\335\231\331\277\331-"
  87      5D681C55 
  87      143EE7DE 
  87      DD99D9BF 
  87      D92D
  88 0012 094D91D6 		.ascii	"\011M\221\326\256\213\265h!\241\024\221Pj\221\372.b"
  88      AE8BB568 
  88      21A11491 
  88      506A91FA 
  88      2E62
  89 0024 03FA6612 		.ascii	"\003\372f\022c2\017\305\264\325\027\363\220Iv\013\321"
  89      63320FC5 
  89      B4D517F3 
  89      9049760B 
  89      D1
  90 0035 FA1085A4 		.ascii	"\372\020\205\244\376\364!\245\224\202\242\001\177H\260"
  90      FEF421A5 
  90      9482A201 
  90      7F48B0
  91 0044 916E43A9 		.ascii	"\221nC\251I\252\261}\220\246\322\322\264\032\012V\320"
  91      49AAB17D 
  91      90A6D2D2 
  91      B41A0A56 
  91      D0
  92 0055 E0436A10 		.ascii	"\340Cj\020\326s\356\2753;[\243\331>\210\003{\177\346"
  92      D673EEBD 
  92      333B5BA3 
  92      D93E8803 
  92      7B7FE6
  93 0068 9EF39DEF 		.ascii	"\236\363\235\357\374\3343+@\300\275\317W\364\353H\002"
  93      FCDC332B 
  93      40C0BDCF 
  93      57F4EB48 
  93      02
  94 0079 3C4A33E6 		.ascii	"<J3\346\000\305\360<\300\200#\204\274\226\002?\031\373"
  94      00C5F03C 
  94      C0802384 
  94      BC96023F 
  94      19FB
  95 008b 7C1AC04F 		.ascii	"|\032\300OK\214\351\3671L\352E\\X\323\222\004\262\363"
  95      4B8CE9F7 
  95      314CEA45 
  95      5C58D392 
  95      04B2F3
  96 009e 732C6009 		.ascii	"s,`\011{h;m\035\036\3236&\264\224\023,\022\350\352E"
  96      7B683B6D 
ARM GAS  /tmp/ccuCDCR2.s 			page 7


  96      1D1ED336 
  96      26B49413 
  96      2C12E8EA 
  97 00b3 56033C95 		.ascii	"V\003<\225\024q\245\231L1L:%\322\027\324\326\235\343"
  97      1471A599 
  97      4C314C3A 
  97      25D217D4 
  97      D69DE3
  98 00c6 6D5A642E 		.ascii	"mZd.}\243\266e\244m&\320v\021y\001\010\375B\306\342"
  98      7DA3B665 
  98      A46D26D0 
  98      76117901 
  98      08FD42C6 
  99 00db 96ED24B2 		.ascii	"\226\355$\262\311T:\343b\377\013\310\356\310\002\234"
  99      C9543AE3 
  99      62FF0BC8 
  99      EEC8029C 
 100 00eb F0FD7716 		.ascii	"\360\375w\026\217|\264,\336\363\313\2451\377\317J\005"
 100      8F7CB42C 
 100      DEF3CBA5 
 100      31FFCF4A 
 100      05
 101 00fc D14372FD 		.ascii	"\321Cr\375!\204N\204\347i\203y5\211Xm,\264\256\277\362"
 101      21844E84 
 101      E7698379 
 101      3589586D 
 101      2CB4AEBF 
 102 0111 D28C5F2A 		.ascii	"\322\214_*W*{\225\326\303uj\275\335\025\325\332\276"
 102      572A7B95 
 102      D6C3756A 
 102      BDDD15D5 
 102      DABE
 103 0123 9ED6B828 		.ascii	"\236\326\270(/V*S\337O\376x\034\033\036A8\300Z\355x"
 103      2F562A53 
 103      DF4FFE78 
 103      1C1B1E41 
 103      38C05AED 
 104 0138 020B20C1 		.ascii	"\002\013 \301Ci!\275\261i@\207\266\261\004\011`\322"
 104      436921BD 
 104      B1694087 
 104      B6B10409 
 104      60D2
 105 014a 08A4E84D 		.ascii	"\010\244\350M\334\245\001\262|\226\343a\003o\033H\340"
 105      DCA501B2 
 105      7C96E361 
 105      036F1B48 
 105      E0
 106 015b 140934F2 		.ascii	"\024\0114\362f#\277n\342a\013\003n\245\301\312\363\266"
 106      6623BF6E 
 106      E2610B03 
 106      6EA5C1CA 
 106      F3B6
 107 016d 40522749 		.ascii	"@R'Ij\233\231\351\211C\311\367\207\363\032^\277\325"
 107      6A9B99E9 
 107      8943C9F7 
 107      87F31A5E 
 107      BFD5
ARM GAS  /tmp/ccuCDCR2.s 			page 8


 108 017f 48C06ED0 		.ascii	"H\300n\320\263\237\306\337,hCA\223\234\201\363\267\317"
 108      B39FC6DF 
 108      2C684341 
 108      939C81F3 
 108      B7CF
 109 0191 5D7F53B6 		.ascii	"]\177S\266\343i\214C7Z\354\241\035u\257\015%\224P\316"
 109      E3698C43 
 109      375AECA1 
 109      1D75AF0D 
 109      259450CE 
 110 01a5 C2E0E2F8 		.ascii	"\302\340\342\370\222\245\345\310\241>X\365\207|\177"
 110      92A5E5C8 
 110      A13E58F5 
 110      877C7F
 111 01b4 37491F40 		.ascii	"7I\037@\021\221\2161,I;\300b\335H\346\276\205\342P\361"
 111      11918E31 
 111      2C493BC0 
 111      62DD48E6 
 111      BE85E250 
 112 01c9 CEC80381 		.ascii	"\316\310\003\201\021\247\033m\266\343\260!:<S\354\010"
 112      11A71B6D 
 112      B6E3B021 
 112      3A3C53EC 
 112      08
 113 01da 8E1274AA 		.ascii	"\216\022t\252\216\356V*\225,\035\317\202\010l\"\035"
 113      8EEE562A 
 113      952C1DCF 
 113      82086C22 
 113      1D
 114 01eb B3FCE06A 		.ascii	"\263\374\340j\361\327\021+\320H2\023zvR\240v\300\207"
 114      F1D7112B 
 114      D0483213 
 114      7A7652A0 
 114      76C087
 115 01fe BCDCE361 		.ascii	"\274\334\343a\342\003x\237`\222d\277\352Q\007F\374\""
 115      E203789F 
 115      609264BF 
 115      EA510746 
 115      FC22
 116 0210 8A6503A2 		.ascii	"\212e\003\242\203EP\006}e$\214G\252\017^\247\024\355"
 116      83455006 
 116      7D65248C 
 116      47AA0F5E 
 116      A714ED
 117 0223 80C73C4C 		.ascii	"\200\307<L\255\215\031\001\375\016bZ\021L|r\036\246"
 117      AD8D1901 
 117      FD0E625A 
 117      114C7C72 
 117      1EA6
 118 0235 3B8D0481 		.ascii	";\215\004\201y\230\341\325U W,\201Z\246|c\316\015\243"
 118      7998E1D5 
 118      5520572C 
 118      815AA67C 
 118      63CE0DA3 
 119 0249 28272507 		.ascii	"('%\0071\016t\245T\314\317\036\011I\236T$]E\362\207"
 119      310E74A5 
 119      54CCCF1E 
ARM GAS  /tmp/ccuCDCR2.s 			page 9


 119      09499E54 
 119      245D45F2 
 120 025e 773F5DC6 		.ascii	"w?]\306\200dV\321s\214\367Ox\350j\246\024L\227\231\202"
 120      806456D1 
 120      738CF74F 
 120      78E86AA6 
 120      144C9799 
 121 0273 612ACC2C 		.ascii	"a*\314,\015\335\031(\335\036\330\031\242\250\360V\023"
 121      0DDD1928 
 121      DD1ED819 
 121      A2A8F056 
 121      13
 122 0284 69C12752 		.ascii	"i\301'R\252\324\235\036}2\020\312\221\220\312\217\243"
 122      AAD49D1E 
 122      7D3210CA 
 122      9190CA8F 
 122      A3
 123 0295 F4CF2F0D 		.ascii	"\364\317/\015<\036\321\317E\365m\270\202\222\251N~\366"
 123      3C1ED1CF 
 123      45F56DB8 
 123      8292A94E 
 123      7EF6
 124 02a7 4718CF0D 		.ascii	"G\030\317\015\212j\220\250>\217\271\253\345k\353\262"
 124      8A6A90A8 
 124      3E8FB9AB 
 124      E56BEBB2 
 125 02b7 8E99396E 		.ascii	"\216\2319n,\020\364\354\245\224\0066 \317\326\324@v"
 125      2C10F4EC 
 125      A5940636 
 125      20CFD6D4 
 125      4076
 126 02c9 AD8088F5 		.ascii	"\255\200\210\365\241\211e\340\203\243}(\036-\336\031"
 126      A18965E0 
 126      83A37D28 
 126      1E2DDE19 
 127 02d9 DD1CF8D0 		.ascii	"\335\034\370\320@\004\225\257am\352\033F'&7\023U\207"
 127      400495AF 
 127      616DEA1B 
 127      46272637 
 127      135587
 128 02ec 1BFF6F87 		.ascii	"\033\377o\207\033\352q\270Q\335\3037\212+\243\375\001"
 128      1BEA71B8 
 128      51DDC337 
 128      8A2BA3FD 
 128      01
 129 02fd F18D4145 		.ascii	"\361\215AEp\011\204\3564\321A\315\375dR\303\265\244"
 129      700984EE 
 129      34D141CD 
 129      FD6452C3 
 129      B5A4
 130 030f F6FC432D 		.ascii	"\366\374C-\256\311D\032\006M\032jabY\374')\325\251\271"
 130      AEC9441A 
 130      064D1A6A 
 130      616259FC 
 130      2729D5A9 
 131 0324 7877E2A6 		.ascii	"xw\342\246\250\213\354\277\\\234\360\236\264\321B\335"
 131      A88BECBF 
ARM GAS  /tmp/ccuCDCR2.s 			page 10


 131      5C9CF09E 
 131      B4D142DD 
 132 0334 91C18B93 		.ascii	"\221\301\213\223_\376\035\3276\313\326*\357]u'\3352"
 132      5FFE1DD7 
 132      36CBD62A 
 132      EF5D7527 
 132      DD32
 133 0346 A690BB4A 		.ascii	"\246\220\273Ji\361\347%\\\253\263\010#\245;\213*\324"
 133      69F1E725 
 133      5CABB308 
 133      23A53B8B 
 133      2AD4
 134 0358 2F9A825C 		.ascii	"/\232\202\\m1&\204c\012h?fa\354k\3006\352t\364\3615"
 134      6D312684 
 134      630A683F 
 134      6661EC6B 
 134      C036EA74 
 135 036f 5D3AE87E 		.ascii	"]:\350~B\027\357\302\370\254\010\020\334\232\342\335"
 135      4217EFC2 
 135      F8AC0810 
 135      DC9AE2DD 
 136 037f 5BF5A3F5 		.ascii	"[\365\243\365>\343\257z\315/\003\273B\340\252\212z\256"
 136      3EE3AF7A 
 136      CD2F03BB 
 136      42E0AA8A 
 136      7AAE
 137 0391 82A0F61B 		.ascii	"\202\240\366\033\233\272\262\211\316\262o\335x\221\203"
 137      9BBAB289 
 137      CEB26FDD 
 137      789183
 138 03a0 9B826929 		.ascii	"\233\202i)\331\371\325\256z|'\352go\206=q\253\242\236"
 138      D9F9D5AE 
 138      7A7C27EA 
 138      676F863D 
 138      71ABA29E 
 139 03b4 5BBB65DB 		.ascii	"[\273e\333QR\231P\205E\"-\2149\244\341c\323\004+\307"
 139      51529950 
 139      8545222D 
 139      8C39A4E1 
 139      63D3042B 
 140 03c9 760782F9 		.ascii	"v\007\202\371h\023$\202\345M\301I\201P\230S\336\343"
 140      68132482 
 140      E54DC149 
 140      81509853 
 140      DEE3
 141 03db 1E12E90F 		.ascii	"\036\022\351\017\272w\027\264\311s\303n\250pO \330f"
 141      BA7717B4 
 141      C973C36E 
 141      A8704F20 
 141      D866
 142 03ed 064E99A2 		.ascii	"\006N\231\242\272u\377EU\250\263\250\030\177\341\326"
 142      BA75FF45 
 142      55A8B3A8 
 142      187FE1D6 
 143 03fd E55AFCD6 		.ascii	"\345Z\374\326\352eX\0374r\031\250\220\306\216\332Q_"
 143      EA65581F 
 143      347219A8 
ARM GAS  /tmp/ccuCDCR2.s 			page 11


 143      90C68EDA 
 143      515F
 144 040f 9F867D1E 		.ascii	"\237\206}\036\006\376Q\001\006\011\324\037\3303\307"
 144      06FE5101 
 144      0609D41F 
 144      D833C7
 145 041e ED2000DB 		.ascii	"\355 \000\333\364\347\273|l>M\012dq\300\347\374\006"
 145      F4E7BB7C 
 145      6C3E4D0A 
 145      6471C0E7 
 145      FC06
 146 0430 46A5AADD 		.ascii	"F\245\252\335P[\007\310\345\277\030\227\351O$\233\227"
 146      505B07C8 
 146      E5BF1897 
 146      E94F249B 
 146      97
 147 0441 BA7E24D5 		.ascii	"\272~$\325{\342\332\365\315\204\230\371\351\240R\005"
 147      7BE2DAF5 
 147      CD8498F9 
 147      E9A05205 
 148 0451 484FFD9E 		.ascii	"HO\375\2366\313\224\252\177$M\346\377`ss\313\276\036"
 148      36CB94AA 
 148      7F244DE6 
 148      FF607373 
 148      CBBE1E
 149 0464 AFC37BE6 		.ascii	"\257\303{\346\271\226W\016\267\034z\265\345\360\241"
 149      B996570E 
 149      B71C7AB5 
 149      E5F0A1
 150 0473 CE96CE9E 		.ascii	"\316\226\316\236\236\256\366\336\346N\020\007{EO\257"
 150      9EAEF6DE 
 150      E64E1007 
 150      7B454FAF 
 151 0483 78B9F72F 		.ascii	"x\271\367/8\377[j"
 151      38FF5B6A 
 152              		.text
 153              		.section	.gnu.lto_chHeapFree.b55afc261d902dac,"",%progbits
 154 0000 789CAD55 		.ascii	"x\234\255UOh\024W\030\377\27673;\263;\023wc$d\2436v"
 154      4F681457 
 154      18FFBE37 
 154      333BB33B 
 154      13776324 
 155 0018 1504952C 		.ascii	"\025\004\225,RJ\021i=\364\324S\021\015\264\307d[\222"
 155      524A1169 
 155      3DF4D453 
 155      110DB4C7 
 155      645B92
 156 002b 3988A9A9 		.ascii	"9\210\251\251\227\206\342d\223C@\260\241\320V\015\266"
 156      9786E264 
 156      934340B0 
 156      A1D0560D 
 156      B6
 157 003c 0945845E 		.ascii	"\011E\204^\012\245\007\217\273\322\202+\325\324\233"
 157      0AA5078F 
 157      BBD2822B 
 157      D5D49B
 158 004b 8A6072E8 		.ascii	"\212`r\350\037\350\241Jl\022\327\320\361{\377ff\227"
ARM GAS  /tmp/ccuCDCR2.s 			page 12


 158      1FE8A14A 
 158      6C12D7D0 
 158      F17BFF66 
 158      6697
 159 005d C5648303 		.ascii	"\305d\203\003\363\275\367\275\367\276\337\357\373\367"
 159      F3BDF7BD 
 159      F7BEDFEF 
 159      FBF7
 160 006b 66183068 		.ascii	"f\0300h~\346\350}'\003p\210F\354\000d3w\000&\034\206"
 160      7EE6E87D 
 160      27037088 
 160      46EC0064 
 160      33770026 
 161 0081 869C18CC 		.ascii	"\206\234\030\314z\350B\2201\177\276\001\020x&\263\246"
 161      7AE84290 
 161      317FBE01 
 161      107826B3 
 161      A6
 162 0092 F793EA72 		.ascii	"\367\223\352r\351Y\314\276a\220\226\272s\213o\246\224"
 162      E959CCBE 
 162      619096BA 
 162      738B6FA6 
 162      94
 163 00a3 EA4AD566 		.ascii	"\352J\325f\2160MKS\007\323\0222\3152b\335\223\353\031"
 163      8E304D4B 
 163      5307D312 
 163      32CD3262 
 163      DD93EB19 
 164 00b7 F4E4BA2B 		.ascii	"\364\344\272+9\253\216\207\310'\200p\216\031\246\225"
 164      39AB8E87 
 164      C8278070 
 164      8E19A695 
 165 00c7 B29D74C6 		.ascii	"\262\235t\306\365\360\334\207\310=6\0120\037\004_.\376"
 165      F5F0DC87 
 165      C83D360A 
 165      301F045F 
 165      2EFE
 166 00d9 FACF1376 		.ascii	"\372\317\023v)\250L\315\005\353a\210\350#E\367:B\011"
 166      29A84CCD 
 166      05EB6188 
 166      E82345F7 
 166      3A4209
 167 00ec E1035270 		.ascii	"\341\003Rp\217\030\230\331\030\256\264\015V?\272\031"
 167      8F1898D9 
 167      18AEB40D 
 167      563FBA19 
 168 00fc 4C55C2F0 		.ascii	"LU\302\360\230\260\332\2679\253\312\243\013_\345\203"
 168      98B0DAB7 
 168      39ABCAA3 
 168      0B5FE583 
 169 010c B9F24CF0 		.ascii	"\271\362L\360?\021\372h0\330\277\221\345\217\254\262"
 169      3F11FA68 
 169      30D8BF91 
 169      E58FACB2 
 170 011c 18860FFF 		.ascii	"\030\206\017\377\373{i\035\273\366\"\014\342<\026\300"
 170      FB7B691D 
 170      BBF6220C 
ARM GAS  /tmp/ccuCDCR2.s 			page 13


 170      E23C16C0 
 171 012c C4530816 		.ascii	"\304S\010\026)\337\223b\323x\225FGm\246\301G\323%\001"
 171      29DF9362 
 171      D3789546 
 171      476DA6C1 
 171      47D32501 
 172 0140 DB485859 		.ascii	"\333HXY\022,\307\325N.\266\363\265..vp\321\315\327z"
 172      122CC7D5 
 172      4E2EB6F3 
 172      B52E2E76 
 172      70D1CDD7 
 173 0155 F82CCFCF 		.ascii	"\370,\317\317\365ru'Wwq\261\233\213>\276VP\340\364X"
 173      F5727527 
 173      577771B1 
 173      9B8B3EBE 
 173      5650E0F4 
 174 016a 30150433 		.ascii	"0\025\0043{\244.]\220\016\234B\312oI\344\370$\311\272"
 174      7BA42E5D 
 174      900E9C42 
 174      CA6F49E4 
 174      F824C9BA 
 175 017e 0103C868 		.ascii	"\001\003\310h0n\303\344\371\311\345+\251A\274\206\026"
 175      306EC3E4 
 175      F9C9E52B 
 175      A941BC86 
 175      16
 176 018f 0CA3358C 		.ascii	"\014\2435\214\246\010v-\014\303,\035\257\001\223{\022"
 176      A608762D 
 176      0CC32C1D 
 176      AF01937B 
 176      12
 177 01a0 8E4E00DC 		.ascii	"\216N\000\334\206\362\203{\377\326P\033\331\007\341"
 177      86F2837B 
 177      FFD6501B 
 177      D907E1
 178 01af 87809E01 		.ascii	"\207\200\236\001J\234\232\036\3671\245\246G}\264g\341"
 178      4A9C9A1E 
 178      F731A5A6 
 178      477DB467 
 178      E1
 179 01c0 32813A0A 		.ascii	"2\201:\012\03448\014\241\314\345\020\242\032u\033\327"
 179      1C34380C 
 179      A1CCE510 
 179      A21A751B 
 179      D7
 180 01d1 A05CC96B 		.ascii	"\240\\\311k\346\253\202\331\026\314\365\3110v\327\031"
 180      E6AB82D9 
 180      16CCF5C9 
 180      3076D719 
 181 01e1 873AE738 		.ascii	"\207:\3478L\240\212\356m\342\221ti2\341t\206\2026\342"
 181      4CA08AEE 
 181      6DE29174 
 181      6932E174 
 181      868236E2 
 182 01f5 DA71F494 		.ascii	"\332q\364\224F\237\027\350\216B\277\366\255\241\321"
 182      469F17E8 
 182      8E42BFF6 
ARM GAS  /tmp/ccuCDCR2.s 			page 14


 182      ADA1D1
 183 0204 D3E3F019 		.ascii	"\323\343\360\031\025\354 \034\3601\323\0323\321\023"
 183      15EC201C 
 183      F031D31A 
 183      33D113
 184 0213 0B604A43 		.ascii	"\013`JC\000\356\325t\220\363\321-\251\300\010\314GO"
 184      00EED574 
 184      90F3D12D 
 184      A9C008CC 
 184      474F
 185 0225 1E1C206B 		.ascii	"\036\034 k\272\004\0069A\244\232\237\316\335\204_\376"
 185      BA040639 
 185      41A49A9F 
 185      CEDD845F 
 185      FE
 186 0236 AACE7EE1 		.ascii	"\252\316~\341i~\024^\311\347>\220Vp\237~Nkl}\265\207"
 186      697E145E 
 186      C9E73E90 
 186      56709F7E 
 186      4E6B6C7D 
 187 024c C39840D7 		.ascii	"\303\230@\327\314 \253?\253\263\013\373\022%\304\330"
 187      CC20AB3F 
 187      ABB30BFB 
 187      1225C4D8 
 188 025c AB015A5B 		.ascii	"\253\001Z[9d\210\222-\337e\372\220+\202\202\015\252"
 188      39648892 
 188      2DDF65FA 
 188      902B8282 
 188      0DAA
 189 026e 85A25AD0 		.ascii	"\205\242Z\320\272R\226b\220^/\024#\350\330(\362!\005"
 189      BA529662 
 189      905E2F14 
 189      23E8D828 
 189      F22105
 190 0281 CB07B8A3 		.ascii	"\313\007\270\243\177T\25748\352&\017\331\262!\313\265"
 190      7F54AF34 
 190      38EA260F 
 190      D9B221CB 
 190      B5
 191 0292 8B2B4BCA 		.ascii	"\213+K\312\321\270\246zz$v\365\215\266\032\313RupE\235"
 191      D1B8A67A 
 191      7A2476F5 
 191      8DB61ACB 
 191      52757045 
 192 02a7 6BD7B7C0 		.ascii	"k\327\267\300\261\211tD\367cm\345~t?\266\211dw\010\271"
 192      B1897444 
 192      F7636DE5 
 192      7E743FB6 
 192      89647708 
 193 02bc 098F532A 		.ascii	"\011\217S*#t7\247\243^\314\022\214\270\230\216\3349"
 193      237437A7 
 193      A35ECC12 
 193      8CB8988E 
 193      DC39
 194 02ce 1FEDE444 		.ascii	"\037\355\344D&\263\222\366qV/w6Tx<\016\351\354\026\322"
 194      26B392F6 
 194      71562F77 
ARM GAS  /tmp/ccuCDCR2.s 			page 15


 194      3654783C 
 194      0EE9EC16 
 195 02e3 26AB3CF1 		.ascii	"&\253<\361f\202\2633Y:\007~\003\321c\327W\237\230\372"
 195      6682B333 
 195      593A077E 
 195      03D163D7 
 195      579F98FA 
 196 02f7 D0761DB6 		.ascii	"\320v\035\266\240\375\006\223\274\235\255R\231\014|"
 196      A0FD0693 
 196      BC9DAD52 
 196      990C7C
 197 0306 F2A7287D 		.ascii	"\362\247(}]\024:\2415%d\007mp\220\016\231\220\362{\311"
 197      5D143AA1 
 197      35256407 
 197      6D70900E 
 197      9990F27B 
 198 031b 6AE622DE 		.ascii	"j\346\"\336\\\033)'P\365q[\255Y\232\247\273!\217\337"
 198      5C1B2927 
 198      50F5715B 
 198      AD599AA7 
 198      BB218FDF 
 199 032f 619CC84B 		.ascii	"a\234\310K\033G\324\234E\336y\277\273\015}w\274\341"
 199      1B47D49C 
 199      45DE79BF 
 199      BB0D7D77 
 199      BCE1
 200 0341 D3A5B1DF 		.ascii	"\323\245\261\337\332Row\353z\244\325Uzp\261\276\024"
 200      DA526F77 
 200      EB7AA4D5 
 200      557A70B1 
 200      BE14
 201 0353 E5B1A765 		.ascii	"\345\261\247e\033\266l\352\226-\230'\210\326-\330+\276"
 201      1BB66CEA 
 201      962D9827 
 201      88D62DD8 
 201      2BBE
 202 0365 55F9E62E 		.ascii	"U\371\346.\351\035\216\002\027^et\227\334\253/E\266"
 202      E91D8E02 
 202      175E6574 
 202      97DCAB2F 
 202      45B6
 203 0377 3B1BBA64 		.ascii	";\033\272d\254\355\033\222h\224]\344 \0016\271\275\233"
 203      ACED1B92 
 203      68945DE4 
 203      200136B9 
 203      BD9B
 204 0389 36DA6D94 		.ascii	"6\332m\224\227$\205\000\325\015\257?\2138\372^\355e"
 204      97248500 
 204      D50DAF3F 
 204      8B38FA5E 
 204      ED65
 205 039b DB5A9B6C 		.ascii	"\333Z\233l\352\363\324\247\213\341\302\327\267d5\326"
 205      EAF3D4A7 
 205      8BE1C2D7 
 205      B76435D6 
 206 03ab 9E57A314 		.ascii	"\236W\243\024\026\024\360\211\230\356XLw\244\355\237"
 206      1614F089 
ARM GAS  /tmp/ccuCDCR2.s 			page 16


 206      98EE584C 
 206      77A4ED9F 
 207 03bb 03FFD1F6 		.ascii	"\003\377\321\3664\376h\013\332\003\2177\351\002L->\033"
 207      34FE680B 
 207      DA038F37 
 207      E9024C2D 
 207      3E1B
 208 03cd 6EF5E364 		.ascii	"n\365\343d\312c\371\343\274\013\023s\317m}N>'\211\256"
 208      CA63F9E3 
 208      BC0B1373 
 208      CF6D7D4E 
 208      3E2789AE 
 209 03e1 6EF073AF 		.ascii	"n\360s\257\365\367\027\337\035\361\207\374\367O\024"
 209      F5F717DF 
 209      1DF187FC 
 209      F74F14
 210 03f0 4F8F15CF 		.ascii	"O\217\025\317|Z\034;S*\226FF>\036\034\355/\001\373d"
 210      7C5A1C3B 
 210      532A9646 
 210      463E1E1C 
 210      ED2F01FB 
 211 0405 948D8C5A 		.ascii	"\224\215\214Z\\\033}\001,\326Y\324"
 211      5C1B7D01 
 211      2CD659D4 
 212              		.text
 213              		.section	.gnu.lto_chHeapStatus.b55afc261d902dac,"",%progbits
 214 0000 789C8D53 		.ascii	"x\234\215S\315KTQ\024?\347\336\36713of\214\250\205\233"
 214      CD4B5451 
 214      143FE7DE 
 214      F731336F 
 214      668CA885 
 215 0015 30098904 		.ascii	"0\011\211\004\207h\025\021-\372\003Z\244P\253\030\247"
 215      87681511 
 215      2DFA035A 
 215      A450AB18 
 215      A7
 216 0026 18DFC2F2 		.ascii	"\030\337\302\362\243\225.\274\243/20\020C,k\241\210"
 216      A3952EBC 
 216      A32F3230 
 216      10432C6B 
 216      A188
 217 0038 9865B969 		.ascii	"\230e\271i!\0318\206\224#\230\350Nq1\324B\204Y\265\210"
 217      21193886 
 217      942398E8 
 217      4E7131D4 
 217      428459B5 
 218 004d 92683AF7 		.ascii	"\222h:\367\335\373\346C\204z0s\356\307\357\234\363;"
 218      DDFBE643 
 218      847A3073 
 218      EEC7EF9C 
 218      F33B
 219 005f BF732E03 		.ascii	"\277s.\003\006\207\277N\3725\230\000g\311b\004\220\015"
 219      0687BF4E 
 219      FA359800 
 219      67C96204 
 219      900D
 220 0071 7F01C884 		.ascii	"\177\001\310\204\030\343\273\016\210\210\361\356#\200"
ARM GAS  /tmp/ccuCDCR2.s 			page 17


 220      18E3BB0E 
 220      8888F1EE 
 220      2380
 221 007f 887234D4 		.ascii	"\210r4\324\271\201\226Z\230j\261\034\262\2309\364\231"
 221      B981965A 
 221      986AB11C 
 221      B29839F4 
 221      99
 222 0090 3011DBB3 		.ascii	"0\021\333\263\011i\263\320\370'\271\015\377\220\333"
 222      0969B3D0 
 222      F827B90D 
 222      FF90DB
 223 009f 1086153E 		.ascii	"\020\206\025>\214(\027\200\320\307\270aZ6\235\364\335"
 223      8C281780 
 223      D0C7B861 
 223      5A369DF4 
 223      DD
 224 00b0 444981D7 		.ascii	"DI\201\327\303\244\020#\371\0073\337\3313\221\365&\304"
 224      C3A41023 
 224      F90733DF 
 224      D93391F5 
 224      26C4
 225 00c2 EF6211D1 		.ascii	"\357b\021\321E\242{\032!\205p\2036X\347\033fT\363W\276"
 225      45A27B1A 
 225      21857083 
 225      3658E71B 
 225      6654F357 
 226 00d7 D9C591C7 		.ascii	"\331\305\221\307\265b\242\177X\374!W\0279\2033\377\347"
 226      B562A27F 
 226      58FC2157 
 226      17398333 
 226      FFE7
 227 00e9 29166FAF 		.ascii	")\026o\257\012/[,^\361\275\032\376\3455\317\262\371"
 227      0A2F5B2C 
 227      5EF1BD1A 
 227      FEE535CF 
 227      B2F9
 228 00fb 62F1C393 		.ascii	"b\361\303\223\375okx\3428B\273d\231\304I\254\007Nv\212"
 228      FD6F6B78 
 228      E23842BB 
 228      6499C449 
 228      AC074E76 
 229 0110 AC41769A 		.ascii	"\254Av\232\254\205ti\203\213FD#\034\332@\224\376\314"
 229      AC857469 
 229      838B4644 
 229      231CDA40 
 229      94FECC
 230 0123 98C6C4B5 		.ascii	"\230\306\304\265O\015a\245\030&xB\014\327)\270\272R"
 230      4F0D61A5 
 230      18267842 
 230      0CD729B8 
 230      BA52
 231 0135 4090BCE8 		.ascii	"@\220\274\350k\246\177\022\272\005\031\031\276\012+"
 231      6BA67F12 
 231      BA051919 
 231      BE0A2B
 232 0144 7BCB4B23 		.ascii	"{\313K#<\2113hB\032-I\331\252\344\333\202\034\036\""
ARM GAS  /tmp/ccuCDCR2.s 			page 18


 232      3C893368 
 232      421A2D49 
 232      D9AAE4DB 
 232      821C1E22 
 233 0158 CF417FFE 		.ascii	"\317A\177\376\345\276\245pD\253\027\016\304\240\020"
 233      E5BEA570 
 233      44AB170E 
 233      C4A010
 234 0167 9708DD8E 		.ascii	"\227\010\335\216\254\002m\310\260\204\016\201\204\245"
 234      AC026DC8 
 234      B0840E81 
 234      84A5
 235 0175 25A975E8 		.ascii	"%\251u\350?\030\230\237.%\261{\241\207\212j\204s.\332"
 235      3F18989F 
 235      2E25B17B 
 235      A1878A6A 
 235      84732EDA 
 236 0189 CF619C52 		.ascii	"\317a\234R\206\010XN\335\212\025\0046\300P\216\240\223"
 236      8608584E 
 236      DD8A1504 
 236      36C0508E 
 236      A093
 237 019b 1E73319C 		.ascii	"\036s1\234B\005\241`.M\035Hzs9T@U\260\014\307%F\336"
 237      4205A160 
 237      2E4D1D48 
 237      7A733954 
 237      4055B00C 
 238 01b3 BD992DDD 		.ascii	"\275\231-\335MU\336\371\324\026\247\255\200ZD\246\240"
 238      4D55DEF9 
 238      D416A7AD 
 238      805A44A6 
 238      A0
 239 01c4 EF3CE9DC 		.ascii	"\357<\351\334\010\257\344\362\262\213\316\321$+XR\216"
 239      08AFE4F2 
 239      B28BCED1 
 239      242B5852 
 239      8E
 240 01d5 AC156490 		.ascii	"\254\025d\220\322\247%+\200m@\022\225\241b\236\335\334"
 240      D2A7252B 
 240      806D4012 
 240      95A1629E 
 240      DDDC
 241 01e7 8A9704E3 		.ascii	"\212\227\004\343\013\\\352e\002M?'\036;O\337n\225$\212"
 241      0B5CEA65 
 241      024D3F27 
 241      1E3B4FDF 
 241      6E95248A 
 242 01fb FAE2704D 		.ascii	"\372\342pM\341\226\213QE\301I\243#)\200\246\300\264"
 242      E1968B51 
 242      45C149A3 
 242      232980A6 
 242      C0B4
 243 020d E59AC73A 		.ascii	"\345\232\307:\014\014\016\264\006Qb\024(M\035!z\254"
 243      0C0C0EB4 
 243      06516214 
 243      284D1D21 
 243      7AAC
ARM GAS  /tmp/ccuCDCR2.s 			page 19


 244 021f 521ABAD1 		.ascii	"R\032\272\321\320\275r\351\3614r_\027\204*\207)\337"
 244      D0BD72E9 
 244      F134725F 
 244      17842A87 
 244      29DF
 245 0231 21AE747C 		.ascii	"!\256t|\377\350P\225N\320w\013\350y\352\306\007Y\374"
 245      FFE85095 
 245      4ED0770B 
 245      E879EAC6 
 245      0759FC
 246 0244 CCEA4045 		.ascii	"\314\352@E\341\345\003\345\316\374\026\354\374|\275"
 246      E1E503E5 
 246      CEFC16EC 
 246      FC7CBD
 247 0253 C6021E8E 		.ascii	"\306\002\036\216_z\240>\275\252\230^^\254T\201\035\245"
 247      5F7AA03E 
 247      BDAA985E 
 247      5EAC5481 
 247      1DA5
 248 0265 82A1ADA9 		.ascii	"\202\241\255\251\325X\005\257\220\271P\012\\v\001\325"
 248      D55805AF 
 248      90B9500A 
 248      5C7601D5 
 249 0275 1B465D32 		.ascii	"\033F]2\012\243\265tg\316\215%\267\201\353\3010vGOR"
 249      0AA3B574 
 249      67CE8D25 
 249      B781EBC1 
 249      3076474F 
 250 028a CDE68BB1 		.ascii	"\315\346\213\261\332m0\202\303\225Qjf\314\034\032K\312"
 250      DA6D3082 
 250      C395516A 
 250      66CC1C1A 
 250      4BCA
 251 029c 826DF57E 		.ascii	"\202m\365~\274\302\362\257\362\373\251\221\330x\365"
 251      BCC2F2AF 
 251      F2FBA991 
 251      D878F5
 252 02ab FB09C1AC 		.ascii	"\373\011\301\254%\033\234[\230\377\252\247\220\312\310"
 252      251B9C5B 
 252      98FFAAA7 
 252      90CAC8
 253 02ba 50450EC5 		.ascii	"PE\016\305\255\362I\353\022\310+,\303o\200\227_r\217"
 253      ADF249EB 
 253      12C82B2C 
 253      C36F8097 
 253      5F728F
 254 02cd 1A7F5635 		.ascii	"\032\177V5\376\233\220\231\310\205\003\022z\030\232"
 254      FE9B9099 
 254      C8850312 
 254      7A189A
 255 02dc 69403D5B 		.ascii	"i@=[\002O55%\256\266\271\255\356\265\353\211{\335\211"
 255      024F3535 
 255      25AEB6B9 
 255      ADEEB5EB 
 255      897BDD89 
 256 02f0 AEFB89EE 		.ascii	"\256\373\211\356\256T\"\325\326v'\331\321\224\002\326"
 256      AE5422D5 
ARM GAS  /tmp/ccuCDCR2.s 			page 20


 256      D67627D9 
 256      D19402D6 
 257 0300 D9817759 		.ascii	"\331\201wYw\317_~\33327"
 257      77CF5F7E 
 257      DB3237
 258              		.text
 259              		.section	.gnu.lto_.symbol_nodes.b55afc261d902dac,"",%progbits
 260 0000 789C4DCC 		.ascii	"x\234M\314\275\012\302@\020\004\340\231\333\273\\\362"
 260      BD0AC240 
 260      1004E099 
 260      DBBB5CF2 
 261 0010 1479D48D 		.ascii	"\024y\324\215\004D\020DHo\343\243\330[hi\243\244\260"
 261      04441044 
 261      486FE3A3 
 261      D85B6869 
 261      A3A4B0
 262 0023 B9C67F51 		.ascii	"\271\306\177QP/\032L\266\031\276\335a\015\0146h\307"
 262      502F1A4C 
 262      B619BEDD 
 262      610D0C36 
 262      68C7
 263 0035 1CA9C074 		.ascii	"\034\251\300t\011\250\316Ft\007\302\252\360F\345o[\014"
 263      09A8CE46 
 263      7407C2AA 
 263      F046E56F 
 263      5B0C
 264 0047 684E54D3 		.ascii	"hNT\323u\314\231*=^\250\266\307+\325u\344\235\232\264"
 264      75CC992A 
 264      3D5EA8B6 
 264      C72BD575 
 264      E49D9AB4 
 265 005b 9F0AF249 		.ascii	"\237\012\362I\365\235\036\324\364/\201G\275}Q\304\243"
 265      F59D1ED4 
 265      F42F8147 
 265      BD7D51C4 
 265      A3
 266 006c 1C865C6C 		.ascii	"\034\206\\l\206\3717S\324\223\340\233,Woo-\252\365\336"
 266      86F93753 
 266      D493E09B 
 266      2C576F6F 
 266      2DAAF5DE 
 267 0080 8BCB50EF 		.ascii	"\213\313P\357b\335\305s\025kI\206\262q\222b1\0169>\031"
 267      62DDC573 
 267      156B4986 
 267      B2719262 
 267      310E393E 
 268 0095 9B456D   		.ascii	"\233Em"
 269              		.text
 270              		.section	.gnu.lto_.refs.b55afc261d902dac,"",%progbits
 271 0000 789C6362 		.ascii	"x\234cb`b\020e\200\000V\006FF&&F \000\022,@\314\306"
 271      60621065 
 271      80005606 
 271      46462626 
 271      46200012 
 272 0018 C4C80000 		.ascii	"\304\310\000\000\004\212\000>"
 272      048A003E 
 273              		.text
ARM GAS  /tmp/ccuCDCR2.s 			page 21


 274              		.section	.gnu.lto_.decls.b55afc261d902dac,"",%progbits
 275 0000 789CBD5A 		.ascii	"x\234\275Z\013p\024E\032\356\236\315\356f\223\010\210"
 275      0B701445 
 275      1AEE9ECD 
 275      EE669308 
 275      88
 276 0011 A5A2C769 		.ascii	"\245\242\307i\260\324\363\364`\003\"\342U\235`Q\245"
 276      B0D4F3F4 
 276      600322E2 
 276      559D6051 
 276      A5
 277 0022 78759ED4 		.ascii	"xu\236\324\241U\326\335U-\223\315$\273\232}8;!\301*"
 277      A155D6DD 
 277      552D93CD 
 277      24BB9A7D 
 277      383B21C1 
 278 0037 CBC90672 		.ascii	"\313\311\006r! \217\360\014\217$\200p\242\305#Q\004"
 278      21208FF0 
 278      0C8F2480 
 278      70A2C523 
 278      5104
 279 0049 04644109 		.ascii	"\004dA\011\221G\344\341\361\364$\034z>\316\327\205C"
 279      9147E4E1 
 279      F1F4241C 
 279      7A3ECED7 
 279      8543
 280 005b 7C207B7F 		.ascii	"| {\177\367\314\354\316\364\356lf\227\302\251tO\317"
 280      F7CCECCE 
 280      F4EE6C66 
 280      97C2A974 
 280      4FCF
 281 006d 4CF7D7FF 		.ascii	"L\367\327\377\377\375\177\367\337\335\033\016q\350."
 281      FFFD7FF7 
 281      DFDD1B0E 
 281      71E82E
 282 007c 1B4271B8 		.ascii	"\033Bq\270\006\014E\250\334\201\020\374\241\007!\331"
 282      060C45A8 
 282      DC8110FC 
 282      A10721D9 
 283 008c 21AD80B4 		.ascii	"!\255\200\264\022\322\004\214\320DHu\220\340\017\325"
 283      12D2048C 
 283      D0444875 
 283      90E00FD5 
 284 009c 42E682FB 		.ascii	"B\346\202\373T\2707@j\204\264\020R\013\244\325\220\326"
 284      54B83740 
 284      6A84B410 
 284      520BA4D5 
 284      90D6
 285 00ae 43EA80F4 		.ascii	"C\352\200\364\272Z\377\015\222\351.\322\356\032\270"
 285      BA5AFF0D 
 285      92E92ED2 
 285      EE1AB8
 286 00bd FF05EE4F 		.ascii	"\377\005\356O\250\330\223 \325@\252\202$B\362b\245\337"
 286      A8D89320 
 286      D540AA82 
 286      2442F262 
 286      A5DF
ARM GAS  /tmp/ccuCDCR2.s 			page 22


 287 00cf 2D3829C7 		.ascii	"-8)\307\006(;\341\376g\270\227Bz\026\222\004\251\032"
 287      06283BE1 
 287      FE67B897 
 287      427A1692 
 287      04A91A
 288 00e2 D2F35891 		.ascii	"\322\363X\221\313\246\223k\275I\377D\336\376:\035I\277"
 288      CBA6936B 
 288      BD49FF44 
 288      DEFE3A1D 
 288      49BF
 289 00f4 FDE05EC4 		.ascii	"\375\340^\304\310\304\312Bd \362X\221\203S\373!2\344"
 289      C8C4CA42 
 289      6420F258 
 289      918353FB 
 289      2132E4
 290 0107 41B909EE 		.ascii	"A\271\011\356s \315\207\264\225\221\207p7\220\221c\214"
 290      7320CD87 
 290      B4959187 
 290      70379091 
 290      638C
 291 0119 4EBE49AA 		.ascii	"N\276I\252<\023TY\236`d\021UY\211\354\177\205\224\217"
 291      3C135459 
 291      9E606411 
 291      555989EC 
 291      7F85948F 
 292 012d 14B96A55 		.ascii	"\024\271jU\331\236\327\311\367\034V\344\266\251\375"
 292      D99ED7C9 
 292      F71C56E4 
 292      B6A9FD
 293 013c BEAEDA8A 		.ascii	"\276\256\332\212</\205\3732\234\312W\213*\227^\276\211"
 293      3C2F85FB 
 293      329CCA57 
 293      8B2A975E 
 293      BE89
 294 014e AA5D888C 		.ascii	"\252]\210\214z\236X\331&\250\\i\034=\207\223\262i|\331"
 294      7A9E58D9 
 294      26A85C69 
 294      1C3D8793 
 294      B2697CD9 
 295 0162 D43E3459 		.ascii	"\324>4Y\010w+\341\276\223\221c\265j7\275\034\023trL"
 295      08772BE1 
 295      BE939163 
 295      B56A37BD 
 295      1C137472 
 296 0177 54FB7E02 		.ascii	"T\373~\002'\373\367\352\370!\376\353P\375W\263\233\236"
 296      27FBF7EA 
 296      F821FEEB 
 296      50FD57B3 
 296      9B9E
 297 0189 1B9BDA87 		.ascii	"\033\233\332\207\236\223W\340\376j\032N\012Q\243,G\345"
 297      9E9357E0 
 297      FE6A1A4E 
 297      0A51A32C 
 297      47E5
 298 019b B67A797C 		.ascii	"\266zy|W\277\201h\256\014Wq\027H\365\024\346q?\027\222"
 298      57BF8168 
 298      AE0C5771 
ARM GAS  /tmp/ccuCDCR2.s 			page 23


 298      1748F514 
 298      E6713F17 
 299 01b0 312D15B9 		.ascii	"1-\025\271\320\000\250}\007zI\226\347\364L;=X\316\343"
 299      D000A87D 
 299      077A4996 
 299      E7F44C3B 
 299      3D58CEE3 
 300 01c4 F14A3C10 		.ascii	"\361J<\020t\274\035\243\273\321Zh6\007\200nD\251W\237"
 300      74BC1DA3 
 300      BBD15A68 
 300      3607806E 
 300      44A9579F 
 301 01d8 A81CBA17 		.ascii	"\250\034\272\027#\036\257\0018\036\257\306w+\335\310"
 301      231EAF01 
 301      381EAFC6 
 301      772BDDC8 
 302 01e8 B1F37CB1 		.ascii	"\261\363|\261\362\026\251\357\323\\CP\033\251z\341c"
 302      F216A9EF 
 302      D35C4350 
 302      1BA97AE1 
 302      63
 303 01f9 97DC5494 		.ascii	"\227\334T\224\246\247\261ZG\371I\361\277_\361\342\243"
 303      A6A7B15A 
 303      47F949F1 
 303      BF5FF1E2 
 303      A3
 304 020a B29CCFE3 		.ascii	"\262\234\317\343W\250\002^l\200WA\332\306\232\241p("
 304      57A8025E 
 304      6C805741 
 304      DAC69AA1 
 304      7028
 305 021c 425AAC63 		.ascii	"BZ\254c\304\355i\336w1\212ke\031+\337\372\022:\032\373"
 305      C4ED69DE 
 305      77318A6B 
 305      65192BDF 
 305      FA123A1A 
 306 0231 EF8CE537 		.ascii	"\357\214\3457\311m\273q\2376\310\323\272\037\233T\342"
 306      C96DBB71 
 306      9F36C8D3 
 306      BA1F9B54 
 306      E2
 307 0242 BB9F6CC0 		.ascii	"\273\237l\300N\007\325\340\3578\255\012\346\030\034"
 307      4E07D5E0 
 307      EF38AD0A 
 307      E6181C
 308 0251 DA489B6C 		.ascii	"\332H\233lJ\321\241qO\235\252\303&K:,\232\245\350\300"
 308      4AD1A171 
 308      4F9DAAC3 
 308      264B3A2C 
 308      9AA5E8C0 
 309 0265 E376D083 		.ascii	"\343v\320\203Co&p\325\216\213\265~\311\354\241\026\225"
 309      436F2670 
 309      D58E8BB5 
 309      7EC9ECA1 
 309      1695
 310 0277 4BAD60C4 		.ascii	"K\255`\304[\322]4\207\327\300ve\015Vl\000k\355^F\205"
 310      5BD25D34 
ARM GAS  /tmp/ccuCDCR2.s 			page 24


 310      87D7C076 
 310      650D566C 
 310      006BED5E 
 311 028d 73A18624 		.ascii	"s\241\206$\301(-\230\312j\373\254w\016\343:\252\377"
 311      C1282D98 
 311      CA6AFBAC 
 311      770EE33A 
 311      AAFF
 312 029f 0E68C6A1 		.ascii	"\016h\306\2418C\255u\250\326\246=\273p\224B\305(\324"
 312      3843AD75 
 312      A8D6A63D 
 312      BB709442 
 312      C528D4
 313 02b2 8F5CAE50 		.ascii	"\217\\\256P\315K\266?@\035\366m\0124=\317\010\304cg"
 313      CD4BB63F 
 313      401DF66D 
 313      0A343DCF 
 313      08C46367 
 314 02c6 82C6C4B3 		.ascii	"\202\306\304\263V\201\240\321\317j\201\004\311\376\350"
 314      5681A0D1 
 314      CF6A8104 
 314      C9FEE8
 315 02d5 2A57E7D0 		.ascii	"*W\347\320\374<\013\246\3137\363\003\271gq\343\001["
 315      FC3C0BA6 
 315      CB37F303 
 315      B96771E3 
 315      015B
 316 02e7 B31C9B6A 		.ascii	"\263\034\233j\323\206\243\303\214#\016-\245}u\261\276"
 316      D386A3C3 
 316      8C230E2D 
 316      A57D75B1 
 316      BE
 317 02f8 BCE85CD7 		.ascii	"\274\350\\\327\257\027\313\362\000\345S\337\256\274"
 317      AF17CBF2 
 317      00E553DF 
 317      AEBC
 318 0306 69DF224B 		.ascii	"i\337\"K\303\261\215\323\272\277\235v\277\237v\177\220"
 318      C3B18DD3 
 318      BABF9D76 
 318      BF9F767F 
 318      90
 319 0317 EDFECCBF 		.ascii	"\355\376\314\277?\035\243t\177\320R\367\207\217\314"
 319      3F1DA374 
 319      7FD052F7 
 319      878FCC
 320 0326 4FED9EC7 		.ascii	"O\355\236\307\017^\237\3113\026\235\373tp+\355\3440"
 320      0F5E9FC9 
 320      33169DFB 
 320      74702BED 
 320      E430
 321 0338 1D317576 		.ascii	"\0351uv\3265\306\024\032\215\007\317\272\012\034\232"
 321      D635C614 
 321      1A8D07CF 
 321      BA0A1C9A 
 322 0348 69D7A4CF 		.ascii	"i\327\244\317i\300\202\232]\277_\333!\313\323\035\232"
 322      69C0829A 
 322      5DBF5FDB 
ARM GAS  /tmp/ccuCDCR2.s 			page 25


 322      21CBD31D 
 322      9A
 323 0359 0CB3B346 		.ascii	"\014\263\263F,6\020\361\376\021:\005(`MV\300L\375(\032"
 323      2C3610F1 
 323      FE113A05 
 323      28604D56 
 323      C04CFD28 
 324 036e 3BA6075B 		.ascii	";\246\007[\2205\230Q\262\023z\260\305V\300\006\230K"
 324      90359851 
 324      B2137AB0 
 324      C556C006 
 324      984B
 325 0380 764A0FB6 		.ascii	"vJ\017\2664k0\243d\037\350\301Z\254\200\0152\227\354"
 325      346B30A3 
 325      641FE8C1 
 325      5AAC800D 
 325      3297EC
 326 0393 433DD8CA 		.ascii	"C=\330\312\254\301\214\222}\243\007[c\005\2548\215d"
 326      ACC18C92 
 326      7DA3075B 
 326      6305AC38 
 326      8D64
 327 03a5 892B5D3B 		.ascii	"\211+];\342\326\007p\302\3179\264\326\256M\010Y\372"
 327      E2D60770 
 327      C2CF39B4 
 327      D6AE4D08 
 327      59FA
 328 03b7 344A62AC 		.ascii	"4Jb\254\263g;\201\031\364\206Hzp\025\236W'w\225h\321"
 328      B3673B81 
 328      19F48648 
 328      7A70159E 
 328      57277795 
 329 03cd EC352B88 		.ascii	"\3545+\210\031\034\346\015}h\334\2265\230\321,\357\023"
 329      191CE60D 
 329      7D68DC96 
 329      3598D12C 
 329      EF13
 330 03df 30C354A3 		.ascii	"0\303T\243\206\243\236\325\261A\213\223\223]\276\206"
 330      86A39ED5 
 330      B1418B93 
 330      935DBE86 
 331 03ef 45D68DCA 		.ascii	"E\326\215\312\314\006\353<.QY\0364(}]\036\177\205\357"
 331      CC06EB3C 
 331      2E51591E 
 331      34287D5D 
 331      1E7F85EF 
 332 0403 80FC6BEC 		.ascii	"\200\374k\354JH\241\224\265R\234.\221\337\2663+R\355"
 332      4A48A194 
 332      B5529C2E 
 332      91DFB633 
 332      2B52ED
 333 0416 EAABA999 		.ascii	"\352\253\251\231'|\241\367\204.+4e\030\012?v/\273Q\356"
 333      277CA1F7 
 333      842E2B34 
 333      65180A3F 
 333      762FBB51 
 334 042b 89619DBE 		.ascii	"\211a\235\276\031\311\201\025D\367[\277\243\261\372"
ARM GAS  /tmp/ccuCDCR2.s 			page 26


 334      19C98115 
 334      44F75BBF 
 334      A3B1FA
 335 043a 3C8DD5EF 		.ascii	"<\215\325\357\331\323\006}\013@\255M\353\356\241@\337"
 335      D9D3067D 
 335      0B40AD4D 
 335      EBEEA140 
 335      DF
 336 044b 52A01339 		.ascii	"R\240\0239\0035/i\031M\201\276\247@=)!\0023\253\007"
 336      03352F69 
 336      194D81BE 
 336      A7403D29 
 336      210233AB 
 337 0460 6C8CEF09 		.ascii	"l\214\357\011\346U\342\257V]\016}\316Z\313\240N\237"
 337      E655E2AF 
 337      565D0E7D 
 337      CE5ACBA0 
 337      4E9F
 338 0472 730DACC0 		.ascii	"s\015\254\300?\232\207\317G\345\305%Y\330k\226j\257"
 338      3F9A87CF 
 338      47E5C525 
 338      59D86B96 
 338      6AAF
 339 0484 CB949DDE 		.ascii	"\313\224\235\336\024v\276\315\222\036\016\375\220\265"
 339      1476BECD 
 339      921E0EFD 
 339      90B5
 340 0492 1A7719D5 		.ascii	"\032w\031\325h\374$\0075v*j\324qD\215\250\343\312\325"
 340      68FC2407 
 340      35762A6A 
 340      D471448D 
 340      A8E3CAD5 
 341 04a6 687464AB 		.ascii	"htd\253F\211N\015\272\037\232\257\314\200\327\241\246"
 341      46894E0D 
 341      BA1F9AAF 
 341      CC80D7A1 
 341      A6
 342 04b7 CC6B3822 		.ascii	"\314k8\"O\003w\235q\373w\341=\\\254\274\356{\3777\357"
 342      4F03779D 
 342      71FB77E1 
 342      3D5CACBC 
 342      EE7BFF37 
 343 04cc 886EA52F 		.ascii	"\210n\245/[Z\351w'V\3723(es\035i\006\230\025\250\266"
 343      5B5AE977 
 343      2756FA33 
 343      2865731D 
 343      69069815 
 344 04e2 D623D793 		.ascii	"\326#\327\223\355\360,\012\263(W\230\236\346S\233\225"
 344      EDF02C0A 
 344      B3285798 
 344      9EE6539B 
 344      95
 345 04f3 713A9702 		.ascii	"q:\227\002\265\246\230\320\301X\320a\264 <\222\236\276"
 345      B5A698D0 
 345      C158D061 
 345      B4203C92 
 345      9EBE
ARM GAS  /tmp/ccuCDCR2.s 			page 27


 346 0505 236B70FC 		.ascii	"#kp\374\202\372\206<8\321\317\336\016b0\025\237X/\227"
 346      82FA863C 
 346      38D1CFDE 
 346      0E623015 
 346      9F582F97 
 347 0519 7525D989 		.ascii	"u%\331\211\036\230\257\305O\305@\033\257\0101\032\333"
 347      1E98AFC5 
 347      4FC5401B 
 347      AF08311A 
 347      DB
 348 052a D9A46D55 		.ascii	"\331\244mU\307\220\010\272\365\012\341\350\222\313\020"
 348      C79008BA 
 348      F50AE1E8 
 348      92CB10
 349 0539 4199957B 		.ascii	"A\231\225{\207I\324\321N!\332g\376\206\232{)G\304\211"
 349      8749D4D1 
 349      4E21DA67 
 349      FE869A7B 
 349      2947C489 
 350 054d A598BB1D 		.ascii	"\245\230\273\0353Kw\362BW\305l -\341t\001\360\350\225"
 350      334B77F2 
 350      4257C56C 
 350      202DE174 
 350      01F0E895 
 351 0561 9A61DF3F 		.ascii	"\232a\337?\0313\234\274B\336\232\347Y;\365\230\244a"
 351      19339CBC 
 351      42DE9AE7 
 351      593BF598 
 351      A461
 352 0573 155145CE 		.ascii	"\025QE\316\322nWq\314.k\307\305\236zu\227M\276\365="
 352      D26E5771 
 352      CC2E6BC7 
 352      C59E7A75 
 352      974DBEF5 
 353 0588 539CA627 		.ascii	"S\234\246'E\332\331\317\034\247\206\252\366:V\277\264"
 353      45DAD9CF 
 353      1CA786AA 
 353      F63A56BF 
 353      B4
 354 0599 EB939ED8 		.ascii	"\353\223\236\330\207BWI6sN\2476\347\254\245\\.v\262"
 354      87425749 
 354      36734EA7 
 354      36E7ACA5 
 354      5C2E76B2 
 355 05ad 46279388 		.ascii	"F'\223\210\301\350Y\015\272\026V\035\253\273\245\304"
 355      C1E8590D 
 355      BA16561D 
 355      ABBBA5C4 
 356 05bd 65E6542B 		.ascii	"e\346T+\365N\365\222\363\212\\\000\234\352\253\227\024"
 356      F54EF592 
 356      F38A5C00 
 356      9CEAAB97 
 356      14
 357 05ce A76286CC 		.ascii	"\247b\206\314\032\223!C$\330\240\227\340\325+\223 v"
 357      1A932143 
 357      24D8A097 
 357      E0D52B93 
ARM GAS  /tmp/ccuCDCR2.s 			page 28


 357      2076
 358 05e0 FA68D627 		.ascii	"\372h\326'C\335{4\333uP\333u\244\330.\306\206X+\007"
 358      43DD7B34 
 358      DB7550DB 
 358      75A4D82E 
 358      C686582B 
 359 05f5 256FE5AA 		.ascii	"%o\345\252I\342\342\320\036\247\205Un\261\251\027\303"
 359      49E2E2D0 
 359      1EA78555 
 359      6EB1A917 
 359      C3
 360 0606 5C7B591D 		.ascii	"\\{Y\035\344}\236\266h\223\327\3073\307\323\311k\013"
 360      E47D9EB6 
 360      6893D7C7 
 360      33C7D3C9 
 360      6B0B
 361 0618 4786D1BB 		.ascii	"G\206\321\273\014\027\026\016mN\320&\333\330\361\334"
 361      0C17160E 
 361      6D4ED026 
 361      DBD8F1DC 
 362 0628 DCF83FED 		.ascii	"\334\370?\355\020u\233\205\361\034\215\035\235\241?"
 362      10759B85 
 362      F11C8D1D 
 362      9DA13F
 363 0637 80E4F156 		.ascii	"\200\344\361V\314\251\270\271\362i0aR@\036\357\340\310"
 363      CCA9B8B9 
 363      F2693061 
 363      52401EEF 
 363      E0C8
 364 0649 86E62D6E 		.ascii	"\206\346-n\210\236\373O\263\346\276X\317}l\301\261e"
 364      889EFB4F 
 364      B3E6BE58 
 364      CF7D6CC1 
 364      B165
 365 065b 58915F99 		.ascii	"X\221_\231\221zY\274t3\322]f\266\214\3066\036\243\273"
 365      917A59BC 
 365      7433D25D 
 365      66B68CC6 
 365      361EA3BB 
 366 066f 44C5477F 		.ascii	"D\305G\177\262\"\\\2119\330\316\205\032\271\033h\220"
 366      B2225C89 
 366      39D8CE85 
 366      1AB91B68 
 366      90
 367 0680 6AC8CF16 		.ascii	"j\310\317\026\257\330\200w\374\3302\025O9]m\262\202"
 367      AFD88077 
 367      FCD83215 
 367      4F395D6D 
 367      B282
 368 0692 37DA5CBE 		.ascii	"7\332\\\276\013\013\015!}y\326p\305\231l\237<\035\347"
 368      0B0B0D21 
 368      7D79D670 
 368      C5996C9F 
 368      3C1DE7
 369 06a5 F166BA99 		.ascii	"\361f\272\231\335\202\207@\376&\315\267\323|/\315?\241"
 369      DD828740 
 369      FE26CDB7 
ARM GAS  /tmp/ccuCDCR2.s 			page 29


 369      D37C2FCD 
 369      3FA1
 370 06b7 F96734FF 		.ascii	"\371g4\377\017\315{i\376\023\315\243\034\311\377F\363"
 370      0FCD7B69 
 370      FE13CDA3 
 370      1CC9FF46 
 370      F3
 371 06c8 CD348FD1 		.ascii	"\3154\217\321|7\315\337\241y'\315\273\364\276e6\021"
 371      7C37CDDF 
 371      A17927CD 
 371      BBF4BE65 
 371      3611
 372 06da 32CB00CD 		.ascii	"2\313\000\315\345\327\345|\346\336\273?q\260\000\016"
 372      E5D7E57C 
 372      E6DEBB3F 
 372      71B0000E 
 373 06ea 9F355846 		.ascii	"\2375XF\016\327\3518\334@9\334H9\331g\034E\253\363\265"
 373      0ED7E938 
 373      DC4039DC 
 373      4839D967 
 373      1C45ABF3 
 374 06ff 5F807289 		.ascii	"_\200r\211\303\321\236\251gtg#\353X0\253QP\345\343\222"
 374      C3D19EA9 
 374      67746723 
 374      EB5830AB 
 374      5150E5E3 
 375 0714 40563B2B 		.ascii	"@V;+(\326\246\254\2612\322\261FG\307\313\224\216\265"
 375      28D6A6AC 
 375      B132D2B1 
 375      4647C7CB 
 375      948EB5
 376 0727 948E03D4 		.ascii	"\224\216\003\324\374\335V\314\277\"\271,\264\036\275"
 376      FCDD56CC 
 376      BF22B92C 
 376      B41EBD
 377 0736 BE5F75F6 		.ascii	"\276_u\366\267\033\3509\361!:1\354t\261\301\313\316"
 377      B71BE839 
 377      F1213A31 
 377      EC74B1C1 
 377      CBCE
 378 0748 C42EBB31 		.ascii	"\304.\2731v\331]\311\202\032\273\322.\340\032\316%\217"
 378      76D95DC9 
 378      821ABBD2 
 378      2EE01ACE 
 378      258F
 379 075a 66E4C441 		.ascii	"f\344\304AyqR\222\345\353\317\356U\343\350\3734v|\346"
 379      79715292 
 379      E5EBCFEE 
 379      55E3E8FB 
 379      34767CE6 
 380 076e 4A1B3B32 		.ascii	"J\033;2 q\350\"ms\234\011\036\261\235\365Ed#v\334R\340"
 380      2071E822 
 380      6D739C09 
 380      1EB19DF5 
 380      45642376 
 381 0785 38DCB92C 		.ascii	"8\334\271,u\035z\003Z\240\256\345d,\321Y\305\314\014"
 381      751D7A03 
ARM GAS  /tmp/ccuCDCR2.s 			page 30


 381      5AA0AEE5 
 381      642CD159 
 381      C5CC0C
 382 0798 1F7037D0 		.ascii	"\037p7\320\222\215\376\314\213\024by\374\244-\243\001"
 382      928DFECC 
 382      8B146279 
 382      FCA42DA3 
 382      01
 383 07a9 B563FB8E 		.ascii	"\265c\373\216\263\013\325U\353i:\261\256-0\222\300\254"
 383      B30BD555 
 383      EB693AB1 
 383      AE2D3092 
 383      C0AC
 384 07bb 8B486766 		.ascii	"\213Hgf\202\364p\205&\272\246|\343\320\033\005\032q"
 384      82F47085 
 384      26BAA67C 
 384      E3D01B05 
 384      1A71
 385 07cd B96D07   		.ascii	"\271m\007"
 386 07d0 96AF3F7C 		.ascii	"\226\257?|\363\326\327e\271}\222\272\247\2179\364v2"
 386      F3D6D765 
 386      B97D92BA 
 386      A78F39F4 
 386      7632
 387 07e2 8C5A0EED 		.ascii	"\214Z\016\355\242\275\235c7\366\363:\311O\227\347,l"
 387      A2BD9D63 
 387      37F6F33A 
 387      C94F97E7 
 387      2C6C
 388 07f4 ECA3B105 		.ascii	"\354\243\261\005\365\263o\226\333f\016R]=V/7\340\332"
 388      F5B36F96 
 388      DB660E52 
 388      5D3D562F 
 388      37E0DA
 389 0807 F6C1E97B 		.ascii	"\366\301\351{L\376(\362\313W\250\263\177B\235\375 C"
 389      4CFE28F2 
 389      CB57A8B3 
 389      7F429DFD 
 389      2043
 390 0819 6E3658AD 		.ascii	"n6X\255M\357i\277\342}N\301N\344\016\326\326|\212\376"
 390      4DEF69BF 
 390      E27D4EC1 
 390      4EE40ED6 
 390      D67C8AFE 
 391 082d 6EFE2505 		.ascii	"n\376%\005:[\300\016A\0273\004]\306!\350r%\013q\355"
 391      3A5BC00E 
 391      41173304 
 391      5DC621E8 
 391      72250B71 
 392 0842 62CFD8AE 		.ascii	"b\317\330\256b\033\016}\221\260gN\273%\360\236wo\202"
 392      621B0E7D 
 392      91B0674E 
 392      BB25F09E 
 392      776F82
 393 0855 F1955C66 		.ascii	"\361\225\\f\232\376\306N\304\352e\207\367\242Nr \324"
 393      9AFEC64E 
 393      C4EA6587 
ARM GAS  /tmp/ccuCDCR2.s 			page 31


 393      F7A24E72 
 393      20D4
 394 0867 6B699BD7 		.ascii	"ki\233\327\332\271\037\303>\317\322\311\323\005\326"
 394      DAB91FC3 
 394      3ECFD2C9 
 394      D305D6
 395 0876 419B3BB9 		.ascii	"A\233;\271b\345u\337\016\272\264>\315v\326@RJ\177\337"
 395      62E575DF 
 395      0EBAB43E 
 395      CD76D640 
 395      524A7FDF 
 396 088a E97732BD 		.ascii	"\351w2\275\224\323\0139\357d\226u\322\310w\224N#\027"
 396      94D30B39 
 396      EF649675 
 396      D2C87794 
 396      4E2317
 397 089d 73054B5C 		.ascii	"s\005K\\\034\272D1zs\234\"\242\261\366Nm\215\247\204"
 397      1CBA4431 
 397      7A739C22 
 397      A2B1F64E 
 397      6D8DA784 
 398 08b1 9ACB59E3 		.ascii	"\232\313Y\343\025\247\310TW\230\243\343\3510\246\025"
 398      15A7C854 
 398      5798A3E3 
 398      E930A615 
 399 08c1 32535F3A 		.ascii	"2S_:\014\363_\244c'\036&<+\377\3632\223\3052\376C\213"
 399      0CF35FA4 
 399      63271E26 
 399      3C2BFFF3 
 399      3293C532 
 400 08d8 AE686D97 		.ascii	"\256hm\227q\\\267\3138Iw\031\247\350\202\340_4\257\265"
 400      715CB7CB 
 400      38497719 
 400      A7E882E0 
 400      5F34AFB5 
 401 08ec 5958161C 		.ascii	"YX\026\034M:\025\343\212\304\014f\255\352l\211V\267"
 401      4D3A15E3 
 401      8AC40C66 
 401      ADEA6C89 
 401      56B7
 402 08fe A216B9AD 		.ascii	"\242\026\271\255\247\347\037o\236\374\305B\330\012\312"
 402      A7E71F6F 
 402      9EFCC542 
 402      D80ACA
 403 090d DF9020CF 		.ascii	"\337\220 \317\304C\223\037\243\011\3224\333\015jI\013"
 403      C443931F 
 403      A309D234 
 403      DB0D6A49 
 403      0B
 404 091e 811C6A2F 		.ascii	"\201\034j/\304\314\370\271\023\255&x\362\313\262\215"
 404      C4CCF8B9 
 404      13AD2678 
 404      F2CBB28D 
 405 092e A291FA53 		.ascii	"\242\221\372Sm\267\032\331\250\267q\372\027D\260\036"
 405      6DB71AD9 
 405      A8B771FA 
 405      1744B01E 
ARM GAS  /tmp/ccuCDCR2.s 			page 32


 406 093e 1233770D 		.ascii	"\0223w\015n\356\220\247N\227/\307_\300JL\344\320\366"
 406      6EEE90A7 
 406      4E972FC7 
 406      5FC04A4C 
 406      E4D0F6
 407 0951 942E148C 		.ascii	"\224.\024\214\351\251\030T\271\303\267\344\242\334\014"
 407      E9A91854 
 407      B9C3B7E4 
 407      A2DC0C
 408 0960 1B13EC09 		.ascii	"\033\023\354\011\333\211\007\345'v\303B\300@\004\345"
 408      DB8907E5 
 408      2776C342 
 408      C04004E5 
 409 0970 A28B11F4 		.ascii	"\242\213\021\364v\264J\226\233\344\345\302xm\360\236"
 409      76B44A96 
 409      9BE4E5C2 
 409      786DF09E 
 410 0980 A4351A81 		.ascii	"\2445\032\201\215tb\250\026V\233\035'\315\350\236\347"
 410      8D7462A8 
 410      16569B1D 
 410      27CDE89E 
 410      E7
 411 0991 4C1FADC6 		.ascii	"L\037\255\306$\033\305I#e\231r\231\3432\266RuP\315\365"
 411      241BC549 
 411      23659972 
 411      99E332B6 
 411      527550CD 
 412 09a6 A23C6D00 		.ascii	"\242<m\000N\330\253\221\265\327\354t\\\307\216\357#"
 412      4ED8AB91 
 412      B5D7EC74 
 412      5CC78EEF 
 412      23
 413 09b7 33B07C29 		.ascii	"3\260|)\036\267\261LgXV-\312\310tzj\317\245\247v\201"
 413      1EB7B14C 
 413      6758562D 
 413      CAC8747A 
 413      6ACFA5A7 
 414 09cd 462D8FE7 		.ascii	"F-\217\347\332\210\272\013-Q{\230e\311\274\231\236\245"
 414      DA88BA0B 
 414      2D517B98 
 414      65C9BC99 
 414      9EA5
 415 09df A8BCA17E 		.ascii	"\250\274\241~\332\200<\325\033\314[\251z.I\313\331\351"
 415      DA803CD5 
 415      1BCC5BA9 
 415      7A2E49CB 
 415      D9E9
 416 09f1 59A69C65 		.ascii	"Y\246\234e\360\316V\2263\372?\036\006\212\276NO\321"
 416      F0CE5696 
 416      33FA3F1E 
 416      068ABE4E 
 416      4FD1
 417 0a03 9932CD8D 		.ascii	"\2312\315\215~\240\025Z2\272\221\211?\264\260\376\260"
 417      7EA0155A 
 417      32BA9189 
 417      3FB4B0FE 
 417      B0
ARM GAS  /tmp/ccuCDCR2.s 			page 33


 418 0a14 22AD6E9B 		.ascii	"\"\255n\233\233fB\\\210\306\342\3611\254n\231f\2505"
 418      9B66425C 
 418      88C6E2F1 
 418      31AC6E99 
 418      66A835
 419 0a27 191D429D 		.ascii	"\031\035B\235\277\030m/\245\327\266\231u\210\325\326"
 419      BF186D2F 
 419      A5D7B699 
 419      7588D5D6 
 420 0a37 C71AE988 		.ascii	"\307\032\351\210C\323\213p\306f\2528\252C\264\1774a"
 420      43D38B70 
 420      C666AA38 
 420      AA43B47F 
 420      3461
 421 0a49 BCE624E6 		.ascii	"\274\346$\346\255T=\327\246\235\364>:\337\205\033\262"
 421      AD543DD7 
 421      A69DF43E 
 421      3ADF851B 
 421      B2
 422 0a5a 76880D2C 		.ascii	"v\210\015,g+p\212G\314.J?q\266\247\223#\266e\357L\031"
 422      672B708A 
 422      47CC2E4A 
 422      3F71B6A7 
 422      9323B665 
 423 0a71 CFA9ED89 		.ascii	"\317\251\355\211\307oU\3409\324j\002\360ZZ\200\215\251"
 423      C76F55E0 
 423      39D46A02 
 423      F05A5A80 
 423      8DA9
 424 0a83 00AF9A00 		.ascii	"\000\257\232\000l2\002\334\206V\310\261C0u\237\275i"
 424      6C3202DC 
 424      8656C8B1 
 424      4330759F 
 424      BD69
 425 0a95 3D2CC4DB 		.ascii	"=,\304\333\201\2028\216\217\321\266\217\233\022(i\367"
 425      8182388E 
 425      8FD1B68F 
 425      9B122869 
 425      F7
 426 0aa6 8A047073 		.ascii	"\212\004ps\022\220\011\215D\0203\022\267$C#\021\341"
 426      1290098D 
 426      44103312 
 426      B7244323 
 426      11E1
 427 0ab8 D0A1D8E9 		.ascii	"\320\241\330\351\275\323e,\327\313\265$z\\\213\346\320"
 427      BDD3652C 
 427      D7CBB524 
 427      7A5C8BE6 
 427      D0
 428 0ac9 6DEA6280 		.ascii	"m\352b\200\371\022'\374\267!\261\020\270\2266\325W\373"
 428      F91227FC 
 428      B721B110 
 428      B89636D5 
 428      57FB
 429 0adb DABC1A8F 		.ascii	"\332\274\032\217\267\331\224\222\341\327\004Z\303L\300"
 429      B7D99492 
 429      E1D7045A 
ARM GAS  /tmp/ccuCDCR2.s 			page 34


 429      C34CC0
 430 0aea EDB6E4BF 		.ascii	"\355\266\344\277G\024\271\020\263\354@L-\240jw\021\023"
 430      4714B910 
 430      B3EC404C 
 430      2DA06A77 
 430      1113
 431 0afc 2A582938 		.ascii	"*X)8\264\277\010\253\355`\325\246\351\335\333-\347o"
 431      B4BF08AB 
 431      ED60D5A6 
 431      E9DDDB2D 
 431      E76F
 432 0b0e 941BE478 		.ascii	"\224\033\344x\374\005\023\255\237\322p\0123)\315\324"
 432      FC0513AD 
 432      9FD2700A 
 432      3329CDD4 
 433 0b1e E2F1AEAC 		.ascii	"\342\361\256\254u\336m\242s\201Ag\255\026\024w\320\201"
 433      75DE6DA2 
 433      73814167 
 433      AD161477 
 433      D081
 434 0b30 AE9BD718 		.ascii	"\256\233\327\030! \354\032TFC\206\015s\217\363\371K"
 434      2120EC1A 
 434      54464386 
 434      0D738FF3 
 434      F94B
 435 0b42 FD8F4F74 		.ascii	"\375\217Ot\207\"nQr\373\203\336\312\2522\301\355\365"
 435      87226E51 
 435      72FB83DE 
 435      CAAA32C1 
 435      EDF5
 436 0b54 05A49A61 		.ascii	"\005\244\232a>\344\014TIB\215Gr<\362\307'\213\307\241"
 436      3EE40C54 
 436      49428D47 
 436      723CF2C7 
 436      278BC7A1 
 437 0b68 7CAFCF43 		.ascii	"|\257\317C\337\334\231\241edJD\232\022\026\"\320\274"
 437      DFDC99A1 
 437      65644A44 
 437      9A121622 
 437      D0BC
 438 0b7a BFE41305 		.ascii	"\277\344\023\005\276,\342y\266J\250\022<\322\000hox"
 438      BE2CE279 
 438      B64AA812 
 438      3CD20068 
 438      6F78
 439 0b8c 755B261C 		.ascii	"u[&\034\257\257\0140\362\225\006\036\311\225h\354\010"
 439      AFAF0C30 
 439      F295061E 
 439      C99568EC 
 439      08
 440 0b9d 7B82428D 		.ascii	"{\202B\215\004\267\260(L\036\225\202\021\016\211R\304"
 440      04B7B028 
 440      4C1E9582 
 440      110E8952 
 440      C4
 441 0bae FDD09F1E 		.ascii	"\375\320\237\036\033\367X\215\333\033\012\204\375\225"
 441      1BF7588D 
ARM GAS  /tmp/ccuCDCR2.s 			page 35


 441      DB1B0A84 
 441      FD95
 442 0bbc 8218713F 		.ascii	"\202\030q?2n\034\300j\2629\245\260\350\017y\240b\260"
 442      326E1CC0 
 442      6AB239A5 
 442      B0E80F79 
 442      A062B0
 443 0bcf 9CA6FBDC 		.ascii	"\234\246\373\334\276P@p\213BD\340E\257\317\355\343\305"
 443      BE504070 
 443      8B4244E0 
 443      45AFCFED 
 443      E3C5
 444 0be1 B26A5E14 		.ascii	"\262j^\024\334\274\030\030\341\256\360z\207Ba\250\020"
 444      DCBC1818 
 444      E1AEF07A 
 444      874261A8 
 444      10
 445 0bf2 2815CACA 		.ascii	"(\025\312\312\204\262\304\213`((\014\025\370R\377\320"
 445      84B2C48B 
 445      6028280C 
 445      15F852FF 
 445      D0
 446 0c03 919ED143 		.ascii	"\221\236\321CG\224\014\037\371\354\010\267\341CB\247"
 446      47940C1F 
 446      F9EC08B7 
 446      E14342A7 
 447 0c13 8854E60F 		.ascii	"\210T\346\017JD\247*\270\337;\302#\325\341\237\257\367"
 447      4A44A72A 
 447      B8DF3BC2 
 447      23D5E19F 
 447      AFF7
 448 0c25 00EFF5F9 		.ascii	"\000\357\365\371\203\202\333S&\224\363U\225\222Gc\242"
 448      8382DB53 
 448      2694F355 
 448      95924763 
 448      A2
 449 0c36 C0E3D1E4 		.ascii	"\300\343\321\344\241\224\372CNo(\010V\226~\325\007\265"
 449      A194FA43 
 449      4E6F2808 
 449      56967ED5 
 449      07B5
 450 0c48 3E6F4814 		.ascii	">oH\024\000\241\220\274\366\000\206W\252\271\307J\033"
 450      00A190BC 
 450      F6008657 
 450      AAB9C74A 
 450      1B
 451 0c59 CFE4FB03 		.ascii	"\317\344\373\003\204\007Q\250\000a=\022'\216\344\304"
 451      840751A8 
 451      00613D12 
 451      278EE4C4 
 452 0c69 FB387114 		.ascii	"\3738q\024'\336\317\211\2439\361\001\2338\274\004\322"
 452      27DECF89 
 452      A339F101 
 452      9B38BC04 
 452      D2
 453 0c7a 70AE5284 		.ascii	"p\256R\204\333\275\366\260\007\260\235\304\360\325\202"
 453      DBBDF6B0 
ARM GAS  /tmp/ccuCDCR2.s 			page 36


 453      07B09DC4 
 453      F0D582
 454 0c89 08F75065 		.ascii	"\010\367Pe\231 \346y\201&\342\015|@\310\227\"\022/\201"
 454      9920E679 
 454      8126E20D 
 454      7C40C897 
 454      22122F81 
 455 0c9d 93398932 		.ascii	"\2239\2112\243\301_\024\265\240\004\325\3517\247\024"
 455      A3C15F14 
 455      B5A004D5 
 455      E937A714 
 456 0cad 089509F4 		.ascii	"\010\225\011\364\271\274\222\257\2108%Q(\217P\255I\301"
 456      B9BC92AF 
 456      88382551 
 456      288F50AD 
 456      49C1
 457 0cbf 1E8854C0 		.ascii	"\036\210T\300G\225\012h\256\221\"\226M\201O\371B\215"
 457      47950A68 
 457      AE912296 
 457      4D814FF9 
 457      428D
 458 0cd1 5FF20280 		.ascii	"_\362\002\200\243Z\012\225>\035\036\250:&4\025D!\350"
 458      A35A0A95 
 458      3E1D1EA8 
 458      3A263415 
 458      4421E8
 459 0ce4 05607BB5 		.ascii	"\005`{\265$\211agD\010J\320\240\010\0346\"\004\370\260"
 459      24896167 
 459      44084AD0 
 459      A0081C36 
 459      2204F8B0 
 460 0cf8 0F34CE34 		.ascii	"\0174\3164\326\240\022qHuL\330\275A\260\215=\342\201"
 460      D6A01271 
 460      48754CD8 
 460      BD41B08D 
 460      3DE281
 461 0d0b 3B74051F 		.ascii	";t\005\037\303p\203\361\030.\024&\023d>\362\014\010"
 461      C37083F1 
 461      182E1426 
 461      13643EF2 
 461      0C08
 462 0d1d 25549382 		.ascii	"%T\223\202-\354\251\352\247\015\251J\177\004Z\366\327"
 462      2DECA9EA 
 462      A70DA94A 
 462      7F045AF6 
 462      D7
 463 0d2e 0D32F2C6 		.ascii	"\0152\362\306\025\366T\363~\311\037\254(\010{@,\332"
 463      15F654F3 
 463      7EC91FAC 
 463      28087B40 
 463      2CDA
 464 0d40 091485B0 		.ascii	"\011\024\205\260\020\004\177\254\200\357\000Nj\026\020"
 464      10047FAC 
 464      80EF004E 
 464      6A1610
 465 0d4f 1EF84AEA 		.ascii	"\036\370J\352\001\3602\034\012U:\003\212Pp\017U\007"
 465      01F0321C 
ARM GAS  /tmp/ccuCDCR2.s 			page 37


 465      0A553A03 
 465      8A50700F 
 465      5507
 466 0d61 05D111A0 		.ascii	"\005\321\021\240C\257\366\252\370m\245\277\224T`\374"
 466      43AFF6AA 
 466      F86DA5BF 
 466      945460FC 
 467 0d71 77E4B0D1 		.ascii	"w\344\260\321\303F\352\307\020\370/\320\345\210\370"
 467      C346EAC7 
 467      10F82FD0 
 467      E588F8
 468 0d80 9F03CA33 		.ascii	"\237\003\3123\315 >\201\017C\315k\002B $N\361\220G\217"
 468      CD203E81 
 468      0F43CD6B 
 468      02422024 
 468      4EF19047 
 469 0d95 54A87BBA 		.ascii	"T\250{\272#\323\004(\004T\357.\202b\205 \225W\005\275"
 469      23D30428 
 469      0454EF2E 
 469      82628520 
 469      955705BD 
 470 0da9 1EA9C007 		.ascii	"\036\251\300\007#$4\331\017\336WH\001!\203rADz\206\257"
 470      232434D9 
 470      0FDE5748 
 470      01218372 
 470      41447A86 
 471 0dbe F457043D 		.ascii	"\364W\004=\022\035\334\243FBU\305\001I\321N\277\345"
 471      121DDCA3 
 471      464255C5 
 471      0149D14E 
 471      BFE5
 472 0dd0 11EAF248 		.ascii	"\021\352\362H+\\\225G\304\307>\207\317S.\012\202\335"
 472      2B5C9547 
 472      C4C73E87 
 472      CF532E0A 
 472      82DD
 473 0de2 476C704B 		.ascii	"GlpK\2128\021\321\253\351\341\205qJ;\364\007\375R\241"
 473      8A3811D1 
 473      ABE9E185 
 473      714A3BF4 
 473      07FD52A1 
 474 0df6 D7370E84 		.ascii	"\3277\016\204{\250\2622\344\205Iu<\274\177\274\364i"
 474      7BA8B232 
 474      E4854975 
 474      3CBC7FBC 
 474      F469
 475 0e08 C12B3D0A 		.ascii	"\301+=\012\037\355\244Z\330VZU^\250|\242\325\012\224"
 475      1FEDA45A 
 475      D8565A55 
 475      5EA87CA2 
 475      D50A94
 476 0e1b F2C3D01B 		.ascii	"\362\303\320\033\016\027)\017\023aTTE\354D\2240\270"
 476      0E17290F 
 476      13615454 
 476      45EC4494 
 476      30B8
 477 0e2d CD63524D 		.ascii	"\315cRM\022\245\220>?\031\204\246\317\270h\371\017P"
ARM GAS  /tmp/ccuCDCR2.s 			page 38


 477      12A5903E 
 477      3F1984A6 
 477      CFB868F9 
 477      0F50
 478 0e3f 2AD2260F 		.ascii	"*\322&\017\322G\276\307CI\361\\\243\025\206\215\032"
 478      D247BEC7 
 478      4349F15C 
 478      A315868D 
 478      1A
 479 0e50 593242FF 		.ascii	"Y2B\3774\374\201\377\003\375\201\277\244"
 479      34FC81FF 
 479      03FD81BF 
 479      A4
 480              		.text
 481              		.section	.gnu.lto_.symtab.b55afc261d902dac,"",%progbits
 482 0000 5F686561 		.ascii	"_heap_init\000\000\000\000\000\000\000\000\000\000\000"
 482      705F696E 
 482      69740000 
 482      00000000 
 482      00000000 
 483 0015 00840100 		.ascii	"\000\204\001\000\000chHeapObjectInit\000\000\000\000"
 483      00636848 
 483      6561704F 
 483      626A6563 
 483      74496E69 
 484 002e 00000000 		.ascii	"\000\000\000\000\000\000\000\000\212\001\000\000chH"
 484      00000000 
 484      8A010000 
 484      636848
 485 003d 65617041 		.ascii	"eapAlloc\000\000\000\000\000\000\000\000\000\000\000"
 485      6C6C6F63 
 485      00000000 
 485      00000000 
 485      000000
 486 0050 00960100 		.ascii	"\000\226\001\000\000chHeapFree\000\000\000\000\000\000"
 486      00636848 
 486      65617046 
 486      72656500 
 486      00000000 
 487 0065 00000000 		.ascii	"\000\000\000\000\000\000\236\001\000\000chHeapStatu"
 487      00009E01 
 487      00006368 
 487      48656170 
 487      53746174 
 488 007a 73000000 		.ascii	"s\000\000\000\000\000\000\000\000\000\000\000\000\245"
 488      00000000 
 488      00000000 
 488      00A5
 489 0088 01000063 		.ascii	"\001\000\000chCoreAlloc\000\000\002\000\000\000\000"
 489      68436F72 
 489      65416C6C 
 489      6F630000 
 489      02000000 
 490 009d 00000000 		.ascii	"\000\000\000\000\000\210\001\000\000chMtxObjectInit"
 490      00880100 
 490      0063684D 
 490      74784F62 
ARM GAS  /tmp/ccuCDCR2.s 			page 39


 490      6A656374 
 491 00b5 00000200 		.ascii	"\000\000\002\000\000\000\000\000\000\000\000\000\256"
 491      00000000 
 491      00000000 
 491      AE
 492 00c2 01000063 		.ascii	"\001\000\000chMtxUnlock\000\000\002\000\000\000\000"
 492      684D7478 
 492      556E6C6F 
 492      636B0000 
 492      02000000 
 493 00d7 00000000 		.ascii	"\000\000\000\000\000\262\001\000\000chMtxLock\000\000"
 493      00B20100 
 493      0063684D 
 493      74784C6F 
 493      636B0000 
 494 00eb 02000000 		.ascii	"\002\000\000\000\000\000\000\000\000\000\264\001\000"
 494      00000000 
 494      0000B401 
 494      00
 495 00f8 00       		.ascii	"\000"
 496              		.text
 497              		.section	.gnu.lto_.opts,"",%progbits
 498 0000 272D6D63 		.ascii	"'-mcpu=cortex-m4' '-mno-thumb-interwork' '-mthumb' "
 498      70753D63 
 498      6F727465 
 498      782D6D34 
 498      2720272D 
 499 0033 272D6767 		.ascii	"'-ggdb' '-O2' '-fomit-frame-pointer' '-falign-funct"
 499      64622720 
 499      272D4F32 
 499      2720272D 
 499      666F6D69 
 500 0066 696F6E73 		.ascii	"ions=16' '-ffunction-sections' '-fdata-sections' '-"
 500      3D313627 
 500      20272D66 
 500      66756E63 
 500      74696F6E 
 501 0099 666E6F2D 		.ascii	"fno-common' '-flto'\000"
 501      636F6D6D 
 501      6F6E2720 
 501      272D666C 
 501      746F2700 
 502              		.text
 503              		.cfi_sections	.debug_frame
 504              		.section	.text._heap_init,"ax",%progbits
 505              		.align	2
 506              		.p2align 4,,15
 507              		.global	_heap_init
 508              		.thumb
 509              		.thumb_func
 510              		.type	_heap_init, %function
 511              	_heap_init:
 512              	.LFB241:
 513              		.file 1 "../ChibiOS/os/rt/src/chheap.c"
 514              		.loc 1 91 0
 515              		.cfi_startproc
 516              		@ args = 0, pretend = 0, frame = 0
ARM GAS  /tmp/ccuCDCR2.s 			page 40


 517              		@ frame_needed = 0, uses_anonymous_args = 0
 518              		@ link register save eliminated.
 519              		.loc 1 93 0
 520 0000 044B     		ldr	r3, .L2
 521 0002 054A     		ldr	r2, .L2+4
 522 0004 1A60     		str	r2, [r3]
 523              		.loc 1 97 0
 524 0006 03F11000 		add	r0, r3, #16
 525              		.loc 1 94 0
 526 000a 0022     		movs	r2, #0
 527 000c 9A60     		str	r2, [r3, #8]
 528              		.loc 1 95 0
 529 000e DA60     		str	r2, [r3, #12]
 530              		.loc 1 97 0
 531 0010 FFF7FEBF 		b	chMtxObjectInit
 532              	.LVL0:
 533              	.L3:
 534              		.align	2
 535              	.L2:
 536 0014 00000000 		.word	.LANCHOR0
 537 0018 00000000 		.word	chCoreAlloc
 538              		.cfi_endproc
 539              	.LFE241:
 540              		.size	_heap_init, .-_heap_init
 541 001c AFF30080 		.section	.text.chHeapObjectInit,"ax",%progbits
 542              		.align	2
 543              		.p2align 4,,15
 544              		.global	chHeapObjectInit
 545              		.thumb
 546              		.thumb_func
 547              		.type	chHeapObjectInit, %function
 548              	chHeapObjectInit:
 549              	.LFB242:
 550              		.loc 1 114 0
 551              		.cfi_startproc
 552              		@ args = 0, pretend = 0, frame = 0
 553              		@ frame_needed = 0, uses_anonymous_args = 0
 554              		@ link register save eliminated.
 555              	.LVL1:
 556              		.loc 1 119 0
 557 0000 0023     		movs	r3, #0
 558              		.loc 1 123 0
 559 0002 083A     		subs	r2, r2, #8
 560              	.LVL2:
 561              		.loc 1 120 0
 562 0004 8160     		str	r1, [r0, #8]
 563              		.loc 1 119 0
 564 0006 0360     		str	r3, [r0]
 565              		.loc 1 121 0
 566 0008 C360     		str	r3, [r0, #12]
 567              		.loc 1 125 0
 568 000a 1030     		adds	r0, r0, #16
 569              	.LVL3:
 570              		.loc 1 123 0
 571 000c 4A60     		str	r2, [r1, #4]
 572              		.loc 1 122 0
 573 000e 0B60     		str	r3, [r1]
ARM GAS  /tmp/ccuCDCR2.s 			page 41


 574              		.loc 1 125 0
 575 0010 FFF7FEBF 		b	chMtxObjectInit
 576              	.LVL4:
 577              		.cfi_endproc
 578              	.LFE242:
 579              		.size	chHeapObjectInit, .-chHeapObjectInit
 580 0014 AFF30080 		.section	.text.chHeapAlloc,"ax",%progbits
 580      AFF30080 
 580      AFF30080 
 581              		.align	2
 582              		.p2align 4,,15
 583              		.global	chHeapAlloc
 584              		.thumb
 585              		.thumb_func
 586              		.type	chHeapAlloc, %function
 587              	chHeapAlloc:
 588              	.LFB243:
 589              		.loc 1 147 0
 590              		.cfi_startproc
 591              		@ args = 0, pretend = 0, frame = 0
 592              		@ frame_needed = 0, uses_anonymous_args = 0
 593              	.LVL5:
 594 0000 F8B5     		push	{r3, r4, r5, r6, r7, lr}
 595              		.cfi_def_cfa_offset 24
 596              		.cfi_offset 3, -24
 597              		.cfi_offset 4, -20
 598              		.cfi_offset 5, -16
 599              		.cfi_offset 6, -12
 600              		.cfi_offset 7, -8
 601              		.cfi_offset 14, -4
 602              		.loc 1 151 0
 603 0002 214E     		ldr	r6, .L21
 604 0004 0028     		cmp	r0, #0
 605 0006 18BF     		it	ne
 606 0008 0646     		movne	r6, r0
 607              	.LVL6:
 608              		.loc 1 157 0
 609 000a 06F11007 		add	r7, r6, #16
 610              		.loc 1 154 0
 611 000e 0731     		adds	r1, r1, #7
 612              	.LVL7:
 613              		.loc 1 157 0
 614 0010 3846     		mov	r0, r7
 615              		.loc 1 154 0
 616 0012 21F00705 		bic	r5, r1, #7
 617              	.LVL8:
 618              		.loc 1 155 0
 619 0016 06F10804 		add	r4, r6, #8
 620              	.LVL9:
 621              		.loc 1 157 0
 622 001a FFF7FEFF 		bl	chMtxLock
 623              	.LVL10:
 624              		.loc 1 158 0
 625 001e 03E0     		b	.L7
 626              	.LVL11:
 627              	.L12:
 628              		.loc 1 160 0
ARM GAS  /tmp/ccuCDCR2.s 			page 42


 629 0020 5A68     		ldr	r2, [r3, #4]
 630 0022 9542     		cmp	r5, r2
 631 0024 12D9     		bls	.L20
 632 0026 1C46     		mov	r4, r3
 633              	.LVL12:
 634              	.L7:
 635              		.loc 1 158 0 discriminator 1
 636 0028 2368     		ldr	r3, [r4]
 637              	.LVL13:
 638 002a 002B     		cmp	r3, #0
 639 002c F8D1     		bne	.L12
 640              		.loc 1 186 0
 641 002e 3846     		mov	r0, r7
 642 0030 FFF7FEFF 		bl	chMtxUnlock
 643              	.LVL14:
 644              		.loc 1 190 0
 645 0034 3368     		ldr	r3, [r6]
 646 0036 2BB3     		cbz	r3, .L14
 647              		.loc 1 191 0
 648 0038 05F10800 		add	r0, r5, #8
 649 003c 9847     		blx	r3
 650              	.LVL15:
 651              		.loc 1 192 0
 652 003e 08B3     		cbz	r0, .L14
 653              		.loc 1 193 0
 654 0040 0660     		str	r6, [r0]
 655              		.loc 1 194 0
 656 0042 4560     		str	r5, [r0, #4]
 657              	.LVL16:
 658              		.loc 1 198 0
 659 0044 00F10804 		add	r4, r0, #8
 660              	.LVL17:
 661              	.L11:
 662              		.loc 1 204 0
 663 0048 2046     		mov	r0, r4
 664 004a F8BD     		pop	{r3, r4, r5, r6, r7, pc}
 665              	.LVL18:
 666              	.L20:
 667              		.loc 1 161 0
 668 004c 05F10801 		add	r1, r5, #8
 669 0050 9142     		cmp	r1, r2
 670 0052 09D9     		bls	.L9
 671              		.loc 1 165 0
 672 0054 1A68     		ldr	r2, [r3]
 673 0056 2260     		str	r2, [r4]
 674              	.L10:
 675              		.loc 1 177 0
 676 0058 1C46     		mov	r4, r3
 677              	.LVL19:
 678              		.loc 1 178 0
 679 005a 3846     		mov	r0, r7
 680              		.loc 1 177 0
 681 005c 44F8086B 		str	r6, [r4], #8
 682              		.loc 1 178 0
 683 0060 FFF7FEFF 		bl	chMtxUnlock
 684              	.LVL20:
 685              		.loc 1 204 0
ARM GAS  /tmp/ccuCDCR2.s 			page 43


 686 0064 2046     		mov	r0, r4
 687 0066 F8BD     		pop	{r3, r4, r5, r6, r7, pc}
 688              	.LVL21:
 689              	.L9:
 690              		.loc 1 173 0
 691 0068 6FF00700 		mvn	r0, #7
 692 006c 401B     		subs	r0, r0, r5
 693              		.loc 1 170 0
 694 006e 03EB010E 		add	lr, r3, r1
 695              	.LVL22:
 696              		.loc 1 173 0
 697 0072 0244     		add	r2, r2, r0
 698              		.loc 1 172 0
 699 0074 1868     		ldr	r0, [r3]
 700 0076 5850     		str	r0, [r3, r1]
 701              		.loc 1 173 0
 702 0078 CEF80420 		str	r2, [lr, #4]
 703              		.loc 1 174 0
 704 007c C4F800E0 		str	lr, [r4]
 705              		.loc 1 175 0
 706 0080 5D60     		str	r5, [r3, #4]
 707 0082 E9E7     		b	.L10
 708              	.LVL23:
 709              	.L14:
 710              		.loc 1 203 0
 711 0084 0024     		movs	r4, #0
 712              	.LVL24:
 713 0086 DFE7     		b	.L11
 714              	.L22:
 715              		.align	2
 716              	.L21:
 717 0088 00000000 		.word	.LANCHOR0
 718              		.cfi_endproc
 719              	.LFE243:
 720              		.size	chHeapAlloc, .-chHeapAlloc
 721 008c AFF30080 		.section	.text.chHeapFree,"ax",%progbits
 722              		.align	2
 723              		.p2align 4,,15
 724              		.global	chHeapFree
 725              		.thumb
 726              		.thumb_func
 727              		.type	chHeapFree, %function
 728              	chHeapFree:
 729              	.LFB244:
 730              		.loc 1 213 0
 731              		.cfi_startproc
 732              		@ args = 0, pretend = 0, frame = 0
 733              		@ frame_needed = 0, uses_anonymous_args = 0
 734              	.LVL25:
 735 0000 F8B5     		push	{r3, r4, r5, r6, r7, lr}
 736              		.cfi_def_cfa_offset 24
 737              		.cfi_offset 3, -24
 738              		.cfi_offset 4, -20
 739              		.cfi_offset 5, -16
 740              		.cfi_offset 6, -12
 741              		.cfi_offset 7, -8
 742              		.cfi_offset 14, -4
ARM GAS  /tmp/ccuCDCR2.s 			page 44


 743              		.loc 1 222 0
 744 0002 50F8085C 		ldr	r5, [r0, #-8]
 745              		.loc 1 225 0
 746 0006 05F11007 		add	r7, r5, #16
 747              		.loc 1 213 0
 748 000a 0646     		mov	r6, r0
 749              		.loc 1 220 0
 750 000c A0F10804 		sub	r4, r0, #8
 751              	.LVL26:
 752              		.loc 1 223 0
 753 0010 0835     		adds	r5, r5, #8
 754              	.LVL27:
 755              		.loc 1 225 0
 756 0012 3846     		mov	r0, r7
 757              	.LVL28:
 758 0014 FFF7FEFF 		bl	chMtxLock
 759              	.LVL29:
 760              		.loc 1 223 0
 761 0018 2B46     		mov	r3, r5
 762              	.LVL30:
 763              	.L30:
 764              		.loc 1 229 0
 765 001a AB42     		cmp	r3, r5
 766 001c 04D0     		beq	.L24
 767              	.L35:
 768              		.loc 1 229 0 is_stmt 0 discriminator 2
 769 001e A342     		cmp	r3, r4
 770 0020 02D3     		bcc	.L24
 771 0022 1B68     		ldr	r3, [r3]
 772              	.LVL31:
 773              		.loc 1 229 0
 774 0024 AB42     		cmp	r3, r5
 775 0026 FAD1     		bne	.L35
 776              	.L24:
 777              		.loc 1 230 0 is_stmt 1 discriminator 1
 778 0028 1A68     		ldr	r2, [r3]
 779              		.loc 1 229 0 discriminator 1
 780 002a 1AB1     		cbz	r2, .L26
 781              		.loc 1 230 0
 782 002c 9442     		cmp	r4, r2
 783 002e 01D3     		bcc	.L26
 784 0030 1346     		mov	r3, r2
 785              	.LVL32:
 786              		.loc 1 248 0
 787 0032 F2E7     		b	.L30
 788              	.LVL33:
 789              	.L26:
 790              		.loc 1 235 0
 791 0034 56F8041C 		ldr	r1, [r6, #-4]
 792              		.loc 1 232 0
 793 0038 46F8082C 		str	r2, [r6, #-8]
 794              		.loc 1 233 0
 795 003c 1C60     		str	r4, [r3]
 796              		.loc 1 235 0
 797 003e 01F10802 		add	r2, r1, #8
 798 0042 56F8085C 		ldr	r5, [r6, #-8]
 799              	.LVL34:
ARM GAS  /tmp/ccuCDCR2.s 			page 45


 800 0046 A018     		adds	r0, r4, r2
 801 0048 A842     		cmp	r0, r5
 802 004a 0AD0     		beq	.L36
 803              		.loc 1 240 0
 804 004c 5A68     		ldr	r2, [r3, #4]
 805 004e 02F10801 		add	r1, r2, #8
 806 0052 1944     		add	r1, r1, r3
 807 0054 8C42     		cmp	r4, r1
 808 0056 12D0     		beq	.L37
 809              	.L29:
 810              		.loc 1 249 0
 811 0058 3846     		mov	r0, r7
 812              		.loc 1 252 0
 813 005a BDE8F840 		pop	{r3, r4, r5, r6, r7, lr}
 814              	.LVL35:
 815              		.loc 1 249 0
 816 005e FFF7FEBF 		b	chMtxUnlock
 817              	.LVL36:
 818              	.L36:
 819              		.loc 1 237 0
 820 0062 4068     		ldr	r0, [r0, #4]
 821              		.loc 1 238 0
 822 0064 A258     		ldr	r2, [r4, r2]
 823 0066 46F8082C 		str	r2, [r6, #-8]
 824              		.loc 1 237 0
 825 006a 0A18     		adds	r2, r1, r0
 826 006c 0832     		adds	r2, r2, #8
 827 006e 46F8042C 		str	r2, [r6, #-4]
 828              		.loc 1 240 0
 829 0072 5A68     		ldr	r2, [r3, #4]
 830 0074 02F10801 		add	r1, r2, #8
 831 0078 1944     		add	r1, r1, r3
 832 007a 8C42     		cmp	r4, r1
 833 007c ECD1     		bne	.L29
 834              	.L37:
 835              		.loc 1 242 0
 836 007e 56F8040C 		ldr	r0, [r6, #-4]
 837              		.loc 1 243 0
 838 0082 56F8081C 		ldr	r1, [r6, #-8]
 839 0086 1960     		str	r1, [r3]
 840              		.loc 1 242 0
 841 0088 0244     		add	r2, r2, r0
 842 008a 0832     		adds	r2, r2, #8
 843 008c 5A60     		str	r2, [r3, #4]
 844              		.loc 1 249 0
 845 008e 3846     		mov	r0, r7
 846              		.loc 1 252 0
 847 0090 BDE8F840 		pop	{r3, r4, r5, r6, r7, lr}
 848              	.LVL37:
 849              		.loc 1 249 0
 850 0094 FFF7FEBF 		b	chMtxUnlock
 851              	.LVL38:
 852              		.cfi_endproc
 853              	.LFE244:
 854              		.size	chHeapFree, .-chHeapFree
 855 0098 AFF30080 		.section	.text.chHeapStatus,"ax",%progbits
 855      AFF30080 
ARM GAS  /tmp/ccuCDCR2.s 			page 46


 856              		.align	2
 857              		.p2align 4,,15
 858              		.global	chHeapStatus
 859              		.thumb
 860              		.thumb_func
 861              		.type	chHeapStatus, %function
 862              	chHeapStatus:
 863              	.LFB245:
 864              		.loc 1 267 0
 865              		.cfi_startproc
 866              		@ args = 0, pretend = 0, frame = 0
 867              		@ frame_needed = 0, uses_anonymous_args = 0
 868              	.LVL39:
 869 0000 F8B5     		push	{r3, r4, r5, r6, r7, lr}
 870              		.cfi_def_cfa_offset 24
 871              		.cfi_offset 3, -24
 872              		.cfi_offset 4, -20
 873              		.cfi_offset 5, -16
 874              		.cfi_offset 6, -12
 875              		.cfi_offset 7, -8
 876              		.cfi_offset 14, -4
 877              		.loc 1 272 0
 878 0002 0E4C     		ldr	r4, .L51
 879 0004 0028     		cmp	r0, #0
 880 0006 18BF     		it	ne
 881 0008 0446     		movne	r4, r0
 882              	.LVL40:
 883              		.loc 1 275 0
 884 000a 04F11006 		add	r6, r4, #16
 885 000e 3046     		mov	r0, r6
 886              		.loc 1 267 0
 887 0010 0F46     		mov	r7, r1
 888              		.loc 1 275 0
 889 0012 FFF7FEFF 		bl	chMtxLock
 890              	.LVL41:
 891              		.loc 1 279 0
 892 0016 A368     		ldr	r3, [r4, #8]
 893 0018 6BB1     		cbz	r3, .L44
 894              		.loc 1 276 0
 895 001a 0022     		movs	r2, #0
 896              		.loc 1 277 0
 897 001c 1446     		mov	r4, r2
 898              	.LVL42:
 899              	.L41:
 900              		.loc 1 279 0
 901 001e 28CB     		ldmia	r3, {r3, r5}
 902              		.loc 1 281 0
 903 0020 0134     		adds	r4, r4, #1
 904              	.LVL43:
 905              		.loc 1 280 0
 906 0022 2A44     		add	r2, r2, r5
 907              	.LVL44:
 908              		.loc 1 279 0
 909 0024 002B     		cmp	r3, #0
 910 0026 FAD1     		bne	.L41
 911              	.LVL45:
 912              	.L40:
ARM GAS  /tmp/ccuCDCR2.s 			page 47


 913              		.loc 1 284 0
 914 0028 07B1     		cbz	r7, .L42
 915              		.loc 1 285 0
 916 002a 3A60     		str	r2, [r7]
 917              	.L42:
 918              		.loc 1 287 0
 919 002c 3046     		mov	r0, r6
 920 002e FFF7FEFF 		bl	chMtxUnlock
 921              	.LVL46:
 922              		.loc 1 290 0
 923 0032 2046     		mov	r0, r4
 924 0034 F8BD     		pop	{r3, r4, r5, r6, r7, pc}
 925              	.LVL47:
 926              	.L44:
 927              		.loc 1 276 0
 928 0036 1A46     		mov	r2, r3
 929              		.loc 1 277 0
 930 0038 1C46     		mov	r4, r3
 931              	.LVL48:
 932 003a F5E7     		b	.L40
 933              	.L52:
 934              		.align	2
 935              	.L51:
 936 003c 00000000 		.word	.LANCHOR0
 937              		.cfi_endproc
 938              	.LFE245:
 939              		.size	chHeapStatus, .-chHeapStatus
 940              		.section	.bss.default_heap,"aw",%nobits
 941              		.align	3
 942              		.set	.LANCHOR0,. + 0
 943              		.type	default_heap, %object
 944              		.size	default_heap, 32
 945              	default_heap:
 946 0000 00000000 		.space	32
 946      00000000 
 946      00000000 
 946      00000000 
 946      00000000 
 947              		.text
 948              	.Letext0:
 949              		.file 2 "/nfs/nfs5/home/research/hardware/arm2/gcc-arm-embedded/gcc-arm-none-eabi-4_8-2014q2/lib/g
 950              		.file 3 "/nfs/nfs5/home/research/hardware/arm2/gcc-arm-embedded/gcc-arm-none-eabi-4_8-2014q2/arm-n
 951              		.file 4 "/nfs/nfs5/home/research/hardware/arm2/gcc-arm-embedded/gcc-arm-none-eabi-4_8-2014q2/arm-n
 952              		.file 5 "../ChibiOS/os/rt/ports/ARMCMx/compilers/GCC/chtypes.h"
 953              		.file 6 "../ChibiOS/os/rt/include/chsystypes.h"
 954              		.file 7 "../ChibiOS/os/rt/include/chschd.h"
 955              		.file 8 "../ChibiOS/os/rt/ports/ARMCMx/chcore.h"
 956              		.file 9 "../ChibiOS/os/rt/ports/ARMCMx/chcore_v7m.h"
 957              		.file 10 "../ChibiOS/os/rt/include/chtm.h"
 958              		.file 11 "../ChibiOS/os/rt/include/chsem.h"
 959              		.file 12 "../ChibiOS/os/rt/include/chmtx.h"
 960              		.file 13 "../ChibiOS/os/rt/include/chmemcore.h"
 961              		.file 14 "../ChibiOS/os/rt/include/chheap.h"
 962              		.file 15 "../ChibiOS/os/ext/CMSIS/include/core_cm4.h"