ARM GAS  /tmp/ccuCDCR2.s 			page 1


   1              		.syntax unified
   2              		.cpu cortex-m4
   3              		.fpu softvfp
   4              		.eabi_attribute 20, 1
   5              		.eabi_attribute 21, 1
   6              		.eabi_attribute 23, 3
   7              		.eabi_attribute 24, 1
   8              		.eabi_attribute 25, 1
   9              		.eabi_attribute 26, 1
  10              		.eabi_attribute 30, 2
  11              		.eabi_attribute 34, 1
  12              		.eabi_attribute 18, 4
  13              		.thumb
  14              		.file	"chheap.c"
  15              		.text
  16              	.Ltext0:
  17              		.section	.gnu.lto_.jmpfuncs.b55afc261d902dac,"",%progbits
  18 0000 789C6362 		.ascii	"x\234cb`b\300\0062\2404+\003\003#S5\303\257\206\216"
  18      6062C006 
  18      32A0342B 
  18      03032353 
  18      35C3AF86 
  19 0015 06814C46 		.ascii	"\006\201LF\006m\206U\015\015 \026c.#C\022#\\9#\343\203"
  19      066D8655 
  19      0D0D2016 
  19      632E2343 
  19      12235C39 
  20 002c FF50C018 		.ascii	"\377P\300\030\301\230\311\0104\224\231\235\221\245\001"
  20      C198C908 
  20      3494999D 
  20      91A501
  21 003b C8042962 		.ascii	"\310\004)ba\006\222pT\0174\226\021\302d\203J0\000\000"
  21      61069270 
  21      540F3496 
  21      11C26483 
  21      4A300000 
  22 004f 14D512C5 		.ascii	"\024\325\022\305"
  23              		.text
  24              		.section	.gnu.lto_.inline.b55afc261d902dac,"",%progbits
  25 0000 789C6362 		.ascii	"x\234cb`b\300\006L\031!4+\003\003\207\000#\003\023\333"
  25      6062C006 
  25      4C192134 
  25      2B030387 
  25      00230313 
  26 0015 073D06B6 		.ascii	"\007=\006\266\005\362`\305L\334\014\014\214\014\314"
  26      05F260C5 
  26      4CDC0C0C 
  26      8C0CCC
  27 0024 0CDCC28C 		.ascii	"\014\334\302\214LL`u \202\231\265C\235\201{\205\033"
  27      4C4C6075 
  27      208299B5 
  27      439D817B 
  27      851B
  28 0036 1303D305 		.ascii	"\023\003\323\005~\026\270\272\011~,\014\372\037\030"
  28      7E16B8BA 
  28      097E2C0C 
  28      FA1F18
ARM GAS  /tmp/ccuCDCR2.s 			page 2


  29 0045 185918D2 		.ascii	"\030Y\030\322#\0303\031\231A\022\031p\026H##\210`1\353"
  29      23183319 
  29      99411219 
  29      70164823 
  29      23886031 
  30 005a E8E184D8 		.ascii	"\350\341\204\330\300\262@^\200\201c\237\236\002\222"
  30      C0B2405E 
  30      8081639F 
  30      9E0292
  31 0069 19A814AB 		.ascii	"\031\250\024\253 \204b\320\331\303\010\324\015\266\335"
  31      208462D0 
  31      D9C308D4 
  31      0DB6DD
  32 0078 61D53561 		.ascii	"a\3255a\006\276\031\316\030\326C)6\006\241\273\014\214"
  32      06BE19CE 
  32      18D64329 
  32      3606A1BB 
  32      0C8C
  33 008a 6CD85CC1 		.ascii	"l\330\\\301\010f\201\3640\246\303X\010\227\261\361<"
  33      086681F4 
  33      30A6C358 
  33      0897B1F1 
  33      3C
  34 009b 79C40E77 		.ascii	"y\304\016w\231\003\210h\000\332\331\304.\300\004&1\255"
  34      99038868 
  34      00DAD9C4 
  34      2EC00426 
  34      31AD
  35 00ad 62000049 		.ascii	"b\000\000I\345%f"
  35      E52566
  36              		.text
  37              		.section	.gnu.lto_.pureconst.b55afc261d902dac,"",%progbits
  38 0000 789C6362 		.ascii	"x\234cb`b\340f\200\000V\006\011f)\026)V)6)\000\004?"
  38      6062E066 
  38      80005606 
  38      09662916 
  38      29562936 
  39 0018 00A7     		.ascii	"\000\247"
  40              		.text
  41              		.section	.gnu.lto__heap_init.b55afc261d902dac,"",%progbits
  42 0000 789C6362 		.ascii	"x\234cb`b@\007\222@\374\225\221\201A\001H32302M8\307"
  42      60624007 
  42      9240FC95 
  42      91814101 
  42      48333233 
  43 0019 C0D0C8C1 		.ascii	"\300\320\310\301\304\310\010b002\32431\326G2\202\325"
  43      C4C80862 
  43      303032D4 
  43      3331D647 
  43      3282D5
  44 002c AE673AF0 		.ascii	"\256g:\360\340\377\377u\337\216M\277\3038\207\211\015"
  44      E0FFFF75 
  44      DF8E4DBF 
  44      C3388789 
  44      0D
  45 003d 28C2CAD0 		.ascii	"(\302\312\320\322\3200\001\2507\031\254\"\004H\202\264"
  45      D2D03001 
ARM GAS  /tmp/ccuCDCR2.s 			page 3


  45      A83719AC 
  45      22044882 
  45      B4
  46 004e 85323281 		.ascii	"\20522\201h\346\263\014M\277\232\277\367Z'2.dde\320"
  46      68E6B30C 
  46      4DBF9ABF 
  46      F75A2732 
  46      2E646465 
  47 0063 6658D500 		.ascii	"fX\325\000\004\366\231\214\014\263\031f564\010d22V3"
  47      04F6998C 
  47      0CB31966 
  47      35363408 
  47      64323256 
  48 0078 FC6AE800 		.ascii	"\374j\350\000\261\230r\301FD0\002\231`\333\222 \226"
  48      B19872C1 
  48      46443002 
  48      9960DB92 
  48      2096
  49 008a 32405434 		.ascii	"2@T4Tg22'3B\304\200\346\356\270\361\376\000\013\212"
  49      54673232 
  49      273342C4 
  49      80E6EEB8 
  49      F1FE000B 
  50 009f B9A5998C 		.ascii	"\271\245\231\214,Pfa&#+\224\031\233\311\310\206\260"
  50      2C506661 
  50      26232B94 
  50      199BC9C8 
  50      86B0
  51 00b1 989D388B 		.ascii	"\230\2358\213\031\2414\214\317\014\245Y\030`*Y`\316"
  51      19A1348C 
  51      CF0CA559 
  51      18602A59 
  51      60CE
  52 00c3 F8F1FE03 		.ascii	"\370\361\376\0033\2123\200vsP\323nV\270\235\034 \306"
  52      338A3380 
  52      767350D3 
  52      6E56B89D 
  52      1C20C6
  53 00d6 79869607 		.ascii	"y\206\226\007'\017sA\254\204\005\016\320$\316d\250\016"
  53      270F7341 
  53      AC84050E 
  53      D024CE64 
  53      A80E
  54 00e8 90084726 		.ascii	"\220\010G&#\027\324\342\211@\215\334@[\222\030\331\300"
  54      2317D4E2 
  54      89408DDC 
  54      405B9218 
  54      D9C0
  55 00fa D2508D99 		.ascii	"\322P\215\231\214<\014\014\027\031\032\037\234U\206"
  55      8C3C0C0C 
  55      17191A1F 
  55      9C5586
  56 0109 19050121 		.ascii	"\031\005\001!@\007\000\243\016d\226\234\236\236\276"
  56      400700A3 
  56      0E64969C 
  56      9E9EBE
  57 0118 73466652 		.ascii	"sFfR\246\177\260~~\261~Q\211~qQ\262~rFFjb\201^2\003"
ARM GAS  /tmp/ccuCDCR2.s 			page 4


  57      A67FB07E 
  57      7EB17E51 
  57      897E7151 
  57      B27E7246 
  58 0133 00236885 		.ascii	"\000#h\205\015"
  58      0D
  59              		.text
  60              		.section	.gnu.lto_chHeapObjectInit.b55afc261d902dac,"",%progbits
  61 0000 789CA552 		.ascii	"x\234\245R\275/\004Q\020\377\315\333[\356\254\257V#"
  61      BD2F0451 
  61      10FFCDDB 
  61      5BEEACAF 
  61      5623
  62 0012 9C6888DB 		.ascii	"\234h\210\333(\374\005\376\000\021$\224g#w\257\270\020"
  62      28FC05FE 
  62      00112494 
  62      672377AF 
  62      B810
  63 0024 A7A2F038 		.ascii	"\247\242\3608\011\252\273h\010\015J\005\355\225\253"
  63      09AABB68 
  63      080D4A05 
  63      ED95AB
  64 0033 210A5F89 		.ascii	"!\012_\211\204\362J\235\222\220\334\232\267\373\334"
  64      84F24A9D 
  64      9290DC9A 
  64      B7FBDC
  65 0042 E5444462 		.ascii	"\345DDb\222\235\231\315\316\373}\314>\001\201\357\321"
  65      929D99CD 
  65      CEFB7DCC 
  65      3E0181EF 
  65      D1
  66 0053 C54F8705 		.ascii	"\305O\207\005\364q%\013$J7\300Z\\\020\351\006\204UA"
  66      F471250B 
  66      244A37C0 
  66      5A5C10E9 
  66      06845541 
  67 0067 AB3314CE 		.ascii	"\2533\024\316\236\011\277\022\004\247\017\227\027\347"
  67      9E09BF12 
  67      04A70F97 
  67      17E7
  68 0075 B4DDDF46 		.ascii	"\264\335\337F\224#X\234(\316I$ \011\016'=lcC\251RO\022"
  68      9423589C 
  68      28CE4924 
  68      20090E27 
  68      3D6C6343 
  69 008d 474AEDF8 		.ascii	"GJ\355\370\217\233\273]\352p\275\244\252A@\222\204@"
  69      8F9BBB5D 
  69      EA70BDA4 
  69      AA414092 
  69      8440
  70 009f 2FC1234C 		.ascii	"/\301#L\363\213\325\023\226X\254QW\216\305\350\021\216"
  70      F38BD513 
  70      9658AC51 
  70      578EC5E8 
  70      118E
  71 00b1 49CE5ACC 		.ascii	"I\316Z\314\024\011]\255+\2104\035\221\2154\035S\022"
  71      14095DAD 
ARM GAS  /tmp/ccuCDCR2.s 			page 5


  71      2B88341D 
  71      918D341D 
  71      5312
  72 00c3 194D788D 		.ascii	"\031Mx\215\365\362\333\307\263\3710\210\023\3051,\311"
  72      F5F2DBC7 
  72      B3F93088 
  72      13C5312C 
  72      C9
  73 00d4 3EC03EA3 		.ascii	">\300>\2437e\310\322,\315!\366ld'\344\265u\303\247\257"
  73      3765C8D2 
  73      2CCD21F6 
  73      6C6427E4 
  73      B575C3A7 
  74 00e9 F6AA7756 		.ascii	"\366\252wV\303\351\031\026j\332)Iq\323\216KJ\324\341"
  74      C3E91916 
  74      6ADA2949 
  74      71D38E4B 
  74      4AD4E1
  75 00fc 5B7E8627 		.ascii	"[~\206'S\205\251\226\251\221\307\232\340r\325o\244d"
  75      5385A996 
  75      A991C79A 
  75      E072D56F 
  75      A464
  76 010e 1EE73F3C 		.ascii	"\036\347?<v\315\226cl\225\237\252~\343RF\352\266\206"
  76      76CD9663 
  76      6C959FAA 
  76      7EE35246 
  76      EAB686
  77 0121 EBB61CA6 		.ascii	"\353\266\034\246\2138ZX\236F\020\277z\250M\\\243\260"
  77      8B385A58 
  77      9E4610BF 
  77      7AA84D5C 
  77      A3B0
  78 0133 5578290E 		.ascii	"Ux)\016E\034\031Jd(\036\012x\013\202\240\303\354\366"
  78      451C194A 
  78      64281E0A 
  78      780B82A0 
  78      C3ECF6
  79 0146 AEF9FB7F 		.ascii	"\256\371\373\177q\376\314k\233\235%B\250\367\302kq\340"
  79      71FECC6B 
  79      9B9D2542 
  79      A8F7C26B 
  79      71E0
  80 0158 8BCB59C1 		.ascii	"\213\313Y\3012_7\003\225\227\324\372\363\232\232\352"
  80      325F3703 
  80      9597D4FA 
  80      F39A9AEA 
  81 0168 D7EA161B 		.ascii	"\327\352\026\033\2769\017\254\340]m\251NIm\236Y%cJj"
  81      BE390FAC 
  81      E05D6DA9 
  81      4E496D9E 
  81      5925634A 
  82 017d 07EEB156 		.ascii	"\007\356\261V\331\356\377\232\213b\222g\370\372i]\335"
  82      D9EEFF9A 
  82      8B629267 
  82      F8FA695D 
  82      DD
ARM GAS  /tmp/ccuCDCR2.s 			page 6


  83 018e A9943B9A 		.ascii	"\251\224;\232\225\263rl\302\235\317\273\213Kn~\321s"
  83      95B3726C 
  83      C29DCFBB 
  83      8B4B6E7E 
  83      D173
  84 01a0 BD6C762E 		.ascii	"\275lv.\275\220\362 \262\013\237\316\037\267\321"
  84      BD90F220 
  84      B20B9FCE 
  84      1FB7D1
  85              		.text
  86              		.section	.gnu.lto_chHeapAlloc.b55afc261d902dac,"",%progbits
  87 0000 789CC556 		.ascii	"x\234\305V]h\034U\024>\347\336\335\231\331\277\331-"
  87      5D681C55 
  87      143EE7DE 
  87      DD99D9BF 
  87      D92D
  88 0012 094D91D6 		.ascii	"\011M\221\326\256\213\265h!\241\024\221Pj\221\372.b"
  88      AE8BB568 
  88      21A11491 
  88      506A91FA 
  88      2E62
  89 0024 03FA6612 		.ascii	"\003\372f\022c2\017\305\264\325\027\363\220Iv\013\321"
  89      63320FC5 
  89      B4D517F3 
  89      9049760B 
  89      D1
  90 0035 FA1085A4 		.ascii	"\372\020\205\244\376\364!\245\224\202\242\001\177H\260"
  90      FEF421A5 
  90      9482A201 
  90      7F48B0
  91 0044 916E43A9 		.ascii	"\221nC\251I\252\261}\220\246\322\322\264\032\012V\320"
  91      49AAB17D 
  91      90A6D2D2 
  91      B41A0A56 
  91      D0
  92 0055 E0436A10 		.ascii	"\340Cj\020\326s\356\2753;[\243\331>\210\003{\177\346"
  92      D673EEBD 
  92      333B5BA3 
  92      D93E8803 
  92      7B7FE6
  93 0068 9EF39DEF 		.ascii	"\236\363\235\357\374\3343+@\300\275\317W\364\353H\002"
  93      FCDC332B 
  93      40C0BDCF 
  93      57F4EB48 
  93      02
  94 0079 3C4A33E6 		.ascii	"<J3\346\000\305\360<\300\200#\204\274\226\002?\031\373"
  94      00C5F03C 
  94      C0802384 
  94      BC96023F 
  94      19FB
  95 008b 7C1AC04F 		.ascii	"|\032\300OK\214\351\3671L\352E\\X\323\222\004\262\363"
  95      4B8CE9F7 
  95      314CEA45 
  95      5C58D392 
  95      04B2F3
  96 009e 732C6009 		.ascii	"s,`\011{h;m\035\036\3236&\264\224\023,\022\350\352E"
  96      7B683B6D 
ARM GAS  /tmp/ccuCDCR2.s 			page 7


  96      1D1ED336 
  96      26B49413 
  96      2C12E8EA 
  97 00b3 56033C95 		.ascii	"V\003<\225\024q\245\231L1L:%\322\027\324\326\235\343"
  97      1471A599 
  97      4C314C3A 
  97      25D217D4 
  97      D69DE3
  98 00c6 6D5A642E 		.ascii	"mZd.}\243\266e\244m&\320v\021y\001\010\375B\306\342"
  98      7DA3B665 
  98      A46D26D0 
  98      76117901 
  98      08FD42C6 
  99 00db 96ED24B2 		.ascii	"\226\355$\262\311T:\343b\377\013\310\356\310\002\234"
  99      C9543AE3 
  99      62FF0BC8 
  99      EEC8029C 
 100 00eb F0FD7716 		.ascii	"\360\375w\026\217|\264,\336\363\313\2451\377\317J\005"
 100      8F7CB42C 
 100      DEF3CBA5 
 100      31FFCF4A 
 100      05
 101 00fc D14372FD 		.ascii	"\321Cr\375!\204N\204\347i\203y5\211Xm,\264\256\277\362"
 101      21844E84 
 101      E7698379 
 101      3589586D 
 101      2CB4AEBF 
 102 0111 D28C5F2A 		.ascii	"\322\214_*W*{\225\326\303uj\275\335\025\325\332\276"
 102      572A7B95 
 102      D6C3756A 
 102      BDDD15D5 
 102      DABE
 103 0123 9ED6B828 		.ascii	"\236\326\270(/V*S\337O\376x\034\033\036A8\300Z\355x"
 103      2F562A53 
 103      DF4FFE78 
 103      1C1B1E41 
 103      38C05AED 
 104 0138 020B20C1 		.ascii	"\002\013 \301Ci!\275\261i@\207\266\261\004\011`\322"
 104      436921BD 
 104      B1694087 
 104      B6B10409 
 104      60D2
 105 014a 08A4E84D 		.ascii	"\010\244\350M\334\245\001\262|\226\343a\003o\033H\340"
 105      DCA501B2 
 105      7C96E361 
 105      036F1B48 
 105      E0
 106 015b 140934F2 		.ascii	"\024\0114\362f#\277n\342a\013\003n\245\301\312\363\266"
 106      6623BF6E 
 106      E2610B03 
 106      6EA5C1CA 
 106      F3B6
 107 016d 40522749 		.ascii	"@R'Ij\233\231\351\211C\311\367\207\363\032^\277\325"
 107      6A9B99E9 
 107      8943C9F7 
 107      87F31A5E 
 107      BFD5
ARM GAS  /tmp/ccuCDCR2.s 			page 8


 108 017f 48C06ED0 		.ascii	"H\300n\320\263\237\306\337,hCA\223\234\201\363\267\317"
 108      B39FC6DF 
 108      2C684341 
 108      939C81F3 
 108      B7CF
 109 0191 5D7F53B6 		.ascii	"]\177S\266\343i\214C7Z\354\241\035u\257\015%\224P\316"
 109      E3698C43 
 109      375AECA1 
 109      1D75AF0D 
 109      259450CE 
 110 01a5 C2E0E2F8 		.ascii	"\302\340\342\370\222\245\345\310\241>X\365\207|\177"
 110      92A5E5C8 
 110      A13E58F5 
 110      877C7F
 111 01b4 37491F40 		.ascii	"7I\037@\021\221\2161,I;\300b\335H\346\276\205\342P\361"
 111      11918E31 
 111      2C493BC0 
 111      62DD48E6 
 111      BE85E250 
 112 01c9 CEC80381 		.ascii	"\316\310\003\201\021\247\033m\266\343\260!:<S\354\010"
 112      11A71B6D 
 112      B6E3B021 
 112      3A3C53EC 
 112      08
 113 01da 8E1274AA 		.ascii	"\216\022t\252\216\356V*\225,\035\317\202\010l\"\035"
 113      8EEE562A 
 113      952C1DCF 
 113      82086C22 
 113      1D
 114 01eb B3FCE06A 		.ascii	"\263\374\340j\361\327\021+\320H2\023zvR\240v\300\207"
 114      F1D7112B 
 114      D0483213 
 114      7A7652A0 
 114      76C087
 115 01fe BCDCE361 		.ascii	"\274\334\343a\342\003x\237`\222d\277\352Q\007F\374\""
 115      E203789F 
 115      609264BF 
 115      EA510746 
 115      FC22
 116 0210 8A6503A2 		.ascii	"\212e\003\242\203EP\006}e$\214G\252\017^\247\024\355"
 116      83455006 
 116      7D65248C 
 116      47AA0F5E 
 116      A714ED
 117 0223 80C73C4C 		.ascii	"\200\307<L\255\215\031\001\375\016bZ\021L|r\036\246"
 117      AD8D1901 
 117      FD0E625A 
 117      114C7C72 
 117      1EA6
 118 0235 3B8D0481 		.ascii	";\215\004\201y\230\341\325U W,\201Z\246|c\316\015\243"
 118      7998E1D5 
 118      5520572C 
 118      815AA67C 
 118      63CE0DA3 
 119 0249 28272507 		.ascii	"('%\0071\016t\245T\314\317\036\011I\236T$]E\362\207"
 119      310E74A5 
 119      54CCCF1E 
ARM GAS  /tmp/ccuCDCR2.s 			page 9


 119      09499E54 
 119      245D45F2 
 120 025e 773F5DC6 		.ascii	"w?]\306\200dV\321s\214\367Ox\350j\246\024L\227\231\202"
 120      806456D1 
 120      738CF74F 
 120      78E86AA6 
 120      144C9799 
 121 0273 612ACC2C 		.ascii	"a*\314,\015\335\031(\335\036\330\031\242\250\360V\023"
 121      0DDD1928 
 121      DD1ED819 
 121      A2A8F056 
 121      13
 122 0284 69C12752 		.ascii	"i\301'R\252\324\235\036}2\020\312\221\220\312\217\243"
 122      AAD49D1E 
 122      7D3210CA 
 122      9190CA8F 
 122      A3
 123 0295 F4CF2F0D 		.ascii	"\364\317/\015<\036\321\317E\365m\270\202\222\251N~\366"
 123      3C1ED1CF 
 123      45F56DB8 
 123      8292A94E 
 123      7EF6
 124 02a7 4718CF0D 		.ascii	"G\030\317\015\212j\220\250>\217\271\253\345k\353\262"
 124      8A6A90A8 
 124      3E8FB9AB 
 124      E56BEBB2 
 125 02b7 8E99396E 		.ascii	"\216\2319n,\020\364\354\245\224\0066 \317\326\324@v"
 125      2C10F4EC 
 125      A5940636 
 125      20CFD6D4 
 125      4076
 126 02c9 AD8088F5 		.ascii	"\255\200\210\365\241\211e\340\203\243}(\036-\336\031"
 126      A18965E0 
 126      83A37D28 
 126      1E2DDE19 
 127 02d9 DD1CF8D0 		.ascii	"\335\034\370\320@\004\225\257am\352\033F'&7\023U\207"
 127      400495AF 
 127      616DEA1B 
 127      46272637 
 127      135587
 128 02ec 1BFF6F87 		.ascii	"\033\377o\207\033\352q\270Q\335\3037\212+\243\375\001"
 128      1BEA71B8 
 128      51DDC337 
 128      8A2BA3FD 
 128      01
 129 02fd F18D4145 		.ascii	"\361\215AEp\011\204\3564\321A\315\375dR\303\265\244"
 129      700984EE 
 129      34D141CD 
 129      FD6452C3 
 129      B5A4
 130 030f F6FC432D 		.ascii	"\366\374C-\256\311D\032\006M\032jabY\374')\325\251\271"
 130      AEC9441A 
 130      064D1A6A 
 130      616259FC 
 130      2729D5A9 
 131 0324 7877E2A6 		.ascii	"xw\342\246\250\213\354\277\\\234\360\236\264\321B\335"
 131      A88BECBF 
ARM GAS  /tmp/ccuCDCR2.s 			page 10


 131      5C9CF09E 
 131      B4D142DD 
 132 0334 91C18B93 		.ascii	"\221\301\213\223_\376\035\3276\313\326*\357]u'\3352"
 132      5FFE1DD7 
 132      36CBD62A 
 132      EF5D7527 
 132      DD32
 133 0346 A690BB4A 		.ascii	"\246\220\273Ji\361\347%\\\253\263\010#\245;\213*\324"
 133      69F1E725 
 133      5CABB308 
 133      23A53B8B 
 133      2AD4
 134 0358 2F9A825C 		.ascii	"/\232\202\\m1&\204c\012h?fa\354k\3006\352t\364\3615"
 134      6D312684 
 134      630A683F 
 134      6661EC6B 
 134      C036EA74 
 135 036f 5D3AE87E 		.ascii	"]:\350~B\027\357\302\370\254\010\020\334\232\342\335"
 135      4217EFC2 
 135      F8AC0810 
 135      DC9AE2DD 
 136 037f 5BF5A3F5 		.ascii	"[\365\243\365>\343\257z\315/\003\273B\340\252\212z\256"
 136      3EE3AF7A 
 136      CD2F03BB 
 136      42E0AA8A 
 136      7AAE
 137 0391 82A0F61B 		.ascii	"\202\240\366\033\233\272\262\211\316\262o\335x\221\203"
 137      9BBAB289 
 137      CEB26FDD 
 137      789183
 138 03a0 9B826929 		.ascii	"\233\202i)\331\371\325\256z|'\352go\206=q\253\242\236"
 138      D9F9D5AE 
 138      7A7C27EA 
 138      676F863D 
 138      71ABA29E 
 139 03b4 5BBB65DB 		.ascii	"[\273e\333QR\231P\205E\"-\2149\244\341c\323\004+\307"
 139      51529950 
 139      8545222D 
 139      8C39A4E1 
 139      63D3042B 
 140 03c9 760782F9 		.ascii	"v\007\202\371h\023$\202\345M\301I\201P\230S\336\343"
 140      68132482 
 140      E54DC149 
 140      81509853 
 140      DEE3
 141 03db 1E12E90F 		.ascii	"\036\022\351\017\272w\027\264\311s\303n\250pO \330f"
 141      BA7717B4 
 141      C973C36E 
 141      A8704F20 
 141      D866
 142 03ed 064E99A2 		.ascii	"\006N\231\242\272u\377EU\250\263\250\030\177\341\326"
 142      BA75FF45 
 142      55A8B3A8 
 142      187FE1D6 
 143 03fd E55AFCD6 		.ascii	"\345Z\374\326\352eX\0374r\031\250\220\306\216\332Q_"
 143      EA65581F 
 143      347219A8 
ARM GAS  /tmp/ccuCDCR2.s 			page 11


 143      90C68EDA 
 143      515F
 144 040f 9F867D1E 		.ascii	"\237\206}\036\006\376Q\001\006\011\324\037\3303\307"
 144      06FE5101 
 144      0609D41F 
 144      D833C7
 145 041e ED2000DB 		.ascii	"\355 \000\333\364\347\273|l>M\012dq\300\347\374\006"
 145      F4E7BB7C 
 145      6C3E4D0A 
 145      6471C0E7 
 145      FC06
 146 0430 46A5AADD 		.ascii	"F\245\252\335P[\007\310\345\277\030\227\351O$\233\227"
 146      505B07C8 
 146      E5BF1897 
 146      E94F249B 
 146      97
 147 0441 BA7E24D5 		.ascii	"\272~$\325{\342\332\365\315\204\230\371\351\240R\005"
 147      7BE2DAF5 
 147      CD8498F9 
 147      E9A05205 
 148 0451 484FFD9E 		.ascii	"HO\375\2366\313\224\252\177$M\346\377`ss\313\276\036"
 148      36CB94AA 
 148      7F244DE6 
 148      FF607373 
 148      CBBE1E
 149 0464 AFC37BE6 		.ascii	"\257\303{\346\271\226W\016\267\034z\265\345\360\241"
 149      B996570E 
 149      B71C7AB5 
 149      E5F0A1
 150 0473 CE96CE9E 		.ascii	"\316\226\316\236\236\256\366\336\346N\020\007{EO\257"
 150      9EAEF6DE 
 150      E64E1007 
 150      7B454FAF 
 151 0483 78B9F72F 		.ascii	"x\271\367/8\377[j"
 151      38FF5B6A 
 152              		.text
 153              		.section	.gnu.lto_chHeapFree.b55afc261d902dac,"",%progbits
 154 0000 789CAD55 		.ascii	"x\234\255UOh\024W\030\377\27673;\263;\023wc$d\2436v"
 154      4F681457 
 154      18FFBE37 
 154      333BB33B 
 154      13776324 
 155 0018 1504952C 		.ascii	"\025\004\225,RJ\021i=\364\324S\021\015\264\307d[\222"
 155      524A1169 
 155      3DF4D453 
 155      110DB4C7 
 155      645B92
 156 002b 3988A9A9 		.ascii	"9\210\251\251\227\206\342d\223C@\260\241\320V\015\266"
 156      9786E264 
 156      934340B0 
 156      A1D0560D 
 156      B6
 157 003c 0945845E 		.ascii	"\011E\204^\012\245\007\217\273\322\202+\325\324\233"
 157      0AA5078F 
 157      BBD2822B 
 157      D5D49B
 158 004b 8A6072E8 		.ascii	"\212`r\350\037\350\241Jl\022\327\320\361{\377ff\227"
ARM GAS  /tmp/ccuCDCR2.s 			page 12


 158      1FE8A14A 
 158      6C12D7D0 
 158      F17BFF66 
 158      6697
 159 005d C5648303 		.ascii	"\305d\203\003\363\275\367\275\367\276\337\357\373\367"
 159      F3BDF7BD 
 159      F7BEDFEF 
 159      FBF7
 160 006b 66183068 		.ascii	"f\0300h~\346\350}'\003p\210F\354\000d3w\000&\034\206"
 160      7EE6E87D 
 160      27037088 
 160      46EC0064 
 160      33770026 
 161 0081 869C18CC 		.ascii	"\206\234\030\314z\350B\2201\177\276\001\020x&\263\246"
 161      7AE84290 
 161      317FBE01 
 161      107826B3 
 161      A6
 162 0092 F793EA72 		.ascii	"\367\223\352r\351Y\314\276a\220\226\272s\213o\246\224"
 162      E959CCBE 
 162      619096BA 
 162      738B6FA6 
 162      94
 163 00a3 EA4AD566 		.ascii	"\352J\325f\2160MKS\007\323\0222\3152b\335\223\353\031"
 163      8E304D4B 
 163      5307D312 
 163      32CD3262 
 163      DD93EB19 
 164 00b7 F4E4BA2B 		.ascii	"\364\344\272+9\253\216\207\310'\200p\216\031\246\225"
 164      39AB8E87 
 164      C8278070 
 164      8E19A695 
 165 00c7 B29D74C6 		.ascii	"\262\235t\306\365\360\334\207\310=6\0120\037\004_.\376"
 165      F5F0DC87 
 165      C83D360A 
 165      301F045F 
 165      2EFE
 166 00d9 FACF1376 		.ascii	"\372\317\023v)\250L\315\005\353a\210\350#E\367:B\011"
 166      29A84CCD 
 166      05EB6188 
 166      E82345F7 
 166      3A4209
 167 00ec E1035270 		.ascii	"\341\003Rp\217\030\230\331\030\256\264\015V?\272\031"
 167      8F1898D9 
 167      18AEB40D 
 167      563FBA19 
 168 00fc 4C55C2F0 		.ascii	"LU\302\360\230\260\332\2679\253\312\243\013_\345\203"
 168      98B0DAB7 
 168      39ABCAA3 
 168      0B5FE583 
 169 010c B9F24CF0 		.ascii	"\271\362L\360?\021\372h0\330\277\221\345\217\254\262"
 169      3F11FA68 
 169      30D8BF91 
 169      E58FACB2 
 170 011c 18860FFF 		.ascii	"\030\206\017\377\373{i\035\273\366\"\014\342<\026\300"
 170      FB7B691D 
 170      BBF6220C 
ARM GAS  /tmp/ccuCDCR2.s 			page 13


 170      E23C16C0 
 171 012c C4530816 		.ascii	"\304S\010\026)\337\223b\323x\225FGm\246\301G\323%\001"
 171      29DF9362 
 171      D3789546 
 171      476DA6C1 
 171      47D32501 
 172 0140 DB485859 		.ascii	"\333HXY\022,\307\325N.\266\363\265..vp\321\315\327z"
 172      122CC7D5 
 172      4E2EB6F3 
 172      B52E2E76 
 172      70D1CDD7 
 173 0155 F82CCFCF 		.ascii	"\370,\317\317\365ru'Wwq\261\233\213>\276VP\340\364X"
 173      F5727527 
 173      577771B1 
 173      9B8B3EBE 
 173      5650E0F4 
 174 016a 30150433 		.ascii	"0\025\0043{\244.]\220\016\234B\312oI\344\370$\311\272"
 174      7BA42E5D 
 174      900E9C42 
 174      CA6F49E4 
 174      F824C9BA 
 175 017e 0103C868 		.ascii	"\001\003\310h0n\303\344\371\311\345+\251A\274\206\026"
 175      306EC3E4 
 175      F9C9E52B 
 175      A941BC86 
 175      16
 176 018f 0CA3358C 		.ascii	"\014\2435\214\246\010v-\014\303,\035\257\001\223{\022"
 176      A608762D 
 176      0CC32C1D 
 176      AF01937B 
 176      12
 177 01a0 8E4E00DC 		.ascii	"\216N\000\334\206\362\203{\377\326P\033\331\007\341"
 177      86F2837B 
 177      FFD6501B 
 177      D907E1
 178 01af 87809E01 		.ascii	"\207\200\236\001J\234\232\036\3671\245\246G}\264g\341"
 178      4A9C9A1E 
 178      F731A5A6 
 178      477DB467 
 178      E1
 179 01c0 32813A0A 		.ascii	"2\201:\012\03448\014\241\314\345\020\242\032u\033\327"
 179      1C34380C 
 179      A1CCE510 
 179      A21A751B 
 179      D7
 180 01d1 A05CC96B 		.ascii	"\240\\\311k\346\253\202\331\026\314\365\3110v\327\031"
 180      E6AB82D9 
 180      16CCF5C9 
 180      3076D719 
 181 01e1 873AE738 		.ascii	"\207:\3478L\240\212\356m\342\221ti2\341t\206\2026\342"
 181      4CA08AEE 
 181      6DE29174 
 181      6932E174 
 181      868236E2 
 182 01f5 DA71F494 		.ascii	"\332q\364\224F\237\027\350\216B\277\366\255\241\321"
 182      469F17E8 
 182      8E42BFF6 
ARM GAS  /tmp/ccuCDCR2.s 			page 14


 182      ADA1D1
 183 0204 D3E3F019 		.ascii	"\323\343\360\031\025\354 \034\3601\323\0323\321\023"
 183      15EC201C 
 183      F031D31A 
 183      33D113
 184 0213 0B604A43 		.ascii	"\013`JC\000\356\325t\220\363\321-\251\300\010\314GO"
 184      00EED574 
 184      90F3D12D 
 184      A9C008CC 
 184      474F
 185 0225 1E1C206B 		.ascii	"\036\034 k\272\004\0069A\244\232\237\316\335\204_\376"
 185      BA040639 
 185      41A49A9F 
 185      CEDD845F 
 185      FE
 186 0236 AACE7EE1 		.ascii	"\252\316~\341i~\024^\311\347>\220Vp\237~Nkl}\265\207"
 186      697E145E 
 186      C9E73E90 
 186      56709F7E 
 186      4E6B6C7D 
 187 024c C39840D7 		.ascii	"\303\230@\327\314 \253?\253\263\013\373\022%\304\330"
 187      CC20AB3F 
 187      ABB30BFB 
 187      1225C4D8 
 188 025c AB015A5B 		.ascii	"\253\001Z[9d\210\222-\337e\372\220+\202\202\015\252"
 188      39648892 
 188      2DDF65FA 
 188      902B8282 
 188      0DAA
 189 026e 85A25AD0 		.ascii	"\205\242Z\320\272R\226b\220^/\024#\350\330(\362!\005"
 189      BA529662 
 189      905E2F14 
 189      23E8D828 
 189      F22105
 190 0281 CB07B8A3 		.ascii	"\313\007\270\243\177T\25748\352&\017\331\262!\313\265"
 190      7F54AF34 
 190      38EA260F 
 190      D9B221CB 
 190      B5
 191 0292 8B2B4BCA 		.ascii	"\213+K\312\321\270\246zz$v\365\215\266\032\313RupE\235"
 191      D1B8A67A 
 191      7A2476F5 
 191      8DB61ACB 
 191      52757045 
 192 02a7 6BD7B7C0 		.ascii	"k\327\267\300\261\211tD\367cm\345~t?\266\211dw\010\271"
 192      B1897444 
 192      F7636DE5 
 192      7E743FB6 
 192      89647708 
 193 02bc 098F532A 		.ascii	"\011\217S*#t7\247\243^\314\022\214\270\230\216\3349"
 193      237437A7 
 193      A35ECC12 
 193      8CB8988E 
 193      DC39
 194 02ce 1FEDE444 		.ascii	"\037\355\344D&\263\222\366qV/w6Tx<\016\351\354\026\322"
 194      26B392F6 
 194      71562F77 
ARM GAS  /tmp/ccuCDCR2.s 			page 15


 194      3654783C 
 194      0EE9EC16 
 195 02e3 26AB3CF1 		.ascii	"&\253<\361f\202\2633Y:\007~\003\321c\327W\237\230\372"
 195      6682B333 
 195      593A077E 
 195      03D163D7 
 195      579F98FA 
 196 02f7 D0761DB6 		.ascii	"\320v\035\266\240\375\006\223\274\235\255R\231\014|"
 196      A0FD0693 
 196      BC9DAD52 
 196      990C7C
 197 0306 F2A7287D 		.ascii	"\362\247(}]\024:\2415%d\007mp\220\016\231\220\362{\311"
 197      5D143AA1 
 197      35256407 
 197      6D70900E 
 197      9990F27B 
 198 031b 6AE622DE 		.ascii	"j\346\"\336\\\033)'P\365q[\255Y\232\247\273!\217\337"
 198      5C1B2927 
 198      50F5715B 
 198      AD599AA7 
 198      BB218FDF 
 199 032f 619CC84B 		.ascii	"a\234\310K\033G\324\234E\336y\277\273\015}w\274\341"
 199      1B47D49C 
 199      45DE79BF 
 199      BB0D7D77 
 199      BCE1
 200 0341 D3A5B1DF 		.ascii	"\323\245\261\337\332Row\353z\244\325Uzp\261\276\024"
 200      DA526F77 
 200      EB7AA4D5 
 200      557A70B1 
 200      BE14
 201 0353 E5B1A765 		.ascii	"\345\261\247e\033\266l\352\226-\230'\210\326-\330+\276"
 201      1BB66CEA 
 201      962D9827 
 201      88D62DD8 
 201      2BBE
 202 0365 55F9E62E 		.ascii	"U\371\346.\351\035\216\002\027^et\227\334\253/E\266"
 202      E91D8E02 
 202      175E6574 
 202      97DCAB2F 
 202      45B6
 203 0377 3B1BBA64 		.ascii	";\033\272d\254\355\033\222h\224]\344 \0016\271\275\233"
 203      ACED1B92 
 203      68945DE4 
 203      200136B9 
 203      BD9B
 204 0389 36DA6D94 		.ascii	"6\332m\224\227$\205\000\325\015\257?\2138\372^\355e"
 204      97248500 
 204      D50DAF3F 
 204      8B38FA5E 
 204      ED65
 205 039b DB5A9B6C 		.ascii	"\333Z\233l\352\363\324\247\213\341\302\327\267d5\326"
 205      EAF3D4A7 
 205      8BE1C2D7 
 205      B76435D6 
 206 03ab 9E57A314 		.ascii	"\236W\243\024\026\024\360\211\230\356XLw\244\355\237"
 206      1614F089 
ARM GAS  /tmp/ccuCDCR2.s 			page 16


 206      98EE584C 
 206      77A4ED9F 
 207 03bb 03FFD1F6 		.ascii	"\003\377\321\3664\376h\013\332\003\2177\351\002L->\033"
 207      34FE680B 
 207      DA038F37 
 207      E9024C2D 
 207      3E1B
 208 03cd 6EF5E364 		.ascii	"n\365\343d\312c\371\343\274\013\023s\317m}N>'\211\256"
 208      CA63F9E3 
 208      BC0B1373 
 208      CF6D7D4E 
 208      3E2789AE 
 209 03e1 6EF073AF 		.ascii	"n\360s\257\365\367\027\337\035\361\207\374\367O\024"
 209      F5F717DF 
 209      1DF187FC 
 209      F74F14
 210 03f0 4F8F15CF 		.ascii	"O\217\025\317|Z\034;S*\226FF>\036\034\355/\001\373d"
 210      7C5A1C3B 
 210      532A9646 
 210      463E1E1C 
 210      ED2F01FB 
 211 0405 948D8C5A 		.ascii	"\224\215\214Z\\\033}\001,\326Y\324"
 211      5C1B7D01 
 211      2CD659D4 
 212              		.text
 213              		.section	.gnu.lto_chHeapStatus.b55afc261d902dac,"",%progbits
 214 0000 789C8D53 		.ascii	"x\234\215S\315KTQ\024?\347\336\36713of\214\250\205\233"
 214      CD4B5451 
 214      143FE7DE 
 214      F731336F 
 214      668CA885 
 215 0015 30098904 		.ascii	"0\011\211\004\207h\025\021-\372\003Z\244P\253\030\247"
 215      87681511 
 215      2DFA035A 
 215      A450AB18 
 215      A7
 216 0026 18DFC2F2 		.ascii	"\030\337\302\362\243\225.\274\243/20\020C,k\241\210"
 216      A3952EBC 
 216      A32F3230 
 216      10432C6B 
 216      A188
 217 0038 9865B969 		.ascii	"\230e\271i!\0318\206\224#\230\350Nq1\324B\204Y\265\210"
 217      21193886 
 217      942398E8 
 217      4E7131D4 
 217      428459B5 
 218 004d 92683AF7 		.ascii	"\222h:\367\335\373\346C\204z0s\356\307\357\234\363;"
 218      DDFBE643 
 218      847A3073 
 218      EEC7EF9C 
 218      F33B
 219 005f BF732E03 		.ascii	"\277s.\003\006\207\277N\3725\230\000g\311b\004\220\015"
 219      0687BF4E 
 219      FA359800 
 219      67C96204 
 219      900D
 220 0071 7F01C884 		.ascii	"\177\001\310\204\030\343\273\016\210\210\361\356#\200"
ARM GAS  /tmp/ccuCDCR2.s 			page 17


 220      18E3BB0E 
 220      8888F1EE 
 220      2380
 221 007f 887234D4 		.ascii	"\210r4\324\271\201\226Z\230j\261\034\262\2309\364\231"
 221      B981965A 
 221      986AB11C 
 221      B29839F4 
 221      99
 222 0090 3011DBB3 		.ascii	"0\021\333\263\011i\263\320\370'\271\015\377\220\333"
 222      0969B3D0 
 222      F827B90D 
 222      FF90DB
 223 009f 1086153E 		.ascii	"\020\206\025>\214(\027\200\320\307\270aZ6\235\364\335"
 223      8C281780 
 223      D0C7B861 
 223      5A369DF4 
 223      DD
 224 00b0 444981D7 		.ascii	"DI\201\327\303\244\020#\371\0073\337\3313\221\365&\304"
 224      C3A41023 
 224      F90733DF 
 224      D93391F5 
 224      26C4
 225 00c2 EF6211D1 		.ascii	"\357b\021\321E\242{\032!\205p\2036X\347\033fT\363W\276"
 225      45A27B1A 
 225      21857083 
 225      3658E71B 
 225      6654F357 
 226 00d7 D9C591C7 		.ascii	"\331\305\221\307\265b\242\177X\374!W\0279\2033\377\347"
 226      B562A27F 
 226      58FC2157 
 226      17398333 
 226      FFE7
 227 00e9 29166FAF 		.ascii	")\026o\257\012/[,^\361\275\032\376\3455\317\262\371"
 227      0A2F5B2C 
 227      5EF1BD1A 
 227      FEE535CF 
 227      B2F9
 228 00fb 62F1C393 		.ascii	"b\361\303\223\375okx\3428B\273d\231\304I\254\007Nv\212"
 228      FD6F6B78 
 228      E23842BB 
 228      6499C449 
 228      AC074E76 
 229 0110 AC41769A 		.ascii	"\254Av\232\254\205ti\203\213FD#\034\332@\224\376\314"
 229      AC857469 
 229      838B4644 
 229      231CDA40 
 229      94FECC
 230 0123 98C6C4B5 		.ascii	"\230\306\304\265O\015a\245\030&xB\014\327)\270\272R"
 230      4F0D61A5 
 230      18267842 
 230      0CD729B8 
 230      BA52
 231 0135 4090BCE8 		.ascii	"@\220\274\350k\246\177\022\272\005\031\031\276\012+"
 231      6BA67F12 
 231      BA051919 
 231      BE0A2B
 232 0144 7BCB4B23 		.ascii	"{\313K#<\2113hB\032-I\331\252\344\333\202\034\036\""
ARM GAS  /tmp/ccuCDCR2.s 			page 18


 232      3C893368 
 232      421A2D49 
 232      D9AAE4DB 
 232      821C1E22 
 233 0158 CF417FFE 		.ascii	"\317A\177\376\345\276\245pD\253\027\016\304\240\020"
 233      E5BEA570 
 233      44AB170E 
 233      C4A010
 234 0167 9708DD8E 		.ascii	"\227\010\335\216\254\002m\310\260\204\016\201\204\245"
 234      AC026DC8 
 234      B0840E81 
 234      84A5
 235 0175 25A975E8 		.ascii	"%\251u\350?\030\230\237.%\261{\241\207\212j\204s.\332"
 235      3F18989F 
 235      2E25B17B 
 235      A1878A6A 
 235      84732EDA 
 236 0189 CF619C52 		.ascii	"\317a\234R\206\010XN\335\212\025\0046\300P\216\240\223"
 236      8608584E 
 236      DD8A1504 
 236      36C0508E 
 236      A093
 237 019b 1E73319C 		.ascii	"\036s1\234B\005\241`.M\035Hzs9T@U\260\014\307%F\336"
 237      4205A160 
 237      2E4D1D48 
 237      7A733954 
 237      4055B00C 
 238 01b3 BD992DDD 		.ascii	"\275\231-\335MU\336\371\324\026\247\255\200ZD\246\240"
 238      4D55DEF9 
 238      D416A7AD 
 238      805A44A6 
 238      A0
 239 01c4 EF3CE9DC 		.ascii	"\357<\351\334\010\257\344\362\262\213\316\321$+XR\216"
 239      08AFE4F2 
 239      B28BCED1 
 239      242B5852 
 239      8E
 240 01d5 AC156490 		.ascii	"\254\025d\220\322\247%+\200m@\022\225\241b\236\335\334"
 240      D2A7252B 
 240      806D4012 
 240      95A1629E 
 240      DDDC
 241 01e7 8A9704E3 		.ascii	"\212\227\004\343\013\\\352e\002M?'\036;O\337n\225$\212"
 241      0B5CEA65 
 241      024D3F27 
 241      1E3B4FDF 
 241      6E95248A 
 242 01fb FAE2704D 		.ascii	"\372\342pM\341\226\213QE\301I\243#)\200\246\300\264"
 242      E1968B51 
 242      45C149A3 
 242      232980A6 
 242      C0B4
 243 020d E59AC73A 		.ascii	"\345\232\307:\014\014\016\264\006Qb\024(M\035!z\254"
 243      0C0C0EB4 
 243      06516214 
 243      284D1D21 
 243      7AAC
ARM GAS  /tmp/ccuCDCR2.s 			page 19


 244 021f 521ABAD1 		.ascii	"R\032\272\321\320\275r\351\3614r_\027\204*\207)\337"
 244      D0BD72E9 
 244      F134725F 
 244      17842A87 
 244      29DF
 245 0231 21AE747C 		.ascii	"!\256t|\377\350P\225N\320w\013\350y\352\306\007Y\374"
 245      FFE85095 
 245      4ED0770B 
 245      E879EAC6 
 245      0759FC
 246 0244 CCEA4045 		.ascii	"\314\352@E\341\345\003\345\316\374\026\354\374|\275"
 246      E1E503E5 
 246      CEFC16EC 
 246      FC7CBD
 247 0253 C6021E8E 		.ascii	"\306\002\036\216_z\240>\275\252\230^^\254T\201\035\245"
 247      5F7AA03E 
 247      BDAA985E 
 247      5EAC5481 
 247      1DA5
 248 0265 82A1ADA9 		.ascii	"\202\241\255\251\325X\005\257\220\271P\012\\v\001\325"
 248      D55805AF 
 248      90B9500A 
 248      5C7601D5 
 249 0275 1B465D32 		.ascii	"\033F]2\012\243\265tg\316\215%\267\201\353\3010vGOR"
 249      0AA3B574 
 249      67CE8D25 
 249      B781EBC1 
 249      3076474F 
 250 028a CDE68BB1 		.ascii	"\315\346\213\261\332m0\202\303\225Qjf\314\034\032K\312"
 250      DA6D3082 
 250      C395516A 
 250      66CC1C1A 
 250      4BCA
 251 029c 826DF57E 		.ascii	"\202m\365~\274\302\362\257\362\373\251\221\330x\365"
 251      BCC2F2AF 
 251      F2FBA991 
 251      D878F5
 252 02ab FB09C1AC 		.ascii	"\373\011\301\254%\033\234[\230\377\252\247\220\312\310"
 252      251B9C5B 
 252      98FFAAA7 
 252      90CAC8
 253 02ba 50450EC5 		.ascii	"PE\016\305\255\362I\353\022\310+,\303o\200\227_r\217"
 253      ADF249EB 
 253      12C82B2C 
 253      C36F8097 
 253      5F728F
 254 02cd 1A7F5635 		.ascii	"\032\177V5\376\233\220\231\310\205\003\022z\030\232"
 254      FE9B9099 
 254      C8850312 
 254      7A189A
 255 02dc 69403D5B 		.ascii	"i@=[\002O55%\256\266\271\255\356\265\353\211{\335\211"
 255      024F3535 
 255      25AEB6B9 
 255      ADEEB5EB 
 255      897BDD89 
 256 02f0 AEFB89EE 		.ascii	"\256\373\211\356\256T\"\325\326v'\331\321\224\002\326"
 256      AE5422D5 
ARM GAS  /tmp/ccuCDCR2.s 			page 20


 256      D67627D9 
 256      D19402D6 
 257 0300 D9817759 		.ascii	"\331\201wYw\317_~\33327"
 257      77CF5F7E 
 257      DB3237
 258              		.text
 259              		.section	.gnu.lto_.symbol_nodes.b55afc261d902dac,"",%progbits
 260 0000 789C4DCC 		.ascii	"x\234M\314\275\012\302@\020\004\340\231\333\273\\\362"
 260      BD0AC240 
 260      1004E099 
 260      DBBB5CF2 
 261 0010 1479D48D 		.ascii	"\024y\324\215\004D\020DHo\343\243\330[hi\243\244\260"
 261      04441044 
 261      486FE3A3 
 261      D85B6869 
 261      A3A4B0
 262 0023 B9C67F51 		.ascii	"\271\306\177QP/\032L\266\031\276\335a\015\0146h\307"
 262      502F1A4C 
 262      B619BEDD 
 262      610D0C36 
 262      68C7
 263 0035 1CA9C074 		.ascii	"\034\251\300t\011\250\316Ft\007\302\252\360F\345o[\014"
 263      09A8CE46 
 263      7407C2AA 
 263      F046E56F 
 263      5B0C
 264 0047 684E54D3 		.ascii	"hNT\323u\314\231*=^\250\266\307+\325u\344\235\232\264"
 264      75CC992A 
 264      3D5EA8B6 
 264      C72BD575 
 264      E49D9AB4 
 265 005b 9F0AF249 		.ascii	"\237\012\362I\365\235\036\324\364/\201G\275}Q\304\243"
 265      F59D1ED4 
 265      F42F8147 
 265      BD7D51C4 
 265      A3
 266 006c 1C865C6C 		.ascii	"\034\206\\l\206\3717S\324\223\340\233,Woo-\252\365\336"
 266      86F93753 
 266      D493E09B 
 266      2C576F6F 
 266      2DAAF5DE 
 267 0080 8BCB50EF 		.ascii	"\213\313P\357b\335\305s\025kI\206\262q\222b1\0169>\031"
 267      62DDC573 
 267      156B4986 
 267      B2719262 
 267      310E393E 
 268 0095 9B456D   		.ascii	"\233Em"
 269              		.text
 270              		.section	.gnu.lto_.refs.b55afc261d902dac,"",%progbits
 271 0000 789C6362 		.ascii	"x\234cb`b\020e\200\000V\006FF&&F \000\022,@\314\306"
 271      60621065 
 271      80005606 
 271      46462626 
 271      46200012 
 272 0018 C4C80000 		.ascii	"\304\310\000\000\004\212\000>"
 272      048A003E 
 273              		.text
ARM GAS  /tmp/ccuCDCR2.s 			page 21


 274              		.section	.gnu.lto_.decls.b55afc261d902dac,"",%progbits
 275 0000 789CBD5A 		.ascii	"x\234\275Z\013p\024E\032\356\236\315\356f\223\010\210"
 275      0B701445 
 275      1AEE9ECD 
 275      EE669308 
 275      88
 276 0011 A5A2C769 		.ascii	"\245\242\307i\260\324\363\364`\003\"\342U\235`Q\245"
 276      B0D4F3F4 
 276      600322E2 
 276      559D6051 
 276      A5
 277 0022 78759ED4 		.ascii	"xu\236\324\241U\326\335U-\223\315$\273\232}8;!\301*"
 277      A155D6DD 
 277      552D93CD 
 277      24BB9A7D 
 277      383B21C1 
 278 0037 CBC90672 		.ascii	"\313\311\006r! \217\360\014\217$\200p\242\305#Q\004"
 278      21208FF0 
 278      0C8F2480 
 278      70A2C523 
 278      5104
 279 0049 04644109 		.ascii	"\004dA\011\221G\344\341\361\364$\034z>\316\327\205C"
 279      9147E4E1 
 279      F1F4241C 
 279      7A3ECED7 
 279      8543
 280 005b 7C207B7F 		.ascii	"| {\177\367\314\354\316\364\356lf\227\302\251tO\317"
 280      F7CCECCE 
 280      F4EE6C66 
 280      97C2A974 
 280      4FCF
 281 006d 4CF7D7FF 		.ascii	"L\367\327\377\377\375\177\367\337\335\033\016q\350."
 281      FFFD7FF7 
 281      DFDD1B0E 
 281      71E82E
 282 007c 1B4271B8 		.ascii	"\033Bq\270\006\014E\250\334\201\020\374\241\007!\331"
 282      060C45A8 
 282      DC8110FC 
 282      A10721D9 
 283 008c 21AD80B4 		.ascii	"!\255\200\264\022\322\004\214\320DHu\220\340\017\325"
 283      12D2048C 
 283      D0444875 
 283      90E00FD5 
 284 009c 42E682FB 		.ascii	"B\346\202\373T\2707@j\204\264\020R\013\244\325\220\326"
 284      54B83740 
 284      6A84B410 
 284      520BA4D5 
 284      90D6
 285 00ae 43EA80F4 		.ascii	"C\352\200\364\272Z\377\015\222\351.\322\356\032\270"
 285      BA5AFF0D 
 285      92E92ED2 
 285      EE1AB8
 286 00bd FF05EE4F 		.ascii	"\377\005\356O\250\330\223 \325@\252\202$B\362b\245\337"
 286      A8D89320 
 286      D540AA82 
 286      2442F262 
 286      A5DF
ARM GAS  /tmp/ccuCDCR2.s 			page 22


 287 00cf 2D3829C7 		.ascii	"-8)\307\006(;\341\376g\270\227Bz\026\222\004\251\032"
 287      06283BE1 
 287      FE67B897 
 287      427A1692 
 287      04A91A
 288 00e2 D2F35891 		.ascii	"\322\363X\221\313\246\223k\275I\377D\336\376:\035I\277"
 288      CBA6936B 
 288      BD49FF44 
 288      DEFE3A1D 
 288      49BF
 289 00f4 FDE05EC4 		.ascii	"\375\340^\304\310\304\312Bd \362X\221\203S\373!2\344"
 289      C8C4CA42 
 289      6420F258 
 289      918353FB 
 289      2132E4
 290 0107 41B909EE 		.ascii	"A\271\011\356s \315\207\264\225\221\207p7\220\221c\214"
 290      7320CD87 
 290      B4959187 
 290      70379091 
 290      638C
 291 0119 4EBE49AA 		.ascii	"N\276I\252<\023TY\236`d\021UY\211\354\177\205\224\217"
 291      3C135459 
 291      9E606411 
 291      555989EC 
 291      7F85948F 
 292 012d 14B96A55 		.ascii	"\024\271jU\331\236\327\311\367\034V\344\266\251\375"
 292      D99ED7C9 
 292      F71C56E4 
 292      B6A9FD
 293 013c BEAEDA8A 		.ascii	"\276\256\332\212</\205\3732\234\312W\213*\227^\276\211"
 293      3C2F85FB 
 293      329CCA57 
 293      8B2A975E 
 293      BE89
 294 014e AA5D888C 		.ascii	"\252]\210\214z\236X\331&\250\\i\034=\207\223\262i|\331"
 294      7A9E58D9 
 294      26A85C69 
 294      1C3D8793 
 294      B2697CD9 
 295 0162 D43E3459 		.ascii	"\324>4Y\010w+\341\276\223\221c\265j7\275\034\023trL"
 295      08772BE1 
 295      BE939163 
 295      B56A37BD 
 295      1C137472 
 296 0177 54FB7E02 		.ascii	"T\373~\002'\373\367\352\370!\376\353P\375W\263\233\236"
 296      27FBF7EA 
 296      F821FEEB 
 296      50FD57B3 
 296      9B9E
 297 0189 1B9BDA87 		.ascii	"\033\233\332\207\236\223W\340\376j\032N\012Q\243,G\345"
 297      9E9357E0 
 297      FE6A1A4E 
 297      0A51A32C 
 297      47E5
 298 019b B67A797C 		.ascii	"\266zy|W\277\201h\256\014Wq\027H\365\024\346q?\027\222"
 298      57BF8168 
 298      AE0C5771 
ARM GAS  /tmp/ccuCDCR2.s 			page 23


 298      1748F514 
 298      E6713F17 
 299 01b0 312D15B9 		.ascii	"1-\025\271\320\000\250}\007zI\226\347\364L;=X\316\343"
 299      D000A87D 
 299      077A4996 
 299      E7F44C3B 
 299      3D58CEE3 
 300 01c4 F14A3C10 		.ascii	"\361J<\020t\274\035\243\273\321Zh6\007\200nD\251W\237"
 300      74BC1DA3 
 300      BBD15A68 
 300      3607806E 
 300      44A9579F 
 301 01d8 A81CBA17 		.ascii	"\250\034\272\027#\036\257\0018\036\257\306w+\335\310"
 301      231EAF01 
 301      381EAFC6 
 301      772BDDC8 
 302 01e8 B1F37CB1 		.ascii	"\261\363|\261\362\026\251\357\323\\CP\033\251z\341c"
 302      F216A9EF 
 302      D35C4350 
 302      1BA97AE1 
 302      63
 303 01f9 97DC5494 		.ascii	"\227\334T\224\246\247\261ZG\371I\361\277_\361\342\243"
 303      A6A7B15A 
 303      47F949F1 
 303      BF5FF1E2 
 303      A3
 304 020a B29CCFE3 		.ascii	"\262\234\317\343W\250\002^l\200WA\332\306\232\241p("
 304      57A8025E 
 304      6C805741 
 304      DAC69AA1 
 304      7028
 305 021c 425AAC63 		.ascii	"BZ\254c\304\355i\336w1\212ke\031+\337\372\022:\032\373"
 305      C4ED69DE 
 305      77318A6B 
 305      65192BDF 
 305      FA123A1A 
 306 0231 EF8CE537 		.ascii	"\357\214\3457\311m\273q\2376\310\323\272\037\233T\342"
 306      C96DBB71 
 306      9F36C8D3 
 306      BA1F9B54 
 306      E2
 307 0242 BB9F6CC0 		.ascii	"\273\237l\300N\007\325\340\3578\255\012\346\030\034"
 307      4E07D5E0 
 307      EF38AD0A 
 307      E6181C
 308 0251 DA489B6C 		.ascii	"\332H\233lJ\321\241qO\235\252\303&K:,\232\245\350\300"
 308      4AD1A171 
 308      4F9DAAC3 
 308      264B3A2C 
 308      9AA5E8C0 
 309 0265 E376D083 		.ascii	"\343v\320\203Co&p\325\216\213\265~\311\354\241\026\225"
 309      436F2670 
 309      D58E8BB5 
 309      7EC9ECA1 
 309      1695
 310 0277 4BAD60C4 		.ascii	"K\255`\304[\322]4\207\327\300ve\015Vl\000k\355^F\205"
 310      5BD25D34 
ARM GAS  /tmp/ccuCDCR2.s 			page 24


 310      87D7C076 
 310      650D566C 
 310      006BED5E 
 311 028d 73A18624 		.ascii	"s\241\206$\301(-\230\312j\373\254w\016\343:\252\377"
 311      C1282D98 
 311      CA6AFBAC 
 311      770EE33A 
 311      AAFF
 312 029f 0E68C6A1 		.ascii	"\016h\306\2418C\255u\250\326\246=\273p\224B\305(\324"
 312      3843AD75 
 312      A8D6A63D 
 312      BB709442 
 312      C528D4
 313 02b2 8F5CAE50 		.ascii	"\217\\\256P\315K\266?@\035\366m\0124=\317\010\304cg"
 313      CD4BB63F 
 313      401DF66D 
 313      0A343DCF 
 313      08C46367 
 314 02c6 82C6C4B3 		.ascii	"\202\306\304\263V\201\240\321\317j\201\004\311\376\350"
 314      5681A0D1 
 314      CF6A8104 
 314      C9FEE8
 315 02d5 2A57E7D0 		.ascii	"*W\347\320\374<\013\246\3137\363\003\271gq\343\001["
 315      FC3C0BA6 
 315      CB37F303 
 315      B96771E3 
 315      015B
 316 02e7 B31C9B6A 		.ascii	"\263\034\233j\323\206\243\303\214#\016-\245}u\261\276"
 316      D386A3C3 
 316      8C230E2D 
 316      A57D75B1 
 316      BE
 317 02f8 BCE85CD7 		.ascii	"\274\350\\\327\257\027\313\362\000\345S\337\256\274"
 317      AF17CBF2 
 317      00E553DF 
 317      AEBC
 318 0306 69DF224B 		.ascii	"i\337\"K\303\261\215\323\272\277\235v\277\237v\177\220"
 318      C3B18DD3 
 318      BABF9D76 
 318      BF9F767F 
 318      90
 319 0317 EDFECCBF 		.ascii	"\355\376\314\277?\035\243t\177\320R\367\207\217\314"
 319      3F1DA374 
 319      7FD052F7 
 319      878FCC
 320 0326 4FED9EC7 		.ascii	"O\355\236\307\017^\237\3113\026\235\373tp+\355\3440"
 320      0F5E9FC9 
 320      33169DFB 
 320      74702BED 
 320      E430
 321 0338 1D317576 		.ascii	"\0351uv\3265\306\024\032\215\007\317\272\012\034\232"
 321      D635C614 
 321      1A8D07CF 
 321      BA0A1C9A 
 322 0348 69D7A4CF 		.ascii	"i\327\244\317i\300\202\232]\277_\333!\313\323\035\232"
 322      69C0829A 
 322      5DBF5FDB 
ARM GAS  /tmp/ccuCDCR2.s 			page 25


 322      21CBD31D 
 322      9A
 323 0359 0CB3B346 		.ascii	"\014\263\263F,6\020\361\376\021:\005(`MV\300L\375(\032"
 323      2C3610F1 
 323      FE113A05 
 323      28604D56 
 323      C04CFD28 
 324 036e 3BA6075B 		.ascii	";\246\007[\2205\230Q\262\023z\260\305V\300\006\230K"
 324      90359851 
 324      B2137AB0 
 324      C556C006 
 324      984B
 325 0380 764A0FB6 		.ascii	"vJ\017\2664k0\243d\037\350\301Z\254\200\0152\227\354"
 325      346B30A3 
 325      641FE8C1 
 325      5AAC800D 
 325      3297EC
 326 0393 433DD8CA 		.ascii	"C=\330\312\254\301\214\222}\243\007[c\005\2548\215d"
 326      ACC18C92 
 326      7DA3075B 
 326      6305AC38 
 326      8D64
 327 03a5 892B5D3B 		.ascii	"\211+];\342\326\007p\302\3179\264\326\256M\010Y\372"
 327      E2D60770 
 327      C2CF39B4 
 327      D6AE4D08 
 327      59FA
 328 03b7 344A62AC 		.ascii	"4Jb\254\263g;\201\031\364\206Hzp\025\236W'w\225h\321"
 328      B3673B81 
 328      19F48648 
 328      7A70159E 
 328      57277795 
 329 03cd EC352B88 		.ascii	"\3545+\210\031\034\346\015}h\334\2265\230\321,\357\023"
 329      191CE60D 
 329      7D68DC96 
 329      3598D12C 
 329      EF13
 330 03df 30C354A3 		.ascii	"0\303T\243\206\243\236\325\261A\213\223\223]\276\206"
 330      86A39ED5 
 330      B1418B93 
 330      935DBE86 
 331 03ef 45D68DCA 		.ascii	"E\326\215\312\314\006\353<.QY\0364(}]\036\177\205\357"
 331      CC06EB3C 
 331      2E51591E 
 331      34287D5D 
 331      1E7F85EF 
 332 0403 80FC6BEC 		.ascii	"\200\374k\354JH\241\224\265R\234.\221\337\2663+R\355"
 332      4A48A194 
 332      B5529C2E 
 332      91DFB633 
 332      2B52ED
 333 0416 EAABA999 		.ascii	"\352\253\251\231'|\241\367\204.+4e\030\012?v/\273Q\356"
 333      277CA1F7 
 333      842E2B34 
 333      65180A3F 
 333      762FBB51 
 334 042b 89619DBE 		.ascii	"\211a\235\276\031\311\201\025D\367[\277\243\261\372"
ARM GAS  /tmp/ccuCDCR2.s 			page 26


 334      19C98115 
 334      44F75BBF 
 334      A3B1FA
 335 043a 3C8DD5EF 		.ascii	"<\215\325\357\331\323\006}\013@\255M\353\356\241@\337"
 335      D9D3067D 
 335      0B40AD4D 
 335      EBEEA140 
 335      DF
 336 044b 52A01339 		.ascii	"R\240\0239\0035/i\031M\201\276\247@=)!\0023\253\007"
 336      03352F69 
 336      194D81BE 
 336      A7403D29 
 336      210233AB 
 337 0460 6C8CEF09 		.ascii	"l\214\357\011\346U\342\257V]\016}\316Z\313\240N\237"
 337      E655E2AF 
 337      565D0E7D 
 337      CE5ACBA0 
 337      4E9F
 338 0472 730DACC0 		.ascii	"s\015\254\300?\232\207\317G\345\305%Y\330k\226j\257"
 338      3F9A87CF 
 338      47E5C525 
 338      59D86B96 
 338      6AAF
 339 0484 CB949DDE 		.ascii	"\313\224\235\336\024v\276\315\222\036\016\375\220\265"
 339      1476BECD 
 339      921E0EFD 
 339      90B5
 340 0492 1A7719D5 		.ascii	"\032w\031\325h\374$\0075v*j\324qD\215\250\343\312\325"
 340      68FC2407 
 340      35762A6A 
 340      D471448D 
 340      A8E3CAD5 
 341 04a6 687464AB 		.ascii	"htd\253F\211N\015\272\037\232\257\314\200\327\241\246"
 341      46894E0D 
 341      BA1F9AAF 
 341      CC80D7A1 
 341      A6
 342 04b7 CC6B3822 		.ascii	"\314k8\"O\003w\235q\373w\341=\\\254\274\356{\3777\357"
 342      4F03779D 
 342      71FB77E1 
 342      3D5CACBC 
 342      EE7BFF37 
 343 04cc 886EA52F 		.ascii	"\210n\245/[Z\351w'V\3723(es\035i\006\230\025\250\266"
 343      5B5AE977 
 343      2756FA33 
 343      2865731D 
 343      69069815 
 344 04e2 D623D793 		.ascii	"\326#\327\223\355\360,\012\263(W\230\236\346S\233\225"
 344      EDF02C0A 
 344      B3285798 
 344      9EE6539B 
 344      95
 345 04f3 713A9702 		.ascii	"q:\227\002\265\246\230\320\301X\320a\264 <\222\236\276"
 345      B5A698D0 
 345      C158D061 
 345      B4203C92 
 345      9EBE
ARM GAS  /tmp/ccuCDCR2.s 			page 27


 346 0505 236B70FC 		.ascii	"#kp\374\202\372\206<8\321\317\336\016b0\025\237X/\227"
 346      82FA863C 
 346      38D1CFDE 
 346      0E623015 
 346      9F582F97 
 347 0519 7525D989 		.ascii	"u%\331\211\036\230\257\305O\305@\033\257\0101\032\333"
 347      1E98AFC5 
 347      4FC5401B 
 347      AF08311A 
 347      DB
 348 052a D9A46D55 		.ascii	"\331\244mU\307\220\010\272\365\012\341\350\222\313\020"
 348      C79008BA 
 348      F50AE1E8 
 348      92CB10
 349 0539 4199957B 		.ascii	"A\231\225{\207I\324\321N!\332g\376\206\232{)G\304\211"
 349      8749D4D1 
 349      4E21DA67 
 349      FE869A7B 
 349      2947C489 
 350 054d A598BB1D 		.ascii	"\245\230\273\0353Kw\362BW\305l -\341t\001\360\350\225"
 350      334B77F2 
 350      4257C56C 
 350      202DE174 
 350      01F0E895 
 351 0561 9A61DF3F 		.ascii	"\232a\337?\0313\234\274B\336\232\347Y;\365\230\244a"
 351      19339CBC 
 351      42DE9AE7 
 351      593BF598 
 351      A461
 352 0573 155145CE 		.ascii	"\025QE\316\322nWq\314.k\307\305\236zu\227M\276\365="
 352      D26E5771 
 352      CC2E6BC7 
 352      C59E7A75 
 352      974DBEF5 
 353 0588 539CA627 		.ascii	"S\234\246'E\332\331\317\034\247\206\252\366:V\277\264"
 353      45DAD9CF 
 353      1CA786AA 
 353      F63A56BF 
 353      B4
 354 0599 EB939ED8 		.ascii	"\353\223\236\330\207BWI6sN\2476\347\254\245\\.v\262"
 354      87425749 
 354      36734EA7 
 354      36E7ACA5 
 354      5C2E76B2 
 355 05ad 46279388 		.ascii	"F'\223\210\301\350Y\015\272\026V\035\253\273\245\304"
 355      C1E8590D 
 355      BA16561D 
 355      ABBBA5C4 
 356 05bd 65E6542B 		.ascii	"e\346T+\365N\365\222\363\212\\\000\234\352\253\227\024"
 356      F54EF592 
 356      F38A5C00 
 356      9CEAAB97 
 356      14
 357 05ce A76286CC 		.ascii	"\247b\206\314\032\223!C$\330\240\227\340\325+\223 v"
 357      1A932143 
 357      24D8A097 
 357      E0D52B93 
ARM GAS  /tmp/ccuCDCR2.s 			page 28


 357      2076
 358 05e0 FA68D627 		.ascii	"\372h\326'C\335{4\333uP\333u\244\330.\306\206X+\007"
 358      43DD7B34 
 358      DB7550DB 
 358      75A4D82E 
 358      C686582B 
 359 05f5 256FE5AA 		.ascii	"%o\345\252I\342\342\320\036\247\205Un\261\251\027\303"
 359      49E2E2D0 
 359      1EA78555 
 359      6EB1A917 
 359      C3
 360 0606 5C7B591D 		.ascii	"\\{Y\035\344}\236\266h\223\327\3073\307\323\311k\013"
 360      E47D9EB6 
 360      6893D7C7 
 360      33C7D3C9 
 360      6B0B
 361 0618 4786D1BB 		.ascii	"G\206\321\273\014\027\026\016mN\320&\333\330\361\334"
 361      0C17160E 
 361      6D4ED026 
 361      DBD8F1DC 
 362 0628 DCF83FED 		.ascii	"\334\370?\355\020u\233\205\361\034\215\035\235\241?"
 362      10759B85 
 362      F11C8D1D 
 362      9DA13F
 363 0637 80E4F156 		.ascii	"\200\344\361V\314\251\270\271\362i0aR@\036\357\340\310"
 363      CCA9B8B9 
 363      F2693061 
 363      52401EEF 
 363      E0C8
 364 0649 86E62D6E 		.ascii	"\206\346-n\210\236\373O\263\346\276X\317}l\301\261e"
 364      889EFB4F 
 364      B3E6BE58 
 364      CF7D6CC1 
 364      B165
 365 065b 58915F99 		.ascii	"X\221_\231\221zY\274t3\322]f\266\214\3066\036\243\273"
 365      917A59BC 
 365      7433D25D 
 365      66B68CC6 
 365      361EA3BB 
 366 066f 44C5477F 		.ascii	"D\305G\177\262\"\\\2119\330\316\205\032\271\033h\220"
 366      B2225C89 
 366      39D8CE85 
 366      1AB91B68 
 366      90
 367 0680 6AC8CF16 		.ascii	"j\310\317\026\257\330\200w\374\3302\025O9]m\262\202"
 367      AFD88077 
 367      FCD83215 
 367      4F395D6D 
 367      B282
 368 0692 37DA5CBE 		.ascii	"7\332\\\276\013\013\015!}y\326p\305\231l\237<\035\347"
 368      0B0B0D21 
 368      7D79D670 
 368      C5996C9F 
 368      3C1DE7
 369 06a5 F166BA99 		.ascii	"\361f\272\231\335\202\207@\376&\315\267\323|/\315?\241"
 369      DD828740 
 369      FE26CDB7 
ARM GAS  /tmp/ccuCDCR2.s 			page 29


 369      D37C2FCD 
 369      3FA1
 370 06b7 F96734FF 		.ascii	"\371g4\377\017\315{i\376\023\315\243\034\311\377F\363"
 370      0FCD7B69 
 370      FE13CDA3 
 370      1CC9FF46 
 370      F3
 371 06c8 CD348FD1 		.ascii	"\3154\217\321|7\315\337\241y'\315\273\364\276e6\021"
 371      7C37CDDF 
 371      A17927CD 
 371      BBF4BE65 
 371      3611
 372 06da 32CB00CD 		.ascii	"2\313\000\315\345\327\345|\346\336\273?q\260\000\016"
 372      E5D7E57C 
 372      E6DEBB3F 
 372      71B0000E 
 373 06ea 9F355846 		.ascii	"\2375XF\016\327\3518\334@9\334H9\331g\034E\253\363\265"
 373      0ED7E938 
 373      DC4039DC 
 373      4839D967 
 373      1C45ABF3 
 374 06ff 5F807289 		.ascii	"_\200r\211\303\321\236\251gtg#\353X0\253QP\345\343\222"
 374      C3D19EA9 
 374      67746723 
 374      EB5830AB 
 374      5150E5E3 
 375 0714 40563B2B 		.ascii	"@V;+(\326\246\254\2612\322\261FG\307\313\224\216\265"
 375      28D6A6AC 
 375      B132D2B1 
 375      4647C7CB 
 375      948EB5
 376 0727 948E03D4 		.ascii	"\224\216\003\324\374\335V\314\277\"\271,\264\036\275"
 376      FCDD56CC 
 376      BF22B92C 
 376      B41EBD
 377 0736 BE5F75F6 		.ascii	"\276_u\366\267\033\3509\361!:1\354t\261\301\313\316"
 377      B71BE839 
 377      F1213A31 
 377      EC74B1C1 
 377      CBCE
 378 0748 C42EBB31 		.ascii	"\304.\2731v\331]\311\202\032\273\322.\340\032\316%\217"
 378      76D95DC9 
 378      821ABBD2 
 378      2EE01ACE 
 378      258F
 379 075a 66E4C441 		.ascii	"f\344\304AyqR\222\345\353\317\356U\343\350\3734v|\346"
 379      79715292 
 379      E5EBCFEE 
 379      55E3E8FB 
 379      34767CE6 
 380 076e 4A1B3B32 		.ascii	"J\033;2 q\350\"ms\234\011\036\261\235\365Ed#v\334R\340"
 380      2071E822 
 380      6D739C09 
 380      1EB19DF5 
 380      45642376 
 381 0785 38DCB92C 		.ascii	"8\334\271,u\035z\003Z\240\256\345d,\321Y\305\314\014"
 381      751D7A03 
ARM GAS  /tmp/ccuCDCR2.s 			page 30


 381      5AA0AEE5 
 381      642CD159 
 381      C5CC0C
 382 0798 1F7037D0 		.ascii	"\037p7\320\222\215\376\314\213\024by\374\244-\243\001"
 382      928DFECC 
 382      8B146279 
 382      FCA42DA3 
 382      01
 383 07a9 B563FB8E 		.ascii	"\265c\373\216\263\013\325U\353i:\261\256-0\222\300\254"
 383      B30BD555 
 383      EB693AB1 
 383      AE2D3092 
 383      C0AC
 384 07bb 8B486766 		.ascii	"\213Hgf\202\364p\205&\272\246|\343\320\033\005\032q"
 384      82F47085 
 384      26BAA67C 
 384      E3D01B05 
 384      1A71
 385 07cd B96D07   		.ascii	"\271m\007"
 386 07d0 96AF3F7C 		.ascii	"\226\257?|\363\326\327e\271}\222\272\247\2179\364v2"
 386      F3D6D765 
 386      B97D92BA 
 386      A78F39F4 
 386      7632
 387 07e2 8C5A0EED 		.ascii	"\214Z\016\355\242\275\235c7\366\363:\311O\227\347,l"
 387      A2BD9D63 
 387      37F6F33A 
 387      C94F97E7 
 387      2C6C
 388 07f4 ECA3B105 		.ascii	"\354\243\261\005\365\263o\226\333f\016R]=V/7\340\332"
 388      F5B36F96 
 388      DB660E52 
 388      5D3D562F 
 388      37E0DA
 389 0807 F6C1E97B 		.ascii	"\366\301\351{L\376(\362\313W\250\263\177B\235\375 C"
 389      4CFE28F2 
 389      CB57A8B3 
 389      7F429DFD 
 389      2043
 390 0819 6E3658AD 		.ascii	"n6X\255M\357i\277\342}N\301N\344\016\326\326|\212\376"
 390      4DEF69BF 
 390      E27D4EC1 
 390      4EE40ED6 
 390      D67C8AFE 
 391 082d 6EFE2505 		.ascii	"n\376%\005:[\300\016A\0273\004]\306!\350r%\013q\355"
 391      3A5BC00E 
 391      41173304 
 391      5DC621E8 
 391      72250B71 
 392 0842 62CFD8AE 		.ascii	"b\317\330\256b\033\016}\221\260gN\273%\360\236wo\202"
 392      621B0E7D 
 392      91B0674E 
 392      BB25F09E 
 392      776F82
 393 0855 F1955C66 		.ascii	"\361\225\\f\232\376\306N\304\352e\207\367\242Nr \324"
 393      9AFEC64E 
 393      C4EA6587 
ARM GAS  /tmp/ccuCDCR2.s 			page 31


 393      F7A24E72 
 393      20D4
 394 0867 6B699BD7 		.ascii	"ki\233\327\332\271\037\303>\317\322\311\323\005\326"
 394      DAB91FC3 
 394      3ECFD2C9 
 394      D305D6
 395 0876 419B3BB9 		.ascii	"A\233;\271b\345u\337\016\272\264>\315v\326@RJ\177\337"
 395      62E575DF 
 395      0EBAB43E 
 395      CD76D640 
 395      524A7FDF 
 396 088a E97732BD 		.ascii	"\351w2\275\224\323\0139\357d\226u\322\310w\224N#\027"
 396      94D30B39 
 396      EF649675 
 396      D2C87794 
 396      4E2317
 397 089d 73054B5C 		.ascii	"s\005K\\\034\272D1zs\234\"\242\261\366Nm\215\247\204"
 397      1CBA4431 
 397      7A739C22 
 397      A2B1F64E 
 397      6D8DA784 
 398 08b1 9ACB59E3 		.ascii	"\232\313Y\343\025\247\310TW\230\243\343\3510\246\025"
 398      15A7C854 
 398      5798A3E3 
 398      E930A615 
 399 08c1 32535F3A 		.ascii	"2S_:\014\363_\244c'\036&<+\377\3632\223\3052\376C\213"
 399      0CF35FA4 
 399      63271E26 
 399      3C2BFFF3 
 399      3293C532 
 400 08d8 AE686D97 		.ascii	"\256hm\227q\\\267\3138Iw\031\247\350\202\340_4\257\265"
 400      715CB7CB 
 400      38497719 
 400      A7E882E0 
 400      5F34AFB5 
 401 08ec 5958161C 		.ascii	"YX\026\034M:\025\343\212\304\014f\255\352l\211V\267"
 401      4D3A15E3 
 401      8AC40C66 
 401      ADEA6C89 
 401      56B7
 402 08fe A216B9AD 		.ascii	"\242\026\271\255\247\347\037o\236\374\305B\330\012\312"
 402      A7E71F6F 
 402      9EFCC542 
 402      D80ACA
 403 090d DF9020CF 		.ascii	"\337\220 \317\304C\223\037\243\011\3224\333\015jI\013"
 403      C443931F 
 403      A309D234 
 403      DB0D6A49 
 403      0B
 404 091e 811C6A2F 		.ascii	"\201\034j/\304\314\370\271\023\255&x\362\313\262\215"
 404      C4CCF8B9 
 404      13AD2678 
 404      F2CBB28D 
 405 092e A291FA53 		.ascii	"\242\221\372Sm\267\032\331\250\267q\372\027D\260\036"
 405      6DB71AD9 
 405      A8B771FA 
 405      1744B01E 
ARM GAS  /tmp/ccuCDCR2.s 			page 32


 406 093e 1233770D 		.ascii	"\0223w\015n\356\220\247N\227/\307_\300JL\344\320\366"
 406      6EEE90A7 
 406      4E972FC7 
 406      5FC04A4C 
 406      E4D0F6
 407 0951 942E148C 		.ascii	"\224.\024\214\351\251\030T\271\303\267\344\242\334\014"
 407      E9A91854 
 407      B9C3B7E4 
 407      A2DC0C
 408 0960 1B13EC09 		.ascii	"\033\023\354\011\333\211\007\345'v\303B\300@\004\345"
 408      DB8907E5 
 408      2776C342 
 408      C04004E5 
 409 0970 A28B11F4 		.ascii	"\242\213\021\364v\264J\226\233\344\345\302xm\360\236"
 409      76B44A96 
 409      9BE4E5C2 
 409      786DF09E 
 410 0980 A4351A81 		.ascii	"\2445\032\201\215tb\250\026V\233\035'\315\350\236\347"
 410      8D7462A8 
 410      16569B1D 
 410      27CDE89E 
 410      E7
 411 0991 4C1FADC6 		.ascii	"L\037\255\306$\033\305I#e\231r\231\3432\266RuP\315\365"
 411      241BC549 
 411      23659972 
 411      99E332B6 
 411      527550CD 
 412 09a6 A23C6D00 		.ascii	"\242<m\000N\330\253\221\265\327\354t\\\307\216\357#"
 412      4ED8AB91 
 412      B5D7EC74 
 412      5CC78EEF 
 412      23
 413 09b7 33B07C29 		.ascii	"3\260|)\036\267\261LgXV-\312\310tzj\317\245\247v\201"
 413      1EB7B14C 
 413      6758562D 
 413      CAC8747A 
 413      6ACFA5A7 
 414 09cd 462D8FE7 		.ascii	"F-\217\347\332\210\272\013-Q{\230e\311\274\231\236\245"
 414      DA88BA0B 
 414      2D517B98 
 414      65C9BC99 
 414      9EA5
 415 09df A8BCA17E 		.ascii	"\250\274\241~\332\200<\325\033\314[\251z.I\313\331\351"
 415      DA803CD5 
 415      1BCC5BA9 
 415      7A2E49CB 
 415      D9E9
 416 09f1 59A69C65 		.ascii	"Y\246\234e\360\316V\2263\372?\036\006\212\276NO\321"
 416      F0CE5696 
 416      33FA3F1E 
 416      068ABE4E 
 416      4FD1
 417 0a03 9932CD8D 		.ascii	"\2312\315\215~\240\025Z2\272\221\211?\264\260\376\260"
 417      7EA0155A 
 417      32BA9189 
 417      3FB4B0FE 
 417      B0
ARM GAS  /tmp/ccuCDCR2.s 			page 33


 418 0a14 22AD6E9B 		.ascii	"\"\255n\233\233fB\\\210\306\342\3611\254n\231f\2505"
 418      9B66425C 
 418      88C6E2F1 
 418      31AC6E99 
 418      66A835
 419 0a27 191D429D 		.ascii	"\031\035B\235\277\030m/\245\327\266\231u\210\325\326"
 419      BF186D2F 
 419      A5D7B699 
 419      7588D5D6 
 420 0a37 C71AE988 		.ascii	"\307\032\351\210C\323\213p\306f\2528\252C\264\1774a"
 420      43D38B70 
 420      C666AA38 
 420      AA43B47F 
 420      3461
 421 0a49 BCE624E6 		.ascii	"\274\346$\346\255T=\327\246\235\364>:\337\205\033\262"
 421      AD543DD7 
 421      A69DF43E 
 421      3ADF851B 
 421      B2
 422 0a5a 76880D2C 		.ascii	"v\210\015,g+p\212G\314.J?q\266\247\223#\266e\357L\031"
 422      672B708A 
 422      47CC2E4A 
 422      3F71B6A7 
 422      9323B665 
 423 0a71 CFA9ED89 		.ascii	"\317\251\355\211\307oU\3409\324j\002\360ZZ\200\215\251"
 423      C76F55E0 
 423      39D46A02 
 423      F05A5A80 
 423      8DA9
 424 0a83 00AF9A00 		.ascii	"\000\257\232\000l2\002\334\206V\310\261C0u\237\275i"
 424      6C3202DC 
 424      8656C8B1 
 424      4330759F 
 424      BD69
 425 0a95 3D2CC4DB 		.ascii	"=,\304\333\201\2028\216\217\321\266\217\233\022(i\367"
 425      8182388E 
 425      8FD1B68F 
 425      9B122869 
 425      F7
 426 0aa6 8A047073 		.ascii	"\212\004ps\022\220\011\215D\0203\022\267$C#\021\341"
 426      1290098D 
 426      44103312 
 426      B7244323 
 426      11E1
 427 0ab8 D0A1D8E9 		.ascii	"\320\241\330\351\275\323e,\327\313\265$z\\\213\346\320"
 427      BDD3652C 
 427      D7CBB524 
 427      7A5C8BE6 
 427      D0
 428 0ac9 6DEA6280 		.ascii	"m\352b\200\371\022'\374\267!\261\020\270\2266\325W\373"
 428      F91227FC 
 428      B721B110 
 428      B89636D5 
 428      57FB
 429 0adb DABC1A8F 		.ascii	"\332\274\032\217\267\331\224\222\341\327\004Z\303L\300"
 429      B7D99492 
 429      E1D7045A 
ARM GAS  /tmp/ccuCDCR2.s 			page 34


 429      C34CC0
 430 0aea EDB6E4BF 		.ascii	"\355\266\344\277G\024\271\020\263\354@L-\240jw\021\023"
 430      4714B910 
 430      B3EC404C 
 430      2DA06A77 
 430      1113
 431 0afc 2A582938 		.ascii	"*X)8\264\277\010\253\355`\325\246\351\335\333-\347o"
 431      B4BF08AB 
 431      ED60D5A6 
 431      E9DDDB2D 
 431      E76F
 432 0b0e 941BE478 		.ascii	"\224\033\344x\374\005\023\255\237\322p\0123)\315\324"
 432      FC0513AD 
 432      9FD2700A 
 432      3329CDD4 
 433 0b1e E2F1AEAC 		.ascii	"\342\361\256\254u\336m\242s\201Ag\255\026\024w\320\201"
 433      75DE6DA2 
 433      73814167 
 433      AD161477 
 433      D081
 434 0b30 AE9BD718 		.ascii	"\256\233\327\030! \354\032TFC\206\015s\217\363\371K"
 434      2120EC1A 
 434      54464386 
 434      0D738FF3 
 434      F94B
 435 0b42 FD8F4F74 		.ascii	"\375\217Ot\207\"nQr\373\203\336\312\2522\301\355\365"
 435      87226E51 
 435      72FB83DE 
 435      CAAA32C1 
 435      EDF5
 436 0b54 05A49A61 		.ascii	"\005\244\232a>\344\014TIB\215Gr<\362\307'\213\307\241"
 436      3EE40C54 
 436      49428D47 
 436      723CF2C7 
 436      278BC7A1 
 437 0b68 7CAFCF43 		.ascii	"|\257\317C\337\334\231\241edJD\232\022\026\"\320\274"
 437      DFDC99A1 
 437      65644A44 
 437      9A121622 
 437      D0BC
 438 0b7a BFE41305 		.ascii	"\277\344\023\005\276,\342y\266J\250\022<\322\000hox"
 438      BE2CE279 
 438      B64AA812 
 438      3CD20068 
 438      6F78
 439 0b8c 755B261C 		.ascii	"u[&\034\257\257\0140\362\225\006\036\311\225h\354\010"
 439      AFAF0C30 
 439      F295061E 
 439      C99568EC 
 439      08
 440 0b9d 7B82428D 		.ascii	"{\202B\215\004\267\260(L\036\225\202\021\016\211R\304"
 440      04B7B028 
 440      4C1E9582 
 440      110E8952 
 440      C4
 441 0bae FDD09F1E 		.ascii	"\375\320\237\036\033\367X\215\333\033\012\204\375\225"
 441      1BF7588D 
ARM GAS  /tmp/ccuCDCR2.s 			page 35


 441      DB1B0A84 
 441      FD95
 442 0bbc 8218713F 		.ascii	"\202\030q?2n\034\300j\2629\245\260\350\017y\240b\260"
 442      326E1CC0 
 442      6AB239A5 
 442      B0E80F79 
 442      A062B0
 443 0bcf 9CA6FBDC 		.ascii	"\234\246\373\334\276P@p\213BD\340E\257\317\355\343\305"
 443      BE504070 
 443      8B4244E0 
 443      45AFCFED 
 443      E3C5
 444 0be1 B26A5E14 		.ascii	"\262j^\024\334\274\030\030\341\256\360z\207Ba\250\020"
 444      DCBC1818 
 444      E1AEF07A 
 444      874261A8 
 444      10
 445 0bf2 2815CACA 		.ascii	"(\025\312\312\204\262\304\213`((\014\025\370R\377\320"
 445      84B2C48B 
 445      6028280C 
 445      15F852FF 
 445      D0
 446 0c03 919ED143 		.ascii	"\221\236\321CG\224\014\037\371\354\010\267\341CB\247"
 446      47940C1F 
 446      F9EC08B7 
 446      E14342A7 
 447 0c13 8854E60F 		.ascii	"\210T\346\017JD\247*\270\337;\302#\325\341\237\257\367"
 447      4A44A72A 
 447      B8DF3BC2 
 447      23D5E19F 
 447      AFF7
 448 0c25 00EFF5F9 		.ascii	"\000\357\365\371\203\202\333S&\224\363U\225\222Gc\242"
 448      8382DB53 
 448      2694F355 
 448      95924763 
 448      A2
 449 0c36 C0E3D1E4 		.ascii	"\300\343\321\344\241\224\372CNo(\010V\226~\325\007\265"
 449      A194FA43 
 449      4E6F2808 
 449      56967ED5 
 449      07B5
 450 0c48 3E6F4814 		.ascii	">oH\024\000\241\220\274\366\000\206W\252\271\307J\033"
 450      00A190BC 
 450      F6008657 
 450      AAB9C74A 
 450      1B
 451 0c59 CFE4FB03 		.ascii	"\317\344\373\003\204\007Q\250\000a=\022'\216\344\304"
 451      840751A8 
 451      00613D12 
 451      278EE4C4 
 452 0c69 FB387114 		.ascii	"\3738q\024'\336\317\211\2439\361\001\2338\274\004\322"
 452      27DECF89 
 452      A339F101 
 452      9B38BC04 
 452      D2
 453 0c7a 70AE5284 		.ascii	"p\256R\204\333\275\366\260\007\260\235\304\360\325\202"
 453      DBBDF6B0 
ARM GAS  /tmp/ccuCDCR2.s 			page 36


 453      07B09DC4 
 453      F0D582
 454 0c89 08F75065 		.ascii	"\010\367Pe\231 \346y\201&\342\015|@\310\227\"\022/\201"
 454      9920E679 
 454      8126E20D 
 454      7C40C897 
 454      22122F81 
 455 0c9d 93398932 		.ascii	"\2239\2112\243\301_\024\265\240\004\325\3517\247\024"
 455      A3C15F14 
 455      B5A004D5 
 455      E937A714 
 456 0cad 089509F4 		.ascii	"\010\225\011\364\271\274\222\257\2108%Q(\217P\255I\301"
 456      B9BC92AF 
 456      88382551 
 456      288F50AD 
 456      49C1
 457 0cbf 1E8854C0 		.ascii	"\036\210T\300G\225\012h\256\221\"\226M\201O\371B\215"
 457      47950A68 
 457      AE912296 
 457      4D814FF9 
 457      428D
 458 0cd1 5FF20280 		.ascii	"_\362\002\200\243Z\012\225>\035\036\250:&4\025D!\350"
 458      A35A0A95 
 458      3E1D1EA8 
 458      3A263415 
 458      4421E8
 459 0ce4 05607BB5 		.ascii	"\005`{\265$\211agD\010J\320\240\010\0346\"\004\370\260"
 459      24896167 
 459      44084AD0 
 459      A0081C36 
 459      2204F8B0 
 460 0cf8 0F34CE34 		.ascii	"\0174\3164\326\240\022qHuL\330\275A\260\215=\342\201"
 460      D6A01271 
 460      48754CD8 
 460      BD41B08D 
 460      3DE281
 461 0d0b 3B74051F 		.ascii	";t\005\037\303p\203\361\030.\024&\023d>\362\014\010"
 461      C37083F1 
 461      182E1426 
 461      13643EF2 
 461      0C08
 462 0d1d 25549382 		.ascii	"%T\223\202-\354\251\352\247\015\251J\177\004Z\366\327"
 462      2DECA9EA 
 462      A70DA94A 
 462      7F045AF6 
 462      D7
 463 0d2e 0D32F2C6 		.ascii	"\0152\362\306\025\366T\363~\311\037\254(\010{@,\332"
 463      15F654F3 
 463      7EC91FAC 
 463      28087B40 
 463      2CDA
 464 0d40 091485B0 		.ascii	"\011\024\205\260\020\004\177\254\200\357\000Nj\026\020"
 464      10047FAC 
 464      80EF004E 
 464      6A1610
 465 0d4f 1EF84AEA 		.ascii	"\036\370J\352\001\3602\034\012U:\003\212Pp\017U\007"
 465      01F0321C 
ARM GAS  /tmp/ccuCDCR2.s 			page 37


 465      0A553A03 
 465      8A50700F 
 465      5507
 466 0d61 05D111A0 		.ascii	"\005\321\021\240C\257\366\252\370m\245\277\224T`\374"
 466      43AFF6AA 
 466      F86DA5BF 
 466      945460FC 
 467 0d71 77E4B0D1 		.ascii	"w\344\260\321\303F\352\307\020\370/\320\345\210\370"
 467      C346EAC7 
 467      10F82FD0 
 467      E588F8
 468 0d80 9F03CA33 		.ascii	"\237\003\3123\315 >\201\017C\315k\002B $N\361\220G\217"
 468      CD203E81 
 468      0F43CD6B 
 468      02422024 
 468      4EF19047 
 469 0d95 54A87BBA 		.ascii	"T\250{\272#\323\004(\004T\357.\202b\205 \225W\005\275"
 469      23D30428 
 469      0454EF2E 
 469      82628520 
 469      955705BD 
 470 0da9 1EA9C007 		.ascii	"\036\251\300\007#$4\331\017\336WH\001!\203rADz\206\257"
 470      232434D9 
 470      0FDE5748 
 470      01218372 
 470      41447A86 
 471 0dbe F457043D 		.ascii	"\364W\004=\022\035\334\243FBU\305\001I\321N\277\345"
 471      121DDCA3 
 471      464255C5 
 471      0149D14E 
 471      BFE5
 472 0dd0 11EAF248 		.ascii	"\021\352\362H+\\\225G\304\307>\207\317S.\012\202\335"
 472      2B5C9547 
 472      C4C73E87 
 472      CF532E0A 
 472      82DD
 473 0de2 476C704B 		.ascii	"GlpK\2128\021\321\253\351\341\205qJ;\364\007\375R\241"
 473      8A3811D1 
 473      ABE9E185 
 473      714A3BF4 
 473      07FD52A1 
 474 0df6 D7370E84 		.ascii	"\3277\016\204{\250\2622\344\205Iu<\274\177\274\364i"
 474      7BA8B232 
 474      E4854975 
 474      3CBC7FBC 
 474      F469
 475 0e08 C12B3D0A 		.ascii	"\301+=\012\037\355\244Z\330VZU^\250|\242\325\012\224"
 475      1FEDA45A 
 475      D8565A55 
 475      5EA87CA2 
 475      D50A94
 476 0e1b F2C3D01B 		.ascii	"\362\303\320\033\016\027)\017\023aTTE\354D\2240\270"
 476      0E17290F 
 476      13615454 
 476      45EC4494 
 476      30B8
 477 0e2d CD63524D 		.ascii	"\315cRM\022\245\220>?\031\204\246\317\270h\371\017P"
ARM GAS  /tmp/ccuCDCR2.s 			page 38


 477      12A5903E 
 477      3F1984A6 
 477      CFB868F9 
 477      0F50
 478 0e3f 2AD2260F 		.ascii	"*\322&\017\322G\276\307CI\361\\\243\025\206\215\032"
 478      D247BEC7 
 478      4349F15C 
 478      A315868D 
 478      1A
 479 0e50 593242FF 		.ascii	"Y2B\3774\374\201\377\003\375\201\277\244"
 479      34FC81FF 
 479      03FD81BF 
 479      A4
 480              		.text
 481              		.section	.gnu.lto_.symtab.b55afc261d902dac,"",%progbits
 482 0000 5F686561 		.ascii	"_heap_init\000\000\000\000\000\000\000\000\000\000\000"
 482      705F696E 
 482      69740000 
 482      00000000 
 482      00000000 
 483 0015 00840100 		.ascii	"\000\204\001\000\000chHeapObjectInit\000\000\000\000"
 483      00636848 
 483      6561704F 
 483      626A6563 
 483      74496E69 
 484 002e 00000000 		.ascii	"\000\000\000\000\000\000\000\000\212\001\000\000chH"
 484      00000000 
 484      8A010000 
 484      636848
 485 003d 65617041 		.ascii	"eapAlloc\000\000\000\000\000\000\000\000\000\000\000"
 485      6C6C6F63 
 485      00000000 
 485      00000000 
 485      000000
 486 0050 00960100 		.ascii	"\000\226\001\000\000chHeapFree\000\000\000\000\000\000"
 486      00636848 
 486      65617046 
 486      72656500 
 486      00000000 
 487 0065 00000000 		.ascii	"\000\000\000\000\000\000\236\001\000\000chHeapStatu"
 487      00009E01 
 487      00006368 
 487      48656170 
 487      53746174 
 488 007a 73000000 		.ascii	"s\000\000\000\000\000\000\000\000\000\000\000\000\245"
 488      00000000 
 488      00000000 
 488      00A5
 489 0088 01000063 		.ascii	"\001\000\000chCoreAlloc\000\000\002\000\000\000\000"
 489      68436F72 
 489      65416C6C 
 489      6F630000 
 489      02000000 
 490 009d 00000000 		.ascii	"\000\000\000\000\000\210\001\000\000chMtxObjectInit"
 490      00880100 
 490      0063684D 
 490      74784F62 
ARM GAS  /tmp/ccuCDCR2.s 			page 39


 490      6A656374 
 491 00b5 00000200 		.ascii	"\000\000\002\000\000\000\000\000\000\000\000\000\256"
 491      00000000 
 491      00000000 
 491      AE
 492 00c2 01000063 		.ascii	"\001\000\000chMtxUnlock\000\000\002\000\000\000\000"
 492      684D7478 
 492      556E6C6F 
 492      636B0000 
 492      02000000 
 493 00d7 00000000 		.ascii	"\000\000\000\000\000\262\001\000\000chMtxLock\000\000"
 493      00B20100 
 493      0063684D 
 493      74784C6F 
 493      636B0000 
 494 00eb 02000000 		.ascii	"\002\000\000\000\000\000\000\000\000\000\264\001\000"
 494      00000000 
 494      0000B401 
 494      00
 495 00f8 00       		.ascii	"\000"
 496              		.text
 497              		.section	.gnu.lto_.opts,"",%progbits
 498 0000 272D6D63 		.ascii	"'-mcpu=cortex-m4' '-mno-thumb-interwork' '-mthumb' "
 498      70753D63 
 498      6F727465 
 498      782D6D34 
 498      2720272D 
 499 0033 272D6767 		.ascii	"'-ggdb' '-O2' '-fomit-frame-pointer' '-falign-funct"
 499      64622720 
 499      272D4F32 
 499      2720272D 
 499      666F6D69 
 500 0066 696F6E73 		.ascii	"ions=16' '-ffunction-sections' '-fdata-sections' '-"
 500      3D313627 
 500      20272D66 
 500      66756E63 
 500      74696F6E 
 501 0099 666E6F2D 		.ascii	"fno-common' '-flto'\000"
 501      636F6D6D 
 501      6F6E2720 
 501      272D666C 
 501      746F2700 
 502              		.text
 503              		.cfi_sections	.debug_frame
 504              		.section	.text._heap_init,"ax",%progbits
 505              		.align	2
 506              		.p2align 4,,15
 507              		.global	_heap_init
 508              		.thumb
 509              		.thumb_func
 510              		.type	_heap_init, %function
 511              	_heap_init:
 512              	.LFB241:
 513              		.file 1 "../ChibiOS/os/rt/src/chheap.c"
 514              		.loc 1 91 0
 515              		.cfi_startproc
 516              		@ args = 0, pretend = 0, frame = 0
ARM GAS  /tmp/ccuCDCR2.s 			page 40


 517              		@ frame_needed = 0, uses_anonymous_args = 0
 518              		@ link register save eliminated.
 519              		.loc 1 93 0
 520 0000 044B     		ldr	r3, .L2
 521 0002 054A     		ldr	r2, .L2+4
 522 0004 1A60     		str	r2, [r3]
 523              		.loc 1 97 0
 524 0006 03F11000 		add	r0, r3, #16
 525              		.loc 1 94 0
 526 000a 0022     		movs	r2, #0
 527 000c 9A60     		str	r2, [r3, #8]
 528              		.loc 1 95 0
 529 000e DA60     		str	r2, [r3, #12]
 530              		.loc 1 97 0
 531 0010 FFF7FEBF 		b	chMtxObjectInit
 532              	.LVL0:
 533              	.L3:
 534              		.align	2
 535              	.L2:
 536 0014 00000000 		.word	.LANCHOR0
 537 0018 00000000 		.word	chCoreAlloc
 538              		.cfi_endproc
 539              	.LFE241:
 540              		.size	_heap_init, .-_heap_init
 541 001c AFF30080 		.section	.text.chHeapObjectInit,"ax",%progbits
 542              		.align	2
 543              		.p2align 4,,15
 544              		.global	chHeapObjectInit
 545              		.thumb
 546              		.thumb_func
 547              		.type	chHeapObjectInit, %function
 548              	chHeapObjectInit:
 549              	.LFB242:
 550              		.loc 1 114 0
 551              		.cfi_startproc
 552              		@ args = 0, pretend = 0, frame = 0
 553              		@ frame_needed = 0, uses_anonymous_args = 0
 554              		@ link register save eliminated.
 555              	.LVL1:
 556              		.loc 1 119 0
 557 0000 0023     		movs	r3, #0
 558              		.loc 1 123 0
 559 0002 083A     		subs	r2, r2, #8
 560              	.LVL2:
 561              		.loc 1 120 0
 562 0004 8160     		str	r1, [r0, #8]
 563              		.loc 1 119 0
 564 0006 0360     		str	r3, [r0]
 565              		.loc 1 121 0
 566 0008 C360     		str	r3, [r0, #12]
 567              		.loc 1 125 0
 568 000a 1030     		adds	r0, r0, #16
 569              	.LVL3:
 570              		.loc 1 123 0
 571 000c 4A60     		str	r2, [r1, #4]
 572              		.loc 1 122 0
 573 000e 0B60     		str	r3, [r1]
ARM GAS  /tmp/ccuCDCR2.s 			page 41


 574              		.loc 1 125 0
 575 0010 FFF7FEBF 		b	chMtxObjectInit
 576              	.LVL4:
 577              		.cfi_endproc
 578              	.LFE242:
 579              		.size	chHeapObjectInit, .-chHeapObjectInit
 580 0014 AFF30080 		.section	.text.chHeapAlloc,"ax",%progbits
 580      AFF30080 
 580      AFF30080 
 581              		.align	2
 582              		.p2align 4,,15
 583              		.global	chHeapAlloc
 584              		.thumb
 585              		.thumb_func
 586              		.type	chHeapAlloc, %function
 587              	chHeapAlloc:
 588              	.LFB243:
 589              		.loc 1 147 0
 590              		.cfi_startproc
 591              		@ args = 0, pretend = 0, frame = 0
 592              		@ frame_needed = 0, uses_anonymous_args = 0
 593              	.LVL5:
 594 0000 F8B5     		push	{r3, r4, r5, r6, r7, lr}
 595              		.cfi_def_cfa_offset 24
 596              		.cfi_offset 3, -24
 597              		.cfi_offset 4, -20
 598              		.cfi_offset 5, -16
 599              		.cfi_offset 6, -12
 600              		.cfi_offset 7, -8
 601              		.cfi_offset 14, -4
 602              		.loc 1 151 0
 603 0002 214E     		ldr	r6, .L21
 604 0004 0028     		cmp	r0, #0
 605 0006 18BF     		it	ne
 606 0008 0646     		movne	r6, r0
 607              	.LVL6:
 608              		.loc 1 157 0
 609 000a 06F11007 		add	r7, r6, #16
 610              		.loc 1 154 0
 611 000e 0731     		adds	r1, r1, #7
 612              	.LVL7:
 613              		.loc 1 157 0
 614 0010 3846     		mov	r0, r7
 615              		.loc 1 154 0
 616 0012 21F00705 		bic	r5, r1, #7
 617              	.LVL8:
 618              		.loc 1 155 0
 619 0016 06F10804 		add	r4, r6, #8
 620              	.LVL9:
 621              		.loc 1 157 0
 622 001a FFF7FEFF 		bl	chMtxLock
 623              	.LVL10:
 624              		.loc 1 158 0
 625 001e 03E0     		b	.L7
 626              	.LVL11:
 627              	.L12:
 628              		.loc 1 160 0
ARM GAS  /tmp/ccuCDCR2.s 			page 42


 629 0020 5A68     		ldr	r2, [r3, #4]
 630 0022 9542     		cmp	r5, r2
 631 0024 12D9     		bls	.L20
 632 0026 1C46     		mov	r4, r3
 633              	.LVL12:
 634              	.L7:
 635              		.loc 1 158 0 discriminator 1
 636 0028 2368     		ldr	r3, [r4]
 637              	.LVL13:
 638 002a 002B     		cmp	r3, #0
 639 002c F8D1     		bne	.L12
 640              		.loc 1 186 0
 641 002e 3846     		mov	r0, r7
 642 0030 FFF7FEFF 		bl	chMtxUnlock
 643              	.LVL14:
 644              		.loc 1 190 0
 645 0034 3368     		ldr	r3, [r6]
 646 0036 2BB3     		cbz	r3, .L14
 647              		.loc 1 191 0
 648 0038 05F10800 		add	r0, r5, #8
 649 003c 9847     		blx	r3
 650              	.LVL15:
 651              		.loc 1 192 0
 652 003e 08B3     		cbz	r0, .L14
 653              		.loc 1 193 0
 654 0040 0660     		str	r6, [r0]
 655              		.loc 1 194 0
 656 0042 4560     		str	r5, [r0, #4]
 657              	.LVL16:
 658              		.loc 1 198 0
 659 0044 00F10804 		add	r4, r0, #8
 660              	.LVL17:
 661              	.L11:
 662              		.loc 1 204 0
 663 0048 2046     		mov	r0, r4
 664 004a F8BD     		pop	{r3, r4, r5, r6, r7, pc}
 665              	.LVL18:
 666              	.L20:
 667              		.loc 1 161 0
 668 004c 05F10801 		add	r1, r5, #8
 669 0050 9142     		cmp	r1, r2
 670 0052 09D9     		bls	.L9
 671              		.loc 1 165 0
 672 0054 1A68     		ldr	r2, [r3]
 673 0056 2260     		str	r2, [r4]
 674              	.L10:
 675              		.loc 1 177 0
 676 0058 1C46     		mov	r4, r3
 677              	.LVL19:
 678              		.loc 1 178 0
 679 005a 3846     		mov	r0, r7
 680              		.loc 1 177 0
 681 005c 44F8086B 		str	r6, [r4], #8
 682              		.loc 1 178 0
 683 0060 FFF7FEFF 		bl	chMtxUnlock
 684              	.LVL20:
 685              		.loc 1 204 0
ARM GAS  /tmp/ccuCDCR2.s 			page 43


 686 0064 2046     		mov	r0, r4
 687 0066 F8BD     		pop	{r3, r4, r5, r6, r7, pc}
 688              	.LVL21:
 689              	.L9:
 690              		.loc 1 173 0
 691 0068 6FF00700 		mvn	r0, #7
 692 006c 401B     		subs	r0, r0, r5
 693              		.loc 1 170 0
 694 006e 03EB010E 		add	lr, r3, r1
 695              	.LVL22:
 696              		.loc 1 173 0
 697 0072 0244     		add	r2, r2, r0
 698              		.loc 1 172 0
 699 0074 1868     		ldr	r0, [r3]
 700 0076 5850     		str	r0, [r3, r1]
 701              		.loc 1 173 0
 702 0078 CEF80420 		str	r2, [lr, #4]
 703              		.loc 1 174 0
 704 007c C4F800E0 		str	lr, [r4]
 705              		.loc 1 175 0
 706 0080 5D60     		str	r5, [r3, #4]
 707 0082 E9E7     		b	.L10
 708              	.LVL23:
 709              	.L14:
 710              		.loc 1 203 0
 711 0084 0024     		movs	r4, #0
 712              	.LVL24:
 713 0086 DFE7     		b	.L11
 714              	.L22:
 715              		.align	2
 716              	.L21:
 717 0088 00000000 		.word	.LANCHOR0
 718              		.cfi_endproc
 719              	.LFE243:
 720              		.size	chHeapAlloc, .-chHeapAlloc
 721 008c AFF30080 		.section	.text.chHeapFree,"ax",%progbits
 722              		.align	2
 723              		.p2align 4,,15
 724              		.global	chHeapFree
 725              		.thumb
 726              		.thumb_func
 727              		.type	chHeapFree, %function
 728              	chHeapFree:
 729              	.LFB244:
 730              		.loc 1 213 0
 731              		.cfi_startproc
 732              		@ args = 0, pretend = 0, frame = 0
 733              		@ frame_needed = 0, uses_anonymous_args = 0
 734              	.LVL25:
 735 0000 F8B5     		push	{r3, r4, r5, r6, r7, lr}
 736              		.cfi_def_cfa_offset 24
 737              		.cfi_offset 3, -24
 738              		.cfi_offset 4, -20
 739              		.cfi_offset 5, -16
 740              		.cfi_offset 6, -12
 741              		.cfi_offset 7, -8
 742              		.cfi_offset 14, -4
ARM GAS  /tmp/ccuCDCR2.s 			page 44


 743              		.loc 1 222 0
 744 0002 50F8085C 		ldr	r5, [r0, #-8]
 745              		.loc 1 225 0
 746 0006 05F11007 		add	r7, r5, #16
 747              		.loc 1 213 0
 748 000a 0646     		mov	r6, r0
 749              		.loc 1 220 0
 750 000c A0F10804 		sub	r4, r0, #8
 751              	.LVL26:
 752              		.loc 1 223 0
 753 0010 0835     		adds	r5, r5, #8
 754              	.LVL27:
 755              		.loc 1 225 0
 756 0012 3846     		mov	r0, r7
 757              	.LVL28:
 758 0014 FFF7FEFF 		bl	chMtxLock
 759              	.LVL29:
 760              		.loc 1 223 0
 761 0018 2B46     		mov	r3, r5
 762              	.LVL30:
 763              	.L30:
 764              		.loc 1 229 0
 765 001a AB42     		cmp	r3, r5
 766 001c 04D0     		beq	.L24
 767              	.L35:
 768              		.loc 1 229 0 is_stmt 0 discriminator 2
 769 001e A342     		cmp	r3, r4
 770 0020 02D3     		bcc	.L24
 771 0022 1B68     		ldr	r3, [r3]
 772              	.LVL31:
 773              		.loc 1 229 0
 774 0024 AB42     		cmp	r3, r5
 775 0026 FAD1     		bne	.L35
 776              	.L24:
 777              		.loc 1 230 0 is_stmt 1 discriminator 1
 778 0028 1A68     		ldr	r2, [r3]
 779              		.loc 1 229 0 discriminator 1
 780 002a 1AB1     		cbz	r2, .L26
 781              		.loc 1 230 0
 782 002c 9442     		cmp	r4, r2
 783 002e 01D3     		bcc	.L26
 784 0030 1346     		mov	r3, r2
 785              	.LVL32:
 786              		.loc 1 248 0
 787 0032 F2E7     		b	.L30
 788              	.LVL33:
 789              	.L26:
 790              		.loc 1 235 0
 791 0034 56F8041C 		ldr	r1, [r6, #-4]
 792              		.loc 1 232 0
 793 0038 46F8082C 		str	r2, [r6, #-8]
 794              		.loc 1 233 0
 795 003c 1C60     		str	r4, [r3]
 796              		.loc 1 235 0
 797 003e 01F10802 		add	r2, r1, #8
 798 0042 56F8085C 		ldr	r5, [r6, #-8]
 799              	.LVL34:
ARM GAS  /tmp/ccuCDCR2.s 			page 45


 800 0046 A018     		adds	r0, r4, r2
 801 0048 A842     		cmp	r0, r5
 802 004a 0AD0     		beq	.L36
 803              		.loc 1 240 0
 804 004c 5A68     		ldr	r2, [r3, #4]
 805 004e 02F10801 		add	r1, r2, #8
 806 0052 1944     		add	r1, r1, r3
 807 0054 8C42     		cmp	r4, r1
 808 0056 12D0     		beq	.L37
 809              	.L29:
 810              		.loc 1 249 0
 811 0058 3846     		mov	r0, r7
 812              		.loc 1 252 0
 813 005a BDE8F840 		pop	{r3, r4, r5, r6, r7, lr}
 814              	.LVL35:
 815              		.loc 1 249 0
 816 005e FFF7FEBF 		b	chMtxUnlock
 817              	.LVL36:
 818              	.L36:
 819              		.loc 1 237 0
 820 0062 4068     		ldr	r0, [r0, #4]
 821              		.loc 1 238 0
 822 0064 A258     		ldr	r2, [r4, r2]
 823 0066 46F8082C 		str	r2, [r6, #-8]
 824              		.loc 1 237 0
 825 006a 0A18     		adds	r2, r1, r0
 826 006c 0832     		adds	r2, r2, #8
 827 006e 46F8042C 		str	r2, [r6, #-4]
 828              		.loc 1 240 0
 829 0072 5A68     		ldr	r2, [r3, #4]
 830 0074 02F10801 		add	r1, r2, #8
 831 0078 1944     		add	r1, r1, r3
 832 007a 8C42     		cmp	r4, r1
 833 007c ECD1     		bne	.L29
 834              	.L37:
 835              		.loc 1 242 0
 836 007e 56F8040C 		ldr	r0, [r6, #-4]
 837              		.loc 1 243 0
 838 0082 56F8081C 		ldr	r1, [r6, #-8]
 839 0086 1960     		str	r1, [r3]
 840              		.loc 1 242 0
 841 0088 0244     		add	r2, r2, r0
 842 008a 0832     		adds	r2, r2, #8
 843 008c 5A60     		str	r2, [r3, #4]
 844              		.loc 1 249 0
 845 008e 3846     		mov	r0, r7
 846              		.loc 1 252 0
 847 0090 BDE8F840 		pop	{r3, r4, r5, r6, r7, lr}
 848              	.LVL37:
 849              		.loc 1 249 0
 850 0094 FFF7FEBF 		b	chMtxUnlock
 851              	.LVL38:
 852              		.cfi_endproc
 853              	.LFE244:
 854              		.size	chHeapFree, .-chHeapFree
 855 0098 AFF30080 		.section	.text.chHeapStatus,"ax",%progbits
 855      AFF30080 
ARM GAS  /tmp/ccuCDCR2.s 			page 46


 856              		.align	2
 857              		.p2align 4,,15
 858              		.global	chHeapStatus
 859              		.thumb
 860              		.thumb_func
 861              		.type	chHeapStatus, %function
 862              	chHeapStatus:
 863              	.LFB245:
 864              		.loc 1 267 0
 865              		.cfi_startproc
 866              		@ args = 0, pretend = 0, frame = 0
 867              		@ frame_needed = 0, uses_anonymous_args = 0
 868              	.LVL39:
 869 0000 F8B5     		push	{r3, r4, r5, r6, r7, lr}
 870              		.cfi_def_cfa_offset 24
 871              		.cfi_offset 3, -24
 872              		.cfi_offset 4, -20
 873              		.cfi_offset 5, -16
 874              		.cfi_offset 6, -12
 875              		.cfi_offset 7, -8
 876              		.cfi_offset 14, -4
 877              		.loc 1 272 0
 878 0002 0E4C     		ldr	r4, .L51
 879 0004 0028     		cmp	r0, #0
 880 0006 18BF     		it	ne
 881 0008 0446     		movne	r4, r0
 882              	.LVL40:
 883              		.loc 1 275 0
 884 000a 04F11006 		add	r6, r4, #16
 885 000e 3046     		mov	r0, r6
 886              		.loc 1 267 0
 887 0010 0F46     		mov	r7, r1
 888              		.loc 1 275 0
 889 0012 FFF7FEFF 		bl	chMtxLock
 890              	.LVL41:
 891              		.loc 1 279 0
 892 0016 A368     		ldr	r3, [r4, #8]
 893 0018 6BB1     		cbz	r3, .L44
 894              		.loc 1 276 0
 895 001a 0022     		movs	r2, #0
 896              		.loc 1 277 0
 897 001c 1446     		mov	r4, r2
 898              	.LVL42:
 899              	.L41:
 900              		.loc 1 279 0
 901 001e 28CB     		ldmia	r3, {r3, r5}
 902              		.loc 1 281 0
 903 0020 0134     		adds	r4, r4, #1
 904              	.LVL43:
 905              		.loc 1 280 0
 906 0022 2A44     		add	r2, r2, r5
 907              	.LVL44:
 908              		.loc 1 279 0
 909 0024 002B     		cmp	r3, #0
 910 0026 FAD1     		bne	.L41
 911              	.LVL45:
 912              	.L40:
ARM GAS  /tmp/ccuCDCR2.s 			page 47


 913              		.loc 1 284 0
 914 0028 07B1     		cbz	r7, .L42
 915              		.loc 1 285 0
 916 002a 3A60     		str	r2, [r7]
 917              	.L42:
 918              		.loc 1 287 0
 919 002c 3046     		mov	r0, r6
 920 002e FFF7FEFF 		bl	chMtxUnlock
 921              	.LVL46:
 922              		.loc 1 290 0
 923 0032 2046     		mov	r0, r4
 924 0034 F8BD     		pop	{r3, r4, r5, r6, r7, pc}
 925              	.LVL47:
 926              	.L44:
 927              		.loc 1 276 0
 928 0036 1A46     		mov	r2, r3
 929              		.loc 1 277 0
 930 0038 1C46     		mov	r4, r3
 931              	.LVL48:
 932 003a F5E7     		b	.L40
 933              	.L52:
 934              		.align	2
 935              	.L51:
 936 003c 00000000 		.word	.LANCHOR0
 937              		.cfi_endproc
 938              	.LFE245:
 939              		.size	chHeapStatus, .-chHeapStatus
 940              		.section	.bss.default_heap,"aw",%nobits
 941              		.align	3
 942              		.set	.LANCHOR0,. + 0
 943              		.type	default_heap, %object
 944              		.size	default_heap, 32
 945              	default_heap:
 946 0000 00000000 		.space	32
 946      00000000 
 946      00000000 
 946      00000000 
 946      00000000 
 947              		.text
 948              	.Letext0:
 949              		.file 2 "/nfs/nfs5/home/research/hardware/arm2/gcc-arm-embedded/gcc-arm-none-eabi-4_8-2014q2/lib/g
 950              		.file 3 "/nfs/nfs5/home/research/hardware/arm2/gcc-arm-embedded/gcc-arm-none-eabi-4_8-2014q2/arm-n
 951              		.file 4 "/nfs/nfs5/home/research/hardware/arm2/gcc-arm-embedded/gcc-arm-none-eabi-4_8-2014q2/arm-n
 952              		.file 5 "../ChibiOS/os/rt/ports/ARMCMx/compilers/GCC/chtypes.h"
 953              		.file 6 "../ChibiOS/os/rt/include/chsystypes.h"
 954              		.file 7 "../ChibiOS/os/rt/include/chschd.h"
 955              		.file 8 "../ChibiOS/os/rt/ports/ARMCMx/chcore.h"
 956              		.file 9 "../ChibiOS/os/rt/ports/ARMCMx/chcore_v7m.h"
 957              		.file 10 "../ChibiOS/os/rt/include/chtm.h"
 958              		.file 11 "../ChibiOS/os/rt/include/chsem.h"
 959              		.file 12 "../ChibiOS/os/rt/include/chmtx.h"
 960              		.file 13 "../ChibiOS/os/rt/include/chmemcore.h"
 961              		.file 14 "../ChibiOS/os/rt/include/chheap.h"
 962              		.file 15 "../ChibiOS/os/ext/CMSIS/include/core_cm4.h"
 963              		.section	.debug_info,"",%progbits
 964              	.Ldebug_info0:
 965 0000 B8090000 		.4byte	0x9b8
ARM GAS  /tmp/ccuCDCR2.s 			page 48


 966 0004 0400     		.2byte	0x4
 967 0006 00000000 		.4byte	.Ldebug_abbrev0
 968 000a 04       		.byte	0x4
 969 000b 01       		.uleb128 0x1
 970 000c 1C050000 		.4byte	.LASF125
 971 0010 01       		.byte	0x1
 972 0011 DC010000 		.4byte	.LASF126
 973 0015 2A010000 		.4byte	.LASF127
 974 0019 00000000 		.4byte	.Ldebug_ranges0+0
 975 001d 00000000 		.4byte	0
 976 0021 00000000 		.4byte	.Ldebug_line0
 977 0025 02       		.uleb128 0x2
 978 0026 04       		.byte	0x4
 979 0027 05       		.byte	0x5
 980 0028 696E7400 		.ascii	"int\000"
 981 002c 03       		.uleb128 0x3
 982 002d 0D000000 		.4byte	.LASF2
 983 0031 02       		.byte	0x2
 984 0032 D4       		.byte	0xd4
 985 0033 37000000 		.4byte	0x37
 986 0037 04       		.uleb128 0x4
 987 0038 04       		.byte	0x4
 988 0039 07       		.byte	0x7
 989 003a 00020000 		.4byte	.LASF0
 990 003e 04       		.uleb128 0x4
 991 003f 01       		.byte	0x1
 992 0040 06       		.byte	0x6
 993 0041 DD000000 		.4byte	.LASF1
 994 0045 03       		.uleb128 0x3
 995 0046 29000000 		.4byte	.LASF3
 996 004a 03       		.byte	0x3
 997 004b 1C       		.byte	0x1c
 998 004c 50000000 		.4byte	0x50
 999 0050 04       		.uleb128 0x4
 1000 0051 01       		.byte	0x1
 1001 0052 08       		.byte	0x8
 1002 0053 9B030000 		.4byte	.LASF4
 1003 0057 04       		.uleb128 0x4
 1004 0058 02       		.byte	0x2
 1005 0059 05       		.byte	0x5
 1006 005a BF030000 		.4byte	.LASF5
 1007 005e 04       		.uleb128 0x4
 1008 005f 02       		.byte	0x2
 1009 0060 07       		.byte	0x7
 1010 0061 2D020000 		.4byte	.LASF6
 1011 0065 03       		.uleb128 0x3
 1012 0066 97020000 		.4byte	.LASF7
 1013 006a 03       		.byte	0x3
 1014 006b 37       		.byte	0x37
 1015 006c 70000000 		.4byte	0x70
 1016 0070 04       		.uleb128 0x4
 1017 0071 04       		.byte	0x4
 1018 0072 05       		.byte	0x5
 1019 0073 21010000 		.4byte	.LASF8
 1020 0077 03       		.uleb128 0x3
 1021 0078 9F040000 		.4byte	.LASF9
 1022 007c 03       		.byte	0x3
ARM GAS  /tmp/ccuCDCR2.s 			page 49


 1023 007d 38       		.byte	0x38
 1024 007e 82000000 		.4byte	0x82
 1025 0082 04       		.uleb128 0x4
 1026 0083 04       		.byte	0x4
 1027 0084 07       		.byte	0x7
 1028 0085 40040000 		.4byte	.LASF10
 1029 0089 04       		.uleb128 0x4
 1030 008a 08       		.byte	0x8
 1031 008b 05       		.byte	0x5
 1032 008c 75010000 		.4byte	.LASF11
 1033 0090 03       		.uleb128 0x3
 1034 0091 41030000 		.4byte	.LASF12
 1035 0095 03       		.byte	0x3
 1036 0096 4E       		.byte	0x4e
 1037 0097 9B000000 		.4byte	0x9b
 1038 009b 04       		.uleb128 0x4
 1039 009c 08       		.byte	0x8
 1040 009d 07       		.byte	0x7
 1041 009e 5B000000 		.4byte	.LASF13
 1042 00a2 03       		.uleb128 0x3
 1043 00a3 09050000 		.4byte	.LASF14
 1044 00a7 04       		.byte	0x4
 1045 00a8 2A       		.byte	0x2a
 1046 00a9 45000000 		.4byte	0x45
 1047 00ad 03       		.uleb128 0x3
 1048 00ae 93030000 		.4byte	.LASF15
 1049 00b2 04       		.byte	0x4
 1050 00b3 41       		.byte	0x41
 1051 00b4 65000000 		.4byte	0x65
 1052 00b8 03       		.uleb128 0x3
 1053 00b9 0A040000 		.4byte	.LASF16
 1054 00bd 04       		.byte	0x4
 1055 00be 42       		.byte	0x42
 1056 00bf 77000000 		.4byte	0x77
 1057 00c3 03       		.uleb128 0x3
 1058 00c4 20000000 		.4byte	.LASF17
 1059 00c8 04       		.byte	0x4
 1060 00c9 4E       		.byte	0x4e
 1061 00ca 90000000 		.4byte	0x90
 1062 00ce 03       		.uleb128 0x3
 1063 00cf D4040000 		.4byte	.LASF18
 1064 00d3 05       		.byte	0x5
 1065 00d4 39       		.byte	0x39
 1066 00d5 B8000000 		.4byte	0xb8
 1067 00d9 03       		.uleb128 0x3
 1068 00da 75020000 		.4byte	.LASF19
 1069 00de 05       		.byte	0x5
 1070 00df 3C       		.byte	0x3c
 1071 00e0 A2000000 		.4byte	0xa2
 1072 00e4 03       		.uleb128 0x3
 1073 00e5 5E010000 		.4byte	.LASF20
 1074 00e9 05       		.byte	0x5
 1075 00ea 3D       		.byte	0x3d
 1076 00eb A2000000 		.4byte	0xa2
 1077 00ef 03       		.uleb128 0x3
 1078 00f0 4C030000 		.4byte	.LASF21
 1079 00f4 05       		.byte	0x5
ARM GAS  /tmp/ccuCDCR2.s 			page 50


 1080 00f5 3E       		.byte	0x3e
 1081 00f6 A2000000 		.4byte	0xa2
 1082 00fa 03       		.uleb128 0x3
 1083 00fb 6B030000 		.4byte	.LASF22
 1084 00ff 05       		.byte	0x5
 1085 0100 40       		.byte	0x40
 1086 0101 B8000000 		.4byte	0xb8
 1087 0105 03       		.uleb128 0x3
 1088 0106 63020000 		.4byte	.LASF23
 1089 010a 05       		.byte	0x5
 1090 010b 41       		.byte	0x41
 1091 010c AD000000 		.4byte	0xad
 1092 0110 03       		.uleb128 0x3
 1093 0111 8B020000 		.4byte	.LASF24
 1094 0115 05       		.byte	0x5
 1095 0116 43       		.byte	0x43
 1096 0117 B8000000 		.4byte	0xb8
 1097 011b 03       		.uleb128 0x3
 1098 011c FA010000 		.4byte	.LASF25
 1099 0120 05       		.byte	0x5
 1100 0121 45       		.byte	0x45
 1101 0122 AD000000 		.4byte	0xad
 1102 0126 03       		.uleb128 0x3
 1103 0127 81040000 		.4byte	.LASF26
 1104 012b 06       		.byte	0x6
 1105 012c 33       		.byte	0x33
 1106 012d B8000000 		.4byte	0xb8
 1107 0131 03       		.uleb128 0x3
 1108 0132 64040000 		.4byte	.LASF27
 1109 0136 06       		.byte	0x6
 1110 0137 3F       		.byte	0x3f
 1111 0138 3C010000 		.4byte	0x13c
 1112 013c 05       		.uleb128 0x5
 1113 013d 40020000 		.4byte	.LASF46
 1114 0141 40       		.byte	0x40
 1115 0142 07       		.byte	0x7
 1116 0143 C2       		.byte	0xc2
 1117 0144 1C020000 		.4byte	0x21c
 1118 0148 06       		.uleb128 0x6
 1119 0149 DF030000 		.4byte	.LASF28
 1120 014d 07       		.byte	0x7
 1121 014e C3       		.byte	0xc3
 1122 014f 27020000 		.4byte	0x227
 1123 0153 00       		.byte	0
 1124 0154 06       		.uleb128 0x6
 1125 0155 64030000 		.4byte	.LASF29
 1126 0159 07       		.byte	0x7
 1127 015a C5       		.byte	0xc5
 1128 015b 27020000 		.4byte	0x227
 1129 015f 04       		.byte	0x4
 1130 0160 06       		.uleb128 0x6
 1131 0161 CA000000 		.4byte	.LASF30
 1132 0165 07       		.byte	0x7
 1133 0166 C7       		.byte	0xc7
 1134 0167 FA000000 		.4byte	0xfa
 1135 016b 08       		.byte	0x8
 1136 016c 06       		.uleb128 0x6
ARM GAS  /tmp/ccuCDCR2.s 			page 51


 1137 016d 34060000 		.4byte	.LASF31
 1138 0171 07       		.byte	0x7
 1139 0172 C8       		.byte	0xc8
 1140 0173 57040000 		.4byte	0x457
 1141 0177 0C       		.byte	0xc
 1142 0178 06       		.uleb128 0x6
 1143 0179 83010000 		.4byte	.LASF32
 1144 017d 07       		.byte	0x7
 1145 017e CA       		.byte	0xca
 1146 017f 27020000 		.4byte	0x227
 1147 0183 10       		.byte	0x10
 1148 0184 06       		.uleb128 0x6
 1149 0185 10030000 		.4byte	.LASF33
 1150 0189 07       		.byte	0x7
 1151 018a CB       		.byte	0xcb
 1152 018b 27020000 		.4byte	0x227
 1153 018f 14       		.byte	0x14
 1154 0190 06       		.uleb128 0x6
 1155 0191 09060000 		.4byte	.LASF34
 1156 0195 07       		.byte	0x7
 1157 0196 D2       		.byte	0xd2
 1158 0197 E2050000 		.4byte	0x5e2
 1159 019b 18       		.byte	0x18
 1160 019c 06       		.uleb128 0x6
 1161 019d C9030000 		.4byte	.LASF35
 1162 01a1 07       		.byte	0x7
 1163 01a2 DD       		.byte	0xdd
 1164 01a3 E4000000 		.4byte	0xe4
 1165 01a7 1C       		.byte	0x1c
 1166 01a8 06       		.uleb128 0x6
 1167 01a9 24060000 		.4byte	.LASF36
 1168 01ad 07       		.byte	0x7
 1169 01ae E1       		.byte	0xe1
 1170 01af D9000000 		.4byte	0xd9
 1171 01b3 1D       		.byte	0x1d
 1172 01b4 06       		.uleb128 0x6
 1173 01b5 FC040000 		.4byte	.LASF37
 1174 01b9 07       		.byte	0x7
 1175 01ba E6       		.byte	0xe6
 1176 01bb EF000000 		.4byte	0xef
 1177 01bf 1E       		.byte	0x1e
 1178 01c0 07       		.uleb128 0x7
 1179 01c1 705F7500 		.ascii	"p_u\000"
 1180 01c5 07       		.byte	0x7
 1181 01c6 3701     		.2byte	0x137
 1182 01c8 11050000 		.4byte	0x511
 1183 01cc 20       		.byte	0x20
 1184 01cd 08       		.uleb128 0x8
 1185 01ce BD020000 		.4byte	.LASF38
 1186 01d2 07       		.byte	0x7
 1187 01d3 3C01     		.2byte	0x13c
 1188 01d5 2D020000 		.4byte	0x22d
 1189 01d9 24       		.byte	0x24
 1190 01da 08       		.uleb128 0x8
 1191 01db 1C020000 		.4byte	.LASF39
 1192 01df 07       		.byte	0x7
 1193 01e0 4201     		.2byte	0x142
ARM GAS  /tmp/ccuCDCR2.s 			page 52


 1194 01e2 51020000 		.4byte	0x251
 1195 01e6 28       		.byte	0x28
 1196 01e7 08       		.uleb128 0x8
 1197 01e8 FF030000 		.4byte	.LASF40
 1198 01ec 07       		.byte	0x7
 1199 01ed 4801     		.2byte	0x148
 1200 01ef 10010000 		.4byte	0x110
 1201 01f3 30       		.byte	0x30
 1202 01f4 08       		.uleb128 0x8
 1203 01f5 B5030000 		.4byte	.LASF41
 1204 01f9 07       		.byte	0x7
 1205 01fa 4F01     		.2byte	0x14f
 1206 01fc DC050000 		.4byte	0x5dc
 1207 0200 34       		.byte	0x34
 1208 0201 08       		.uleb128 0x8
 1209 0202 8B040000 		.4byte	.LASF42
 1210 0206 07       		.byte	0x7
 1211 0207 5301     		.2byte	0x153
 1212 0209 FA000000 		.4byte	0xfa
 1213 020d 38       		.byte	0x38
 1214 020e 08       		.uleb128 0x8
 1215 020f EF000000 		.4byte	.LASF43
 1216 0213 07       		.byte	0x7
 1217 0214 5A01     		.2byte	0x15a
 1218 0216 04030000 		.4byte	0x304
 1219 021a 3C       		.byte	0x3c
 1220 021b 00       		.byte	0
 1221 021c 03       		.uleb128 0x3
 1222 021d D0020000 		.4byte	.LASF44
 1223 0221 06       		.byte	0x6
 1224 0222 44       		.byte	0x44
 1225 0223 27020000 		.4byte	0x227
 1226 0227 09       		.uleb128 0x9
 1227 0228 04       		.byte	0x4
 1228 0229 31010000 		.4byte	0x131
 1229 022d 03       		.uleb128 0x3
 1230 022e 15060000 		.4byte	.LASF45
 1231 0232 06       		.byte	0x6
 1232 0233 49       		.byte	0x49
 1233 0234 38020000 		.4byte	0x238
 1234 0238 05       		.uleb128 0x5
 1235 0239 2B040000 		.4byte	.LASF47
 1236 023d 04       		.byte	0x4
 1237 023e 07       		.byte	0x7
 1238 023f B0       		.byte	0xb0
 1239 0240 51020000 		.4byte	0x251
 1240 0244 06       		.uleb128 0x6
 1241 0245 DF030000 		.4byte	.LASF28
 1242 0249 07       		.byte	0x7
 1243 024a B1       		.byte	0xb1
 1244 024b 27020000 		.4byte	0x227
 1245 024f 00       		.byte	0
 1246 0250 00       		.byte	0
 1247 0251 03       		.uleb128 0x3
 1248 0252 E3040000 		.4byte	.LASF48
 1249 0256 06       		.byte	0x6
 1250 0257 50       		.byte	0x50
ARM GAS  /tmp/ccuCDCR2.s 			page 53


 1251 0258 5C020000 		.4byte	0x25c
 1252 025c 05       		.uleb128 0x5
 1253 025d B9000000 		.4byte	.LASF49
 1254 0261 08       		.byte	0x8
 1255 0262 07       		.byte	0x7
 1256 0263 B7       		.byte	0xb7
 1257 0264 81020000 		.4byte	0x281
 1258 0268 06       		.uleb128 0x6
 1259 0269 DF030000 		.4byte	.LASF28
 1260 026d 07       		.byte	0x7
 1261 026e B8       		.byte	0xb8
 1262 026f 27020000 		.4byte	0x227
 1263 0273 00       		.byte	0
 1264 0274 06       		.uleb128 0x6
 1265 0275 64030000 		.4byte	.LASF29
 1266 0279 07       		.byte	0x7
 1267 027a B9       		.byte	0xb9
 1268 027b 27020000 		.4byte	0x227
 1269 027f 04       		.byte	0x4
 1270 0280 00       		.byte	0
 1271 0281 03       		.uleb128 0x3
 1272 0282 00000000 		.4byte	.LASF50
 1273 0286 06       		.byte	0x6
 1274 0287 57       		.byte	0x57
 1275 0288 8C020000 		.4byte	0x28c
 1276 028c 0A       		.uleb128 0xa
 1277 028d 7D020000 		.4byte	.LASF51
 1278 0291 1C       		.byte	0x1c
 1279 0292 07       		.byte	0x7
 1280 0293 9201     		.2byte	0x192
 1281 0295 E8020000 		.4byte	0x2e8
 1282 0299 08       		.uleb128 0x8
 1283 029a 1A040000 		.4byte	.LASF52
 1284 029e 07       		.byte	0x7
 1285 029f 9301     		.2byte	0x193
 1286 02a1 51020000 		.4byte	0x251
 1287 02a5 00       		.byte	0
 1288 02a6 08       		.uleb128 0x8
 1289 02a7 D1030000 		.4byte	.LASF53
 1290 02ab 07       		.byte	0x7
 1291 02ac 9401     		.2byte	0x194
 1292 02ae FA000000 		.4byte	0xfa
 1293 02b2 08       		.byte	0x8
 1294 02b3 08       		.uleb128 0x8
 1295 02b4 18030000 		.4byte	.LASF54
 1296 02b8 07       		.byte	0x7
 1297 02b9 9601     		.2byte	0x196
 1298 02bb 57040000 		.4byte	0x457
 1299 02bf 0C       		.byte	0xc
 1300 02c0 08       		.uleb128 0x8
 1301 02c1 A1010000 		.4byte	.LASF55
 1302 02c5 07       		.byte	0x7
 1303 02c6 9901     		.2byte	0x199
 1304 02c8 27020000 		.4byte	0x227
 1305 02cc 10       		.byte	0x10
 1306 02cd 08       		.uleb128 0x8
 1307 02ce 39030000 		.4byte	.LASF56
ARM GAS  /tmp/ccuCDCR2.s 			page 54


 1308 02d2 07       		.byte	0x7
 1309 02d3 9A01     		.2byte	0x19a
 1310 02d5 27020000 		.4byte	0x227
 1311 02d9 14       		.byte	0x14
 1312 02da 08       		.uleb128 0x8
 1313 02db 2F030000 		.4byte	.LASF57
 1314 02df 07       		.byte	0x7
 1315 02e0 9D01     		.2byte	0x19d
 1316 02e2 27020000 		.4byte	0x227
 1317 02e6 18       		.byte	0x18
 1318 02e7 00       		.byte	0
 1319 02e8 03       		.uleb128 0x3
 1320 02e9 96040000 		.4byte	.LASF58
 1321 02ed 06       		.byte	0x6
 1322 02ee 5C       		.byte	0x5c
 1323 02ef F3020000 		.4byte	0x2f3
 1324 02f3 09       		.uleb128 0x9
 1325 02f4 04       		.byte	0x4
 1326 02f5 F9020000 		.4byte	0x2f9
 1327 02f9 0B       		.uleb128 0xb
 1328 02fa 04030000 		.4byte	0x304
 1329 02fe 0C       		.uleb128 0xc
 1330 02ff 04030000 		.4byte	0x304
 1331 0303 00       		.byte	0
 1332 0304 0D       		.uleb128 0xd
 1333 0305 04       		.byte	0x4
 1334 0306 03       		.uleb128 0x3
 1335 0307 54030000 		.4byte	.LASF59
 1336 030b 06       		.byte	0x6
 1337 030c 61       		.byte	0x61
 1338 030d 11030000 		.4byte	0x311
 1339 0311 0A       		.uleb128 0xa
 1340 0312 C3040000 		.4byte	.LASF60
 1341 0316 14       		.byte	0x14
 1342 0317 07       		.byte	0x7
 1343 0318 6D01     		.2byte	0x16d
 1344 031a 60030000 		.4byte	0x360
 1345 031e 08       		.uleb128 0x8
 1346 031f 0D020000 		.4byte	.LASF61
 1347 0323 07       		.byte	0x7
 1348 0324 6E01     		.2byte	0x16e
 1349 0326 F4050000 		.4byte	0x5f4
 1350 032a 00       		.byte	0
 1351 032b 08       		.uleb128 0x8
 1352 032c B2010000 		.4byte	.LASF62
 1353 0330 07       		.byte	0x7
 1354 0331 6F01     		.2byte	0x16f
 1355 0333 F4050000 		.4byte	0x5f4
 1356 0337 04       		.byte	0x4
 1357 0338 08       		.uleb128 0x8
 1358 0339 22040000 		.4byte	.LASF63
 1359 033d 07       		.byte	0x7
 1360 033e 7001     		.2byte	0x170
 1361 0340 26010000 		.4byte	0x126
 1362 0344 08       		.byte	0x8
 1363 0345 08       		.uleb128 0x8
 1364 0346 3A060000 		.4byte	.LASF64
ARM GAS  /tmp/ccuCDCR2.s 			page 55


 1365 034a 07       		.byte	0x7
 1366 034b 7101     		.2byte	0x171
 1367 034d E8020000 		.4byte	0x2e8
 1368 0351 0C       		.byte	0xc
 1369 0352 08       		.uleb128 0x8
 1370 0353 DC040000 		.4byte	.LASF65
 1371 0357 07       		.byte	0x7
 1372 0358 7301     		.2byte	0x173
 1373 035a 04030000 		.4byte	0x304
 1374 035e 10       		.byte	0x10
 1375 035f 00       		.byte	0
 1376 0360 03       		.uleb128 0x3
 1377 0361 8A000000 		.4byte	.LASF66
 1378 0365 06       		.byte	0x6
 1379 0366 66       		.byte	0x66
 1380 0367 6B030000 		.4byte	0x36b
 1381 036b 0A       		.uleb128 0xa
 1382 036c E3020000 		.4byte	.LASF67
 1383 0370 10       		.byte	0x10
 1384 0371 07       		.byte	0x7
 1385 0372 7D01     		.2byte	0x17d
 1386 0374 AD030000 		.4byte	0x3ad
 1387 0378 08       		.uleb128 0x8
 1388 0379 0D020000 		.4byte	.LASF61
 1389 037d 07       		.byte	0x7
 1390 037e 7E01     		.2byte	0x17e
 1391 0380 F4050000 		.4byte	0x5f4
 1392 0384 00       		.byte	0
 1393 0385 08       		.uleb128 0x8
 1394 0386 B2010000 		.4byte	.LASF62
 1395 038a 07       		.byte	0x7
 1396 038b 8001     		.2byte	0x180
 1397 038d F4050000 		.4byte	0x5f4
 1398 0391 04       		.byte	0x4
 1399 0392 08       		.uleb128 0x8
 1400 0393 22040000 		.4byte	.LASF63
 1401 0397 07       		.byte	0x7
 1402 0398 8201     		.2byte	0x182
 1403 039a 26010000 		.4byte	0x126
 1404 039e 08       		.byte	0x8
 1405 039f 08       		.uleb128 0x8
 1406 03a0 FA020000 		.4byte	.LASF68
 1407 03a4 07       		.byte	0x7
 1408 03a5 8A01     		.2byte	0x18a
 1409 03a7 26010000 		.4byte	0x126
 1410 03ab 0C       		.byte	0xc
 1411 03ac 00       		.byte	0
 1412 03ad 03       		.uleb128 0x3
 1413 03ae 3F000000 		.4byte	.LASF69
 1414 03b2 06       		.byte	0x6
 1415 03b3 6B       		.byte	0x6b
 1416 03b4 B8030000 		.4byte	0x3b8
 1417 03b8 0A       		.uleb128 0xa
 1418 03b9 83030000 		.4byte	.LASF70
 1419 03bd 04       		.byte	0x4
 1420 03be 07       		.byte	0x7
 1421 03bf A401     		.2byte	0x1a4
ARM GAS  /tmp/ccuCDCR2.s 			page 56


 1422 03c1 D3030000 		.4byte	0x3d3
 1423 03c5 08       		.uleb128 0x8
 1424 03c6 AA040000 		.4byte	.LASF71
 1425 03ca 07       		.byte	0x7
 1426 03cb AC01     		.2byte	0x1ac
 1427 03cd FA050000 		.4byte	0x5fa
 1428 03d1 00       		.byte	0
 1429 03d2 00       		.byte	0
 1430 03d3 03       		.uleb128 0x3
 1431 03d4 69020000 		.4byte	.LASF72
 1432 03d8 06       		.byte	0x6
 1433 03d9 70       		.byte	0x70
 1434 03da DE030000 		.4byte	0x3de
 1435 03de 0E       		.uleb128 0xe
 1436 03df 17010000 		.4byte	.LASF73
 1437 03e3 5001     		.2byte	0x150
 1438 03e5 07       		.byte	0x7
 1439 03e6 C401     		.2byte	0x1c4
 1440 03e8 3A040000 		.4byte	0x43a
 1441 03ec 08       		.uleb128 0x8
 1442 03ed 03050000 		.4byte	.LASF74
 1443 03f1 07       		.byte	0x7
 1444 03f2 C801     		.2byte	0x1c8
 1445 03f4 81020000 		.4byte	0x281
 1446 03f8 00       		.byte	0
 1447 03f9 08       		.uleb128 0x8
 1448 03fa 0A010000 		.4byte	.LASF75
 1449 03fe 07       		.byte	0x7
 1450 03ff CC01     		.2byte	0x1cc
 1451 0401 60030000 		.4byte	0x360
 1452 0405 1C       		.byte	0x1c
 1453 0406 07       		.uleb128 0x7
 1454 0407 64626700 		.ascii	"dbg\000"
 1455 040b 07       		.byte	0x7
 1456 040c D001     		.2byte	0x1d0
 1457 040e AD030000 		.4byte	0x3ad
 1458 0412 2C       		.byte	0x2c
 1459 0413 08       		.uleb128 0x8
 1460 0414 4A020000 		.4byte	.LASF76
 1461 0418 07       		.byte	0x7
 1462 0419 D401     		.2byte	0x1d4
 1463 041b 31010000 		.4byte	0x131
 1464 041f 30       		.byte	0x30
 1465 0420 07       		.uleb128 0x7
 1466 0421 746D00   		.ascii	"tm\000"
 1467 0424 07       		.byte	0x7
 1468 0425 D901     		.2byte	0x1d9
 1469 0427 06050000 		.4byte	0x506
 1470 042b 70       		.byte	0x70
 1471 042c 08       		.uleb128 0x8
 1472 042d CD010000 		.4byte	.LASF77
 1473 0431 07       		.byte	0x7
 1474 0432 E501     		.2byte	0x1e5
 1475 0434 FF050000 		.4byte	0x5ff
 1476 0438 78       		.byte	0x78
 1477 0439 00       		.byte	0
 1478 043a 04       		.uleb128 0x4
ARM GAS  /tmp/ccuCDCR2.s 			page 57


 1479 043b 04       		.byte	0x4
 1480 043c 07       		.byte	0x7
 1481 043d C7020000 		.4byte	.LASF78
 1482 0441 03       		.uleb128 0x3
 1483 0442 A9010000 		.4byte	.LASF79
 1484 0446 08       		.byte	0x8
 1485 0447 65       		.byte	0x65
 1486 0448 04030000 		.4byte	0x304
 1487 044c 03       		.uleb128 0x3
 1488 044d A1020000 		.4byte	.LASF80
 1489 0451 08       		.byte	0x8
 1490 0452 6D       		.byte	0x6d
 1491 0453 C3000000 		.4byte	0xc3
 1492 0457 05       		.uleb128 0x5
 1493 0458 BB040000 		.4byte	.LASF81
 1494 045c 04       		.byte	0x4
 1495 045d 08       		.byte	0x8
 1496 045e 89       		.byte	0x89
 1497 045f 70040000 		.4byte	0x470
 1498 0463 0F       		.uleb128 0xf
 1499 0464 72313300 		.ascii	"r13\000"
 1500 0468 08       		.byte	0x8
 1501 0469 8A       		.byte	0x8a
 1502 046a EB040000 		.4byte	0x4eb
 1503 046e 00       		.byte	0
 1504 046f 00       		.byte	0
 1505 0470 05       		.uleb128 0x5
 1506 0471 33000000 		.4byte	.LASF82
 1507 0475 24       		.byte	0x24
 1508 0476 09       		.byte	0x9
 1509 0477 FD       		.byte	0xfd
 1510 0478 EB040000 		.4byte	0x4eb
 1511 047c 07       		.uleb128 0x7
 1512 047d 723400   		.ascii	"r4\000"
 1513 0480 09       		.byte	0x9
 1514 0481 1001     		.2byte	0x110
 1515 0483 41040000 		.4byte	0x441
 1516 0487 00       		.byte	0
 1517 0488 07       		.uleb128 0x7
 1518 0489 723500   		.ascii	"r5\000"
 1519 048c 09       		.byte	0x9
 1520 048d 1101     		.2byte	0x111
 1521 048f 41040000 		.4byte	0x441
 1522 0493 04       		.byte	0x4
 1523 0494 07       		.uleb128 0x7
 1524 0495 723600   		.ascii	"r6\000"
 1525 0498 09       		.byte	0x9
 1526 0499 1201     		.2byte	0x112
 1527 049b 41040000 		.4byte	0x441
 1528 049f 08       		.byte	0x8
 1529 04a0 07       		.uleb128 0x7
 1530 04a1 723700   		.ascii	"r7\000"
 1531 04a4 09       		.byte	0x9
 1532 04a5 1301     		.2byte	0x113
 1533 04a7 41040000 		.4byte	0x441
 1534 04ab 0C       		.byte	0xc
 1535 04ac 07       		.uleb128 0x7
ARM GAS  /tmp/ccuCDCR2.s 			page 58


 1536 04ad 723800   		.ascii	"r8\000"
 1537 04b0 09       		.byte	0x9
 1538 04b1 1401     		.2byte	0x114
 1539 04b3 41040000 		.4byte	0x441
 1540 04b7 10       		.byte	0x10
 1541 04b8 07       		.uleb128 0x7
 1542 04b9 723900   		.ascii	"r9\000"
 1543 04bc 09       		.byte	0x9
 1544 04bd 1501     		.2byte	0x115
 1545 04bf 41040000 		.4byte	0x441
 1546 04c3 14       		.byte	0x14
 1547 04c4 07       		.uleb128 0x7
 1548 04c5 72313000 		.ascii	"r10\000"
 1549 04c9 09       		.byte	0x9
 1550 04ca 1601     		.2byte	0x116
 1551 04cc 41040000 		.4byte	0x441
 1552 04d0 18       		.byte	0x18
 1553 04d1 07       		.uleb128 0x7
 1554 04d2 72313100 		.ascii	"r11\000"
 1555 04d6 09       		.byte	0x9
 1556 04d7 1701     		.2byte	0x117
 1557 04d9 41040000 		.4byte	0x441
 1558 04dd 1C       		.byte	0x1c
 1559 04de 07       		.uleb128 0x7
 1560 04df 6C7200   		.ascii	"lr\000"
 1561 04e2 09       		.byte	0x9
 1562 04e3 1801     		.2byte	0x118
 1563 04e5 41040000 		.4byte	0x441
 1564 04e9 20       		.byte	0x20
 1565 04ea 00       		.byte	0
 1566 04eb 09       		.uleb128 0x9
 1567 04ec 04       		.byte	0x4
 1568 04ed 70040000 		.4byte	0x470
 1569 04f1 10       		.uleb128 0x10
 1570 04f2 04       		.byte	0x4
 1571 04f3 0A       		.byte	0xa
 1572 04f4 38       		.byte	0x38
 1573 04f5 06050000 		.4byte	0x506
 1574 04f9 06       		.uleb128 0x6
 1575 04fa B4040000 		.4byte	.LASF83
 1576 04fe 0A       		.byte	0xa
 1577 04ff 3C       		.byte	0x3c
 1578 0500 CE000000 		.4byte	0xce
 1579 0504 00       		.byte	0
 1580 0505 00       		.byte	0
 1581 0506 03       		.uleb128 0x3
 1582 0507 1E030000 		.4byte	.LASF84
 1583 050b 0A       		.byte	0xa
 1584 050c 3D       		.byte	0x3d
 1585 050d F1040000 		.4byte	0x4f1
 1586 0511 11       		.uleb128 0x11
 1587 0512 04       		.byte	0x4
 1588 0513 07       		.byte	0x7
 1589 0514 FA       		.byte	0xfa
 1590 0515 7A050000 		.4byte	0x57a
 1591 0519 12       		.uleb128 0x12
 1592 051a 19000000 		.4byte	.LASF85
ARM GAS  /tmp/ccuCDCR2.s 			page 59


 1593 051e 07       		.byte	0x7
 1594 051f 0101     		.2byte	0x101
 1595 0521 05010000 		.4byte	0x105
 1596 0525 12       		.uleb128 0x12
 1597 0526 72000000 		.4byte	.LASF86
 1598 052a 07       		.byte	0x7
 1599 052b 0801     		.2byte	0x108
 1600 052d 05010000 		.4byte	0x105
 1601 0531 12       		.uleb128 0x12
 1602 0532 FC050000 		.4byte	.LASF87
 1603 0536 07       		.byte	0x7
 1604 0537 0F01     		.2byte	0x10f
 1605 0539 04030000 		.4byte	0x304
 1606 053d 12       		.uleb128 0x12
 1607 053e 11010000 		.4byte	.LASF88
 1608 0542 07       		.byte	0x7
 1609 0543 1601     		.2byte	0x116
 1610 0545 7A050000 		.4byte	0x57a
 1611 0549 12       		.uleb128 0x12
 1612 054a 82000000 		.4byte	.LASF89
 1613 054e 07       		.byte	0x7
 1614 054f 1B01     		.2byte	0x11b
 1615 0551 05010000 		.4byte	0x105
 1616 0555 12       		.uleb128 0x12
 1617 0556 15020000 		.4byte	.LASF90
 1618 055a 07       		.byte	0x7
 1619 055b 2401     		.2byte	0x124
 1620 055d A5050000 		.4byte	0x5a5
 1621 0561 12       		.uleb128 0x12
 1622 0562 13040000 		.4byte	.LASF91
 1623 0566 07       		.byte	0x7
 1624 0567 2D01     		.2byte	0x12d
 1625 0569 DC050000 		.4byte	0x5dc
 1626 056d 12       		.uleb128 0x12
 1627 056e D8030000 		.4byte	.LASF92
 1628 0572 07       		.byte	0x7
 1629 0573 3501     		.2byte	0x135
 1630 0575 10010000 		.4byte	0x110
 1631 0579 00       		.byte	0
 1632 057a 09       		.uleb128 0x9
 1633 057b 04       		.byte	0x4
 1634 057c 1C020000 		.4byte	0x21c
 1635 0580 05       		.uleb128 0x5
 1636 0581 F2030000 		.4byte	.LASF93
 1637 0585 0C       		.byte	0xc
 1638 0586 0B       		.byte	0xb
 1639 0587 34       		.byte	0x34
 1640 0588 A5050000 		.4byte	0x5a5
 1641 058c 06       		.uleb128 0x6
 1642 058d 8B010000 		.4byte	.LASF94
 1643 0591 0B       		.byte	0xb
 1644 0592 35       		.byte	0x35
 1645 0593 51020000 		.4byte	0x251
 1646 0597 00       		.byte	0
 1647 0598 06       		.uleb128 0x6
 1648 0599 27020000 		.4byte	.LASF95
 1649 059d 0B       		.byte	0xb
ARM GAS  /tmp/ccuCDCR2.s 			page 60


 1650 059e 37       		.byte	0x37
 1651 059f 1B010000 		.4byte	0x11b
 1652 05a3 08       		.byte	0x8
 1653 05a4 00       		.byte	0
 1654 05a5 09       		.uleb128 0x9
 1655 05a6 04       		.byte	0x4
 1656 05a7 80050000 		.4byte	0x580
 1657 05ab 05       		.uleb128 0x5
 1658 05ac F3040000 		.4byte	.LASF96
 1659 05b0 10       		.byte	0x10
 1660 05b1 0C       		.byte	0xc
 1661 05b2 39       		.byte	0x39
 1662 05b3 DC050000 		.4byte	0x5dc
 1663 05b7 06       		.uleb128 0x6
 1664 05b8 F7000000 		.4byte	.LASF97
 1665 05bc 0C       		.byte	0xc
 1666 05bd 3A       		.byte	0x3a
 1667 05be 51020000 		.4byte	0x251
 1668 05c2 00       		.byte	0
 1669 05c3 06       		.uleb128 0x6
 1670 05c4 2C060000 		.4byte	.LASF98
 1671 05c8 0C       		.byte	0xc
 1672 05c9 3C       		.byte	0x3c
 1673 05ca 27020000 		.4byte	0x227
 1674 05ce 08       		.byte	0x8
 1675 05cf 06       		.uleb128 0x6
 1676 05d0 7A040000 		.4byte	.LASF99
 1677 05d4 0C       		.byte	0xc
 1678 05d5 3E       		.byte	0x3e
 1679 05d6 1A060000 		.4byte	0x61a
 1680 05da 0C       		.byte	0xc
 1681 05db 00       		.byte	0
 1682 05dc 09       		.uleb128 0x9
 1683 05dd 04       		.byte	0x4
 1684 05de AB050000 		.4byte	0x5ab
 1685 05e2 09       		.uleb128 0x9
 1686 05e3 04       		.byte	0x4
 1687 05e4 E8050000 		.4byte	0x5e8
 1688 05e8 13       		.uleb128 0x13
 1689 05e9 ED050000 		.4byte	0x5ed
 1690 05ed 04       		.uleb128 0x4
 1691 05ee 01       		.byte	0x1
 1692 05ef 08       		.byte	0x8
 1693 05f0 5F040000 		.4byte	.LASF100
 1694 05f4 09       		.uleb128 0x9
 1695 05f5 04       		.byte	0x4
 1696 05f6 06030000 		.4byte	0x306
 1697 05fa 14       		.uleb128 0x14
 1698 05fb E2050000 		.4byte	0x5e2
 1699 05ff 15       		.uleb128 0x15
 1700 0600 4C040000 		.4byte	0x44c
 1701 0604 0F060000 		.4byte	0x60f
 1702 0608 16       		.uleb128 0x16
 1703 0609 3A040000 		.4byte	0x43a
 1704 060d 1A       		.byte	0x1a
 1705 060e 00       		.byte	0
 1706 060f 03       		.uleb128 0x3
ARM GAS  /tmp/ccuCDCR2.s 			page 61


 1707 0610 BA010000 		.4byte	.LASF101
 1708 0614 0C       		.byte	0xc
 1709 0615 34       		.byte	0x34
 1710 0616 AB050000 		.4byte	0x5ab
 1711 061a 09       		.uleb128 0x9
 1712 061b 04       		.byte	0x4
 1713 061c 0F060000 		.4byte	0x60f
 1714 0620 03       		.uleb128 0x3
 1715 0621 4E000000 		.4byte	.LASF102
 1716 0625 0D       		.byte	0xd
 1717 0626 34       		.byte	0x34
 1718 0627 2B060000 		.4byte	0x62b
 1719 062b 09       		.uleb128 0x9
 1720 062c 04       		.byte	0x4
 1721 062d 31060000 		.4byte	0x631
 1722 0631 17       		.uleb128 0x17
 1723 0632 04030000 		.4byte	0x304
 1724 0636 40060000 		.4byte	0x640
 1725 063a 0C       		.uleb128 0xc
 1726 063b 2C000000 		.4byte	0x2c
 1727 063f 00       		.byte	0
 1728 0640 03       		.uleb128 0x3
 1729 0641 67010000 		.4byte	.LASF103
 1730 0645 0E       		.byte	0xe
 1731 0646 3C       		.byte	0x3c
 1732 0647 4B060000 		.4byte	0x64b
 1733 064b 05       		.uleb128 0x5
 1734 064c 42060000 		.4byte	.LASF104
 1735 0650 20       		.byte	0x20
 1736 0651 0E       		.byte	0xe
 1737 0652 4F       		.byte	0x4f
 1738 0653 7C060000 		.4byte	0x67c
 1739 0657 06       		.uleb128 0x6
 1740 0658 11050000 		.4byte	.LASF105
 1741 065c 0E       		.byte	0xe
 1742 065d 50       		.byte	0x50
 1743 065e 20060000 		.4byte	0x620
 1744 0662 00       		.byte	0
 1745 0663 06       		.uleb128 0x6
 1746 0664 7B000000 		.4byte	.LASF106
 1747 0668 0E       		.byte	0xe
 1748 0669 52       		.byte	0x52
 1749 066a 9B060000 		.4byte	0x69b
 1750 066e 08       		.byte	0x8
 1751 066f 06       		.uleb128 0x6
 1752 0670 E9000000 		.4byte	.LASF107
 1753 0674 0E       		.byte	0xe
 1754 0675 54       		.byte	0x54
 1755 0676 0F060000 		.4byte	0x60f
 1756 067a 10       		.byte	0x10
 1757 067b 00       		.byte	0
 1758 067c 11       		.uleb128 0x11
 1759 067d 04       		.byte	0x4
 1760 067e 0E       		.byte	0xe
 1761 067f 44       		.byte	0x44
 1762 0680 9B060000 		.4byte	0x69b
 1763 0684 18       		.uleb128 0x18
ARM GAS  /tmp/ccuCDCR2.s 			page 62


 1764 0685 14000000 		.4byte	.LASF108
 1765 0689 0E       		.byte	0xe
 1766 068a 45       		.byte	0x45
 1767 068b BC060000 		.4byte	0x6bc
 1768 068f 18       		.uleb128 0x18
 1769 0690 3B040000 		.4byte	.LASF109
 1770 0694 0E       		.byte	0xe
 1771 0695 46       		.byte	0x46
 1772 0696 C2060000 		.4byte	0x6c2
 1773 069a 00       		.byte	0
 1774 069b 19       		.uleb128 0x19
 1775 069c A9030000 		.4byte	.LASF128
 1776 06a0 08       		.byte	0x8
 1777 06a1 0E       		.byte	0xe
 1778 06a2 41       		.byte	0x41
 1779 06a3 BC060000 		.4byte	0x6bc
 1780 06a7 18       		.uleb128 0x18
 1781 06a8 B3000000 		.4byte	.LASF110
 1782 06ac 0E       		.byte	0xe
 1783 06ad 42       		.byte	0x42
 1784 06ae 4C040000 		.4byte	0x44c
 1785 06b2 1A       		.uleb128 0x1a
 1786 06b3 6800     		.ascii	"h\000"
 1787 06b5 0E       		.byte	0xe
 1788 06b6 49       		.byte	0x49
 1789 06b7 C8060000 		.4byte	0x6c8
 1790 06bb 00       		.byte	0
 1791 06bc 09       		.uleb128 0x9
 1792 06bd 04       		.byte	0x4
 1793 06be 9B060000 		.4byte	0x69b
 1794 06c2 09       		.uleb128 0x9
 1795 06c3 04       		.byte	0x4
 1796 06c4 40060000 		.4byte	0x640
 1797 06c8 10       		.uleb128 0x10
 1798 06c9 08       		.byte	0x8
 1799 06ca 0E       		.byte	0xe
 1800 06cb 43       		.byte	0x43
 1801 06cc E7060000 		.4byte	0x6e7
 1802 06d0 0F       		.uleb128 0xf
 1803 06d1 7500     		.ascii	"u\000"
 1804 06d3 0E       		.byte	0xe
 1805 06d4 47       		.byte	0x47
 1806 06d5 7C060000 		.4byte	0x67c
 1807 06d9 00       		.byte	0
 1808 06da 06       		.uleb128 0x6
 1809 06db 10060000 		.4byte	.LASF111
 1810 06df 0E       		.byte	0xe
 1811 06e0 48       		.byte	0x48
 1812 06e1 2C000000 		.4byte	0x2c
 1813 06e5 04       		.byte	0x4
 1814 06e6 00       		.byte	0
 1815 06e7 1B       		.uleb128 0x1b
 1816 06e8 C2010000 		.4byte	.LASF112
 1817 06ec 01       		.byte	0x1
 1818 06ed 5B       		.byte	0x5b
 1819 06ee 00000000 		.4byte	.LFB241
 1820 06f2 1C000000 		.4byte	.LFE241-.LFB241
ARM GAS  /tmp/ccuCDCR2.s 			page 63


 1821 06f6 01       		.uleb128 0x1
 1822 06f7 9C       		.byte	0x9c
 1823 06f8 10070000 		.4byte	0x710
 1824 06fc 1C       		.uleb128 0x1c
 1825 06fd 14000000 		.4byte	.LVL0
 1826 0701 8C090000 		.4byte	0x98c
 1827 0705 1D       		.uleb128 0x1d
 1828 0706 01       		.uleb128 0x1
 1829 0707 50       		.byte	0x50
 1830 0708 05       		.uleb128 0x5
 1831 0709 03       		.byte	0x3
 1832 070a 10000000 		.4byte	.LANCHOR0+16
 1833 070e 00       		.byte	0
 1834 070f 00       		.byte	0
 1835 0710 1B       		.uleb128 0x1b
 1836 0711 AC020000 		.4byte	.LASF113
 1837 0715 01       		.byte	0x1
 1838 0716 72       		.byte	0x72
 1839 0717 00000000 		.4byte	.LFB242
 1840 071b 14000000 		.4byte	.LFE242-.LFB242
 1841 071f 01       		.uleb128 0x1
 1842 0720 9C       		.byte	0x9c
 1843 0721 7D070000 		.4byte	0x77d
 1844 0725 1E       		.uleb128 0x1e
 1845 0726 AD000000 		.4byte	.LASF114
 1846 072a 01       		.byte	0x1
 1847 072b 72       		.byte	0x72
 1848 072c C2060000 		.4byte	0x6c2
 1849 0730 00000000 		.4byte	.LLST0
 1850 0734 1F       		.uleb128 0x1f
 1851 0735 62756600 		.ascii	"buf\000"
 1852 0739 01       		.byte	0x1
 1853 073a 72       		.byte	0x72
 1854 073b 04030000 		.4byte	0x304
 1855 073f 2E000000 		.4byte	.LLST1
 1856 0743 1E       		.uleb128 0x1e
 1857 0744 10060000 		.4byte	.LASF111
 1858 0748 01       		.byte	0x1
 1859 0749 72       		.byte	0x72
 1860 074a 2C000000 		.4byte	0x2c
 1861 074e 4F000000 		.4byte	.LLST2
 1862 0752 20       		.uleb128 0x20
 1863 0753 687000   		.ascii	"hp\000"
 1864 0756 01       		.byte	0x1
 1865 0757 73       		.byte	0x73
 1866 0758 BC060000 		.4byte	0x6bc
 1867 075c 2E000000 		.4byte	.LLST1
 1868 0760 21       		.uleb128 0x21
 1869 0761 93010000 		.4byte	.LASF116
 1870 0765 8D070000 		.4byte	0x78d
 1871 0769 1C       		.uleb128 0x1c
 1872 076a 14000000 		.4byte	.LVL4
 1873 076e 8C090000 		.4byte	0x98c
 1874 0772 1D       		.uleb128 0x1d
 1875 0773 01       		.uleb128 0x1
 1876 0774 50       		.byte	0x50
 1877 0775 05       		.uleb128 0x5
ARM GAS  /tmp/ccuCDCR2.s 			page 64


 1878 0776 F3       		.byte	0xf3
 1879 0777 01       		.uleb128 0x1
 1880 0778 50       		.byte	0x50
 1881 0779 23       		.byte	0x23
 1882 077a 10       		.uleb128 0x10
 1883 077b 00       		.byte	0
 1884 077c 00       		.byte	0
 1885 077d 15       		.uleb128 0x15
 1886 077e ED050000 		.4byte	0x5ed
 1887 0782 8D070000 		.4byte	0x78d
 1888 0786 16       		.uleb128 0x16
 1889 0787 3A040000 		.4byte	0x43a
 1890 078b 10       		.byte	0x10
 1891 078c 00       		.byte	0
 1892 078d 13       		.uleb128 0x13
 1893 078e 7D070000 		.4byte	0x77d
 1894 0792 22       		.uleb128 0x22
 1895 0793 E6030000 		.4byte	.LASF118
 1896 0797 01       		.byte	0x1
 1897 0798 93       		.byte	0x93
 1898 0799 04030000 		.4byte	0x304
 1899 079d 00000000 		.4byte	.LFB243
 1900 07a1 8C000000 		.4byte	.LFE243-.LFB243
 1901 07a5 01       		.uleb128 0x1
 1902 07a6 9C       		.byte	0x9c
 1903 07a7 3C080000 		.4byte	0x83c
 1904 07ab 1E       		.uleb128 0x1e
 1905 07ac AD000000 		.4byte	.LASF114
 1906 07b0 01       		.byte	0x1
 1907 07b1 93       		.byte	0x93
 1908 07b2 C2060000 		.4byte	0x6c2
 1909 07b6 7D000000 		.4byte	.LLST4
 1910 07ba 1E       		.uleb128 0x1e
 1911 07bb 10060000 		.4byte	.LASF111
 1912 07bf 01       		.byte	0x1
 1913 07c0 93       		.byte	0x93
 1914 07c1 2C000000 		.4byte	0x2c
 1915 07c5 9B000000 		.4byte	.LLST5
 1916 07c9 20       		.uleb128 0x20
 1917 07ca 717000   		.ascii	"qp\000"
 1918 07cd 01       		.byte	0x1
 1919 07ce 94       		.byte	0x94
 1920 07cf BC060000 		.4byte	0x6bc
 1921 07d3 C6000000 		.4byte	.LLST6
 1922 07d7 20       		.uleb128 0x20
 1923 07d8 687000   		.ascii	"hp\000"
 1924 07db 01       		.byte	0x1
 1925 07dc 94       		.byte	0x94
 1926 07dd BC060000 		.4byte	0x6bc
 1927 07e1 EF000000 		.4byte	.LLST7
 1928 07e5 20       		.uleb128 0x20
 1929 07e6 667000   		.ascii	"fp\000"
 1930 07e9 01       		.byte	0x1
 1931 07ea 94       		.byte	0x94
 1932 07eb BC060000 		.4byte	0x6bc
 1933 07ef 48010000 		.4byte	.LLST8
 1934 07f3 23       		.uleb128 0x23
ARM GAS  /tmp/ccuCDCR2.s 			page 65


 1935 07f4 1E000000 		.4byte	.LVL10
 1936 07f8 9D090000 		.4byte	0x99d
 1937 07fc 07080000 		.4byte	0x807
 1938 0800 1D       		.uleb128 0x1d
 1939 0801 01       		.uleb128 0x1
 1940 0802 50       		.byte	0x50
 1941 0803 02       		.uleb128 0x2
 1942 0804 77       		.byte	0x77
 1943 0805 00       		.sleb128 0
 1944 0806 00       		.byte	0
 1945 0807 23       		.uleb128 0x23
 1946 0808 34000000 		.4byte	.LVL14
 1947 080c AE090000 		.4byte	0x9ae
 1948 0810 1B080000 		.4byte	0x81b
 1949 0814 1D       		.uleb128 0x1d
 1950 0815 01       		.uleb128 0x1
 1951 0816 50       		.byte	0x50
 1952 0817 02       		.uleb128 0x2
 1953 0818 77       		.byte	0x77
 1954 0819 00       		.sleb128 0
 1955 081a 00       		.byte	0
 1956 081b 24       		.uleb128 0x24
 1957 081c 3E000000 		.4byte	.LVL15
 1958 0820 2B080000 		.4byte	0x82b
 1959 0824 1D       		.uleb128 0x1d
 1960 0825 01       		.uleb128 0x1
 1961 0826 50       		.byte	0x50
 1962 0827 02       		.uleb128 0x2
 1963 0828 75       		.byte	0x75
 1964 0829 08       		.sleb128 8
 1965 082a 00       		.byte	0
 1966 082b 25       		.uleb128 0x25
 1967 082c 64000000 		.4byte	.LVL20
 1968 0830 AE090000 		.4byte	0x9ae
 1969 0834 1D       		.uleb128 0x1d
 1970 0835 01       		.uleb128 0x1
 1971 0836 50       		.byte	0x50
 1972 0837 02       		.uleb128 0x2
 1973 0838 77       		.byte	0x77
 1974 0839 00       		.sleb128 0
 1975 083a 00       		.byte	0
 1976 083b 00       		.byte	0
 1977 083c 1B       		.uleb128 0x1b
 1978 083d FF000000 		.4byte	.LASF115
 1979 0841 01       		.byte	0x1
 1980 0842 D5       		.byte	0xd5
 1981 0843 00000000 		.4byte	.LFB244
 1982 0847 98000000 		.4byte	.LFE244-.LFB244
 1983 084b 01       		.uleb128 0x1
 1984 084c 9C       		.byte	0x9c
 1985 084d B9080000 		.4byte	0x8b9
 1986 0851 1F       		.uleb128 0x1f
 1987 0852 7000     		.ascii	"p\000"
 1988 0854 01       		.byte	0x1
 1989 0855 D5       		.byte	0xd5
 1990 0856 04030000 		.4byte	0x304
 1991 085a 5B010000 		.4byte	.LLST9
ARM GAS  /tmp/ccuCDCR2.s 			page 66


 1992 085e 20       		.uleb128 0x20
 1993 085f 717000   		.ascii	"qp\000"
 1994 0862 01       		.byte	0x1
 1995 0863 D6       		.byte	0xd6
 1996 0864 BC060000 		.4byte	0x6bc
 1997 0868 A0010000 		.4byte	.LLST10
 1998 086c 20       		.uleb128 0x20
 1999 086d 687000   		.ascii	"hp\000"
 2000 0870 01       		.byte	0x1
 2001 0871 D6       		.byte	0xd6
 2002 0872 BC060000 		.4byte	0x6bc
 2003 0876 D4010000 		.4byte	.LLST11
 2004 087a 26       		.uleb128 0x26
 2005 087b AD000000 		.4byte	.LASF114
 2006 087f 01       		.byte	0x1
 2007 0880 D7       		.byte	0xd7
 2008 0881 C2060000 		.4byte	0x6c2
 2009 0885 12020000 		.4byte	.LLST12
 2010 0889 21       		.uleb128 0x21
 2011 088a 55020000 		.4byte	.LASF117
 2012 088e C9080000 		.4byte	0x8c9
 2013 0892 23       		.uleb128 0x23
 2014 0893 18000000 		.4byte	.LVL29
 2015 0897 9D090000 		.4byte	0x99d
 2016 089b A6080000 		.4byte	0x8a6
 2017 089f 1D       		.uleb128 0x1d
 2018 08a0 01       		.uleb128 0x1
 2019 08a1 50       		.byte	0x50
 2020 08a2 02       		.uleb128 0x2
 2021 08a3 77       		.byte	0x77
 2022 08a4 00       		.sleb128 0
 2023 08a5 00       		.byte	0
 2024 08a6 27       		.uleb128 0x27
 2025 08a7 62000000 		.4byte	.LVL36
 2026 08ab AE090000 		.4byte	0x9ae
 2027 08af 27       		.uleb128 0x27
 2028 08b0 98000000 		.4byte	.LVL38
 2029 08b4 AE090000 		.4byte	0x9ae
 2030 08b8 00       		.byte	0
 2031 08b9 15       		.uleb128 0x15
 2032 08ba ED050000 		.4byte	0x5ed
 2033 08be C9080000 		.4byte	0x8c9
 2034 08c2 16       		.uleb128 0x16
 2035 08c3 3A040000 		.4byte	0x43a
 2036 08c7 0A       		.byte	0xa
 2037 08c8 00       		.byte	0
 2038 08c9 13       		.uleb128 0x13
 2039 08ca B9080000 		.4byte	0x8b9
 2040 08ce 28       		.uleb128 0x28
 2041 08cf 6D040000 		.4byte	.LASF119
 2042 08d3 01       		.byte	0x1
 2043 08d4 0B01     		.2byte	0x10b
 2044 08d6 2C000000 		.4byte	0x2c
 2045 08da 00000000 		.4byte	.LFB245
 2046 08de 40000000 		.4byte	.LFE245-.LFB245
 2047 08e2 01       		.uleb128 0x1
 2048 08e3 9C       		.byte	0x9c
ARM GAS  /tmp/ccuCDCR2.s 			page 67


 2049 08e4 59090000 		.4byte	0x959
 2050 08e8 29       		.uleb128 0x29
 2051 08e9 AD000000 		.4byte	.LASF114
 2052 08ed 01       		.byte	0x1
 2053 08ee 0B01     		.2byte	0x10b
 2054 08f0 C2060000 		.4byte	0x6c2
 2055 08f4 72020000 		.4byte	.LLST13
 2056 08f8 29       		.uleb128 0x29
 2057 08f9 03060000 		.4byte	.LASF120
 2058 08fd 01       		.byte	0x1
 2059 08fe 0B01     		.2byte	0x10b
 2060 0900 59090000 		.4byte	0x959
 2061 0904 B5020000 		.4byte	.LLST14
 2062 0908 2A       		.uleb128 0x2a
 2063 0909 717000   		.ascii	"qp\000"
 2064 090c 01       		.byte	0x1
 2065 090d 0C01     		.2byte	0x10c
 2066 090f BC060000 		.4byte	0x6bc
 2067 0913 D3020000 		.4byte	.LLST15
 2068 0917 2A       		.uleb128 0x2a
 2069 0918 6E00     		.ascii	"n\000"
 2070 091a 01       		.byte	0x1
 2071 091b 0D01     		.2byte	0x10d
 2072 091d 2C000000 		.4byte	0x2c
 2073 0921 0F030000 		.4byte	.LLST16
 2074 0925 2A       		.uleb128 0x2a
 2075 0926 737A00   		.ascii	"sz\000"
 2076 0929 01       		.byte	0x1
 2077 092a 0D01     		.2byte	0x10d
 2078 092c 2C000000 		.4byte	0x2c
 2079 0930 52030000 		.4byte	.LLST17
 2080 0934 23       		.uleb128 0x23
 2081 0935 16000000 		.4byte	.LVL41
 2082 0939 9D090000 		.4byte	0x99d
 2083 093d 48090000 		.4byte	0x948
 2084 0941 1D       		.uleb128 0x1d
 2085 0942 01       		.uleb128 0x1
 2086 0943 50       		.byte	0x50
 2087 0944 02       		.uleb128 0x2
 2088 0945 76       		.byte	0x76
 2089 0946 00       		.sleb128 0
 2090 0947 00       		.byte	0
 2091 0948 25       		.uleb128 0x25
 2092 0949 32000000 		.4byte	.LVL46
 2093 094d AE090000 		.4byte	0x9ae
 2094 0951 1D       		.uleb128 0x1d
 2095 0952 01       		.uleb128 0x1
 2096 0953 50       		.byte	0x50
 2097 0954 02       		.uleb128 0x2
 2098 0955 76       		.byte	0x76
 2099 0956 00       		.sleb128 0
 2100 0957 00       		.byte	0
 2101 0958 00       		.byte	0
 2102 0959 09       		.uleb128 0x9
 2103 095a 04       		.byte	0x4
 2104 095b 2C000000 		.4byte	0x2c
 2105 095f 2B       		.uleb128 0x2b
ARM GAS  /tmp/ccuCDCR2.s 			page 68


 2106 0960 52040000 		.4byte	.LASF121
 2107 0964 01       		.byte	0x1
 2108 0965 4C       		.byte	0x4c
 2109 0966 40060000 		.4byte	0x640
 2110 096a 05       		.uleb128 0x5
 2111 096b 03       		.byte	0x3
 2112 096c 00000000 		.4byte	default_heap
 2113 0970 2C       		.uleb128 0x2c
 2114 0971 A0000000 		.4byte	.LASF122
 2115 0975 0F       		.byte	0xf
 2116 0976 FA06     		.2byte	0x6fa
 2117 0978 7C090000 		.4byte	0x97c
 2118 097c 14       		.uleb128 0x14
 2119 097d AD000000 		.4byte	0xad
 2120 0981 2D       		.uleb128 0x2d
 2121 0982 636800   		.ascii	"ch\000"
 2122 0985 07       		.byte	0x7
 2123 0986 0B02     		.2byte	0x20b
 2124 0988 D3030000 		.4byte	0x3d3
 2125 098c 2E       		.uleb128 0x2e
 2126 098d 73030000 		.4byte	.LASF123
 2127 0991 0C       		.byte	0xc
 2128 0992 67       		.byte	0x67
 2129 0993 9D090000 		.4byte	0x99d
 2130 0997 0C       		.uleb128 0xc
 2131 0998 1A060000 		.4byte	0x61a
 2132 099c 00       		.byte	0
 2133 099d 2E       		.uleb128 0x2e
 2134 099e 06030000 		.4byte	.LASF124
 2135 09a2 0C       		.byte	0xc
 2136 09a3 68       		.byte	0x68
 2137 09a4 AE090000 		.4byte	0x9ae
 2138 09a8 0C       		.uleb128 0xc
 2139 09a9 1A060000 		.4byte	0x61a
 2140 09ad 00       		.byte	0
 2141 09ae 2F       		.uleb128 0x2f
 2142 09af D1000000 		.4byte	.LASF129
 2143 09b3 0C       		.byte	0xc
 2144 09b4 6C       		.byte	0x6c
 2145 09b5 0C       		.uleb128 0xc
 2146 09b6 1A060000 		.4byte	0x61a
 2147 09ba 00       		.byte	0
 2148 09bb 00       		.byte	0
 2149              		.section	.debug_abbrev,"",%progbits
 2150              	.Ldebug_abbrev0:
 2151 0000 01       		.uleb128 0x1
 2152 0001 11       		.uleb128 0x11
 2153 0002 01       		.byte	0x1
 2154 0003 25       		.uleb128 0x25
 2155 0004 0E       		.uleb128 0xe
 2156 0005 13       		.uleb128 0x13
 2157 0006 0B       		.uleb128 0xb
 2158 0007 03       		.uleb128 0x3
 2159 0008 0E       		.uleb128 0xe
 2160 0009 1B       		.uleb128 0x1b
 2161 000a 0E       		.uleb128 0xe
 2162 000b 55       		.uleb128 0x55
ARM GAS  /tmp/ccuCDCR2.s 			page 69


 2163 000c 17       		.uleb128 0x17
 2164 000d 11       		.uleb128 0x11
 2165 000e 01       		.uleb128 0x1
 2166 000f 10       		.uleb128 0x10
 2167 0010 17       		.uleb128 0x17
 2168 0011 00       		.byte	0
 2169 0012 00       		.byte	0
 2170 0013 02       		.uleb128 0x2
 2171 0014 24       		.uleb128 0x24
 2172 0015 00       		.byte	0
 2173 0016 0B       		.uleb128 0xb
 2174 0017 0B       		.uleb128 0xb
 2175 0018 3E       		.uleb128 0x3e
 2176 0019 0B       		.uleb128 0xb
 2177 001a 03       		.uleb128 0x3
 2178 001b 08       		.uleb128 0x8
 2179 001c 00       		.byte	0
 2180 001d 00       		.byte	0
 2181 001e 03       		.uleb128 0x3
 2182 001f 16       		.uleb128 0x16
 2183 0020 00       		.byte	0
 2184 0021 03       		.uleb128 0x3
 2185 0022 0E       		.uleb128 0xe
 2186 0023 3A       		.uleb128 0x3a
 2187 0024 0B       		.uleb128 0xb
 2188 0025 3B       		.uleb128 0x3b
 2189 0026 0B       		.uleb128 0xb
 2190 0027 49       		.uleb128 0x49
 2191 0028 13       		.uleb128 0x13
 2192 0029 00       		.byte	0
 2193 002a 00       		.byte	0
 2194 002b 04       		.uleb128 0x4
 2195 002c 24       		.uleb128 0x24
 2196 002d 00       		.byte	0
 2197 002e 0B       		.uleb128 0xb
 2198 002f 0B       		.uleb128 0xb
 2199 0030 3E       		.uleb128 0x3e
 2200 0031 0B       		.uleb128 0xb
 2201 0032 03       		.uleb128 0x3
 2202 0033 0E       		.uleb128 0xe
 2203 0034 00       		.byte	0
 2204 0035 00       		.byte	0
 2205 0036 05       		.uleb128 0x5
 2206 0037 13       		.uleb128 0x13
 2207 0038 01       		.byte	0x1
 2208 0039 03       		.uleb128 0x3
 2209 003a 0E       		.uleb128 0xe
 2210 003b 0B       		.uleb128 0xb
 2211 003c 0B       		.uleb128 0xb
 2212 003d 3A       		.uleb128 0x3a
 2213 003e 0B       		.uleb128 0xb
 2214 003f 3B       		.uleb128 0x3b
 2215 0040 0B       		.uleb128 0xb
 2216 0041 01       		.uleb128 0x1
 2217 0042 13       		.uleb128 0x13
 2218 0043 00       		.byte	0
 2219 0044 00       		.byte	0
ARM GAS  /tmp/ccuCDCR2.s 			page 70


 2220 0045 06       		.uleb128 0x6
 2221 0046 0D       		.uleb128 0xd
 2222 0047 00       		.byte	0
 2223 0048 03       		.uleb128 0x3
 2224 0049 0E       		.uleb128 0xe
 2225 004a 3A       		.uleb128 0x3a
 2226 004b 0B       		.uleb128 0xb
 2227 004c 3B       		.uleb128 0x3b
 2228 004d 0B       		.uleb128 0xb
 2229 004e 49       		.uleb128 0x49
 2230 004f 13       		.uleb128 0x13
 2231 0050 38       		.uleb128 0x38
 2232 0051 0B       		.uleb128 0xb
 2233 0052 00       		.byte	0
 2234 0053 00       		.byte	0
 2235 0054 07       		.uleb128 0x7
 2236 0055 0D       		.uleb128 0xd
 2237 0056 00       		.byte	0
 2238 0057 03       		.uleb128 0x3
 2239 0058 08       		.uleb128 0x8
 2240 0059 3A       		.uleb128 0x3a
 2241 005a 0B       		.uleb128 0xb
 2242 005b 3B       		.uleb128 0x3b
 2243 005c 05       		.uleb128 0x5
 2244 005d 49       		.uleb128 0x49
 2245 005e 13       		.uleb128 0x13
 2246 005f 38       		.uleb128 0x38
 2247 0060 0B       		.uleb128 0xb
 2248 0061 00       		.byte	0
 2249 0062 00       		.byte	0
 2250 0063 08       		.uleb128 0x8
 2251 0064 0D       		.uleb128 0xd
 2252 0065 00       		.byte	0
 2253 0066 03       		.uleb128 0x3
 2254 0067 0E       		.uleb128 0xe
 2255 0068 3A       		.uleb128 0x3a
 2256 0069 0B       		.uleb128 0xb
 2257 006a 3B       		.uleb128 0x3b
 2258 006b 05       		.uleb128 0x5
 2259 006c 49       		.uleb128 0x49
 2260 006d 13       		.uleb128 0x13
 2261 006e 38       		.uleb128 0x38
 2262 006f 0B       		.uleb128 0xb
 2263 0070 00       		.byte	0
 2264 0071 00       		.byte	0
 2265 0072 09       		.uleb128 0x9
 2266 0073 0F       		.uleb128 0xf
 2267 0074 00       		.byte	0
 2268 0075 0B       		.uleb128 0xb
 2269 0076 0B       		.uleb128 0xb
 2270 0077 49       		.uleb128 0x49
 2271 0078 13       		.uleb128 0x13
 2272 0079 00       		.byte	0
 2273 007a 00       		.byte	0
 2274 007b 0A       		.uleb128 0xa
 2275 007c 13       		.uleb128 0x13
 2276 007d 01       		.byte	0x1
ARM GAS  /tmp/ccuCDCR2.s 			page 71


 2277 007e 03       		.uleb128 0x3
 2278 007f 0E       		.uleb128 0xe
 2279 0080 0B       		.uleb128 0xb
 2280 0081 0B       		.uleb128 0xb
 2281 0082 3A       		.uleb128 0x3a
 2282 0083 0B       		.uleb128 0xb
 2283 0084 3B       		.uleb128 0x3b
 2284 0085 05       		.uleb128 0x5
 2285 0086 01       		.uleb128 0x1
 2286 0087 13       		.uleb128 0x13
 2287 0088 00       		.byte	0
 2288 0089 00       		.byte	0
 2289 008a 0B       		.uleb128 0xb
 2290 008b 15       		.uleb128 0x15
 2291 008c 01       		.byte	0x1
 2292 008d 27       		.uleb128 0x27
 2293 008e 19       		.uleb128 0x19
 2294 008f 01       		.uleb128 0x1
 2295 0090 13       		.uleb128 0x13
 2296 0091 00       		.byte	0
 2297 0092 00       		.byte	0
 2298 0093 0C       		.uleb128 0xc
 2299 0094 05       		.uleb128 0x5
 2300 0095 00       		.byte	0
 2301 0096 49       		.uleb128 0x49
 2302 0097 13       		.uleb128 0x13
 2303 0098 00       		.byte	0
 2304 0099 00       		.byte	0
 2305 009a 0D       		.uleb128 0xd
 2306 009b 0F       		.uleb128 0xf
 2307 009c 00       		.byte	0
 2308 009d 0B       		.uleb128 0xb
 2309 009e 0B       		.uleb128 0xb
 2310 009f 00       		.byte	0
 2311 00a0 00       		.byte	0
 2312 00a1 0E       		.uleb128 0xe
 2313 00a2 13       		.uleb128 0x13
 2314 00a3 01       		.byte	0x1
 2315 00a4 03       		.uleb128 0x3
 2316 00a5 0E       		.uleb128 0xe
 2317 00a6 0B       		.uleb128 0xb
 2318 00a7 05       		.uleb128 0x5
 2319 00a8 3A       		.uleb128 0x3a
 2320 00a9 0B       		.uleb128 0xb
 2321 00aa 3B       		.uleb128 0x3b
 2322 00ab 05       		.uleb128 0x5
 2323 00ac 01       		.uleb128 0x1
 2324 00ad 13       		.uleb128 0x13
 2325 00ae 00       		.byte	0
 2326 00af 00       		.byte	0
 2327 00b0 0F       		.uleb128 0xf
 2328 00b1 0D       		.uleb128 0xd
 2329 00b2 00       		.byte	0
 2330 00b3 03       		.uleb128 0x3
 2331 00b4 08       		.uleb128 0x8
 2332 00b5 3A       		.uleb128 0x3a
 2333 00b6 0B       		.uleb128 0xb
ARM GAS  /tmp/ccuCDCR2.s 			page 72


 2334 00b7 3B       		.uleb128 0x3b
 2335 00b8 0B       		.uleb128 0xb
 2336 00b9 49       		.uleb128 0x49
 2337 00ba 13       		.uleb128 0x13
 2338 00bb 38       		.uleb128 0x38
 2339 00bc 0B       		.uleb128 0xb
 2340 00bd 00       		.byte	0
 2341 00be 00       		.byte	0
 2342 00bf 10       		.uleb128 0x10
 2343 00c0 13       		.uleb128 0x13
 2344 00c1 01       		.byte	0x1
 2345 00c2 0B       		.uleb128 0xb
 2346 00c3 0B       		.uleb128 0xb
 2347 00c4 3A       		.uleb128 0x3a
 2348 00c5 0B       		.uleb128 0xb
 2349 00c6 3B       		.uleb128 0x3b
 2350 00c7 0B       		.uleb128 0xb
 2351 00c8 01       		.uleb128 0x1
 2352 00c9 13       		.uleb128 0x13
 2353 00ca 00       		.byte	0
 2354 00cb 00       		.byte	0
 2355 00cc 11       		.uleb128 0x11
 2356 00cd 17       		.uleb128 0x17
 2357 00ce 01       		.byte	0x1
 2358 00cf 0B       		.uleb128 0xb
 2359 00d0 0B       		.uleb128 0xb
 2360 00d1 3A       		.uleb128 0x3a
 2361 00d2 0B       		.uleb128 0xb
 2362 00d3 3B       		.uleb128 0x3b
 2363 00d4 0B       		.uleb128 0xb
 2364 00d5 01       		.uleb128 0x1
 2365 00d6 13       		.uleb128 0x13
 2366 00d7 00       		.byte	0
 2367 00d8 00       		.byte	0
 2368 00d9 12       		.uleb128 0x12
 2369 00da 0D       		.uleb128 0xd
 2370 00db 00       		.byte	0
 2371 00dc 03       		.uleb128 0x3
 2372 00dd 0E       		.uleb128 0xe
 2373 00de 3A       		.uleb128 0x3a
 2374 00df 0B       		.uleb128 0xb
 2375 00e0 3B       		.uleb128 0x3b
 2376 00e1 05       		.uleb128 0x5
 2377 00e2 49       		.uleb128 0x49
 2378 00e3 13       		.uleb128 0x13
 2379 00e4 00       		.byte	0
 2380 00e5 00       		.byte	0
 2381 00e6 13       		.uleb128 0x13
 2382 00e7 26       		.uleb128 0x26
 2383 00e8 00       		.byte	0
 2384 00e9 49       		.uleb128 0x49
 2385 00ea 13       		.uleb128 0x13
 2386 00eb 00       		.byte	0
 2387 00ec 00       		.byte	0
 2388 00ed 14       		.uleb128 0x14
 2389 00ee 35       		.uleb128 0x35
 2390 00ef 00       		.byte	0
ARM GAS  /tmp/ccuCDCR2.s 			page 73


 2391 00f0 49       		.uleb128 0x49
 2392 00f1 13       		.uleb128 0x13
 2393 00f2 00       		.byte	0
 2394 00f3 00       		.byte	0
 2395 00f4 15       		.uleb128 0x15
 2396 00f5 01       		.uleb128 0x1
 2397 00f6 01       		.byte	0x1
 2398 00f7 49       		.uleb128 0x49
 2399 00f8 13       		.uleb128 0x13
 2400 00f9 01       		.uleb128 0x1
 2401 00fa 13       		.uleb128 0x13
 2402 00fb 00       		.byte	0
 2403 00fc 00       		.byte	0
 2404 00fd 16       		.uleb128 0x16
 2405 00fe 21       		.uleb128 0x21
 2406 00ff 00       		.byte	0
 2407 0100 49       		.uleb128 0x49
 2408 0101 13       		.uleb128 0x13
 2409 0102 2F       		.uleb128 0x2f
 2410 0103 0B       		.uleb128 0xb
 2411 0104 00       		.byte	0
 2412 0105 00       		.byte	0
 2413 0106 17       		.uleb128 0x17
 2414 0107 15       		.uleb128 0x15
 2415 0108 01       		.byte	0x1
 2416 0109 27       		.uleb128 0x27
 2417 010a 19       		.uleb128 0x19
 2418 010b 49       		.uleb128 0x49
 2419 010c 13       		.uleb128 0x13
 2420 010d 01       		.uleb128 0x1
 2421 010e 13       		.uleb128 0x13
 2422 010f 00       		.byte	0
 2423 0110 00       		.byte	0
 2424 0111 18       		.uleb128 0x18
 2425 0112 0D       		.uleb128 0xd
 2426 0113 00       		.byte	0
 2427 0114 03       		.uleb128 0x3
 2428 0115 0E       		.uleb128 0xe
 2429 0116 3A       		.uleb128 0x3a
 2430 0117 0B       		.uleb128 0xb
 2431 0118 3B       		.uleb128 0x3b
 2432 0119 0B       		.uleb128 0xb
 2433 011a 49       		.uleb128 0x49
 2434 011b 13       		.uleb128 0x13
 2435 011c 00       		.byte	0
 2436 011d 00       		.byte	0
 2437 011e 19       		.uleb128 0x19
 2438 011f 17       		.uleb128 0x17
 2439 0120 01       		.byte	0x1
 2440 0121 03       		.uleb128 0x3
 2441 0122 0E       		.uleb128 0xe
 2442 0123 0B       		.uleb128 0xb
 2443 0124 0B       		.uleb128 0xb
 2444 0125 3A       		.uleb128 0x3a
 2445 0126 0B       		.uleb128 0xb
 2446 0127 3B       		.uleb128 0x3b
 2447 0128 0B       		.uleb128 0xb
ARM GAS  /tmp/ccuCDCR2.s 			page 74


 2448 0129 01       		.uleb128 0x1
 2449 012a 13       		.uleb128 0x13
 2450 012b 00       		.byte	0
 2451 012c 00       		.byte	0
 2452 012d 1A       		.uleb128 0x1a
 2453 012e 0D       		.uleb128 0xd
 2454 012f 00       		.byte	0
 2455 0130 03       		.uleb128 0x3
 2456 0131 08       		.uleb128 0x8
 2457 0132 3A       		.uleb128 0x3a
 2458 0133 0B       		.uleb128 0xb
 2459 0134 3B       		.uleb128 0x3b
 2460 0135 0B       		.uleb128 0xb
 2461 0136 49       		.uleb128 0x49
 2462 0137 13       		.uleb128 0x13
 2463 0138 00       		.byte	0
 2464 0139 00       		.byte	0
 2465 013a 1B       		.uleb128 0x1b
 2466 013b 2E       		.uleb128 0x2e
 2467 013c 01       		.byte	0x1
 2468 013d 3F       		.uleb128 0x3f
 2469 013e 19       		.uleb128 0x19
 2470 013f 03       		.uleb128 0x3
 2471 0140 0E       		.uleb128 0xe
 2472 0141 3A       		.uleb128 0x3a
 2473 0142 0B       		.uleb128 0xb
 2474 0143 3B       		.uleb128 0x3b
 2475 0144 0B       		.uleb128 0xb
 2476 0145 27       		.uleb128 0x27
 2477 0146 19       		.uleb128 0x19
 2478 0147 11       		.uleb128 0x11
 2479 0148 01       		.uleb128 0x1
 2480 0149 12       		.uleb128 0x12
 2481 014a 06       		.uleb128 0x6
 2482 014b 40       		.uleb128 0x40
 2483 014c 18       		.uleb128 0x18
 2484 014d 9742     		.uleb128 0x2117
 2485 014f 19       		.uleb128 0x19
 2486 0150 01       		.uleb128 0x1
 2487 0151 13       		.uleb128 0x13
 2488 0152 00       		.byte	0
 2489 0153 00       		.byte	0
 2490 0154 1C       		.uleb128 0x1c
 2491 0155 898201   		.uleb128 0x4109
 2492 0158 01       		.byte	0x1
 2493 0159 11       		.uleb128 0x11
 2494 015a 01       		.uleb128 0x1
 2495 015b 9542     		.uleb128 0x2115
 2496 015d 19       		.uleb128 0x19
 2497 015e 31       		.uleb128 0x31
 2498 015f 13       		.uleb128 0x13
 2499 0160 00       		.byte	0
 2500 0161 00       		.byte	0
 2501 0162 1D       		.uleb128 0x1d
 2502 0163 8A8201   		.uleb128 0x410a
 2503 0166 00       		.byte	0
 2504 0167 02       		.uleb128 0x2
ARM GAS  /tmp/ccuCDCR2.s 			page 75


 2505 0168 18       		.uleb128 0x18
 2506 0169 9142     		.uleb128 0x2111
 2507 016b 18       		.uleb128 0x18
 2508 016c 00       		.byte	0
 2509 016d 00       		.byte	0
 2510 016e 1E       		.uleb128 0x1e
 2511 016f 05       		.uleb128 0x5
 2512 0170 00       		.byte	0
 2513 0171 03       		.uleb128 0x3
 2514 0172 0E       		.uleb128 0xe
 2515 0173 3A       		.uleb128 0x3a
 2516 0174 0B       		.uleb128 0xb
 2517 0175 3B       		.uleb128 0x3b
 2518 0176 0B       		.uleb128 0xb
 2519 0177 49       		.uleb128 0x49
 2520 0178 13       		.uleb128 0x13
 2521 0179 02       		.uleb128 0x2
 2522 017a 17       		.uleb128 0x17
 2523 017b 00       		.byte	0
 2524 017c 00       		.byte	0
 2525 017d 1F       		.uleb128 0x1f
 2526 017e 05       		.uleb128 0x5
 2527 017f 00       		.byte	0
 2528 0180 03       		.uleb128 0x3
 2529 0181 08       		.uleb128 0x8
 2530 0182 3A       		.uleb128 0x3a
 2531 0183 0B       		.uleb128 0xb
 2532 0184 3B       		.uleb128 0x3b
 2533 0185 0B       		.uleb128 0xb
 2534 0186 49       		.uleb128 0x49
 2535 0187 13       		.uleb128 0x13
 2536 0188 02       		.uleb128 0x2
 2537 0189 17       		.uleb128 0x17
 2538 018a 00       		.byte	0
 2539 018b 00       		.byte	0
 2540 018c 20       		.uleb128 0x20
 2541 018d 34       		.uleb128 0x34
 2542 018e 00       		.byte	0
 2543 018f 03       		.uleb128 0x3
 2544 0190 08       		.uleb128 0x8
 2545 0191 3A       		.uleb128 0x3a
 2546 0192 0B       		.uleb128 0xb
 2547 0193 3B       		.uleb128 0x3b
 2548 0194 0B       		.uleb128 0xb
 2549 0195 49       		.uleb128 0x49
 2550 0196 13       		.uleb128 0x13
 2551 0197 02       		.uleb128 0x2
 2552 0198 17       		.uleb128 0x17
 2553 0199 00       		.byte	0
 2554 019a 00       		.byte	0
 2555 019b 21       		.uleb128 0x21
 2556 019c 34       		.uleb128 0x34
 2557 019d 00       		.byte	0
 2558 019e 03       		.uleb128 0x3
 2559 019f 0E       		.uleb128 0xe
 2560 01a0 49       		.uleb128 0x49
 2561 01a1 13       		.uleb128 0x13
ARM GAS  /tmp/ccuCDCR2.s 			page 76


 2562 01a2 34       		.uleb128 0x34
 2563 01a3 19       		.uleb128 0x19
 2564 01a4 00       		.byte	0
 2565 01a5 00       		.byte	0
 2566 01a6 22       		.uleb128 0x22
 2567 01a7 2E       		.uleb128 0x2e
 2568 01a8 01       		.byte	0x1
 2569 01a9 3F       		.uleb128 0x3f
 2570 01aa 19       		.uleb128 0x19
 2571 01ab 03       		.uleb128 0x3
 2572 01ac 0E       		.uleb128 0xe
 2573 01ad 3A       		.uleb128 0x3a
 2574 01ae 0B       		.uleb128 0xb
 2575 01af 3B       		.uleb128 0x3b
 2576 01b0 0B       		.uleb128 0xb
 2577 01b1 27       		.uleb128 0x27
 2578 01b2 19       		.uleb128 0x19
 2579 01b3 49       		.uleb128 0x49
 2580 01b4 13       		.uleb128 0x13
 2581 01b5 11       		.uleb128 0x11
 2582 01b6 01       		.uleb128 0x1
 2583 01b7 12       		.uleb128 0x12
 2584 01b8 06       		.uleb128 0x6
 2585 01b9 40       		.uleb128 0x40
 2586 01ba 18       		.uleb128 0x18
 2587 01bb 9742     		.uleb128 0x2117
 2588 01bd 19       		.uleb128 0x19
 2589 01be 01       		.uleb128 0x1
 2590 01bf 13       		.uleb128 0x13
 2591 01c0 00       		.byte	0
 2592 01c1 00       		.byte	0
 2593 01c2 23       		.uleb128 0x23
 2594 01c3 898201   		.uleb128 0x4109
 2595 01c6 01       		.byte	0x1
 2596 01c7 11       		.uleb128 0x11
 2597 01c8 01       		.uleb128 0x1
 2598 01c9 31       		.uleb128 0x31
 2599 01ca 13       		.uleb128 0x13
 2600 01cb 01       		.uleb128 0x1
 2601 01cc 13       		.uleb128 0x13
 2602 01cd 00       		.byte	0
 2603 01ce 00       		.byte	0
 2604 01cf 24       		.uleb128 0x24
 2605 01d0 898201   		.uleb128 0x4109
 2606 01d3 01       		.byte	0x1
 2607 01d4 11       		.uleb128 0x11
 2608 01d5 01       		.uleb128 0x1
 2609 01d6 01       		.uleb128 0x1
 2610 01d7 13       		.uleb128 0x13
 2611 01d8 00       		.byte	0
 2612 01d9 00       		.byte	0
 2613 01da 25       		.uleb128 0x25
 2614 01db 898201   		.uleb128 0x4109
 2615 01de 01       		.byte	0x1
 2616 01df 11       		.uleb128 0x11
 2617 01e0 01       		.uleb128 0x1
 2618 01e1 31       		.uleb128 0x31
ARM GAS  /tmp/ccuCDCR2.s 			page 77


 2619 01e2 13       		.uleb128 0x13
 2620 01e3 00       		.byte	0
 2621 01e4 00       		.byte	0
 2622 01e5 26       		.uleb128 0x26
 2623 01e6 34       		.uleb128 0x34
 2624 01e7 00       		.byte	0
 2625 01e8 03       		.uleb128 0x3
 2626 01e9 0E       		.uleb128 0xe
 2627 01ea 3A       		.uleb128 0x3a
 2628 01eb 0B       		.uleb128 0xb
 2629 01ec 3B       		.uleb128 0x3b
 2630 01ed 0B       		.uleb128 0xb
 2631 01ee 49       		.uleb128 0x49
 2632 01ef 13       		.uleb128 0x13
 2633 01f0 02       		.uleb128 0x2
 2634 01f1 17       		.uleb128 0x17
 2635 01f2 00       		.byte	0
 2636 01f3 00       		.byte	0
 2637 01f4 27       		.uleb128 0x27
 2638 01f5 898201   		.uleb128 0x4109
 2639 01f8 00       		.byte	0
 2640 01f9 11       		.uleb128 0x11
 2641 01fa 01       		.uleb128 0x1
 2642 01fb 9542     		.uleb128 0x2115
 2643 01fd 19       		.uleb128 0x19
 2644 01fe 31       		.uleb128 0x31
 2645 01ff 13       		.uleb128 0x13
 2646 0200 00       		.byte	0
 2647 0201 00       		.byte	0
 2648 0202 28       		.uleb128 0x28
 2649 0203 2E       		.uleb128 0x2e
 2650 0204 01       		.byte	0x1
 2651 0205 3F       		.uleb128 0x3f
 2652 0206 19       		.uleb128 0x19
 2653 0207 03       		.uleb128 0x3
 2654 0208 0E       		.uleb128 0xe
 2655 0209 3A       		.uleb128 0x3a
 2656 020a 0B       		.uleb128 0xb
 2657 020b 3B       		.uleb128 0x3b
 2658 020c 05       		.uleb128 0x5
 2659 020d 27       		.uleb128 0x27
 2660 020e 19       		.uleb128 0x19
 2661 020f 49       		.uleb128 0x49
 2662 0210 13       		.uleb128 0x13
 2663 0211 11       		.uleb128 0x11
 2664 0212 01       		.uleb128 0x1
 2665 0213 12       		.uleb128 0x12
 2666 0214 06       		.uleb128 0x6
 2667 0215 40       		.uleb128 0x40
 2668 0216 18       		.uleb128 0x18
 2669 0217 9742     		.uleb128 0x2117
 2670 0219 19       		.uleb128 0x19
 2671 021a 01       		.uleb128 0x1
 2672 021b 13       		.uleb128 0x13
 2673 021c 00       		.byte	0
 2674 021d 00       		.byte	0
 2675 021e 29       		.uleb128 0x29
ARM GAS  /tmp/ccuCDCR2.s 			page 78


 2676 021f 05       		.uleb128 0x5
 2677 0220 00       		.byte	0
 2678 0221 03       		.uleb128 0x3
 2679 0222 0E       		.uleb128 0xe
 2680 0223 3A       		.uleb128 0x3a
 2681 0224 0B       		.uleb128 0xb
 2682 0225 3B       		.uleb128 0x3b
 2683 0226 05       		.uleb128 0x5
 2684 0227 49       		.uleb128 0x49
 2685 0228 13       		.uleb128 0x13
 2686 0229 02       		.uleb128 0x2
 2687 022a 17       		.uleb128 0x17
 2688 022b 00       		.byte	0
 2689 022c 00       		.byte	0
 2690 022d 2A       		.uleb128 0x2a
 2691 022e 34       		.uleb128 0x34
 2692 022f 00       		.byte	0
 2693 0230 03       		.uleb128 0x3
 2694 0231 08       		.uleb128 0x8
 2695 0232 3A       		.uleb128 0x3a
 2696 0233 0B       		.uleb128 0xb
 2697 0234 3B       		.uleb128 0x3b
 2698 0235 05       		.uleb128 0x5
 2699 0236 49       		.uleb128 0x49
 2700 0237 13       		.uleb128 0x13
 2701 0238 02       		.uleb128 0x2
 2702 0239 17       		.uleb128 0x17
 2703 023a 00       		.byte	0
 2704 023b 00       		.byte	0
 2705 023c 2B       		.uleb128 0x2b
 2706 023d 34       		.uleb128 0x34
 2707 023e 00       		.byte	0
 2708 023f 03       		.uleb128 0x3
 2709 0240 0E       		.uleb128 0xe
 2710 0241 3A       		.uleb128 0x3a
 2711 0242 0B       		.uleb128 0xb
 2712 0243 3B       		.uleb128 0x3b
 2713 0244 0B       		.uleb128 0xb
 2714 0245 49       		.uleb128 0x49
 2715 0246 13       		.uleb128 0x13
 2716 0247 02       		.uleb128 0x2
 2717 0248 18       		.uleb128 0x18
 2718 0249 00       		.byte	0
 2719 024a 00       		.byte	0
 2720 024b 2C       		.uleb128 0x2c
 2721 024c 34       		.uleb128 0x34
 2722 024d 00       		.byte	0
 2723 024e 03       		.uleb128 0x3
 2724 024f 0E       		.uleb128 0xe
 2725 0250 3A       		.uleb128 0x3a
 2726 0251 0B       		.uleb128 0xb
 2727 0252 3B       		.uleb128 0x3b
 2728 0253 05       		.uleb128 0x5
 2729 0254 49       		.uleb128 0x49
 2730 0255 13       		.uleb128 0x13
 2731 0256 3F       		.uleb128 0x3f
 2732 0257 19       		.uleb128 0x19
ARM GAS  /tmp/ccuCDCR2.s 			page 79


 2733 0258 3C       		.uleb128 0x3c
 2734 0259 19       		.uleb128 0x19
 2735 025a 00       		.byte	0
 2736 025b 00       		.byte	0
 2737 025c 2D       		.uleb128 0x2d
 2738 025d 34       		.uleb128 0x34
 2739 025e 00       		.byte	0
 2740 025f 03       		.uleb128 0x3
 2741 0260 08       		.uleb128 0x8
 2742 0261 3A       		.uleb128 0x3a
 2743 0262 0B       		.uleb128 0xb
 2744 0263 3B       		.uleb128 0x3b
 2745 0264 05       		.uleb128 0x5
 2746 0265 49       		.uleb128 0x49
 2747 0266 13       		.uleb128 0x13
 2748 0267 3F       		.uleb128 0x3f
 2749 0268 19       		.uleb128 0x19
 2750 0269 3C       		.uleb128 0x3c
 2751 026a 19       		.uleb128 0x19
 2752 026b 00       		.byte	0
 2753 026c 00       		.byte	0
 2754 026d 2E       		.uleb128 0x2e
 2755 026e 2E       		.uleb128 0x2e
 2756 026f 01       		.byte	0x1
 2757 0270 3F       		.uleb128 0x3f
 2758 0271 19       		.uleb128 0x19
 2759 0272 03       		.uleb128 0x3
 2760 0273 0E       		.uleb128 0xe
 2761 0274 3A       		.uleb128 0x3a
 2762 0275 0B       		.uleb128 0xb
 2763 0276 3B       		.uleb128 0x3b
 2764 0277 0B       		.uleb128 0xb
 2765 0278 27       		.uleb128 0x27
 2766 0279 19       		.uleb128 0x19
 2767 027a 3C       		.uleb128 0x3c
 2768 027b 19       		.uleb128 0x19
 2769 027c 01       		.uleb128 0x1
 2770 027d 13       		.uleb128 0x13
 2771 027e 00       		.byte	0
 2772 027f 00       		.byte	0
 2773 0280 2F       		.uleb128 0x2f
 2774 0281 2E       		.uleb128 0x2e
 2775 0282 01       		.byte	0x1
 2776 0283 3F       		.uleb128 0x3f
 2777 0284 19       		.uleb128 0x19
 2778 0285 03       		.uleb128 0x3
 2779 0286 0E       		.uleb128 0xe
 2780 0287 3A       		.uleb128 0x3a
 2781 0288 0B       		.uleb128 0xb
 2782 0289 3B       		.uleb128 0x3b
 2783 028a 0B       		.uleb128 0xb
 2784 028b 27       		.uleb128 0x27
 2785 028c 19       		.uleb128 0x19
 2786 028d 3C       		.uleb128 0x3c
 2787 028e 19       		.uleb128 0x19
 2788 028f 00       		.byte	0
 2789 0290 00       		.byte	0
ARM GAS  /tmp/ccuCDCR2.s 			page 80


 2790 0291 00       		.byte	0
 2791              		.section	.debug_loc,"",%progbits
 2792              	.Ldebug_loc0:
 2793              	.LLST0:
 2794 0000 00000000 		.4byte	.LVL1
 2795 0004 0C000000 		.4byte	.LVL3
 2796 0008 0100     		.2byte	0x1
 2797 000a 50       		.byte	0x50
 2798 000b 0C000000 		.4byte	.LVL3
 2799 000f 13000000 		.4byte	.LVL4-1
 2800 0013 0300     		.2byte	0x3
 2801 0015 70       		.byte	0x70
 2802 0016 70       		.sleb128 -16
 2803 0017 9F       		.byte	0x9f
 2804 0018 13000000 		.4byte	.LVL4-1
 2805 001c 14000000 		.4byte	.LFE242
 2806 0020 0400     		.2byte	0x4
 2807 0022 F3       		.byte	0xf3
 2808 0023 01       		.uleb128 0x1
 2809 0024 50       		.byte	0x50
 2810 0025 9F       		.byte	0x9f
 2811 0026 00000000 		.4byte	0
 2812 002a 00000000 		.4byte	0
 2813              	.LLST1:
 2814 002e 00000000 		.4byte	.LVL1
 2815 0032 13000000 		.4byte	.LVL4-1
 2816 0036 0100     		.2byte	0x1
 2817 0038 51       		.byte	0x51
 2818 0039 13000000 		.4byte	.LVL4-1
 2819 003d 14000000 		.4byte	.LFE242
 2820 0041 0400     		.2byte	0x4
 2821 0043 F3       		.byte	0xf3
 2822 0044 01       		.uleb128 0x1
 2823 0045 51       		.byte	0x51
 2824 0046 9F       		.byte	0x9f
 2825 0047 00000000 		.4byte	0
 2826 004b 00000000 		.4byte	0
 2827              	.LLST2:
 2828 004f 00000000 		.4byte	.LVL1
 2829 0053 04000000 		.4byte	.LVL2
 2830 0057 0100     		.2byte	0x1
 2831 0059 52       		.byte	0x52
 2832 005a 04000000 		.4byte	.LVL2
 2833 005e 13000000 		.4byte	.LVL4-1
 2834 0062 0300     		.2byte	0x3
 2835 0064 72       		.byte	0x72
 2836 0065 08       		.sleb128 8
 2837 0066 9F       		.byte	0x9f
 2838 0067 13000000 		.4byte	.LVL4-1
 2839 006b 14000000 		.4byte	.LFE242
 2840 006f 0400     		.2byte	0x4
 2841 0071 F3       		.byte	0xf3
 2842 0072 01       		.uleb128 0x1
 2843 0073 52       		.byte	0x52
 2844 0074 9F       		.byte	0x9f
 2845 0075 00000000 		.4byte	0
 2846 0079 00000000 		.4byte	0
ARM GAS  /tmp/ccuCDCR2.s 			page 81


 2847              	.LLST4:
 2848 007d 00000000 		.4byte	.LVL5
 2849 0081 0A000000 		.4byte	.LVL6
 2850 0085 0100     		.2byte	0x1
 2851 0087 50       		.byte	0x50
 2852 0088 0A000000 		.4byte	.LVL6
 2853 008c 8C000000 		.4byte	.LFE243
 2854 0090 0100     		.2byte	0x1
 2855 0092 56       		.byte	0x56
 2856 0093 00000000 		.4byte	0
 2857 0097 00000000 		.4byte	0
 2858              	.LLST5:
 2859 009b 00000000 		.4byte	.LVL5
 2860 009f 10000000 		.4byte	.LVL7
 2861 00a3 0100     		.2byte	0x1
 2862 00a5 51       		.byte	0x51
 2863 00a6 10000000 		.4byte	.LVL7
 2864 00aa 16000000 		.4byte	.LVL8
 2865 00ae 0300     		.2byte	0x3
 2866 00b0 71       		.byte	0x71
 2867 00b1 79       		.sleb128 -7
 2868 00b2 9F       		.byte	0x9f
 2869 00b3 16000000 		.4byte	.LVL8
 2870 00b7 8C000000 		.4byte	.LFE243
 2871 00bb 0100     		.2byte	0x1
 2872 00bd 55       		.byte	0x55
 2873 00be 00000000 		.4byte	0
 2874 00c2 00000000 		.4byte	0
 2875              	.LLST6:
 2876 00c6 1A000000 		.4byte	.LVL9
 2877 00ca 48000000 		.4byte	.LVL17
 2878 00ce 0100     		.2byte	0x1
 2879 00d0 54       		.byte	0x54
 2880 00d1 4C000000 		.4byte	.LVL18
 2881 00d5 5A000000 		.4byte	.LVL19
 2882 00d9 0100     		.2byte	0x1
 2883 00db 54       		.byte	0x54
 2884 00dc 68000000 		.4byte	.LVL21
 2885 00e0 86000000 		.4byte	.LVL24
 2886 00e4 0100     		.2byte	0x1
 2887 00e6 54       		.byte	0x54
 2888 00e7 00000000 		.4byte	0
 2889 00eb 00000000 		.4byte	0
 2890              	.LLST7:
 2891 00ef 20000000 		.4byte	.LVL11
 2892 00f3 28000000 		.4byte	.LVL12
 2893 00f7 0100     		.2byte	0x1
 2894 00f9 53       		.byte	0x53
 2895 00fa 2A000000 		.4byte	.LVL13
 2896 00fe 33000000 		.4byte	.LVL14-1
 2897 0102 0100     		.2byte	0x1
 2898 0104 53       		.byte	0x53
 2899 0105 3E000000 		.4byte	.LVL15
 2900 0109 44000000 		.4byte	.LVL16
 2901 010d 0100     		.2byte	0x1
 2902 010f 50       		.byte	0x50
 2903 0110 44000000 		.4byte	.LVL16
ARM GAS  /tmp/ccuCDCR2.s 			page 82


 2904 0114 48000000 		.4byte	.LVL17
 2905 0118 0300     		.2byte	0x3
 2906 011a 70       		.byte	0x70
 2907 011b 08       		.sleb128 8
 2908 011c 9F       		.byte	0x9f
 2909 011d 4C000000 		.4byte	.LVL18
 2910 0121 63000000 		.4byte	.LVL20-1
 2911 0125 0100     		.2byte	0x1
 2912 0127 53       		.byte	0x53
 2913 0128 63000000 		.4byte	.LVL20-1
 2914 012c 68000000 		.4byte	.LVL21
 2915 0130 0300     		.2byte	0x3
 2916 0132 74       		.byte	0x74
 2917 0133 78       		.sleb128 -8
 2918 0134 9F       		.byte	0x9f
 2919 0135 68000000 		.4byte	.LVL21
 2920 0139 84000000 		.4byte	.LVL23
 2921 013d 0100     		.2byte	0x1
 2922 013f 53       		.byte	0x53
 2923 0140 00000000 		.4byte	0
 2924 0144 00000000 		.4byte	0
 2925              	.LLST8:
 2926 0148 72000000 		.4byte	.LVL22
 2927 014c 84000000 		.4byte	.LVL23
 2928 0150 0100     		.2byte	0x1
 2929 0152 5E       		.byte	0x5e
 2930 0153 00000000 		.4byte	0
 2931 0157 00000000 		.4byte	0
 2932              	.LLST9:
 2933 015b 00000000 		.4byte	.LVL25
 2934 015f 14000000 		.4byte	.LVL28
 2935 0163 0100     		.2byte	0x1
 2936 0165 50       		.byte	0x50
 2937 0166 14000000 		.4byte	.LVL28
 2938 016a 5E000000 		.4byte	.LVL35
 2939 016e 0100     		.2byte	0x1
 2940 0170 56       		.byte	0x56
 2941 0171 5E000000 		.4byte	.LVL35
 2942 0175 62000000 		.4byte	.LVL36
 2943 0179 0400     		.2byte	0x4
 2944 017b F3       		.byte	0xf3
 2945 017c 01       		.uleb128 0x1
 2946 017d 50       		.byte	0x50
 2947 017e 9F       		.byte	0x9f
 2948 017f 62000000 		.4byte	.LVL36
 2949 0183 94000000 		.4byte	.LVL37
 2950 0187 0100     		.2byte	0x1
 2951 0189 56       		.byte	0x56
 2952 018a 94000000 		.4byte	.LVL37
 2953 018e 98000000 		.4byte	.LFE244
 2954 0192 0400     		.2byte	0x4
 2955 0194 F3       		.byte	0xf3
 2956 0195 01       		.uleb128 0x1
 2957 0196 50       		.byte	0x50
 2958 0197 9F       		.byte	0x9f
 2959 0198 00000000 		.4byte	0
 2960 019c 00000000 		.4byte	0
ARM GAS  /tmp/ccuCDCR2.s 			page 83


 2961              	.LLST10:
 2962 01a0 12000000 		.4byte	.LVL27
 2963 01a4 1A000000 		.4byte	.LVL30
 2964 01a8 0100     		.2byte	0x1
 2965 01aa 55       		.byte	0x55
 2966 01ab 1A000000 		.4byte	.LVL30
 2967 01af 32000000 		.4byte	.LVL32
 2968 01b3 0100     		.2byte	0x1
 2969 01b5 53       		.byte	0x53
 2970 01b6 34000000 		.4byte	.LVL33
 2971 01ba 5E000000 		.4byte	.LVL35
 2972 01be 0100     		.2byte	0x1
 2973 01c0 53       		.byte	0x53
 2974 01c1 62000000 		.4byte	.LVL36
 2975 01c5 94000000 		.4byte	.LVL37
 2976 01c9 0100     		.2byte	0x1
 2977 01cb 53       		.byte	0x53
 2978 01cc 00000000 		.4byte	0
 2979 01d0 00000000 		.4byte	0
 2980              	.LLST11:
 2981 01d4 10000000 		.4byte	.LVL26
 2982 01d8 5E000000 		.4byte	.LVL35
 2983 01dc 0100     		.2byte	0x1
 2984 01de 54       		.byte	0x54
 2985 01df 5E000000 		.4byte	.LVL35
 2986 01e3 62000000 		.4byte	.LVL36
 2987 01e7 0600     		.2byte	0x6
 2988 01e9 F3       		.byte	0xf3
 2989 01ea 01       		.uleb128 0x1
 2990 01eb 50       		.byte	0x50
 2991 01ec 38       		.byte	0x38
 2992 01ed 1C       		.byte	0x1c
 2993 01ee 9F       		.byte	0x9f
 2994 01ef 62000000 		.4byte	.LVL36
 2995 01f3 94000000 		.4byte	.LVL37
 2996 01f7 0100     		.2byte	0x1
 2997 01f9 54       		.byte	0x54
 2998 01fa 94000000 		.4byte	.LVL37
 2999 01fe 98000000 		.4byte	.LFE244
 3000 0202 0600     		.2byte	0x6
 3001 0204 F3       		.byte	0xf3
 3002 0205 01       		.uleb128 0x1
 3003 0206 50       		.byte	0x50
 3004 0207 38       		.byte	0x38
 3005 0208 1C       		.byte	0x1c
 3006 0209 9F       		.byte	0x9f
 3007 020a 00000000 		.4byte	0
 3008 020e 00000000 		.4byte	0
 3009              	.LLST12:
 3010 0212 10000000 		.4byte	.LVL26
 3011 0216 12000000 		.4byte	.LVL27
 3012 021a 0100     		.2byte	0x1
 3013 021c 55       		.byte	0x55
 3014 021d 12000000 		.4byte	.LVL27
 3015 0221 17000000 		.4byte	.LVL29-1
 3016 0225 0200     		.2byte	0x2
 3017 0227 74       		.byte	0x74
ARM GAS  /tmp/ccuCDCR2.s 			page 84


 3018 0228 00       		.sleb128 0
 3019 0229 17000000 		.4byte	.LVL29-1
 3020 022d 46000000 		.4byte	.LVL34
 3021 0231 0300     		.2byte	0x3
 3022 0233 75       		.byte	0x75
 3023 0234 78       		.sleb128 -8
 3024 0235 9F       		.byte	0x9f
 3025 0236 46000000 		.4byte	.LVL34
 3026 023a 5E000000 		.4byte	.LVL35
 3027 023e 0300     		.2byte	0x3
 3028 0240 77       		.byte	0x77
 3029 0241 70       		.sleb128 -16
 3030 0242 9F       		.byte	0x9f
 3031 0243 5E000000 		.4byte	.LVL35
 3032 0247 61000000 		.4byte	.LVL36-1
 3033 024b 0300     		.2byte	0x3
 3034 024d 70       		.byte	0x70
 3035 024e 70       		.sleb128 -16
 3036 024f 9F       		.byte	0x9f
 3037 0250 62000000 		.4byte	.LVL36
 3038 0254 94000000 		.4byte	.LVL37
 3039 0258 0300     		.2byte	0x3
 3040 025a 77       		.byte	0x77
 3041 025b 70       		.sleb128 -16
 3042 025c 9F       		.byte	0x9f
 3043 025d 94000000 		.4byte	.LVL37
 3044 0261 97000000 		.4byte	.LVL38-1
 3045 0265 0300     		.2byte	0x3
 3046 0267 70       		.byte	0x70
 3047 0268 70       		.sleb128 -16
 3048 0269 9F       		.byte	0x9f
 3049 026a 00000000 		.4byte	0
 3050 026e 00000000 		.4byte	0
 3051              	.LLST13:
 3052 0272 00000000 		.4byte	.LVL39
 3053 0276 0A000000 		.4byte	.LVL40
 3054 027a 0100     		.2byte	0x1
 3055 027c 50       		.byte	0x50
 3056 027d 0A000000 		.4byte	.LVL40
 3057 0281 1E000000 		.4byte	.LVL42
 3058 0285 0100     		.2byte	0x1
 3059 0287 54       		.byte	0x54
 3060 0288 1E000000 		.4byte	.LVL42
 3061 028c 36000000 		.4byte	.LVL47
 3062 0290 0300     		.2byte	0x3
 3063 0292 76       		.byte	0x76
 3064 0293 70       		.sleb128 -16
 3065 0294 9F       		.byte	0x9f
 3066 0295 36000000 		.4byte	.LVL47
 3067 0299 3A000000 		.4byte	.LVL48
 3068 029d 0100     		.2byte	0x1
 3069 029f 54       		.byte	0x54
 3070 02a0 3A000000 		.4byte	.LVL48
 3071 02a4 40000000 		.4byte	.LFE245
 3072 02a8 0300     		.2byte	0x3
 3073 02aa 76       		.byte	0x76
 3074 02ab 70       		.sleb128 -16
ARM GAS  /tmp/ccuCDCR2.s 			page 85


 3075 02ac 9F       		.byte	0x9f
 3076 02ad 00000000 		.4byte	0
 3077 02b1 00000000 		.4byte	0
 3078              	.LLST14:
 3079 02b5 00000000 		.4byte	.LVL39
 3080 02b9 15000000 		.4byte	.LVL41-1
 3081 02bd 0100     		.2byte	0x1
 3082 02bf 51       		.byte	0x51
 3083 02c0 15000000 		.4byte	.LVL41-1
 3084 02c4 40000000 		.4byte	.LFE245
 3085 02c8 0100     		.2byte	0x1
 3086 02ca 57       		.byte	0x57
 3087 02cb 00000000 		.4byte	0
 3088 02cf 00000000 		.4byte	0
 3089              	.LLST15:
 3090 02d3 16000000 		.4byte	.LVL41
 3091 02d7 1E000000 		.4byte	.LVL42
 3092 02db 0300     		.2byte	0x3
 3093 02dd 74       		.byte	0x74
 3094 02de 08       		.sleb128 8
 3095 02df 9F       		.byte	0x9f
 3096 02e0 1E000000 		.4byte	.LVL42
 3097 02e4 24000000 		.4byte	.LVL44
 3098 02e8 0300     		.2byte	0x3
 3099 02ea 76       		.byte	0x76
 3100 02eb 78       		.sleb128 -8
 3101 02ec 9F       		.byte	0x9f
 3102 02ed 36000000 		.4byte	.LVL47
 3103 02f1 3A000000 		.4byte	.LVL48
 3104 02f5 0300     		.2byte	0x3
 3105 02f7 74       		.byte	0x74
 3106 02f8 08       		.sleb128 8
 3107 02f9 9F       		.byte	0x9f
 3108 02fa 3A000000 		.4byte	.LVL48
 3109 02fe 40000000 		.4byte	.LFE245
 3110 0302 0300     		.2byte	0x3
 3111 0304 76       		.byte	0x76
 3112 0305 78       		.sleb128 -8
 3113 0306 9F       		.byte	0x9f
 3114 0307 00000000 		.4byte	0
 3115 030b 00000000 		.4byte	0
 3116              	.LLST16:
 3117 030f 16000000 		.4byte	.LVL41
 3118 0313 1E000000 		.4byte	.LVL42
 3119 0317 0200     		.2byte	0x2
 3120 0319 30       		.byte	0x30
 3121 031a 9F       		.byte	0x9f
 3122 031b 1E000000 		.4byte	.LVL42
 3123 031f 22000000 		.4byte	.LVL43
 3124 0323 0100     		.2byte	0x1
 3125 0325 54       		.byte	0x54
 3126 0326 22000000 		.4byte	.LVL43
 3127 032a 24000000 		.4byte	.LVL44
 3128 032e 0300     		.2byte	0x3
 3129 0330 74       		.byte	0x74
 3130 0331 7F       		.sleb128 -1
 3131 0332 9F       		.byte	0x9f
ARM GAS  /tmp/ccuCDCR2.s 			page 86


 3132 0333 24000000 		.4byte	.LVL44
 3133 0337 28000000 		.4byte	.LVL45
 3134 033b 0100     		.2byte	0x1
 3135 033d 54       		.byte	0x54
 3136 033e 36000000 		.4byte	.LVL47
 3137 0342 40000000 		.4byte	.LFE245
 3138 0346 0200     		.2byte	0x2
 3139 0348 30       		.byte	0x30
 3140 0349 9F       		.byte	0x9f
 3141 034a 00000000 		.4byte	0
 3142 034e 00000000 		.4byte	0
 3143              	.LLST17:
 3144 0352 16000000 		.4byte	.LVL41
 3145 0356 1E000000 		.4byte	.LVL42
 3146 035a 0200     		.2byte	0x2
 3147 035c 30       		.byte	0x30
 3148 035d 9F       		.byte	0x9f
 3149 035e 1E000000 		.4byte	.LVL42
 3150 0362 28000000 		.4byte	.LVL45
 3151 0366 0100     		.2byte	0x1
 3152 0368 52       		.byte	0x52
 3153 0369 36000000 		.4byte	.LVL47
 3154 036d 40000000 		.4byte	.LFE245
 3155 0371 0200     		.2byte	0x2
 3156 0373 30       		.byte	0x30
 3157 0374 9F       		.byte	0x9f
 3158 0375 00000000 		.4byte	0
 3159 0379 00000000 		.4byte	0
 3160              		.section	.debug_aranges,"",%progbits
 3161 0000 3C000000 		.4byte	0x3c
 3162 0004 0200     		.2byte	0x2
 3163 0006 00000000 		.4byte	.Ldebug_info0
 3164 000a 04       		.byte	0x4
 3165 000b 00       		.byte	0
 3166 000c 0000     		.2byte	0
 3167 000e 0000     		.2byte	0
 3168 0010 00000000 		.4byte	.LFB241
 3169 0014 1C000000 		.4byte	.LFE241-.LFB241
 3170 0018 00000000 		.4byte	.LFB242
 3171 001c 14000000 		.4byte	.LFE242-.LFB242
 3172 0020 00000000 		.4byte	.LFB243
 3173 0024 8C000000 		.4byte	.LFE243-.LFB243
 3174 0028 00000000 		.4byte	.LFB244
 3175 002c 98000000 		.4byte	.LFE244-.LFB244
 3176 0030 00000000 		.4byte	.LFB245
 3177 0034 40000000 		.4byte	.LFE245-.LFB245
 3178 0038 00000000 		.4byte	0
 3179 003c 00000000 		.4byte	0
 3180              		.section	.debug_ranges,"",%progbits
 3181              	.Ldebug_ranges0:
 3182 0000 00000000 		.4byte	.LFB241
 3183 0004 1C000000 		.4byte	.LFE241
 3184 0008 00000000 		.4byte	.LFB242
 3185 000c 14000000 		.4byte	.LFE242
 3186 0010 00000000 		.4byte	.LFB243
 3187 0014 8C000000 		.4byte	.LFE243
 3188 0018 00000000 		.4byte	.LFB244
ARM GAS  /tmp/ccuCDCR2.s 			page 87


 3189 001c 98000000 		.4byte	.LFE244
 3190 0020 00000000 		.4byte	.LFB245
 3191 0024 40000000 		.4byte	.LFE245
 3192 0028 00000000 		.4byte	0
 3193 002c 00000000 		.4byte	0
 3194              		.section	.debug_line,"",%progbits
 3195              	.Ldebug_line0:
 3196 0000 A9030000 		.section	.debug_str,"MS",%progbits,1
 3196      0200C502 
 3196      00000201 
 3196      FB0E0D00 
 3196      01010101 
 3197              	.LASF50:
 3198 0000 72656164 		.ascii	"ready_list_t\000"
 3198      795F6C69 
 3198      73745F74 
 3198      00
 3199              	.LASF2:
 3200 000d 73697A65 		.ascii	"size_t\000"
 3200      5F7400
 3201              	.LASF108:
 3202 0014 6E657874 		.ascii	"next\000"
 3202      00
 3203              	.LASF85:
 3204 0019 7264796D 		.ascii	"rdymsg\000"
 3204      736700
 3205              	.LASF17:
 3206 0020 75696E74 		.ascii	"uint64_t\000"
 3206      36345F74 
 3206      00
 3207              	.LASF3:
 3208 0029 5F5F7569 		.ascii	"__uint8_t\000"
 3208      6E74385F 
 3208      7400
 3209              	.LASF82:
 3210 0033 706F7274 		.ascii	"port_intctx\000"
 3210      5F696E74 
 3210      63747800 
 3211              	.LASF69:
 3212 003f 73797374 		.ascii	"system_debug_t\000"
 3212      656D5F64 
 3212      65627567 
 3212      5F7400
 3213              	.LASF102:
 3214 004e 6D656D67 		.ascii	"memgetfunc_t\000"
 3214      65746675 
 3214      6E635F74 
 3214      00
 3215              	.LASF13:
 3216 005b 6C6F6E67 		.ascii	"long long unsigned int\000"
 3216      206C6F6E 
 3216      6720756E 
 3216      7369676E 
 3216      65642069 
 3217              	.LASF86:
 3218 0072 65786974 		.ascii	"exitcode\000"
 3218      636F6465 
ARM GAS  /tmp/ccuCDCR2.s 			page 88


 3218      00
 3219              	.LASF106:
 3220 007b 685F6672 		.ascii	"h_free\000"
 3220      656500
 3221              	.LASF89:
 3222 0082 73656E74 		.ascii	"sentmsg\000"
 3222      6D736700 
 3223              	.LASF66:
 3224 008a 76697274 		.ascii	"virtual_timers_list_t\000"
 3224      75616C5F 
 3224      74696D65 
 3224      72735F6C 
 3224      6973745F 
 3225              	.LASF122:
 3226 00a0 49544D5F 		.ascii	"ITM_RxBuffer\000"
 3226      52784275 
 3226      66666572 
 3226      00
 3227              	.LASF114:
 3228 00ad 68656170 		.ascii	"heapp\000"
 3228      7000
 3229              	.LASF110:
 3230 00b3 616C6967 		.ascii	"align\000"
 3230      6E00
 3231              	.LASF49:
 3232 00b9 63685F74 		.ascii	"ch_threads_queue\000"
 3232      68726561 
 3232      64735F71 
 3232      75657565 
 3232      00
 3233              	.LASF30:
 3234 00ca 705F7072 		.ascii	"p_prio\000"
 3234      696F00
 3235              	.LASF129:
 3236 00d1 63684D74 		.ascii	"chMtxUnlock\000"
 3236      78556E6C 
 3236      6F636B00 
 3237              	.LASF1:
 3238 00dd 7369676E 		.ascii	"signed char\000"
 3238      65642063 
 3238      68617200 
 3239              	.LASF107:
 3240 00e9 685F6D74 		.ascii	"h_mtx\000"
 3240      7800
 3241              	.LASF43:
 3242 00ef 705F6D70 		.ascii	"p_mpool\000"
 3242      6F6F6C00 
 3243              	.LASF97:
 3244 00f7 6D5F7175 		.ascii	"m_queue\000"
 3244      65756500 
 3245              	.LASF115:
 3246 00ff 63684865 		.ascii	"chHeapFree\000"
 3246      61704672 
 3246      656500
 3247              	.LASF75:
 3248 010a 76746C69 		.ascii	"vtlist\000"
 3248      737400
ARM GAS  /tmp/ccuCDCR2.s 			page 89


 3249              	.LASF88:
 3250 0111 77747472 		.ascii	"wttrp\000"
 3250      7000
 3251              	.LASF73:
 3252 0117 63685F73 		.ascii	"ch_system\000"
 3252      79737465 
 3252      6D00
 3253              	.LASF8:
 3254 0121 6C6F6E67 		.ascii	"long int\000"
 3254      20696E74 
 3254      00
 3255              	.LASF127:
 3256 012a 2F6E6673 		.ascii	"/nfs/nfs4/home/jacoroge/p442-submissions/milestone2"
 3256      2F6E6673 
 3256      342F686F 
 3256      6D652F6A 
 3256      61636F72 
 3257 015d 00       		.ascii	"\000"
 3258              	.LASF20:
 3259 015e 74737461 		.ascii	"tstate_t\000"
 3259      74655F74 
 3259      00
 3260              	.LASF103:
 3261 0167 6D656D6F 		.ascii	"memory_heap_t\000"
 3261      72795F68 
 3261      6561705F 
 3261      7400
 3262              	.LASF11:
 3263 0175 6C6F6E67 		.ascii	"long long int\000"
 3263      206C6F6E 
 3263      6720696E 
 3263      7400
 3264              	.LASF32:
 3265 0183 705F6E65 		.ascii	"p_newer\000"
 3265      77657200 
 3266              	.LASF94:
 3267 018b 735F7175 		.ascii	"s_queue\000"
 3267      65756500 
 3268              	.LASF116:
 3269 0193 5F5F6675 		.ascii	"__func__.6402\000"
 3269      6E635F5F 
 3269      2E363430 
 3269      3200
 3270              	.LASF55:
 3271 01a1 725F6E65 		.ascii	"r_newer\000"
 3271      77657200 
 3272              	.LASF79:
 3273 01a9 72656761 		.ascii	"regarm_t\000"
 3273      726D5F74 
 3273      00
 3274              	.LASF62:
 3275 01b2 76745F70 		.ascii	"vt_prev\000"
 3275      72657600 
 3276              	.LASF101:
 3277 01ba 6D757465 		.ascii	"mutex_t\000"
 3277      785F7400 
 3278              	.LASF112:
ARM GAS  /tmp/ccuCDCR2.s 			page 90


 3279 01c2 5F686561 		.ascii	"_heap_init\000"
 3279      705F696E 
 3279      697400
 3280              	.LASF77:
 3281 01cd 69646C65 		.ascii	"idle_thread_wa\000"
 3281      5F746872 
 3281      6561645F 
 3281      776100
 3282              	.LASF126:
 3283 01dc 2E2E2F43 		.ascii	"../ChibiOS/os/rt/src/chheap.c\000"
 3283      68696269 
 3283      4F532F6F 
 3283      732F7274 
 3283      2F737263 
 3284              	.LASF25:
 3285 01fa 636E745F 		.ascii	"cnt_t\000"
 3285      7400
 3286              	.LASF0:
 3287 0200 756E7369 		.ascii	"unsigned int\000"
 3287      676E6564 
 3287      20696E74 
 3287      00
 3288              	.LASF61:
 3289 020d 76745F6E 		.ascii	"vt_next\000"
 3289      65787400 
 3290              	.LASF90:
 3291 0215 77747365 		.ascii	"wtsemp\000"
 3291      6D7000
 3292              	.LASF39:
 3293 021c 705F6D73 		.ascii	"p_msgqueue\000"
 3293      67717565 
 3293      756500
 3294              	.LASF95:
 3295 0227 735F636E 		.ascii	"s_cnt\000"
 3295      7400
 3296              	.LASF6:
 3297 022d 73686F72 		.ascii	"short unsigned int\000"
 3297      7420756E 
 3297      7369676E 
 3297      65642069 
 3297      6E7400
 3298              	.LASF46:
 3299 0240 63685F74 		.ascii	"ch_thread\000"
 3299      68726561 
 3299      6400
 3300              	.LASF76:
 3301 024a 6D61696E 		.ascii	"mainthread\000"
 3301      74687265 
 3301      616400
 3302              	.LASF117:
 3303 0255 5F5F6675 		.ascii	"__func__.6419\000"
 3303      6E635F5F 
 3303      2E363431 
 3303      3900
 3304              	.LASF23:
 3305 0263 6D73675F 		.ascii	"msg_t\000"
 3305      7400
ARM GAS  /tmp/ccuCDCR2.s 			page 91


 3306              	.LASF72:
 3307 0269 63685F73 		.ascii	"ch_system_t\000"
 3307      79737465 
 3307      6D5F7400 
 3308              	.LASF19:
 3309 0275 746D6F64 		.ascii	"tmode_t\000"
 3309      655F7400 
 3310              	.LASF51:
 3311 027d 63685F72 		.ascii	"ch_ready_list\000"
 3311      65616479 
 3311      5F6C6973 
 3311      7400
 3312              	.LASF24:
 3313 028b 6576656E 		.ascii	"eventmask_t\000"
 3313      746D6173 
 3313      6B5F7400 
 3314              	.LASF7:
 3315 0297 5F5F696E 		.ascii	"__int32_t\000"
 3315      7433325F 
 3315      7400
 3316              	.LASF80:
 3317 02a1 73746B61 		.ascii	"stkalign_t\000"
 3317      6C69676E 
 3317      5F7400
 3318              	.LASF113:
 3319 02ac 63684865 		.ascii	"chHeapObjectInit\000"
 3319      61704F62 
 3319      6A656374 
 3319      496E6974 
 3319      00
 3320              	.LASF38:
 3321 02bd 705F7761 		.ascii	"p_waiting\000"
 3321      6974696E 
 3321      6700
 3322              	.LASF78:
 3323 02c7 73697A65 		.ascii	"sizetype\000"
 3323      74797065 
 3323      00
 3324              	.LASF44:
 3325 02d0 74687265 		.ascii	"thread_reference_t\000"
 3325      61645F72 
 3325      65666572 
 3325      656E6365 
 3325      5F7400
 3326              	.LASF67:
 3327 02e3 63685F76 		.ascii	"ch_virtual_timers_list\000"
 3327      69727475 
 3327      616C5F74 
 3327      696D6572 
 3327      735F6C69 
 3328              	.LASF68:
 3329 02fa 76745F6C 		.ascii	"vt_lasttime\000"
 3329      61737474 
 3329      696D6500 
 3330              	.LASF124:
 3331 0306 63684D74 		.ascii	"chMtxLock\000"
 3331      784C6F63 
ARM GAS  /tmp/ccuCDCR2.s 			page 92


 3331      6B00
 3332              	.LASF33:
 3333 0310 705F6F6C 		.ascii	"p_older\000"
 3333      64657200 
 3334              	.LASF54:
 3335 0318 725F6374 		.ascii	"r_ctx\000"
 3335      7800
 3336              	.LASF84:
 3337 031e 746D5F63 		.ascii	"tm_calibration_t\000"
 3337      616C6962 
 3337      72617469 
 3337      6F6E5F74 
 3337      00
 3338              	.LASF57:
 3339 032f 725F6375 		.ascii	"r_current\000"
 3339      7272656E 
 3339      7400
 3340              	.LASF56:
 3341 0339 725F6F6C 		.ascii	"r_older\000"
 3341      64657200 
 3342              	.LASF12:
 3343 0341 5F5F7569 		.ascii	"__uint64_t\000"
 3343      6E743634 
 3343      5F7400
 3344              	.LASF21:
 3345 034c 74726566 		.ascii	"trefs_t\000"
 3345      735F7400 
 3346              	.LASF59:
 3347 0354 76697274 		.ascii	"virtual_timer_t\000"
 3347      75616C5F 
 3347      74696D65 
 3347      725F7400 
 3348              	.LASF29:
 3349 0364 705F7072 		.ascii	"p_prev\000"
 3349      657600
 3350              	.LASF22:
 3351 036b 74707269 		.ascii	"tprio_t\000"
 3351      6F5F7400 
 3352              	.LASF123:
 3353 0373 63684D74 		.ascii	"chMtxObjectInit\000"
 3353      784F626A 
 3353      65637449 
 3353      6E697400 
 3354              	.LASF70:
 3355 0383 63685F73 		.ascii	"ch_system_debug\000"
 3355      79737465 
 3355      6D5F6465 
 3355      62756700 
 3356              	.LASF15:
 3357 0393 696E7433 		.ascii	"int32_t\000"
 3357      325F7400 
 3358              	.LASF4:
 3359 039b 756E7369 		.ascii	"unsigned char\000"
 3359      676E6564 
 3359      20636861 
 3359      7200
 3360              	.LASF128:
ARM GAS  /tmp/ccuCDCR2.s 			page 93


 3361 03a9 68656170 		.ascii	"heap_header\000"
 3361      5F686561 
 3361      64657200 
 3362              	.LASF41:
 3363 03b5 705F6D74 		.ascii	"p_mtxlist\000"
 3363      786C6973 
 3363      7400
 3364              	.LASF5:
 3365 03bf 73686F72 		.ascii	"short int\000"
 3365      7420696E 
 3365      7400
 3366              	.LASF35:
 3367 03c9 705F7374 		.ascii	"p_state\000"
 3367      61746500 
 3368              	.LASF53:
 3369 03d1 725F7072 		.ascii	"r_prio\000"
 3369      696F00
 3370              	.LASF92:
 3371 03d8 65776D61 		.ascii	"ewmask\000"
 3371      736B00
 3372              	.LASF28:
 3373 03df 705F6E65 		.ascii	"p_next\000"
 3373      787400
 3374              	.LASF118:
 3375 03e6 63684865 		.ascii	"chHeapAlloc\000"
 3375      6170416C 
 3375      6C6F6300 
 3376              	.LASF93:
 3377 03f2 63685F73 		.ascii	"ch_semaphore\000"
 3377      656D6170 
 3377      686F7265 
 3377      00
 3378              	.LASF40:
 3379 03ff 705F6570 		.ascii	"p_epending\000"
 3379      656E6469 
 3379      6E6700
 3380              	.LASF16:
 3381 040a 75696E74 		.ascii	"uint32_t\000"
 3381      33325F74 
 3381      00
 3382              	.LASF91:
 3383 0413 77746D74 		.ascii	"wtmtxp\000"
 3383      787000
 3384              	.LASF52:
 3385 041a 725F7175 		.ascii	"r_queue\000"
 3385      65756500 
 3386              	.LASF63:
 3387 0422 76745F64 		.ascii	"vt_delta\000"
 3387      656C7461 
 3387      00
 3388              	.LASF47:
 3389 042b 63685F74 		.ascii	"ch_threads_list\000"
 3389      68726561 
 3389      64735F6C 
 3389      69737400 
 3390              	.LASF109:
 3391 043b 68656170 		.ascii	"heap\000"
ARM GAS  /tmp/ccuCDCR2.s 			page 94


 3391      00
 3392              	.LASF10:
 3393 0440 6C6F6E67 		.ascii	"long unsigned int\000"
 3393      20756E73 
 3393      69676E65 
 3393      6420696E 
 3393      7400
 3394              	.LASF121:
 3395 0452 64656661 		.ascii	"default_heap\000"
 3395      756C745F 
 3395      68656170 
 3395      00
 3396              	.LASF100:
 3397 045f 63686172 		.ascii	"char\000"
 3397      00
 3398              	.LASF27:
 3399 0464 74687265 		.ascii	"thread_t\000"
 3399      61645F74 
 3399      00
 3400              	.LASF119:
 3401 046d 63684865 		.ascii	"chHeapStatus\000"
 3401      61705374 
 3401      61747573 
 3401      00
 3402              	.LASF99:
 3403 047a 6D5F6E65 		.ascii	"m_next\000"
 3403      787400
 3404              	.LASF26:
 3405 0481 73797374 		.ascii	"systime_t\000"
 3405      696D655F 
 3405      7400
 3406              	.LASF42:
 3407 048b 705F7265 		.ascii	"p_realprio\000"
 3407      616C7072 
 3407      696F00
 3408              	.LASF58:
 3409 0496 76746675 		.ascii	"vtfunc_t\000"
 3409      6E635F74 
 3409      00
 3410              	.LASF9:
 3411 049f 5F5F7569 		.ascii	"__uint32_t\000"
 3411      6E743332 
 3411      5F7400
 3412              	.LASF71:
 3413 04aa 70616E69 		.ascii	"panic_msg\000"
 3413      635F6D73 
 3413      6700
 3414              	.LASF83:
 3415 04b4 6F666673 		.ascii	"offset\000"
 3415      657400
 3416              	.LASF81:
 3417 04bb 636F6E74 		.ascii	"context\000"
 3417      65787400 
 3418              	.LASF60:
 3419 04c3 63685F76 		.ascii	"ch_virtual_timer\000"
 3419      69727475 
 3419      616C5F74 
ARM GAS  /tmp/ccuCDCR2.s 			page 95


 3419      696D6572 
 3419      00
 3420              	.LASF18:
 3421 04d4 7274636E 		.ascii	"rtcnt_t\000"
 3421      745F7400 
 3422              	.LASF65:
 3423 04dc 76745F70 		.ascii	"vt_par\000"
 3423      617200
 3424              	.LASF48:
 3425 04e3 74687265 		.ascii	"threads_queue_t\000"
 3425      6164735F 
 3425      71756575 
 3425      655F7400 
 3426              	.LASF96:
 3427 04f3 63685F6D 		.ascii	"ch_mutex\000"
 3427      75746578 
 3427      00
 3428              	.LASF37:
 3429 04fc 705F7265 		.ascii	"p_refs\000"
 3429      667300
 3430              	.LASF74:
 3431 0503 726C6973 		.ascii	"rlist\000"
 3431      7400
 3432              	.LASF14:
 3433 0509 75696E74 		.ascii	"uint8_t\000"
 3433      385F7400 
 3434              	.LASF105:
 3435 0511 685F7072 		.ascii	"h_provider\000"
 3435      6F766964 
 3435      657200
 3436              	.LASF125:
 3437 051c 474E5520 		.ascii	"GNU C 4.8.4 20140526 (release) [ARM/embedded-4_8-br"
 3437      4320342E 
 3437      382E3420 
 3437      32303134 
 3437      30353236 
 3438 054f 616E6368 		.ascii	"anch revision 211358] -mcpu=cortex-m4 -mno-thumb-in"
 3438      20726576 
 3438      6973696F 
 3438      6E203231 
 3438      31333538 
 3439 0582 74657277 		.ascii	"terwork -mthumb -ggdb -O2 -fomit-frame-pointer -fal"
 3439      6F726B20 
 3439      2D6D7468 
 3439      756D6220 
 3439      2D676764 
 3440 05b5 69676E2D 		.ascii	"ign-functions=16 -ffunction-sections -fdata-section"
 3440      66756E63 
 3440      74696F6E 
 3440      733D3136 
 3440      202D6666 
 3441 05e8 73202D66 		.ascii	"s -fno-common -flto\000"
 3441      6E6F2D63 
 3441      6F6D6D6F 
 3441      6E202D66 
 3441      6C746F00 
 3442              	.LASF87:
ARM GAS  /tmp/ccuCDCR2.s 			page 96


 3443 05fc 77746F62 		.ascii	"wtobjp\000"
 3443      6A7000
 3444              	.LASF120:
 3445 0603 73697A65 		.ascii	"sizep\000"
 3445      7000
 3446              	.LASF34:
 3447 0609 705F6E61 		.ascii	"p_name\000"
 3447      6D6500
 3448              	.LASF111:
 3449 0610 73697A65 		.ascii	"size\000"
 3449      00
 3450              	.LASF45:
 3451 0615 74687265 		.ascii	"threads_list_t\000"
 3451      6164735F 
 3451      6C697374 
 3451      5F7400
 3452              	.LASF36:
 3453 0624 705F666C 		.ascii	"p_flags\000"
 3453      61677300 
 3454              	.LASF98:
 3455 062c 6D5F6F77 		.ascii	"m_owner\000"
 3455      6E657200 
 3456              	.LASF31:
 3457 0634 705F6374 		.ascii	"p_ctx\000"
 3457      7800
 3458              	.LASF64:
 3459 063a 76745F66 		.ascii	"vt_func\000"
 3459      756E6300 
 3460              	.LASF104:
 3461 0642 6D656D6F 		.ascii	"memory_heap\000"
 3461      72795F68 
 3461      65617000 
 3462              		.comm	__gnu_lto_v1,1,1
 3463              		.ident	"GCC: (GNU Tools for ARM Embedded Processors) 4.8.4 20140526 (release) [ARM/embedded-4_8-br
ARM GAS  /tmp/ccuCDCR2.s 			page 97


DEFINED SYMBOLS
                            *ABS*:00000000 chheap.c
     /tmp/ccuCDCR2.s:505    .text._heap_init:00000000 $t
     /tmp/ccuCDCR2.s:511    .text._heap_init:00000000 _heap_init
     /tmp/ccuCDCR2.s:536    .text._heap_init:00000014 $d
     /tmp/ccuCDCR2.s:542    .text.chHeapObjectInit:00000000 $t
     /tmp/ccuCDCR2.s:548    .text.chHeapObjectInit:00000000 chHeapObjectInit
     /tmp/ccuCDCR2.s:581    .text.chHeapAlloc:00000000 $t
     /tmp/ccuCDCR2.s:587    .text.chHeapAlloc:00000000 chHeapAlloc
     /tmp/ccuCDCR2.s:717    .text.chHeapAlloc:00000088 $d
     /tmp/ccuCDCR2.s:722    .text.chHeapFree:00000000 $t
     /tmp/ccuCDCR2.s:728    .text.chHeapFree:00000000 chHeapFree
     /tmp/ccuCDCR2.s:856    .text.chHeapStatus:00000000 $t
     /tmp/ccuCDCR2.s:862    .text.chHeapStatus:00000000 chHeapStatus
     /tmp/ccuCDCR2.s:936    .text.chHeapStatus:0000003c $d
     /tmp/ccuCDCR2.s:941    .bss.default_heap:00000000 $d
     /tmp/ccuCDCR2.s:945    .bss.default_heap:00000000 default_heap
                            *COM*:00000001 __gnu_lto_v1
                     .debug_frame:00000010 $d
     /tmp/ccuCDCR2.s:541    .text._heap_init:0000001c $t
     /tmp/ccuCDCR2.s:721    .text.chHeapAlloc:0000008c $t

UNDEFINED SYMBOLS
chMtxObjectInit
chCoreAlloc
chMtxLock
chMtxUnlock
