ARM GAS  /tmp/cc4YBHnC.s 			page 1


   1              		.syntax unified
   2              		.cpu cortex-m4
   3              		.fpu softvfp
   4              		.eabi_attribute 20, 1
   5              		.eabi_attribute 21, 1
   6              		.eabi_attribute 23, 3
   7              		.eabi_attribute 24, 1
   8              		.eabi_attribute 25, 1
   9              		.eabi_attribute 26, 1
  10              		.eabi_attribute 30, 2
  11              		.eabi_attribute 34, 1
  12              		.eabi_attribute 18, 4
  13              		.thumb
  14              		.file	"gpt.c"
  15              		.text
  16              	.Ltext0:
  17              		.section	.gnu.lto_.jmpfuncs.e7ac4ef78790529e,"",%progbits
  18 0000 789C758B 		.ascii	"x\234u\213\331\021\200P\010\0037\301[\013\264\005\033"
  18      D9118050 
  18      080337C1 
  18      5B0BB405 
  18      1B
  19 0011 785559A4 		.ascii	"xUY\244|\250\343\011C`6\301\230\257Z\367=\345H\016A"
  19      7CA8E309 
  19      436036C1 
  19      98AF5AF7 
  19      3DE5480E 
  20 0026 28A58A3A 		.ascii	"(\245\212:\234\204Y\213\210lT\240\011\347Ey;\355%^\035"
  20      9C84598B 
  20      886C54A0 
  20      09E74579 
  20      3BED255E 
  21 003b B07BC64F 		.ascii	"\260{\306O\247Or@3H\367\234\031\177_\331\000\215$\012"
  21      A74F7240 
  21      3348F79C 
  21      197F5FD9 
  21      008D240A 
  22 004f E5       		.ascii	"\345"
  23              		.text
  24              		.section	.gnu.lto_.inline.e7ac4ef78790529e,"",%progbits
  25 0000 789C7D90 		.ascii	"x\234}\220;\022\3020\014DW\362G\316g\010\234\2002]J"
  25      3B12C230 
  25      0C4457F2 
  25      47CE6708 
  25      9C80325D 
  26 0015 3AAEE073 		.ascii	":\256\340s\245\364\0218\022%G\240\314\021Pl\006<|\242"
  26      A5F41138 
  26      122547A0 
  26      CC11506C 
  26      063C7CA2 
  27 0029 C29ED9B7 		.ascii	"\302\236\331\267\273\243\021\203\361k\316T\376\036\260"
  27      BBA31183 
  27      F16BCE54 
  27      FE1EB0
  28 0038 3D6593BF 		.ascii	"=e\223\277\034\263\227\332\365\201\263*\363u@X\246\254"
  28      1CB397DA 
  28      F581B32A 
ARM GAS  /tmp/cc4YBHnC.s 			page 2


  28      F3754058 
  28      A6AC
  29 004a 339A834A 		.ascii	"3\232\203J~\231\336R\247\316\024\015\302^\211\233G\310"
  29      7E99DE52 
  29      A7CE140D 
  29      C25E899B 
  29      47C8
  30 005c 3CD6C422 		.ascii	"<\326\304\"\010\351\250b\344v*XK\355\352q\245\260\216"
  30      08E9A862 
  30      E4762A58 
  30      4BEDEA71 
  30      A5B08E
  31 006f 19DD8753 		.ascii	"\031\335\207SL\321C\006et\227o&\033\271\260\221k\376"
  31      4CD14306 
  31      6574976F 
  31      261BB9B0 
  31      916BFE
  32 0082 AED9C2EF 		.ascii	"\256\331\302\357>RO\322\225L}\207W\037\036\035\270\""
  32      3E524FD2 
  32      954C7D87 
  32      571F1E1D 
  32      B822
  33 0094 F2       		.ascii	"\362"
  34              		.text
  35              		.section	.gnu.lto_.pureconst.e7ac4ef78790529e,"",%progbits
  36 0000 789C6362 		.ascii	"x\234cb`b\220d\200\000\036\006\011F)&+f+\026+V+6)v+"
  36      60629064 
  36      80001E06 
  36      09462926 
  36      2B662B16 
  37 001b 0E294E2B 		.ascii	"\016)N+.)n)\000\037\210\002b"
  37      2E296E29 
  37      001F8802 
  37      62
  38              		.text
  39              		.section	.gnu.lto_gptInit.e7ac4ef78790529e,"",%progbits
  40 0000 789C6362 		.ascii	"x\234cb`b@\007\222@\\\011\304r@\314\310\314\300\310"
  40      60624007 
  40      92405C09 
  40      C47240CC 
  40      C8CCC0C8 
  41 0014 34E11C03 		.ascii	"4\341\034\003C#\007\023##\210\301\300\310P\317\304X"
  41      43230713 
  41      232388C1 
  41      C0C850CF 
  41      C458
  42 0026 1FC90856 		.ascii	"\037\311\010V\273\236\351\300\203\377\377\327}\330\370"
  42      BB9EE9C0 
  42      83FFFFD7 
  42      7DD8F8
  43 0035 B01AA894 		.ascii	"\260\032\250\224\201\201\225\241\245\241a\202\002\003"
  43      818195A1 
  43      A5A16182 
  43      0203
  44 0043 4332583E 		.ascii	"C2X>\004H\2024\20522\201h\346\363\014\315\017~\331%"
  44      04488234 
  44      85323281 
ARM GAS  /tmp/cc4YBHnC.s 			page 3


  44      68E6F30C 
  44      CD0F7ED9 
  45 0058 322E6464 		.ascii	"2.dd\005\312V3\374j\350h\020\310d\004\252\206\030\227"
  45      05CA5633 
  45      FC6AE868 
  45      10C86404 
  45      AA861897 
  46 006c 09A22F32 		.ascii	"\011\242/24>\370\315\004S\004\001!@\011\240\001 \307"
  46      343EF8CD 
  46      04530401 
  46      214009A0 
  46      0120C7
  47 007f CAE8E9E9 		.ascii	"\312\350\351\351;gd&e\372\007\353\347\027\353g$\346"
  47      3B676426 
  47      65FA07EB 
  47      E717EB67 
  47      24E6
  48 0091 E8171725 		.ascii	"\350\027\027%\353\247\027\224\350%3\000\000\024\241"
  48      EBA71794 
  48      E8253300 
  48      0014A1
  49 00a0 2B2F     		.ascii	"+/"
  50              		.text
  51              		.section	.gnu.lto_gptObjectInit.e7ac4ef78790529e,"",%progbits
  52 0000 789C6362 		.ascii	"x\234cb`b@\007\222@|\035\210\345\200\230\221\231\201"
  52      60624007 
  52      92407C1D 
  52      88E58098 
  52      919981
  53 0013 9169C239 		.ascii	"\221i\3029\006\206F\016&FF\020\203\201\221\241\236\211"
  53      0686460E 
  53      26464610 
  53      838191A1 
  53      9E89
  54 0025 B13E9211 		.ascii	"\261>\222\021\254v=\323\201\007\377\377\257\233qlY\017"
  54      AC763DD3 
  54      8107FFFF 
  54      AF9B716C 
  54      590F
  55 0037 E34C2656 		.ascii	"\343L&V&\306\\\2608+CKC\303\004\005\006\206d07\004H"
  55      26C65CB0 
  55      382B434B 
  55      43C30405 
  55      06866430 
  56 004e 82F48632 		.ascii	"\202\364\20622\201h\346\263\014M;n<>\300\224\310\270"
  56      328168E6 
  56      B30C4D3B 
  56      6E3C3EC0 
  56      94C8B8
  57 0061 90919541 		.ascii	"\220\221\225A\233aU\003\020\360g22\314f\230\305\230"
  57      9B615503 
  57      10F06732 
  57      32CC6698 
  57      C598
  58 0073 C9C898CE 		.ascii	"\311\310\230\316\310\024\001\244!NK\202\330\304\000"
  58      C81401A4 
  58      214E4B82 
ARM GAS  /tmp/cc4YBHnC.s 			page 4


  58      D8C400
  59 0082 126100B1 		.ascii	"\022a\000\261A\272\177`\321\315\214]7#\\73\210q\221"
  59      41BA7F60 
  59      D1CD8C5D 
  59      37235C37 
  59      33887191 
  60 0096 A1F1C10C 		.ascii	"\241\361\301\014e\210^\030\010\001*\002\272\013\244"
  60      65885E18 
  60      08012A02 
  60      BA0BA4
  61 00a5 43464F4F 		.ascii	"CFOO\3379#3)\323?X?\277X?#1G\277\270(Y?\275\240D/\231"
  61      DF392333 
  61      29D33F58 
  61      3FBF583F 
  61      233147BF 
  62 00c2 01009B58 		.ascii	"\001\000\233X<\374"
  62      3CFC
  63              		.text
  64              		.section	.gnu.lto_gptStart.e7ac4ef78790529e,"",%progbits
  65 0000 789C8552 		.ascii	"x\234\205RMh\023A\024~o\266icrh\256B\011\261\342\251"
  65      4D681341 
  65      147E6FB6 
  65      69637268 
  65      AE4209B1 
  66 0016 65C79B57 		.ascii	"e\307\233W% \210\004\241\251\240'\331\254K\262\220\355"
  66      25208804 
  66      A1A9A027 
  66      D9AC4BB2 
  66      90ED
  67 0028 86DDA4B4 		.ascii	"\206\335\244\264x\350&\315A\320C\021\021\265\010\255"
  67      78E826CD 
  67      41D04311 
  67      11B508AD 
  68 0038 3DB5A01E 		.ascii	"=\265\240\036z)\022e\005\021D\254\010\212\012\376\304"
  68      7A291265 
  68      051144AC 
  68      088A0AFE 
  68      C4
  69 0049 8327A1E0 		.ascii	"\203'\241\340-\224\302\372f7\331f\323\242\263\314\274"
  69      2D94C2FA 
  69      6637D966 
  69      D3A2B3CC 
  69      BC
  70 005a 796FBE37 		.ascii	"yo\2767\337\333\367\015\003\006\203\343(\315_\024\376"
  70      DFDBF70D 
  70      030683E3 
  70      28CD5F14 
  70      FE
  71 006b 41162540 		.ascii	"A\026%@\266\264\015P\2173D\261\001\204\005\206\013\227"
  71      B6B40D50 
  71      8F3344B1 
  71      01840586 
  71      0B97
  72 007d D1C73E61 		.ascii	"\321\307>an\333\363\036\177x\325\372\212\313,)\241\201"
  72      6EDBF31E 
  72      7F78D5FA 
  72      8ACB2C29 
ARM GAS  /tmp/cc4YBHnC.s 			page 5


  72      A181
  73 008f 30448B38 		.ascii	"0D\2138\215A\323q\2262\006\322]\252\017\237\246U\334"
  73      8D41D371 
  73      963206D2 
  73      5DAA0F9F 
  73      A655DC
  74 00a2 71914264 		.ascii	"q\221Bd\245\327\320\210\003\214\303\252\343\334j{\355"
  74      A5D7D088 
  74      038CC3AA 
  74      E3DC6A7B 
  74      ED
  75 00b3 D6E43DC7 		.ascii	"\326\344=\307m\2568{\236\207\250#\225v\036E\346%r0\343"
  75      6DAE387B 
  75      9E87A823 
  75      95761E45 
  75      E6257230 
  76 00c8 1B3614AD 		.ascii	"\0336\024\255U\304 C\233mh\374Y_\334\274)uY{\364\256"
  76      55C42043 
  76      9B6D68FC 
  76      595FDCBC 
  76      2975597B 
  77 00de F76237C5 		.ascii	"\367b7\305\024|\210\343aI\356\332\355Vr,\364\326\357"
  77      147C88E3 
  77      6149EEDA 
  77      ED56722C 
  77      F4D6EF
  78 00f1 7C1B0D9D 		.ascii	"|\033\015\235\033\237~J\000\012\256b\214\250\005=\243"
  78      1B9F7E4A 
  78      000AAE62 
  78      8CA8053D 
  78      A3
  79 0102 29D1F499 		.ascii	")\321\364\231\221\276\227\344\322/IA\353\322\360\021"
  79      91BE97E4 
  79      D22F4941 
  79      EBD2F011 
  80 0112 1F38774F 		.ascii	"\0378wO\353\024\355/h\377\374s\367\274[\372[h\274\331"
  80      EB14ED2F 
  80      68FFFC73 
  80      F7BC5BFA 
  80      5B68BCD9 
  81 0126 DA7159C0 		.ascii	"\332qY\3001\001\033\016\215Q\035c\313p\237\222\207\213"
  81      31011B0E 
  81      8D511D63 
  81      CB709F92 
  81      878B
  82 0138 28894B46 		.ascii	"(\211KF|p!h3\024E\366;h\266\237.&\202D\200k\260\353"
  82      7C702168 
  82      331445F6 
  82      3B68B69F 
  82      2E268244 
  83 0150 5C77523A 		.ascii	"\\wR:\306U\337\027(I\307#>\305Vg\247\203\203\024\211"
  83      C655DF17 
  83      2849C723 
  83      3EC55667 
  83      A7838314 
  84 0165 C329306C 		.ascii	"\303)0leB\224\034Ue\345\371\200*\012\256\371=\371\257"
  84      6542941C 
ARM GAS  /tmp/cc4YBHnC.s 			page 6


  84      5565E5F9 
  84      802A0AAE 
  84      F93DF9AF 
  85 0179 2CF04F59 		.ascii	",\360OY\276\354\011Y6\243\262\374N\246\303w\323\247"
  85      BEEC0959 
  85      36A3B2FC 
  85      4EA6C377 
  85      D3A7
  86 018b 4FA74F9F 		.ascii	"O\247O\237\357\365\330\276>\3034\375\277P1~\210D\012"
  86      EFF5D8BE 
  86      3EC334FD 
  86      BF50317E 
  86      88440A
  87 019e 6ED0262C 		.ascii	"n\320&,\246'\211\202\2170\035D\336C\275\375\354x\257"
  87      A6278982 
  87      8F301D44 
  87      DE43BDFD 
  87      EC78AF
  88 01b1 A3C198A6 		.ascii	"\243\301\230\246\206\320\353\024\3201Y\346\331\222^"
  88      86D0EB14 
  88      D03159E6 
  88      D9925E
  89 01c0 D02FE4B9 		.ascii	"\320/\344\271i\363\222R\346\266\245\362b\245*\2530\021"
  89      69F39252 
  89      E6B6A5F2 
  89      62A52AAB 
  89      3011
  90 01d2 3DB4AABC 		.ascii	"=\264\252\274bZU\233\237\231\312ess\\-\251\246\245]"
  90      625A559B 
  90      9F99CA65 
  90      73735C2D 
  90      A9A6A55D 
  91 01e6 993D65C8 		.ascii	"\231=e\310%\210\315*\345\232&G3\264\271*\317\346\362"
  91      2588CD2A 
  91      E59A2647 
  91      33B4B92A 
  91      CFE6F2
  92 01f9 E7F25C9F 		.ascii	"\347\362\\\237Q\313\265\253\032\3673T\343lmF\245\244"
  92      51CBB5AB 
  92      1AF73354 
  92      E36C6D46 
  92      A5A4
  93 020b 63070842 		.ascii	"c\007\010B\\\311\236\267\017\"D}\246M\013A\205%D*\227"
  93      5CC99EB7 
  93      0F22447D 
  93      A64D0B41 
  93      8525442A 
  94 0220 9FCA1414 		.ascii	"\237\312\024\024[\253X\372d\346\304I`\026\214\030\232"
  94      5BAB58FA 
  94      64E6C449 
  94      60168C18 
  94      9A
  95 0231 615AF3F0 		.ascii	"aZ\363\360\027\344\234\370\035"
  95      17E49CF8 
  95      1D
  96              		.text
  97              		.section	.gnu.lto_gptStop.e7ac4ef78790529e,"",%progbits
ARM GAS  /tmp/cc4YBHnC.s 			page 7


  98 0000 789C8552 		.ascii	"x\234\205RMh\324@\024~ob\232-=t\257BYb\305SK\306\233"
  98      4D68D440 
  98      147E6F62 
  98      9A2D3D74 
  98      AF425962 
  99 0019 57654110 		.ascii	"WeA\020Y\012\335\012z\222l\014\335\300\246Y\222\335"
  99      590ADD0A 
  99      7A926C0C 
  99      DDC0A659 
  99      92DD
 100 002b DAE2A1D9 		.ascii	"\332\342\241\331u\017\005{(\"\342\277\255\365\322\202"
 100      750F057B 
 100      2822E2BF 
 100      ADF5D282 
 101 003b 8A78F150 		.ascii	"\212x\361Pd\005AE\254x\020\364P\214x\021D\304\233\224"
 101      64054145 
 101      AC7810F4 
 101      508C7811 
 101      44C49B94 
 102 004f 427C93EC 		.ascii	"B|\223\354f\233Vt\302\233\3673\337\343{\371f\0300\330"
 102      669B5674 
 102      C29BF733 
 102      DFE37BF9 
 102      661830D8 
 103 0063 BDF693DD 		.ascii	"\275\366\223\335\247\362g\362(\001\262\305\015\200F"
 103      A7F267F2 
 103      2801B2C5 
 103      0D8046
 104 0072 86218A00 		.ascii	"\206!\212\000\020\346\030\316\235\301\010\373\210\265"
 104      10E618CE 
 104      9DC108FB 
 104      88B5
 105 0080 83307C78 		.ascii	"\2030|x\353\345\335\005\274\303\372%\264\243\272\014"
 105      EBE5DD05 
 105      BCC3FA25 
 105      B4A3BA0C 
 106 0090 2DDF5F54 		.ascii	"-\337_Tm\244\314\210*\023\264\213\366S\310\204\227^"
 106      6DA4CC88 
 106      2A13B48B 
 106      F653C884 
 106      975E
 107 00a2 43330330 		.ascii	"C3\0030\014\313\276\1779\010\203\365\321\353~\273\265"
 107      0CCBBE7F 
 107      390883F5 
 107      D1EB7EBB 
 107      B5
 108 00b3 E46F8721 		.ascii	"\344o\207!\242\2054\325I\024\235\247)A5rl_zLQ\003\225"
 108      A28534D5 
 108      49149DA7 
 108      29413572 
 108      6C5F7A4C 
 109 00ca 820D68FE 		.ascii	"\202\015h\376Z\275\370dA\352\260v\351\333\341\363\255"
 109      5ABDF864 
 109      41EAB076 
 109      E9DBE1F3 
 109      AD
 110 00db 2CD3F11E 		.ascii	",\323\361\036\016'#\265W\256\254\017\014%\331\352\325"
ARM GAS  /tmp/cc4YBHnC.s 			page 8


 110      0E2723B5 
 110      57AEAC0F 
 110      0C25D9EA 
 110      D5
 111 00ec CDC124B9 		.ascii	"\315\301$\271\364\343\213\004\240\3432\312D-\350\031"
 111      F4E38B04 
 111      A0E332CA 
 111      442DE819 
 112 00fc 99441631 		.ascii	"\231D\0261#}/(%e\244X\265\034|\300\333\376\265\243\026"
 112      237D2F28 
 112      2565A458 
 112      B51C7CC0 
 112      DBFEB5A3 
 113 0111 55770ED4 		.ascii	"Uw\016\324;\377\3309\357\214\376\016Z\301\346W%\246"
 113      3BFFD839 
 113      EF8CFE0E 
 113      5AC1E657 
 113      25A6
 114 0123 00B8005B 		.ascii	"\000\270\000[\376\274\237\265P6\242\034`\022%\013\373"
 114      FEBC9FB5 
 114      5036A21C 
 114      6012250B 
 114      FB
 115 0134 00DE42F3 		.ascii	"\000\336B\363\351\253\3631n\004\326|Z\203\026*7\341"
 115      E9ABF331 
 115      6E04D67C 
 115      5A83162A 
 115      37E1
 116 0146 06716408 		.ascii	"\006qd\010%\270\372\243\226\022\366\344PD\234Vv\351"
 116      25B8FAA3 
 116      9612F6E4 
 116      50449C56 
 116      76E9
 117 0158 D92E6575 		.ascii	"\331.eu\\\211\376\353\277\322\302?\245\375\264-\244"
 117      5C89FEEB 
 117      BFD2C23F 
 117      A5FDB42D 
 117      A4
 118 0169 7D9C96F6 		.ascii	"}\234\226\366\373@.\271\373\035\032\377\356i\374\346"
 118      FB402EB9 
 118      FB1D1AFF 
 118      EE69FCE6 
 119 0179 6743EE69 		.ascii	"gC\356i\334G\246\010\036\0033\177\221Y\3075\012\222"
 119      DC47A608 
 119      1E03337F 
 119      9159C735 
 119      0A92
 120 018b 61BAB2EA 		.ascii	"a\272\262\352\370\000sq\345=4\202o\007\273z\306k\202"
 120      F8007371 
 120      E53D3482 
 120      6F07BB7A 
 120      C66B82
 121 019e AE8E5E98 		.ascii	"\256\216^\230\200\016i\032\317\227\255\2225V\344\216"
 121      800E691A 
 121      CF97AD92 
 121      3556E48E 
 122 01ae C7CB7A85 		.ascii	"\307\313z\205{\256\301'\2535\315\200\221\364\241[\343"
ARM GAS  /tmp/cc4YBHnC.s 			page 9


 122      7BAEC127 
 122      AB35CD80 
 122      91F4A15B 
 122      E3
 123 01bf 55C7AD79 		.ascii	"U\307\255y\374\330x!_\230\341F\331p\\\363\354\364\021"
 123      FCD87821 
 123      5F98E146 
 123      D9705CF3 
 123      ECF411
 124 01d2 5B2B833C 		.ascii	"[+\203<\255W\352\246\226\3560gj<_(\236(rk\312\250\324"
 124      AD57EAA6 
 124      96EE3067 
 124      6A3C5F28 
 124      9E28726B 
 125 01e9 CF993CEA 		.ascii	"\317\231<\3520\354\343\365)\203\232\016\354!Hpeo\326"
 125      30ECE3F5 
 125      29839A0E 
 125      EC214870 
 125      656FD6
 126 01fc DB8B10F3 		.ascii	"\333\213\020\3639\036m\004\025\236\020\331Bq\\-\351"
 126      391E6D04 
 126      159E10D9 
 126      42715C2D 
 126      E9
 127 020d 9E5975AD 		.ascii	"\236Yu\255Q\365\320a`.(\266i;\356,\374\001l\332\351"
 127      51F5D061 
 127      602E28B6 
 127      693BEE2C 
 127      FC016CDA 
 128 0222 A2       		.ascii	"\242"
 129              		.text
 130              		.section	.gnu.lto_gptChangeInterval.e7ac4ef78790529e,"",%progbits
 131 0000 789C8552 		.ascii	"x\234\205RMh\023A\024~o&\233Dsh\257\205\022\326B/\246"
 131      4D681341 
 131      147E6F26 
 131      9B447368 
 131      AF8512D6 
 132 0017 64BC7955 		.ascii	"d\274yU\002B\221 4\025\364$\233u\311.d\233\260\233\224"
 132      02429120 
 132      3415F424 
 132      9B75C92E 
 132      649BB09B 
 133 002c F6D46D1A 		.ascii	"\366\324m\032h\017\"ED\252\"\264\346b\013*\350\265\224"
 133      680F2245 
 133      44AA22B4 
 133      E6620B2A 
 133      E8B594
 134 003f 28451069 		.ascii	"(E\020iAPPA\014^\365\342MJa}\263\233l\223Vt\226\267"
 134      41505041 
 134      0C5EF5E2 
 134      4D4A617D 
 134      B39B6C93 
 135 0057 EFCDBCEF 		.ascii	"\357\315\274\357\375\314\367\206\001\203\343k\204\344"
 135      FDCCF786 
 135      0183E36B 
 135      84E4
 136 0065 031D7F23 		.ascii	"\003\035\177#\215\034\220\255\356\003,&\031\2424\000"
ARM GAS  /tmp/cc4YBHnC.s 			page 10


 136      8D1C90AD 
 136      EE032C26 
 136      19A23400 
 137 0075 6181E1C2 		.ascii	"a\201\341\302u\014\260\317Y\273\343\373\317\016\226"
 137      750CB0CF 
 137      59BBE3FB 
 137      CF0E96
 138 0084 777EE213 		.ascii	"w~\342\023\226\342h#\304\300BP\310\3028Y\022\247@\323"
 138      96E26823 
 138      C4C04250 
 138      C8C23859 
 138      12A740D3 
 139 0098 F356551B 		.ascii	"\363VU\033)\253\036\004N\323_f\273JG\244\371[h$\001"
 139      29AB1E04 
 139      4ED35F66 
 139      BB4A47A4 
 139      F95B6824 
 140 00ad C660C3F3 		.ascii	"\306`\303\363\356t\374\316\366\304}\257\335\\\367\016"
 140      EE74FCCE 
 140      F6C47DAF 
 140      DD5CF70E 
 141 00bd 7D1FD142 		.ascii	"}\037\321B\306\3402\312\310k\264\341j\240b\261\301\256"
 141      C6E032CA 
 141      C86BB4E1 
 141      6AA062B1 
 141      C1AE
 142 00cf E51953C9 		.ascii	"\345\031S\311\330\207\306\257\315\245\227\267x\267j"
 142      D887C6AF 
 142      CDA597B7 
 142      78B76A
 143 00de AF7CDB7F 		.ascii	"\257|\333\177u0\3144|\214cQK\355\326\335\355\324h\264"
 143      7530CC34 
 143      7C8C6351 
 143      4BEDD6DD 
 143      EDD468B4 
 144 00f2 DBBCF775 		.ascii	"\333\274\367u(\332\274\333\375\316\0014\334@\205J\313"
 144      28DABCDB 
 144      FDCE0134 
 144      DC40854A 
 144      CB
 145 0103 F28C8493 		.ascii	"\362\214\204\223\004\225\221\276]\332\322\225xHb\032"
 145      049591BE 
 145      5DDAD295 
 145      7848621A 
 146 0113 3EE2236F 		.ascii	">\342#o\355\202E\001\375\015\035\371?u\375\361\260\345"
 146      ED824501 
 146      FD0D1DF9 
 146      3F75FDF1 
 146      B0E5
 147 0125 3D687C59 		.ascii	"=h|Yk\215\204%J\030\313\300Yb\356!<\240\310D\011\271"
 147      6B8D8425 
 147      4A18CBC0 
 147      5962EE21 
 147      3CA0C844 
 148 013b CC900C90 		.ascii	"\314\220\014\220E\354]s\017\226Vx/\"^BE\202\320\247"
 148      45EC5D73 
 148      0F965678 
ARM GAS  /tmp/cc4YBHnC.s 			page 11


 148      2F225E42 
 148      4582D0A7 
 149 014f 3514785F 		.ascii	"5\024x_O\206\316\014lyMr\235\012\323\235\246\364\022"
 149      4F86CE0C 
 149      6C794D72 
 149      9D0AD39D 
 149      A6F412
 150 0162 09DD74A1 		.ascii	"\011\335t\241Q\222\235\014R\277\276s\214z\015[\301\305"
 150      51929D0C 
 150      52BFBE73 
 150      8C7A0D5B 
 150      C1C5
 151 0174 FFCB3DFC 		.ascii	"\377\313=\374\223\373\317\207\222\373\027\203\334\377"
 151      93FBCF87 
 151      92FB1783 
 151      DCFF
 152 0182 48A5A3C7 		.ascii	"H\245\243\307\3217\204\337}Cx\323P\216\206 %\340N\307"
 152      D13784DF 
 152      7D4378D3 
 152      508E8620 
 152      25E04EC7 
 153 0196 C45FE6A0 		.ascii	"\304_\346\240\341\026\031Q3=\3365|\212\351\260\321\367"
 153      E1161951 
 153      333DDE35 
 153      7C8AE9B0 
 153      D1F7
 154 01a8 B0D8B93D 		.ascii	"\260\330\271=\036\246\353\255i\"\203\236\240\204\216"
 154      1EA6EBAD 
 154      6922839E 
 154      A0848E
 155 01b7 66B32267 		.ascii	"f\263\"gZE\353JAT\\aje\341:\272(UkY\0352\203N\247&\252"
 155      5A45EB4A 
 155      41545C61 
 155      6A65E13A 
 155      BA28556B 
 156 01d3 15A7E68A 		.ascii	"\025\247\346\212\213S\371\\~N\350\246^q\214\033\263"
 156      8B53F95C 
 156      7E4EE8A6 
 156      5E718C1B 
 156      B3
 157 01e4 E7EDAC09 		.ascii	"\347\355\254\011\312\254V\256\033\331\301\010c\256&"
 157      CAAC56AE 
 157      1BD9C108 
 157      63AE26
 158 01f3 72F9C264 		.ascii	"r\371\302dAX3z\271~\323\020A\204n_\252\317\350\024t"
 158      4158337A 
 158      B97ED310 
 158      41846E5F 
 158      AACFE814 
 159 0208 E6448108 		.ascii	"\346D\201\010g\272\363\356I\204\354\257\342\322\217"
 159      67BAF3EE 
 159      4984ECAF 
 159      E2D28F
 160 0217 A0521362 		.ascii	"\240R\023b8_\230R\213\232kT\035kB\035?\007\314\201\204"
 160      385F9852 
 160      8B9A6B54 
 160      1D6B421D 
ARM GAS  /tmp/cc4YBHnC.s 			page 12


 160      3F07CC81 
 161 022c 6DD81567 		.ascii	"m\330\025g\036\376\000\371(\360b"
 161      1EFE00F9 
 161      28F062
 162              		.text
 163              		.section	.gnu.lto_gptStartContinuous.e7ac4ef78790529e,"",%progbits
 164 0000 789C8D53 		.ascii	"x\234\215SMh\023Q\020\236y\233m\022sh\256B\011\261\320"
 164      4D681351 
 164      109E799B 
 164      6D127368 
 164      AE4209B1 
 165 0015 534BD69B 		.ascii	"SK\326\233W% \210\004\241\251\240'\331\254K\263\220"
 165      57252088 
 165      04A1A9A0 
 165      27D9AC4B 
 165      B390
 166 0027 3F7693D2 		.ascii	"?v\223\322\342\241/\261\202\250\207RT\374\241\320\332"
 166      E2A12FB1 
 166      82A88752 
 166      54FCA1D0 
 166      DA
 167 0038 53036DA5 		.ascii	"S\003m\2459\350\241\224\010z\320bk\017\225\012\012\213"
 167      39E8A194 
 167      087AD062 
 167      6B0F950A 
 167      0A8B
 168 004a E04904BD 		.ascii	"\340I\004\275i)l\347m\222m\222\212u\227\3677\357\233"
 168      69296CE7 
 168      6D926D92 
 168      8A7597F7 
 168      37EF9B
 169 005d 996F66BF 		.ascii	"\231of\277e\300\240\3739I#-\001\374\240\025%@6\275\011"
 169      65C0A0FB 
 169      3949232D 
 169      01FCA015 
 169      254036BD 
 170 0072 500E3044 		.ascii	"P\0160D\261\001\204I\206\223W\321\305\256\260\272\355"
 170      B1018449 
 170      869357D1 
 170      C5AEB0BA 
 170      ED
 171 0083 38CB1FDE 		.ascii	"8\313\037\336\255\177\306*\013I\230E\360\321$ne\230"
 171      AD7FC62A 
 171      0B499845 
 171      F0D1246E 
 171      6598
 172 0095 E27C3A0A 		.ascii	"\342|:\012\240\271\330\021\232E\200\313\310\304*\275"
 172      A0B9D811 
 172      9A4580CB 
 172      C8C42ABD 
 173 00a5 854A00A0 		.ascii	"\205J\000\240\037\3469\237\261\035{m\3501\257O\315\361"
 173      1FE6399F 
 173      B11D7B6D 
 173      E831AF4F 
 173      CDF1
 174 00b7 7DC74134 		.ascii	"}\307A4\220x]D\341y\205\016\030u\027\346\353$*l@\361"
 174      90785D44 
ARM GAS  /tmp/cc4YBHnC.s 			page 13


 174      E179850E 
 174      187517E6 
 174      EB242A6C 
 175 00cd 61132ABF 		.ascii	"a\023*\277\026o\326\356I^\312\306\246\356\274\332\013"
 175      166FD6EE 
 175      495ECAC6 
 175      A6EEBCDA 
 175      0B
 176 00de 33159F61 		.ascii	"3\025\237a\277\307\247\276p\177-\324\347\235\026\037"
 176      BFC7A7BE 
 176      707F2DD4 
 176      E79D161F 
 177 00ee 7EE9F50E 		.ascii	"~\351\365\016ww\276R\335*\316\243L\251EzFC\242\341f"
 177      7777BE52 
 177      DD2ACEA3 
 177      4CA9457A 
 177      4643A2E1 
 178 0103 467A5FD3 		.ascii	"Fz_\323\221Z&5\372\026\201\035\234\345\217\316\032d"
 178      915A2635 
 178      FA16811D 
 178      9CE58FCE 
 178      1A64
 179 0115 6D277478 		.ascii	"m'tx\277\333\274oRo/\272\276}g\003\371\014/\377t\234"
 179      BFDBBC6F 
 179      526F2FBA 
 179      BE7D6703 
 179      F90C2FFF 
 180 012b 5E036506 		.ascii	"^\003e\0066\036W\362\250H\324\036\204\257r\036t\273"
 180      361E57F2 
 180      A848D41E 
 180      84AF721E 
 180      74BB
 181 013d 2619D8C3 		.ascii	"&\031\330\303\340\333\177\204 \303{\250\274\334\255"
 181      E0DB7F84 
 181      20C37BA8 
 181      BCDCAD
 182 014c FDC1AE86 		.ascii	"\375\301\256\206\361\225\0071\025\237S\273T\\v\233\326"
 182      F1950731 
 182      159F53BB 
 182      545C769B 
 182      D6
 183 015d 6A862C5C 		.ascii	"j\206,\\\007\241\3129\257\317nP.\377SxR\346<l`\200H"
 183      07A1CA39 
 183      AFCF6E50 
 183      2EFF5378 
 183      52E63C6C 
 184 0174 89442E04 		.ascii	"\211D.\004R\350z\325\304QX\375\2423[p\313\336z\023R"
 184      52E87AD5 
 184      C45158FD 
 184      A2335B70 
 184      CBDE7A13 
 185 0189 71D545DD 		.ascii	"q\325E\335\200=~[\270\0065\354ib\335\332\210\233\201"
 185      803D7E5B 
 185      B80635EC 
 185      6962DDDA 
 185      889B81
 186 019c 273A2BB4 		.ascii	"':+\264\235\271\365.m\250\270\340~\231c\305\001\377"
ARM GAS  /tmp/cc4YBHnC.s 			page 14


 186      9DB9F52E 
 186      6DA8B8E0 
 186      7E9963C5 
 186      01FF
 187 01ae 14C7A77D 		.ascii	"\024\307\247}!\216\027\235\342\370\036\212\264I\327"
 187      218E179D 
 187      E2F81E8A 
 187      B449D7
 188 01bd 53C9EF36 		.ascii	"S\311\3576\225|\254\310\207\215\361\323\010\210<\032"
 188      957CACC8 
 188      878DF1D3 
 188      08883C1A 
 189 01cd 06FF2214 		.ascii	"\006\377\"\024\025\253\264\361\310\264\204\241\342\022"
 189      15ABB4F1 
 189      C8B484A1 
 189      E212
 190 01db 461A966D 		.ascii	"F\032\226m(\333K\003\215p\255g\204\276\"\375#\002\332"
 190      28DB4B03 
 190      8D70AD67 
 190      84BE22FD 
 190      2302DA
 191 01ee 178B29F1 		.ascii	"\027\213)\361\264\2212.%\225\274\245\244\325\214b\231"
 191      B491322E 
 191      2595BCA5 
 191      A4D58C62 
 191      99
 192 01ff 9A325A28 		.ascii	"\2322Z(\3064\030\354\2744\213J!o\026-\345\334p\"\236"
 192      C63418EC 
 192      BC348B4A 
 192      216F162D 
 192      E5DC7022 
 193 0214 1857B4B4 		.ascii	"\030W\264\264\2267\365kcg\262\2614\310cj\246\244\307"
 193      9637F56B 
 193      6367B2B1 
 193      34C8636A 
 193      A6A4C7
 194 0227 3A3DF4F1 		.ascii	":=\364\361\242\022O$/$\025#\247eJ\327u\305\365\320\262"
 194      A2124F24 
 194      2F241523 
 194      A7654AD7 
 194      75C5F5D0 
 195 023c E74B398D 		.ascii	"\347K9\215\234N\035I\340\341\322\326\204u\024!\370\345"
 195      9C4E1D49 
 195      E0E1D2D6 
 195      84751421 
 195      F8E5
 196 024e 2D9A082A 		.ascii	"-\232\010*VB\204\023\311\341hJ\265\364\202i\014E\007"
 196      56428413 
 196      C9E1684A 
 196      B5F48269 
 196      0C4507
 197 0261 4E0333C1 		.ascii	"N\0033\301\237\325\263ys\002|TG!`\344\212\272I\364\016"
 197      9FD5B379 
 197      73027C54 
 197      472160E4 
 197      8ABA49F4 
 198 0276 0085F11C 		.ascii	"\000\205\361\034("
ARM GAS  /tmp/cc4YBHnC.s 			page 15


 198      28
 199              		.text
 200              		.section	.gnu.lto_gptStartContinuousI.e7ac4ef78790529e,"",%progbits
 201 0000 789C6362 		.ascii	"x\234cb`b@\007\222@|\026\210\345\200\230\221\231\201"
 201      60624007 
 201      92407C16 
 201      88E58098 
 201      919981
 202 0013 9169C239 		.ascii	"\221i\3029\006\206F\016&FF\020\203\201\221\241\236\211"
 202      0686460E 
 202      26464610 
 202      838191A1 
 202      9E89
 203 0025 B13E9211 		.ascii	"\261>\222\021\254v=\323\201\007\377\377\257\373\327"
 203      AC763DD3 
 203      8107FFFF 
 203      AFFBD7
 204 0034 B5BF8771 		.ascii	"\265\277\207q-\023\033\023c.#\003\013\220\000\311\262"
 204      2D131B13 
 204      632E2303 
 204      0B9000C9 
 204      B2
 205 0045 32B43434 		.ascii	"2\26444LP\310e\004Z\221\014V\036\002$Af\204\002\205"
 205      4C50C865 
 205      045A910C 
 205      561E0224 
 205      41668402 
 206 005a 8034F359 		.ascii	"\2004\363Y\206\246\03576\377dLd\\\310\310\312\240\315"
 206      86A61D37 
 206      36FF644C 
 206      645CC8C8 
 206      CAA0CD
 207 006d B0AA0108 		.ascii	"\260\252\001\010\3703\031\031f3\314b\314ddLgd\212\000"
 207      F8331919 
 207      6633CC62 
 207      CC64644C 
 207      67648A00 
 208 0081 D2102726 		.ascii	"\322\020'&Ald\000\21100\003\031\347\031Z\037\234?\312"
 208      416C6400 
 208      89303003 
 208      19E7195A 
 208      1F9C3FCA 
 209 0095 0DD1CCC0 		.ascii	"\015\321\314\300P\315\360\253\241\243A \223\2219\231"
 209      50CDF0AB 
 209      A1A34120 
 209      93913999 
 210 00a5 11A214A8 		.ascii	"\021\242\024\250=\235\221%\223\221\205\201\341\"C\343"
 210      3D9D9125 
 210      93918581 
 210      E12243E3 
 211 00b5 831BAA30 		.ascii	"\203\033\2520\245\020\020\002T\006t\005\310t\031==}"
 211      A5101002 
 211      54067405 
 211      C874193D 
 211      3D7D
 212 00c7 E78CCCA4 		.ascii	"\347\214\314\244L\377`\375\374b\375\214\304\034\375"
 212      4CFF60FD 
ARM GAS  /tmp/cc4YBHnC.s 			page 16


 212      FC62FD8C 
 212      C41CFD
 213 00d6 E2A264FD 		.ascii	"\342\242d\375\364\202\022\275d\006\000\002\336;\201"
 213      F48212BD 
 213      64060002 
 213      DE3B81
 214              		.text
 215              		.section	.gnu.lto_gptStartOneShot.e7ac4ef78790529e,"",%progbits
 216 0000 789C8D53 		.ascii	"x\234\215SMh\023Q\020\236y\2334\21194W\241\204X\350"
 216      4D681351 
 216      109E799B 
 216      34893934 
 216      57A18458 
 217 0015 2925EBCD 		.ascii	")%\353\315\253\022\020D\202\320T\320\223l\326\245Y\310"
 217      AB121044 
 217      82D054D0 
 217      936CD6A5 
 217      59C8
 218 0027 1FBB4969 		.ascii	"\037\273Ii\361\320\227XA\210\207R\304\237\212\320\332"
 218      F1D09758 
 218      41888752 
 218      C49F8AD0 
 218      DA
 219 0038 530B4669 		.ascii	"S\013Fi\016\355\241J\004AD\214\010\026\364 ,\202^D\324"
 219      0EEDA14A 
 219      0441448C 
 219      0816F420 
 219      2C825E44 
 220 004d 8B3F25B0 		.ascii	"\213?%\260\316\333$\333$\025\353.\357o\33673\337\314"
 220      CEDB24DB 
 220      2415EB2E 
 220      EF6FDE37 
 220      33DFCC
 221 0060 7ECB80C1 		.ascii	"~\313\200\301\340s\230FZ\002\370B+J\200l\241\011P\366"
 221      E0739846 
 221      5A02F842 
 221      2B4A806C 
 221      A10950F6 
 222 0074 3344B101 		.ascii	"3D\261\001\2049\206s\347\321\301>`\015\313\266ko\252"
 222      84398673 
 222      E7D1C13E 
 222      600DCBB6 
 222      6B6FAA
 223 0087 8F5A5863 		.ascii	"\217ZXcA\011\263\010\036\232\304\255\027\3469_\210\000"
 223      4109B308 
 223      1E9AC4AD 
 223      17E6395F 
 223      8800
 224 0099 A80E7692 		.ascii	"\250\016v\222f\021\340,2\261J\317\241\342\007\030\205"
 224      6611E02C 
 224      32B14ACF 
 224      A1E20718 
 224      85
 225 00aa 15CE172D 		.ascii	"\025\316\027-\333\332\036\277\315\033\363\313\274e\333"
 225      DBDA1EBF 
 225      CD1BF3CB 
 225      BC65DB
ARM GAS  /tmp/cc4YBHnC.s 			page 17


 226 00b9 883A12AF 		.ascii	"\210:\022\257\323(<\317\321\001#\316\302<\375D\205\015"
 226      D3283CCF 
 226      D10123CE 
 226      C23CFD44 
 226      850D
 227 00cb 283E34A1 		.ascii	"(>4\241\362}\355r\375\232\344\246lo\032\366\223\335"
 227      F27DED72 
 227      FD9AE4A6 
 227      6C6F1AF6 
 227      93DD
 228 00dd 1053F01E 		.ascii	"\020S\360\036\216\272|\032\253\327\267\203#\356i\355"
 228      8EBA7C1A 
 228      ABD7B783 
 228      23EE69ED 
 229 00ed C6FB61F7 		.ascii	"\306\373a\367P\375\361\201\352Vp\005\275\224Z\244g4"
 229      50FDF181 
 229      EA567005 
 229      BD945AA4 
 229      6734
 230 00ff 241A4E66 		.ascii	"$\032Nf\244\367)\035\251eR\273oa\330\301\273\374\326"
 230      A4F7291D 
 230      A96552BB 
 230      6F61D8C1 
 230      BBFCD6
 231 0112 719DACBD 		.ascii	"q\235\254\275\204\366\356\337v\356;\324{\213n\354T_"
 231      84F6EEDF 
 231      76EE3BD4 
 231      7B8B6EEC 
 231      545F
 232 0124 205FE4E5 		.ascii	" _\344\345o\266=\254\243\227\201\205\007\225<%\022\365"
 232      6FB63DAC 
 232      A3978185 
 232      07953C25 
 232      12F5
 233 0136 06E11B9C 		.ascii	"\006\341\033\234\007\234\256I:\0161\370\370\037!\310"
 233      079CAE49 
 233      3A0E31F8 
 233      F81F21C8 
 234 0146 F0122A5B 		.ascii	"\360\022*[[\237~\343@\303\370\346\315\250\202\017\251"
 234      5B9F7EE3 
 234      40C3F8E6 
 234      CDA8820F 
 234      A9
 235 0157 5D0AD69C 		.ascii	"]\012\326\234\246u\233\341\025\256QX\347\2347\352M\312"
 235      A6759BE1 
 235      15AE5158 
 235      E79C37EA 
 235      4DCA
 236 0169 E5BB034B 		.ascii	"\345\273\003Ke\316C:\372\211\224H\344@ \205\216W]\034"
 236      65CE433A 
 236      FA899448 
 236      E4402085 
 236      8E575D1C 
 237 017d 85D527D2 		.ascii	"\205\325'\322\277\202+\326\322\263\240\202\033\016\352"
 237      BF822BD6 
 237      D2B3A082 
 237      1B0EEA
ARM GAS  /tmp/cc4YBHnC.s 			page 18


 238 018c 12ECF2AB 		.ascii	"\022\354\362\253\3025\240\342P\007\353\324F\334t<\324"
 238      C235A0E2 
 238      5007EBD4 
 238      46DC743C 
 238      D4
 239 019d 5FA1652F 		.ascii	"_\241e/?\036\320\206\202\253\316\2279P\034\360Oq\274"
 239      3F1ED086 
 239      82ABCE97 
 239      39501CF0 
 239      4F71BC
 240 01b0 6B09716C 		.ascii	"k\011ql\366\213\343s0\334#]W%\277zT\362\263\342\335"
 240      F68BE373 
 240      30DC235D 
 240      5725BF7A 
 240      54F2B3E2 
 241 01c5 6B8C8F86 		.ascii	"k\214\217\206_\344Q1\360\027\241(\270N\033\227LW\030"
 241      5FE45131 
 241      F017A128 
 241      B84E1B97 
 241      4C5718
 242 01d8 0ADEC770 		.ascii	"\012\336\307p\333\362\032\312\326\327\261v\270\3563"
 242      DBF21ACA 
 242      D6D7B176 
 242      B8EE33
 243 01e7 495F91FE 		.ascii	"I_\221\376\021\001\035\211\305\344xZO\351g\222r\336"
 243      11011D89 
 243      C5E4785A 
 243      4FE96792 
 243      72DE
 244 01f9 94D34A46 		.ascii	"\224\323JF6\015U\236*\024c*D\373/\215\242\\\310\033"
 244      360D559E 
 244      2A14632A 
 244      44FB2F8D 
 244      A25CC81B 
 245 020d 45533E31 		.ascii	"ES>1\221\210'fd5\255\346\015\355\302\364\261l,\015\336"
 245      91882766 
 245      6435ADE6 
 245      0DEDC2F4 
 245      B16C2C0D 
 246 0222 692553D2 		.ascii	"i%S\322b\375\036\332LQ\216'\222\247\222\262\236S3\245"
 246      62FD1EDA 
 246      4C518E27 
 246      92A792B2 
 246      9E5333A5 
 247 0236 8B9AEC78 		.ascii	"\213\232\354x\250\331\223\245\234JNG\366%pqis\326\334"
 247      A8D993A5 
 247      9C4A4E47 
 247      F6257071 
 247      6973D6DC 
 248 024a 8F10FCF2 		.ascii	"\217\020\374\362&M\004\025+!B\211\344D$\245\230Z\301"
 248      264D0415 
 248      2B214289 
 248      E44424A5 
 248      985AC1
 249 025d D0C72363 		.ascii	"\320\307#cG\201\031\340\313j\331\2741\013\036\252\243"
 249      478119E0 
 249      CB6AD9BC 
ARM GAS  /tmp/cc4YBHnC.s 			page 19


 249      310B1EAA 
 249      A3
 250 026e E0D77345 		.ascii	"\340\327sE\315 z\177\000$\026\034\232"
 250      CD207A7F 
 250      0024161C 
 250      9A
 251              		.text
 252              		.section	.gnu.lto_gptStartOneShotI.e7ac4ef78790529e,"",%progbits
 253 0000 789C6362 		.ascii	"x\234cb`b@\007\222@|\026\210\345\200\230\221\231\201"
 253      60624007 
 253      92407C16 
 253      88E58098 
 253      919981
 254 0013 9169C239 		.ascii	"\221i\3029\006\206F\016&FF\020\203\201\221\241\236\211"
 254      0686460E 
 254      26464610 
 254      838191A1 
 254      9E89
 255 0025 B13E9211 		.ascii	"\261>\222\021\254v=\323\201\007\377\377\257\233tn\357"
 255      AC763DD3 
 255      8107FFFF 
 255      AF9B746E 
 255      EF
 256 0036 1EC69D4C 		.ascii	"\036\306\235LlL\214\271\214\014,@\002$\313\312\320\322"
 256      6C4C8CB9 
 256      8C0C2C40 
 256      0224CBCA 
 256      D0D2
 257 0048 D0304121 		.ascii	"\3200A!\227\021hE2Xy\010\220\004\231\021\012\024\002"
 257      97116845 
 257      32587908 
 257      90049911 
 257      0A1402
 258 005b D2CC6719 		.ascii	"\322\314g\031\232v\354x\366\2231\221q!#+\2036\303\252"
 258      9A76EC78 
 258      F6933191 
 258      7121232B 
 258      8336C3AA 
 259 006f 0620E0CF 		.ascii	"\006 \340\317dd\230\3150\2131\223\2211\235\221)\002"
 259      646498CD 
 259      308B3193 
 259      91319D91 
 259      2902
 260 0081 48439C98 		.ascii	"HC\234\230\004\261\221\001$\302\300\002d\234gh}0\353"
 260      04B19101 
 260      24C2C002 
 260      649C6768 
 260      7D30EB
 261 0094 38374433 		.ascii	"87D3\003C5\303\257\206\216\006\201LF\346dF\210R\240"
 261      034335C3 
 261      AF868E06 
 261      814C46E6 
 261      64468852 
 262 00a9 F6744696 		.ascii	"\366tF\226LF\240\342\213\014\215\017f\253\303\224B@"
 262      4C46A0E2 
 262      8B0C8D0F 
 262      66ABC394 
ARM GAS  /tmp/cc4YBHnC.s 			page 20


 262      4240
 263 00bb 085019D0 		.ascii	"\010P\031\320\025 \323e\364\364\364\23532\2232\375\203"
 263      1520D365 
 263      F4F4F49D 
 263      33329332 
 263      FD83
 264 00cd F5F38BF5 		.ascii	"\365\363\213\3653\022s\364\213\213\222\365\323\013J"
 264      331273F4 
 264      8B8B92F5 
 264      D30B4A
 265 00dc F4921900 		.ascii	"\364\222\031\000\374\264;9"
 265      FCB43B39 
 266              		.text
 267              		.section	.gnu.lto_gptStopTimer.e7ac4ef78790529e,"",%progbits
 268 0000 789C8552 		.ascii	"x\234\205RMh\023Q\020\236y\333m\242947\021J\210\005"
 268      4D681351 
 268      109E79DB 
 268      6DA23934 
 268      37114A88 
 269 0015 5168C97A 		.ascii	"Qh\311z\363\252\004\004\221 4\025\364$\23354\013I\023"
 269      F3AA0404 
 269      91203415 
 269      F4249B35 
 269      340B4913 
 270 0029 7693D2E2 		.ascii	"v\223\322\342\241/i\016\202RJ\021\361\257\320ZPZ\260"
 270      A12F690E 
 270      82524A11 
 270      F1AFD05A 
 270      505AB0
 271 003c 2A52502C 		.ascii	"*RP,\272\202\027\021[<\210)*,\350\315\213^DKa\235\367"
 271      BA821711 
 271      5B3C8829 
 271      2A2CE8CD 
 271      8B5E444B 
 272 0053 926CF303 		.ascii	"\222l\363\003v\227\3673\363\276y\363\315|\217\001\203"
 272      7697F733 
 272      F3BE79F3 
 272      CD7C8F01 
 272      83
 273 0064 CEEF208D 		.ascii	"\316\357 \215\003\012\300wZQ\001d\263\033\000\345 C"
 273      030AC077 
 273      5A510164 
 273      B31B00E5 
 273      2043
 274 0076 141B4098 		.ascii	"\024\033@\230b8u\001%\366\021s\\\317[\255\315\334\277"
 274      62387501 
 274      25F61173 
 274      5CCF5BAD 
 274      CDDCBF
 275 0089 8B2FD87E 		.ascii	"\213/\330~\005s\322\257B\225\363\331(\200!\315\021\232"
 275      0573D2AF 
 275      4295F3D9 
 275      288021CD 
 275      119A
 276 009b 45EC3964 		.ascii	"E\3549dbU\336B%\0100\000\213\234\317\271\236\273>t\213"
 276      6255DE42 
 276      25083000 
ARM GAS  /tmp/cc4YBHnC.s 			page 21


 276      8B9CCFB9 
 276      9EBB3E74 
 277 00b0 3BD505BE 		.ascii	";\325\005\276\343y\210&\022\2453(\"\317\223\201Q\271"
 277      E3798826 
 277      12A53328 
 277      22CF9381 
 277      51B9
 278 00c2 B09E768E 		.ascii	"\260\236v\216\302\007t?l@\345\327\362\364\323k\212\237"
 278      C207743F 
 278      6C40E5D7 
 278      F2F4D36B 
 278      8A9F
 279 00d4 B2BE71BC 		.ascii	"\262\276q\274\327\333a\246\343=\034\360\3718K\327\327"
 279      D7DB61A6 
 279      E33D1CF0 
 279      F9384BD7 
 279      D7
 280 00e5 43FDBEB5 		.ascii	"C\375\276\265|\343k\237o\\\375\364\215J\326q\021UJ-"
 280      7CE36B9F 
 280      6F5CFDF4 
 280      8D4AD671 
 280      11554A2D 
 281 00f9 D2331A0A 		.ascii	"\3223\032\012\015\231\031\351\177C&uK\251\267,\002\037"
 281      0D9919E9 
 281      7F432675 
 281      4BA9B72C 
 281      021F
 282 010b 719EDF3C 		.ascii	"q\236\337<a\222\267\225\320\356y\255q\336\240\336Z\264"
 282      6192B795 
 282      D0EE79AD 
 282      71DEA0DE 
 282      5AB4
 283 011d B335F30E 		.ascii	"\2635\363\016\371\034/\377\364\274>\023U\006.\356U\362"
 283      F91C2FFF 
 283      F4BC3E13 
 283      55062EEE 
 283      55F2
 284 012f A848F41E 		.ascii	"\250H\364\036*\317j\277\377bG\265\374\325\374Q\035W"
 284      2ACF6ABF 
 284      FF6247B5 
 284      FCD5FC51 
 284      1D57
 285 0141 65ADCD1A 		.ascii	"e\255\315\032T\0214\010+\234sgmS1\261\367\016\334.s"
 285      54113408 
 285      2B9C7367 
 285      6D5331B1 
 285      F70EDC2E 
 286 0156 1E363140 		.ascii	"\03661@w\211\024\022\002)\224QO\204)\274\275\202\377"
 286      77891412 
 286      02299451 
 286      4F8429BC 
 286      BD82FF
 287 0169 2654DDCF 		.ascii	"&T\335\317\017B:>\226\250\313\260\315\257\210\320\240"
 287      0F423A3E 
 287      96A8CBB0 
 287      CDAF88D0 
 287      A0
ARM GAS  /tmp/cc4YBHnC.s 			page 22


 288 017a 81BD0DAC 		.ascii	"\201\275\015\254\244d\342\276\366\322\\o\341e\207\236"
 288      A464E2BE 
 288      F6D25C6F 
 288      E165879E 
 289 018a 3A2EC96E 		.ascii	":.\311n\356)(\374W\320\255\035!\350Z\273\240?B\221\226"
 289      EE2928FC 
 289      57D0AD1D 
 289      21E85ABB 
 289      A03F4291 
 290 019f E7E62BFB 		.ascii	"\347\346+\373\247E\331/\323\352nW\0024\202\"\217A\304"
 290      A745D92F 
 290      D3EA6E57 
 290      02348222 
 290      8F41C4
 291 01b2 BBC5D571 		.ascii	"\273\305\325q\2056>\231\246\230:>\304H\335\363\001\312"
 291      85363E99 
 291      A6983A3E 
 291      C448DDF3 
 291      01CA
 292 01c4 EEF323F5 		.ascii	"\356\363#\365\353\232\337\010\211G\357Z@\373c1-\236"
 292      EB9ADF08 
 292      8947EF5A 
 292      40FB6331 
 292      2D9E
 293 01d6 3153E6D9 		.ascii	"1S\346\331\244\226\267\265\214\236\325l\313\320F\013"
 293      A496B7B5 
 293      8C9ED56C 
 293      CBD0460B 
 294 01e6 C5980183 		.ascii	"\305\230\001\203\355\207VQ+\344\255\242\255\235\034"
 294      ED875651 
 294      2BE4ADA2 
 294      AD9D1C
 295 01f5 4EC41313 		.ascii	"N\304\023\023\232\2211\362V\372\342\370\361\\,\003\352"
 295      9A9131F2 
 295      56FAE2F8 
 295      F15C2C03 
 295      EA
 296 0206 B89E2DA5 		.ascii	"\270\236-\245c\355\021\351\211\242\026O$O'5s\314\310"
 296      63ED11E9 
 296      89A2164F 
 296      244F2735 
 296      73CCC8
 297 0219 962EA535 		.ascii	"\226.\2455\031a\344N\225\306\014\012:\324\225\300\307"
 297      1961E44E 
 297      95C60C0A 
 297      3AD495C0 
 297      C7
 298 022a 65EC49BB 		.ascii	"e\354I\273\033!\370\345m\232\010*VB\204\023\311\341"
 298      1B21F8E5 
 298      6D9A082A 
 298      56428413 
 298      C9E1
 299 023c 684AB7D3 		.ascii	"hJ\267\323\005\313\034\212\036>\006\314\202@.\235\313"
 299      05CB1C8A 
 299      1E3E06CC 
 299      82402E9D 
 299      CB
ARM GAS  /tmp/cc4YBHnC.s 			page 23


 300 024d 5B93D043 		.ascii	"[\223\320Cu\024\376\001\326$\010n"
 300      7514FE01 
 300      D624086E 
 301              		.text
 302              		.section	.gnu.lto_gptStopTimerI.e7ac4ef78790529e,"",%progbits
 303 0000 789C6362 		.ascii	"x\234cb`b@\007\222@|\024\210\345\200\230\221\231\201"
 303      60624007 
 303      92407C14 
 303      88E58098 
 303      919981
 304 0013 9169C239 		.ascii	"\221i\3029\006\206F\016&FF\020\203\201\221\241\236\211"
 304      0686460E 
 304      26464610 
 304      838191A1 
 304      9E89
 305 0025 B13E9211 		.ascii	"\261>\222\021\254v=\323\201\007\377\377\257\233r~\331"
 305      AC763DD3 
 305      8107FFFF 
 305      AF9B727E 
 305      D9
 306 0036 19C6BD4C 		.ascii	"\031\306\275L\254L\214\271`qV\206\226\206\206\011\012"
 306      AC4C8CB9 
 306      60715686 
 306      96868609 
 306      0A
 307 0047 B98C405E 		.ascii	"\271\214@^2X$\004H\202\264\20722\201h\346\263\014M;"
 307      32582404 
 307      4882B487 
 307      32328168 
 307      E6B30C4D 
 308 005c 6E7CFBC9 		.ascii	"n|\373\311\230\310\270\220\221\225A\233aU\003\020\360"
 308      98C8B890 
 308      9195419B 
 308      61550310 
 308      F0
 309 006d 673232CC 		.ascii	"g22\314f\230\305\230\311\310\230\316\310\024\001\244"
 309      6698C598 
 309      C9C898CE 
 309      C81401A4 
 310 007d 21AE4B82 		.ascii	"!\256K\202X\306\000\022\001;\370<C\313\203\333\313\271"
 310      58C60012 
 310      013BF83C 
 310      43CB83DB 
 310      CBB9
 311 008f 219A1918 		.ascii	"!\232\031\030\252\031~5t4\010d22'3B\224\002\265g2\262"
 311      AA197E35 
 311      74340864 
 311      32322733 
 311      429402B5 
 312 00a6 30305C64 		.ascii	"00\\dh|pG\035\246\016\002B\200j\200N\000\231#\243\247"
 312      687C7047 
 312      1DA60E02 
 312      42806A80 
 312      4E009923 
 313 00bc A7EF9C91 		.ascii	"\247\357\234\221\231\224\351\037\254\237_\254\237\221"
 313      9994E91F 
 313      AC9F5FAC 
ARM GAS  /tmp/cc4YBHnC.s 			page 24


 313      9F91
 314 00ca 98A35F5C 		.ascii	"\230\243_\\\224\254\237^P\242\227\314\000\000\345B:"
 314      94AC9F5E 
 314      50A297CC 
 314      0000E542 
 314      3A
 315 00db DE       		.ascii	"\336"
 316              		.text
 317              		.section	.gnu.lto_gptPolledDelay.e7ac4ef78790529e,"",%progbits
 318 0000 789C6362 		.ascii	"x\234cb`b@\007\222@\314\315\310\300 \007\244\031\231"
 318      60624007 
 318      9240CCCD 
 318      C8C02007 
 318      A41999
 319 0013 19189926 		.ascii	"\031\030\231&\234c`h\344`bd\0041\030\030\031\352\231"
 319      9C636068 
 319      E4606264 
 319      04311818 
 319      19EA99
 320 0026 18EB2319 		.ascii	"\030\353#\031\301j\3273\035x\360\377\377\272/\347\367"
 320      C16AD733 
 320      1D78F0FF 
 320      FFBA2FE7 
 320      F7
 321 0037 AC613CC1 		.ascii	"\254a<\301\304\316\304\230\313\310\300\002$@\262\254"
 321      C4CEC498 
 321      CBC8C002 
 321      2440B2AC 
 322 0047 0C2D0D0D 		.ascii	"\014-\015\015\023\024r\031\201V$\203\225\207\000I\220"
 322      13147219 
 322      81562483 
 322      95870049 
 322      90
 323 0058 19A14021 		.ascii	"\031\241@! \315|\226\241i\307\217\377?\031\023\031\027"
 323      20CD7C96 
 323      A169C78F 
 323      FF3F1913 
 323      1917
 324 006a 32B23268 		.ascii	"2\2622h3\254j\000\002\376LF\206\331\014\263\0303\031"
 324      33AC6A00 
 324      02FE4C46 
 324      86D90CB3 
 324      183319
 325 007d 19D31999 		.ascii	"\031\323\031\231\"\2004\304\211I\020\033\031@\"\014"
 325      228034C4 
 325      8949101B 
 325      1940220C 
 326 008d 2C40C679 		.ascii	",@\306y\206\326\007\035/\271!\232\031\030\252\031~5"
 326      86D6071D 
 326      2FB9219A 
 326      1918AA19 
 326      7E35
 327 009f 74340864 		.ascii	"t4\010d22'3B\224\002\265\2473\262d2\002\025\203l\332"
 327      32322733 
 327      429402B5 
 327      A733B264 
 327      32021583 
ARM GAS  /tmp/cc4YBHnC.s 			page 25


 328 00b5 B1E81719 		.ascii	"\261\350\027\0316\201\204.24>\350\322\204Y\004\001!"
 328      3681842E 
 328      32343EE8 
 328      D2845904 
 328      0121
 329 00c7 404B807E 		.ascii	"@K\200~\000I\313\350\351\351;gd&e\372\007\353\347\027"
 329      0049CBE8 
 329      E9E93B67 
 329      642665FA 
 329      07EBE717 
 330 00db EB6724E6 		.ascii	"\353g$\346\350\027\027%\353\247\027\224\350%3\000\000"
 330      E8171725 
 330      EBA71794 
 330      E8253300 
 330      00
 331 00ec AB2A47DF 		.ascii	"\253*G\337"
 332              		.text
 333              		.section	.gnu.lto_.symbol_nodes.e7ac4ef78790529e,"",%progbits
 334 0000 789C4DC7 		.ascii	"x\234M\307I\016\202P\024D\321\367\013\351A`{n\246H\230"
 334      490E8250 
 334      1444D1F7 
 334      0BE94160 
 334      7B6EA648 
 335 0015 38C4BE37 		.ascii	"8\304\2767&$\306}8w\015\032\367a\004!\376w'7\007\002"
 335      2624C67D 
 335      38770D1A 
 335      F7610421 
 335      FE772737 
 336 002b 9918E943 		.ascii	"\231\030\351C\015\212\324\017\021\362<5\230\201Fq\016"
 336      0D8AD40F 
 336      11F23C35 
 336      98814671 
 336      0E
 337 003c 4271013A 		.ascii	"Bq\001:\212Kp\244\270\002]\3055\350)n@_q\013\006\212"
 337      8A4B70A4 
 337      B8025DC5 
 337      35E8296E 
 337      405F710B 
 338 0052 3B3054DC 		.ascii	";0T\334\203\221\342\001\214-\315\021Lz\226\2451'0\265"
 338      8391E201 
 338      8C2DCD11 
 338      4C7A96A5 
 338      312730B5 
 339 0066 BA8063AB 		.ascii	"\272\200c\253\006\314\254\256`nu\003\213\277\034I\244"
 339      06CCACAE 
 339      606E7503 
 339      8BBF1C49 
 339      A4
 340 0077 7A7E8C83 		.ascii	"z~\214\203T\336\335\235\261\334\273\273\2314\257\366"
 340      54DEDD9D 
 340      B1DCBBBB 
 340      9934AFF6 
 341 0087 5EFBCEFE 		.ascii	"^\373\316\376\340`p\230K\3259\312{\307\305\357\362\005"
 341      E0607098 
 341      4BD539CA 
 341      7BC7C5EF 
 341      F205
ARM GAS  /tmp/cc4YBHnC.s 			page 26


 342 0099 8D236A73 		.ascii	"\215#js"
 343              		.text
 344              		.section	.gnu.lto_.refs.e7ac4ef78790529e,"",%progbits
 345 0000 789C6362 		.ascii	"x\234cb`b`d\200\002\000\000F\000\006"
 345      60626064 
 345      80020000 
 345      460006
 346              		.text
 347              		.section	.gnu.lto_.decls.e7ac4ef78790529e,"",%progbits
 348 0000 789CBD5A 		.ascii	"x\234\275Z\013t\024\325\031\276wv\363X\362\020\360\205"
 348      0B7414D5 
 348      19BE7776 
 348      F358F210 
 348      F085
 349 0012 A7ED61A9 		.ascii	"\247\355a\251\245z\364\300\222D\005\333\243\0056)\354"
 349      A57AF4C0 
 349      924405DB 
 349      A3053629 
 349      EC
 350 0023 913CBA1B 		.ascii	"\221<\272\033zh\365\270\016\233\201\254n6qw\203\346"
 350      7A68F5B8 
 350      0E9B81AC 
 350      6E367177 
 350      83E6
 351 0035 1C5B2610 		.ascii	"\034[&\020\004|`B\202\004M!\221\247\332V\211\302\211"
 351      047C6042 
 351      82044D21 
 351      91A7DA56 
 351      89C289
 352 0048 95E08285 		.ascii	"\225\340\202\205\244\306\362P\214(U\326x\020\253\325"
 352      A4C6F250 
 352      8C2855D6 
 352      7810ABD5 
 353 0058 86E2AB88 		.ascii	"\206\342\253\210\244\377\2753\263;swf3KO;\347\374w\356"
 353      A4FFBD33 
 353      B33B7377 
 353      66334B4F 
 353      3BE7FC77 
 354 006d DCBDF7FB 		.ascii	"\334\275\367\373\377\357\377\377\271s\347\316r\210C"
 354      FFEFFFFF 
 354      B973E7CE 
 354      728843
 355 007c 2803A111 		.ascii	"(\003\241\0218\206\256E\210\207z\036B\350V\020\014\322"
 355      3886AE45 
 355      88877A1E 
 355      42E85610 
 355      0CD2
 356 008e 85A4633C 		.ascii	"\205\244c<\310N\220] \337\203\037\256\006\271\006\244"
 356      C84E905D 
 356      20DF831F 
 356      AE06B906 
 356      A4
 357 009f 086406C8 		.ascii	"\010d\006\310- \263A\346\200\334\006R\016R\011\362K"
 357      2D20B341 
 357      E680DC06 
 357      520E5209 
 357      F24B
ARM GAS  /tmp/cc4YBHnC.s 			page 27


 358 00b1 900520BF 		.ascii	"\220\005 \277\006\271\003\344N\214\222\016\202\013V"
 358      06B903E4 
 358      4E8C920E 
 358      820B56
 359 00c0 A0BBE0B7 		.ascii	"\240\273\340\267n\271\215\223\333+u\372\023\033\254"
 359      6EB98D93 
 359      DB2B75FA 
 359      131BAC
 360 00cf B26D2F81 		.ascii	"\262m/\201\364\200\354\223\307\354\005\211\312\266\357"
 360      F480EC93 
 360      C7EC0589 
 360      CAB6EF
 361 00de 92CF1318 		.ascii	"\222\317\023\030\014b\177\016\234\007@\362ArAxh\023"
 361      0C627F0E 
 361      9C0740F2 
 361      41724178 
 361      6813
 362 00f0 B084A360 		.ascii	"\260\204\243`\016\202\354\226\365p2.\301\267\311\030"
 362      0E82EC96 
 362      F570322E 
 362      C1B7C918 
 363 0100 8B41EE06 		.ascii	"\213A\356\006\251\001\251\223\2716\200<\000\262\024"
 363      A901A993 
 363      B936803C 
 363      00B214
 364 010f C402FDEC 		.ascii	"\304\002\375\354p\236\004\262\214\261\201\370o\214\201"
 364      709E04B2 
 364      8CB181F8 
 364      6F8C81
 365 011e 0D6ABD8A 		.ascii	"\015j\275\212-X\245\373j\035\335\013\030\335\304\336"
 365      2D58A5FB 
 365      6A1DDD0B 
 365      18DDC4DE 
 366 012e C9705ECD 		.ascii	"\311p^\315\350\275F\346\376\001H\226\201~E\347\307 "
 366      E8BD46E6 
 366      FE014896 
 366      817E45E7 
 366      C720
 367 0140 4332F718 		.ascii	"C2\367\030\310\005\220l\031\203\325\317\362v\300y\032"
 367      C805906C 
 367      1983D5CF 
 367      F276C079 
 367      1A
 368 0151 C81A467F 		.ascii	"\310\032F\177Q\012\337\023\235\327\343\004\357V\250"
 368      510ADF13 
 368      9DD7E304 
 368      EF56A8
 369 0160 5F8B13DC 		.ascii	"_\213\023\334\307\310\343Y\3353\344\374b\371\337\010"
 369      C7C8E359 
 369      DD33E4FC 
 369      62F9DF08 
 370 0170 E79B18FD 		.ascii	"\347\233\030\375\244o\006\343[V\017\207\022\230\204"
 370      A46F06E3 
 370      5B560F87 
 370      129884
 371 017f CB4FE0FC 		.ascii	"\313O\340\374S\2206\006\353\226\377\222\313-:\\f\033"
 371      53903606 
ARM GAS  /tmp/cc4YBHnC.s 			page 28


 371      EB96FF92 
 371      CB2D3A5C 
 371      661B
 372 0191 70F9199C 		.ascii	"p\371\031\234g2\372g\233\3442[\305\245\030\316% \033"
 372      6732FA67 
 372      9BE4325B 
 372      C5A518CE 
 372      25201B
 373 01a4 18AC3929 		.ascii	"\030\2549)\362\261G\245C\311M5\2179:<n\223\357w5\017"
 373      F2B147A5 
 373      43C94D35 
 373      8F393A3C 
 373      6E93EF77 
 374 01ba 32C6C5E8 		.ascii	"2\306\305\350\275M\207\003\253\203C\011<R/\205\363F"
 374      BD4D8703 
 374      AB834309 
 374      3C522F85 
 374      F346
 375 01cc 06A7DCA4 		.ascii	"\006\247\334\244/H\277;e_\374\002\316n\220\315\014V"
 375      2F48BF3B 
 375      655FFC02 
 375      CE6E90CD 
 375      0C56
 376 01de 167A5014 		.ascii	"\026zP\024\227\211\261\025\313&\264\347\223[\213\307"
 376      9789B115 
 376      CB26B4E7 
 376      935B8BC7 
 377 01ee F936C87C 		.ascii	"\3716\310|R\311\265Q\270\311h\213(6\307N\235\300v\036"
 377      52C9B551 
 377      B8C9688B 
 377      2836C74E 
 377      9DC0761E 
 378 0202 77E12CC0 		.ascii	"w\341,\300\206\273\362:\364\264\010\315\242\270\377"
 378      86BBF23A 
 378      F4B408CD 
 378      A2B8FF
 379 0211 4A947C98 		.ascii	"J\224|\230\200%>\337\012h<\336\202\257\223\224\210\321"
 379      80253EDF 
 379      0A683CDE 
 379      82AF9394 
 379      88D1
 380 0223 371BEC52 		.ascii	"7\033\354R+\222\333u\016\013!\307\221\214'hV[\242if"
 380      2B92DB75 
 380      0E0B21C7 
 380      918C2768 
 380      565BA269 
 381 0238 BC09AB3A 		.ascii	"\274\011\253:\272\342\255\234\252\325\023o\265\250Z"
 381      BAE2AD9C 
 381      AAD5136F 
 381      B5A85A
 382 0247 17C65BAD 		.ascii	"\027\306[\255\2626r\211m\211\312\210\326\201j\016<\336"
 382      B2367289 
 382      6D89CA88 
 382      D6816A0E 
 382      3CDE
 383 0259 862743B9 		.ascii	"\206'C\271\035[t\207MD\033\305\316X\254w\345\236\314"
 383      1D5B7487 
ARM GAS  /tmp/cc4YBHnC.s 			page 29


 383      4D441BC5 
 383      CE58AC77 
 383      E59ECC
 384 026c 0D62B449 		.ascii	"\015b\264I\034\031Y\212\256@\353\200\267\330\011\356"
 384      1C19598A 
 384      AE40EB80 
 384      B7D809EE 
 385 027c C2111EDF 		.ascii	"\302\021\036\337z\271\342+\273\342+\253\254\247\033"
 385      7AB9E22B 
 385      BBE22BAB 
 385      ACA71B
 386 028b 5F21D7E6 		.ascii	"_!\327\346[$\335\034z\030c\306O?F[\011\236\270C\264"
 386      5B24DD1C 
 386      7A1863C6 
 386      4F3F465B 
 386      099EB843 
 387 02a0 5034D27F 		.ascii	"P4\322\177'\236\2505\371\005\314\251\033$\273\242\355"
 387      279EA835 
 387      F905CCA9 
 387      1B24BBA2 
 387      ED
 388 02b1 07739B1B 		.ascii	"\007s\233\033c##\023\315\333\264[\266\311\"\2716\007"
 388      63232313 
 388      CDDBB45B 
 388      B6C922B9 
 388      3607
 389 02c3 3D44A20E 		.ascii	"=D\242\016\003\347\366\347\217G-\004\305\336\237\210"
 389      03E7F6E7 
 389      8F472D04 
 389      C5DE9F88 
 390 02d3 BF881580 		.ascii	"\277\210\025\200\261\211\274Z\261\351\007\242\225\307"
 390      B189BC5A 
 390      B1E907A2 
 390      95C7
 391 02e1 2FE1F100 		.ascii	"/\341\361\000\322\312\020\032\025\204\307/\003\031\036"
 391      D2CA101A 
 391      1584C72F 
 391      03191E
 392 02f0 EF81E1EA 		.ascii	"\357\201\341\352L\212}\373\332\371\225\270\021\030H"
 392      4C8A7DFB 
 392      DAF995B8 
 392      111848
 393 02ff BFA5C8A7 		.ascii	"\277\245\310\247I\250\023\254\216~{r\343\225b,\212\225"
 393      49A813AC 
 393      8E7E7B72 
 393      E395622C 
 393      8A95
 394 0311 1C3F424D 		.ascii	"\034?BM!c\365\262W\256&r$\337\306\340\265\016\015[H"
 394      2163F5B2 
 394      57AE2672 
 394      24DFC6E0 
 394      B50E0D5B 
 395 0326 982D7A5E 		.ascii	"\230-z^\201\036x\024\307D\3379\211\355&\370\277\012"
 395      811E7814 
 395      C744DF39 
 395      89ED26F8 
 395      BF0A
ARM GAS  /tmp/cc4YBHnC.s 			page 30


 396 0338 39376A37 		.ascii	"97j7\322\361\000\343\242\350\227\357\347\022\317\037"
 396      D2F100E3 
 396      A2E897EF 
 396      E712CF1F 
 397 0348 30E59E96 		.ascii	"0\345\236\226\223\033\257\022;\367C*\257J\260A\272\231"
 397      931BAF12 
 397      3BF7432A 
 397      AF4AB041 
 397      BA99
 398 035a 21DBFFCA 		.ascii	"!\333\377\312\306\313\011|?&7\336 \023X\3230\261\226"
 398      C6CB097C 
 398      3F2637DE 
 398      201358D3 
 398      30B196
 399 036d C70EECC3 		.ascii	"\307\016\354\303\313h \007(\3241\356b\241\276}|\317"
 399      CB682007 
 399      28D431EE 
 399      62A1BE7D 
 399      7CCF
 400 037f CDA298CD 		.ascii	"\315\242\230\315\343C\024h\310\242\005\342q\226M\315"
 400      E3431468 
 400      C8A205E2 
 400      71964DCD 
 401 038f 9C5E2B1D 		.ascii	"\234^+\035\010Z\226-Q!\213\310K\320\377\270;\207>\243"
 401      085A962D 
 401      51218BC8 
 401      4BD0FFB8 
 401      3B873EA3 
 402 03a3 361E4864 		.ascii	"6\036Hd\241\206\327\250Y\010\267\301\351\267q\353r\261"
 402      A186D7A8 
 402      5908B7C1 
 402      E9B771EB 
 402      72B1
 403 03b5 7F9A260D 		.ascii	"\177\232&\015\245[7\205\253N\015E9\352\2527q\016\230"
 403      A55B3785 
 403      AB4E0D45 
 403      39EAAA37 
 403      710E98
 404 03c8 F135E32A 		.ascii	"\3615\343*\223`\204\345 \000\350'W\322o\034ZaM\227\256"
 404      936084E5 
 404      2000E827 
 404      57D26F1C 
 404      5A614D97 
 405 03dd 9DA1FBB9 		.ascii	"\235\241\373\271LW\311\2265f\020\263\015\035\030\035"
 405      4C57C996 
 405      356610B3 
 405      0D1D181D 
 406 03ed 3C99DBCC 		.ascii	"<\231\333\314+`k\323\006\263'q\226\236\024\007\351\223"
 406      2B606BD3 
 406      06B32771 
 406      969E1407 
 406      E993
 407 03ff A20F4F82 		.ascii	"\242\017O\202\362\015Z\036\247\345\273P\306\017\016"
 407      F20D5A1E 
 407      A7E5BB50 
 407      C60F0E
 408 040e ADB7B229 		.ascii	"\255\267\262)*\335\255*\274\304m\215FG4\012\322>\234"
ARM GAS  /tmp/cc4YBHnC.s 			page 31


 408      2ADDAD2A 
 408      BCC46D8D 
 408      4647340A 
 408      D23E9C
 409 0421 9350DA65 		.ascii	"\223P\332eef\276\364\202\020\355\036\352\307\342\332"
 409      6566BEF4 
 409      8210ED1E 
 409      EAC7E2DA 
 410 0431 5CC5693B 		.ascii	"\\\305i;\314\300\245\210\300\313\251&R\315\224\227\251"
 410      CCC0A588 
 410      C0CBA926 
 410      52CD9497 
 410      A9
 411 0442 A0DD85E2 		.ascii	"\240\335\205\342\211\334\373\341pp9\235=\206\350\023"
 411      89DCFBE1 
 411      7070399D 
 411      3D86E813 
 412 0452 E643EBE8 		.ascii	"\346C\353\350O\030\015\016q\317)v\352l=A\247\316S\243"
 412      4F180D0E 
 412      71CF2976 
 412      EA6C3D41 
 412      A7CE53A3 
 413 0466 4F9D4DCB 		.ascii	"O\235M\313\243\353Nt$\246\316\345)'*\036\277N\023\303"
 413      A3EB4E74 
 413      24A6CEE5 
 413      29272A1E 
 413      BF4E13C3 
 414 047a CCD4F04F 		.ascii	"\314\324\360O\312\344\324\305M\015`\326\343'hf\177L"
 414      CAE4D4C5 
 414      4D0D60D6 
 414      E3276866 
 414      7F4C
 415 048c 8374366D 		.ascii	"\203t6m0\273\006\254]\015\366\265\0310\243\210\003\330"
 415      30BB06AC 
 415      5D0DF6B5 
 415      1930A388 
 415      03D8
 416 049e 136AB0F3 		.ascii	"\023j\260\363i\203i-\353P\2035f\230\000\033kl\331F5"
 416      6983692D 
 416      EB508335 
 416      6698001B 
 416      6B6CD946 
 417 04b3 5853DA60 		.ascii	"XS\332`Z\313\236W\203\2552\0036\301\330\262n5\330\232"
 417      5ACB9E57 
 417      83AD3203 
 417      36C1D8B2 
 417      6E35D89A 
 418 04c7 B4C1B496 		.ascii	"\264\301\264\226\275\250\006k3\003f7\266l\267\032lC"
 418      BDA8066B 
 418      33036637 
 418      B66CB71A 
 418      6C43
 419 04d9 DA605ACB 		.ascii	"\332`Z\313z\324`\2773\003v\255\261e\177R\203u\245\015"
 419      7AD460BF 
 419      330376AD 
 419      B1657F52 
 419      8375A50D 
ARM GAS  /tmp/cc4YBHnC.s 			page 32


 420 04ed A6B56C8F 		.ascii	"\246\265l\217\032l\253\031\260iF\2265F\367\336\336\314"
 420      1A6CAB19 
 420      B0694696 
 420      3546F7DE 
 420      DECC
 421 04ff 8F43CDF2 		.ascii	"\217C\315\362\314$\241\032,\354\324\335\006\214\273"
 421      CC24A11A 
 421      2CECD4DD 
 421      068CBB
 422 050e F1B8891B 		.ascii	"\361\270\211\033Gkt\032\022\343\317\356\\\233\256\215"
 422      476B741A 
 422      12E3CFEE 
 422      5C9BAE8D 
 423 051e 64C40ACE 		.ascii	"d\304\012\316\02671\327\226\250XP\342H\364\002\332O"
 423      163731D7 
 423      96A85850 
 423      E248F402 
 423      DA4F
 424 0530 B3B4B556 		.ascii	"\263\264\265V\350\361\326:\361\210\332\211\1770\343"
 424      E8F1D63A 
 424      F188DA89 
 424      7F30E3
 425 053f C499C660 		.ascii	"\304\231\306`o\250\301\272\315\200\3155\316\225cj\260"
 425      6FA8C1BA 
 425      CD80CD35 
 425      CE95636A 
 425      B0
 426 0550 DD698369 		.ascii	"\335i\203i-\033T\203\275l\006\254\302\330\262\343j\260"
 426      2D1B5483 
 426      BD6C06AC 
 426      C2D8B2E3 
 426      6AB0
 427 0562 BD6983A9 		.ascii	"\275i\203\251-k\214\276\233H\274\316\231L\346\315\324"
 427      2D6B8CBE 
 427      9B48BCCE 
 427      994CE6CD 
 427      D4
 428 0573 CEB69A6E 		.ascii	"\316\266\232n\003\206\335x\334\232v\342\265\031$\236"
 428      0386DD78 
 428      DC9A76E2 
 428      B519249E 
 429 0583 FADD3BD1 		.ascii	"\372\335;\321\013h\377\231\245\2551B\256.\320\361\241"
 429      0B68FF99 
 429      A5AD3142 
 429      AE2ED0F1 
 429      A1
 430 0594 DEA17EDE 		.ascii	"\336\241~\336\363\370#\372@>M\327R\237\320\362\037\264"
 430      F3F823FA 
 430      403E4DD7 
 430      529FD0F2 
 430      1FB4
 431 05a6 FC9C96C3 		.ascii	"\374\234\226\303\264\374\027-\277\240\345W\264\374\206"
 431      B4FC172D 
 431      BFA0E557 
 431      B4FC86
 432 05b5 96E76879 		.ascii	"\226\347hy\236\226\027h)r\244\\F\313\225\264\\M\313"
 432      9E961768 
ARM GAS  /tmp/cc4YBHnC.s 			page 33


 432      2972A45C 
 432      46CB95B4 
 432      5C4DCB
 433 05c8 8769F928 		.ascii	"\207i\371(-\037\243e\013gb\335\366\201z\335\366\227"
 433      2D1FA365 
 433      0B6762DD 
 433      F6817ADD 
 433      F697
 434 05da 8C74175A 		.ascii	"\214t\027Z\366TN\330\243rB/u\302^J!J\313\367i\0313\263"
 434      F6544ED8 
 434      A372422F 
 434      75C25E4A 
 434      214ACBF7 
 435 05f2 B8EC4918 		.ascii	"\270\354I\030\231\330\274\240\026\3775C\273\030\373"
 435      99D8BCA0 
 435      16FF3543 
 435      BB18FB
 436 0601 11DA2C8A 		.ascii	"\021\332,\212kc\275+\017\236!\253\370\271\322X\016\235"
 436      6B63BD2B 
 436      0F9E21AB 
 436      F8B9D258 
 436      0E9D
 437 0613 A0FD76E1 		.ascii	"\240\375v\341\211\006\213&Y\203\274\371\361\250\270"
 437      89068B26 
 437      5983BCF9 
 437      F1A8B8
 438 0622 622C8EEF 		.ascii	"b,\216\357~\354bw?\326sz\273\037\307\322\337\375\350"
 438      7EEC6277 
 438      3FD6737A 
 438      BB1FC7D2 
 438      DFFDE8
 439 0635 E034BB1F 		.ascii	"\3404\273\037\222\031\361\013yI\3150\216\3512\026\277"
 439      9219F10B 
 439      7949CD30 
 439      8EE93216 
 439      BF
 440 0646 AC92B9F2 		.ascii	"\254\222\271\362x\003G\3663\236\344Rr\225\207\275)\314"
 440      780347F6 
 440      339EE452 
 440      729587BD 
 440      29CC
 441 0658 9514F1F8 		.ascii	"\225\024\361\370=\234z\330\276\024.\"\2434.\332\244"
 441      3D9C7AD8 
 441      BE142E22 
 441      A3342EDA 
 441      A4
 442 0669 EBA28E3E 		.ascii	"\353\242\216>\331E\322\013\037\207\376\256O\346,Kfs"
 442      D945D20B 
 442      1F87FEAE 
 442      4FE62C4B 
 442      6673
 443 067b 6A320656 		.ascii	"j2\006Vmf\255\332\242k\325\271\276\264\003\267#E\340"
 443      6D66ADDA 
 443      A26BD5B9 
 443      BEB403B7 
 443      2345E0
 444 068e D2D84D78 		.ascii	"\322\330Mxhp\273\2741\361,G\346\3363\214;\244YQC\301"
ARM GAS  /tmp/cc4YBHnC.s 			page 34


 444      6870BBBC 
 444      31F12C47 
 444      E6DE338C 
 444      3BA45951 
 445 06a4 D40E0193 		.ascii	"\324\016\001\2232\347\014n\222\276\013;q[\374&Q|\275"
 445      32E70C6E 
 445      92BE0B3B 
 445      715BFC26 
 445      517CBD
 446 06b7 DD54E2BC 		.ascii	"\335T\342\274E\022G\262\372\221L\234r\330\263\322,\253"
 446      451247B2 
 446      FA914C9C 
 446      72D8B3D2 
 446      2CAB
 447 06c9 1BA2ED6C 		.ascii	"\033\242\355l\210\376\250\033\242#\257\305\023\207\270"
 447      88FEA81B 
 447      A223AFC5 
 447      1387B8
 448 06d8 9E43EB32 		.ascii	"\236C\3532u\023g\203\300\220y\301\024\231\267\0252<"
 448      75136783 
 448      C09079C1 
 448      1499B715 
 448      323C
 449 06ea DE39CAB0 		.ascii	"\3369\312\260Td^`\311\274\230L&6\034\275 \223\3314S"
 449      54645E60 
 449      C9BC984C 
 449      26361CBD 
 449      2093D934 
 450 06ff 61B3439F 		.ascii	"a\263C\237\315\223,\233\036Sl\336a\331\030\017K\305"
 450      CD932C9B 
 450      1E536CDE 
 450      61D9180F 
 450      4BC5
 451 0711 A68765F3 		.ascii	"\246\207e\363\222\376\2647\300\204f\217>\231V\226L\257"
 451      92FEB437 
 451      C084668F 
 451      3E995696 
 451      4CAF
 452 0723 29324759 		.ascii	")2GY2\306\303R\221\351e\311\354\325\015\315\332Clh^"
 452      32C6C352 
 452      91E965C9 
 452      ECD50DCD 
 452      DA436C68 
 453 0738 D767B38E 		.ascii	"\327g\263\216e\263\337\374t\253fc<,\025\233\375,\233"
 453      65B3DFFC 
 453      74AB6663 
 453      3C2C159B 
 453      FD2C9B
 454 074b 57754373 		.ascii	"WuCs\374\0203\335\276\247O\346;v\272\355\273\250\351"
 454      FC1033DD 
 454      BEA74FE6 
 454      3B76BAED 
 454      BBA8E9
 455 075e B68FB5AA 		.ascii	"\266\217\265\252_\327\307m\207\023>\226\314\372D\337"
 455      5FD7C76D 
 455      87133E96 
 455      CCFA44DF 
ARM GAS  /tmp/cc4YBHnC.s 			page 35


 456 076e AC11D6AC 		.ascii	"\254\021\326\254\201\2132k\2005\353u]g}q\230\311\343"
 456      818B326B 
 456      8035EB75 
 456      5D677D71 
 456      98C9E3
 457 0781 6FF4AD6A 		.ascii	"o\364\255ja#\177\330T\344_a#o<,U\344\017\263d\216\350"
 457      61237FD8 
 457      54E45F61 
 457      236F3C2C 
 457      55E40FB3 
 458 0798 F8983C59 		.ascii	"\370\230<Y\276\274\252\275[lZ-^\030Y\212\245O?\034Z"
 458      BEBCAABD 
 458      5B6C5A2D 
 458      5E18598A 
 458      A54F3F1C 
 459 07ad 99C57EEC 		.ascii	"\231\305~\354\2210\336\322\303\210\016\236\356\307\253"
 459      9130DED2 
 459      C3880E9E 
 459      EEC7AB
 460 07bc D68AE747 		.ascii	"\326\212\347GF,H\211T\233\001\302\333\272\010\307u\020"
 460      462C4889 
 460      549B01C2 
 460      DBBA08C7 
 460      7510
 461 07ce 9E32     		.ascii	"\2362"
 462 07d0 40784717 		.ascii	"@xG\027\341]\015\202\024\227\347\014\020N\350\"\374"
 462      E15D0D82 
 462      1497E70C 
 462      104EE822 
 462      FC
 463 07e1 4DC78657 		.ascii	"M\307\206W\015\020\336\323Ex_\307\206A\003\204\223Z"
 463      0D10DED3 
 463      45785FC7 
 463      86410384 
 463      935A
 464 07f3 046693BB 		.ascii	"\004f\223\273;\305&w\214\213/q\343\257E\355\371\362"
 464      3BC52677 
 464      8C8B2F71 
 464      E3AF45ED 
 464      F9F2
 465 0805 5A22B655 		.ascii	"Z\"\266U\2340!\276\224H\376\266J\276\242r<\036\242\217"
 465      9C3021BE 
 465      9448FEB6 
 465      4ABEA272 
 465      3C1EA28F 
 466 0819 E34FB398 		.ascii	"\343O\263\230/\264\011\363\206ToER]\251\221\257\213"
 466      2FB409F3 
 466      86546F45 
 466      525DA991 
 466      AF8B
 467 082b 32FC5805 		.ascii	"2\374X\005\236\223G} \277}\251\336\227\224-\203\366"
 467      9E93477D 
 467      20BF7DA9 
 467      DE97942D 
 467      83F6
 468 083d 7C69B83C 		.ascii	"|i\270<t\20624K\036p*\355\027\267\217\014^\3342UA\211"
 468      74863234 
ARM GAS  /tmp/cc4YBHnC.s 			page 36


 468      4B1E702A 
 468      ED17B78F 
 468      0C5EDC32 
 469 0854 0EC78E8E 		.ascii	"\016\307\216\216\034\377\315\357\273E\221&xcS<\305\327"
 469      1CFFCDEF 
 469      BB459126 
 469      7863533C 
 469      C5D7
 470 0866 669BF99E 		.ascii	"f\233\371\236y\232\275\213>N\216<(9\377\324\321\333"
 470      799ABD8B 
 470      3E4E8E3C 
 470      2839FFD4 
 470      D1DB
 471 0878 95EFAC93 		.ascii	"\225\357\254\223\024\015QS\032>a5|\252\253\341\305m"
 471      140D5153 
 471      1A3E6135 
 471      7CAAABE1 
 471      C56D
 472 088a FB1A9234 		.ascii	"\373\032\2224|eJ\303g\254\206\317u5\264<s\364\021\334"
 472      7C654AC3 
 472      67AC86CF 
 472      7535B43C 
 472      73F411DC 
 473 089e F2DC8322 		.ascii	"\362\334\203\"\231\334\226n\2126[\315\257r\317\260\253"
 473      99DC966E 
 473      8A365BCD 
 473      AF72CFB0 
 473      AB
 474 08af 5CB21A65 		.ascii	"\\\262\032e\326\226\317\331\324\306\312\037\301{mr\012"
 474      D696CFD9 
 474      D4C6CA1F 
 474      C17B6D72 
 474      0A
 475 08c0 2A0F7178 		.ascii	"*\017qx5\302\312n\376\000\0351l8\375\311K^\231\363\331"
 475      35C2CA6E 
 475      FE001D31 
 475      6C38FDC9 
 475      4B5E99F3 
 476 08d5 C68A0971 		.ascii	"\306\212\011q\316\303,\347\263\272\234\217\216\014\377"
 476      CEC32CE7 
 476      B3BA9C8F 
 476      8E0CFF
 477 08e4 562F398E 		.ascii	"V/9\216\332\3148\366\337\254\222s\006\311q\346\216\244"
 477      DACC38F6 
 477      DFAC9273 
 477      06C971E6 
 477      8EA4
 478 08f6 D09D34A5 		.ascii	"\320\2354\245\341<\253\341;\243\344x I\303\247\2464"
 478      E13CABE1 
 478      3BA3E478 
 478      2049C3A7 
 478      A634
 479 0908 8CB01A44 		.ascii	"\214\260\032D\213F\303\017Q\227x\344\010\274&\017\026"
 479      8B46C30F 
 479      519778E4 
 479      08BC260F 
 479      16
ARM GAS  /tmp/cc4YBHnC.s 			page 37


 480 0919 3436471B 		.ascii	"46G\033;\311\354\206q\342\256\216\317;Q\303\177_\360"
 480      3BC9EC86 
 480      71E2AE8E 
 480      CF3B51C3 
 480      7F5FF0
 481 092c F8436EB2 		.ascii	"\370Cn\262\3319e\2562R\352k0}0\275x\274\302\222\356"
 481      D93965AE 
 481      3252EA6B 
 481      307D30BD 
 481      78BCC292 
 482 0941 F4F1A045 		.ascii	"\364\361\240E\177\372\310\326xC\351E\2764P\177\252\336"
 482      7FFAC8D6 
 482      7843E945 
 482      BE34507F 
 482      AADE
 483 0953 7A192338 		.ascii	"z\031#8$\216Q\376lB*\222\347\242\317\367\211\331\317"
 483      248E51FE 
 483      6C422A92 
 483      E7A2CFF7 
 483      89D9CF
 484 0966 8BAB4868 		.ascii	"\213\253HhT\3235\217\233,\243nv1\244\2236\273\036N\233"
 484      54D3358F 
 484      9B2CA36E 
 484      7631A493 
 484      36BB1E4E 
 485 097b F42306A4 		.ascii	"\364#\006\244\2634\244\225^P]ia^\252\031#8\264F\217"
 485      B334A495 
 485      5E505D69 
 485      615EAA19 
 485      2338B446 
 486 0990 F48524D2 		.ascii	"\364\205$\322v\206ss|\267v|\252@\263\335x\334\2346\351"
 486      76867373 
 486      7CB7767C 
 486      AA40B3DD 
 486      78DC9C36 
 487 09a5 1603D2E3 		.ascii	"\026\003\322\3434\244[X\322\252\327T\326\012\016uhX"
 487      34A45B58 
 487      D2AAD754 
 487      D60A0E75 
 487      6858
 488 09b7 334F6FF2 		.ascii	"3Oo\362\34472\246\325\022\177z\313\276j\033\030\315"
 488      E43732A6 
 488      D5127F7A 
 488      CBBE6A1B 
 488      18CD
 489 09c9 579D71F5 		.ascii	"W\235q\365\227\245\362\025\333\215\307\217\247\355\253"
 489      97A5F215 
 489      DB8DC78F 
 489      A7EDAB
 490 09d8 F506BEBA 		.ascii	"\365\006\276\272T\343\253\365\254\257T\357\215\254\025"
 490      54E3ABF5 
 490      ACAF54EF 
 490      8DAC15
 491 09e7 1C7A462F 		.ascii	"\034zF/C\332\017\215\306z\025\326\006\312\2005\333\015"
 491      43DA0F8D 
 491      C67A15D6 
 491      06CA8035 
ARM GAS  /tmp/cc4YBHnC.s 			page 38


 491      DB0D
 492 09f9 6ED1B459 		.ascii	"n\321\264Yw\030\260\036\253a\335\301\262V\275\222\261"
 492      7718B01E 
 492      AB61DDC1 
 492      B256BD92 
 492      B1
 493 0a0a 5670A847 		.ascii	"Vp\250G\217\365\023\207Gc]\247\340\344\247\"\315\364"
 493      8FF51387 
 493      47635DA7 
 493      E0E4A722 
 493      CDF4
 494 0a1c E27167DA 		.ascii	"\342qg\332\234\273\0148\347i8w\261\234UoV\214\021\034"
 494      9CBB0C38 
 494      E7693877 
 494      B19C556F 
 494      568C111C 
 495 0a30 3AA847F9 		.ascii	":\250G\371\233Q)\337\257\340\\\222\2122\323\213\307"
 495      9B5129DF 
 495      AFE05C92 
 495      8A32D38B 
 495      C7
 496 0a41 5BD3A6BC 		.ascii	"[\323\246\274\315\200r\276\206\3626\226\262\352\375"
 496      CD8072BE 
 496      86F23696 
 496      B2EAFD
 497 0a50 8B318243 		.ascii	"\2131\202C\3074\224\221}\352T\207\263\332\277\320_\356"
 497      C7349491 
 497      7DEA5487 
 497      B3DABFD0 
 497      5FEE
 498 0a62 71D4861D 		.ascii	"q\324\206\035\325|\300\341\017\372\002\365U\202cq]d"
 498      D57CC0E1 
 498      0FFA02F5 
 498      55826371 
 498      5D64
 499 0a74 6A351A03 		.ascii	"j5\032\003\247p\204\217\010\336H\346\234\262\371v'\032"
 499      A770848F 
 499      08DE48E6 
 499      9CB2F976 
 499      271A
 500 0a86 33A7A2D2 		.ascii	"3\247\242\322;\277\314U\346\252\314&UOey\205\215T\334"
 500      3BBFCC55 
 500      E6AACC26 
 500      554F6579 
 500      858D54DC 
 501 0a9a 25B38A7F 		.ascii	"%\263\212\177\225Oj\316\362\262JW\331\374\362\371\236"
 501      954F6ACE 
 501      F2B24A57 
 501      D9FCF2F9 
 501      9E
 502 0aab 1C72595E 		.ascii	"\034rY^V\342\231[^\371\375d]\341\220\217\352\361\241"
 502      56E2995B 
 502      5EF9FD64 
 502      5DE1908F 
 502      EAF1A1
 503 0abe 2C38B982 		.ascii	",8\271\202\376\010A*\016\371\227\010\241\302\344\356"
 503      FE08412A 
ARM GAS  /tmp/cc4YBHnC.s 			page 39


 503      0EF99708 
 503      A1C2E4EE 
 504 0ace 75B5A148 		.ascii	"u\265\241H\330\341\251,-*t\314\233W\354\250t\225.) "
 504      D8E1A92C 
 504      2D2A74CC 
 504      9B57ECA8 
 504      74952E29 
 505 0ae3 00DE40A0 		.ascii	"\000\336@\240\012\214\315\240\226\332\240aQH\270\327"
 505      0A8CCDA0 
 505      96DAA061 
 505      5148B8D7 
 506 0af3 0B7D838B 		.ascii	"\013}\203\213\250\334\350\250\256\255\021\034!!,\360"
 506      A8DCE8A8 
 506      AEAD111C 
 506      21212CF0 
 507 0b03 215F3580 		.ascii	"!_5\200\205\252\356\343C\202\203\017\325\024:\026\373"
 507      85AAEEE3 
 507      4382830F 
 507      D5143A16 
 507      FB
 508 0b14 7C53A032 		.ascii	"|S\2402E\250Y(TU\011U\361\206`mP\230\"\360\013\375S"
 508      45A85928 
 508      54550955 
 508      F186606D 
 508      509822F0 
 509 0b2b 6EF0CE98 		.ascii	"n\360\316\230R8\255\340\206{\013\035\232\037\342\336"
 509      5238ADE0 
 509      867B0B1D 
 509      9A1FE2DE 
 510 0b3b 0A47AAFC 		.ascii	"\012G\252\374A\342\260\354z8\027\025z#\313\361\377O"
 510      41E2B0EC 
 510      7A381715 
 510      7A23CBF1 
 510      FF4F
 511 0b4d 7B0DEFAB 		.ascii	"{\015\357\253\366\007\005\207\267JX\304\327\007\"\336"
 511      F6070587 
 511      B74A58C4 
 511      D70722DE 
 512 0b5d 48439D10 		.ascii	"HC\235\020&\341\363z\025{l\304'\365B\320\327\220\007"
 512      26E1F37A 
 512      157B6CC4 
 512      27F542D0 
 512      D79007
 513 0b70 0EF2F181 		.ascii	"\016\362\361\201\300B\336w\2177\222\255T-\276P\241\265"
 513      C042DE77 
 513      8F3792AD 
 513      542DBE50 
 513      A1B5
 514 0b82 CA2F8448 		.ascii	"\312/\204H\014\234\265\301E\376\305\231>z\312\360\005"
 514      0C9CB5C1 
 514      45FEC599 
 514      3E7ACAF0 
 514      05
 515 0b93 6A7DF7DC 		.ascii	"j}\367\334`6 \341H\015Q\350\257\001\003r\342\027\336"
 515      603620E1 
 515      480D51E8 
 515      AF010372 
ARM GAS  /tmp/cc4YBHnC.s 			page 40


 515      E217DE
 516 0ba6 88C5E92E 		.ascii	"\210\305\351.\000)\264zJ\235nk\261\253\304\315y\334"
 516      0029B47A 
 516      4A9D6E6B 
 516      B1ABC4CD 
 516      79DC
 517 0bb8 969239EE 		.ascii	"\226\2229\356\014\247\263\324]@\313B\253\323Y\342\266"
 517      0CA7B3D4 
 517      5D40CB42 
 517      ABD359E2 
 517      B6
 518 0bc9 38CB2A2D 		.ascii	"8\313*-\025\036\247e\226\333mq;\341\032\006\314.\256"
 518      151EA765 
 518      96DB6D71 
 518      3BE11A06 
 518      CC2EAE
 519 0bdc 745B8AC9 		.ascii	"t[\212\311\310\322Yn\256\\\032U\004\375\027\270-\200"
 519      C8D2596E 
 519      AE5C1A55 
 519      04FD17B8 
 519      2D80
 520 0bee 4F58952F 		.ascii	"OX\225/\274[\360\321<\262\302U]6\024\236\010\037\212"
 520      BC5BF0D1 
 520      3CB2C255 
 520      5D36149E 
 520      081F8A
 521 0c01 64D14A2D 		.ascii	"d\321J-m\360\005\301=\343\240\342\254\346\203\213\005"
 521      6DF005C1 
 521      3DE3A0E2 
 521      ACE6838B 
 521      05
 522 0c12 57302284 		.ascii	"W0\"\204\226\360\201l\277\\\031\257\014\002\027D\374"
 522      96F0816C 
 522      BF5C19AF 
 522      0C021744 
 522      FC
 523 0c23 C1FADAFA 		.ascii	"\301\372\332\372\360\245\311M\256K\224\266\362\240\340"
 523      F0A5C94D 
 523      AE4B94B6 
 523      F2A0E0
 524 0c32 A9AE8D8C 		.ascii	"\251\256\215\214e\256]\271\262\316J\177\215\020\312"
 524      65AE5DB9 
 524      B2CE4A7F 
 524      8D10CA
 525 0c41 535FB8F2 		.ascii	"S_\270\362\341\252\2426\020\020\252\212\205\000\337"
 525      E1AAA236 
 525      1010AA8A 
 525      8500DF
 526 0c50 902B67B0 		.ascii	"\220+g\260\327\017\206\347)\027a\002\226\233\270\252"
 526      D70F86E7 
 526      29176102 
 526      969BB8AA 
 527 0c60 ADBB54F3 		.ascii	"\255\273T\363\023\361\251\020\032\257\356 5]\2464\325"
 527      13F1A910 
 527      1AAFEE20 
 527      355DA634 
 527      D5
ARM GAS  /tmp/cc4YBHnC.s 			page 41


 528 0c71 51159013 		.ascii	"Q\025\220\023\240\303\352\203\254\233\224\034\301\332"
 528      A0C3EA83 
 528      AC9B941C 
 528      C1DA
 529 0c7f 3014A108 		.ascii	"0\024\241\010=\223p\221\263\247!<\017\342\315\364\206"
 529      3D937091 
 529      B3A7213C 
 529      0FE2CDF4 
 529      86
 530 0c90 4E4ABAF9 		.ascii	"NJ\272\371\252\303\015$\273l\276j\271\357\365I}\245"
 530      AAC30D24 
 530      BB6CBE6A 
 530      B9EFF549 
 530      7DA5
 531 0ca2 D498E52E 		.ascii	"\324\230\345.u\226\336\017\003|\265!\301\273d:I\011"
 531      7596DE0F 
 531      037CB521 
 531      C1BB643A 
 531      4909
 532 0cb4 1BF9C94B 		.ascii	"\033\371\311K2j\252v\224p\177\304\341,\365\270<\011"
 532      326AAA76 
 532      94707FC4 
 532      E12CF5B8 
 532      3C09
 533 0cc6 456494AF 		.ascii	"Ed\224\257\346\347\365A\037\014\314\363z\303B\304;{"
 533      E6E7F541 
 533      1F0CCCF3 
 533      7AC342C4 
 533      3B7B
 534 0cd8 96A7A4C2 		.ascii	"\226\247\244\302\355\312\343\003\367\361\015apZ\000"
 534      EDCAE303 
 534      F7F10D61 
 534      705A00
 535 0ce7 523F0322 		.ascii	"R?\003\"W/\344\311\346\317\017\022\370\034j\236\\\247"
 535      572FE4C9 
 535      E6CF0F12 
 535      F81C6A9E 
 535      5CA7
 536 0cf9 4AEB693D 		.ascii	"J\353i=\333\353]\004\210^o\236R\231:}\332\3153TW\005"
 536      DBEB5D04 
 536      885E6F9E 
 536      52993A7D 
 536      DACD3354 
 537 0d0f D30A3557 		.ascii	"\323\0125W\323\325W\0057\251\257\012oT_\025i\306\025"
 537      D3D55705 
 537      37A9AF0A 
 537      6F545F15 
 537      69C615
 538 0d22 4DFF0F97 		.ascii	"M\377\017\227\207\303\226"
 538      87C396
 539              		.text
 540              		.section	.gnu.lto_.symtab.e7ac4ef78790529e,"",%progbits
 541 0000 67707449 		.ascii	"gptInit\000\000\000\000\000\000\000\000\000\000\000"
 541      6E697400 
 541      00000000 
 541      00000000 
 541      0000
ARM GAS  /tmp/cc4YBHnC.s 			page 42


 542 0012 00B10000 		.ascii	"\000\261\000\000\000gptObjectInit\000\000\000\000\000"
 542      00677074 
 542      4F626A65 
 542      6374496E 
 542      69740000 
 543 0029 00000000 		.ascii	"\000\000\000\000\000\000\000\265\000\000\000gptStar"
 543      000000B5 
 543      00000067 
 543      70745374 
 543      6172
 544 003b 74000000 		.ascii	"t\000\000\000\000\000\000\000\000\000\000\000\000\033"
 544      00000000 
 544      00000000 
 544      001B
 545 0049 01000067 		.ascii	"\001\000\000gptStop\000\000\000\000\000\000\000\000"
 545      70745374 
 545      6F700000 
 545      00000000 
 545      0000
 546 005b 00000000 		.ascii	"\000\000\000\000#\001\000\000gptChangeInterval\000\000"
 546      23010000 
 546      67707443 
 546      68616E67 
 546      65496E74 
 547 0076 00000000 		.ascii	"\000\000\000\000\000\000\000\000\000\000'\001\000\000"
 547      00000000 
 547      00002701 
 547      0000
 548 0084 67707453 		.ascii	"gptStartContinuous\000\000\000\000\000\000\000\000\000"
 548      74617274 
 548      436F6E74 
 548      696E756F 
 548      75730000 
 549 009f 00000033 		.ascii	"\000\000\0003\001\000\000gptStartContinuousI\000\000"
 549      01000067 
 549      70745374 
 549      61727443 
 549      6F6E7469 
 550 00bb 00000000 		.ascii	"\000\000\000\000\000\000\000\000\000\0008\001\000\000"
 550      00000000 
 550      00003801 
 550      0000
 551 00c9 67707453 		.ascii	"gptStartOneShot\000\000\000\000\000\000\000\000\000"
 551      74617274 
 551      4F6E6553 
 551      686F7400 
 551      00000000 
 552 00e1 0000003D 		.ascii	"\000\000\000=\001\000\000gptStartOneShotI\000\000\000"
 552      01000067 
 552      70745374 
 552      6172744F 
 552      6E655368 
 553 00fb 00000000 		.ascii	"\000\000\000\000\000\000\000\000\000B\001\000\000gp"
 553      00000000 
 553      00420100 
 553      006770
 554 010a 7453746F 		.ascii	"tStopTimer\000\000\000\000\000\000\000\000\000\000\000"
ARM GAS  /tmp/cc4YBHnC.s 			page 43


 554      7054696D 
 554      65720000 
 554      00000000 
 554      00000000 
 555 011f 00470100 		.ascii	"\000G\001\000\000gptStopTimerI\000\000\000\000\000\000"
 555      00677074 
 555      53746F70 
 555      54696D65 
 555      72490000 
 556 0137 00000000 		.ascii	"\000\000\000\000\000\000K\001\000\000gptPolledDelay"
 556      00004B01 
 556      00006770 
 556      74506F6C 
 556      6C656444 
 557 014f 00000000 		.ascii	"\000\000\000\000\000\000\000\000\000\000\000\000O\001"
 557      00000000 
 557      00000000 
 557      4F01
 558 015d 00006770 		.ascii	"\000\000gpt_lld_init\000\000\002\000\000\000\000\000"
 558      745F6C6C 
 558      645F696E 
 558      69740000 
 558      02000000 
 559 0173 00000000 		.ascii	"\000\000\000\000T\001\000\000gpt_lld_start\000\000\002"
 559      54010000 
 559      6770745F 
 559      6C6C645F 
 559      73746172 
 560 018b 00000000 		.ascii	"\000\000\000\000\000\000\000\000\000V\001\000\000gp"
 560      00000000 
 560      00560100 
 560      006770
 561 019a 745F6C6C 		.ascii	"t_lld_stop\000\000\002\000\000\000\000\000\000\000\000"
 561      645F7374 
 561      6F700000 
 561      02000000 
 561      00000000 
 562 01af 00580100 		.ascii	"\000X\001\000\000gpt_lld_start_timer\000\000\002\000"
 562      00677074 
 562      5F6C6C64 
 562      5F737461 
 562      72745F74 
 563 01cb 00000000 		.ascii	"\000\000\000\000\000\000\000\000Z\001\000\000gpt_ll"
 563      00000000 
 563      5A010000 
 563      6770745F 
 563      6C6C
 564 01dd 645F7374 		.ascii	"d_stop_timer\000\000\002\000\000\000\000\000\000\000"
 564      6F705F74 
 564      696D6572 
 564      00000200 
 564      00000000 
 565 01f3 00005C01 		.ascii	"\000\000\\\001\000\000gpt_lld_polled_delay\000\000\002"
 565      00006770 
 565      745F6C6C 
 565      645F706F 
 565      6C6C6564 
ARM GAS  /tmp/cc4YBHnC.s 			page 44


 566 0210 00000000 		.ascii	"\000\000\000\000\000\000\000\000\000^\001\000\000"
 566      00000000 
 566      005E0100 
 566      00
 567              		.text
 568              		.section	.gnu.lto_.opts,"",%progbits
 569 0000 272D6D63 		.ascii	"'-mcpu=cortex-m4' '-mno-thumb-interwork' '-mthumb' "
 569      70753D63 
 569      6F727465 
 569      782D6D34 
 569      2720272D 
 570 0033 272D6767 		.ascii	"'-ggdb' '-O2' '-fomit-frame-pointer' '-falign-funct"
 570      64622720 
 570      272D4F32 
 570      2720272D 
 570      666F6D69 
 571 0066 696F6E73 		.ascii	"ions=16' '-ffunction-sections' '-fdata-sections' '-"
 571      3D313627 
 571      20272D66 
 571      66756E63 
 571      74696F6E 
 572 0099 666E6F2D 		.ascii	"fno-common' '-flto'\000"
 572      636F6D6D 
 572      6F6E2720 
 572      272D666C 
 572      746F2700 
 573              		.text
 574              		.cfi_sections	.debug_frame
 575              		.section	.text.gptInit,"ax",%progbits
 576              		.align	2
 577              		.p2align 4,,15
 578              		.global	gptInit
 579              		.thumb
 580              		.thumb_func
 581              		.type	gptInit, %function
 582              	gptInit:
 583              	.LFB272:
 584              		.file 1 "../ChibiOS/os/hal/src/gpt.c"
 585              		.loc 1 56 0
 586              		.cfi_startproc
 587              		@ args = 0, pretend = 0, frame = 0
 588              		@ frame_needed = 0, uses_anonymous_args = 0
 589              		@ link register save eliminated.
 590              		.loc 1 58 0
 591 0000 FFF7FEBF 		b	gpt_lld_init
 592              	.LVL0:
 593              		.cfi_endproc
 594              	.LFE272:
 595              		.size	gptInit, .-gptInit
 596 0004 AFF30080 		.section	.text.gptObjectInit,"ax",%progbits
 596      AFF30080 
 596      AFF30080 
 597              		.align	2
 598              		.p2align 4,,15
 599              		.global	gptObjectInit
 600              		.thumb
 601              		.thumb_func
ARM GAS  /tmp/cc4YBHnC.s 			page 45


 602              		.type	gptObjectInit, %function
 603              	gptObjectInit:
 604              	.LFB273:
 605              		.loc 1 68 0
 606              		.cfi_startproc
 607              		@ args = 0, pretend = 0, frame = 0
 608              		@ frame_needed = 0, uses_anonymous_args = 0
 609              		@ link register save eliminated.
 610              	.LVL1:
 611              		.loc 1 70 0
 612 0000 0122     		movs	r2, #1
 613              		.loc 1 71 0
 614 0002 0023     		movs	r3, #0
 615              		.loc 1 70 0
 616 0004 0270     		strb	r2, [r0]
 617              		.loc 1 71 0
 618 0006 4360     		str	r3, [r0, #4]
 619 0008 7047     		bx	lr
 620              		.cfi_endproc
 621              	.LFE273:
 622              		.size	gptObjectInit, .-gptObjectInit
 623 000a 00BFAFF3 		.section	.text.gptStart,"ax",%progbits
 623      0080
 624              		.align	2
 625              		.p2align 4,,15
 626              		.global	gptStart
 627              		.thumb
 628              		.thumb_func
 629              		.type	gptStart, %function
 630              	gptStart:
 631              	.LFB274:
 632              		.loc 1 82 0
 633              		.cfi_startproc
 634              		@ args = 0, pretend = 0, frame = 0
 635              		@ frame_needed = 0, uses_anonymous_args = 0
 636              	.LVL2:
 637 0000 10B5     		push	{r4, lr}
 638              		.cfi_def_cfa_offset 8
 639              		.cfi_offset 4, -8
 640              		.cfi_offset 14, -4
 641              	.LBB108:
 642              	.LBB109:
 643              	.LBB110:
 644              	.LBB111:
 645              	.LBB112:
 646              		.file 2 "../ChibiOS/os/ext/CMSIS/include/core_cmFunc.h"
 647              		.loc 2 548 0
 648 0002 2023     		movs	r3, #32
 649              	.LBE112:
 650              	.LBE111:
 651              	.LBE110:
 652              	.LBE109:
 653              	.LBE108:
 654              		.loc 1 82 0
 655 0004 0446     		mov	r4, r0
 656              	.LBB117:
 657              	.LBB116:
ARM GAS  /tmp/cc4YBHnC.s 			page 46


 658              	.LBB115:
 659              	.LBB114:
 660              	.LBB113:
 661              		.loc 2 548 0
 662              	@ 548 "../ChibiOS/os/ext/CMSIS/include/core_cmFunc.h" 1
 663 0006 83F31188 		MSR basepri, r3
 664              	@ 0 "" 2
 665              		.thumb
 666              	.LBE113:
 667              	.LBE114:
 668              	.LBE115:
 669              	.LBE116:
 670              	.LBE117:
 671              		.loc 1 89 0
 672 000a 4160     		str	r1, [r0, #4]
 673              		.loc 1 90 0
 674 000c FFF7FEFF 		bl	gpt_lld_start
 675              	.LVL3:
 676              		.loc 1 91 0
 677 0010 0223     		movs	r3, #2
 678 0012 2370     		strb	r3, [r4]
 679              	.LVL4:
 680              	.LBB118:
 681              	.LBB119:
 682              	.LBB120:
 683              	.LBB121:
 684              	.LBB122:
 685              	.LBB123:
 686              		.loc 2 548 0
 687 0014 0023     		movs	r3, #0
 688              	@ 548 "../ChibiOS/os/ext/CMSIS/include/core_cmFunc.h" 1
 689 0016 83F31188 		MSR basepri, r3
 690              	@ 0 "" 2
 691              		.thumb
 692 001a 10BD     		pop	{r4, pc}
 693              	.LBE123:
 694              	.LBE122:
 695              	.LBE121:
 696              	.LBE120:
 697              	.LBE119:
 698              	.LBE118:
 699              		.cfi_endproc
 700              	.LFE274:
 701              		.size	gptStart, .-gptStart
 702 001c AFF30080 		.section	.text.gptStop,"ax",%progbits
 703              		.align	2
 704              		.p2align 4,,15
 705              		.global	gptStop
 706              		.thumb
 707              		.thumb_func
 708              		.type	gptStop, %function
 709              	gptStop:
 710              	.LFB275:
 711              		.loc 1 102 0
 712              		.cfi_startproc
 713              		@ args = 0, pretend = 0, frame = 0
 714              		@ frame_needed = 0, uses_anonymous_args = 0
ARM GAS  /tmp/cc4YBHnC.s 			page 47


 715              	.LVL5:
 716 0000 10B5     		push	{r4, lr}
 717              		.cfi_def_cfa_offset 8
 718              		.cfi_offset 4, -8
 719              		.cfi_offset 14, -4
 720              	.LBB124:
 721              	.LBB125:
 722              	.LBB126:
 723              	.LBB127:
 724              	.LBB128:
 725              		.loc 2 548 0
 726 0002 2023     		movs	r3, #32
 727              	.LBE128:
 728              	.LBE127:
 729              	.LBE126:
 730              	.LBE125:
 731              	.LBE124:
 732              		.loc 1 102 0
 733 0004 0446     		mov	r4, r0
 734              	.LBB133:
 735              	.LBB132:
 736              	.LBB131:
 737              	.LBB130:
 738              	.LBB129:
 739              		.loc 2 548 0
 740              	@ 548 "../ChibiOS/os/ext/CMSIS/include/core_cmFunc.h" 1
 741 0006 83F31188 		MSR basepri, r3
 742              	@ 0 "" 2
 743              		.thumb
 744              	.LBE129:
 745              	.LBE130:
 746              	.LBE131:
 747              	.LBE132:
 748              	.LBE133:
 749              		.loc 1 109 0
 750 000a FFF7FEFF 		bl	gpt_lld_stop
 751              	.LVL6:
 752              		.loc 1 110 0
 753 000e 0123     		movs	r3, #1
 754 0010 2370     		strb	r3, [r4]
 755              	.LVL7:
 756              	.LBB134:
 757              	.LBB135:
 758              	.LBB136:
 759              	.LBB137:
 760              	.LBB138:
 761              	.LBB139:
 762              		.loc 2 548 0
 763 0012 0023     		movs	r3, #0
 764              	@ 548 "../ChibiOS/os/ext/CMSIS/include/core_cmFunc.h" 1
 765 0014 83F31188 		MSR basepri, r3
 766              	@ 0 "" 2
 767              		.thumb
 768 0018 10BD     		pop	{r4, pc}
 769              	.LBE139:
 770              	.LBE138:
 771              	.LBE137:
ARM GAS  /tmp/cc4YBHnC.s 			page 48


 772              	.LBE136:
 773              	.LBE135:
 774              	.LBE134:
 775              		.cfi_endproc
 776              	.LFE275:
 777              		.size	gptStop, .-gptStop
 778 001a 00BFAFF3 		.section	.text.gptChangeInterval,"ax",%progbits
 778      0080
 779              		.align	2
 780              		.p2align 4,,15
 781              		.global	gptChangeInterval
 782              		.thumb
 783              		.thumb_func
 784              		.type	gptChangeInterval, %function
 785              	gptChangeInterval:
 786              	.LFB276:
 787              		.loc 1 125 0
 788              		.cfi_startproc
 789              		@ args = 0, pretend = 0, frame = 0
 790              		@ frame_needed = 0, uses_anonymous_args = 0
 791              		@ link register save eliminated.
 792              	.LVL8:
 793              	.LBB140:
 794              	.LBB141:
 795              	.LBB142:
 796              	.LBB143:
 797              	.LBB144:
 798              		.loc 2 548 0
 799 0000 2023     		movs	r3, #32
 800              	@ 548 "../ChibiOS/os/ext/CMSIS/include/core_cmFunc.h" 1
 801 0002 83F31188 		MSR basepri, r3
 802              	@ 0 "" 2
 803              		.thumb
 804              	.LBE144:
 805              	.LBE143:
 806              	.LBE142:
 807              	.LBE141:
 808              	.LBE140:
 809              		.loc 1 132 0
 810 0006 C368     		ldr	r3, [r0, #12]
 811 0008 0139     		subs	r1, r1, #1
 812              	.LVL9:
 813 000a D962     		str	r1, [r3, #44]
 814              	.LVL10:
 815              	.LBB145:
 816              	.LBB146:
 817              	.LBB147:
 818              	.LBB148:
 819              	.LBB149:
 820              	.LBB150:
 821              		.loc 2 548 0
 822 000c 0023     		movs	r3, #0
 823              	@ 548 "../ChibiOS/os/ext/CMSIS/include/core_cmFunc.h" 1
 824 000e 83F31188 		MSR basepri, r3
 825              	@ 0 "" 2
 826              		.thumb
 827 0012 7047     		bx	lr
ARM GAS  /tmp/cc4YBHnC.s 			page 49


 828              	.LBE150:
 829              	.LBE149:
 830              	.LBE148:
 831              	.LBE147:
 832              	.LBE146:
 833              	.LBE145:
 834              		.cfi_endproc
 835              	.LFE276:
 836              		.size	gptChangeInterval, .-gptChangeInterval
 837 0014 AFF30080 		.section	.text.gptStartContinuous,"ax",%progbits
 837      AFF30080 
 837      AFF30080 
 838              		.align	2
 839              		.p2align 4,,15
 840              		.global	gptStartContinuous
 841              		.thumb
 842              		.thumb_func
 843              		.type	gptStartContinuous, %function
 844              	gptStartContinuous:
 845              	.LFB277:
 846              		.loc 1 144 0
 847              		.cfi_startproc
 848              		@ args = 0, pretend = 0, frame = 0
 849              		@ frame_needed = 0, uses_anonymous_args = 0
 850              	.LVL11:
 851 0000 08B5     		push	{r3, lr}
 852              		.cfi_def_cfa_offset 8
 853              		.cfi_offset 3, -8
 854              		.cfi_offset 14, -4
 855              	.LBB151:
 856              	.LBB152:
 857              	.LBB153:
 858              	.LBB154:
 859              	.LBB155:
 860              		.loc 2 548 0
 861 0002 2022     		movs	r2, #32
 862              	@ 548 "../ChibiOS/os/ext/CMSIS/include/core_cmFunc.h" 1
 863 0004 82F31188 		MSR basepri, r2
 864              	@ 0 "" 2
 865              	.LVL12:
 866              		.thumb
 867              	.LBE155:
 868              	.LBE154:
 869              	.LBE153:
 870              	.LBE152:
 871              	.LBE151:
 872              	.LBB156:
 873              	.LBB157:
 874              		.loc 1 166 0
 875 0008 0322     		movs	r2, #3
 876 000a 0270     		strb	r2, [r0]
 877              		.loc 1 167 0
 878 000c FFF7FEFF 		bl	gpt_lld_start_timer
 879              	.LVL13:
 880              	.LBE157:
 881              	.LBE156:
 882              	.LBB158:
ARM GAS  /tmp/cc4YBHnC.s 			page 50


 883              	.LBB159:
 884              	.LBB160:
 885              	.LBB161:
 886              	.LBB162:
 887              	.LBB163:
 888              		.loc 2 548 0
 889 0010 0023     		movs	r3, #0
 890              	@ 548 "../ChibiOS/os/ext/CMSIS/include/core_cmFunc.h" 1
 891 0012 83F31188 		MSR basepri, r3
 892              	@ 0 "" 2
 893              		.thumb
 894 0016 08BD     		pop	{r3, pc}
 895              	.LBE163:
 896              	.LBE162:
 897              	.LBE161:
 898              	.LBE160:
 899              	.LBE159:
 900              	.LBE158:
 901              		.cfi_endproc
 902              	.LFE277:
 903              		.size	gptStartContinuous, .-gptStartContinuous
 904 0018 AFF30080 		.section	.text.gptStartContinuousI,"ax",%progbits
 904      AFF30080 
 905              		.align	2
 906              		.p2align 4,,15
 907              		.global	gptStartContinuousI
 908              		.thumb
 909              		.thumb_func
 910              		.type	gptStartContinuousI, %function
 911              	gptStartContinuousI:
 912              	.LFB278:
 913              		.loc 1 159 0
 914              		.cfi_startproc
 915              		@ args = 0, pretend = 0, frame = 0
 916              		@ frame_needed = 0, uses_anonymous_args = 0
 917              		@ link register save eliminated.
 918              	.LVL14:
 919              		.loc 1 166 0
 920 0000 0323     		movs	r3, #3
 921 0002 0370     		strb	r3, [r0]
 922              		.loc 1 167 0
 923 0004 FFF7FEBF 		b	gpt_lld_start_timer
 924              	.LVL15:
 925              		.cfi_endproc
 926              	.LFE278:
 927              		.size	gptStartContinuousI, .-gptStartContinuousI
 928 0008 AFF30080 		.section	.text.gptStartOneShot,"ax",%progbits
 928      AFF30080 
 929              		.align	2
 930              		.p2align 4,,15
 931              		.global	gptStartOneShot
 932              		.thumb
 933              		.thumb_func
 934              		.type	gptStartOneShot, %function
 935              	gptStartOneShot:
 936              	.LFB279:
 937              		.loc 1 178 0
ARM GAS  /tmp/cc4YBHnC.s 			page 51


 938              		.cfi_startproc
 939              		@ args = 0, pretend = 0, frame = 0
 940              		@ frame_needed = 0, uses_anonymous_args = 0
 941              	.LVL16:
 942 0000 08B5     		push	{r3, lr}
 943              		.cfi_def_cfa_offset 8
 944              		.cfi_offset 3, -8
 945              		.cfi_offset 14, -4
 946              	.LBB164:
 947              	.LBB165:
 948              	.LBB166:
 949              	.LBB167:
 950              	.LBB168:
 951              		.loc 2 548 0
 952 0002 2022     		movs	r2, #32
 953              	@ 548 "../ChibiOS/os/ext/CMSIS/include/core_cmFunc.h" 1
 954 0004 82F31188 		MSR basepri, r2
 955              	@ 0 "" 2
 956              	.LVL17:
 957              		.thumb
 958              	.LBE168:
 959              	.LBE167:
 960              	.LBE166:
 961              	.LBE165:
 962              	.LBE164:
 963              	.LBB169:
 964              	.LBB170:
 965              		.loc 1 201 0
 966 0008 0422     		movs	r2, #4
 967 000a 0270     		strb	r2, [r0]
 968              		.loc 1 202 0
 969 000c FFF7FEFF 		bl	gpt_lld_start_timer
 970              	.LVL18:
 971              	.LBE170:
 972              	.LBE169:
 973              	.LBB171:
 974              	.LBB172:
 975              	.LBB173:
 976              	.LBB174:
 977              	.LBB175:
 978              	.LBB176:
 979              		.loc 2 548 0
 980 0010 0023     		movs	r3, #0
 981              	@ 548 "../ChibiOS/os/ext/CMSIS/include/core_cmFunc.h" 1
 982 0012 83F31188 		MSR basepri, r3
 983              	@ 0 "" 2
 984              		.thumb
 985 0016 08BD     		pop	{r3, pc}
 986              	.LBE176:
 987              	.LBE175:
 988              	.LBE174:
 989              	.LBE173:
 990              	.LBE172:
 991              	.LBE171:
 992              		.cfi_endproc
 993              	.LFE279:
 994              		.size	gptStartOneShot, .-gptStartOneShot
ARM GAS  /tmp/cc4YBHnC.s 			page 52


 995 0018 AFF30080 		.section	.text.gptStartOneShotI,"ax",%progbits
 995      AFF30080 
 996              		.align	2
 997              		.p2align 4,,15
 998              		.global	gptStartOneShotI
 999              		.thumb
 1000              		.thumb_func
 1001              		.type	gptStartOneShotI, %function
 1002              	gptStartOneShotI:
 1003              	.LFB280:
 1004              		.loc 1 193 0
 1005              		.cfi_startproc
 1006              		@ args = 0, pretend = 0, frame = 0
 1007              		@ frame_needed = 0, uses_anonymous_args = 0
 1008              		@ link register save eliminated.
 1009              	.LVL19:
 1010              		.loc 1 201 0
 1011 0000 0423     		movs	r3, #4
 1012 0002 0370     		strb	r3, [r0]
 1013              		.loc 1 202 0
 1014 0004 FFF7FEBF 		b	gpt_lld_start_timer
 1015              	.LVL20:
 1016              		.cfi_endproc
 1017              	.LFE280:
 1018              		.size	gptStartOneShotI, .-gptStartOneShotI
 1019 0008 AFF30080 		.section	.text.gptStopTimer,"ax",%progbits
 1019      AFF30080 
 1020              		.align	2
 1021              		.p2align 4,,15
 1022              		.global	gptStopTimer
 1023              		.thumb
 1024              		.thumb_func
 1025              		.type	gptStopTimer, %function
 1026              	gptStopTimer:
 1027              	.LFB281:
 1028              		.loc 1 212 0
 1029              		.cfi_startproc
 1030              		@ args = 0, pretend = 0, frame = 0
 1031              		@ frame_needed = 0, uses_anonymous_args = 0
 1032              	.LVL21:
 1033 0000 08B5     		push	{r3, lr}
 1034              		.cfi_def_cfa_offset 8
 1035              		.cfi_offset 3, -8
 1036              		.cfi_offset 14, -4
 1037              	.LBB177:
 1038              	.LBB178:
 1039              	.LBB179:
 1040              	.LBB180:
 1041              	.LBB181:
 1042              		.loc 2 548 0
 1043 0002 2022     		movs	r2, #32
 1044              	@ 548 "../ChibiOS/os/ext/CMSIS/include/core_cmFunc.h" 1
 1045 0004 82F31188 		MSR basepri, r2
 1046              	@ 0 "" 2
 1047              	.LVL22:
 1048              		.thumb
 1049              	.LBE181:
ARM GAS  /tmp/cc4YBHnC.s 			page 53


 1050              	.LBE180:
 1051              	.LBE179:
 1052              	.LBE178:
 1053              	.LBE177:
 1054              	.LBB182:
 1055              	.LBB183:
 1056              		.loc 1 234 0
 1057 0008 0222     		movs	r2, #2
 1058 000a 0270     		strb	r2, [r0]
 1059              		.loc 1 235 0
 1060 000c FFF7FEFF 		bl	gpt_lld_stop_timer
 1061              	.LVL23:
 1062              	.LBE183:
 1063              	.LBE182:
 1064              	.LBB184:
 1065              	.LBB185:
 1066              	.LBB186:
 1067              	.LBB187:
 1068              	.LBB188:
 1069              	.LBB189:
 1070              		.loc 2 548 0
 1071 0010 0023     		movs	r3, #0
 1072              	@ 548 "../ChibiOS/os/ext/CMSIS/include/core_cmFunc.h" 1
 1073 0012 83F31188 		MSR basepri, r3
 1074              	@ 0 "" 2
 1075              		.thumb
 1076 0016 08BD     		pop	{r3, pc}
 1077              	.LBE189:
 1078              	.LBE188:
 1079              	.LBE187:
 1080              	.LBE186:
 1081              	.LBE185:
 1082              	.LBE184:
 1083              		.cfi_endproc
 1084              	.LFE281:
 1085              		.size	gptStopTimer, .-gptStopTimer
 1086 0018 AFF30080 		.section	.text.gptStopTimerI,"ax",%progbits
 1086      AFF30080 
 1087              		.align	2
 1088              		.p2align 4,,15
 1089              		.global	gptStopTimerI
 1090              		.thumb
 1091              		.thumb_func
 1092              		.type	gptStopTimerI, %function
 1093              	gptStopTimerI:
 1094              	.LFB282:
 1095              		.loc 1 226 0
 1096              		.cfi_startproc
 1097              		@ args = 0, pretend = 0, frame = 0
 1098              		@ frame_needed = 0, uses_anonymous_args = 0
 1099              		@ link register save eliminated.
 1100              	.LVL24:
 1101              		.loc 1 234 0
 1102 0000 0223     		movs	r3, #2
 1103 0002 0370     		strb	r3, [r0]
 1104              		.loc 1 235 0
 1105 0004 FFF7FEBF 		b	gpt_lld_stop_timer
ARM GAS  /tmp/cc4YBHnC.s 			page 54


 1106              	.LVL25:
 1107              		.cfi_endproc
 1108              	.LFE282:
 1109              		.size	gptStopTimerI, .-gptStopTimerI
 1110 0008 AFF30080 		.section	.text.gptPolledDelay,"ax",%progbits
 1110      AFF30080 
 1111              		.align	2
 1112              		.p2align 4,,15
 1113              		.global	gptPolledDelay
 1114              		.thumb
 1115              		.thumb_func
 1116              		.type	gptPolledDelay, %function
 1117              	gptPolledDelay:
 1118              	.LFB283:
 1119              		.loc 1 250 0
 1120              		.cfi_startproc
 1121              		@ args = 0, pretend = 0, frame = 0
 1122              		@ frame_needed = 0, uses_anonymous_args = 0
 1123              	.LVL26:
 1124 0000 10B5     		push	{r4, lr}
 1125              		.cfi_def_cfa_offset 8
 1126              		.cfi_offset 4, -8
 1127              		.cfi_offset 14, -4
 1128              		.loc 1 255 0
 1129 0002 0423     		movs	r3, #4
 1130              		.loc 1 250 0
 1131 0004 0446     		mov	r4, r0
 1132              		.loc 1 255 0
 1133 0006 0370     		strb	r3, [r0]
 1134              		.loc 1 256 0
 1135 0008 FFF7FEFF 		bl	gpt_lld_polled_delay
 1136              	.LVL27:
 1137              		.loc 1 257 0
 1138 000c 0223     		movs	r3, #2
 1139 000e 2370     		strb	r3, [r4]
 1140 0010 10BD     		pop	{r4, pc}
 1141              		.cfi_endproc
 1142              	.LFE283:
 1143              		.size	gptPolledDelay, .-gptPolledDelay
 1144 0012 00BFAFF3 		.text
 1144      0080AFF3 
 1144      0080AFF3 
 1144      0080
 1145              	.Letext0:
 1146              		.file 3 "/nfs/nfs5/home/research/hardware/arm2/gcc-arm-embedded/gcc-arm-none-eabi-4_8-2014q2/arm-n
 1147              		.file 4 "/nfs/nfs5/home/research/hardware/arm2/gcc-arm-embedded/gcc-arm-none-eabi-4_8-2014q2/arm-n
 1148              		.file 5 "../ChibiOS/os/rt/ports/ARMCMx/compilers/GCC/chtypes.h"
 1149              		.file 6 "../ChibiOS/os/rt/include/chsystypes.h"
 1150              		.file 7 "../ChibiOS/os/rt/include/chschd.h"
 1151              		.file 8 "../ChibiOS/os/rt/ports/ARMCMx/chcore.h"
 1152              		.file 9 "../ChibiOS/os/rt/ports/ARMCMx/chcore_v7m.h"
 1153              		.file 10 "../ChibiOS/os/hal/ports/STM32/LLD/TIMv1/stm32_tim.h"
 1154              		.file 11 "../ChibiOS/os/rt/include/chtm.h"
 1155              		.file 12 "../ChibiOS/os/rt/include/chsem.h"
 1156              		.file 13 "../ChibiOS/os/rt/include/chmtx.h"
 1157              		.file 14 "../ChibiOS/os/hal/include/gpt.h"
 1158              		.file 15 "../ChibiOS/os/hal/ports/STM32/LLD/TIMv1/gpt_lld.h"
ARM GAS  /tmp/cc4YBHnC.s 			page 55


 1159              		.file 16 "../ChibiOS/os/rt/include/chsys.h"
 1160              		.file 17 "../ChibiOS/os/hal/osal/rt/osal.h"
 1161              		.file 18 "../ChibiOS/os/ext/CMSIS/include/core_cm4.h"