ARM GAS  /tmp/cchWVbPq.s 			page 1


   1              		.syntax unified
   2              		.cpu cortex-m4
   3              		.fpu softvfp
   4              		.eabi_attribute 20, 1
   5              		.eabi_attribute 21, 1
   6              		.eabi_attribute 23, 3
   7              		.eabi_attribute 24, 1
   8              		.eabi_attribute 25, 1
   9              		.eabi_attribute 26, 1
  10              		.eabi_attribute 30, 2
  11              		.eabi_attribute 34, 1
  12              		.eabi_attribute 18, 4
  13              		.thumb
  14              		.file	"gpt_lld.c"
  15              		.text
  16              	.Ltext0:
  17              		.section	.gnu.lto_.jmpfuncs.9983f1ad0ac75942,"",%progbits
  18 0000 789C6362 		.ascii	"x\234cb`b\300\006\012\2414'\003\003#S\004c&#\203$\220"
  18      6062C006 
  18      0AA13427 
  18      03032353 
  18      04632623 
  19 0017 05645733 		.ascii	"\005dW3\374j\350h\020\310dd\314e\004)`dL\000I35\334"
  19      FC6AE868 
  19      10C86464 
  19      CC650429 
  19      60644C00 
  20 002f 68696061 		.ascii	"hi`a`fd\202\253\2060\330\031\030X\030\031X\231\331\030"
  20      60666482 
  20      AB8630D8 
  20      19185818 
  20      195899D9 
  21 0044 D9993918 		.ascii	"\331\2319\030\031\231\201Z\312\030\030\352\241&\243"
  21      1999815A 
  21      CA1818EA 
  21      A126A3
  22 0053 9BC6C000 		.ascii	"\233\306\300\000\000\270\232\017\221"
  22      00B89A0F 
  22      91
  23              		.text
  24              		.section	.gnu.lto_.inline.9983f1ad0ac75942,"",%progbits
  25 0000 789C6D92 		.ascii	"x\234m\222=O\002A\020\206g\366\346\276@\344H\214\306"
  25      3D4F0241 
  25      108667F6 
  25      E6BE40E4 
  25      488CC6
  26 0013 98C8D968 		.ascii	"\230\310\331h\307F0\326$\332\230\000&Ba\247\250\011"
  26      C74630D6 
  26      24DA9800 
  26      264261A7 
  26      A809
  27 0025 47C44084 		.ascii	"G\304@\204\330\320PRX\360\023\320\306\377`aL,-\264\264"
  27      D8D05052 
  27      58F013D0 
  27      C6FF6061 
  27      4C2C2DB4 
  28 003a B0B0A4B4 		.ascii	"\260\260\244\2640\221P\030w\367\216/\3456\267;\273;"
ARM GAS  /tmp/cchWVbPq.s 			page 2


  28      30915018 
  28      77F78E2F 
  28      E536B73B 
  28      BB3B
  29 004c 33CFCC9B 		.ascii	"3\317\314\233e\300`\326w \216Sb\265\001,\007\201\031"
  29      65C060D6 
  29      77208E53 
  29      62B5012C 
  29      078119
  30 005f 9F0930BA 		.ascii	"\237\0110\272q\345\314\302\000(\2061/.\330k\364\317"
  30      71E5CCC2 
  30      00288631 
  30      2F2ED86B 
  30      F4CF
  31 0071 85066BAB 		.ascii	"\205\006k\253h@\351\020\313\250\311-xc\263\324\204A"
  31      6840E910 
  31      CBA8C92D 
  31      7863B3D4 
  31      8441
  32 0083 ABDDFA78 		.ascii	"\253\335\372x\372~\026gx\201>\316+\342\0156A\206K/y"
  32      FA7E1667 
  32      78813ECE 
  32      2BE20D36 
  32      41864B2F 
  33 0098 6A2EF75F 		.ascii	"j.\367_\030\330o\333\014\260g\246\031\350\355\2154P"
  33      18D86FDB 
  33      0CB067A6 
  33      19E8ED8D 
  33      3450
  34 00aa 2FDC4282 		.ascii	"/\334B\202\350=9\004\270\356\220\002ks \266\302$\210"
  34      E83D3904 
  34      B8EE9002 
  34      6B7320B6 
  34      C22488
  35 00bd 5868066C 		.ascii	"Xh\006l6f\263\011\366\343\317\3714\371v\232\254\035"
  35      3666B309 
  35      F6E3CFF9 
  35      34F9769A 
  35      AC1D
  36 00cf 2BBE257E 		.ascii	"+\276%~\325\330\004\035\007L\320Y\260\202\361\036#U"
  36      D5D8041D 
  36      074CD059 
  36      B082F11E 
  36      2355
  37 00e1 1123990A 		.ascii	"\021#\231\012C\262\012\320!\346\240\346gBE\221\246k"
  37      43B20AD0 
  37      21E6A0E6 
  37      67424591 
  37      A66B
  38 00f3 2E5EDFE1 		.ascii	".^\337\341(#\3713\010\371,i9j\357Ho\003l\013\321\217"
  38      2823F933 
  38      08F92C69 
  38      396AEF48 
  38      6F036C0B 
  39 0109 A75027F7 		.ascii	"\247P'\367/F\212\003\221-d\023\014\335\351\177\351\263"
  39      2F468A03 
  39      912D6413 
ARM GAS  /tmp/cchWVbPq.s 			page 3


  39      0CDDE97F 
  39      E9B3
  40 011b B3AB5E16 		.ascii	"\263\253^\026VP\017d\241\261,4\325r`\273!\352\306G\251"
  40      56500F64 
  40      A1B12C34 
  40      D57260BB 
  40      21EAC647 
  41 0130 868589C9 		.ascii	"\206\205\211\311U*\270\262{\001\010?\270\024h#g\211"
  41      552AB8B2 
  41      7B01083F 
  41      B8146823 
  41      6789
  42 0142 21513F76 		.ascii	"!Q?vr6\030K\250\336\325\360a\010e\206\257\003\222\211"
  42      7236184B 
  42      A8DED5F0 
  42      61086586 
  42      AF039289 
  43 0156 04DFF1CA 		.ascii	"\004\337\361\312'\345\375<\257\326\271W\254\360Z\365"
  43      27E5FD3C 
  43      AFD6B957 
  43      ACF05AF5 
  44 0166 B251E7F9 		.ascii	"\262Q\347\371B6\225\344\231\314./\354e\2576y\251\326"
  44      423695E4 
  44      99CC2E2F 
  44      EC65AF36 
  44      79A9D6
  45 0179 38AA54CE 		.ascii	"8\252T\316\022\247\360\013\014\367]\177"
  45      12A7F00B 
  45      0CF75D7F 
  46              		.text
  47              		.section	.gnu.lto_.pureconst.9983f1ad0ac75942,"",%progbits
  48 0000 789C6362 		.ascii	"x\234cb`b\020f\200\000N\006)F\011f)\026)V)6)v)\016)"
  48      60621066 
  48      80004E06 
  48      29460966 
  48      29162956 
  49 001b 4E09000C 		.ascii	"N\011\000\014\205\0012"
  49      850132
  50              		.text
  51              		.section	.gnu.lto_gpt_lld_stop.part.0.9983f1ad0ac75942,"",%progbits
  52 0000 789C954F 		.ascii	"x\234\225O;H\003A\020\235\331\335\374*m\355\202m \213"
  52      3B480341 
  52      109DD9DD 
  52      FC2A6DED 
  52      826D208B 
  53 0014 110B6B6D 		.ascii	"\021\013km\002\011\026\271\200V\222DH\016\022\022L\260"
  53      020916B9 
  53      80569244 
  53      480E1212 
  53      4CB0
  54 0026 B1C89E5E 		.ascii	"\261\310\236^\021\213H\260S\233\004\301\302\306N\221"
  54      118B48B0 
  54      539B04C1 
  54      C2C64E91 
  55 0036 34922E85 		.ascii	"4\222.\205\212\245\251\016\301\332VDXg\357\274B;\207"
  55      8AA5A90E 
  55      C1DA5644 
ARM GAS  /tmp/cchWVbPq.s 			page 4


  55      5867EFBC 
  55      423B87
  56 0049 DD7DB33B 		.ascii	"\335}\263;o\336\354c\300\340o\244h_\"\300*!F\000\305"
  56      6FDEEC63 
  56      C0E06FA4 
  56      685F22C0 
  56      2A214600 
  57 005e E0911281 		.ascii	"\340\221\022\201\314G\206\334\240\023\347\210&\001\204"
  57      CC4786DC 
  57      A013E788 
  57      260184
  58 006d AE601CBB 		.ascii	"\256`\034\273[h\232q\021FJ\235xo\343~\364T\335\273C"
  58      5B689A71 
  58      11464A9D 
  58      786FE37E 
  58      F454DDBB 
  59 0082 F5A535A2 		.ascii	"\365\2455\242\2154h\005\241\202\260I\027L\372\300\304"
  59      8D346805 
  59      A182B049 
  59      174CFAC0 
  59      C4
  60 0093 EFC9D74C 		.ascii	"\357\311\327LyZ\277\334\034c\024\301F\316\314A\357\021"
  60      795ABFDC 
  60      1C6314C1 
  60      46CECC41 
  60      EF11
  61 00a5 70951A24 		.ascii	"p\225\032$K8\"y0\"\024\026\235\346\003E\024\006\371"
  61      4B382279 
  61      30221416 
  61      9DE60345 
  61      1406F9
  62 00b8 14267180 		.ascii	"\024&q\200\006\322\242\312\024\016\350\026t4\360G\277"
  62      06D2A2CA 
  62      140EE816 
  62      7434F047 
  62      BF
  63 00c9 88CCA73E 		.ascii	"\210\314\247>\201\353\035\335zX\302\0132\010\260\017"
  63      81EB1DDD 
  63      7A58C20B 
  63      3208B00F 
  64 00d9 9FAAA7E6 		.ascii	"\237\252\247\346m\024\025\014\270\346w\221\005\032\037"
  64      6D14150C 
  64      B8E67791 
  64      051A1F
  65 00e8 057880C9 		.ascii	"\005x\200\311\354\343\265\037\013\330U\304\024\\)\327"
  65      ECE3B51F 
  65      0BD855C4 
  65      145C29D7 
  66 00f8 217AEC1C 		.ascii	"!z\354\034\316\234\201i\214\233\206\204\032\366\224"
  66      CE9C8169 
  66      8C9B8684 
  66      1AF694
  67 0107 F07B13BE 		.ascii	"\360{\023\276J9\034L\032\207c\036\0120\3220$\256\337"
  67      4A391C4C 
  67      1A87631E 
  67      0A30D230 
  67      24AEDF
ARM GAS  /tmp/cchWVbPq.s 			page 5


  68 011a B59EF3AB 		.ascii	"\265\236\363\253\223lP\374\2674\251\205\336\270\357"
  68      936C50FC 
  68      B734A985 
  68      DEB8EF
  69 0129 ED191C6F 		.ascii	"\355\031\034ov'BkAXd\213\212\206\232I\247\345Z\315."
  69      7627426B 
  69      4158648B 
  69      8A869A49 
  69      A7E55ACD 
  70 013e DB1B05D9 		.ascii	"\333\033\005\331l\313Z\251.[\315\335N[\026\254\374r"
  70      6CCB5AA9 
  70      2E5BCDDD 
  70      4E5B16AC 
  70      FC72
  71 0150 46E672EB 		.ascii	"F\346r\353\322\312\346\367\226d\265\325\331\256\327"
  71      D2CAE6F7 
  71      9664B5D5 
  71      D9AED7
  72 015f 77D21510 		.ascii	"w\322\025\020\224\266\276\001\200Aw\370"
  72      94B6BE01 
  72      804177F8 
  73              		.text
  74              		.section	.gnu.lto_gpt_lld_init.9983f1ad0ac75942,"",%progbits
  75 0000 789C6362 		.ascii	"x\234cb`b@\007\222@\374\000\210M\200\230\221\231\201"
  75      60624007 
  75      9240FC00 
  75      884D8098 
  75      919981
  76 0013 9169C239 		.ascii	"\221i\3029\006\206F\016&FF\020\203\201\221\241\236\211"
  76      0686460E 
  76      26464610 
  76      838191A1 
  76      9E89
  77 0025 B13E9211 		.ascii	"\261>\222\021\254v=\323\201\007\377\377\257\273sk\316"
  77      AC763DD3 
  77      8107FFFF 
  77      AFBB736B 
  77      CE
  78 0036 1FC6DF4C 		.ascii	"\037\306\337L,@\021V\206\226\206\206\011\012\014\014"
  78      2C401156 
  78      86968686 
  78      090A0C0C 
  79 0046 C9601521 		.ascii	"\311`\025!@\022\244-\224\221\011D3\237eh\332qc\335k"
  79      4012A42D 
  79      94910944 
  79      339F6568 
  79      DA7163DD 
  80 005b C644C685 		.ascii	"\306D\306\205\214\254\014\332\014\253\032\200\3000\223"
  80      8CAC0CDA 
  80      0CAB1A80 
  80      C03093
  81 006a 916136C3 		.ascii	"\221a6\303\254\306\206\006\201LF\306j\206_\015\035 "
  81      ACC68606 
  81      814C46C6 
  81      6A865F0D 
  81      1D20
  82 007c 16532ED8 		.ascii	"\026S.\330\210\010F \023l[\022\304R\260\010C\303\215"
ARM GAS  /tmp/cchWVbPq.s 			page 6


  82      88084620 
  82      136C5B12 
  82      C452B008 
  82      43C38D
  83 008f 96069085 		.ascii	"\226\006\220\205\347\031Z\036\354\356\345\202\030\310"
  83      E7195A1E 
  83      ECEEE582 
  83      18C8
  84 009d C000D7CD 		.ascii	"\300\000\327\315\234\314\010Q\016\022\341\200\230\006"
  84      9CCC0851 
  84      0E12E180 
  84      9806
  85 00ab 5594C908 		.ascii	"U\224\311\010\324x\221\241\361\301~}\2306\010\010\001"
  85      D47891A1 
  85      F1C17E7D 
  85      98360808 
  85      01
  86 00bc 6A01BA12 		.ascii	"j\001\272\022d\233\221\236\236\276sFfR\246\177\260~"
  86      649B919E 
  86      9EBE7346 
  86      6652A67F 
  86      B07E
  87 00ce 7EB17E46 		.ascii	"~\261~Fb\216~A~QI\261~p\210\257\261\221\276\217\217"
  87      628E7E41 
  87      7E5149B1 
  87      7E7088AF 
  87      B191BE8F 
  88 00e3 8B7E88A7 		.ascii	"\213~\210\247o\231\241~zAI|NN\212^2\003\000\365\231"
  88      6F99A17E 
  88      7A41497C 
  88      4E4E8A5E 
  88      320300F5 
  89 00f8 4C36     		.ascii	"L6"
  90              		.text
  91              		.section	.gnu.lto_gpt_lld_start.9983f1ad0ac75942,"",%progbits
  92 0000 789CA553 		.ascii	"x\234\245SKHTa\024>\347>\346=\316\214\016f\370 \\&x"
  92      4B485461 
  92      143EE73E 
  92      E63DCE8C 
  92      0E66F820 
  93 0017 4B899476 		.ascii	"K\211\224v\325FPZ8B\255B'\032\007\024%\245M\013\377"
  93      D546505A 
  93      3842AD42 
  93      271A0714 
  93      25A54D0B 
  94 002c 710C66D1 		.ascii	"q\014f\321\200\264\022]\244D-\334D\2016\021\201\211"
  94      80B4125D 
  94      A4442DDC 
  94      44813611 
  94      8189
  95 003e 4806166D 		.ascii	"H\006\026mZ\214 \203-\202\204r\223\211F\267s\356cf\264"
  95      5A8C2083 
  95      2D828472 
  95      938946B7 
  95      73EE6366 
  96 0053 4146BA70 		.ascii	"AF\272p\317\377:\337w\276s\316\377K \301\321\3572\375"
  96      CFFF3ADF 
ARM GAS  /tmp/cchWVbPq.s 			page 7


  96      77BE73CE 
  96      FF4B20C1 
  96      D1EF32FD 
  97 0067 3107401B 		.ascii	"1\007@\033\215\350\000\224&?\000$\\\222$\257\326\203"
  97      8DE80094 
  97      263F0024 
  97      5C9224AF 
  97      D683
  98 0079 F0A8EFCF 		.ascii	"\360\250\357\317\201\360\311\222\362\323\311\253\231"
  98      81F0C992 
  98      F2D3C9AB 
  98      99
  99 0086 55A0A582 		.ascii	"U\240\245\202\252\351\245\"\362\004\020\306$YQq\354"
  99      AAE9A522 
  99      F20410C6 
  99      24595171 
  99      EC
 100 0097 06322736 		.ascii	"\0062'6\302\234\020\017sOv\277\340\224X\032\237\025"
 100      C29C100F 
 100      734F76BF 
 100      E094581A 
 100      9F15
 101 00a9 BF751D31 		.ascii	"\277u\0351\216\024\377\002B\024\341:-0h\014\322\021"
 101      8E14FF02 
 101      4214E13A 
 101      2D30680C 
 101      D211
 102 00bb 4DCFA4A5 		.ascii	"M\317\244\245\234\256?8X\330\332\304i\251A\306A\004"
 102      9CAE3F38 
 102      58D8DAC4 
 102      69A941C6 
 102      4104
 103 00cd 05E228AB 		.ascii	"\005\342(\253d\024\007\033\027\0337\233\0126\0012j\220"
 103      6414071B 
 103      171B379B 
 103      0A360132 
 103      6A90
 104 00df 67213695 		.ascii	"g!6\225d\034U\320\213s\244#L\013g5o\327\260\251eS\307"
 104      641C55D0 
 104      8B73A423 
 104      4C0B6735 
 104      6FD7B0A9 
 105 00f6 8622A930 		.ascii	"\206\"\2510!\304\344\031\323q\020Iz\324\220\037!\313"
 105      21C4E419 
 105      D3711049 
 105      7AD4901F 
 105      21CB
 106 0108 69F5A0C4 		.ascii	"i\365\240\304\243\274\016\343\331\275\335\015\354\305"
 106      A3BC0EE3 
 106      D9BDDD0D 
 106      ECC5
 107 0116 C7A8420C 		.ascii	"\307\250B\014\225&8\033G\327\014L\223|w\014eN\303c\210"
 107      9526381B 
 107      47D70C4C 
 107      937C770C 
 107      654EC363 
 108 012b EF433B8D 		.ascii	"\357C;\215w\260\3625\341\317C\330\305\205Ei\366\240"
ARM GAS  /tmp/cchWVbPq.s 			page 8


 108      77B0F235 
 108      E1CF43D8 
 108      C5854569 
 108      F6A0
 109 013d 0CABF532 		.ascii	"\014\253\3652\273\275}\363\310g;\312\367`_\244\204h"
 109      BBBD7DF3 
 109      C8673BCA 
 109      F7605FA4 
 109      8468
 110 014f 25C6413C 		.ascii	"%\306A<\\\232\036R\255K$g9\273\367\353\222\215P\233"
 110      5C9A1E52 
 110      AD4B2467 
 110      39BBF7EB 
 110      928D509B 
 111 0163 605E4C24 		.ascii	"`^L$\202q\364\232\212|\034\313/fSB1\012\354\267\224"
 111      8271F49A 
 111      8A7C1CCB 
 111      2F665342 
 111      310AECB7 
 112 0178 D9D1D721 		.ascii	"\331\321\327!\371J\266\321\016\"`'E\004\215\243\345"
 112      F94AB6D1 
 112      0E226027 
 112      45048DA3 
 112      E5
 113 0189 0EF3E464 		.ascii	"\016\363\344d\244\304c\200\263\251\375<\263\253\\\012"
 113      A4C46380 
 113      B3A9FD3C 
 113      B3AB5C0A 
 114 0199 A9942E2A 		.ascii	"\251\224.*\253\353\177tI\226.\267\001n+\002c\231X\336"
 114      ABEB7F74 
 114      49962EB7 
 114      016E2B02 
 114      639958DE 
 115 01ad F1F2E423 		.ascii	"\361\362\344#\334\317}\373\3415)\000\314\006\221\202"
 115      DCCF7DFB 
 115      E1352900 
 115      CC069182 
 116 01bd 8AA8953D 		.ascii	"\212\250\225={\006N\233\203\223\356V\220c\216g2\007"
 116      7B064E9B 
 116      8393EE56 
 116      90638E67 
 116      3207
 117 01cf 1B52212E 		.ascii	"\033R!.}\027\351\274\364\245\221\013<be\2761\337o\265"
 117      7D17E9BC 
 117      F4A5910B 
 117      3C6265BE 
 117      31DF6FB5 
 118 01e3 70FF5EA4 		.ascii	"p\377^\244\333\355\332T\030\367\357X*CAv\247\312\206"
 118      DBEDDA54 
 118      18F7EF58 
 118      2A434176 
 118      A7CA86
 119 01f6 040C885A 		.ascii	"\004\014\210Z\032\242\024CN\331\220 \253\2464C&\250"
 119      1AA21443 
 119      4ED99020 
 119      ABA63443 
 119      26A8
ARM GAS  /tmp/cchWVbPq.s 			page 9


 120 0208 924818A4 		.ascii	"\222H\030\244Z \265\320\265t\362\251d\243B$/fU`;y\333"
 120      5A20B5D0 
 120      B574F2A9 
 120      64A34224 
 120      2F665560 
 121 021f DE2674C8 		.ascii	"\336&t\310\360M%\033\354\275*\332fF\207\256\263\350"
 121      F04D251B 
 121      ECBD2ADA 
 121      664687AE 
 121      B3E8
 122 0231 35B048CC 		.ascii	"5\260H\314\367H\347\246\242\324b\376\025\205\215,\234"
 122      F748E7A6 
 122      A2D462FE 
 122      15858D2C 
 122      9C
 123 0242 A5B370E4 		.ascii	"\245\263p\344\005-gv<\305\267E\264\347[N1\303\014rZ"
 123      052D6776 
 123      3CC5B745 
 123      B4E75B4E 
 123      31C30C72 
 124 0257 20E7E156 		.ascii	" \347\341Vs\274\314b\272\303\016Xm\325 \\\272\006\256"
 124      73BCCC62 
 124      BAC30E58 
 124      6DD5205C 
 124      BA06AE
 125 026a 42C8B5B2 		.ascii	"B\310\265\262C\272\255\233Ym\204\373\236\334\376\374"
 125      43BAAD9B 
 125      596D84FB 
 125      9EDCFEFC 
 126 027a 5CB5E3D5 		.ascii	"\\\265\343\325XY\037\276\355\307\220y,\262\0323\357"
 126      58591FBE 
 126      EDC79079 
 126      2CB21A33 
 126      EF
 127 028b BDC57453 		.ascii	"\275\305tS\231H\357\277\231O\275,d^{|\346\276B\367_"
 127      9948EFBF 
 127      994FBD2C 
 127      645E7B7C 
 127      E6BE42F7 
 128 02a0 27B7F2DD 		.ascii	"'\267\362\335\257#\240\371j\377\350z\340\244\225\361"
 128      AF23A0F9 
 128      6AFFE87A 
 128      E0A495F1 
 129 02b0 5BC9D401 		.ascii	"[\311\324\001|\202DnsA\261\337\234\371E\350\275\321"
 129      7C82446E 
 129      7341B1DF 
 129      9CF945E8 
 129      BDD1
 130 02c2 7BE0E7D9 		.ascii	"{\340\347\331\322\334\254]\351\217\367\305\257ukC#Z"
 130      D2DCAC5D 
 130      E98FF7C5 
 130      AF756B43 
 130      235A
 131 02d4 7FEF8036 		.ascii	"\177\357\2006<tgtD\353\216t\265\266h\235\235W\265HG"
 131      3C746774 
 131      44EB8E74 
 131      B5B6689D 
ARM GAS  /tmp/cchWVbPq.s 			page 10


 131      9D57B548 
 132 02e9 D7DDF35A 		.ascii	"\327\335\363Zlx\364\346\300\300\255\346(\310\303#\321"
 132      6C78F4E6 
 132      C0C0ADE6 
 132      28C8C323 
 132      D1
 133 02fa BF582271 		.ascii	"\277X\"qJ"
 133      4A
 134              		.text
 135              		.section	.gnu.lto_gpt_lld_stop.9983f1ad0ac75942,"",%progbits
 136 0000 789C8D91 		.ascii	"x\234\215\221?HBQ\024\306\317\271\177R\254\2405BhiI"
 136      3F484251 
 136      14C6CFB9 
 136      7F52ACA0 
 136      35426869 
 137 0015 F295B636 		.ascii	"\362\225\2666D-\201\322\240BM\241\006\317\007\212\222"
 137      442D81D2 
 137      A0424DA1 
 137      06CF078A 
 137      92
 138 0026 D2D2E0D5 		.ascii	"\322\322\340\325\034Z\004\307\310\251\265\241\032m1"
 138      1C5A04C7 
 138      C8A9B5A1 
 138      1A6D31
 139 0035 0B910A2C 		.ascii	"\013\221\012,\332\302!\334\032\234\203h\261{\337\363"
 139      DAC221DC 
 139      1A9C8368 
 139      B17BDFF3 
 140 0045 49FF062F 		.ascii	"I\377\006/\274{\270\347}\277\357\362\235K\200\300\357"
 140      BC7BB8E7 
 140      7DBFEFF2 
 140      9D4B80C0 
 140      EF
 141 0056 B52ABF39 		.ascii	"\265*\2779\331^\226\025\307\000I\345\021\240\340$\204"
 141      D95E9615 
 141      C70049E5 
 141      11A0E024 
 141      84
 142 0067 B6DC205C 		.ascii	"\266\334 \\\374a\021\304\004%\354\335\241N\325\026\310"
 142      FC6111C4 
 142      0425ECDD 
 142      A14ED516 
 142      C8
 143 0078 2343AE54 		.ascii	"#C\256T\310\021U\005\204<\241\214c~\033M\317\013\322"
 143      C8115505 
 143      843CA18C 
 143      637E1B4D 
 143      CF0BD2
 144 008b E8F6FBE7 		.ascii	"\350\366\373\347\257\275n\023;W\314E0\205@\301@`rS\032"
 144      AFBD6E13 
 144      3B57CC45 
 144      308540C1 
 144      40607253 
 145 00a0 0E25212A 		.ascii	"\016%!*\263\000q\223\010\313]9E\220\250J\333P\354\324"
 145      B3007193 
 145      08CB5D39 
 145      4590A84A 
ARM GAS  /tmp/cchWVbPq.s 			page 11


 145      DB50ECD4 
 146 00b4 EAE59928 		.ascii	"\352\345\231(\236\"\007\035\251\007\346\015$U8A\003"
 146      9E22071D 
 146      A907E60D 
 146      24553841 
 146      03
 147 00c5 A98E644B 		.ascii	"\251\216dKVf\336\025C;\311\0354\337\012\223CDI\310\367"
 147      5666DE15 
 147      433BC91D 
 147      34DF0A93 
 147      434449C8 
 148 00da BC11A4D0 		.ascii	"\274\021\244\320r\233\336/\365\362\264-d\2467\376\357"
 148      729BDE2F 
 148      F5F2B42D 
 148      64A637FE 
 148      EF
 149 00eb 6D9BB7E1 		.ascii	"m\233\267\341\266v9n!\0368\023\245\202X1\220[\320\230"
 149      B676396E 
 149      211E3813 
 149      A5825831 
 149      905BD098 
 150 00ff 3451100E 		.ascii	"4Q\020\016 \353R\325\3416\373Q//\214H\323\277\364\361"
 150      20EB52D5 
 150      E136FB51 
 150      2F2F8C48 
 150      D3BFF4F1 
 151 0113 F5C834FB 		.ascii	"\365\3104\373I\253\231\334\364{\015\264\323\222\003"
 151      49AB99DC 
 151      F47B0DB4 
 151      D39203
 152 0122 F8144742 		.ascii	"\370\024GB\370e\306\3240\236= \006}B\357\241\350\264"
 152      F865C6D4 
 152      309E3D20 
 152      067D42EF 
 152      A1E8B4
 153 0135 E42924BA 		.ascii	"\344)$\272J\363\004\207\203\016\200\305O\031\350\210"
 153      4AF30487 
 153      830E80C5 
 153      4F19E888 
 154 0145 0F70039D 		.ascii	"\017p\003\2356\317\315\327{\206BW>\273MX+,\325\362\247"
 154      36CFCDD7 
 154      7B864257 
 154      3EBB4D58 
 154      2B2CD5F2 
 155 015a 9A8DCFEB 		.ascii	"\232\215\317\353\325\326\022F\314\330\014i\351\254\226"
 155      D5D61246 
 155      CCD80C69 
 155      E9AC96
 156 0169 8826B54C 		.ascii	"\210&\265Lz/\227\325B\341\240\337\247\005\002\353Zx"
 156      7A2F97D5 
 156      42E1A0DF 
 156      A70502EB 
 156      5A78
 157 017b 23B8BFA4 		.ascii	"#\270\277\244\351\231\334N2\271\353\215\303\027\223"
 157      E999DC4E 
 157      32B9EB8D 
 157      C31793
ARM GAS  /tmp/cchWVbPq.s 			page 12


 158 018a 128DF6   		.ascii	"\022\215\366"
 159              		.text
 160              		.section	.gnu.lto_gpt_lld_start_timer.9983f1ad0ac75942,"",%progbits
 161 0000 789C8D92 		.ascii	"x\234\215\222\273K\003A\020\306gv\367.\321<\214\377"
 161      BB4B0341 
 161      10C66776 
 161      F72ED13C 
 161      8CFF
 162 0012 81B5D11C 		.ascii	"\201\265\321\034>\032km\002\021\013#h%Q\341<\210$\030"
 162      3E1A6B6D 
 162      02110B23 
 162      682551E1 
 162      3C882418 
 163 0026 B1F5F228 		.ascii	"\261\365\362(\264\011)%V\266\026\332F\003F,|\024\021"
 163      B4092925 
 163      56B616DA 
 163      4603462C 
 163      7C1411
 164 0039 EC249558 		.ascii	"\354$\225X[\010\202\330\305\331\333\273$\004\305,\334"
 164      5B0882D8 
 164      C5D9DBBB 
 164      2404C52C 
 164      DC
 165 004a EEDCEEFE 		.ascii	"\356\334\356\376\276\331\375v\0300\350o3\364E9\300,"
 165      BED9FD76 
 165      1830E86F 
 165      33F44539 
 165      C02C
 166 005c 8DA801B2 		.ascii	"\215\250\001\262\312\023@\336\317\030\257\336\001\330"
 166      CA1340DE 
 166      CF18AFDE 
 166      01D8
 167 006a C3E2CB07 		.ascii	"\303\342\313\007v\220\243P\363\002Q\006\200p\300\270"
 167      7690A350 
 167      F3025106 
 167      8070C0B8 
 168 007a C0833574 		.ascii	"\300\2035tT.\330\315k\273}\376\362\371q\217Gu1\312q"
 168      542ED8CD 
 168      6BBB7DFE 
 168      F2F9718F 
 168      477531CA 
 169 008f 07418085 		.ascii	"\007A\200\205\240Q\204:E\030\240\216\005\251\343!\371"
 169      A051843A 
 169      4518A08E 
 169      05A9E321 
 169      F9
 170 00a0 1B961DA1 		.ascii	"\033\226\035\241\032\224l\2732\006\260\351H%\251\227"
 170      1A946CBB 
 170      3206B0E9 
 170      4825A997 
 171 00b0 195690C9 		.ascii	"\031V\220\311\2217\241\320z\251\227})<\245\343\231("
 171      9137A1D0 
 171      7AA9977D 
 171      293CA5E3 
 171      9928
 172 00c2 A2304EB2 		.ascii	"\2420N\262'PE\013\205\211|\225F\3159\304\006z\227jB"
 172      2750450B 
ARM GAS  /tmp/cchWVbPq.s 			page 13


 172      85897C95 
 172      46CD39C4 
 172      067A976A 
 173 00d7 F1B07885 		.ascii	"\361\260x\205\036\243\233\250\311m\330\2466\342\254"
 173      1EA39BA8 
 173      C96DD8A6 
 173      36E2AC
 174 00e6 DF3E5602 		.ascii	"\337>V\002j9\012gv)o\317Y\250+Q\037%\221\273\301\025"
 174      6A390A67 
 174      76296FCF 
 174      59A82B51 
 174      1F2591BB 
 175 00fc 5501A938 		.ascii	"U\001\2518\\\355\273^\236\030\220Tn\313\031\035U\326"
 175      5CEDBB5E 
 175      9E189054 
 175      6ECB191D 
 175      55D6
 176 010e DAF1F5C0 		.ascii	"\332\361\365\3004\357\322\340\322\265\306\300\264\350"
 176      34EFD2E0 
 176      D2B5C6C0 
 176      B4E8
 177 011c A7C9C646 		.ascii	"\247\311\306F9\352Y\022pld\277\333\250ul,\264>\302\036"
 177      39EA5912 
 177      706C64BF 
 177      DBA8756C 
 177      2CB43EC2 
 178 0131 12943923 		.ascii	"\022\2249#\026\372\0254D\"\022b.\244\273\320\003\224"
 178      16FA1534 
 178      44221262 
 178      2EA4BBD0 
 178      0394
 179 0143 DEF3A10E 		.ascii	"\336\363\241\016$\267\014\367\026\334\012]\214J\213"
 179      24B70CF7 
 179      16DC0A5D 
 179      8C4A8B
 180 0152 1EF6B6F5 		.ascii	"\036\366\266\365\335(Oz;C\352J\221?o\344\353>\356%\367"
 180      DD284F7A 
 180      3B43EA4A 
 180      913F6FE4 
 180      EB3EEE25 
 181 0167 A83081CE 		.ascii	"\2500\201\316\323\272\006\307{\355\371O\213p\357L\302"
 181      D3BA06C7 
 181      7BEDF94F 
 181      8B70EF4C 
 181      C2
 182 0178 2D367AA1 		.ascii	"-6z\241\267\201=\366w=\226\226=C\376\225\212_\301^K"
 182      B7813DF6 
 182      773D9696 
 182      3D43FE95 
 182      8A5FC15E 
 183 018d D2C9485A 		.ascii	"\322\311HZ\2724\035\213\031\363\333\326\206\265\264"
 183      BA341D8B 
 183      19F3DBD6 
 183      86B5B4
 184 019c 6C6472C6 		.ascii	"ldr\306v*md3\273{9c9\27183m$\022\013F2\276\270?e\230"
 184      762A6D64 
 184      33BB7B39 
ARM GAS  /tmp/cchWVbPq.s 			page 14


 184      6339B938 
 184      336D2412 
 185 01b8 D9BDF574 		.ascii	"\331\275\365tz+\266\011?\346@\276y"
 185      7A2BB609 
 185      3FE640BE 
 185      79
 186              		.text
 187              		.section	.gnu.lto_gpt_lld_stop_timer.9983f1ad0ac75942,"",%progbits
 188 0000 789C6362 		.ascii	"x\234cb`b@\007\222@\274\234\221\201\301\004H32302M8"
 188      60624007 
 188      9240BC9C 
 188      9181C104 
 188      48333233 
 189 0018 C7C0D0C8 		.ascii	"\307\300\320\310\301\304\310\010b002\32431\326G2\202"
 189      C1C4C808 
 189      62303032 
 189      D43331D6 
 189      473282
 190 002b D5AE673A 		.ascii	"\325\256g:\360\340\377\377u[\276]8\312\270r7\013'\023"
 190      F0E0FFFF 
 190      755BBE5D 
 190      38CAB872 
 190      370B2713 
 191 003f 632E2303 		.ascii	"c.#\0033C&#\003\033\220`d\007\021@e\254\014-\015\015"
 191      33432623 
 191      031B9060 
 191      64071140 
 191      65AC0C2D 
 192 0055 13141818 		.ascii	"\023\024\030\030\222\301\332B\200$\310\254PF&\020\315"
 192      92C1DA42 
 192      8024C8AC 
 192      50462610 
 192      CD
 193 0066 7C96A1E9 		.ascii	"|\226\241\351\326\214\347}\354\211\214\013\031Y\031"
 193      D68CE77D 
 193      EC898C0B 
 193      195919
 194 0075 D21999B5 		.ascii	"\322\031\231\265\031\264\200F\314f\230\305\230\311\310"
 194      19B48046 
 194      CC6698C5 
 194      98C9C8
 195 0084 94CEC814 		.ascii	"\224\316\310\024\001\244\231\301\026&1\302\234y\226"
 195      01A499C1 
 195      162631C2 
 195      9C7996
 196 0093 E1D08E09 		.ascii	"\341\320\216\011\334\020-\332\014\253\032Z\032\033,"
 196      DC102DDA 
 196      0CAB1A5A 
 196      1A1B2C
 197 00a2 33195920 		.ascii	"3\031Y \232X\201\206\20041@5A\030 \021\026\230\336\035"
 197      9A588186 
 197      80343140 
 197      35411820 
 197      111698DE 
 198 00b7 CFFB7488 		.ascii	"\317\373t\210\324\315\204\241\373\326\214W}\3320\347"
 198      D4CD84A1 
 198      FBD68C57 
ARM GAS  /tmp/cchWVbPq.s 			page 15


 198      7DDA30E7 
 199 00c7 B2410C10 		.ascii	"\262A\014\020\300\251\237\031\356\344\346\335\3140]"
 199      C0A99F19 
 199      EEE4E6DD 
 199      CC305D
 200 00d6 EC408D20 		.ascii	"\354@\215 E\214\015\377\376\377\347\207\030\353\211"
 200      458C0DFF 
 200      FEFFE787 
 200      18EB89
 201 00e5 EC2042E6 		.ascii	"\354 B\346\001\215``\270\310\320\370\000\030\360\020"
 201      018D6060 
 201      B8C8D0F8 
 201      0018F010 
 202 00f5 7D301002 		.ascii	"}0\020\002\364/0\\A\3166\322\323\323w\316\310L\312\364"
 202      F42F305C 
 202      41CE36D2 
 202      D3D377CE 
 202      C84CCAF4 
 203 0109 0FD6CF2F 		.ascii	"\017\326\317/\326\317H\314\321/\310/*)\326\017\016\361"
 203      D6CF48CC 
 203      D12FC82F 
 203      2A29D60F 
 203      0EF1
 204 011b 3536D2F7 		.ascii	"56\322\367\361q\321\017\361\364-3\324O/(\211\317\311"
 204      F171D10F 
 204      F1F42D33 
 204      D44F2F28 
 204      89CFC9
 205 012e 49D14B66 		.ascii	"I\321Kf\000\000`Im\222"
 205      00006049 
 205      6D92
 206              		.text
 207              		.section	.gnu.lto_gpt_lld_polled_delay.9983f1ad0ac75942,"",%progbits
 208 0000 789C8D52 		.ascii	"x\234\215RAK\002Q\020\236y\357m\346b\364\027:'\271\244"
 208      414B0251 
 208      109E79EF 
 208      6DE662F4 
 208      173A27B9 
 209 0015 5D822E51 		.ascii	"]\202.Q\027A\351\340\012u\012-\320\005CI\351\352nz\350"
 209      1741E9E0 
 209      0A750A2D 
 209      D0054349 
 209      E9EA6E7A 
 210 002a 10E231EA 		.ascii	"\020\3421\352\324\265C\335B\360\022\022X\007\205n\341"
 210      D4B543DD 
 210      42F01212 
 210      5807856E 
 210      E1
 211 003b C95BD029 		.ascii	"\311[\320)\014\302C`\363\336\252\033A\340\203\235\031"
 211      0CC24360 
 211      F3DEAA1B 
 211      41E0839D 
 211      19
 212 004c 66E6FB86 		.ascii	"f\346\373\206\371v\0300\370\3736\350\213Rz\215<\316"
 212      F9761830 
 212      F8FB36E8 
 212      8B527A8D 
ARM GAS  /tmp/cchWVbPq.s 			page 16


 212      3CCE
 213 005e 01B27A17 		.ascii	"\001\262z\027\300\231g\310\335\2003\355\274\015`\353"
 213      C09967C8 
 213      DD8033ED 
 213      BC0D60EB 
 214 006e A2EA033B 		.ascii	"\242\352\003;\240\271\371M\201(= \224\031\327\004\226"
 214      A0B9F94D 
 214      81283D20 
 214      9419D704 
 214      96
 215 007f F750D1DD 		.ascii	"\367P\321\335\261\207\376ht\373\3755lc\267)\002\014"
 215      B187FE68 
 215      74FBFD35 
 215      6C63B729 
 215      020C
 216 0091 8F103858 		.ascii	"\217\0208X\010\202\"\324(B\2774\2724\004\320\240j\333"
 216      088222D4 
 216      2842BF34 
 216      BA3404D0 
 216      A06ADB
 217 00a4 F5258003 		.ascii	"\365%\200\003E`\222\245AId\344x\007N{\027\203\232/\205"
 217      456092A5 
 217      414964E4 
 217      78074E7B 
 217      17839A2F 
 218 00b9 D704CD20 		.ascii	"\327\004\315 \017\3022Q]\301%Z\3102\310v\311s58\215"
 218      0FC23251 
 218      5DC1255A 
 218      C832C876 
 218      C9733538 
 219 00ce 938D3A50 		.ascii	"\223\215:P9\253\334\343\004\243eP\3106\034\321[T\365"
 219      39ABDCE3 
 219      04A36550 
 219      C8361CD1 
 219      5B54F5
 220 00e1 D6F387EE 		.ascii	"\326\363\207\356\226\203pcW\035{\335B\341\222R7\227"
 220      96837063 
 220      571D7BDD 
 220      42E19252 
 220      3797
 221 00f3 DD302675 		.ascii	"\3350&u\003bQ\270FcP\013\316\210t\245\226\031\201\356"
 221      036251B8 
 221      4663500B 
 221      CE8874A5 
 221      961981EE 
 222 0107 D4C6EBEC 		.ascii	"\324\306\353\354h\356\241\027\306{%)I\232\223(\255\336"
 222      68EEA117 
 222      C67B2529 
 222      499A9328 
 222      ADDE
 223 0119 70505B99 		.ascii	"pP[\231,\350Wd\370/\225\360tiV\336\247\272\350\204T"
 223      2CE85764 
 223      F82F95F0 
 223      746956DE 
 223      A7BAE884 
 224 012e BAC8C627 		.ascii	"\272\310\306'x|s\"\323\222\312\377\276\022\223\362t"
 224      787C7322 
ARM GAS  /tmp/cchWVbPq.s 			page 17


 224      D392CAFF 
 224      BE1293F2 
 224      74
 225 013f 06982436 		.ascii	"\006\230$6\365_H\212\317\231\227\021\33622x\001\247"
 225      F55F488A 
 225      CF999711 
 225      DE323278 
 225      01A7
 226 0151 4FB7E182 		.ascii	"O\267\341\202\275\011H\314R\264p(dle\255\264\265\223"
 226      BD0948CC 
 226      52B47028 
 226      646C65AD 
 226      B4B593
 227 0164 30F24523 		.ascii	"0\362E#\233\312\031\205\374q\251h$\314x$l\304b\333\206"
 227      9BCA1985 
 227      FC71A968 
 227      24CC7824 
 227      6CC462DB 
 228 0179 198D9FAC 		.ascii	"\031\215\237\254\032\231Bi?\227;\014\035\300\017\274"
 228      1A994269 
 228      3F973B0C 
 228      1DC00FBC 
 229 0189 9395D0   		.ascii	"\223\225\320"
 230              		.text
 231              		.section	.gnu.lto_gpt_lld_serve_interrupt.9983f1ad0ac75942,"",%progbits
 232 0000 789C8D93 		.ascii	"x\234\215\223Oh\023A\024\306\337\233\231M\272k\242\365"
 232      4F681341 
 232      14C6DF9B 
 232      994DBA6B 
 232      A2F5
 233 0012 285228BD 		.ascii	"(R(\275i$\253)\036r\326K\241\305CS\320\223\244\021\322"
 233      6924AB29 
 233      1E72D64B 
 233      A1C54353 
 233      D093A411 
 234 0027 8548832D 		.ascii	"\205H\203-^;Ys^\202\247\242\027{\015\376)x\211\0244"
 234      5E3B5973 
 234      5E82A7A2 
 234      177B0DFE 
 234      29788914 
 235 003c 142D2A54 		.ascii	"\024-*T\361Vr\312\255\340\245z\261%\202\361\275\235"
 235      F15672CA 
 235      ADE0A57A 
 235      B12582F1 
 235      BD9D
 236 004e EC36D8A0 		.ascii	"\3546\330\240\016\354\233\307\356\374\276\367\346\233"
 236      0EEC9BC7 
 236      EEFCBEF7 
 236      E69B
 237 005c 590102FE 		.ascii	"Y\001\002\376\0349z\232\022 O3Z\200\242\361\011\240"
 237      1C397A9A 
 237      12204F33 
 237      5A80A2F1 
 237      09A0
 238 006e 362684DC 		.ascii	"6&\204\334\231\000\355\250\217\227A\247$*\363Z!r\002"
 238      9900EDA8 
 238      8F9741A7 
ARM GAS  /tmp/cchWVbPq.s 			page 18


 238      242AF35A 
 238      217202
 239 0081 086B422A 		.ascii	"\010kB*\\\273\205\241\310\013\321\356\366\373\317_\037"
 239      5CBB85A1 
 239      C80BD1EE 
 239      F6FBCF5F 
 239      1F
 240 0092 1EBDC383 		.ascii	"\036\275\303\203-uV\342]\004\005\036B\202\002\332\024"
 240      2D7556E2 
 240      5D04051E 
 240      428202DA 
 240      14
 241 00a3 844341A6 		.ascii	"\204CA\246(\2504\007\242,\250k\335\230\004(\205*\005"
 241      28A83407 
 241      A22CA86B 
 241      DD980428 
 241      852A05
 242 00b6 8A2CBE80 		.ascii	"\212,\276\200\202g\271\013~\247\325\013\222E\334\240"
 242      8267B90B 
 242      7EA7D50B 
 242      9245DCA0 
 243 00c6 C6CAA832 		.ascii	"\306\312\2502p\221\024\037\303#\364\320*\243\274Is\""
 243      7091141F 
 243      C323F4D0 
 243      2AA3BC49 
 243      7322
 244 00d8 ACBF88D1 		.ascii	"\254\277\210\321vva\273\265\351\030$\003M]\257\351\274"
 244      767661BB 
 244      B5E91824 
 244      034D5DAF 
 244      E9BC
 245 00ea 8749038D 		.ascii	"\207I\003\215\221\010C0\200L\302o\222\206\365;{\275"
 245      91084330 
 245      804CC26F 
 245      9286F53B 
 245      7BBD
 246 00fc E07C5430 		.ascii	"\340|T0\021\026\264G\027\214\234|\017o\367k\351\030"
 246      1116B447 
 246      178C9C7C 
 246      0F6FF76B 
 246      E918
 247 010e E125B61A 		.ascii	"\341%\266\032\362w\001%\354L\360fZG\275\340\302qg4\246"
 247      F2770125 
 247      EC4CF066 
 247      5A47BDE0 
 247      C2716734 
 248 0123 FFA11E8A 		.ascii	"\377\241\036\212q\372\001\374\366\000\235\202\015\255"
 248      71FA01FC 
 248      F6009D82 
 248      0DAD
 249 0131 1FB6DF1C 		.ascii	"\037\266\337\034n\236\323O\374\206\376\325\3573'\340"
 249      6E9ED34F 
 249      FC86FED5 
 249      EF3327E0 
 250 0141 2AB28F8C 		.ascii	"*\262\217\2148\223\341tj\270\015\032T\302\370\263\276"
 250      3893E174 
 250      6AB80D1A 
ARM GAS  /tmp/cchWVbPq.s 			page 19


 250      54C2F8B3 
 250      BE
 251 0152 1F5C8ABD 		.ascii	"\037\\\212\2757\211~y\360\335*b\023\247h\241)T2\366"
 251      37897E79 
 251      F0DD2A62 
 251      13A768A1 
 251      295432F6 
 252 0166 1813DBAF 		.ascii	"\030\023\333\257~t\321\370X\323z\374\244\225\222\261"
 252      7E74D1F8 
 252      58D37AFC 
 252      A49592B1 
 253 0176 67840DDB 		.ascii	"g\204\015\333\271\335jQ\251\">=q\030\243Ep\244Hg\375"
 253      B9DD6A51 
 253      A9223E3D 
 253      7118A345 
 253      70A44867 
 254 018b 6B903122 		.ascii	"k\2201\"eL\031\235\361\277\311\250X\206\371\007[2\202"
 254      654C199D 
 254      F1BFC9A8 
 254      5886F907 
 254      5B3282
 255 019e D3C4F342 		.ascii	"\323\304\363B\305\256\2351\3523\303\355\375\247,)E\207"
 255      C5AE9D31 
 255      EA33C3ED 
 255      FDA72C29 
 255      4587
 256 01b0 ABE2ABBA 		.ascii	"\253\342\253\272\367\363\370\252\332\341\315\021\243"
 256      F7F3F8AA 
 256      DAE1CD11 
 256      A3
 257 01bd CFD68AAF 		.ascii	"\317\326\212\257\252\337\371\026#\016w@US\006\242Vm"
 257      AADFF916 
 257      230E7740 
 257      555306A2 
 257      566D
 258 01cf 86C4004A 		.ascii	"\206\304\000J\014\240\317Po\347\015\303}8\341\261zx"
 258      0CA0CF50 
 258      6FE70DC3 
 258      7D38E1B1 
 258      7A78
 259 01e1 1AE00BD4 		.ascii	"\032\340\013\324\272\364\357E\337\314(\220\247\324 "
 259      BAF4EF45 
 259      DFCC2890 
 259      A7D420
 260 01f0 ABE4B259 		.ascii	"\253\344\262Y\367\332\222\267\350\335\230w\227W\334"
 260      F7DA92B7 
 260      E8DD9877 
 260      9757DC
 261 01ff A562C5AD 		.ascii	"\245b\305\255.\337[]q\347\013s\3239wv\366\272[\230\231"
 261      2EDF5B5D 
 261      71E70B73 
 261      D3397776 
 261      F6BA5B98 
 262 0214 BB7FC52D 		.ascii	"\273\177\305-WWoW*w\262%P\224V\177\003V\207\344w"
 262      57576F57 
 262      2A77B225 
 262      5094567F 
ARM GAS  /tmp/cchWVbPq.s 			page 20


 262      035687E4 
 263              		.text
 264              		.section	.gnu.lto_VectorA4.9983f1ad0ac75942,"",%progbits
 265 0000 789C6362 		.ascii	"x\234cb`b@\007\222@\274\031\210M\200\230\221\231\201"
 265      60624007 
 265      9240BC19 
 265      884D8098 
 265      919981
 266 0013 9169C239 		.ascii	"\221i\3029\006\206F\016&FF\020\203\201\221\241\236\211"
 266      0686460E 
 266      26464610 
 266      838191A1 
 266      9E89
 267 0025 B13E9211 		.ascii	"\261>\222\021\254v=\323\201\007\377\377\257\373vj\315"
 267      AC763DD3 
 267      8107FFFF 
 267      AFFB766A 
 267      CD
 268 0036 1AC6354C 		.ascii	"\032\3065L,@\021V\206\226\206\206\011\012\014\014\311"
 268      2C401156 
 268      86968686 
 268      090A0C0C 
 268      C9
 269 0047 60152140 		.ascii	"`\025!@\022\244-\224\221\011D3\237ghy\260\377(_\"\343"
 269      12A42D94 
 269      91094433 
 269      9F676879 
 269      B0FF285F 
 270 005d 424656A0 		.ascii	"BFV\240t5\303\257\206\216\006\201LF\240r\210\211 \021"
 270      7435C3AF 
 270      868E0681 
 270      4C46A072 
 270      88892011 
 271 0071 8E4C46C6 		.ascii	"\216LF\306\\F\006\250\242L\240V\206\363\014\315\017"
 271      5C4606A8 
 271      A24CA056 
 271      86F30CCD 
 271      0F
 272 0082 4EA66268 		.ascii	"N\246bhcNf\204x \223\021h\371E\206\306\007\247Ta\212"
 272      634E6684 
 272      78209311 
 272      68F94586 
 272      C607A754 
 273 0098 20200468 		.ascii	"  \004h.\320b\220*#==}\347\214\314\244L\377`\375\374"
 273      2ED06290 
 273      2A233D3D 
 273      7DE78CCC 
 273      A44CFF60 
 274 00ae 62FD8CC4 		.ascii	"b\375\214\304\034\375\202\374\242\222b\375\340\020_"
 274      1CFD82FC 
 274      A29262FD 
 274      E0105F
 275 00bd 63237D1F 		.ascii	"c#}\037\037\027\375\020O\3372C\375\364\202\222\370\234"
 275      1F17FD10 
 275      4FDF3243 
 275      FDF48292 
 275      F89C
ARM GAS  /tmp/cchWVbPq.s 			page 21


 276 00cf 9C14BD64 		.ascii	"\234\024\275d\006\000?\353@!"
 276      06003FEB 
 276      4021
 277              		.text
 278              		.section	.gnu.lto_.symbol_nodes.9983f1ad0ac75942,"",%progbits
 279 0000 789C4DCA 		.ascii	"x\234M\312\273\021\202P\024\004\320\275\373@\001\261"
 279      BB118250 
 279      1404D0BD 
 279      FB4001B1 
 280 0010 0643CA5C 		.ascii	"\006C\312\\\206\000\011\361\377\033H,\301\022\310\255"
 280      860009F1 
 280      FF1B482C 
 280      C112C8AD 
 281 0020 C1026C41 		.ascii	"\301\002lA\307A\031y7\3319\273\227 ^\030\216-\005\324"
 281      C7411979 
 281      37D939BB 
 281      97205E18 
 281      8E2D05D4 
 282 0034 77406A2A 		.ascii	"w@j*\343\232\262\201meaM\204\0027\024\307\226[\312y"
 282      E39AB281 
 282      6D65614D 
 282      84023714 
 282      C7965BCA 
 283 0049 DC5181C7 		.ascii	"\334Q\201\307=\025z<P\023\217Gj\352qEE#\255\241\342"
 283      3D157A3C 
 283      50138F47 
 283      6AEA7145 
 283      4523ADA1 
 284 005e 1FF3DCEC 		.ascii	"\037\363\334\354L%\243.\324l\324\211J\377rH\320=\336"
 284      4C25A32E 
 284      D46CD489 
 284      4AFF7248 
 284      D03DDE
 285 0071 E66C866B 		.ascii	"\346l\206k\237.EWf.\000\2122\013\"\334\226\317\205\213"
 285      9F2E4557 
 285      662E008A 
 285      320B22DC 
 285      96CF858B 
 286 0085 2314FD18 		.ascii	"#\024\375\030\317\277O\370\000\304[K&"
 286      CFBF4FF8 
 286      00C45B4B 
 286      26
 287              		.text
 288              		.section	.gnu.lto_.refs.9983f1ad0ac75942,"",%progbits
 289 0000 789C6362 		.ascii	"x\234cb`b\020f\200\000&FF&&&Ff f\001bN&&\006\000\004"
 289      60621066 
 289      80002646 
 289      46262626 
 289      46662066 
 290 001c 0C0041   		.ascii	"\014\000A"
 291              		.text
 292              		.section	.gnu.lto_.decls.9983f1ad0ac75942,"",%progbits
 293 0000 789CBD5A 		.ascii	"x\234\275Z}tT\305\025\237yo\023\262\0200bE\360\364\034"
 293      7D7454C5 
 293      159F796F 
 293      13B21030 
 293      6245F0F4 
ARM GAS  /tmp/cchWVbPq.s 			page 22


 294 0015 96AAAD47 		.ascii	"\226\252\255G\013K\022\374<\036%l\"I\217I8\233\320c"
 294      0B4B12FC 
 294      3C1E256C 
 294      22498F49 
 294      389BD063 
 295 0029 DBD3B33E 		.ascii	"\333\323\263>6/d\353f7n6\010\1779\220\210Hk\015\004"
 295      362F64EB 
 295      66376E36 
 295      087F3990 
 295      88486B0D 
 296 003e 11908F50 		.ascii	"\021\220\217P\240@\213\200\001\025\253\205\225\203\224"
 296      A0408B80 
 296      0115AB85 
 296      958394
 297 004d 4A513E04 		.ascii	"JQ>\004\205\000YCm\213T\245~\005%\270\2753o\336\276"
 297      85005943 
 297      6D8B54A5 
 297      7E0525B8 
 297      BD336FDE 
 298 0062 8FBCDDBC 		.ascii	"\217\274\335\274\307\037\276\223{\337\354\274\231\337"
 298      C71FBE93 
 298      7BDFECBC 
 298      99DF
 299 0070 FCEE9D3B 		.ascii	"\374\356\235;\363f\346E@\002\272\331\205P\012\256\351"
 299      F366E645 
 299      4002BAD9 
 299      85500AAE 
 299      E9
 300 0081 37237411 		.ascii	"7#t\021\322C\021B\367\203@\022\255\005\331\004r\032"
 300      D2431142 
 300      F7834012 
 300      AD05D904 
 300      721A
 301 0093 641B52AE 		.ascii	"d\033R\256\341 #1B\243@n\004\031\013r\023\210\027\244"
 301      E1202331 
 301      42A3406E 
 301      04190B72 
 301      138817A4 
 302 00a7 18E46E90 		.ascii	"\030\344n\220\373@\036\000\361\201\224\201\374\014\004"
 302      FB401E00 
 302      F1819481 
 302      FC0C04
 303 00b6 FED04318 		.ascii	"\376\320C\030\031.\2123\224\2671\002$\037d\010H\025"
 303      192E8A33 
 303      94B73102 
 303      241F6408 
 303      4815
 304 00c8 56DA9E0C 		.ascii	"V\332\236\014\367sp\257\206{\204c<\002J\340u\037\340"
 304      F77370AF 
 304      867B8463 
 304      3C024AE0 
 304      751FE0
 305 00db E928DCC7 		.ascii	"\351(\334\307\231\260)\277\034\316}3o\343\010\310!\244"
 305      99B029BF 
 305      1CCE7D33 
 305      6FE308C8 
 305      21A4
ARM GAS  /tmp/cchWVbPq.s 			page 23


 306 00ed E07423A5 		.ascii	"\340t#\245\356(\316\323\212\037\265\357z\2707a\215_"
 306      EE28CED3 
 306      8A1FB5EF 
 306      7AB83761 
 306      8D5F
 307 00ff 17E79800 		.ascii	"\027\347\230\000\021u\276Q\333\320\363\235\305\355x"
 307      1175BE51 
 307      DBD0F39D 
 307      C5ED78
 308 010e 10EE8F83 		.ascii	"\020\356\217\203\274\011\3513 \2639\336Vn\317/ANBz\017"
 308      BC09E933 
 308      20B339DE 
 308      566ECF2F 
 308      414E427A 
 309 0123 C87ECEAD 		.ascii	"\310~\316\255\027\344\030\310G } \027@\216\203\234\347"
 309      17E418C8 
 309      47207D20 
 309      17408E83 
 309      9CE7
 310 0135 BC6FE4BE 		.ascii	"\274o\344\276\245\034~\010\3679x \177\3327n\316\331"
 310      A51C7E08 
 310      F7397820 
 310      7FDA376E 
 310      CED9
 311 0147 8A27E5D2 		.ascii	"\212'\345\322\012e\256\343\276\332\252k\373<oS\3408"
 311      0A65AEE3 
 311      BEDAAA6B 
 311      FB3C6F53 
 311      E038
 312 0159 23795BE3 		.ascii	"#y[\343x;m\246\266h\014\014\343\355\250\3769b\321\336"
 312      783B6DA6 
 312      B6680C0C 
 312      E3EDA8FE 
 312      3962D1DE 
 313 016d 93DC0FF3 		.ascii	"\223\334\017\36397\332\3367 \237\200|\305\333\244~8"
 313      3937DADE 
 313      37209F80 
 313      7CC5DBA4 
 313      7E38
 314 017f C839F4F2 		.ascii	"\3109\364\362\376\272\211\367\365\355p\377\251\251m"
 314      FEBA89F7 
 314      F5ED70FF 
 314      A9A96D
 315 018e 1A7BB9BA 		.ascii	"\032{\271\272\266\315m\272tv]\340\270\230\327\243\367"
 315      B6CD6DBA 
 315      74765DE0 
 315      B898D7A3 
 315      F7
 316 019f 42135EF1 		.ascii	"B\023^\361 x9&\336*.\346u)\317;\340~\247\011\227\216"
 316      20783926 
 316      DE2A2EE6 
 316      7529CF3B 
 316      E07EA709 
 317 01b5 8D6B386E 		.ascii	"\215k8n\227\316GVm\320\276RcN\365\331!^\266\233\267"
 317      97CE4756 
 317      6DD0BE52 
 317      634EF5D9 
ARM GAS  /tmp/cchWVbPq.s 			page 24


 317      215EB69B 
 318 01ca B755D757 		.ascii	"\267U\327W\252\317\004\336\216j\333\275&\016\367\361"
 318      AACF04DE 
 318      8E6ADBBD 
 318      260EF7F1 
 319 01da BE3EC2DB 		.ascii	"\276>\302\333\243\230OA\336\015\274\234\310\313\334"
 319      A3984F41 
 319      DE0DBC9C 
 319      C8CBDC
 320 01e9 9D65DCBA 		.ascii	"\235e\334\272\321\002B\346\221\316\371\244\374\000p"
 320      D10242E6 
 320      91CEF9A4 
 320      FC0070
 321 01f8 7C184B78 		.ascii	"|\030Kx\204\033yX\"\337\315\334}\013ZOH{\362\255\336"
 321      841B7958 
 321      22DFCDDC 
 321      7D0B5A4F 
 321      487BF2AD 
 322 020d A440489E 		.ascii	"\244@H\236\204\327b7P\203\001q\033\332L\340\011!\275"
 322      84D76237 
 322      50830171 
 322      1BDA4CE0 
 322      0921BD
 323 0220 0F98501D 		.ascii	"\017\230P\035B\257Z\370\306=\014z\003\203\376\255\200"
 323      42AF5AF8 
 323      C63D0C7A 
 323      0383FEAD 
 323      80
 324 0231 9184D7E3 		.ascii	"\221\204\327\343\3338\220\204\207\270\365\300\354\267"
 324      DB389084 
 324      87B8F5C0 
 324      ECB7
 325 023f 5A80A2B1 		.ascii	"Z\200\242\261\307<A'\300k\220\323\342\303\320B\215\353"
 325      C73C4127 
 325      C06B90D3 
 325      E2C3D042 
 325      8DEB
 326 0251 48B408EC 		.ascii	"H\264\010\354\"\036\035k\202U\332\005\032\3553\213w"
 326      221E1D6B 
 326      8255DA05 
 326      1AED338B 
 326      77
 327 0262 DFCB686F 		.ascii	"\337\313ho\306#\201\366\253&\332\203\302H\370\317X\000"
 327      C62381F6 
 327      AB26DA83 
 327      C248F8CF 
 327      5800
 328 0274 BD05AA2B 		.ascii	"\275\005\252+\025\0310Iv\234\350\177\012\317%\004+\317"
 328      15193049 
 328      769CE87F 
 328      0ACF2504 
 328      2BCF
 329 0286 9001D670 		.ascii	"\220\001\326p\215C\235\300;q\271g\365\015$\231\300C"
 329      8D439DC0 
 329      3B71B967 
 329      F50D2499 
 329      C043
ARM GAS  /tmp/cchWVbPq.s 			page 25


 330 0298 D07C6A46 		.ascii	"\320|jF\362\311y\243\227i\255\346\251\215b\035\367\243"
 330      F2C979A3 
 330      9769ADE6 
 330      A98D621D 
 330      F7A3
 331 02aa AF8A8CFB 		.ascii	"\257\212\214\3736\250$\240/M\334m\000QV]PY\317<ql\216"
 331      36A824A0 
 331      2F4DDC6D 
 331      0051565D 
 331      5059CF3C 
 332 02c1 47C9CDC2 		.ascii	"G\311\315\302Y\244\201-\240\224\2408\303\345\326\362"
 332      59A4812D 
 332      A094A038 
 332      C3E5D6F2 
 333 02d1 168AE93C 		.ascii	"\026\212\351<\254+\332\241e\013\272\354UZ\266\250\313"
 333      AC2BDAA1 
 333      650BBAEC 
 333      555AB6A8 
 333      CB
 334 02e2 DEA265BB 		.ascii	"\336\242e\273x\223\364'vk\211\2241^\365\206Hx\007\276"
 334      7893F427 
 334      766B8994 
 334      315EF586 
 334      487807BE 
 335 02f6 05F44E2C 		.ascii	"\005\364N,ZV\023\320.\021\363N\263r\013Oj\355\216H\307"
 335      5A5613D0 
 335      2E11F34E 
 335      B3720B4F 
 335      6AED8E48 
 336 030b AED259D0 		.ascii	"\256\322Y\320\273\373F\357\356\"\344\351\\\253\250\203"
 336      BBFB46EF 
 336      EE22E4E9 
 336      5CABA883 
 337 031b 227890C0 		.ascii	"\"x\220\300K\234\354\301\036\033\321\265\027\014\031"
 337      4B9CECC1 
 337      1E1BD1B5 
 337      170C19
 338 032a B4182DB8 		.ascii	"\264\030-\270\317\024\200\211\257\316\346\023\227\222"
 338      CF148089 
 338      AFCEE613 
 338      9792
 339 0338 3F78F02D 		.ascii	"?x\360-\352Y=\206t\356\305\266\307{b\317\352\353)\374"
 339      EA593D86 
 339      74EEC5B6 
 339      C77B62CF 
 339      EAEB29FC 
 340 034c DFD868DF 		.ascii	"\337\330h\337-\232G\373Z\354x\270\013\350\000\203\331"
 340      2D9A47FB 
 340      5AEC78B8 
 340      0BE80083 
 340      D9
 341 035d A7F58AA1 		.ascii	"\247\365\212\241\341A{%\261\206[a\350\223Q\3509\326"
 341      E1417B25 
 341      B1865B61 
 341      E89351E8 
 341      39D6
 342 036f 27301870 		.ascii	"'0\030p\\\302\367_o\011N)\036\302\243\264\340\246\031"
ARM GAS  /tmp/cchWVbPq.s 			page 26


 342      5CC2F75F 
 342      6F094E29 
 342      1EC2A3B4 
 342      E0A619
 343 0382 9B0049C2 		.ascii	"\233\000I\302\323\305\264\031Y\346\2773G\337\232\213"
 343      D3C5B419 
 343      59E6BF33 
 343      47DF9A8B 
 344 0392 E7B1F1FE 		.ascii	"\347\261\361\376\017\250&\240\243&\237\030H)\215e\""
 344      0FA826A0 
 344      A3269F18 
 344      48298D65 
 344      22
 345 03a3 7284B56B 		.ascii	"r\204\265k\325c\003\236\011(\351\330i\036S(\177\372"
 345      D563039E 
 345      0928E9D8 
 345      691E5328 
 345      7FFA
 346 03b5 3EEE6825 		.ascii	">\356h%\007&\252\257\205\363v\020\3632w\303\211\236"
 346      0726AAAF 
 346      85F37610 
 346      F33277C3 
 346      899E
 347 03c7 FC764905 		.ascii	"\374vI\005\373\3041\230g\200\315\312\230~\213\215\351"
 347      FBC43198 
 347      6780CDCA 
 347      987E8B8D 
 347      E9
 348 03d8 FD781CE8 		.ascii	"\375x\034\350\203L\037c\3728\350\364%\240\317\007\304"
 348      834C1F63 
 348      FA38E8F4 
 348      25A0CF07 
 348      C4
 349 03e9 A2320474 		.ascii	"\2422\004tx\332XA\203#f\352\244\004\036\2465\332o\236"
 349      78DA5841 
 349      832366EA 
 349      A4041EA6 
 349      35DA6F9E 
 350 03fd 4F9C7542 		.ascii	"O\234uB\242\253\367\000&\213\363U\247\265\272l\300e"
 350      A2ABF700 
 350      268BF355 
 350      A7B5BA6C 
 350      C065
 351 040f E981D77B 		.ascii	"\351\201\327{/\212\313I\242M\034\364\235\230\253\242"
 351      2F8ACB49 
 351      A24D1CF4 
 351      9D98ABA2 
 352 041f 3D82D2A1 		.ascii	"=\202\322\241\274\243\367b\244\225E\362\031\366R\334"
 352      BCA3F762 
 352      A49545F2 
 352      19F652DC 
 353 042f ED1AFCA5 		.ascii	"\355\032\374\245h\300\241\356I\232\347\243\216n6\037"
 353      68C0A1EE 
 353      499AE7A3 
 353      8E6E361F 
 354 043f 25079F8F 		.ascii	"%\007\237\217\332Z\023\317u\257\324\346\243\326\254"
 354      DA5A13CF 
ARM GAS  /tmp/cchWVbPq.s 			page 27


 354      75AFD4E6 
 354      A3D6AC
 355 044e F39184FF 		.ascii	"\363\221\204\377\300\002\303\316\004\3636\263$yu\023"
 355      C002C3CE 
 355      04F336B3 
 355      24797513 
 356 045e 0CD05ADA 		.ascii	"\014\320Z\332\315\"\373\034\353\244w\034\203y\014`\313"
 356      CD22FB1C 
 356      EBA4771C 
 356      83790C60 
 356      CB
 357 046f F46047ED 		.ascii	"\364`G\355\200e\352q\000[\241\007{\3371\230\221\331"
 357      8065EA71 
 357      005BA107 
 357      7BDF3198 
 357      91D9
 358 0481 4A3DD869 		.ascii	"J=\330i;`\005\231\231\255\326\203\3658\00632\333\256"
 358      3B600599 
 358      99ADD683 
 358      F5380633 
 358      32DBAE
 359 0494 073B6707 		.ascii	"\007;g\007ltff]z\260\363\216\301\214\314v\352\301>\263"
 359      6C746666 
 359      5D7AB0F3 
 359      8EC18CCC 
 359      76EAC13E 
 360 04a9 03E6C9CC 		.ascii	"\003\346\311\314\354\025=\330\227\216\301\214\314v\351"
 360      EC153DD8 
 360      978EC18C 
 360      CC76E9
 361 04b8 C12ED901 		.ascii	"\301.\331\001\27353\263\277\350\301\372\035\203\031"
 361      BB3533B3 
 361      BFE8C1FA 
 361      1D8319
 362 04c7 99BDA107 		.ascii	"\231\275\241\007#96\300&fb67\261\373W\355\322\265\250"
 362      233936C0 
 362      26666236 
 362      37B1FB57 
 362      EDD2B5A8 
 363 04db 9DCF4C0A 		.ascii	"\235\317L\012j\206\325\222\276\330\332\314\305$\234"
 363      6A86D592 
 363      BED8DACC 
 363      C5249C
 364 04ea C2D7B214 		.ascii	"\302\327\262\024\233\206H\372\335\235\357\266\344Hk"
 364      9B8648FA 
 364      DD9DEFB6 
 364      E4486B
 365 04f9 10C19DA6 		.ascii	"\020\301\235\246\230\357\326\022\332\032B_\012\314n"
 365      98EFD612 
 365      DA1A425F 
 365      0ACC6E
 366 0508 339B6D64 		.ascii	"3\233mdae\267\321\211\207\365N\\`\307\211\2233\203\035"
 366      6165B7D1 
 366      8987F54E 
 366      5C60C789 
 366      9333831D 
 367 051c D5833D63 		.ascii	"\325\203=c\007\254<s\254\274\247\007[\344\030\314\310"
ARM GAS  /tmp/cchWVbPq.s 			page 28


 367      07AC3C73 
 367      ACBCA707 
 367      5BE418CC 
 367      C8
 368 052d EC841E6C 		.ascii	"\354\204\036l\251\035\260i\231\231}\240\007[\356\030"
 368      A91DB069 
 368      99997DA0 
 368      075BEE18 
 369 053d 4CCF6C6E 		.ascii	"L\317ln\342\224\026x\235\223M\2217\3318\333\032\212"
 369      E2941678 
 369      9D934D91 
 369      37D938DB 
 369      1A8A
 370 054f ADCD584C 		.ascii	"\255\315XL\302\277\027\234\006\336\263\031\002O\277"
 370      C2BF179C 
 370      06DEB319 
 370      024FBF
 371 055e 4BD24A81 		.ascii	"K\322J\201\331k\314f\033H\360\344\303\026>\264\272\364"
 371      D96BCC66 
 371      1B48F0E4 
 371      C3163EB4 
 371      BAF4
 372 0570 EF7B097F 		.ascii	"\357{\011\177\310^\310\275l-\365\021\323\377f\372<\323"
 372      C85EC8BD 
 372      6C2DF511 
 372      D3FF66FA 
 372      3CD3
 373 0582 1798FE84 		.ascii	"\027\230\376\204\351\317\230\376\037\323_0\375\025\323"
 373      E9CF98FE 
 373      1FD35F30 
 373      FD15D3
 374 0591 7D4C7FC3 		.ascii	"}L\177\303\364e\246\2570=O\240\272\215\351\371L/`z!"
 374      F465A6AF 
 374      303D4FA0 
 374      BA8DE9F9 
 374      4C2F607A 
 375 05a6 D3BF136C 		.ascii	"\323\277\023l\254\333N\353\327m\353s\234.\264<\331\234"
 375      ACDB4EEB 
 375      D76DEB73 
 375      9C2EB43C 
 375      D99C
 376 05b8 B045E784 		.ascii	"\260E\347\204\027\231\023\2662\332{\230>\311t\267\235"
 376      179913B6 
 376      32DA7B98 
 376      3EC974B7 
 376      9D
 377 05c9 C5E5268D 		.ascii	"\305\345&\215\344X\264\232$\222\311\227.\\\332\212?"
 377      E458B49A 
 377      2492C997 
 377      2E5CDA8A 
 377      3F
 378 05da ECEA244F 		.ascii	"\354\352$O\223\357RO`\373\273\232\016a\024O\251\033"
 378      93EF524F 
 378      60FBBB9A 
 378      0E61144F 
 378      A91B
 379 05ec 190175E7 		.ascii	"\031\001u\347\030Wt\010\375\030m`\307@\233\210\310\320"
ARM GAS  /tmp/cchWVbPq.s 			page 29


 379      18577408 
 379      FD186D60 
 379      C7409B88 
 379      C8D0
 380 05fe 68F9C5C2 		.ascii	"h\371\305\302X\243yK\004A\237A\231u&\023\247O\345\267"
 380      58A3794B 
 380      04419F41 
 380      99752613 
 380      A74FE5B7 
 381 0612 CF4DA652 		.ascii	"\317M\246Rc\355sz\336\202\323g\326\234\210\221\323R"
 381      63ED737A 
 381      DE82D367 
 381      D69C8891 
 381      D352
 382 0624 33A76596 		.ascii	"3\247e\226\234\266\367pN\312F\013^U&\364\233\321:B\026"
 382      9CB6F770 
 382      4ECA460B 
 382      5E5526F4 
 382      9BD13A42 
 383 0639 93545DB9 		.ascii	"\223T]\271\342l\001-\314\245%V\000\276\365*\223w\011"
 383      E26C012D 
 383      CCA52556 
 383      00BEF52A 
 383      937709
 384 064c 27F50C79 		.ascii	"'\365\014y\262\000\247Y\2550\263z\301\222\325\331\013"
 384      B200A759 
 384      AD30B37A 
 384      C192D5D9 
 384      0B
 385 065d 74954FFA 		.ascii	"t\225O\372S\251\326<\2442{6\327\222\331\025\225\231"
 385      53A9D63C 
 385      A4327B36 
 385      D792D915 
 385      9599
 386 066f 845709F4 		.ascii	"\204W\011\364\204i\315U1[cf\326i\311\354\203/Tf\"\262"
 386      8469CD55 
 386      315B6366 
 386      D669C9EC 
 386      832F5466 
 387 0685 DF8DEB05 		.ascii	"\337\215\353\005\213\0153\377a\377\344\260c\351\211"
 387      8B0D33FF 
 387      61FFE4B0 
 387      63E989
 388 0694 8D7CE7BC 		.ascii	"\215|\347\274Q\240\023\362J\223G\256\3524\301\020],"
 388      51A013F2 
 388      4A9347AE 
 388      EA34C110 
 388      5D2C
 389 06a6 C036583A 		.ascii	"\3006X:\032\006V\362\035|d\363|\322\216\215\016_\227"
 389      1A0656F2 
 389      1D7C64F3 
 389      7CD28E8D 
 389      0E5F97
 390 06b9 DDE1BC9F 		.ascii	"\335\341\274\237N\312\345*\357\327X\003\231\253mT&_"
 390      4ECAE52A 
 390      EFD75803 
 390      99AB6D54 
ARM GAS  /tmp/cchWVbPq.s 			page 30


 390      265F
 391 06cb CB7E5A67 		.ascii	"\313~Zg\356\247?\015\354\247\344\305\304\316\257-\""
 391      EEA73F0D 
 391      ECA7E4C5 
 391      C4CEAF2D 
 391      22
 392 06dc 68AF7504 		.ascii	"h\257u\004-\227M\021\264\355\252\"h\233\231\331v\313"
 392      2D974D11 
 392      B4EDAA22 
 392      689B99D9 
 392      76CB
 393 06ee 08EAFF5A 		.ascii	"\010\352\377Z\213 %2\004t\334\232\330*3\261\035\266"
 393      8B202532 
 393      0474DC9A 
 393      D82A33B1 
 393      1DB6
 394 0700 3CDDAD7A 		.ascii	"<\335\255z\032\346\326A\252e\363\364\016\263=;-=\275"
 394      1AE6D641 
 394      AA65F3F4 
 394      0EB33D3B 
 394      2D3DBD
 395 0713 BB4F6F8F 		.ascii	"\273Oo\217\342\350\217\255\355\331a\266g\327U9z\227"
 395      E2E88FAD 
 395      EDD961B6 
 395      67D75539 
 395      7A97
 396 0725 99D86B96 		.ascii	"\231\330k\226\216\356{[O\354y\346\350yC\354\314\235"
 396      8EEE7B5B 
 396      4FEC79E6 
 396      E87943EC 
 396      CC9D
 397 0737 6F981BF8 		.ascii	"o\230\033\370\253\205\345\355\311W\277\2754fY\027is"
 397      AB85E5ED 
 397      C957BFBD 
 397      34665917 
 397      6973
 398 0749 FAA24998 		.ascii	"\372\242I\230g\003:jMc\360\265\001D\225\242{-\231\234"
 398      67033A6A 
 398      4D63F0B5 
 398      014495A2 
 398      7B2D999C 
 399 075d 5E7C052F 		.ascii	"^|\005/'{\333H*\365D\272\023\016f\200\330g\011\361\312"
 399      277BDB48 
 399      2AF544BA 
 399      130E6680 
 399      D86709F1 
 400 0772 B717C7A4 		.ascii	"\267\027\307\244!\354\333\262\337\312\026\303\0174`"
 400      21ECDBB2 
 400      DFCA16C3 
 400      0F3460
 401 0781 7E399981 		.ascii	"~9\231\201\330\337-\211\355L]\372\265\3166\245\037\227"
 401      D8DF2D89 
 401      ED4C5DFA 
 401      B5CE36A5 
 401      1F97
 402 0793 E659431C 		.ascii	"\346YC\0344B\374\010\255%\311\3030s\035~\031/\"\344"
 402      3442FC08 
ARM GAS  /tmp/cchWVbPq.s 			page 31


 402      AD25C9C3 
 402      30731D7E 
 402      192F22E4 
 403 07a7 00218954 		.ascii	"\000!\211T\012\217U?blN\243d\334\330\034\322\000M\347"
 403      0A8F553F 
 403      626C4EA3 
 403      64DCD81C 
 403      D2004DE7 
 404 07bb 92B41733 		.ascii	"\222\264\0273y\345\035!\275*\2618\003\352\024\325\362"
 404      79E51D21 
 404      BD2AB138 
 404      03EA14D5 
 404      F2
 405 07cc 93507A72 		.ascii	"\223Pzr"
 406 07d0 DFB3EEC8 		.ascii	"\337\263\356\310\323\370%B\012$\374\256@\311\2353\231"
 406      D3F82542 
 406      0A24FCAE 
 406      40C99D33 
 406      99
 407 07e1 3828106D 		.ascii	"8(\020m\370\250`:L\352\353a\207I4\177\360\303\244\313"
 407      F8A8603A 
 407      4CEAEB61 
 407      8749347F 
 407      F0C3A4CB 
 408 07f5 3D4BD861 		.ascii	"=K\330aRzw\316(\320\272Y\026}\312e\271{\350\357\321"
 408      527A77CE 
 408      28D0BA59 
 408      167DCA65 
 408      B97BE8EF 
 409 080a ED1E3E77 		.ascii	"\355\036>w\014\3461\200}\247\007\353\263\003\226\345"
 409      0CE63180 
 409      7DA707EB 
 409      B30396E5 
 410 081a 14A85D3D 		.ascii	"\024\250]=FT\340.;\2063r[l\204ks\333\200\313r\022\264"
 410      4654E02E 
 410      3B863372 
 410      5B6C846B 
 410      73DB80CB 
 411 0831 C408F78C 		.ascii	"\304\010\367\214c8#\273\245F\270%v\340\262\234\006-"
 411      633823BB 
 411      A546B825 
 411      76E0B29C 
 411      062D
 412 0843 33C2AD74 		.ascii	"3\302\255t\014gd\267\302\010\267\336\016\234'3\273\225"
 412      0C6764B7 
 412      C208B7DE 
 412      0E9C2733 
 412      BB95
 413 0855 46B8CD8E 		.ascii	"F\270\315\216\341\214\354V\033\341^\264\003\227\345"
 413      E18CEC56 
 413      1BE15EB4 
 413      0397E5
 414 0864 5468BB11 		.ascii	"Th\273\021\356e\307pFv]F\270\327\355\300Y\235\014Y]"
 414      EE65C770 
 414      46765D46 
 414      B8D7EDC0 
 414      599D0C59 
ARM GAS  /tmp/cchWVbPq.s 			page 32


 415 0879 FAC944C2 		.ascii	"\372\311D\302\307\004\272I{\217\355\036O0\375\001\323"
 415      C704BA49 
 415      7B8FED1E 
 415      4F30FD01 
 415      D3
 416 088a A7983ECD 		.ascii	"\247\230>\315\364Y\246\223L\3672\375O\246\377\305\364"
 416      F459A693 
 416      4CF732FD 
 416      4FA6FFC5 
 416      F4
 417 089b 7F98FE98 		.ascii	"\177\230\376\230\351\377\352\367\237\246y\365\335\014"
 417      E9FFEAF7 
 417      9FA679F5 
 417      DD0C
 418 08a9 F429A34F 		.ascii	"\364)\243O\265y\365'\350\217\364\3531\354\366\316\342"
 418      B579F527 
 418      E88FF4EB 
 418      31ECF6CE 
 418      E2
 419 08ba 455D9D05 		.ascii	"E]\235\005\206\255\240r\361\2255\231On\335\244M\232"
 419      86ADA072 
 419      F1953599 
 419      4F6EDDA4 
 419      4D9A
 420 08cc 052A289D 		.ascii	"\005*(\235\330\325\317\375/\214\242\263\344E\266:}\323"
 420      D8D5CFFD 
 420      2F8CA2B3 
 420      E445B63A 
 420      7DD3
 421 08de 6D9C78ED 		.ascii	"m\234x\355\303\254Z\270Q\371\264\377\005\003z\333\004"
 421      C3AC5AB8 
 421      51F9B4FF 
 421      05037ADB 
 421      04
 422 08ef 2461D1B4 		.ascii	"$a\321\264:\027\215\253s\321\255%\350\252\305Ya\223"
 422      3A178DAB 
 422      73D1AD25 
 422      E8AAC559 
 422      6193
 423 0901 1FF76779 		.ascii	"\037\367gy?}\255\3711\275\375Hd\371pp\300\346\207\003"
 423      3F7DADF9 
 423      31BDFD48 
 423      64F97070 
 423      C0E68703 
 424 0915 5B6076BF 		.ascii	"[`v\277B\320\227\367a\372\362Nn\301/\315\353$\255\011"
 424      42D097F7 
 424      61FAF24E 
 424      6EC12FCD 
 424      EB24AD09 
 425 0929 72298553 		.ascii	"r)\205S\242z(\271l\004o.\271!\221\375?\000\350~]H\027"
 425      A27A28B9 
 425      6C046F2E 
 425      B92191FD 
 425      3F00E87E 
 426 0940 26A3475B 		.ascii	"&\243G[\227\225p?\213\362+\272\023\"%\255\246\224o\342"
 426      9795703F 
 426      8BF22BBA 
ARM GAS  /tmp/cchWVbPq.s 			page 33


 426      132225AD 
 426      A6946FE2 
 427 0954 C7DD56FF 		.ascii	"\307\335V\377\001\302\000\262W\345\2156\251\215\216"
 427      01C200B2 
 427      57E58D36 
 427      A98D8E
 428 0963 6065357B 		.ascii	"`e5{\224\222\326\245$\234r|\324ED\353\243\256\341\006"
 428      9492D6A5 
 428      249C727C 
 428      D44544EB 
 428      A3AEE106 
 429 0977 CE6A29B0 		.ascii	"\316j)\260\354\224\333\264\2657\221\200U\211[\375w\210"
 429      EC94DBB4 
 429      B5379180 
 429      55895BFD 
 429      7788
 430 0989 A17840C8 		.ascii	"\241x@\310ud\011\271V\3214t\023=}\013\306,pY\214\333"
 430      756409B9 
 430      56D13474 
 430      133D7D0B 
 430      C62C7059 
 431 099f 346AC2E9 		.ascii	"4j\302\351\007`\2335a\222a1\230\251\266b\315\363Y\254"
 431      07609B35 
 431      61926131 
 431      98A9B662 
 431      CDF359AC 
 432 09b3 794AB306 		.ascii	"yJ\263\0065{#\365L\356\3606D\033eoLn\226\245X\260\301"
 432      357B23F5 
 432      4CEEF036 
 432      441B656F 
 432      4C6E96A5 
 433 09ca DB20C5EA 		.ascii	"\333 \305\352\036\227b\262W\2125\026yg\006\203\343!"
 433      1E9762B2 
 433      578A3516 
 433      79670683 
 433      E321
 434 09dc 315E6E9C 		.ascii	"1^n\234!\327\325\311u\351\214H4\"\217\227\245\031\241"
 434      21D7D5C9 
 434      75E98C48 
 434      34228F97 
 434      A519A1
 435 09ef F1930277 		.ascii	"\361\223\002w\217/\232X8\351\261\"\257\341\2017\024"
 435      8F2F9A58 
 435      38E9B122 
 435      AFE18137 
 435      14
 436 0a00 09865BEA 		.ascii	"\011\206[\352dos\274.\024\211Oh@y-p/.\012\304s\247V"
 436      646F73BC 
 436      2E14894F 
 436      6840792D 
 436      702F2E0A 
 437 0a18 4DF7F850 		.ascii	"M\367\370P+\376\376H4J\301\206PD\366\006\352\344z\251"
 437      2BFEFE48 
 437      344AC186 
 437      5044F606 
 437      EAE47AA9 
 438 0a2c 251C0FC4 		.ascii	"%\034\017\304\3474\311\315@jh \240\322\362L\230\340"
ARM GAS  /tmp/cchWVbPq.s 			page 34


 438      E734C9CD 
 438      406A6820 
 438      A0D2F24C 
 438      98E0
 439 0a3e F5358466 		.ascii	"\3655\204f\204\252k\274\321f \021NW\237\331D\015pO\235"
 439      84AA6BBC 
 439      D1662011 
 439      4E579FD9 
 439      440D704F 
 440 0a53 565B1A0B 		.ascii	"V[\032\013\315\222cE\003\2136Ec\361foMmeq\221\367\241"
 440      CD926345 
 440      038B3645 
 440      63F1666F 
 440      4D6D6571 
 441 0a6a 874ABDB5 		.ascii	"\207J\275\265\025\225\263\012i\305@8\\G\033\202ds\\"
 441      1595B30A 
 441      69C54038 
 441      5C471B82 
 441      64735C
 442 0a7d 8ACB81F8 		.ascii	"\212\313\201\370P\300\011L\257\252\250\252\250\315\243"
 442      50C0094C 
 442      AFAAA8AA 
 442      A8CDA3
 443 0a8c C99ADAEA 		.ascii	"\311\232\332\352i\024;\340/+)\375\305\010\232\362UW"
 443      69143BE0 
 443      2F2B29FD 
 443      C5089AF2 
 443      5557
 444 0a9e D556544D 		.ascii	"\325VTM\257\236^3\214\376\254\256*\253)\257\256\315"
 444      AF9E5E33 
 444      8CFEACAE 
 444      2AAB29AF 
 444      AECD
 445 0ab0 61006E40 		.ascii	"a\000n@\252\217\311\217\005\342nzk\221#\3019\303!/("
 445      AA8FC98F 
 445      05E26E7A 
 445      6B9123C1 
 445      39C3212F 
 446 0ac5 85C333A4 		.ascii	"\205\3033\244\340\243\201x\236\232\024\203\261\"W]H"
 446      E0A38178 
 446      9E9A1483 
 446      B122575D 
 446      48
 447 0ad6 8E51785F 		.ascii	"\216Qx_4R\037\232\231\033d\267\234`8\032|t\222];\232"
 447      34521F9A 
 447      991B64B7 
 447      9C60381A 
 447      7C74925D 
 448 0aec E38DD445 		.ascii	"\343\215\324E\241F\260dX\372G .\372\374\205 E\256\232"
 448      A146B064 
 448      58FA4720 
 448      2EFAFC85 
 448      2045AE9A 
 449 0b00 4A9FDF55 		.ascii	"J\237\337UZQ\346\027j\374b\331T\177\216\317W\351/d\272"
 449      5A51E617 
 449      6AFC62D9 
 449      547F8ECF 
ARM GAS  /tmp/cchWVbPq.s 			page 35


 449      57E92F64 
 450 0b15 C8E5F395 		.ascii	"\310\345\363\225\371E_U\2558\255\306'\226\370\375\242"
 450      F9455F55 
 450      AD38ADC6 
 450      2796F8FD 
 450      A2
 451 0b26 DF07BFA1 		.ascii	"\337\007\277\241\302\224\322Z\277XJkV\226\370\205j\245"
 451      C294D25A 
 451      BF584A6B 
 451      5696F885 
 451      6AA5
 452 0b38 5631947F 		.ascii	"V1\224\177\330/\002\276c7\007\321u<\031h\216G\233&4"
 452      D82F02BE 
 452      633707D1 
 452      753C1968 
 452      8E479B26 
 453 0b4d 49B1F884 		.ascii	"I\261\370\204\211\371j^(\022\212\017\327\012\300C\027"
 453      89F96A5E 
 453      28128A0F 
 453      D70AC043 
 453      17
 454 0b5e FC6ACAD7 		.ascii	"\374j\312\327\327\311\243\236\214@\200\\g(H\315\225"
 454      D7C9A39E 
 454      8C40805C 
 454      672848CD 
 454      95
 455 0b6f 6379102A 		.ascii	"cy\020*rl\226\024\036\251\257\242<\373\201\232\325\024"
 455      726C9614 
 455      1EA9AFA2 
 455      3CFB819A 
 455      D514
 456 0b81 0D87E53A 		.ascii	"\015\207\345:\210\264\2604\347\206t9\250&\007X\365X"
 456      88B4B034 
 456      E7867439 
 456      A8260758 
 456      F558
 457 0b93 4B533CEF 		.ascii	"KS<\357\347r0\036\215\225L\032\237\311\304`\264\261"
 457      E772301E 
 457      8D954C1A 
 457      9FC9C460 
 457      B4B1
 458 0ba5 311AF196 		.ascii	"1\032\361\226\370+}\225\263\275\221Y\241 \270\376Zz"
 458      F82B7D95 
 458      B3BD9159 
 458      A120B8FE 
 458      5A7A
 459 0bb7 2F0D354B 		.ascii	"/\0155K3\302\262\202@\315\251\236\361\033HW\200q\005"
 459      33C2B282 
 459      40CDA99E 
 459      F11B4857 
 459      807105
 460 0bca F4795944 		.ascii	"\364yYD{|\273\021>\026\347\350\0346\330\020\214\306"
 460      7B7CBB11 
 460      3E16E7E8 
 460      1C36D810 
 460      8CC6
 461 0bdc E4C0ACBB 		.ascii	"\344\300\254\273h\277\216\014\320g\201P\354\261\200"
ARM GAS  /tmp/cchWVbPq.s 			page 36


 461      68BF8E0C 
 461      D0678150 
 461      ECB180
 462 0beb DC140A47 		.ascii	"\334\024\012Gg\266\31094\342\013\213\215 \362\354\270"
 462      67B6C839 
 462      34E20B8B 
 462      8D20F2EC 
 462      B8
 463 0bfc D7575953 		.ascii	"\327WYSQ\003\335\240\364\304\203\305\263g+!R_<\261x"
 463      5103DDA0 
 463      F4C483C5 
 463      B3672B21 
 463      525F3CB1 
 464 0c11 36653ACC 		.ascii	"6e:\314\357\363\005ja\220\225\312\365\002t\260\357\301"
 464      EFF3056A 
 464      619095CA 
 464      F50274B0 
 464      EFC1
 465 0c23 A9D0E515 		.ascii	"\251\320\345\025\376\274\222iS\212\3745\265,QH\023\271"
 465      FEBC9269 
 465      538AFC35 
 465      B52C5148 
 465      13B9
 466 0c35 25E553CA 		.ascii	"%\345S\312\252\374C\350\003~/\204;\304\006\015\222\032"
 466      AAFC43E8 
 466      037E2F84 
 466      3BC4060D 
 466      921A
 467 0c47 C8289F42 		.ascii	"\310(\237B\313\345P\210\"\246\213\331TRx'\014%e\370"
 467      CBE55088 
 467      22A68BD9 
 467      54527827 
 467      0C2565F8 
 468 0c5b D2A42B08 		.ascii	"\322\244+\010\323F^ P\337\022\011\006\002\303\325\304"
 468      D3465E20 
 468      50DF1209 
 468      0602C3D5 
 468      C4
 469 0c6c 84BB26DE 		.ascii	"\204\273&\336s\317\377\001\017\254\237\331"
 469      73CFFF01 
 469      0FAC9FD9 
 470              		.text
 471              		.section	.gnu.lto_.symtab.9983f1ad0ac75942,"",%progbits
 472 0000 6770745F 		.ascii	"gpt_lld_init\000\000\000\000\000\000\000\000\000\000"
 472      6C6C645F 
 472      696E6974 
 472      00000000 
 472      00000000 
 473 0016 00001601 		.ascii	"\000\000\026\001\000\000GPTD1\000\000\000\000\000\000"
 473      00004750 
 473      54443100 
 473      00000000 
 473      00
 474 0027 00000000 		.ascii	"\000\000\000\000\000\000L\001\000\000gpt_lld_start\000"
 474      00004C01 
 474      00006770 
 474      745F6C6C 
ARM GAS  /tmp/cchWVbPq.s 			page 37


 474      645F7374 
 475 003f 00000000 		.ascii	"\000\000\000\000\000\000\000\000\000\000\000\032\001"
 475      00000000 
 475      0000001A 
 475      01
 476 004c 00006770 		.ascii	"\000\000gpt_lld_stop\000\000\000\000\000\000\000\000"
 476      745F6C6C 
 476      645F7374 
 476      6F700000 
 476      00000000 
 477 0062 00000000 		.ascii	"\000\000\000\000\037\001\000\000gpt_lld_start_timer"
 477      1F010000 
 477      6770745F 
 477      6C6C645F 
 477      73746172 
 478 007d 00000000 		.ascii	"\000\000\000\000\000\000\000\000\000\000\000\000#\001"
 478      00000000 
 478      00000000 
 478      2301
 479 008b 00006770 		.ascii	"\000\000gpt_lld_stop_timer\000\000\000\000\000\000\000"
 479      745F6C6C 
 479      645F7374 
 479      6F705F74 
 479      696D6572 
 480 00a6 00000000 		.ascii	"\000\000\000\000\000/\001\000\000gpt_lld_polled_del"
 480      002F0100 
 480      00677074 
 480      5F6C6C64 
 480      5F706F6C 
 481 00c1 61790000 		.ascii	"ay\000\000\000\000\000\000\000\000\000\000\000\0003"
 481      00000000 
 481      00000000 
 481      000033
 482 00d0 01000067 		.ascii	"\001\000\000gpt_lld_serve_interrupt\000\000\000\000"
 482      70745F6C 
 482      6C645F73 
 482      65727665 
 482      5F696E74 
 483 00ee 00000000 		.ascii	"\000\000\000\000\000\000\000\0008\001\000\000Vector"
 483      00000000 
 483      38010000 
 483      56656374 
 483      6F72
 484 0100 41340000 		.ascii	"A4\000\000\000\000\000\000\000\000\000\000\000\000<"
 484      00000000 
 484      00000000 
 484      00003C
 485 010f 0100006E 		.ascii	"\001\000\000nvicDisableVector\000\000\002\000\000\000"
 485      76696344 
 485      69736162 
 485      6C655665 
 485      63746F72 
 486 0129 00000000 		.ascii	"\000\000\000\000\000\000?\001\000\000gptObjectInit\000"
 486      00003F01 
 486      00006770 
 486      744F626A 
 486      65637449 
ARM GAS  /tmp/cchWVbPq.s 			page 38


 487 0141 00020000 		.ascii	"\000\002\000\000\000\000\000\000\000\000\000C\001\000"
 487      00000000 
 487      00000043 
 487      0100
 488 014f 006E7669 		.ascii	"\000nvicEnableVector\000\000\002\000\000\000\000\000"
 488      63456E61 
 488      626C6556 
 488      6563746F 
 488      72000002 
 489 0168 00000000 		.ascii	"\000\000\000\000E\001\000\000_port_irq_epilogue\000"
 489      45010000 
 489      5F706F72 
 489      745F6972 
 489      715F6570 
 490 0183 00020000 		.ascii	"\000\002\000\000\000\000\000\000\000\000\000J\001\000"
 490      00000000 
 490      0000004A 
 490      0100
 491 0191 00       		.ascii	"\000"
 492              		.text
 493              		.section	.gnu.lto_.opts,"",%progbits
 494 0000 272D6D63 		.ascii	"'-mcpu=cortex-m4' '-mno-thumb-interwork' '-mthumb' "
 494      70753D63 
 494      6F727465 
 494      782D6D34 
 494      2720272D 
 495 0033 272D6767 		.ascii	"'-ggdb' '-O2' '-fomit-frame-pointer' '-falign-funct"
 495      64622720 
 495      272D4F32 
 495      2720272D 
 495      666F6D69 
 496 0066 696F6E73 		.ascii	"ions=16' '-ffunction-sections' '-fdata-sections' '-"
 496      3D313627 
 496      20272D66 
 496      66756E63 
 496      74696F6E 
 497 0099 666E6F2D 		.ascii	"fno-common' '-flto'\000"
 497      636F6D6D 
 497      6F6E2720 
 497      272D666C 
 497      746F2700 
 498              		.text
 499              		.cfi_sections	.debug_frame
 500              		.section	.text.gpt_lld_init,"ax",%progbits
 501              		.align	2
 502              		.p2align 4,,15
 503              		.global	gpt_lld_init
 504              		.thumb
 505              		.thumb_func
 506              		.type	gpt_lld_init, %function
 507              	gpt_lld_init:
 508              	.LFB273:
 509              		.file 1 "../ChibiOS/os/hal/ports/STM32/LLD/TIMv1/gpt_lld.c"
 510              		.loc 1 406 0
 511              		.cfi_startproc
 512              		@ args = 0, pretend = 0, frame = 0
 513              		@ frame_needed = 0, uses_anonymous_args = 0
ARM GAS  /tmp/cchWVbPq.s 			page 39


 514              		@ link register save eliminated.
 515              		.loc 1 410 0
 516 0000 0248     		ldr	r0, .L2
 517 0002 034B     		ldr	r3, .L2+4
 518 0004 C360     		str	r3, [r0, #12]
 519              		.loc 1 411 0
 520 0006 FFF7FEBF 		b	gptObjectInit
 521              	.LVL0:
 522              	.L3:
 523 000a 00BF     		.align	2
 524              	.L2:
 525 000c 00000000 		.word	.LANCHOR0
 526 0010 002C0140 		.word	1073818624
 527              		.cfi_endproc
 528              	.LFE273:
 529              		.size	gpt_lld_init, .-gpt_lld_init
 530 0014 AFF30080 		.section	.text.gpt_lld_start,"ax",%progbits
 530      AFF30080 
 530      AFF30080 
 531              		.align	2
 532              		.p2align 4,,15
 533              		.global	gpt_lld_start
 534              		.thumb
 535              		.thumb_func
 536              		.type	gpt_lld_start, %function
 537              	gpt_lld_start:
 538              	.LFB274:
 539              		.loc 1 488 0
 540              		.cfi_startproc
 541              		@ args = 0, pretend = 0, frame = 0
 542              		@ frame_needed = 0, uses_anonymous_args = 0
 543              	.LVL1:
 544 0000 38B5     		push	{r3, r4, r5, lr}
 545              		.cfi_def_cfa_offset 16
 546              		.cfi_offset 3, -16
 547              		.cfi_offset 4, -12
 548              		.cfi_offset 5, -8
 549              		.cfi_offset 14, -4
 550              		.loc 1 491 0
 551 0002 0378     		ldrb	r3, [r0]	@ zero_extendqisi2
 552 0004 012B     		cmp	r3, #1
 553              		.loc 1 488 0
 554 0006 0446     		mov	r4, r0
 555              		.loc 1 491 0
 556 0008 12D0     		beq	.L7
 557              	.LVL2:
 558              	.L5:
 559              		.loc 1 675 0
 560 000a 6268     		ldr	r2, [r4, #4]
 561 000c A568     		ldr	r5, [r4, #8]
 562 000e 1068     		ldr	r0, [r2]
 563              		.loc 1 684 0
 564 0010 D168     		ldr	r1, [r2, #12]
 565              		.loc 1 680 0
 566 0012 E368     		ldr	r3, [r4, #12]
 567              		.loc 1 681 0
 568 0014 9468     		ldr	r4, [r2, #8]
ARM GAS  /tmp/cchWVbPq.s 			page 40


 569              	.LVL3:
 570              		.loc 1 675 0
 571 0016 B5FBF0F0 		udiv	r0, r5, r0
 572 001a 0138     		subs	r0, r0, #1
 573              		.loc 1 680 0
 574 001c 0022     		movs	r2, #0
 575              		.loc 1 675 0
 576 001e 80B2     		uxth	r0, r0
 577              	.LVL4:
 578              		.loc 1 684 0
 579 0020 21F0FF01 		bic	r1, r1, #255
 580              		.loc 1 680 0
 581 0024 1A60     		str	r2, [r3]
 582              		.loc 1 681 0
 583 0026 5C60     		str	r4, [r3, #4]
 584              		.loc 1 682 0
 585 0028 9862     		str	r0, [r3, #40]
 586              		.loc 1 683 0
 587 002a 1A61     		str	r2, [r3, #16]
 588              		.loc 1 684 0
 589 002c D960     		str	r1, [r3, #12]
 590 002e 38BD     		pop	{r3, r4, r5, pc}
 591              	.LVL5:
 592              	.L7:
 593              		.loc 1 494 0
 594 0030 0A4B     		ldr	r3, .L8
 595 0032 9842     		cmp	r0, r3
 596 0034 E9D1     		bne	.L5
 597              		.loc 1 495 0
 598 0036 0A4B     		ldr	r3, .L8+4
 599 0038 9A69     		ldr	r2, [r3, #24]
 600 003a 42F40062 		orr	r2, r2, #2048
 601 003e 9A61     		str	r2, [r3, #24]
 602              		.loc 1 496 0
 603 0040 D968     		ldr	r1, [r3, #12]
 604 0042 0022     		movs	r2, #0
 605 0044 41F40061 		orr	r1, r1, #2048
 606 0048 D960     		str	r1, [r3, #12]
 607              		.loc 1 498 0
 608 004a 1920     		movs	r0, #25
 609              	.LVL6:
 610              		.loc 1 496 0
 611 004c DA60     		str	r2, [r3, #12]
 612              		.loc 1 498 0
 613 004e 0721     		movs	r1, #7
 614 0050 FFF7FEFF 		bl	nvicEnableVector
 615              	.LVL7:
 616              		.loc 1 501 0
 617 0054 034B     		ldr	r3, .L8+8
 618 0056 A360     		str	r3, [r4, #8]
 619 0058 D7E7     		b	.L5
 620              	.L9:
 621 005a 00BF     		.align	2
 622              	.L8:
 623 005c 00000000 		.word	.LANCHOR0
 624 0060 00100240 		.word	1073876992
 625 0064 00A24A04 		.word	72000000
ARM GAS  /tmp/cchWVbPq.s 			page 41


 626              		.cfi_endproc
 627              	.LFE274:
 628              		.size	gpt_lld_start, .-gpt_lld_start
 629 0068 AFF30080 		.section	.text.gpt_lld_stop,"ax",%progbits
 629      AFF30080 
 630              		.align	2
 631              		.p2align 4,,15
 632              		.global	gpt_lld_stop
 633              		.thumb
 634              		.thumb_func
 635              		.type	gpt_lld_stop, %function
 636              	gpt_lld_stop:
 637              	.LFB275:
 638              		.loc 1 695 0
 639              		.cfi_startproc
 640              		@ args = 0, pretend = 0, frame = 0
 641              		@ frame_needed = 0, uses_anonymous_args = 0
 642              	.LVL8:
 643 0000 08B5     		push	{r3, lr}
 644              		.cfi_def_cfa_offset 8
 645              		.cfi_offset 3, -8
 646              		.cfi_offset 14, -4
 647              		.loc 1 697 0
 648 0002 0378     		ldrb	r3, [r0]	@ zero_extendqisi2
 649 0004 022B     		cmp	r3, #2
 650 0006 00D0     		beq	.L14
 651              	.LVL9:
 652              	.L10:
 653 0008 08BD     		pop	{r3, pc}
 654              	.LVL10:
 655              	.L14:
 656              		.loc 1 703 0
 657 000a 0849     		ldr	r1, .L15
 658              		.loc 1 698 0
 659 000c C368     		ldr	r3, [r0, #12]
 660 000e 0022     		movs	r2, #0
 661              		.loc 1 703 0
 662 0010 8842     		cmp	r0, r1
 663              		.loc 1 698 0
 664 0012 1A60     		str	r2, [r3]
 665              		.loc 1 699 0
 666 0014 DA60     		str	r2, [r3, #12]
 667              		.loc 1 700 0
 668 0016 1A61     		str	r2, [r3, #16]
 669              		.loc 1 703 0
 670 0018 F6D1     		bne	.L10
 671              	.LVL11:
 672              	.LBB6:
 673              	.LBB7:
 674              		.loc 1 705 0
 675 001a 1920     		movs	r0, #25
 676              	.LVL12:
 677 001c FFF7FEFF 		bl	nvicDisableVector
 678              	.LVL13:
 679              		.loc 1 707 0
 680 0020 034B     		ldr	r3, .L15+4
 681 0022 9A69     		ldr	r2, [r3, #24]
ARM GAS  /tmp/cchWVbPq.s 			page 42


 682 0024 22F40062 		bic	r2, r2, #2048
 683 0028 9A61     		str	r2, [r3, #24]
 684 002a EDE7     		b	.L10
 685              	.L16:
 686              		.align	2
 687              	.L15:
 688 002c 00000000 		.word	.LANCHOR0
 689 0030 00100240 		.word	1073876992
 690              	.LBE7:
 691              	.LBE6:
 692              		.cfi_endproc
 693              	.LFE275:
 694              		.size	gpt_lld_stop, .-gpt_lld_stop
 695 0034 AFF30080 		.section	.text.gpt_lld_start_timer,"ax",%progbits
 695      AFF30080 
 695      AFF30080 
 696              		.align	2
 697              		.p2align 4,,15
 698              		.global	gpt_lld_start_timer
 699              		.thumb
 700              		.thumb_func
 701              		.type	gpt_lld_start_timer, %function
 702              	gpt_lld_start_timer:
 703              	.LFB276:
 704              		.loc 1 820 0
 705              		.cfi_startproc
 706              		@ args = 0, pretend = 0, frame = 0
 707              		@ frame_needed = 0, uses_anonymous_args = 0
 708              		@ link register save eliminated.
 709              	.LVL14:
 710              		.loc 1 830 0
 711 0000 4268     		ldr	r2, [r0, #4]
 712              		.loc 1 822 0
 713 0002 C368     		ldr	r3, [r0, #12]
 714              		.loc 1 830 0
 715 0004 5068     		ldr	r0, [r2, #4]
 716              	.LVL15:
 717              		.loc 1 822 0
 718 0006 0139     		subs	r1, r1, #1
 719              	.LVL16:
 720 0008 D962     		str	r1, [r3, #44]
 721              		.loc 1 824 0
 722 000a 0022     		movs	r2, #0
 723              		.loc 1 823 0
 724 000c 0121     		movs	r1, #1
 725              	.LVL17:
 726 000e 5961     		str	r1, [r3, #20]
 727              	.LVL18:
 728              		.loc 1 824 0
 729 0010 5A62     		str	r2, [r3, #36]
 730              		.loc 1 829 0
 731 0012 1A61     		str	r2, [r3, #16]
 732              		.loc 1 830 0
 733 0014 10B1     		cbz	r0, .L18
 734              		.loc 1 831 0
 735 0016 DA68     		ldr	r2, [r3, #12]
 736 0018 0A43     		orrs	r2, r2, r1
ARM GAS  /tmp/cchWVbPq.s 			page 43


 737 001a DA60     		str	r2, [r3, #12]
 738              	.L18:
 739              		.loc 1 832 0
 740 001c 0522     		movs	r2, #5
 741 001e 1A60     		str	r2, [r3]
 742 0020 7047     		bx	lr
 743              		.cfi_endproc
 744              	.LFE276:
 745              		.size	gpt_lld_start_timer, .-gpt_lld_start_timer
 746 0022 00BFAFF3 		.section	.text.gpt_lld_stop_timer,"ax",%progbits
 746      0080AFF3 
 746      0080AFF3 
 746      0080
 747              		.align	2
 748              		.p2align 4,,15
 749              		.global	gpt_lld_stop_timer
 750              		.thumb
 751              		.thumb_func
 752              		.type	gpt_lld_stop_timer, %function
 753              	gpt_lld_stop_timer:
 754              	.LFB277:
 755              		.loc 1 842 0
 756              		.cfi_startproc
 757              		@ args = 0, pretend = 0, frame = 0
 758              		@ frame_needed = 0, uses_anonymous_args = 0
 759              		@ link register save eliminated.
 760              	.LVL19:
 761              		.loc 1 844 0
 762 0000 C368     		ldr	r3, [r0, #12]
 763 0002 0022     		movs	r2, #0
 764 0004 1A60     		str	r2, [r3]
 765              		.loc 1 845 0
 766 0006 1A61     		str	r2, [r3, #16]
 767              		.loc 1 848 0
 768 0008 DA68     		ldr	r2, [r3, #12]
 769 000a 22F0FF02 		bic	r2, r2, #255
 770 000e DA60     		str	r2, [r3, #12]
 771 0010 7047     		bx	lr
 772              		.cfi_endproc
 773              	.LFE277:
 774              		.size	gpt_lld_stop_timer, .-gpt_lld_stop_timer
 775 0012 00BFAFF3 		.section	.text.gpt_lld_polled_delay,"ax",%progbits
 775      0080AFF3 
 775      0080AFF3 
 775      0080
 776              		.align	2
 777              		.p2align 4,,15
 778              		.global	gpt_lld_polled_delay
 779              		.thumb
 780              		.thumb_func
 781              		.type	gpt_lld_polled_delay, %function
 782              	gpt_lld_polled_delay:
 783              	.LFB278:
 784              		.loc 1 862 0
 785              		.cfi_startproc
 786              		@ args = 0, pretend = 0, frame = 0
 787              		@ frame_needed = 0, uses_anonymous_args = 0
ARM GAS  /tmp/cchWVbPq.s 			page 44


 788              		@ link register save eliminated.
 789              	.LVL20:
 790              		.loc 1 864 0
 791 0000 C268     		ldr	r2, [r0, #12]
 792 0002 0139     		subs	r1, r1, #1
 793              	.LVL21:
 794              		.loc 1 865 0
 795 0004 0120     		movs	r0, #1
 796              	.LVL22:
 797              		.loc 1 866 0
 798 0006 0D23     		movs	r3, #13
 799              		.loc 1 864 0
 800 0008 D162     		str	r1, [r2, #44]
 801              		.loc 1 865 0
 802 000a 5061     		str	r0, [r2, #20]
 803              		.loc 1 866 0
 804 000c 1360     		str	r3, [r2]
 805              	.L25:
 806              		.loc 1 867 0 discriminator 1
 807 000e 1369     		ldr	r3, [r2, #16]
 808 0010 DB07     		lsls	r3, r3, #31
 809 0012 FCD5     		bpl	.L25
 810              		.loc 1 869 0
 811 0014 0023     		movs	r3, #0
 812 0016 1361     		str	r3, [r2, #16]
 813 0018 7047     		bx	lr
 814              		.cfi_endproc
 815              	.LFE278:
 816              		.size	gpt_lld_polled_delay, .-gpt_lld_polled_delay
 817              		.section	.text.gpt_lld_serve_interrupt,"ax",%progbits
 818              		.align	2
 819              		.p2align 4,,15
 820              		.global	gpt_lld_serve_interrupt
 821              		.thumb
 822              		.thumb_func
 823              		.type	gpt_lld_serve_interrupt, %function
 824              	gpt_lld_serve_interrupt:
 825              	.LFB279:
 826              		.loc 1 879 0
 827              		.cfi_startproc
 828              		@ args = 0, pretend = 0, frame = 0
 829              		@ frame_needed = 0, uses_anonymous_args = 0
 830              	.LVL23:
 831              		.loc 1 882 0
 832 0000 0178     		ldrb	r1, [r0]	@ zero_extendqisi2
 833              		.loc 1 879 0
 834 0002 08B5     		push	{r3, lr}
 835              		.cfi_def_cfa_offset 8
 836              		.cfi_offset 3, -8
 837              		.cfi_offset 14, -4
 838              		.loc 1 881 0
 839 0004 C368     		ldr	r3, [r0, #12]
 840 0006 0022     		movs	r2, #0
 841              		.loc 1 882 0
 842 0008 0429     		cmp	r1, #4
 843              		.loc 1 881 0
 844 000a 1A61     		str	r2, [r3, #16]
ARM GAS  /tmp/cchWVbPq.s 			page 45


 845              		.loc 1 882 0
 846 000c 07D1     		bne	.L27
 847              		.loc 1 883 0
 848 000e 0221     		movs	r1, #2
 849 0010 0170     		strb	r1, [r0]
 850              	.LVL24:
 851              	.LBB8:
 852              	.LBB9:
 853              		.loc 1 844 0
 854 0012 1A60     		str	r2, [r3]
 855              		.loc 1 845 0
 856 0014 1A61     		str	r2, [r3, #16]
 857              		.loc 1 848 0
 858 0016 DA68     		ldr	r2, [r3, #12]
 859 0018 22F0FF02 		bic	r2, r2, #255
 860 001c DA60     		str	r2, [r3, #12]
 861              	.LVL25:
 862              	.L27:
 863              	.LBE9:
 864              	.LBE8:
 865              		.loc 1 886 0
 866 001e 4368     		ldr	r3, [r0, #4]
 867 0020 5B68     		ldr	r3, [r3, #4]
 868 0022 9847     		blx	r3
 869              	.LVL26:
 870 0024 08BD     		pop	{r3, pc}
 871              		.cfi_endproc
 872              	.LFE279:
 873              		.size	gpt_lld_serve_interrupt, .-gpt_lld_serve_interrupt
 874 0026 00BFAFF3 		.section	.text.VectorA4,"ax",%progbits
 874      0080AFF3 
 874      0080
 875              		.align	2
 876              		.p2align 4,,15
 877              		.global	VectorA4
 878              		.thumb
 879              		.thumb_func
 880              		.type	VectorA4, %function
 881              	VectorA4:
 882              	.LFB272:
 883              		.loc 1 155 0
 884              		.cfi_startproc
 885              		@ args = 0, pretend = 0, frame = 0
 886              		@ frame_needed = 0, uses_anonymous_args = 0
 887 0000 08B5     		push	{r3, lr}
 888              		.cfi_def_cfa_offset 8
 889              		.cfi_offset 3, -8
 890              		.cfi_offset 14, -4
 891              		.loc 1 159 0
 892 0002 0348     		ldr	r0, .L29
 893 0004 FFF7FEFF 		bl	gpt_lld_serve_interrupt
 894              	.LVL27:
 895              		.loc 1 162 0
 896 0008 BDE80840 		pop	{r3, lr}
 897              		.loc 1 161 0
 898 000c FFF7FEBF 		b	_port_irq_epilogue
 899              	.LVL28:
ARM GAS  /tmp/cchWVbPq.s 			page 46


 900              	.L30:
 901              		.align	2
 902              	.L29:
 903 0010 00000000 		.word	.LANCHOR0
 904              		.cfi_endproc
 905              	.LFE272:
 906              		.size	VectorA4, .-VectorA4
 907              		.global	GPTD1
 908 0014 AFF30080 		.section	.bss.GPTD1,"aw",%nobits
 908      AFF30080 
 908      AFF30080 
 909              		.align	2
 910              		.set	.LANCHOR0,. + 0
 911              		.type	GPTD1, %object
 912              		.size	GPTD1, 16
 913              	GPTD1:
 914 0000 00000000 		.space	16
 914      00000000 
 914      00000000 
 914      00000000 
 915              		.text
 916              	.Letext0:
 917              		.file 2 "/nfs/nfs5/home/research/hardware/arm2/gcc-arm-embedded/gcc-arm-none-eabi-4_8-2014q2/lib/g
 918              		.file 3 "/nfs/nfs5/home/research/hardware/arm2/gcc-arm-embedded/gcc-arm-none-eabi-4_8-2014q2/arm-n
 919              		.file 4 "/nfs/nfs5/home/research/hardware/arm2/gcc-arm-embedded/gcc-arm-none-eabi-4_8-2014q2/arm-n
 920              		.file 5 "../ChibiOS/os/rt/ports/ARMCMx/compilers/GCC/chtypes.h"
 921              		.file 6 "../ChibiOS/os/rt/include/chsystypes.h"
 922              		.file 7 "../ChibiOS/os/rt/include/chschd.h"
 923              		.file 8 "../ChibiOS/os/ext/CMSIS/ST/STM32F3xx/stm32f303xc.h"
 924              		.file 9 "../ChibiOS/os/rt/ports/ARMCMx/chcore.h"
 925              		.file 10 "../ChibiOS/os/rt/ports/ARMCMx/chcore_v7m.h"
 926              		.file 11 "../ChibiOS/os/hal/ports/STM32/LLD/TIMv1/stm32_tim.h"
 927              		.file 12 "../ChibiOS/os/rt/include/chtm.h"
 928              		.file 13 "../ChibiOS/os/rt/include/chsem.h"
 929              		.file 14 "../ChibiOS/os/rt/include/chmtx.h"
 930              		.file 15 "../ChibiOS/os/hal/include/gpt.h"
 931              		.file 16 "../ChibiOS/os/hal/ports/STM32/LLD/TIMv1/gpt_lld.h"
 932              		.file 17 "../ChibiOS/os/ext/CMSIS/include/core_cm4.h"
 933              		.file 18 "../ChibiOS/os/hal/ports/common/ARMCMx/nvic.h"