ARM GAS  /tmp/cchWVbPq.s 			page 1


   1              		.syntax unified
   2              		.cpu cortex-m4
   3              		.fpu softvfp
   4              		.eabi_attribute 20, 1
   5              		.eabi_attribute 21, 1
   6              		.eabi_attribute 23, 3
   7              		.eabi_attribute 24, 1
   8              		.eabi_attribute 25, 1
   9              		.eabi_attribute 26, 1
  10              		.eabi_attribute 30, 2
  11              		.eabi_attribute 34, 1
  12              		.eabi_attribute 18, 4
  13              		.thumb
  14              		.file	"gpt_lld.c"
  15              		.text
  16              	.Ltext0:
  17              		.section	.gnu.lto_.jmpfuncs.9983f1ad0ac75942,"",%progbits
  18 0000 789C6362 		.ascii	"x\234cb`b\300\006\012\2414'\003\003#S\004c&#\203$\220"
  18      6062C006 
  18      0AA13427 
  18      03032353 
  18      04632623 
  19 0017 05645733 		.ascii	"\005dW3\374j\350h\020\310dd\314e\004)`dL\000I35\334"
  19      FC6AE868 
  19      10C86464 
  19      CC650429 
  19      60644C00 
  20 002f 68696061 		.ascii	"hi`a`fd\202\253\2060\330\031\030X\030\031X\231\331\030"
  20      60666482 
  20      AB8630D8 
  20      19185818 
  20      195899D9 
  21 0044 D9993918 		.ascii	"\331\2319\030\031\231\201Z\312\030\030\352\241&\243"
  21      1999815A 
  21      CA1818EA 
  21      A126A3
  22 0053 9BC6C000 		.ascii	"\233\306\300\000\000\270\232\017\221"
  22      00B89A0F 
  22      91
  23              		.text
  24              		.section	.gnu.lto_.inline.9983f1ad0ac75942,"",%progbits
  25 0000 789C6D92 		.ascii	"x\234m\222=O\002A\020\206g\366\346\276@\344H\214\306"
  25      3D4F0241 
  25      108667F6 
  25      E6BE40E4 
  25      488CC6
  26 0013 98C8D968 		.ascii	"\230\310\331h\307F0\326$\332\230\000&Ba\247\250\011"
  26      C74630D6 
  26      24DA9800 
  26      264261A7 
  26      A809
  27 0025 47C44084 		.ascii	"G\304@\204\330\320PRX\360\023\320\306\377`aL,-\264\264"
  27      D8D05052 
  27      58F013D0 
  27      C6FF6061 
  27      4C2C2DB4 
  28 003a B0B0A4B4 		.ascii	"\260\260\244\2640\221P\030w\367\216/\3456\267;\273;"
ARM GAS  /tmp/cchWVbPq.s 			page 2


  28      30915018 
  28      77F78E2F 
  28      E536B73B 
  28      BB3B
  29 004c 33CFCC9B 		.ascii	"3\317\314\233e\300`\326w \216Sb\265\001,\007\201\031"
  29      65C060D6 
  29      77208E53 
  29      62B5012C 
  29      078119
  30 005f 9F0930BA 		.ascii	"\237\0110\272q\345\314\302\000(\2061/.\330k\364\317"
  30      71E5CCC2 
  30      00288631 
  30      2F2ED86B 
  30      F4CF
  31 0071 85066BAB 		.ascii	"\205\006k\253h@\351\020\313\250\311-xc\263\324\204A"
  31      6840E910 
  31      CBA8C92D 
  31      7863B3D4 
  31      8441
  32 0083 ABDDFA78 		.ascii	"\253\335\372x\372~\026gx\201>\316+\342\0156A\206K/y"
  32      FA7E1667 
  32      78813ECE 
  32      2BE20D36 
  32      41864B2F 
  33 0098 6A2EF75F 		.ascii	"j.\367_\030\330o\333\014\260g\246\031\350\355\2154P"
  33      18D86FDB 
  33      0CB067A6 
  33      19E8ED8D 
  33      3450
  34 00aa 2FDC4282 		.ascii	"/\334B\202\350=9\004\270\356\220\002ks \266\302$\210"
  34      E83D3904 
  34      B8EE9002 
  34      6B7320B6 
  34      C22488
  35 00bd 5868066C 		.ascii	"Xh\006l6f\263\011\366\343\317\3714\371v\232\254\035"
  35      3666B309 
  35      F6E3CFF9 
  35      34F9769A 
  35      AC1D
  36 00cf 2BBE257E 		.ascii	"+\276%~\325\330\004\035\007L\320Y\260\202\361\036#U"
  36      D5D8041D 
  36      074CD059 
  36      B082F11E 
  36      2355
  37 00e1 1123990A 		.ascii	"\021#\231\012C\262\012\320!\346\240\346gBE\221\246k"
  37      43B20AD0 
  37      21E6A0E6 
  37      67424591 
  37      A66B
  38 00f3 2E5EDFE1 		.ascii	".^\337\341(#\3713\010\371,i9j\357Ho\003l\013\321\217"
  38      2823F933 
  38      08F92C69 
  38      396AEF48 
  38      6F036C0B 
  39 0109 A75027F7 		.ascii	"\247P'\367/F\212\003\221-d\023\014\335\351\177\351\263"
  39      2F468A03 
  39      912D6413 
ARM GAS  /tmp/cchWVbPq.s 			page 3


  39      0CDDE97F 
  39      E9B3
  40 011b B3AB5E16 		.ascii	"\263\253^\026VP\017d\241\261,4\325r`\273!\352\306G\251"
  40      56500F64 
  40      A1B12C34 
  40      D57260BB 
  40      21EAC647 
  41 0130 868589C9 		.ascii	"\206\205\211\311U*\270\262{\001\010?\270\024h#g\211"
  41      552AB8B2 
  41      7B01083F 
  41      B8146823 
  41      6789
  42 0142 21513F76 		.ascii	"!Q?vr6\030K\250\336\325\360a\010e\206\257\003\222\211"
  42      7236184B 
  42      A8DED5F0 
  42      61086586 
  42      AF039289 
  43 0156 04DFF1CA 		.ascii	"\004\337\361\312'\345\375<\257\326\271W\254\360Z\365"
  43      27E5FD3C 
  43      AFD6B957 
  43      ACF05AF5 
  44 0166 B251E7F9 		.ascii	"\262Q\347\371B6\225\344\231\314./\354e\2576y\251\326"
  44      423695E4 
  44      99CC2E2F 
  44      EC65AF36 
  44      79A9D6
  45 0179 38AA54CE 		.ascii	"8\252T\316\022\247\360\013\014\367]\177"
  45      12A7F00B 
  45      0CF75D7F 
  46              		.text
  47              		.section	.gnu.lto_.pureconst.9983f1ad0ac75942,"",%progbits
  48 0000 789C6362 		.ascii	"x\234cb`b\020f\200\000N\006)F\011f)\026)V)6)v)\016)"
  48      60621066 
  48      80004E06 
  48      29460966 
  48      29162956 
  49 001b 4E09000C 		.ascii	"N\011\000\014\205\0012"
  49      850132
  50              		.text
  51              		.section	.gnu.lto_gpt_lld_stop.part.0.9983f1ad0ac75942,"",%progbits
  52 0000 789C954F 		.ascii	"x\234\225O;H\003A\020\235\331\335\374*m\355\202m \213"
  52      3B480341 
  52      109DD9DD 
  52      FC2A6DED 
  52      826D208B 
  53 0014 110B6B6D 		.ascii	"\021\013km\002\011\026\271\200V\222DH\016\022\022L\260"
  53      020916B9 
  53      80569244 
  53      480E1212 
  53      4CB0
  54 0026 B1C89E5E 		.ascii	"\261\310\236^\021\213H\260S\233\004\301\302\306N\221"
  54      118B48B0 
  54      539B04C1 
  54      C2C64E91 
  55 0036 34922E85 		.ascii	"4\222.\205\212\245\251\016\301\332VDXg\357\274B;\207"
  55      8AA5A90E 
  55      C1DA5644 
ARM GAS  /tmp/cchWVbPq.s 			page 4


  55      5867EFBC 
  55      423B87
  56 0049 DD7DB33B 		.ascii	"\335}\263;o\336\354c\300\340o\244h_\"\300*!F\000\305"
  56      6FDEEC63 
  56      C0E06FA4 
  56      685F22C0 
  56      2A214600 
  57 005e E0911281 		.ascii	"\340\221\022\201\314G\206\334\240\023\347\210&\001\204"
  57      CC4786DC 
  57      A013E788 
  57      260184
  58 006d AE601CBB 		.ascii	"\256`\034\273[h\232q\021FJ\235xo\343~\364T\335\273C"
  58      5B689A71 
  58      11464A9D 
  58      786FE37E 
  58      F454DDBB 
  59 0082 F5A535A2 		.ascii	"\365\2455\242\2154h\005\241\202\260I\027L\372\300\304"
  59      8D346805 
  59      A182B049 
  59      174CFAC0 
  59      C4
  60 0093 EFC9D74C 		.ascii	"\357\311\327LyZ\277\334\034c\024\301F\316\314A\357\021"
  60      795ABFDC 
  60      1C6314C1 
  60      46CECC41 
  60      EF11
  61 00a5 70951A24 		.ascii	"p\225\032$K8\"y0\"\024\026\235\346\003E\024\006\371"
  61      4B382279 
  61      30221416 
  61      9DE60345 
  61      1406F9
  62 00b8 14267180 		.ascii	"\024&q\200\006\322\242\312\024\016\350\026t4\360G\277"
  62      06D2A2CA 
  62      140EE816 
  62      7434F047 
  62      BF
  63 00c9 88CCA73E 		.ascii	"\210\314\247>\201\353\035\335zX\302\0132\010\260\017"
  63      81EB1DDD 
  63      7A58C20B 
  63      3208B00F 
  64 00d9 9FAAA7E6 		.ascii	"\237\252\247\346m\024\025\014\270\346w\221\005\032\037"
  64      6D14150C 
  64      B8E67791 
  64      051A1F
  65 00e8 057880C9 		.ascii	"\005x\200\311\354\343\265\037\013\330U\304\024\\)\327"
  65      ECE3B51F 
  65      0BD855C4 
  65      145C29D7 
  66 00f8 217AEC1C 		.ascii	"!z\354\034\316\234\201i\214\233\206\204\032\366\224"
  66      CE9C8169 
  66      8C9B8684 
  66      1AF694
  67 0107 F07B13BE 		.ascii	"\360{\023\276J9\034L\032\207c\036\0120\3220$\256\337"
  67      4A391C4C 
  67      1A87631E 
  67      0A30D230 
  67      24AEDF
ARM GAS  /tmp/cchWVbPq.s 			page 5


  68 011a B59EF3AB 		.ascii	"\265\236\363\253\223lP\374\2674\251\205\336\270\357"
  68      936C50FC 
  68      B734A985 
  68      DEB8EF
  69 0129 ED191C6F 		.ascii	"\355\031\034ov'BkAXd\213\212\206\232I\247\345Z\315."
  69      7627426B 
  69      4158648B 
  69      8A869A49 
  69      A7E55ACD 
  70 013e DB1B05D9 		.ascii	"\333\033\005\331l\313Z\251.[\315\335N[\026\254\374r"
  70      6CCB5AA9 
  70      2E5BCDDD 
  70      4E5B16AC 
  70      FC72
  71 0150 46E672EB 		.ascii	"F\346r\353\322\312\346\367\226d\265\325\331\256\327"
  71      D2CAE6F7 
  71      9664B5D5 
  71      D9AED7
  72 015f 77D21510 		.ascii	"w\322\025\020\224\266\276\001\200Aw\370"
  72      94B6BE01 
  72      804177F8 
  73              		.text
  74              		.section	.gnu.lto_gpt_lld_init.9983f1ad0ac75942,"",%progbits
  75 0000 789C6362 		.ascii	"x\234cb`b@\007\222@\374\000\210M\200\230\221\231\201"
  75      60624007 
  75      9240FC00 
  75      884D8098 
  75      919981
  76 0013 9169C239 		.ascii	"\221i\3029\006\206F\016&FF\020\203\201\221\241\236\211"
  76      0686460E 
  76      26464610 
  76      838191A1 
  76      9E89
  77 0025 B13E9211 		.ascii	"\261>\222\021\254v=\323\201\007\377\377\257\273sk\316"
  77      AC763DD3 
  77      8107FFFF 
  77      AFBB736B 
  77      CE
  78 0036 1FC6DF4C 		.ascii	"\037\306\337L,@\021V\206\226\206\206\011\012\014\014"
  78      2C401156 
  78      86968686 
  78      090A0C0C 
  79 0046 C9601521 		.ascii	"\311`\025!@\022\244-\224\221\011D3\237eh\332qc\335k"
  79      4012A42D 
  79      94910944 
  79      339F6568 
  79      DA7163DD 
  80 005b C644C685 		.ascii	"\306D\306\205\214\254\014\332\014\253\032\200\3000\223"
  80      8CAC0CDA 
  80      0CAB1A80 
  80      C03093
  81 006a 916136C3 		.ascii	"\221a6\303\254\306\206\006\201LF\306j\206_\015\035 "
  81      ACC68606 
  81      814C46C6 
  81      6A865F0D 
  81      1D20
  82 007c 16532ED8 		.ascii	"\026S.\330\210\010F \023l[\022\304R\260\010C\303\215"
ARM GAS  /tmp/cchWVbPq.s 			page 6


  82      88084620 
  82      136C5B12 
  82      C452B008 
  82      43C38D
  83 008f 96069085 		.ascii	"\226\006\220\205\347\031Z\036\354\356\345\202\030\310"
  83      E7195A1E 
  83      ECEEE582 
  83      18C8
  84 009d C000D7CD 		.ascii	"\300\000\327\315\234\314\010Q\016\022\341\200\230\006"
  84      9CCC0851 
  84      0E12E180 
  84      9806
  85 00ab 5594C908 		.ascii	"U\224\311\010\324x\221\241\361\301~}\2306\010\010\001"
  85      D47891A1 
  85      F1C17E7D 
  85      98360808 
  85      01
  86 00bc 6A01BA12 		.ascii	"j\001\272\022d\233\221\236\236\276sFfR\246\177\260~"
  86      649B919E 
  86      9EBE7346 
  86      6652A67F 
  86      B07E
  87 00ce 7EB17E46 		.ascii	"~\261~Fb\216~A~QI\261~p\210\257\261\221\276\217\217"
  87      628E7E41 
  87      7E5149B1 
  87      7E7088AF 
  87      B191BE8F 
  88 00e3 8B7E88A7 		.ascii	"\213~\210\247o\231\241~zAI|NN\212^2\003\000\365\231"
  88      6F99A17E 
  88      7A41497C 
  88      4E4E8A5E 
  88      320300F5 
  89 00f8 4C36     		.ascii	"L6"
  90              		.text
  91              		.section	.gnu.lto_gpt_lld_start.9983f1ad0ac75942,"",%progbits
  92 0000 789CA553 		.ascii	"x\234\245SKHTa\024>\347>\346=\316\214\016f\370 \\&x"
  92      4B485461 
  92      143EE73E 
  92      E63DCE8C 
  92      0E66F820 
  93 0017 4B899476 		.ascii	"K\211\224v\325FPZ8B\255B'\032\007\024%\245M\013\377"
  93      D546505A 
  93      3842AD42 
  93      271A0714 
  93      25A54D0B 
  94 002c 710C66D1 		.ascii	"q\014f\321\200\264\022]\244D-\334D\2016\021\201\211"
  94      80B4125D 
  94      A4442DDC 
  94      44813611 
  94      8189
  95 003e 4806166D 		.ascii	"H\006\026mZ\214 \203-\202\204r\223\211F\267s\356cf\264"
  95      5A8C2083 
  95      2D828472 
  95      938946B7 
  95      73EE6366 
  96 0053 4146BA70 		.ascii	"AF\272p\317\377:\337w\276s\316\377K \301\321\3572\375"
  96      CFFF3ADF 
ARM GAS  /tmp/cchWVbPq.s 			page 7


  96      77BE73CE 
  96      FF4B20C1 
  96      D1EF32FD 
  97 0067 3107401B 		.ascii	"1\007@\033\215\350\000\224&?\000$\\\222$\257\326\203"
  97      8DE80094 
  97      263F0024 
  97      5C9224AF 
  97      D683
  98 0079 F0A8EFCF 		.ascii	"\360\250\357\317\201\360\311\222\362\323\311\253\231"
  98      81F0C992 
  98      F2D3C9AB 
  98      99
  99 0086 55A0A582 		.ascii	"U\240\245\202\252\351\245\"\362\004\020\306$YQq\354"
  99      AAE9A522 
  99      F20410C6 
  99      24595171 
  99      EC
 100 0097 06322736 		.ascii	"\0062'6\302\234\020\017sOv\277\340\224X\032\237\025"
 100      C29C100F 
 100      734F76BF 
 100      E094581A 
 100      9F15
 101 00a9 BF751D31 		.ascii	"\277u\0351\216\024\377\002B\024\341:-0h\014\322\021"
 101      8E14FF02 
 101      4214E13A 
 101      2D30680C 
 101      D211
 102 00bb 4DCFA4A5 		.ascii	"M\317\244\245\234\256?8X\330\332\304i\251A\306A\004"
 102      9CAE3F38 
 102      58D8DAC4 
 102      69A941C6 
 102      4104
 103 00cd 05E228AB 		.ascii	"\005\342(\253d\024\007\033\027\0337\233\0126\0012j\220"
 103      6414071B 
 103      171B379B 
 103      0A360132 
 103      6A90
 104 00df 67213695 		.ascii	"g!6\225d\034U\320\213s\244#L\013g5o\327\260\251eS\307"
 104      641C55D0 
 104      8B73A423 
 104      4C0B6735 
 104      6FD7B0A9 
 105 00f6 8622A930 		.ascii	"\206\"\2510!\304\344\031\323q\020Iz\324\220\037!\313"
 105      21C4E419 
 105      D3711049 
 105      7AD4901F 
 105      21CB
 106 0108 69F5A0C4 		.ascii	"i\365\240\304\243\274\016\343\331\275\335\015\354\305"
 106      A3BC0EE3 
 106      D9BDDD0D 
 106      ECC5
 107 0116 C7A8420C 		.ascii	"\307\250B\014\225&8\033G\327\014L\223|w\014eN\303c\210"
 107      9526381B 
 107      47D70C4C 
 107      937C770C 
 107      654EC363 
 108 012b EF433B8D 		.ascii	"\357C;\215w\260\3625\341\317C\330\305\205Ei\366\240"
ARM GAS  /tmp/cchWVbPq.s 			page 8


 108      77B0F235 
 108      E1CF43D8 
 108      C5854569 
 108      F6A0
 109 013d 0CABF532 		.ascii	"\014\253\3652\273\275}\363\310g;\312\367`_\244\204h"
 109      BBBD7DF3 
 109      C8673BCA 
 109      F7605FA4 
 109      8468
 110 014f 25C6413C 		.ascii	"%\306A<\\\232\036R\255K$g9\273\367\353\222\215P\233"
 110      5C9A1E52 
 110      AD4B2467 
 110      39BBF7EB 
 110      928D509B 
 111 0163 605E4C24 		.ascii	"`^L$\202q\364\232\212|\034\313/fSB1\012\354\267\224"
 111      8271F49A 
 111      8A7C1CCB 
 111      2F665342 
 111      310AECB7 
 112 0178 D9D1D721 		.ascii	"\331\321\327!\371J\266\321\016\"`'E\004\215\243\345"
 112      F94AB6D1 
 112      0E226027 
 112      45048DA3 
 112      E5
 113 0189 0EF3E464 		.ascii	"\016\363\344d\244\304c\200\263\251\375<\263\253\\\012"
 113      A4C46380 
 113      B3A9FD3C 
 113      B3AB5C0A 
 114 0199 A9942E2A 		.ascii	"\251\224.*\253\353\177tI\226.\267\001n+\002c\231X\336"
 114      ABEB7F74 
 114      49962EB7 
 114      016E2B02 
 114      639958DE 
 115 01ad F1F2E423 		.ascii	"\361\362\344#\334\317}\373\3415)\000\314\006\221\202"
 115      DCCF7DFB 
 115      E1352900 
 115      CC069182 
 116 01bd 8AA8953D 		.ascii	"\212\250\225={\006N\233\203\223\356V\220c\216g2\007"
 116      7B064E9B 
 116      8393EE56 
 116      90638E67 
 116      3207
 117 01cf 1B52212E 		.ascii	"\033R!.}\027\351\274\364\245\221\013<be\2761\337o\265"
 117      7D17E9BC 
 117      F4A5910B 
 117      3C6265BE 
 117      31DF6FB5 
 118 01e3 70FF5EA4 		.ascii	"p\377^\244\333\355\332T\030\367\357X*CAv\247\312\206"
 118      DBEDDA54 
 118      18F7EF58 
 118      2A434176 
 118      A7CA86
 119 01f6 040C885A 		.ascii	"\004\014\210Z\032\242\024CN\331\220 \253\2464C&\250"
 119      1AA21443 
 119      4ED99020 
 119      ABA63443 
 119      26A8
ARM GAS  /tmp/cchWVbPq.s 			page 9


 120 0208 924818A4 		.ascii	"\222H\030\244Z \265\320\265t\362\251d\243B$/fU`;y\333"
 120      5A20B5D0 
 120      B574F2A9 
 120      64A34224 
 120      2F665560 
 121 021f DE2674C8 		.ascii	"\336&t\310\360M%\033\354\275*\332fF\207\256\263\350"
 121      F04D251B 
 121      ECBD2ADA 
 121      664687AE 
 121      B3E8
 122 0231 35B048CC 		.ascii	"5\260H\314\367H\347\246\242\324b\376\025\205\215,\234"
 122      F748E7A6 
 122      A2D462FE 
 122      15858D2C 
 122      9C
 123 0242 A5B370E4 		.ascii	"\245\263p\344\005-gv<\305\267E\264\347[N1\303\014rZ"
 123      052D6776 
 123      3CC5B745 
 123      B4E75B4E 
 123      31C30C72 
 124 0257 20E7E156 		.ascii	" \347\341Vs\274\314b\272\303\016Xm\325 \\\272\006\256"
 124      73BCCC62 
 124      BAC30E58 
 124      6DD5205C 
 124      BA06AE
 125 026a 42C8B5B2 		.ascii	"B\310\265\262C\272\255\233Ym\204\373\236\334\376\374"
 125      43BAAD9B 
 125      596D84FB 
 125      9EDCFEFC 
 126 027a 5CB5E3D5 		.ascii	"\\\265\343\325XY\037\276\355\307\220y,\262\0323\357"
 126      58591FBE 
 126      EDC79079 
 126      2CB21A33 
 126      EF
 127 028b BDC57453 		.ascii	"\275\305tS\231H\357\277\231O\275,d^{|\346\276B\367_"
 127      9948EFBF 
 127      994FBD2C 
 127      645E7B7C 
 127      E6BE42F7 
 128 02a0 27B7F2DD 		.ascii	"'\267\362\335\257#\240\371j\377\350z\340\244\225\361"
 128      AF23A0F9 
 128      6AFFE87A 
 128      E0A495F1 
 129 02b0 5BC9D401 		.ascii	"[\311\324\001|\202DnsA\261\337\234\371E\350\275\321"
 129      7C82446E 
 129      7341B1DF 
 129      9CF945E8 
 129      BDD1
 130 02c2 7BE0E7D9 		.ascii	"{\340\347\331\322\334\254]\351\217\367\305\257ukC#Z"
 130      D2DCAC5D 
 130      E98FF7C5 
 130      AF756B43 
 130      235A
 131 02d4 7FEF8036 		.ascii	"\177\357\2006<tgtD\353\216t\265\266h\235\235W\265HG"
 131      3C746774 
 131      44EB8E74 
 131      B5B6689D 
ARM GAS  /tmp/cchWVbPq.s 			page 10


 131      9D57B548 
 132 02e9 D7DDF35A 		.ascii	"\327\335\363Zlx\364\346\300\300\255\346(\310\303#\321"
 132      6C78F4E6 
 132      C0C0ADE6 
 132      28C8C323 
 132      D1
 133 02fa BF582271 		.ascii	"\277X\"qJ"
 133      4A
 134              		.text
 135              		.section	.gnu.lto_gpt_lld_stop.9983f1ad0ac75942,"",%progbits
 136 0000 789C8D91 		.ascii	"x\234\215\221?HBQ\024\306\317\271\177R\254\2405BhiI"
 136      3F484251 
 136      14C6CFB9 
 136      7F52ACA0 
 136      35426869 
 137 0015 F295B636 		.ascii	"\362\225\2666D-\201\322\240BM\241\006\317\007\212\222"
 137      442D81D2 
 137      A0424DA1 
 137      06CF078A 
 137      92
 138 0026 D2D2E0D5 		.ascii	"\322\322\340\325\034Z\004\307\310\251\265\241\032m1"
 138      1C5A04C7 
 138      C8A9B5A1 
 138      1A6D31
 139 0035 0B910A2C 		.ascii	"\013\221\012,\332\302!\334\032\234\203h\261{\337\363"
 139      DAC221DC 
 139      1A9C8368 
 139      B17BDFF3 
 140 0045 49FF062F 		.ascii	"I\377\006/\274{\270\347}\277\357\362\235K\200\300\357"
 140      BC7BB8E7 
 140      7DBFEFF2 
 140      9D4B80C0 
 140      EF
 141 0056 B52ABF39 		.ascii	"\265*\2779\331^\226\025\307\000I\345\021\240\340$\204"
 141      D95E9615 
 141      C70049E5 
 141      11A0E024 
 141      84
 142 0067 B6DC205C 		.ascii	"\266\334 \\\374a\021\304\004%\354\335\241N\325\026\310"
 142      FC6111C4 
 142      0425ECDD 
 142      A14ED516 
 142      C8
 143 0078 2343AE54 		.ascii	"#C\256T\310\021U\005\204<\241\214c~\033M\317\013\322"
 143      C8115505 
 143      843CA18C 
 143      637E1B4D 
 143      CF0BD2
 144 008b E8F6FBE7 		.ascii	"\350\366\373\347\257\275n\023;W\314E0\205@\301@`rS\032"
 144      AFBD6E13 
 144      3B57CC45 
 144      308540C1 
 144      40607253 
 145 00a0 0E25212A 		.ascii	"\016%!*\263\000q\223\010\313]9E\220\250J\333P\354\324"
 145      B3007193 
 145      08CB5D39 
 145      4590A84A 
ARM GAS  /tmp/cchWVbPq.s 			page 11


 145      DB50ECD4 
 146 00b4 EAE59928 		.ascii	"\352\345\231(\236\"\007\035\251\007\346\015$U8A\003"
 146      9E22071D 
 146      A907E60D 
 146      24553841 
 146      03
 147 00c5 A98E644B 		.ascii	"\251\216dKVf\336\025C;\311\0354\337\012\223CDI\310\367"
 147      5666DE15 
 147      433BC91D 
 147      34DF0A93 
 147      434449C8 
 148 00da BC11A4D0 		.ascii	"\274\021\244\320r\233\336/\365\362\264-d\2467\376\357"
 148      729BDE2F 
 148      F5F2B42D 
 148      64A637FE 
 148      EF
 149 00eb 6D9BB7E1 		.ascii	"m\233\267\341\266v9n!\0368\023\245\202X1\220[\320\230"
 149      B676396E 
 149      211E3813 
 149      A5825831 
 149      905BD098 
 150 00ff 3451100E 		.ascii	"4Q\020\016 \353R\325\3416\373Q//\214H\323\277\364\361"
 150      20EB52D5 
 150      E136FB51 
 150      2F2F8C48 
 150      D3BFF4F1 
 151 0113 F5C834FB 		.ascii	"\365\3104\373I\253\231\334\364{\015\264\323\222\003"
 151      49AB99DC 
 151      F47B0DB4 
 151      D39203
 152 0122 F8144742 		.ascii	"\370\024GB\370e\306\3240\236= \006}B\357\241\350\264"
 152      F865C6D4 
 152      309E3D20 
 152      067D42EF 
 152      A1E8B4
 153 0135 E42924BA 		.ascii	"\344)$\272J\363\004\207\203\016\200\305O\031\350\210"
 153      4AF30487 
 153      830E80C5 
 153      4F19E888 
 154 0145 0F70039D 		.ascii	"\017p\003\2356\317\315\327{\206BW>\273MX+,\325\362\247"
 154      36CFCDD7 
 154      7B864257 
 154      3EBB4D58 
 154      2B2CD5F2 
 155 015a 9A8DCFEB 		.ascii	"\232\215\317\353\325\326\022F\314\330\014i\351\254\226"
 155      D5D61246 
 155      CCD80C69 
 155      E9AC96
 156 0169 8826B54C 		.ascii	"\210&\265Lz/\227\325B\341\240\337\247\005\002\353Zx"
 156      7A2F97D5 
 156      42E1A0DF 
 156      A70502EB 
 156      5A78
 157 017b 23B8BFA4 		.ascii	"#\270\277\244\351\231\334N2\271\353\215\303\027\223"
 157      E999DC4E 
 157      32B9EB8D 
 157      C31793
ARM GAS  /tmp/cchWVbPq.s 			page 12


 158 018a 128DF6   		.ascii	"\022\215\366"
 159              		.text
 160              		.section	.gnu.lto_gpt_lld_start_timer.9983f1ad0ac75942,"",%progbits
 161 0000 789C8D92 		.ascii	"x\234\215\222\273K\003A\020\306gv\367.\321<\214\377"
 161      BB4B0341 
 161      10C66776 
 161      F72ED13C 
 161      8CFF
 162 0012 81B5D11C 		.ascii	"\201\265\321\034>\032km\002\021\013#h%Q\341<\210$\030"
 162      3E1A6B6D 
 162      02110B23 
 162      682551E1 
 162      3C882418 
 163 0026 B1F5F228 		.ascii	"\261\365\362(\264\011)%V\266\026\332F\003F,|\024\021"
 163      B4092925 
 163      56B616DA 
 163      4603462C 
 163      7C1411
 164 0039 EC249558 		.ascii	"\354$\225X[\010\202\330\305\331\333\273$\004\305,\334"
 164      5B0882D8 
 164      C5D9DBBB 
 164      2404C52C 
 164      DC
 165 004a EEDCEEFE 		.ascii	"\356\334\356\376\276\331\375v\0300\350o3\364E9\300,"
 165      BED9FD76 
 165      1830E86F 
 165      33F44539 
 165      C02C
 166 005c 8DA801B2 		.ascii	"\215\250\001\262\312\023@\336\317\030\257\336\001\330"
 166      CA1340DE 
 166      CF18AFDE 
 166      01D8
 167 006a C3E2CB07 		.ascii	"\303\342\313\007v\220\243P\363\002Q\006\200p\300\270"
 167      7690A350 
 167      F3025106 
 167      8070C0B8 
 168 007a C0833574 		.ascii	"\300\2035tT.\330\315k\273}\376\362\371q\217Gu1\312q"
 168      542ED8CD 
 168      6BBB7DFE 
 168      F2F9718F 
 168      477531CA 
 169 008f 07418085 		.ascii	"\007A\200\205\240Q\204:E\030\240\216\005\251\343!\371"
 169      A051843A 
 169      4518A08E 
 169      05A9E321 
 169      F9
 170 00a0 1B961DA1 		.ascii	"\033\226\035\241\032\224l\2732\006\260\351H%\251\227"
 170      1A946CBB 
 170      3206B0E9 
 170      4825A997 
 171 00b0 195690C9 		.ascii	"\031V\220\311\2217\241\320z\251\227})<\245\343\231("
 171      9137A1D0 
 171      7AA9977D 
 171      293CA5E3 
 171      9928
 172 00c2 A2304EB2 		.ascii	"\2420N\262'PE\013\205\211|\225F\3159\304\006z\227jB"
 172      2750450B 
ARM GAS  /tmp/cchWVbPq.s 			page 13


 172      85897C95 
 172      46CD39C4 
 172      067A976A 
 173 00d7 F1B07885 		.ascii	"\361\260x\205\036\243\233\250\311m\330\2466\342\254"
 173      1EA39BA8 
 173      C96DD8A6 
 173      36E2AC
 174 00e6 DF3E5602 		.ascii	"\337>V\002j9\012gv)o\317Y\250+Q\037%\221\273\301\025"
 174      6A390A67 
 174      76296FCF 
 174      59A82B51 
 174      1F2591BB 
 175 00fc 5501A938 		.ascii	"U\001\2518\\\355\273^\236\030\220Tn\313\031\035U\326"
 175      5CEDBB5E 
 175      9E189054 
 175      6ECB191D 
 175      55D6
 176 010e DAF1F5C0 		.ascii	"\332\361\365\3004\357\322\340\322\265\306\300\264\350"
 176      34EFD2E0 
 176      D2B5C6C0 
 176      B4E8
 177 011c A7C9C646 		.ascii	"\247\311\306F9\352Y\022pld\277\333\250ul,\264>\302\036"
 177      39EA5912 
 177      706C64BF 
 177      DBA8756C 
 177      2CB43EC2 
 178 0131 12943923 		.ascii	"\022\2249#\026\372\0254D\"\022b.\244\273\320\003\224"
 178      16FA1534 
 178      44221262 
 178      2EA4BBD0 
 178      0394
 179 0143 DEF3A10E 		.ascii	"\336\363\241\016$\267\014\367\026\334\012]\214J\213"
 179      24B70CF7 
 179      16DC0A5D 
 179      8C4A8B
 180 0152 1EF6B6F5 		.ascii	"\036\366\266\365\335(Oz;C\352J\221?o\344\353>\356%\367"
 180      DD284F7A 
 180      3B43EA4A 
 180      913F6FE4 
 180      EB3EEE25 
 181 0167 A83081CE 		.ascii	"\2500\201\316\323\272\006\307{\355\371O\213p\357L\302"
 181      D3BA06C7 
 181      7BEDF94F 
 181      8B70EF4C 
 181      C2
 182 0178 2D367AA1 		.ascii	"-6z\241\267\201=\366w=\226\226=C\376\225\212_\301^K"
 182      B7813DF6 
 182      773D9696 
 182      3D43FE95 
 182      8A5FC15E 
 183 018d D2C9485A 		.ascii	"\322\311HZ\2724\035\213\031\363\333\326\206\265\264"
 183      BA341D8B 
 183      19F3DBD6 
 183      86B5B4
 184 019c 6C6472C6 		.ascii	"ldr\306v*md3\273{9c9\27183m$\022\013F2\276\270?e\230"
 184      762A6D64 
 184      33BB7B39 
ARM GAS  /tmp/cchWVbPq.s 			page 14


 184      6339B938 
 184      336D2412 
 185 01b8 D9BDF574 		.ascii	"\331\275\365tz+\266\011?\346@\276y"
 185      7A2BB609 
 185      3FE640BE 
 185      79
 186              		.text
 187              		.section	.gnu.lto_gpt_lld_stop_timer.9983f1ad0ac75942,"",%progbits
 188 0000 789C6362 		.ascii	"x\234cb`b@\007\222@\274\234\221\201\301\004H32302M8"
 188      60624007 
 188      9240BC9C 
 188      9181C104 
 188      48333233 
 189 0018 C7C0D0C8 		.ascii	"\307\300\320\310\301\304\310\010b002\32431\326G2\202"
 189      C1C4C808 
 189      62303032 
 189      D43331D6 
 189      473282
 190 002b D5AE673A 		.ascii	"\325\256g:\360\340\377\377u[\276]8\312\270r7\013'\023"
 190      F0E0FFFF 
 190      755BBE5D 
 190      38CAB872 
 190      370B2713 
 191 003f 632E2303 		.ascii	"c.#\0033C&#\003\033\220`d\007\021@e\254\014-\015\015"
 191      33432623 
 191      031B9060 
 191      64071140 
 191      65AC0C2D 
 192 0055 13141818 		.ascii	"\023\024\030\030\222\301\332B\200$\310\254PF&\020\315"
 192      92C1DA42 
 192      8024C8AC 
 192      50462610 
 192      CD
 193 0066 7C96A1E9 		.ascii	"|\226\241\351\326\214\347}\354\211\214\013\031Y\031"
 193      D68CE77D 
 193      EC898C0B 
 193      195919
 194 0075 D21999B5 		.ascii	"\322\031\231\265\031\264\200F\314f\230\305\230\311\310"
 194      19B48046 
 194      CC6698C5 
 194      98C9C8
 195 0084 94CEC814 		.ascii	"\224\316\310\024\001\244\231\301\026&1\302\234y\226"
 195      01A499C1 
 195      162631C2 
 195      9C7996
 196 0093 E1D08E09 		.ascii	"\341\320\216\011\334\020-\332\014\253\032Z\032\033,"
 196      DC102DDA 
 196      0CAB1A5A 
 196      1A1B2C
 197 00a2 33195920 		.ascii	"3\031Y \232X\201\206\20041@5A\030 \021\026\230\336\035"
 197      9A588186 
 197      80343140 
 197      35411820 
 197      111698DE 
 198 00b7 CFFB7488 		.ascii	"\317\373t\210\324\315\204\241\373\326\214W}\3320\347"
 198      D4CD84A1 
 198      FBD68C57 
ARM GAS  /tmp/cchWVbPq.s 			page 15


 198      7DDA30E7 
 199 00c7 B2410C10 		.ascii	"\262A\014\020\300\251\237\031\356\344\346\335\3140]"
 199      C0A99F19 
 199      EEE4E6DD 
 199      CC305D
 200 00d6 EC408D20 		.ascii	"\354@\215 E\214\015\377\376\377\347\207\030\353\211"
 200      458C0DFF 
 200      FEFFE787 
 200      18EB89
 201 00e5 EC2042E6 		.ascii	"\354 B\346\001\215``\270\310\320\370\000\030\360\020"
 201      018D6060 
 201      B8C8D0F8 
 201      0018F010 
 202 00f5 7D301002 		.ascii	"}0\020\002\364/0\\A\3166\322\323\323w\316\310L\312\364"
 202      F42F305C 
 202      41CE36D2 
 202      D3D377CE 
 202      C84CCAF4 
 203 0109 0FD6CF2F 		.ascii	"\017\326\317/\326\317H\314\321/\310/*)\326\017\016\361"
 203      D6CF48CC 
 203      D12FC82F 
 203      2A29D60F 
 203      0EF1
 204 011b 3536D2F7 		.ascii	"56\322\367\361q\321\017\361\364-3\324O/(\211\317\311"
 204      F171D10F 
 204      F1F42D33 
 204      D44F2F28 
 204      89CFC9
 205 012e 49D14B66 		.ascii	"I\321Kf\000\000`Im\222"
 205      00006049 
 205      6D92
 206              		.text
 207              		.section	.gnu.lto_gpt_lld_polled_delay.9983f1ad0ac75942,"",%progbits
 208 0000 789C8D52 		.ascii	"x\234\215RAK\002Q\020\236y\357m\346b\364\027:'\271\244"
 208      414B0251 
 208      109E79EF 
 208      6DE662F4 
 208      173A27B9 
 209 0015 5D822E51 		.ascii	"]\202.Q\027A\351\340\012u\012-\320\005CI\351\352nz\350"
 209      1741E9E0 
 209      0A750A2D 
 209      D0054349 
 209      E9EA6E7A 
 210 002a 10E231EA 		.ascii	"\020\3421\352\324\265C\335B\360\022\022X\007\205n\341"
 210      D4B543DD 
 210      42F01212 
 210      5807856E 
 210      E1
 211 003b C95BD029 		.ascii	"\311[\320)\014\302C`\363\336\252\033A\340\203\235\031"
 211      0CC24360 
 211      F3DEAA1B 
 211      41E0839D 
 211      19
 212 004c 66E6FB86 		.ascii	"f\346\373\206\371v\0300\370\3736\350\213Rz\215<\316"
 212      F9761830 
 212      F8FB36E8 
 212      8B527A8D 
ARM GAS  /tmp/cchWVbPq.s 			page 16


 212      3CCE
 213 005e 01B27A17 		.ascii	"\001\262z\027\300\231g\310\335\2003\355\274\015`\353"
 213      C09967C8 
 213      DD8033ED 
 213      BC0D60EB 
 214 006e A2EA033B 		.ascii	"\242\352\003;\240\271\371M\201(= \224\031\327\004\226"
 214      A0B9F94D 
 214      81283D20 
 214      9419D704 
 214      96
 215 007f F750D1DD 		.ascii	"\367P\321\335\261\207\376ht\373\3755lc\267)\002\014"
 215      B187FE68 
 215      74FBFD35 
 215      6C63B729 
 215      020C
 216 0091 8F103858 		.ascii	"\217\0208X\010\202\"\324(B\2774\2724\004\320\240j\333"
 216      088222D4 
 216      2842BF34 
 216      BA3404D0 
 216      A06ADB
 217 00a4 F5258003 		.ascii	"\365%\200\003E`\222\245AId\344x\007N{\027\203\232/\205"
 217      456092A5 
 217      414964E4 
 217      78074E7B 
 217      17839A2F 
 218 00b9 D704CD20 		.ascii	"\327\004\315 \017\3022Q]\301%Z\3102\310v\311s58\215"
 218      0FC23251 
 218      5DC1255A 
 218      C832C876 
 218      C9733538 
 219 00ce 938D3A50 		.ascii	"\223\215:P9\253\334\343\004\243eP\3106\034\321[T\365"
 219      39ABDCE3 
 219      04A36550 
 219      C8361CD1 
 219      5B54F5
 220 00e1 D6F387EE 		.ascii	"\326\363\207\356\226\203pcW\035{\335B\341\222R7\227"
 220      96837063 
 220      571D7BDD 
 220      42E19252 
 220      3797
 221 00f3 DD302675 		.ascii	"\3350&u\003bQ\270FcP\013\316\210t\245\226\031\201\356"
 221      036251B8 
 221      4663500B 
 221      CE8874A5 
 221      961981EE 
 222 0107 D4C6EBEC 		.ascii	"\324\306\353\354h\356\241\027\306{%)I\232\223(\255\336"
 222      68EEA117 
 222      C67B2529 
 222      499A9328 
 222      ADDE
 223 0119 70505B99 		.ascii	"pP[\231,\350Wd\370/\225\360tiV\336\247\272\350\204T"
 223      2CE85764 
 223      F82F95F0 
 223      746956DE 
 223      A7BAE884 
 224 012e BAC8C627 		.ascii	"\272\310\306'x|s\"\323\222\312\377\276\022\223\362t"
 224      787C7322 
ARM GAS  /tmp/cchWVbPq.s 			page 17


 224      D392CAFF 
 224      BE1293F2 
 224      74
 225 013f 06982436 		.ascii	"\006\230$6\365_H\212\317\231\227\021\33622x\001\247"
 225      F55F488A 
 225      CF999711 
 225      DE323278 
 225      01A7
 226 0151 4FB7E182 		.ascii	"O\267\341\202\275\011H\314R\264p(dle\255\264\265\223"
 226      BD0948CC 
 226      52B47028 
 226      646C65AD 
 226      B4B593
 227 0164 30F24523 		.ascii	"0\362E#\233\312\031\205\374q\251h$\314x$l\304b\333\206"
 227      9BCA1985 
 227      FC71A968 
 227      24CC7824 
 227      6CC462DB 
 228 0179 198D9FAC 		.ascii	"\031\215\237\254\032\231Bi?\227;\014\035\300\017\274"
 228      1A994269 
 228      3F973B0C 
 228      1DC00FBC 
 229 0189 9395D0   		.ascii	"\223\225\320"
 230              		.text
 231              		.section	.gnu.lto_gpt_lld_serve_interrupt.9983f1ad0ac75942,"",%progbits
 232 0000 789C8D93 		.ascii	"x\234\215\223Oh\023A\024\306\337\233\231M\272k\242\365"
 232      4F681341 
 232      14C6DF9B 
 232      994DBA6B 
 232      A2F5
 233 0012 285228BD 		.ascii	"(R(\275i$\253)\036r\326K\241\305CS\320\223\244\021\322"
 233      6924AB29 
 233      1E72D64B 
 233      A1C54353 
 233      D093A411 
 234 0027 8548832D 		.ascii	"\205H\203-^;Ys^\202\247\242\027{\015\376)x\211\0244"
 234      5E3B5973 
 234      5E82A7A2 
 234      177B0DFE 
 234      29788914 
 235 003c 142D2A54 		.ascii	"\024-*T\361Vr\312\255\340\245z\261%\202\361\275\235"
 235      F15672CA 
 235      ADE0A57A 
 235      B12582F1 
 235      BD9D
 236 004e EC36D8A0 		.ascii	"\3546\330\240\016\354\233\307\356\374\276\367\346\233"
 236      0EEC9BC7 
 236      EEFCBEF7 
 236      E69B
 237 005c 590102FE 		.ascii	"Y\001\002\376\0349z\232\022 O3Z\200\242\361\011\240"
 237      1C397A9A 
 237      12204F33 
 237      5A80A2F1 
 237      09A0
 238 006e 362684DC 		.ascii	"6&\204\334\231\000\355\250\217\227A\247$*\363Z!r\002"
 238      9900EDA8 
 238      8F9741A7 
ARM GAS  /tmp/cchWVbPq.s 			page 18


 238      242AF35A 
 238      217202
 239 0081 086B422A 		.ascii	"\010kB*\\\273\205\241\310\013\321\356\366\373\317_\037"
 239      5CBB85A1 
 239      C80BD1EE 
 239      F6FBCF5F 
 239      1F
 240 0092 1EBDC383 		.ascii	"\036\275\303\203-uV\342]\004\005\036B\202\002\332\024"
 240      2D7556E2 
 240      5D04051E 
 240      428202DA 
 240      14
 241 00a3 844341A6 		.ascii	"\204CA\246(\2504\007\242,\250k\335\230\004(\205*\005"
 241      28A83407 
 241      A22CA86B 
 241      DD980428 
 241      852A05
 242 00b6 8A2CBE80 		.ascii	"\212,\276\200\202g\271\013~\247\325\013\222E\334\240"
 242      8267B90B 
 242      7EA7D50B 
 242      9245DCA0 
 243 00c6 C6CAA832 		.ascii	"\306\312\2502p\221\024\037\303#\364\320*\243\274Is\""
 243      7091141F 
 243      C323F4D0 
 243      2AA3BC49 
 243      7322
 244 00d8 ACBF88D1 		.ascii	"\254\277\210\321vva\273\265\351\030$\003M]\257\351\274"
 244      767661BB 
 244      B5E91824 
 244      034D5DAF 
 244      E9BC
 245 00ea 8749038D 		.ascii	"\207I\003\215\221\010C0\200L\302o\222\206\365;{\275"
 245      91084330 
 245      804CC26F 
 245      9286F53B 
 245      7BBD
 246 00fc E07C5430 		.ascii	"\340|T0\021\026\264G\027\214\234|\017o\367k\351\030"
 246      1116B447 
 246      178C9C7C 
 246      0F6FF76B 
 246      E918
 247 010e E125B61A 		.ascii	"\341%\266\032\362w\001%\354L\360fZG\275\340\302qg4\246"
 247      F2770125 
 247      EC4CF066 
 247      5A47BDE0 
 247      C2716734 
 248 0123 FFA11E8A 		.ascii	"\377\241\036\212q\372\001\374\366\000\235\202\015\255"
 248      71FA01FC 
 248      F6009D82 
 248      0DAD
 249 0131 1FB6DF1C 		.ascii	"\037\266\337\034n\236\323O\374\206\376\325\3573'\340"
 249      6E9ED34F 
 249      FC86FED5 
 249      EF3327E0 
 250 0141 2AB28F8C 		.ascii	"*\262\217\2148\223\341tj\270\015\032T\302\370\263\276"
 250      3893E174 
 250      6AB80D1A 
ARM GAS  /tmp/cchWVbPq.s 			page 19


 250      54C2F8B3 
 250      BE
 251 0152 1F5C8ABD 		.ascii	"\037\\\212\2757\211~y\360\335*b\023\247h\241)T2\366"
 251      37897E79 
 251      F0DD2A62 
 251      13A768A1 
 251      295432F6 
 252 0166 1813DBAF 		.ascii	"\030\023\333\257~t\321\370X\323z\374\244\225\222\261"
 252      7E74D1F8 
 252      58D37AFC 
 252      A49592B1 
 253 0176 67840DDB 		.ascii	"g\204\015\333\271\335jQ\251\">=q\030\243Ep\244Hg\375"
 253      B9DD6A51 
 253      A9223E3D 
 253      7118A345 
 253      70A44867 
 254 018b 6B903122 		.ascii	"k\2201\"eL\031\235\361\277\311\250X\206\371\007[2\202"
 254      654C199D 
 254      F1BFC9A8 
 254      5886F907 
 254      5B3282
 255 019e D3C4F342 		.ascii	"\323\304\363B\305\256\2351\3523\303\355\375\247,)E\207"
 255      C5AE9D31 
 255      EA33C3ED 
 255      FDA72C29 
 255      4587
 256 01b0 ABE2ABBA 		.ascii	"\253\342\253\272\367\363\370\252\332\341\315\021\243"
 256      F7F3F8AA 
 256      DAE1CD11 
 256      A3
 257 01bd CFD68AAF 		.ascii	"\317\326\212\257\252\337\371\026#\016w@US\006\242Vm"
 257      AADFF916 
 257      230E7740 
 257      555306A2 
 257      566D
 258 01cf 86C4004A 		.ascii	"\206\304\000J\014\240\317Po\347\015\303}8\341\261zx"
 258      0CA0CF50 
 258      6FE70DC3 
 258      7D38E1B1 
 258      7A78
 259 01e1 1AE00BD4 		.ascii	"\032\340\013\324\272\364\357E\337\314(\220\247\324 "
 259      BAF4EF45 
 259      DFCC2890 
 259      A7D420
 260 01f0 ABE4B259 		.ascii	"\253\344\262Y\367\332\222\267\350\335\230w\227W\334"
 260      F7DA92B7 
 260      E8DD9877 
 260      9757DC
 261 01ff A562C5AD 		.ascii	"\245b\305\255.\337[]q\347\013s\3239wv\366\272[\230\231"
 261      2EDF5B5D 
 261      71E70B73 
 261      D3397776 
 261      F6BA5B98 
 262 0214 BB7FC52D 		.ascii	"\273\177\305-WWoW*w\262%P\224V\177\003V\207\344w"
 262      57576F57 
 262      2A77B225 
 262      5094567F 
ARM GAS  /tmp/cchWVbPq.s 			page 20


 262      035687E4 
 263              		.text
 264              		.section	.gnu.lto_VectorA4.9983f1ad0ac75942,"",%progbits
 265 0000 789C6362 		.ascii	"x\234cb`b@\007\222@\274\031\210M\200\230\221\231\201"
 265      60624007 
 265      9240BC19 
 265      884D8098 
 265      919981
 266 0013 9169C239 		.ascii	"\221i\3029\006\206F\016&FF\020\203\201\221\241\236\211"
 266      0686460E 
 266      26464610 
 266      838191A1 
 266      9E89
 267 0025 B13E9211 		.ascii	"\261>\222\021\254v=\323\201\007\377\377\257\373vj\315"
 267      AC763DD3 
 267      8107FFFF 
 267      AFFB766A 
 267      CD
 268 0036 1AC6354C 		.ascii	"\032\3065L,@\021V\206\226\206\206\011\012\014\014\311"
 268      2C401156 
 268      86968686 
 268      090A0C0C 
 268      C9
 269 0047 60152140 		.ascii	"`\025!@\022\244-\224\221\011D3\237ghy\260\377(_\"\343"
 269      12A42D94 
 269      91094433 
 269      9F676879 
 269      B0FF285F 
 270 005d 424656A0 		.ascii	"BFV\240t5\303\257\206\216\006\201LF\240r\210\211 \021"
 270      7435C3AF 
 270      868E0681 
 270      4C46A072 
 270      88892011 
 271 0071 8E4C46C6 		.ascii	"\216LF\306\\F\006\250\242L\240V\206\363\014\315\017"
 271      5C4606A8 
 271      A24CA056 
 271      86F30CCD 
 271      0F
 272 0082 4EA66268 		.ascii	"N\246bhcNf\204x \223\021h\371E\206\306\007\247Ta\212"
 272      634E6684 
 272      78209311 
 272      68F94586 
 272      C607A754 
 273 0098 20200468 		.ascii	"  \004h.\320b\220*#==}\347\214\314\244L\377`\375\374"
 273      2ED06290 
 273      2A233D3D 
 273      7DE78CCC 
 273      A44CFF60 
 274 00ae 62FD8CC4 		.ascii	"b\375\214\304\034\375\202\374\242\222b\375\340\020_"
 274      1CFD82FC 
 274      A29262FD 
 274      E0105F
 275 00bd 63237D1F 		.ascii	"c#}\037\037\027\375\020O\3372C\375\364\202\222\370\234"
 275      1F17FD10 
 275      4FDF3243 
 275      FDF48292 
 275      F89C
ARM GAS  /tmp/cchWVbPq.s 			page 21


 276 00cf 9C14BD64 		.ascii	"\234\024\275d\006\000?\353@!"
 276      06003FEB 
 276      4021
 277              		.text
 278              		.section	.gnu.lto_.symbol_nodes.9983f1ad0ac75942,"",%progbits
 279 0000 789C4DCA 		.ascii	"x\234M\312\273\021\202P\024\004\320\275\373@\001\261"
 279      BB118250 
 279      1404D0BD 
 279      FB4001B1 
 280 0010 0643CA5C 		.ascii	"\006C\312\\\206\000\011\361\377\033H,\301\022\310\255"
 280      860009F1 
 280      FF1B482C 
 280      C112C8AD 
 281 0020 C1026C41 		.ascii	"\301\002lA\307A\031y7\3319\273\227 ^\030\216-\005\324"
 281      C7411979 
 281      37D939BB 
 281      97205E18 
 281      8E2D05D4 
 282 0034 77406A2A 		.ascii	"w@j*\343\232\262\201meaM\204\0027\024\307\226[\312y"
 282      E39AB281 
 282      6D65614D 
 282      84023714 
 282      C7965BCA 
 283 0049 DC5181C7 		.ascii	"\334Q\201\307=\025z<P\023\217Gj\352qEE#\255\241\342"
 283      3D157A3C 
 283      50138F47 
 283      6AEA7145 
 283      4523ADA1 
 284 005e 1FF3DCEC 		.ascii	"\037\363\334\354L%\243.\324l\324\211J\377rH\320=\336"
 284      4C25A32E 
 284      D46CD489 
 284      4AFF7248 
 284      D03DDE
 285 0071 E66C866B 		.ascii	"\346l\206k\237.EWf.\000\2122\013\"\334\226\317\205\213"
 285      9F2E4557 
 285      662E008A 
 285      320B22DC 
 285      96CF858B 
 286 0085 2314FD18 		.ascii	"#\024\375\030\317\277O\370\000\304[K&"
 286      CFBF4FF8 
 286      00C45B4B 
 286      26
 287              		.text
 288              		.section	.gnu.lto_.refs.9983f1ad0ac75942,"",%progbits
 289 0000 789C6362 		.ascii	"x\234cb`b\020f\200\000&FF&&&Ff f\001bN&&\006\000\004"
 289      60621066 
 289      80002646 
 289      46262626 
 289      46662066 
 290 001c 0C0041   		.ascii	"\014\000A"
 291              		.text
 292              		.section	.gnu.lto_.decls.9983f1ad0ac75942,"",%progbits
 293 0000 789CBD5A 		.ascii	"x\234\275Z}tT\305\025\237yo\023\262\0200bE\360\364\034"
 293      7D7454C5 
 293      159F796F 
 293      13B21030 
 293      6245F0F4 
ARM GAS  /tmp/cchWVbPq.s 			page 22


 294 0015 96AAAD47 		.ascii	"\226\252\255G\013K\022\374<\036%l\"I\217I8\233\320c"
 294      0B4B12FC 
 294      3C1E256C 
 294      22498F49 
 294      389BD063 
 295 0029 DBD3B33E 		.ascii	"\333\323\263>6/d\353f7n6\010\1779\220\210Hk\015\004"
 295      362F64EB 
 295      66376E36 
 295      087F3990 
 295      88486B0D 
 296 003e 11908F50 		.ascii	"\021\220\217P\240@\213\200\001\025\253\205\225\203\224"
 296      A0408B80 
 296      0115AB85 
 296      958394
 297 004d 4A513E04 		.ascii	"JQ>\004\205\000YCm\213T\245~\005%\270\2753o\336\276"
 297      85005943 
 297      6D8B54A5 
 297      7E0525B8 
 297      BD336FDE 
 298 0062 8FBCDDBC 		.ascii	"\217\274\335\274\307\037\276\223{\337\354\274\231\337"
 298      C71FBE93 
 298      7BDFECBC 
 298      99DF
 299 0070 FCEE9D3B 		.ascii	"\374\356\235;\363f\346E@\002\272\331\205P\012\256\351"
 299      F366E645 
 299      4002BAD9 
 299      85500AAE 
 299      E9
 300 0081 37237411 		.ascii	"7#t\021\322C\021B\367\203@\022\255\005\331\004r\032"
 300      D2431142 
 300      F7834012 
 300      AD05D904 
 300      721A
 301 0093 641B52AE 		.ascii	"d\033R\256\341 #1B\243@n\004\031\013r\023\210\027\244"
 301      E1202331 
 301      42A3406E 
 301      04190B72 
 301      138817A4 
 302 00a7 18E46E90 		.ascii	"\030\344n\220\373@\036\000\361\201\224\201\374\014\004"
 302      FB401E00 
 302      F1819481 
 302      FC0C04
 303 00b6 FED04318 		.ascii	"\376\320C\030\031.\2123\224\2671\002$\037d\010H\025"
 303      192E8A33 
 303      94B73102 
 303      241F6408 
 303      4815
 304 00c8 56DA9E0C 		.ascii	"V\332\236\014\367sp\257\206{\204c<\002J\340u\037\340"
 304      F77370AF 
 304      867B8463 
 304      3C024AE0 
 304      751FE0
 305 00db E928DCC7 		.ascii	"\351(\334\307\231\260)\277\034\316}3o\343\010\310!\244"
 305      99B029BF 
 305      1CCE7D33 
 305      6FE308C8 
 305      21A4
ARM GAS  /tmp/cchWVbPq.s 			page 23


 306 00ed E07423A5 		.ascii	"\340t#\245\356(\316\323\212\037\265\357z\2707a\215_"
 306      EE28CED3 
 306      8A1FB5EF 
 306      7AB83761 
 306      8D5F
 307 00ff 17E79800 		.ascii	"\027\347\230\000\021u\276Q\333\320\363\235\305\355x"
 307      1175BE51 
 307      DBD0F39D 
 307      C5ED78
 308 010e 10EE8F83 		.ascii	"\020\356\217\203\274\011\3513 \2639\336Vn\317/ANBz\017"
 308      BC09E933 
 308      20B339DE 
 308      566ECF2F 
 308      414E427A 
 309 0123 C87ECEAD 		.ascii	"\310~\316\255\027\344\030\310G } \027@\216\203\234\347"
 309      17E418C8 
 309      47207D20 
 309      17408E83 
 309      9CE7
 310 0135 BC6FE4BE 		.ascii	"\274o\344\276\245\034~\010\3679x \177\3327n\316\331"
 310      A51C7E08 
 310      F7397820 
 310      7FDA376E 
 310      CED9
 311 0147 8A27E5D2 		.ascii	"\212'\345\322\012e\256\343\276\332\252k\373<oS\3408"
 311      0A65AEE3 
 311      BEDAAA6B 
 311      FB3C6F53 
 311      E038
 312 0159 23795BE3 		.ascii	"#y[\343x;m\246\266h\014\014\343\355\250\3769b\321\336"
 312      783B6DA6 
 312      B6680C0C 
 312      E3EDA8FE 
 312      3962D1DE 
 313 016d 93DC0FF3 		.ascii	"\223\334\017\36397\332\3367 \237\200|\305\333\244~8"
 313      3937DADE 
 313      37209F80 
 313      7CC5DBA4 
 313      7E38
 314 017f C839F4F2 		.ascii	"\3109\364\362\376\272\211\367\365\355p\377\251\251m"
 314      FEBA89F7 
 314      F5ED70FF 
 314      A9A96D
 315 018e 1A7BB9BA 		.ascii	"\032{\271\272\266\315m\272tv]\340\270\230\327\243\367"
 315      B6CD6DBA 
 315      74765DE0 
 315      B898D7A3 
 315      F7
 316 019f 42135EF1 		.ascii	"B\023^\361 x9&\336*.\346u)\317;\340~\247\011\227\216"
 316      20783926 
 316      DE2A2EE6 
 316      7529CF3B 
 316      E07EA709 
 317 01b5 8D6B386E 		.ascii	"\215k8n\227\316GVm\320\276RcN\365\331!^\266\233\267"
 317      97CE4756 
 317      6DD0BE52 
 317      634EF5D9 
ARM GAS  /tmp/cchWVbPq.s 			page 24


 317      215EB69B 
 318 01ca B755D757 		.ascii	"\267U\327W\252\317\004\336\216j\333\275&\016\367\361"
 318      AACF04DE 
 318      8E6ADBBD 
 318      260EF7F1 
 319 01da BE3EC2DB 		.ascii	"\276>\302\333\243\230OA\336\015\274\234\310\313\334"
 319      A3984F41 
 319      DE0DBC9C 
 319      C8CBDC
 320 01e9 9D65DCBA 		.ascii	"\235e\334\272\321\002B\346\221\316\371\244\374\000p"
 320      D10242E6 
 320      91CEF9A4 
 320      FC0070
 321 01f8 7C184B78 		.ascii	"|\030Kx\204\033yX\"\337\315\334}\013ZOH{\362\255\336"
 321      841B7958 
 321      22DFCDDC 
 321      7D0B5A4F 
 321      487BF2AD 
 322 020d A440489E 		.ascii	"\244@H\236\204\327b7P\203\001q\033\332L\340\011!\275"
 322      84D76237 
 322      50830171 
 322      1BDA4CE0 
 322      0921BD
 323 0220 0F98501D 		.ascii	"\017\230P\035B\257Z\370\306=\014z\003\203\376\255\200"
 323      42AF5AF8 
 323      C63D0C7A 
 323      0383FEAD 
 323      80
 324 0231 9184D7E3 		.ascii	"\221\204\327\343\3338\220\204\207\270\365\300\354\267"
 324      DB389084 
 324      87B8F5C0 
 324      ECB7
 325 023f 5A80A2B1 		.ascii	"Z\200\242\261\307<A'\300k\220\323\342\303\320B\215\353"
 325      C73C4127 
 325      C06B90D3 
 325      E2C3D042 
 325      8DEB
 326 0251 48B408EC 		.ascii	"H\264\010\354\"\036\035k\202U\332\005\032\3553\213w"
 326      221E1D6B 
 326      8255DA05 
 326      1AED338B 
 326      77
 327 0262 DFCB686F 		.ascii	"\337\313ho\306#\201\366\253&\332\203\302H\370\317X\000"
 327      C62381F6 
 327      AB26DA83 
 327      C248F8CF 
 327      5800
 328 0274 BD05AA2B 		.ascii	"\275\005\252+\025\0310Iv\234\350\177\012\317%\004+\317"
 328      15193049 
 328      769CE87F 
 328      0ACF2504 
 328      2BCF
 329 0286 9001D670 		.ascii	"\220\001\326p\215C\235\300;q\271g\365\015$\231\300C"
 329      8D439DC0 
 329      3B71B967 
 329      F50D2499 
 329      C043
ARM GAS  /tmp/cchWVbPq.s 			page 25


 330 0298 D07C6A46 		.ascii	"\320|jF\362\311y\243\227i\255\346\251\215b\035\367\243"
 330      F2C979A3 
 330      9769ADE6 
 330      A98D621D 
 330      F7A3
 331 02aa AF8A8CFB 		.ascii	"\257\212\214\3736\250$\240/M\334m\000QV]PY\317<ql\216"
 331      36A824A0 
 331      2F4DDC6D 
 331      0051565D 
 331      5059CF3C 
 332 02c1 47C9CDC2 		.ascii	"G\311\315\302Y\244\201-\240\224\2408\303\345\326\362"
 332      59A4812D 
 332      A094A038 
 332      C3E5D6F2 
 333 02d1 168AE93C 		.ascii	"\026\212\351<\254+\332\241e\013\272\354UZ\266\250\313"
 333      AC2BDAA1 
 333      650BBAEC 
 333      555AB6A8 
 333      CB
 334 02e2 DEA265BB 		.ascii	"\336\242e\273x\223\364'vk\211\2241^\365\206Hx\007\276"
 334      7893F427 
 334      766B8994 
 334      315EF586 
 334      487807BE 
 335 02f6 05F44E2C 		.ascii	"\005\364N,ZV\023\320.\021\363N\263r\013Oj\355\216H\307"
 335      5A5613D0 
 335      2E11F34E 
 335      B3720B4F 
 335      6AED8E48 
 336 030b AED259D0 		.ascii	"\256\322Y\320\273\373F\357\356\"\344\351\\\253\250\203"
 336      BBFB46EF 
 336      EE22E4E9 
 336      5CABA883 
 337 031b 227890C0 		.ascii	"\"x\220\300K\234\354\301\036\033\321\265\027\014\031"
 337      4B9CECC1 
 337      1E1BD1B5 
 337      170C19
 338 032a B4182DB8 		.ascii	"\264\030-\270\317\024\200\211\257\316\346\023\227\222"
 338      CF148089 
 338      AFCEE613 
 338      9792
 339 0338 3F78F02D 		.ascii	"?x\360-\352Y=\206t\356\305\266\307{b\317\352\353)\374"
 339      EA593D86 
 339      74EEC5B6 
 339      C77B62CF 
 339      EAEB29FC 
 340 034c DFD868DF 		.ascii	"\337\330h\337-\232G\373Z\354x\270\013\350\000\203\331"
 340      2D9A47FB 
 340      5AEC78B8 
 340      0BE80083 
 340      D9
 341 035d A7F58AA1 		.ascii	"\247\365\212\241\341A{%\261\206[a\350\223Q\3509\326"
 341      E1417B25 
 341      B1865B61 
 341      E89351E8 
 341      39D6
 342 036f 27301870 		.ascii	"'0\030p\\\302\367_o\011N)\036\302\243\264\340\246\031"
ARM GAS  /tmp/cchWVbPq.s 			page 26


 342      5CC2F75F 
 342      6F094E29 
 342      1EC2A3B4 
 342      E0A619
 343 0382 9B0049C2 		.ascii	"\233\000I\302\323\305\264\031Y\346\2773G\337\232\213"
 343      D3C5B419 
 343      59E6BF33 
 343      47DF9A8B 
 344 0392 E7B1F1FE 		.ascii	"\347\261\361\376\017\250&\240\243&\237\030H)\215e\""
 344      0FA826A0 
 344      A3269F18 
 344      48298D65 
 344      22
 345 03a3 7284B56B 		.ascii	"r\204\265k\325c\003\236\011(\351\330i\036S(\177\372"
 345      D563039E 
 345      0928E9D8 
 345      691E5328 
 345      7FFA
 346 03b5 3EEE6825 		.ascii	">\356h%\007&\252\257\205\363v\020\3632w\303\211\236"
 346      0726AAAF 
 346      85F37610 
 346      F33277C3 
 346      899E
 347 03c7 FC764905 		.ascii	"\374vI\005\373\3041\230g\200\315\312\230~\213\215\351"
 347      FBC43198 
 347      6780CDCA 
 347      987E8B8D 
 347      E9
 348 03d8 FD781CE8 		.ascii	"\375x\034\350\203L\037c\3728\350\364%\240\317\007\304"
 348      834C1F63 
 348      FA38E8F4 
 348      25A0CF07 
 348      C4
 349 03e9 A2320474 		.ascii	"\2422\004tx\332XA\203#f\352\244\004\036\2465\332o\236"
 349      78DA5841 
 349      832366EA 
 349      A4041EA6 
 349      35DA6F9E 
 350 03fd 4F9C7542 		.ascii	"O\234uB\242\253\367\000&\213\363U\247\265\272l\300e"
 350      A2ABF700 
 350      268BF355 
 350      A7B5BA6C 
 350      C065
 351 040f E981D77B 		.ascii	"\351\201\327{/\212\313I\242M\034\364\235\230\253\242"
 351      2F8ACB49 
 351      A24D1CF4 
 351      9D98ABA2 
 352 041f 3D82D2A1 		.ascii	"=\202\322\241\274\243\367b\244\225E\362\031\366R\334"
 352      BCA3F762 
 352      A49545F2 
 352      19F652DC 
 353 042f ED1AFCA5 		.ascii	"\355\032\374\245h\300\241\356I\232\347\243\216n6\037"
 353      68C0A1EE 
 353      499AE7A3 
 353      8E6E361F 
 354 043f 25079F8F 		.ascii	"%\007\237\217\332Z\023\317u\257\324\346\243\326\254"
 354      DA5A13CF 
ARM GAS  /tmp/cchWVbPq.s 			page 27


 354      75AFD4E6 
 354      A3D6AC
 355 044e F39184FF 		.ascii	"\363\221\204\377\300\002\303\316\004\3636\263$yu\023"
 355      C002C3CE 
 355      04F336B3 
 355      24797513 
 356 045e 0CD05ADA 		.ascii	"\014\320Z\332\315\"\373\034\353\244w\034\203y\014`\313"
 356      CD22FB1C 
 356      EBA4771C 
 356      83790C60 
 356      CB
 357 046f F46047ED 		.ascii	"\364`G\355\200e\352q\000[\241\007{\3371\230\221\331"
 357      8065EA71 
 357      005BA107 
 357      7BDF3198 
 357      91D9
 358 0481 4A3DD869 		.ascii	"J=\330i;`\005\231\231\255\326\203\3658\00632\333\256"
 358      3B600599 
 358      99ADD683 
 358      F5380633 
 358      32DBAE
 359 0494 073B6707 		.ascii	"\007;g\007ltff]z\260\363\216\301\214\314v\352\301>\263"
 359      6C746666 
 359      5D7AB0F3 
 359      8EC18CCC 
 359      76EAC13E 
 360 04a9 03E6C9CC 		.ascii	"\003\346\311\314\354\025=\330\227\216\301\214\314v\351"
 360      EC153DD8 
 360      978EC18C 
 360      CC76E9
 361 04b8 C12ED901 		.ascii	"\301.\331\001\27353\263\277\350\301\372\035\203\031"
 361      BB3533B3 
 361      BFE8C1FA 
 361      1D8319
 362 04c7 99BDA107 		.ascii	"\231\275\241\007#96\300&fb67\261\373W\355\322\265\250"
 362      233936C0 
 362      26666236 
 362      37B1FB57 
 362      EDD2B5A8 
 363 04db 9DCF4C0A 		.ascii	"\235\317L\012j\206\325\222\276\330\332\314\305$\234"
 363      6A86D592 
 363      BED8DACC 
 363      C5249C
 364 04ea C2D7B214 		.ascii	"\302\327\262\024\233\206H\372\335\235\357\266\344Hk"
 364      9B8648FA 
 364      DD9DEFB6 
 364      E4486B
 365 04f9 10C19DA6 		.ascii	"\020\301\235\246\230\357\326\022\332\032B_\012\314n"
 365      98EFD612 
 365      DA1A425F 
 365      0ACC6E
 366 0508 339B6D64 		.ascii	"3\233mdae\267\321\211\207\365N\\`\307\211\2233\203\035"
 366      6165B7D1 
 366      8987F54E 
 366      5C60C789 
 366      9333831D 
 367 051c D5833D63 		.ascii	"\325\203=c\007\254<s\254\274\247\007[\344\030\314\310"
ARM GAS  /tmp/cchWVbPq.s 			page 28


 367      07AC3C73 
 367      ACBCA707 
 367      5BE418CC 
 367      C8
 368 052d EC841E6C 		.ascii	"\354\204\036l\251\035\260i\231\231}\240\007[\356\030"
 368      A91DB069 
 368      99997DA0 
 368      075BEE18 
 369 053d 4CCF6C6E 		.ascii	"L\317ln\342\224\026x\235\223M\2217\3318\333\032\212"
 369      E2941678 
 369      9D934D91 
 369      37D938DB 
 369      1A8A
 370 054f ADCD584C 		.ascii	"\255\315XL\302\277\027\234\006\336\263\031\002O\277"
 370      C2BF179C 
 370      06DEB319 
 370      024FBF
 371 055e 4BD24A81 		.ascii	"K\322J\201\331k\314f\033H\360\344\303\026>\264\272\364"
 371      D96BCC66 
 371      1B48F0E4 
 371      C3163EB4 
 371      BAF4
 372 0570 EF7B097F 		.ascii	"\357{\011\177\310^\310\275l-\365\021\323\377f\372<\323"
 372      C85EC8BD 
 372      6C2DF511 
 372      D3FF66FA 
 372      3CD3
 373 0582 1798FE84 		.ascii	"\027\230\376\204\351\317\230\376\037\323_0\375\025\323"
 373      E9CF98FE 
 373      1FD35F30 
 373      FD15D3
 374 0591 7D4C7FC3 		.ascii	"}L\177\303\364e\246\2570=O\240\272\215\351\371L/`z!"
 374      F465A6AF 
 374      303D4FA0 
 374      BA8DE9F9 
 374      4C2F607A 
 375 05a6 D3BF136C 		.ascii	"\323\277\023l\254\333N\353\327m\353s\234.\264<\331\234"
 375      ACDB4EEB 
 375      D76DEB73 
 375      9C2EB43C 
 375      D99C
 376 05b8 B045E784 		.ascii	"\260E\347\204\027\231\023\2662\332{\230>\311t\267\235"
 376      179913B6 
 376      32DA7B98 
 376      3EC974B7 
 376      9D
 377 05c9 C5E5268D 		.ascii	"\305\345&\215\344X\264\232$\222\311\227.\\\332\212?"
 377      E458B49A 
 377      2492C997 
 377      2E5CDA8A 
 377      3F
 378 05da ECEA244F 		.ascii	"\354\352$O\223\357RO`\373\273\232\016a\024O\251\033"
 378      93EF524F 
 378      60FBBB9A 
 378      0E61144F 
 378      A91B
 379 05ec 190175E7 		.ascii	"\031\001u\347\030Wt\010\375\030m`\307@\233\210\310\320"
ARM GAS  /tmp/cchWVbPq.s 			page 29


 379      18577408 
 379      FD186D60 
 379      C7409B88 
 379      C8D0
 380 05fe 68F9C5C2 		.ascii	"h\371\305\302X\243yK\004A\237A\231u&\023\247O\345\267"
 380      58A3794B 
 380      04419F41 
 380      99752613 
 380      A74FE5B7 
 381 0612 CF4DA652 		.ascii	"\317M\246Rc\355sz\336\202\323g\326\234\210\221\323R"
 381      63ED737A 
 381      DE82D367 
 381      D69C8891 
 381      D352
 382 0624 33A76596 		.ascii	"3\247e\226\234\266\367pN\312F\013^U&\364\233\321:B\026"
 382      9CB6F770 
 382      4ECA460B 
 382      5E5526F4 
 382      9BD13A42 
 383 0639 93545DB9 		.ascii	"\223T]\271\342l\001-\314\245%V\000\276\365*\223w\011"
 383      E26C012D 
 383      CCA52556 
 383      00BEF52A 
 383      937709
 384 064c 27F50C79 		.ascii	"'\365\014y\262\000\247Y\2550\263z\301\222\325\331\013"
 384      B200A759 
 384      AD30B37A 
 384      C192D5D9 
 384      0B
 385 065d 74954FFA 		.ascii	"t\225O\372S\251\326<\2442{6\327\222\331\025\225\231"
 385      53A9D63C 
 385      A4327B36 
 385      D792D915 
 385      9599
 386 066f 845709F4 		.ascii	"\204W\011\364\204i\315U1[cf\326i\311\354\203/Tf\"\262"
 386      8469CD55 
 386      315B6366 
 386      D669C9EC 
 386      832F5466 
 387 0685 DF8DEB05 		.ascii	"\337\215\353\005\213\0153\377a\377\344\260c\351\211"
 387      8B0D33FF 
 387      61FFE4B0 
 387      63E989
 388 0694 8D7CE7BC 		.ascii	"\215|\347\274Q\240\023\362J\223G\256\3524\301\020],"
 388      51A013F2 
 388      4A9347AE 
 388      EA34C110 
 388      5D2C
 389 06a6 C036583A 		.ascii	"\3006X:\032\006V\362\035|d\363|\322\216\215\016_\227"
 389      1A0656F2 
 389      1D7C64F3 
 389      7CD28E8D 
 389      0E5F97
 390 06b9 DDE1BC9F 		.ascii	"\335\341\274\237N\312\345*\357\327X\003\231\253mT&_"
 390      4ECAE52A 
 390      EFD75803 
 390      99AB6D54 
ARM GAS  /tmp/cchWVbPq.s 			page 30


 390      265F
 391 06cb CB7E5A67 		.ascii	"\313~Zg\356\247?\015\354\247\344\305\304\316\257-\""
 391      EEA73F0D 
 391      ECA7E4C5 
 391      C4CEAF2D 
 391      22
 392 06dc 68AF7504 		.ascii	"h\257u\004-\227M\021\264\355\252\"h\233\231\331v\313"
 392      2D974D11 
 392      B4EDAA22 
 392      689B99D9 
 392      76CB
 393 06ee 08EAFF5A 		.ascii	"\010\352\377Z\213 %2\004t\334\232\330*3\261\035\266"
 393      8B202532 
 393      0474DC9A 
 393      D82A33B1 
 393      1DB6
 394 0700 3CDDAD7A 		.ascii	"<\335\255z\032\346\326A\252e\363\364\016\263=;-=\275"
 394      1AE6D641 
 394      AA65F3F4 
 394      0EB33D3B 
 394      2D3DBD
 395 0713 BB4F6F8F 		.ascii	"\273Oo\217\342\350\217\255\355\331a\266g\327U9z\227"
 395      E2E88FAD 
 395      EDD961B6 
 395      67D75539 
 395      7A97
 396 0725 99D86B96 		.ascii	"\231\330k\226\216\356{[O\354y\346\350yC\354\314\235"
 396      8EEE7B5B 
 396      4FEC79E6 
 396      E87943EC 
 396      CC9D
 397 0737 6F981BF8 		.ascii	"o\230\033\370\253\205\345\355\311W\277\2754fY\027is"
 397      AB85E5ED 
 397      C957BFBD 
 397      34665917 
 397      6973
 398 0749 FAA24998 		.ascii	"\372\242I\230g\003:jMc\360\265\001D\225\242{-\231\234"
 398      67033A6A 
 398      4D63F0B5 
 398      014495A2 
 398      7B2D999C 
 399 075d 5E7C052F 		.ascii	"^|\005/'{\333H*\365D\272\023\016f\200\330g\011\361\312"
 399      277BDB48 
 399      2AF544BA 
 399      130E6680 
 399      D86709F1 
 400 0772 B717C7A4 		.ascii	"\267\027\307\244!\354\333\262\337\312\026\303\0174`"
 400      21ECDBB2 
 400      DFCA16C3 
 400      0F3460
 401 0781 7E399981 		.ascii	"~9\231\201\330\337-\211\355L]\372\265\3166\245\037\227"
 401      D8DF2D89 
 401      ED4C5DFA 
 401      B5CE36A5 
 401      1F97
 402 0793 E659431C 		.ascii	"\346YC\0344B\374\010\255%\311\3030s\035~\031/\"\344"
 402      3442FC08 
ARM GAS  /tmp/cchWVbPq.s 			page 31


 402      AD25C9C3 
 402      30731D7E 
 402      192F22E4 
 403 07a7 00218954 		.ascii	"\000!\211T\012\217U?blN\243d\334\330\034\322\000M\347"
 403      0A8F553F 
 403      626C4EA3 
 403      64DCD81C 
 403      D2004DE7 
 404 07bb 92B41733 		.ascii	"\222\264\0273y\345\035!\275*\2618\003\352\024\325\362"
 404      79E51D21 
 404      BD2AB138 
 404      03EA14D5 
 404      F2
 405 07cc 93507A72 		.ascii	"\223Pzr"
 406 07d0 DFB3EEC8 		.ascii	"\337\263\356\310\323\370%B\012$\374\256@\311\2353\231"
 406      D3F82542 
 406      0A24FCAE 
 406      40C99D33 
 406      99
 407 07e1 3828106D 		.ascii	"8(\020m\370\250`:L\352\353a\207I4\177\360\303\244\313"
 407      F8A8603A 
 407      4CEAEB61 
 407      8749347F 
 407      F0C3A4CB 
 408 07f5 3D4BD861 		.ascii	"=K\330aRzw\316(\320\272Y\026}\312e\271{\350\357\321"
 408      527A77CE 
 408      28D0BA59 
 408      167DCA65 
 408      B97BE8EF 
 409 080a ED1E3E77 		.ascii	"\355\036>w\014\3461\200}\247\007\353\263\003\226\345"
 409      0CE63180 
 409      7DA707EB 
 409      B30396E5 
 410 081a 14A85D3D 		.ascii	"\024\250]=FT\340.;\2063r[l\204ks\333\200\313r\022\264"
 410      4654E02E 
 410      3B863372 
 410      5B6C846B 
 410      73DB80CB 
 411 0831 C408F78C 		.ascii	"\304\010\367\214c8#\273\245F\270%v\340\262\234\006-"
 411      633823BB 
 411      A546B825 
 411      76E0B29C 
 411      062D
 412 0843 33C2AD74 		.ascii	"3\302\255t\014gd\267\302\010\267\336\016\234'3\273\225"
 412      0C6764B7 
 412      C208B7DE 
 412      0E9C2733 
 412      BB95
 413 0855 46B8CD8E 		.ascii	"F\270\315\216\341\214\354V\033\341^\264\003\227\345"
 413      E18CEC56 
 413      1BE15EB4 
 413      0397E5
 414 0864 5468BB11 		.ascii	"Th\273\021\356e\307pFv]F\270\327\355\300Y\235\014Y]"
 414      EE65C770 
 414      46765D46 
 414      B8D7EDC0 
 414      599D0C59 
ARM GAS  /tmp/cchWVbPq.s 			page 32


 415 0879 FAC944C2 		.ascii	"\372\311D\302\307\004\272I{\217\355\036O0\375\001\323"
 415      C704BA49 
 415      7B8FED1E 
 415      4F30FD01 
 415      D3
 416 088a A7983ECD 		.ascii	"\247\230>\315\364Y\246\223L\3672\375O\246\377\305\364"
 416      F459A693 
 416      4CF732FD 
 416      4FA6FFC5 
 416      F4
 417 089b 7F98FE98 		.ascii	"\177\230\376\230\351\377\352\367\237\246y\365\335\014"
 417      E9FFEAF7 
 417      9FA679F5 
 417      DD0C
 418 08a9 F429A34F 		.ascii	"\364)\243O\265y\365'\350\217\364\3531\354\366\316\342"
 418      B579F527 
 418      E88FF4EB 
 418      31ECF6CE 
 418      E2
 419 08ba 455D9D05 		.ascii	"E]\235\005\206\255\240r\361\2255\231On\335\244M\232"
 419      86ADA072 
 419      F1953599 
 419      4F6EDDA4 
 419      4D9A
 420 08cc 052A289D 		.ascii	"\005*(\235\330\325\317\375/\214\242\263\344E\266:}\323"
 420      D8D5CFFD 
 420      2F8CA2B3 
 420      E445B63A 
 420      7DD3
 421 08de 6D9C78ED 		.ascii	"m\234x\355\303\254Z\270Q\371\264\377\005\003z\333\004"
 421      C3AC5AB8 
 421      51F9B4FF 
 421      05037ADB 
 421      04
 422 08ef 2461D1B4 		.ascii	"$a\321\264:\027\215\253s\321\255%\350\252\305Ya\223"
 422      3A178DAB 
 422      73D1AD25 
 422      E8AAC559 
 422      6193
 423 0901 1FF76779 		.ascii	"\037\367gy?}\255\3711\275\375Hd\371pp\300\346\207\003"
 423      3F7DADF9 
 423      31BDFD48 
 423      64F97070 
 423      C0E68703 
 424 0915 5B6076BF 		.ascii	"[`v\277B\320\227\367a\372\362Nn\301/\315\353$\255\011"
 424      42D097F7 
 424      61FAF24E 
 424      6EC12FCD 
 424      EB24AD09 
 425 0929 72298553 		.ascii	"r)\205S\242z(\271l\004o.\271!\221\375?\000\350~]H\027"
 425      A27A28B9 
 425      6C046F2E 
 425      B92191FD 
 425      3F00E87E 
 426 0940 26A3475B 		.ascii	"&\243G[\227\225p?\213\362+\272\023\"%\255\246\224o\342"
 426      9795703F 
 426      8BF22BBA 
ARM GAS  /tmp/cchWVbPq.s 			page 33


 426      132225AD 
 426      A6946FE2 
 427 0954 C7DD56FF 		.ascii	"\307\335V\377\001\302\000\262W\345\2156\251\215\216"
 427      01C200B2 
 427      57E58D36 
 427      A98D8E
 428 0963 6065357B 		.ascii	"`e5{\224\222\326\245$\234r|\324ED\353\243\256\341\006"
 428      9492D6A5 
 428      249C727C 
 428      D44544EB 
 428      A3AEE106 
 429 0977 CE6A29B0 		.ascii	"\316j)\260\354\224\333\264\2657\221\200U\211[\375w\210"
 429      EC94DBB4 
 429      B5379180 
 429      55895BFD 
 429      7788
 430 0989 A17840C8 		.ascii	"\241x@\310ud\011\271V\3214t\023=}\013\306,pY\214\333"
 430      756409B9 
 430      56D13474 
 430      133D7D0B 
 430      C62C7059 
 431 099f 346AC2E9 		.ascii	"4j\302\351\007`\2335a\222a1\230\251\266b\315\363Y\254"
 431      07609B35 
 431      61926131 
 431      98A9B662 
 431      CDF359AC 
 432 09b3 794AB306 		.ascii	"yJ\263\0065{#\365L\356\3606D\033eoLn\226\245X\260\301"
 432      357B23F5 
 432      4CEEF036 
 432      441B656F 
 432      4C6E96A5 
 433 09ca DB20C5EA 		.ascii	"\333 \305\352\036\227b\262W\2125\026yg\006\203\343!"
 433      1E9762B2 
 433      578A3516 
 433      79670683 
 433      E321
 434 09dc 315E6E9C 		.ascii	"1^n\234!\327\325\311u\351\214H4\"\217\227\245\031\241"
 434      21D7D5C9 
 434      75E98C48 
 434      34228F97 
 434      A519A1
 435 09ef F1930277 		.ascii	"\361\223\002w\217/\232X8\351\261\"\257\341\2017\024"
 435      8F2F9A58 
 435      38E9B122 
 435      AFE18137 
 435      14
 436 0a00 09865BEA 		.ascii	"\011\206[\352dos\274.\024\211Oh@y-p/.\012\304s\247V"
 436      646F73BC 
 436      2E14894F 
 436      6840792D 
 436      702F2E0A 
 437 0a18 4DF7F850 		.ascii	"M\367\370P+\376\376H4J\301\206PD\366\006\352\344z\251"
 437      2BFEFE48 
 437      344AC186 
 437      5044F606 
 437      EAE47AA9 
 438 0a2c 251C0FC4 		.ascii	"%\034\017\304\3474\311\315@jh \240\322\362L\230\340"
ARM GAS  /tmp/cchWVbPq.s 			page 34


 438      E734C9CD 
 438      406A6820 
 438      A0D2F24C 
 438      98E0
 439 0a3e F5358466 		.ascii	"\3655\204f\204\252k\274\321f \021NW\237\331D\015pO\235"
 439      84AA6BBC 
 439      D1662011 
 439      4E579FD9 
 439      440D704F 
 440 0a53 565B1A0B 		.ascii	"V[\032\013\315\222cE\003\2136Ec\361foMmeq\221\367\241"
 440      CD926345 
 440      038B3645 
 440      63F1666F 
 440      4D6D6571 
 441 0a6a 874ABDB5 		.ascii	"\207J\275\265\025\225\263\012i\305@8\\G\033\202ds\\"
 441      1595B30A 
 441      69C54038 
 441      5C471B82 
 441      64735C
 442 0a7d 8ACB81F8 		.ascii	"\212\313\201\370P\300\011L\257\252\250\252\250\315\243"
 442      50C0094C 
 442      AFAAA8AA 
 442      A8CDA3
 443 0a8c C99ADAEA 		.ascii	"\311\232\332\352i\024;\340/+)\375\305\010\232\362UW"
 443      69143BE0 
 443      2F2B29FD 
 443      C5089AF2 
 443      5557
 444 0a9e D556544D 		.ascii	"\325VTM\257\236^3\214\376\254\256*\253)\257\256\315"
 444      AF9E5E33 
 444      8CFEACAE 
 444      2AAB29AF 
 444      AECD
 445 0ab0 61006E40 		.ascii	"a\000n@\252\217\311\217\005\342nzk\221#\3019\303!/("
 445      AA8FC98F 
 445      05E26E7A 
 445      6B9123C1 
 445      39C3212F 
 446 0ac5 85C333A4 		.ascii	"\205\3033\244\340\243\201x\236\232\024\203\261\"W]H"
 446      E0A38178 
 446      9E9A1483 
 446      B122575D 
 446      48
 447 0ad6 8E51785F 		.ascii	"\216Qx_4R\037\232\231\033d\267\234`8\032|t\222];\232"
 447      34521F9A 
 447      991B64B7 
 447      9C60381A 
 447      7C74925D 
 448 0aec E38DD445 		.ascii	"\343\215\324E\241F\260dX\372G .\372\374\205 E\256\232"
 448      A146B064 
 448      58FA4720 
 448      2EFAFC85 
 448      2045AE9A 
 449 0b00 4A9FDF55 		.ascii	"J\237\337UZQ\346\027j\374b\331T\177\216\317W\351/d\272"
 449      5A51E617 
 449      6AFC62D9 
 449      547F8ECF 
ARM GAS  /tmp/cchWVbPq.s 			page 35


 449      57E92F64 
 450 0b15 C8E5F395 		.ascii	"\310\345\363\225\371E_U\2558\255\306'\226\370\375\242"
 450      F9455F55 
 450      AD38ADC6 
 450      2796F8FD 
 450      A2
 451 0b26 DF07BFA1 		.ascii	"\337\007\277\241\302\224\322Z\277XJkV\226\370\205j\245"
 451      C294D25A 
 451      BF584A6B 
 451      5696F885 
 451      6AA5
 452 0b38 5631947F 		.ascii	"V1\224\177\330/\002\276c7\007\321u<\031h\216G\233&4"
 452      D82F02BE 
 452      633707D1 
 452      753C1968 
 452      8E479B26 
 453 0b4d 49B1F884 		.ascii	"I\261\370\204\211\371j^(\022\212\017\327\012\300C\027"
 453      89F96A5E 
 453      28128A0F 
 453      D70AC043 
 453      17
 454 0b5e FC6ACAD7 		.ascii	"\374j\312\327\327\311\243\236\214@\200\\g(H\315\225"
 454      D7C9A39E 
 454      8C40805C 
 454      672848CD 
 454      95
 455 0b6f 6379102A 		.ascii	"cy\020*rl\226\024\036\251\257\242<\373\201\232\325\024"
 455      726C9614 
 455      1EA9AFA2 
 455      3CFB819A 
 455      D514
 456 0b81 0D87E53A 		.ascii	"\015\207\345:\210\264\2604\347\206t9\250&\007X\365X"
 456      88B4B034 
 456      E7867439 
 456      A8260758 
 456      F558
 457 0b93 4B533CEF 		.ascii	"KS<\357\347r0\036\215\225L\032\237\311\304`\264\261"
 457      E772301E 
 457      8D954C1A 
 457      9FC9C460 
 457      B4B1
 458 0ba5 311AF196 		.ascii	"1\032\361\226\370+}\225\263\275\221Y\241 \270\376Zz"
 458      F82B7D95 
 458      B3BD9159 
 458      A120B8FE 
 458      5A7A
 459 0bb7 2F0D354B 		.ascii	"/\0155K3\302\262\202@\315\251\236\361\033HW\200q\005"
 459      33C2B282 
 459      40CDA99E 
 459      F11B4857 
 459      807105
 460 0bca F4795944 		.ascii	"\364yYD{|\273\021>\026\347\350\0346\330\020\214\306"
 460      7B7CBB11 
 460      3E16E7E8 
 460      1C36D810 
 460      8CC6
 461 0bdc E4C0ACBB 		.ascii	"\344\300\254\273h\277\216\014\320g\201P\354\261\200"
ARM GAS  /tmp/cchWVbPq.s 			page 36


 461      68BF8E0C 
 461      D0678150 
 461      ECB180
 462 0beb DC140A47 		.ascii	"\334\024\012Gg\266\31094\342\013\213\215 \362\354\270"
 462      67B6C839 
 462      34E20B8B 
 462      8D20F2EC 
 462      B8
 463 0bfc D7575953 		.ascii	"\327WYSQ\003\335\240\364\304\203\305\263g+!R_<\261x"
 463      5103DDA0 
 463      F4C483C5 
 463      B3672B21 
 463      525F3CB1 
 464 0c11 36653ACC 		.ascii	"6e:\314\357\363\005ja\220\225\312\365\002t\260\357\301"
 464      EFF3056A 
 464      619095CA 
 464      F50274B0 
 464      EFC1
 465 0c23 A9D0E515 		.ascii	"\251\320\345\025\376\274\222iS\212\3745\265,QH\023\271"
 465      FEBC9269 
 465      538AFC35 
 465      B52C5148 
 465      13B9
 466 0c35 25E553CA 		.ascii	"%\345S\312\252\374C\350\003~/\204;\304\006\015\222\032"
 466      AAFC43E8 
 466      037E2F84 
 466      3BC4060D 
 466      921A
 467 0c47 C8289F42 		.ascii	"\310(\237B\313\345P\210\"\246\213\331TRx'\014%e\370"
 467      CBE55088 
 467      22A68BD9 
 467      54527827 
 467      0C2565F8 
 468 0c5b D2A42B08 		.ascii	"\322\244+\010\323F^ P\337\022\011\006\002\303\325\304"
 468      D3465E20 
 468      50DF1209 
 468      0602C3D5 
 468      C4
 469 0c6c 84BB26DE 		.ascii	"\204\273&\336s\317\377\001\017\254\237\331"
 469      73CFFF01 
 469      0FAC9FD9 
 470              		.text
 471              		.section	.gnu.lto_.symtab.9983f1ad0ac75942,"",%progbits
 472 0000 6770745F 		.ascii	"gpt_lld_init\000\000\000\000\000\000\000\000\000\000"
 472      6C6C645F 
 472      696E6974 
 472      00000000 
 472      00000000 
 473 0016 00001601 		.ascii	"\000\000\026\001\000\000GPTD1\000\000\000\000\000\000"
 473      00004750 
 473      54443100 
 473      00000000 
 473      00
 474 0027 00000000 		.ascii	"\000\000\000\000\000\000L\001\000\000gpt_lld_start\000"
 474      00004C01 
 474      00006770 
 474      745F6C6C 
ARM GAS  /tmp/cchWVbPq.s 			page 37


 474      645F7374 
 475 003f 00000000 		.ascii	"\000\000\000\000\000\000\000\000\000\000\000\032\001"
 475      00000000 
 475      0000001A 
 475      01
 476 004c 00006770 		.ascii	"\000\000gpt_lld_stop\000\000\000\000\000\000\000\000"
 476      745F6C6C 
 476      645F7374 
 476      6F700000 
 476      00000000 
 477 0062 00000000 		.ascii	"\000\000\000\000\037\001\000\000gpt_lld_start_timer"
 477      1F010000 
 477      6770745F 
 477      6C6C645F 
 477      73746172 
 478 007d 00000000 		.ascii	"\000\000\000\000\000\000\000\000\000\000\000\000#\001"
 478      00000000 
 478      00000000 
 478      2301
 479 008b 00006770 		.ascii	"\000\000gpt_lld_stop_timer\000\000\000\000\000\000\000"
 479      745F6C6C 
 479      645F7374 
 479      6F705F74 
 479      696D6572 
 480 00a6 00000000 		.ascii	"\000\000\000\000\000/\001\000\000gpt_lld_polled_del"
 480      002F0100 
 480      00677074 
 480      5F6C6C64 
 480      5F706F6C 
 481 00c1 61790000 		.ascii	"ay\000\000\000\000\000\000\000\000\000\000\000\0003"
 481      00000000 
 481      00000000 
 481      000033
 482 00d0 01000067 		.ascii	"\001\000\000gpt_lld_serve_interrupt\000\000\000\000"
 482      70745F6C 
 482      6C645F73 
 482      65727665 
 482      5F696E74 
 483 00ee 00000000 		.ascii	"\000\000\000\000\000\000\000\0008\001\000\000Vector"
 483      00000000 
 483      38010000 
 483      56656374 
 483      6F72
 484 0100 41340000 		.ascii	"A4\000\000\000\000\000\000\000\000\000\000\000\000<"
 484      00000000 
 484      00000000 
 484      00003C
 485 010f 0100006E 		.ascii	"\001\000\000nvicDisableVector\000\000\002\000\000\000"
 485      76696344 
 485      69736162 
 485      6C655665 
 485      63746F72 
 486 0129 00000000 		.ascii	"\000\000\000\000\000\000?\001\000\000gptObjectInit\000"
 486      00003F01 
 486      00006770 
 486      744F626A 
 486      65637449 
ARM GAS  /tmp/cchWVbPq.s 			page 38


 487 0141 00020000 		.ascii	"\000\002\000\000\000\000\000\000\000\000\000C\001\000"
 487      00000000 
 487      00000043 
 487      0100
 488 014f 006E7669 		.ascii	"\000nvicEnableVector\000\000\002\000\000\000\000\000"
 488      63456E61 
 488      626C6556 
 488      6563746F 
 488      72000002 
 489 0168 00000000 		.ascii	"\000\000\000\000E\001\000\000_port_irq_epilogue\000"
 489      45010000 
 489      5F706F72 
 489      745F6972 
 489      715F6570 
 490 0183 00020000 		.ascii	"\000\002\000\000\000\000\000\000\000\000\000J\001\000"
 490      00000000 
 490      0000004A 
 490      0100
 491 0191 00       		.ascii	"\000"
 492              		.text
 493              		.section	.gnu.lto_.opts,"",%progbits
 494 0000 272D6D63 		.ascii	"'-mcpu=cortex-m4' '-mno-thumb-interwork' '-mthumb' "
 494      70753D63 
 494      6F727465 
 494      782D6D34 
 494      2720272D 
 495 0033 272D6767 		.ascii	"'-ggdb' '-O2' '-fomit-frame-pointer' '-falign-funct"
 495      64622720 
 495      272D4F32 
 495      2720272D 
 495      666F6D69 
 496 0066 696F6E73 		.ascii	"ions=16' '-ffunction-sections' '-fdata-sections' '-"
 496      3D313627 
 496      20272D66 
 496      66756E63 
 496      74696F6E 
 497 0099 666E6F2D 		.ascii	"fno-common' '-flto'\000"
 497      636F6D6D 
 497      6F6E2720 
 497      272D666C 
 497      746F2700 
 498              		.text
 499              		.cfi_sections	.debug_frame
 500              		.section	.text.gpt_lld_init,"ax",%progbits
 501              		.align	2
 502              		.p2align 4,,15
 503              		.global	gpt_lld_init
 504              		.thumb
 505              		.thumb_func
 506              		.type	gpt_lld_init, %function
 507              	gpt_lld_init:
 508              	.LFB273:
 509              		.file 1 "../ChibiOS/os/hal/ports/STM32/LLD/TIMv1/gpt_lld.c"
 510              		.loc 1 406 0
 511              		.cfi_startproc
 512              		@ args = 0, pretend = 0, frame = 0
 513              		@ frame_needed = 0, uses_anonymous_args = 0
ARM GAS  /tmp/cchWVbPq.s 			page 39


 514              		@ link register save eliminated.
 515              		.loc 1 410 0
 516 0000 0248     		ldr	r0, .L2
 517 0002 034B     		ldr	r3, .L2+4
 518 0004 C360     		str	r3, [r0, #12]
 519              		.loc 1 411 0
 520 0006 FFF7FEBF 		b	gptObjectInit
 521              	.LVL0:
 522              	.L3:
 523 000a 00BF     		.align	2
 524              	.L2:
 525 000c 00000000 		.word	.LANCHOR0
 526 0010 002C0140 		.word	1073818624
 527              		.cfi_endproc
 528              	.LFE273:
 529              		.size	gpt_lld_init, .-gpt_lld_init
 530 0014 AFF30080 		.section	.text.gpt_lld_start,"ax",%progbits
 530      AFF30080 
 530      AFF30080 
 531              		.align	2
 532              		.p2align 4,,15
 533              		.global	gpt_lld_start
 534              		.thumb
 535              		.thumb_func
 536              		.type	gpt_lld_start, %function
 537              	gpt_lld_start:
 538              	.LFB274:
 539              		.loc 1 488 0
 540              		.cfi_startproc
 541              		@ args = 0, pretend = 0, frame = 0
 542              		@ frame_needed = 0, uses_anonymous_args = 0
 543              	.LVL1:
 544 0000 38B5     		push	{r3, r4, r5, lr}
 545              		.cfi_def_cfa_offset 16
 546              		.cfi_offset 3, -16
 547              		.cfi_offset 4, -12
 548              		.cfi_offset 5, -8
 549              		.cfi_offset 14, -4
 550              		.loc 1 491 0
 551 0002 0378     		ldrb	r3, [r0]	@ zero_extendqisi2
 552 0004 012B     		cmp	r3, #1
 553              		.loc 1 488 0
 554 0006 0446     		mov	r4, r0
 555              		.loc 1 491 0
 556 0008 12D0     		beq	.L7
 557              	.LVL2:
 558              	.L5:
 559              		.loc 1 675 0
 560 000a 6268     		ldr	r2, [r4, #4]
 561 000c A568     		ldr	r5, [r4, #8]
 562 000e 1068     		ldr	r0, [r2]
 563              		.loc 1 684 0
 564 0010 D168     		ldr	r1, [r2, #12]
 565              		.loc 1 680 0
 566 0012 E368     		ldr	r3, [r4, #12]
 567              		.loc 1 681 0
 568 0014 9468     		ldr	r4, [r2, #8]
ARM GAS  /tmp/cchWVbPq.s 			page 40


 569              	.LVL3:
 570              		.loc 1 675 0
 571 0016 B5FBF0F0 		udiv	r0, r5, r0
 572 001a 0138     		subs	r0, r0, #1
 573              		.loc 1 680 0
 574 001c 0022     		movs	r2, #0
 575              		.loc 1 675 0
 576 001e 80B2     		uxth	r0, r0
 577              	.LVL4:
 578              		.loc 1 684 0
 579 0020 21F0FF01 		bic	r1, r1, #255
 580              		.loc 1 680 0
 581 0024 1A60     		str	r2, [r3]
 582              		.loc 1 681 0
 583 0026 5C60     		str	r4, [r3, #4]
 584              		.loc 1 682 0
 585 0028 9862     		str	r0, [r3, #40]
 586              		.loc 1 683 0
 587 002a 1A61     		str	r2, [r3, #16]
 588              		.loc 1 684 0
 589 002c D960     		str	r1, [r3, #12]
 590 002e 38BD     		pop	{r3, r4, r5, pc}
 591              	.LVL5:
 592              	.L7:
 593              		.loc 1 494 0
 594 0030 0A4B     		ldr	r3, .L8
 595 0032 9842     		cmp	r0, r3
 596 0034 E9D1     		bne	.L5
 597              		.loc 1 495 0
 598 0036 0A4B     		ldr	r3, .L8+4
 599 0038 9A69     		ldr	r2, [r3, #24]
 600 003a 42F40062 		orr	r2, r2, #2048
 601 003e 9A61     		str	r2, [r3, #24]
 602              		.loc 1 496 0
 603 0040 D968     		ldr	r1, [r3, #12]
 604 0042 0022     		movs	r2, #0
 605 0044 41F40061 		orr	r1, r1, #2048
 606 0048 D960     		str	r1, [r3, #12]
 607              		.loc 1 498 0
 608 004a 1920     		movs	r0, #25
 609              	.LVL6:
 610              		.loc 1 496 0
 611 004c DA60     		str	r2, [r3, #12]
 612              		.loc 1 498 0
 613 004e 0721     		movs	r1, #7
 614 0050 FFF7FEFF 		bl	nvicEnableVector
 615              	.LVL7:
 616              		.loc 1 501 0
 617 0054 034B     		ldr	r3, .L8+8
 618 0056 A360     		str	r3, [r4, #8]
 619 0058 D7E7     		b	.L5
 620              	.L9:
 621 005a 00BF     		.align	2
 622              	.L8:
 623 005c 00000000 		.word	.LANCHOR0
 624 0060 00100240 		.word	1073876992
 625 0064 00A24A04 		.word	72000000
ARM GAS  /tmp/cchWVbPq.s 			page 41


 626              		.cfi_endproc
 627              	.LFE274:
 628              		.size	gpt_lld_start, .-gpt_lld_start
 629 0068 AFF30080 		.section	.text.gpt_lld_stop,"ax",%progbits
 629      AFF30080 
 630              		.align	2
 631              		.p2align 4,,15
 632              		.global	gpt_lld_stop
 633              		.thumb
 634              		.thumb_func
 635              		.type	gpt_lld_stop, %function
 636              	gpt_lld_stop:
 637              	.LFB275:
 638              		.loc 1 695 0
 639              		.cfi_startproc
 640              		@ args = 0, pretend = 0, frame = 0
 641              		@ frame_needed = 0, uses_anonymous_args = 0
 642              	.LVL8:
 643 0000 08B5     		push	{r3, lr}
 644              		.cfi_def_cfa_offset 8
 645              		.cfi_offset 3, -8
 646              		.cfi_offset 14, -4
 647              		.loc 1 697 0
 648 0002 0378     		ldrb	r3, [r0]	@ zero_extendqisi2
 649 0004 022B     		cmp	r3, #2
 650 0006 00D0     		beq	.L14
 651              	.LVL9:
 652              	.L10:
 653 0008 08BD     		pop	{r3, pc}
 654              	.LVL10:
 655              	.L14:
 656              		.loc 1 703 0
 657 000a 0849     		ldr	r1, .L15
 658              		.loc 1 698 0
 659 000c C368     		ldr	r3, [r0, #12]
 660 000e 0022     		movs	r2, #0
 661              		.loc 1 703 0
 662 0010 8842     		cmp	r0, r1
 663              		.loc 1 698 0
 664 0012 1A60     		str	r2, [r3]
 665              		.loc 1 699 0
 666 0014 DA60     		str	r2, [r3, #12]
 667              		.loc 1 700 0
 668 0016 1A61     		str	r2, [r3, #16]
 669              		.loc 1 703 0
 670 0018 F6D1     		bne	.L10
 671              	.LVL11:
 672              	.LBB6:
 673              	.LBB7:
 674              		.loc 1 705 0
 675 001a 1920     		movs	r0, #25
 676              	.LVL12:
 677 001c FFF7FEFF 		bl	nvicDisableVector
 678              	.LVL13:
 679              		.loc 1 707 0
 680 0020 034B     		ldr	r3, .L15+4
 681 0022 9A69     		ldr	r2, [r3, #24]
ARM GAS  /tmp/cchWVbPq.s 			page 42


 682 0024 22F40062 		bic	r2, r2, #2048
 683 0028 9A61     		str	r2, [r3, #24]
 684 002a EDE7     		b	.L10
 685              	.L16:
 686              		.align	2
 687              	.L15:
 688 002c 00000000 		.word	.LANCHOR0
 689 0030 00100240 		.word	1073876992
 690              	.LBE7:
 691              	.LBE6:
 692              		.cfi_endproc
 693              	.LFE275:
 694              		.size	gpt_lld_stop, .-gpt_lld_stop
 695 0034 AFF30080 		.section	.text.gpt_lld_start_timer,"ax",%progbits
 695      AFF30080 
 695      AFF30080 
 696              		.align	2
 697              		.p2align 4,,15
 698              		.global	gpt_lld_start_timer
 699              		.thumb
 700              		.thumb_func
 701              		.type	gpt_lld_start_timer, %function
 702              	gpt_lld_start_timer:
 703              	.LFB276:
 704              		.loc 1 820 0
 705              		.cfi_startproc
 706              		@ args = 0, pretend = 0, frame = 0
 707              		@ frame_needed = 0, uses_anonymous_args = 0
 708              		@ link register save eliminated.
 709              	.LVL14:
 710              		.loc 1 830 0
 711 0000 4268     		ldr	r2, [r0, #4]
 712              		.loc 1 822 0
 713 0002 C368     		ldr	r3, [r0, #12]
 714              		.loc 1 830 0
 715 0004 5068     		ldr	r0, [r2, #4]
 716              	.LVL15:
 717              		.loc 1 822 0
 718 0006 0139     		subs	r1, r1, #1
 719              	.LVL16:
 720 0008 D962     		str	r1, [r3, #44]
 721              		.loc 1 824 0
 722 000a 0022     		movs	r2, #0
 723              		.loc 1 823 0
 724 000c 0121     		movs	r1, #1
 725              	.LVL17:
 726 000e 5961     		str	r1, [r3, #20]
 727              	.LVL18:
 728              		.loc 1 824 0
 729 0010 5A62     		str	r2, [r3, #36]
 730              		.loc 1 829 0
 731 0012 1A61     		str	r2, [r3, #16]
 732              		.loc 1 830 0
 733 0014 10B1     		cbz	r0, .L18
 734              		.loc 1 831 0
 735 0016 DA68     		ldr	r2, [r3, #12]
 736 0018 0A43     		orrs	r2, r2, r1
ARM GAS  /tmp/cchWVbPq.s 			page 43


 737 001a DA60     		str	r2, [r3, #12]
 738              	.L18:
 739              		.loc 1 832 0
 740 001c 0522     		movs	r2, #5
 741 001e 1A60     		str	r2, [r3]
 742 0020 7047     		bx	lr
 743              		.cfi_endproc
 744              	.LFE276:
 745              		.size	gpt_lld_start_timer, .-gpt_lld_start_timer
 746 0022 00BFAFF3 		.section	.text.gpt_lld_stop_timer,"ax",%progbits
 746      0080AFF3 
 746      0080AFF3 
 746      0080
 747              		.align	2
 748              		.p2align 4,,15
 749              		.global	gpt_lld_stop_timer
 750              		.thumb
 751              		.thumb_func
 752              		.type	gpt_lld_stop_timer, %function
 753              	gpt_lld_stop_timer:
 754              	.LFB277:
 755              		.loc 1 842 0
 756              		.cfi_startproc
 757              		@ args = 0, pretend = 0, frame = 0
 758              		@ frame_needed = 0, uses_anonymous_args = 0
 759              		@ link register save eliminated.
 760              	.LVL19:
 761              		.loc 1 844 0
 762 0000 C368     		ldr	r3, [r0, #12]
 763 0002 0022     		movs	r2, #0
 764 0004 1A60     		str	r2, [r3]
 765              		.loc 1 845 0
 766 0006 1A61     		str	r2, [r3, #16]
 767              		.loc 1 848 0
 768 0008 DA68     		ldr	r2, [r3, #12]
 769 000a 22F0FF02 		bic	r2, r2, #255
 770 000e DA60     		str	r2, [r3, #12]
 771 0010 7047     		bx	lr
 772              		.cfi_endproc
 773              	.LFE277:
 774              		.size	gpt_lld_stop_timer, .-gpt_lld_stop_timer
 775 0012 00BFAFF3 		.section	.text.gpt_lld_polled_delay,"ax",%progbits
 775      0080AFF3 
 775      0080AFF3 
 775      0080
 776              		.align	2
 777              		.p2align 4,,15
 778              		.global	gpt_lld_polled_delay
 779              		.thumb
 780              		.thumb_func
 781              		.type	gpt_lld_polled_delay, %function
 782              	gpt_lld_polled_delay:
 783              	.LFB278:
 784              		.loc 1 862 0
 785              		.cfi_startproc
 786              		@ args = 0, pretend = 0, frame = 0
 787              		@ frame_needed = 0, uses_anonymous_args = 0
ARM GAS  /tmp/cchWVbPq.s 			page 44


 788              		@ link register save eliminated.
 789              	.LVL20:
 790              		.loc 1 864 0
 791 0000 C268     		ldr	r2, [r0, #12]
 792 0002 0139     		subs	r1, r1, #1
 793              	.LVL21:
 794              		.loc 1 865 0
 795 0004 0120     		movs	r0, #1
 796              	.LVL22:
 797              		.loc 1 866 0
 798 0006 0D23     		movs	r3, #13
 799              		.loc 1 864 0
 800 0008 D162     		str	r1, [r2, #44]
 801              		.loc 1 865 0
 802 000a 5061     		str	r0, [r2, #20]
 803              		.loc 1 866 0
 804 000c 1360     		str	r3, [r2]
 805              	.L25:
 806              		.loc 1 867 0 discriminator 1
 807 000e 1369     		ldr	r3, [r2, #16]
 808 0010 DB07     		lsls	r3, r3, #31
 809 0012 FCD5     		bpl	.L25
 810              		.loc 1 869 0
 811 0014 0023     		movs	r3, #0
 812 0016 1361     		str	r3, [r2, #16]
 813 0018 7047     		bx	lr
 814              		.cfi_endproc
 815              	.LFE278:
 816              		.size	gpt_lld_polled_delay, .-gpt_lld_polled_delay
 817              		.section	.text.gpt_lld_serve_interrupt,"ax",%progbits
 818              		.align	2
 819              		.p2align 4,,15
 820              		.global	gpt_lld_serve_interrupt
 821              		.thumb
 822              		.thumb_func
 823              		.type	gpt_lld_serve_interrupt, %function
 824              	gpt_lld_serve_interrupt:
 825              	.LFB279:
 826              		.loc 1 879 0
 827              		.cfi_startproc
 828              		@ args = 0, pretend = 0, frame = 0
 829              		@ frame_needed = 0, uses_anonymous_args = 0
 830              	.LVL23:
 831              		.loc 1 882 0
 832 0000 0178     		ldrb	r1, [r0]	@ zero_extendqisi2
 833              		.loc 1 879 0
 834 0002 08B5     		push	{r3, lr}
 835              		.cfi_def_cfa_offset 8
 836              		.cfi_offset 3, -8
 837              		.cfi_offset 14, -4
 838              		.loc 1 881 0
 839 0004 C368     		ldr	r3, [r0, #12]
 840 0006 0022     		movs	r2, #0
 841              		.loc 1 882 0
 842 0008 0429     		cmp	r1, #4
 843              		.loc 1 881 0
 844 000a 1A61     		str	r2, [r3, #16]
ARM GAS  /tmp/cchWVbPq.s 			page 45


 845              		.loc 1 882 0
 846 000c 07D1     		bne	.L27
 847              		.loc 1 883 0
 848 000e 0221     		movs	r1, #2
 849 0010 0170     		strb	r1, [r0]
 850              	.LVL24:
 851              	.LBB8:
 852              	.LBB9:
 853              		.loc 1 844 0
 854 0012 1A60     		str	r2, [r3]
 855              		.loc 1 845 0
 856 0014 1A61     		str	r2, [r3, #16]
 857              		.loc 1 848 0
 858 0016 DA68     		ldr	r2, [r3, #12]
 859 0018 22F0FF02 		bic	r2, r2, #255
 860 001c DA60     		str	r2, [r3, #12]
 861              	.LVL25:
 862              	.L27:
 863              	.LBE9:
 864              	.LBE8:
 865              		.loc 1 886 0
 866 001e 4368     		ldr	r3, [r0, #4]
 867 0020 5B68     		ldr	r3, [r3, #4]
 868 0022 9847     		blx	r3
 869              	.LVL26:
 870 0024 08BD     		pop	{r3, pc}
 871              		.cfi_endproc
 872              	.LFE279:
 873              		.size	gpt_lld_serve_interrupt, .-gpt_lld_serve_interrupt
 874 0026 00BFAFF3 		.section	.text.VectorA4,"ax",%progbits
 874      0080AFF3 
 874      0080
 875              		.align	2
 876              		.p2align 4,,15
 877              		.global	VectorA4
 878              		.thumb
 879              		.thumb_func
 880              		.type	VectorA4, %function
 881              	VectorA4:
 882              	.LFB272:
 883              		.loc 1 155 0
 884              		.cfi_startproc
 885              		@ args = 0, pretend = 0, frame = 0
 886              		@ frame_needed = 0, uses_anonymous_args = 0
 887 0000 08B5     		push	{r3, lr}
 888              		.cfi_def_cfa_offset 8
 889              		.cfi_offset 3, -8
 890              		.cfi_offset 14, -4
 891              		.loc 1 159 0
 892 0002 0348     		ldr	r0, .L29
 893 0004 FFF7FEFF 		bl	gpt_lld_serve_interrupt
 894              	.LVL27:
 895              		.loc 1 162 0
 896 0008 BDE80840 		pop	{r3, lr}
 897              		.loc 1 161 0
 898 000c FFF7FEBF 		b	_port_irq_epilogue
 899              	.LVL28:
ARM GAS  /tmp/cchWVbPq.s 			page 46


 900              	.L30:
 901              		.align	2
 902              	.L29:
 903 0010 00000000 		.word	.LANCHOR0
 904              		.cfi_endproc
 905              	.LFE272:
 906              		.size	VectorA4, .-VectorA4
 907              		.global	GPTD1
 908 0014 AFF30080 		.section	.bss.GPTD1,"aw",%nobits
 908      AFF30080 
 908      AFF30080 
 909              		.align	2
 910              		.set	.LANCHOR0,. + 0
 911              		.type	GPTD1, %object
 912              		.size	GPTD1, 16
 913              	GPTD1:
 914 0000 00000000 		.space	16
 914      00000000 
 914      00000000 
 914      00000000 
 915              		.text
 916              	.Letext0:
 917              		.file 2 "/nfs/nfs5/home/research/hardware/arm2/gcc-arm-embedded/gcc-arm-none-eabi-4_8-2014q2/lib/g
 918              		.file 3 "/nfs/nfs5/home/research/hardware/arm2/gcc-arm-embedded/gcc-arm-none-eabi-4_8-2014q2/arm-n
 919              		.file 4 "/nfs/nfs5/home/research/hardware/arm2/gcc-arm-embedded/gcc-arm-none-eabi-4_8-2014q2/arm-n
 920              		.file 5 "../ChibiOS/os/rt/ports/ARMCMx/compilers/GCC/chtypes.h"
 921              		.file 6 "../ChibiOS/os/rt/include/chsystypes.h"
 922              		.file 7 "../ChibiOS/os/rt/include/chschd.h"
 923              		.file 8 "../ChibiOS/os/ext/CMSIS/ST/STM32F3xx/stm32f303xc.h"
 924              		.file 9 "../ChibiOS/os/rt/ports/ARMCMx/chcore.h"
 925              		.file 10 "../ChibiOS/os/rt/ports/ARMCMx/chcore_v7m.h"
 926              		.file 11 "../ChibiOS/os/hal/ports/STM32/LLD/TIMv1/stm32_tim.h"
 927              		.file 12 "../ChibiOS/os/rt/include/chtm.h"
 928              		.file 13 "../ChibiOS/os/rt/include/chsem.h"
 929              		.file 14 "../ChibiOS/os/rt/include/chmtx.h"
 930              		.file 15 "../ChibiOS/os/hal/include/gpt.h"
 931              		.file 16 "../ChibiOS/os/hal/ports/STM32/LLD/TIMv1/gpt_lld.h"
 932              		.file 17 "../ChibiOS/os/ext/CMSIS/include/core_cm4.h"
 933              		.file 18 "../ChibiOS/os/hal/ports/common/ARMCMx/nvic.h"
 934              		.section	.debug_info,"",%progbits
 935              	.Ldebug_info0:
 936 0000 DA0B0000 		.4byte	0xbda
 937 0004 0400     		.2byte	0x4
 938 0006 00000000 		.4byte	.Ldebug_abbrev0
 939 000a 04       		.byte	0x4
 940 000b 01       		.uleb128 0x1
 941 000c 7C060000 		.4byte	.LASF158
 942 0010 01       		.byte	0x1
 943 0011 E1050000 		.4byte	.LASF159
 944 0015 5C010000 		.4byte	.LASF160
 945 0019 00000000 		.4byte	.Ldebug_ranges0+0
 946 001d 00000000 		.4byte	0
 947 0021 00000000 		.4byte	.Ldebug_line0
 948 0025 02       		.uleb128 0x2
 949 0026 04       		.byte	0x4
 950 0027 05       		.byte	0x5
 951 0028 696E7400 		.ascii	"int\000"
ARM GAS  /tmp/cchWVbPq.s 			page 47


 952 002c 03       		.uleb128 0x3
 953 002d 12000000 		.4byte	.LASF2
 954 0031 02       		.byte	0x2
 955 0032 D4       		.byte	0xd4
 956 0033 37000000 		.4byte	0x37
 957 0037 04       		.uleb128 0x4
 958 0038 04       		.byte	0x4
 959 0039 07       		.byte	0x7
 960 003a 34020000 		.4byte	.LASF0
 961 003e 04       		.uleb128 0x4
 962 003f 01       		.byte	0x1
 963 0040 06       		.byte	0x6
 964 0041 FE000000 		.4byte	.LASF1
 965 0045 03       		.uleb128 0x3
 966 0046 32000000 		.4byte	.LASF3
 967 004a 03       		.byte	0x3
 968 004b 1C       		.byte	0x1c
 969 004c 50000000 		.4byte	0x50
 970 0050 04       		.uleb128 0x4
 971 0051 01       		.byte	0x1
 972 0052 08       		.byte	0x8
 973 0053 73040000 		.4byte	.LASF4
 974 0057 04       		.uleb128 0x4
 975 0058 02       		.byte	0x2
 976 0059 05       		.byte	0x5
 977 005a 98040000 		.4byte	.LASF5
 978 005e 03       		.uleb128 0x3
 979 005f 4D050000 		.4byte	.LASF6
 980 0063 03       		.byte	0x3
 981 0064 26       		.byte	0x26
 982 0065 69000000 		.4byte	0x69
 983 0069 04       		.uleb128 0x4
 984 006a 02       		.byte	0x2
 985 006b 07       		.byte	0x7
 986 006c D3010000 		.4byte	.LASF7
 987 0070 03       		.uleb128 0x3
 988 0071 23030000 		.4byte	.LASF8
 989 0075 03       		.byte	0x3
 990 0076 37       		.byte	0x37
 991 0077 7B000000 		.4byte	0x7b
 992 007b 04       		.uleb128 0x4
 993 007c 04       		.byte	0x4
 994 007d 05       		.byte	0x5
 995 007e 41010000 		.4byte	.LASF9
 996 0082 03       		.uleb128 0x3
 997 0083 97050000 		.4byte	.LASF10
 998 0087 03       		.byte	0x3
 999 0088 38       		.byte	0x38
 1000 0089 8D000000 		.4byte	0x8d
 1001 008d 04       		.uleb128 0x4
 1002 008e 04       		.byte	0x4
 1003 008f 07       		.byte	0x7
 1004 0090 36050000 		.4byte	.LASF11
 1005 0094 04       		.uleb128 0x4
 1006 0095 08       		.byte	0x8
 1007 0096 05       		.byte	0x5
 1008 0097 9E010000 		.4byte	.LASF12
ARM GAS  /tmp/cchWVbPq.s 			page 48


 1009 009b 03       		.uleb128 0x3
 1010 009c FF030000 		.4byte	.LASF13
 1011 00a0 03       		.byte	0x3
 1012 00a1 4E       		.byte	0x4e
 1013 00a2 A6000000 		.4byte	0xa6
 1014 00a6 04       		.uleb128 0x4
 1015 00a7 08       		.byte	0x8
 1016 00a8 07       		.byte	0x7
 1017 00a9 76000000 		.4byte	.LASF14
 1018 00ad 03       		.uleb128 0x3
 1019 00ae 74060000 		.4byte	.LASF15
 1020 00b2 04       		.byte	0x4
 1021 00b3 2A       		.byte	0x2a
 1022 00b4 45000000 		.4byte	0x45
 1023 00b8 03       		.uleb128 0x3
 1024 00b9 AC010000 		.4byte	.LASF16
 1025 00bd 04       		.byte	0x4
 1026 00be 36       		.byte	0x36
 1027 00bf 5E000000 		.4byte	0x5e
 1028 00c3 03       		.uleb128 0x3
 1029 00c4 6B040000 		.4byte	.LASF17
 1030 00c8 04       		.byte	0x4
 1031 00c9 41       		.byte	0x41
 1032 00ca 70000000 		.4byte	0x70
 1033 00ce 03       		.uleb128 0x3
 1034 00cf 05050000 		.4byte	.LASF18
 1035 00d3 04       		.byte	0x4
 1036 00d4 42       		.byte	0x42
 1037 00d5 82000000 		.4byte	0x82
 1038 00d9 03       		.uleb128 0x3
 1039 00da 20000000 		.4byte	.LASF19
 1040 00de 04       		.byte	0x4
 1041 00df 4E       		.byte	0x4e
 1042 00e0 9B000000 		.4byte	0x9b
 1043 00e4 03       		.uleb128 0x3
 1044 00e5 13060000 		.4byte	.LASF20
 1045 00e9 05       		.byte	0x5
 1046 00ea 39       		.byte	0x39
 1047 00eb CE000000 		.4byte	0xce
 1048 00ef 03       		.uleb128 0x3
 1049 00f0 6F070000 		.4byte	.LASF21
 1050 00f4 05       		.byte	0x5
 1051 00f5 3C       		.byte	0x3c
 1052 00f6 AD000000 		.4byte	0xad
 1053 00fa 03       		.uleb128 0x3
 1054 00fb 90010000 		.4byte	.LASF22
 1055 00ff 05       		.byte	0x5
 1056 0100 3D       		.byte	0x3d
 1057 0101 AD000000 		.4byte	0xad
 1058 0105 03       		.uleb128 0x3
 1059 0106 22040000 		.4byte	.LASF23
 1060 010a 05       		.byte	0x5
 1061 010b 3E       		.byte	0x3e
 1062 010c AD000000 		.4byte	0xad
 1063 0110 03       		.uleb128 0x3
 1064 0111 4D040000 		.4byte	.LASF24
 1065 0115 05       		.byte	0x5
ARM GAS  /tmp/cchWVbPq.s 			page 49


 1066 0116 40       		.byte	0x40
 1067 0117 CE000000 		.4byte	0xce
 1068 011b 03       		.uleb128 0x3
 1069 011c CE020000 		.4byte	.LASF25
 1070 0120 05       		.byte	0x5
 1071 0121 41       		.byte	0x41
 1072 0122 C3000000 		.4byte	0xc3
 1073 0126 03       		.uleb128 0x3
 1074 0127 17030000 		.4byte	.LASF26
 1075 012b 05       		.byte	0x5
 1076 012c 43       		.byte	0x43
 1077 012d CE000000 		.4byte	0xce
 1078 0131 03       		.uleb128 0x3
 1079 0132 FF040000 		.4byte	.LASF27
 1080 0136 05       		.byte	0x5
 1081 0137 45       		.byte	0x45
 1082 0138 C3000000 		.4byte	0xc3
 1083 013c 03       		.uleb128 0x3
 1084 013d 79050000 		.4byte	.LASF28
 1085 0141 06       		.byte	0x6
 1086 0142 33       		.byte	0x33
 1087 0143 CE000000 		.4byte	0xce
 1088 0147 03       		.uleb128 0x3
 1089 0148 69050000 		.4byte	.LASF29
 1090 014c 06       		.byte	0x6
 1091 014d 3F       		.byte	0x3f
 1092 014e 52010000 		.4byte	0x152
 1093 0152 05       		.uleb128 0x5
 1094 0153 9C020000 		.4byte	.LASF48
 1095 0157 40       		.byte	0x40
 1096 0158 07       		.byte	0x7
 1097 0159 C2       		.byte	0xc2
 1098 015a 32020000 		.4byte	0x232
 1099 015e 06       		.uleb128 0x6
 1100 015f 94030000 		.4byte	.LASF30
 1101 0163 07       		.byte	0x7
 1102 0164 C3       		.byte	0xc3
 1103 0165 3D020000 		.4byte	0x23d
 1104 0169 00       		.byte	0
 1105 016a 06       		.uleb128 0x6
 1106 016b 46040000 		.4byte	.LASF31
 1107 016f 07       		.byte	0x7
 1108 0170 C5       		.byte	0xc5
 1109 0171 3D020000 		.4byte	0x23d
 1110 0175 04       		.byte	0x4
 1111 0176 06       		.uleb128 0x6
 1112 0177 D4000000 		.4byte	.LASF32
 1113 017b 07       		.byte	0x7
 1114 017c C7       		.byte	0xc7
 1115 017d 10010000 		.4byte	0x110
 1116 0181 08       		.byte	0x8
 1117 0182 06       		.uleb128 0x6
 1118 0183 85070000 		.4byte	.LASF33
 1119 0187 07       		.byte	0x7
 1120 0188 C8       		.byte	0xc8
 1121 0189 50050000 		.4byte	0x550
 1122 018d 0C       		.byte	0xc
ARM GAS  /tmp/cchWVbPq.s 			page 50


 1123 018e 06       		.uleb128 0x6
 1124 018f B5010000 		.4byte	.LASF34
 1125 0193 07       		.byte	0x7
 1126 0194 CA       		.byte	0xca
 1127 0195 3D020000 		.4byte	0x23d
 1128 0199 10       		.byte	0x10
 1129 019a 06       		.uleb128 0x6
 1130 019b BA030000 		.4byte	.LASF35
 1131 019f 07       		.byte	0x7
 1132 01a0 CB       		.byte	0xcb
 1133 01a1 3D020000 		.4byte	0x23d
 1134 01a5 14       		.byte	0x14
 1135 01a6 06       		.uleb128 0x6
 1136 01a7 63070000 		.4byte	.LASF36
 1137 01ab 07       		.byte	0x7
 1138 01ac D2       		.byte	0xd2
 1139 01ad FD070000 		.4byte	0x7fd
 1140 01b1 18       		.byte	0x18
 1141 01b2 06       		.uleb128 0x6
 1142 01b3 A2040000 		.4byte	.LASF37
 1143 01b7 07       		.byte	0x7
 1144 01b8 DD       		.byte	0xdd
 1145 01b9 FA000000 		.4byte	0xfa
 1146 01bd 1C       		.byte	0x1c
 1147 01be 06       		.uleb128 0x6
 1148 01bf B8040000 		.4byte	.LASF38
 1149 01c3 07       		.byte	0x7
 1150 01c4 E1       		.byte	0xe1
 1151 01c5 EF000000 		.4byte	0xef
 1152 01c9 1D       		.byte	0x1d
 1153 01ca 06       		.uleb128 0x6
 1154 01cb 49060000 		.4byte	.LASF39
 1155 01cf 07       		.byte	0x7
 1156 01d0 E6       		.byte	0xe6
 1157 01d1 05010000 		.4byte	0x105
 1158 01d5 1E       		.byte	0x1e
 1159 01d6 07       		.uleb128 0x7
 1160 01d7 705F7500 		.ascii	"p_u\000"
 1161 01db 07       		.byte	0x7
 1162 01dc 3701     		.2byte	0x137
 1163 01de 2C070000 		.4byte	0x72c
 1164 01e2 20       		.byte	0x20
 1165 01e3 08       		.uleb128 0x8
 1166 01e4 47030000 		.4byte	.LASF40
 1167 01e8 07       		.byte	0x7
 1168 01e9 3C01     		.2byte	0x13c
 1169 01eb 43020000 		.4byte	0x243
 1170 01ef 24       		.byte	0x24
 1171 01f0 08       		.uleb128 0x8
 1172 01f1 85020000 		.4byte	.LASF41
 1173 01f5 07       		.byte	0x7
 1174 01f6 4201     		.2byte	0x142
 1175 01f8 67020000 		.4byte	0x267
 1176 01fc 28       		.byte	0x28
 1177 01fd 08       		.uleb128 0x8
 1178 01fe EB040000 		.4byte	.LASF42
 1179 0202 07       		.byte	0x7
ARM GAS  /tmp/cchWVbPq.s 			page 51


 1180 0203 4801     		.2byte	0x148
 1181 0205 26010000 		.4byte	0x126
 1182 0209 30       		.byte	0x30
 1183 020a 08       		.uleb128 0x8
 1184 020b 8E040000 		.4byte	.LASF43
 1185 020f 07       		.byte	0x7
 1186 0210 4F01     		.2byte	0x14f
 1187 0212 F7070000 		.4byte	0x7f7
 1188 0216 34       		.byte	0x34
 1189 0217 08       		.uleb128 0x8
 1190 0218 83050000 		.4byte	.LASF44
 1191 021c 07       		.byte	0x7
 1192 021d 5301     		.2byte	0x153
 1193 021f 10010000 		.4byte	0x110
 1194 0223 38       		.byte	0x38
 1195 0224 08       		.uleb128 0x8
 1196 0225 C6020000 		.4byte	.LASF45
 1197 0229 07       		.byte	0x7
 1198 022a 5A01     		.2byte	0x15a
 1199 022c 1A030000 		.4byte	0x31a
 1200 0230 3C       		.byte	0x3c
 1201 0231 00       		.byte	0
 1202 0232 03       		.uleb128 0x3
 1203 0233 5A030000 		.4byte	.LASF46
 1204 0237 06       		.byte	0x6
 1205 0238 44       		.byte	0x44
 1206 0239 3D020000 		.4byte	0x23d
 1207 023d 09       		.uleb128 0x9
 1208 023e 04       		.byte	0x4
 1209 023f 47010000 		.4byte	0x147
 1210 0243 03       		.uleb128 0x3
 1211 0244 38030000 		.4byte	.LASF47
 1212 0248 06       		.byte	0x6
 1213 0249 49       		.byte	0x49
 1214 024a 4E020000 		.4byte	0x24e
 1215 024e 05       		.uleb128 0x5
 1216 024f 26050000 		.4byte	.LASF49
 1217 0253 04       		.byte	0x4
 1218 0254 07       		.byte	0x7
 1219 0255 B0       		.byte	0xb0
 1220 0256 67020000 		.4byte	0x267
 1221 025a 06       		.uleb128 0x6
 1222 025b 94030000 		.4byte	.LASF30
 1223 025f 07       		.byte	0x7
 1224 0260 B1       		.byte	0xb1
 1225 0261 3D020000 		.4byte	0x23d
 1226 0265 00       		.byte	0
 1227 0266 00       		.byte	0
 1228 0267 03       		.uleb128 0x3
 1229 0268 30060000 		.4byte	.LASF50
 1230 026c 06       		.byte	0x6
 1231 026d 50       		.byte	0x50
 1232 026e 72020000 		.4byte	0x272
 1233 0272 05       		.uleb128 0x5
 1234 0273 48000000 		.4byte	.LASF51
 1235 0277 08       		.byte	0x8
 1236 0278 07       		.byte	0x7
ARM GAS  /tmp/cchWVbPq.s 			page 52


 1237 0279 B7       		.byte	0xb7
 1238 027a 97020000 		.4byte	0x297
 1239 027e 06       		.uleb128 0x6
 1240 027f 94030000 		.4byte	.LASF30
 1241 0283 07       		.byte	0x7
 1242 0284 B8       		.byte	0xb8
 1243 0285 3D020000 		.4byte	0x23d
 1244 0289 00       		.byte	0
 1245 028a 06       		.uleb128 0x6
 1246 028b 46040000 		.4byte	.LASF31
 1247 028f 07       		.byte	0x7
 1248 0290 B9       		.byte	0xb9
 1249 0291 3D020000 		.4byte	0x23d
 1250 0295 04       		.byte	0x4
 1251 0296 00       		.byte	0
 1252 0297 03       		.uleb128 0x3
 1253 0298 00000000 		.4byte	.LASF52
 1254 029c 06       		.byte	0x6
 1255 029d 57       		.byte	0x57
 1256 029e A2020000 		.4byte	0x2a2
 1257 02a2 0A       		.uleb128 0xa
 1258 02a3 09030000 		.4byte	.LASF53
 1259 02a7 1C       		.byte	0x1c
 1260 02a8 07       		.byte	0x7
 1261 02a9 9201     		.2byte	0x192
 1262 02ab FE020000 		.4byte	0x2fe
 1263 02af 08       		.uleb128 0x8
 1264 02b0 15050000 		.4byte	.LASF54
 1265 02b4 07       		.byte	0x7
 1266 02b5 9301     		.2byte	0x193
 1267 02b7 67020000 		.4byte	0x267
 1268 02bb 00       		.byte	0
 1269 02bc 08       		.uleb128 0x8
 1270 02bd AA040000 		.4byte	.LASF55
 1271 02c1 07       		.byte	0x7
 1272 02c2 9401     		.2byte	0x194
 1273 02c4 10010000 		.4byte	0x110
 1274 02c8 08       		.byte	0x8
 1275 02c9 08       		.uleb128 0x8
 1276 02ca C2030000 		.4byte	.LASF56
 1277 02ce 07       		.byte	0x7
 1278 02cf 9601     		.2byte	0x196
 1279 02d1 50050000 		.4byte	0x550
 1280 02d5 0C       		.byte	0xc
 1281 02d6 08       		.uleb128 0x8
 1282 02d7 EF010000 		.4byte	.LASF57
 1283 02db 07       		.byte	0x7
 1284 02dc 9901     		.2byte	0x199
 1285 02de 3D020000 		.4byte	0x23d
 1286 02e2 10       		.byte	0x10
 1287 02e3 08       		.uleb128 0x8
 1288 02e4 CD050000 		.4byte	.LASF58
 1289 02e8 07       		.byte	0x7
 1290 02e9 9A01     		.2byte	0x19a
 1291 02eb 3D020000 		.4byte	0x23d
 1292 02ef 14       		.byte	0x14
 1293 02f0 08       		.uleb128 0x8
ARM GAS  /tmp/cchWVbPq.s 			page 53


 1294 02f1 E1030000 		.4byte	.LASF59
 1295 02f5 07       		.byte	0x7
 1296 02f6 9D01     		.2byte	0x19d
 1297 02f8 3D020000 		.4byte	0x23d
 1298 02fc 18       		.byte	0x18
 1299 02fd 00       		.byte	0
 1300 02fe 03       		.uleb128 0x3
 1301 02ff 8E050000 		.4byte	.LASF60
 1302 0303 06       		.byte	0x6
 1303 0304 5C       		.byte	0x5c
 1304 0305 09030000 		.4byte	0x309
 1305 0309 09       		.uleb128 0x9
 1306 030a 04       		.byte	0x4
 1307 030b 0F030000 		.4byte	0x30f
 1308 030f 0B       		.uleb128 0xb
 1309 0310 1A030000 		.4byte	0x31a
 1310 0314 0C       		.uleb128 0xc
 1311 0315 1A030000 		.4byte	0x31a
 1312 0319 00       		.byte	0
 1313 031a 0D       		.uleb128 0xd
 1314 031b 04       		.byte	0x4
 1315 031c 03       		.uleb128 0x3
 1316 031d 36040000 		.4byte	.LASF61
 1317 0321 06       		.byte	0x6
 1318 0322 61       		.byte	0x61
 1319 0323 27030000 		.4byte	0x327
 1320 0327 0A       		.uleb128 0xa
 1321 0328 C8040000 		.4byte	.LASF62
 1322 032c 14       		.byte	0x14
 1323 032d 07       		.byte	0x7
 1324 032e 6D01     		.2byte	0x16d
 1325 0330 76030000 		.4byte	0x376
 1326 0334 08       		.uleb128 0x8
 1327 0335 41020000 		.4byte	.LASF63
 1328 0339 07       		.byte	0x7
 1329 033a 6E01     		.2byte	0x16e
 1330 033c 0F080000 		.4byte	0x80f
 1331 0340 00       		.byte	0
 1332 0341 08       		.uleb128 0x8
 1333 0342 0A020000 		.4byte	.LASF64
 1334 0346 07       		.byte	0x7
 1335 0347 6F01     		.2byte	0x16f
 1336 0349 0F080000 		.4byte	0x80f
 1337 034d 04       		.byte	0x4
 1338 034e 08       		.uleb128 0x8
 1339 034f 1D050000 		.4byte	.LASF65
 1340 0353 07       		.byte	0x7
 1341 0354 7001     		.2byte	0x170
 1342 0356 3C010000 		.4byte	0x13c
 1343 035a 08       		.byte	0x8
 1344 035b 08       		.uleb128 0x8
 1345 035c 8B070000 		.4byte	.LASF66
 1346 0360 07       		.byte	0x7
 1347 0361 7101     		.2byte	0x171
 1348 0363 FE020000 		.4byte	0x2fe
 1349 0367 0C       		.byte	0xc
 1350 0368 08       		.uleb128 0x8
ARM GAS  /tmp/cchWVbPq.s 			page 54


 1351 0369 29060000 		.4byte	.LASF67
 1352 036d 07       		.byte	0x7
 1353 036e 7301     		.2byte	0x173
 1354 0370 1A030000 		.4byte	0x31a
 1355 0374 10       		.byte	0x10
 1356 0375 00       		.byte	0
 1357 0376 03       		.uleb128 0x3
 1358 0377 A9000000 		.4byte	.LASF68
 1359 037b 06       		.byte	0x6
 1360 037c 66       		.byte	0x66
 1361 037d 81030000 		.4byte	0x381
 1362 0381 0A       		.uleb128 0xa
 1363 0382 6D030000 		.4byte	.LASF69
 1364 0386 10       		.byte	0x10
 1365 0387 07       		.byte	0x7
 1366 0388 7D01     		.2byte	0x17d
 1367 038a C3030000 		.4byte	0x3c3
 1368 038e 08       		.uleb128 0x8
 1369 038f 41020000 		.4byte	.LASF63
 1370 0393 07       		.byte	0x7
 1371 0394 7E01     		.2byte	0x17e
 1372 0396 0F080000 		.4byte	0x80f
 1373 039a 00       		.byte	0
 1374 039b 08       		.uleb128 0x8
 1375 039c 0A020000 		.4byte	.LASF64
 1376 03a0 07       		.byte	0x7
 1377 03a1 8001     		.2byte	0x180
 1378 03a3 0F080000 		.4byte	0x80f
 1379 03a7 04       		.byte	0x4
 1380 03a8 08       		.uleb128 0x8
 1381 03a9 1D050000 		.4byte	.LASF65
 1382 03ad 07       		.byte	0x7
 1383 03ae 8201     		.2byte	0x182
 1384 03b0 3C010000 		.4byte	0x13c
 1385 03b4 08       		.byte	0x8
 1386 03b5 08       		.uleb128 0x8
 1387 03b6 AE030000 		.4byte	.LASF70
 1388 03ba 07       		.byte	0x7
 1389 03bb 8A01     		.2byte	0x18a
 1390 03bd 3C010000 		.4byte	0x13c
 1391 03c1 0C       		.byte	0xc
 1392 03c2 00       		.byte	0
 1393 03c3 03       		.uleb128 0x3
 1394 03c4 59000000 		.4byte	.LASF71
 1395 03c8 06       		.byte	0x6
 1396 03c9 6B       		.byte	0x6b
 1397 03ca CE030000 		.4byte	0x3ce
 1398 03ce 0A       		.uleb128 0xa
 1399 03cf 55040000 		.4byte	.LASF72
 1400 03d3 04       		.byte	0x4
 1401 03d4 07       		.byte	0x7
 1402 03d5 A401     		.2byte	0x1a4
 1403 03d7 E9030000 		.4byte	0x3e9
 1404 03db 08       		.uleb128 0x8
 1405 03dc A2050000 		.4byte	.LASF73
 1406 03e0 07       		.byte	0x7
 1407 03e1 AC01     		.2byte	0x1ac
ARM GAS  /tmp/cchWVbPq.s 			page 55


 1408 03e3 15080000 		.4byte	0x815
 1409 03e7 00       		.byte	0
 1410 03e8 00       		.byte	0
 1411 03e9 03       		.uleb128 0x3
 1412 03ea D5050000 		.4byte	.LASF74
 1413 03ee 06       		.byte	0x6
 1414 03ef 70       		.byte	0x70
 1415 03f0 F4030000 		.4byte	0x3f4
 1416 03f4 0E       		.uleb128 0xe
 1417 03f5 37010000 		.4byte	.LASF75
 1418 03f9 5001     		.2byte	0x150
 1419 03fb 07       		.byte	0x7
 1420 03fc C401     		.2byte	0x1c4
 1421 03fe 50040000 		.4byte	0x450
 1422 0402 08       		.uleb128 0x8
 1423 0403 62060000 		.4byte	.LASF76
 1424 0407 07       		.byte	0x7
 1425 0408 C801     		.2byte	0x1c8
 1426 040a 97020000 		.4byte	0x297
 1427 040e 00       		.byte	0
 1428 040f 08       		.uleb128 0x8
 1429 0410 2A010000 		.4byte	.LASF77
 1430 0414 07       		.byte	0x7
 1431 0415 CC01     		.2byte	0x1cc
 1432 0417 76030000 		.4byte	0x376
 1433 041b 1C       		.byte	0x1c
 1434 041c 07       		.uleb128 0x7
 1435 041d 64626700 		.ascii	"dbg\000"
 1436 0421 07       		.byte	0x7
 1437 0422 D001     		.2byte	0x1d0
 1438 0424 C3030000 		.4byte	0x3c3
 1439 0428 2C       		.byte	0x2c
 1440 0429 08       		.uleb128 0x8
 1441 042a 96000000 		.4byte	.LASF78
 1442 042e 07       		.byte	0x7
 1443 042f D401     		.2byte	0x1d4
 1444 0431 47010000 		.4byte	0x147
 1445 0435 30       		.byte	0x30
 1446 0436 07       		.uleb128 0x7
 1447 0437 746D00   		.ascii	"tm\000"
 1448 043a 07       		.byte	0x7
 1449 043b D901     		.2byte	0x1d9
 1450 043d 21070000 		.4byte	0x721
 1451 0441 70       		.byte	0x70
 1452 0442 08       		.uleb128 0x8
 1453 0443 1A020000 		.4byte	.LASF79
 1454 0447 07       		.byte	0x7
 1455 0448 E501     		.2byte	0x1e5
 1456 044a 1A080000 		.4byte	0x81a
 1457 044e 78       		.byte	0x78
 1458 044f 00       		.byte	0
 1459 0450 04       		.uleb128 0x4
 1460 0451 04       		.byte	0x4
 1461 0452 07       		.byte	0x7
 1462 0453 51030000 		.4byte	.LASF80
 1463 0457 0F       		.uleb128 0xf
 1464 0458 CE000000 		.4byte	0xce
ARM GAS  /tmp/cchWVbPq.s 			page 56


 1465 045c 10       		.uleb128 0x10
 1466 045d CE000000 		.4byte	0xce
 1467 0461 6C040000 		.4byte	0x46c
 1468 0465 11       		.uleb128 0x11
 1469 0466 50040000 		.4byte	0x450
 1470 046a 01       		.byte	0x1
 1471 046b 00       		.byte	0
 1472 046c 10       		.uleb128 0x10
 1473 046d CE000000 		.4byte	0xce
 1474 0471 7C040000 		.4byte	0x47c
 1475 0475 11       		.uleb128 0x11
 1476 0476 50040000 		.4byte	0x450
 1477 047a 03       		.byte	0x3
 1478 047b 00       		.byte	0
 1479 047c 12       		.uleb128 0x12
 1480 047d 34       		.byte	0x34
 1481 047e 08       		.byte	0x8
 1482 047f FB01     		.2byte	0x1fb
 1483 0481 2E050000 		.4byte	0x52e
 1484 0485 07       		.uleb128 0x7
 1485 0486 435200   		.ascii	"CR\000"
 1486 0489 08       		.byte	0x8
 1487 048a FD01     		.2byte	0x1fd
 1488 048c 57040000 		.4byte	0x457
 1489 0490 00       		.byte	0
 1490 0491 08       		.uleb128 0x8
 1491 0492 6A070000 		.4byte	.LASF81
 1492 0496 08       		.byte	0x8
 1493 0497 FE01     		.2byte	0x1fe
 1494 0499 57040000 		.4byte	0x457
 1495 049d 04       		.byte	0x4
 1496 049e 07       		.uleb128 0x7
 1497 049f 43495200 		.ascii	"CIR\000"
 1498 04a3 08       		.byte	0x8
 1499 04a4 FF01     		.2byte	0x1ff
 1500 04a6 57040000 		.4byte	0x457
 1501 04aa 08       		.byte	0x8
 1502 04ab 08       		.uleb128 0x8
 1503 04ac 53010000 		.4byte	.LASF82
 1504 04b0 08       		.byte	0x8
 1505 04b1 0002     		.2byte	0x200
 1506 04b3 57040000 		.4byte	0x457
 1507 04b7 0C       		.byte	0xc
 1508 04b8 08       		.uleb128 0x8
 1509 04b9 12010000 		.4byte	.LASF83
 1510 04bd 08       		.byte	0x8
 1511 04be 0102     		.2byte	0x201
 1512 04c0 57040000 		.4byte	0x457
 1513 04c4 10       		.byte	0x10
 1514 04c5 08       		.uleb128 0x8
 1515 04c6 93070000 		.4byte	.LASF84
 1516 04ca 08       		.byte	0x8
 1517 04cb 0202     		.2byte	0x202
 1518 04cd 57040000 		.4byte	0x457
 1519 04d1 14       		.byte	0x14
 1520 04d2 08       		.uleb128 0x8
 1521 04d3 C0040000 		.4byte	.LASF85
ARM GAS  /tmp/cchWVbPq.s 			page 57


 1522 04d7 08       		.byte	0x8
 1523 04d8 0302     		.2byte	0x203
 1524 04da 57040000 		.4byte	0x457
 1525 04de 18       		.byte	0x18
 1526 04df 08       		.uleb128 0x8
 1527 04e0 B3050000 		.4byte	.LASF86
 1528 04e4 08       		.byte	0x8
 1529 04e5 0402     		.2byte	0x204
 1530 04e7 57040000 		.4byte	0x457
 1531 04eb 1C       		.byte	0x1c
 1532 04ec 08       		.uleb128 0x8
 1533 04ed 5D060000 		.4byte	.LASF87
 1534 04f1 08       		.byte	0x8
 1535 04f2 0502     		.2byte	0x205
 1536 04f4 57040000 		.4byte	0x457
 1537 04f8 20       		.byte	0x20
 1538 04f9 07       		.uleb128 0x7
 1539 04fa 43535200 		.ascii	"CSR\000"
 1540 04fe 08       		.byte	0x8
 1541 04ff 0602     		.2byte	0x206
 1542 0501 57040000 		.4byte	0x457
 1543 0505 24       		.byte	0x24
 1544 0506 08       		.uleb128 0x8
 1545 0507 D9030000 		.4byte	.LASF88
 1546 050b 08       		.byte	0x8
 1547 050c 0702     		.2byte	0x207
 1548 050e 57040000 		.4byte	0x457
 1549 0512 28       		.byte	0x28
 1550 0513 08       		.uleb128 0x8
 1551 0514 68060000 		.4byte	.LASF89
 1552 0518 08       		.byte	0x8
 1553 0519 0802     		.2byte	0x208
 1554 051b 57040000 		.4byte	0x457
 1555 051f 2C       		.byte	0x2c
 1556 0520 08       		.uleb128 0x8
 1557 0521 6E060000 		.4byte	.LASF90
 1558 0525 08       		.byte	0x8
 1559 0526 0902     		.2byte	0x209
 1560 0528 57040000 		.4byte	0x457
 1561 052c 30       		.byte	0x30
 1562 052d 00       		.byte	0
 1563 052e 13       		.uleb128 0x13
 1564 052f 90020000 		.4byte	.LASF91
 1565 0533 08       		.byte	0x8
 1566 0534 0A02     		.2byte	0x20a
 1567 0536 7C040000 		.4byte	0x47c
 1568 053a 03       		.uleb128 0x3
 1569 053b 01020000 		.4byte	.LASF92
 1570 053f 09       		.byte	0x9
 1571 0540 65       		.byte	0x65
 1572 0541 1A030000 		.4byte	0x31a
 1573 0545 03       		.uleb128 0x3
 1574 0546 2D030000 		.4byte	.LASF93
 1575 054a 09       		.byte	0x9
 1576 054b 6D       		.byte	0x6d
 1577 054c D9000000 		.4byte	0xd9
 1578 0550 05       		.uleb128 0x5
ARM GAS  /tmp/cchWVbPq.s 			page 58


 1579 0551 C5050000 		.4byte	.LASF94
 1580 0555 04       		.byte	0x4
 1581 0556 09       		.byte	0x9
 1582 0557 89       		.byte	0x89
 1583 0558 69050000 		.4byte	0x569
 1584 055c 14       		.uleb128 0x14
 1585 055d 72313300 		.ascii	"r13\000"
 1586 0561 09       		.byte	0x9
 1587 0562 8A       		.byte	0x8a
 1588 0563 E4050000 		.4byte	0x5e4
 1589 0567 00       		.byte	0
 1590 0568 00       		.byte	0
 1591 0569 05       		.uleb128 0x5
 1592 056a 2A040000 		.4byte	.LASF95
 1593 056e 24       		.byte	0x24
 1594 056f 0A       		.byte	0xa
 1595 0570 FD       		.byte	0xfd
 1596 0571 E4050000 		.4byte	0x5e4
 1597 0575 07       		.uleb128 0x7
 1598 0576 723400   		.ascii	"r4\000"
 1599 0579 0A       		.byte	0xa
 1600 057a 1001     		.2byte	0x110
 1601 057c 3A050000 		.4byte	0x53a
 1602 0580 00       		.byte	0
 1603 0581 07       		.uleb128 0x7
 1604 0582 723500   		.ascii	"r5\000"
 1605 0585 0A       		.byte	0xa
 1606 0586 1101     		.2byte	0x111
 1607 0588 3A050000 		.4byte	0x53a
 1608 058c 04       		.byte	0x4
 1609 058d 07       		.uleb128 0x7
 1610 058e 723600   		.ascii	"r6\000"
 1611 0591 0A       		.byte	0xa
 1612 0592 1201     		.2byte	0x112
 1613 0594 3A050000 		.4byte	0x53a
 1614 0598 08       		.byte	0x8
 1615 0599 07       		.uleb128 0x7
 1616 059a 723700   		.ascii	"r7\000"
 1617 059d 0A       		.byte	0xa
 1618 059e 1301     		.2byte	0x113
 1619 05a0 3A050000 		.4byte	0x53a
 1620 05a4 0C       		.byte	0xc
 1621 05a5 07       		.uleb128 0x7
 1622 05a6 723800   		.ascii	"r8\000"
 1623 05a9 0A       		.byte	0xa
 1624 05aa 1401     		.2byte	0x114
 1625 05ac 3A050000 		.4byte	0x53a
 1626 05b0 10       		.byte	0x10
 1627 05b1 07       		.uleb128 0x7
 1628 05b2 723900   		.ascii	"r9\000"
 1629 05b5 0A       		.byte	0xa
 1630 05b6 1501     		.2byte	0x115
 1631 05b8 3A050000 		.4byte	0x53a
 1632 05bc 14       		.byte	0x14
 1633 05bd 07       		.uleb128 0x7
 1634 05be 72313000 		.ascii	"r10\000"
 1635 05c2 0A       		.byte	0xa
ARM GAS  /tmp/cchWVbPq.s 			page 59


 1636 05c3 1601     		.2byte	0x116
 1637 05c5 3A050000 		.4byte	0x53a
 1638 05c9 18       		.byte	0x18
 1639 05ca 07       		.uleb128 0x7
 1640 05cb 72313100 		.ascii	"r11\000"
 1641 05cf 0A       		.byte	0xa
 1642 05d0 1701     		.2byte	0x117
 1643 05d2 3A050000 		.4byte	0x53a
 1644 05d6 1C       		.byte	0x1c
 1645 05d7 07       		.uleb128 0x7
 1646 05d8 6C7200   		.ascii	"lr\000"
 1647 05db 0A       		.byte	0xa
 1648 05dc 1801     		.2byte	0x118
 1649 05de 3A050000 		.4byte	0x53a
 1650 05e2 20       		.byte	0x20
 1651 05e3 00       		.byte	0
 1652 05e4 09       		.uleb128 0x9
 1653 05e5 04       		.byte	0x4
 1654 05e6 69050000 		.4byte	0x569
 1655 05ea 12       		.uleb128 0x12
 1656 05eb 60       		.byte	0x60
 1657 05ec 0B       		.byte	0xb
 1658 05ed A101     		.2byte	0x1a1
 1659 05ef F6060000 		.4byte	0x6f6
 1660 05f3 07       		.uleb128 0x7
 1661 05f4 43523100 		.ascii	"CR1\000"
 1662 05f8 0B       		.byte	0xb
 1663 05f9 A201     		.2byte	0x1a2
 1664 05fb 57040000 		.4byte	0x457
 1665 05ff 00       		.byte	0
 1666 0600 07       		.uleb128 0x7
 1667 0601 43523200 		.ascii	"CR2\000"
 1668 0605 0B       		.byte	0xb
 1669 0606 A301     		.2byte	0x1a3
 1670 0608 57040000 		.4byte	0x457
 1671 060c 04       		.byte	0x4
 1672 060d 08       		.uleb128 0x8
 1673 060e 58050000 		.4byte	.LASF96
 1674 0612 0B       		.byte	0xb
 1675 0613 A401     		.2byte	0x1a4
 1676 0615 57040000 		.4byte	0x457
 1677 0619 08       		.byte	0x8
 1678 061a 08       		.uleb128 0x8
 1679 061b 0D000000 		.4byte	.LASF97
 1680 061f 0B       		.byte	0xb
 1681 0620 A501     		.2byte	0x1a5
 1682 0622 57040000 		.4byte	0x457
 1683 0626 0C       		.byte	0xc
 1684 0627 07       		.uleb128 0x7
 1685 0628 535200   		.ascii	"SR\000"
 1686 062b 0B       		.byte	0xb
 1687 062c A601     		.2byte	0x1a6
 1688 062e 57040000 		.4byte	0x457
 1689 0632 10       		.byte	0x10
 1690 0633 07       		.uleb128 0x7
 1691 0634 45475200 		.ascii	"EGR\000"
 1692 0638 0B       		.byte	0xb
ARM GAS  /tmp/cchWVbPq.s 			page 60


 1693 0639 A701     		.2byte	0x1a7
 1694 063b 57040000 		.4byte	0x457
 1695 063f 14       		.byte	0x14
 1696 0640 08       		.uleb128 0x8
 1697 0641 EC000000 		.4byte	.LASF98
 1698 0645 0B       		.byte	0xb
 1699 0646 A801     		.2byte	0x1a8
 1700 0648 57040000 		.4byte	0x457
 1701 064c 18       		.byte	0x18
 1702 064d 08       		.uleb128 0x8
 1703 064e F2000000 		.4byte	.LASF99
 1704 0652 0B       		.byte	0xb
 1705 0653 A901     		.2byte	0x1a9
 1706 0655 57040000 		.4byte	0x457
 1707 0659 1C       		.byte	0x1c
 1708 065a 08       		.uleb128 0x8
 1709 065b 99010000 		.4byte	.LASF100
 1710 065f 0B       		.byte	0xb
 1711 0660 AA01     		.2byte	0x1aa
 1712 0662 57040000 		.4byte	0x457
 1713 0666 20       		.byte	0x20
 1714 0667 07       		.uleb128 0x7
 1715 0668 434E5400 		.ascii	"CNT\000"
 1716 066c 0B       		.byte	0xb
 1717 066d AB01     		.2byte	0x1ab
 1718 066f 57040000 		.4byte	0x457
 1719 0673 24       		.byte	0x24
 1720 0674 07       		.uleb128 0x7
 1721 0675 50534300 		.ascii	"PSC\000"
 1722 0679 0B       		.byte	0xb
 1723 067a AC01     		.2byte	0x1ac
 1724 067c 57040000 		.4byte	0x457
 1725 0680 28       		.byte	0x28
 1726 0681 07       		.uleb128 0x7
 1727 0682 41525200 		.ascii	"ARR\000"
 1728 0686 0B       		.byte	0xb
 1729 0687 AD01     		.2byte	0x1ad
 1730 0689 57040000 		.4byte	0x457
 1731 068d 2C       		.byte	0x2c
 1732 068e 07       		.uleb128 0x7
 1733 068f 52435200 		.ascii	"RCR\000"
 1734 0693 0B       		.byte	0xb
 1735 0694 AE01     		.2byte	0x1ae
 1736 0696 57040000 		.4byte	0x457
 1737 069a 30       		.byte	0x30
 1738 069b 07       		.uleb128 0x7
 1739 069c 43435200 		.ascii	"CCR\000"
 1740 06a0 0B       		.byte	0xb
 1741 06a1 AF01     		.2byte	0x1af
 1742 06a3 F6060000 		.4byte	0x6f6
 1743 06a7 34       		.byte	0x34
 1744 06a8 08       		.uleb128 0x8
 1745 06a9 C5000000 		.4byte	.LASF101
 1746 06ad 0B       		.byte	0xb
 1747 06ae B001     		.2byte	0x1b0
 1748 06b0 57040000 		.4byte	0x457
 1749 06b4 44       		.byte	0x44
ARM GAS  /tmp/cchWVbPq.s 			page 61


 1750 06b5 07       		.uleb128 0x7
 1751 06b6 44435200 		.ascii	"DCR\000"
 1752 06ba 0B       		.byte	0xb
 1753 06bb B101     		.2byte	0x1b1
 1754 06bd 57040000 		.4byte	0x457
 1755 06c1 48       		.byte	0x48
 1756 06c2 08       		.uleb128 0x8
 1757 06c3 64050000 		.4byte	.LASF102
 1758 06c7 0B       		.byte	0xb
 1759 06c8 B201     		.2byte	0x1b2
 1760 06ca 57040000 		.4byte	0x457
 1761 06ce 4C       		.byte	0x4c
 1762 06cf 07       		.uleb128 0x7
 1763 06d0 4F5200   		.ascii	"OR\000"
 1764 06d3 0B       		.byte	0xb
 1765 06d4 B301     		.2byte	0x1b3
 1766 06d6 57040000 		.4byte	0x457
 1767 06da 50       		.byte	0x50
 1768 06db 08       		.uleb128 0x8
 1769 06dc F8000000 		.4byte	.LASF103
 1770 06e0 0B       		.byte	0xb
 1771 06e1 B401     		.2byte	0x1b4
 1772 06e3 57040000 		.4byte	0x457
 1773 06e7 54       		.byte	0x54
 1774 06e8 08       		.uleb128 0x8
 1775 06e9 E6040000 		.4byte	.LASF104
 1776 06ed 0B       		.byte	0xb
 1777 06ee B501     		.2byte	0x1b5
 1778 06f0 FB060000 		.4byte	0x6fb
 1779 06f4 58       		.byte	0x58
 1780 06f5 00       		.byte	0
 1781 06f6 0F       		.uleb128 0xf
 1782 06f7 6C040000 		.4byte	0x46c
 1783 06fb 0F       		.uleb128 0xf
 1784 06fc 5C040000 		.4byte	0x45c
 1785 0700 13       		.uleb128 0x13
 1786 0701 FD020000 		.4byte	.LASF105
 1787 0705 0B       		.byte	0xb
 1788 0706 B601     		.2byte	0x1b6
 1789 0708 EA050000 		.4byte	0x5ea
 1790 070c 15       		.uleb128 0x15
 1791 070d 04       		.byte	0x4
 1792 070e 0C       		.byte	0xc
 1793 070f 38       		.byte	0x38
 1794 0710 21070000 		.4byte	0x721
 1795 0714 06       		.uleb128 0x6
 1796 0715 AC050000 		.4byte	.LASF106
 1797 0719 0C       		.byte	0xc
 1798 071a 3C       		.byte	0x3c
 1799 071b E4000000 		.4byte	0xe4
 1800 071f 00       		.byte	0
 1801 0720 00       		.byte	0
 1802 0721 03       		.uleb128 0x3
 1803 0722 C8030000 		.4byte	.LASF107
 1804 0726 0C       		.byte	0xc
 1805 0727 3D       		.byte	0x3d
 1806 0728 0C070000 		.4byte	0x70c
ARM GAS  /tmp/cchWVbPq.s 			page 62


 1807 072c 16       		.uleb128 0x16
 1808 072d 04       		.byte	0x4
 1809 072e 07       		.byte	0x7
 1810 072f FA       		.byte	0xfa
 1811 0730 95070000 		.4byte	0x795
 1812 0734 17       		.uleb128 0x17
 1813 0735 19000000 		.4byte	.LASF108
 1814 0739 07       		.byte	0x7
 1815 073a 0101     		.2byte	0x101
 1816 073c 1B010000 		.4byte	0x11b
 1817 0740 17       		.uleb128 0x17
 1818 0741 8D000000 		.4byte	.LASF109
 1819 0745 07       		.byte	0x7
 1820 0746 0801     		.2byte	0x108
 1821 0748 1B010000 		.4byte	0x11b
 1822 074c 17       		.uleb128 0x17
 1823 074d 5C070000 		.4byte	.LASF110
 1824 0751 07       		.byte	0x7
 1825 0752 0F01     		.2byte	0x10f
 1826 0754 1A030000 		.4byte	0x31a
 1827 0758 17       		.uleb128 0x17
 1828 0759 84030000 		.4byte	.LASF111
 1829 075d 07       		.byte	0x7
 1830 075e 1601     		.2byte	0x116
 1831 0760 95070000 		.4byte	0x795
 1832 0764 17       		.uleb128 0x17
 1833 0765 A1000000 		.4byte	.LASF112
 1834 0769 07       		.byte	0x7
 1835 076a 1B01     		.2byte	0x11b
 1836 076c 1B010000 		.4byte	0x11b
 1837 0770 17       		.uleb128 0x17
 1838 0771 69020000 		.4byte	.LASF113
 1839 0775 07       		.byte	0x7
 1840 0776 2401     		.2byte	0x124
 1841 0778 C0070000 		.4byte	0x7c0
 1842 077c 17       		.uleb128 0x17
 1843 077d 0E050000 		.4byte	.LASF114
 1844 0781 07       		.byte	0x7
 1845 0782 2D01     		.2byte	0x12d
 1846 0784 F7070000 		.4byte	0x7f7
 1847 0788 17       		.uleb128 0x17
 1848 0789 B1040000 		.4byte	.LASF115
 1849 078d 07       		.byte	0x7
 1850 078e 3501     		.2byte	0x135
 1851 0790 26010000 		.4byte	0x126
 1852 0794 00       		.byte	0
 1853 0795 09       		.uleb128 0x9
 1854 0796 04       		.byte	0x4
 1855 0797 32020000 		.4byte	0x232
 1856 079b 05       		.uleb128 0x5
 1857 079c D9040000 		.4byte	.LASF116
 1858 07a0 0C       		.byte	0xc
 1859 07a1 0D       		.byte	0xd
 1860 07a2 34       		.byte	0x34
 1861 07a3 C0070000 		.4byte	0x7c0
 1862 07a7 06       		.uleb128 0x6
 1863 07a8 BD010000 		.4byte	.LASF117
ARM GAS  /tmp/cchWVbPq.s 			page 63


 1864 07ac 0D       		.byte	0xd
 1865 07ad 35       		.byte	0x35
 1866 07ae 67020000 		.4byte	0x267
 1867 07b2 00       		.byte	0
 1868 07b3 06       		.uleb128 0x6
 1869 07b4 AB020000 		.4byte	.LASF118
 1870 07b8 0D       		.byte	0xd
 1871 07b9 37       		.byte	0x37
 1872 07ba 31010000 		.4byte	0x131
 1873 07be 08       		.byte	0x8
 1874 07bf 00       		.byte	0
 1875 07c0 09       		.uleb128 0x9
 1876 07c1 04       		.byte	0x4
 1877 07c2 9B070000 		.4byte	0x79b
 1878 07c6 05       		.uleb128 0x5
 1879 07c7 40060000 		.4byte	.LASF119
 1880 07cb 10       		.byte	0x10
 1881 07cc 0E       		.byte	0xe
 1882 07cd 39       		.byte	0x39
 1883 07ce F7070000 		.4byte	0x7f7
 1884 07d2 06       		.uleb128 0x6
 1885 07d3 0A010000 		.4byte	.LASF120
 1886 07d7 0E       		.byte	0xe
 1887 07d8 3A       		.byte	0x3a
 1888 07d9 67020000 		.4byte	0x267
 1889 07dd 00       		.byte	0
 1890 07de 06       		.uleb128 0x6
 1891 07df 7D070000 		.4byte	.LASF121
 1892 07e3 0E       		.byte	0xe
 1893 07e4 3C       		.byte	0x3c
 1894 07e5 3D020000 		.4byte	0x23d
 1895 07e9 08       		.byte	0x8
 1896 07ea 06       		.uleb128 0x6
 1897 07eb 72050000 		.4byte	.LASF122
 1898 07ef 0E       		.byte	0xe
 1899 07f0 3E       		.byte	0x3e
 1900 07f1 35080000 		.4byte	0x835
 1901 07f5 0C       		.byte	0xc
 1902 07f6 00       		.byte	0
 1903 07f7 09       		.uleb128 0x9
 1904 07f8 04       		.byte	0x4
 1905 07f9 C6070000 		.4byte	0x7c6
 1906 07fd 09       		.uleb128 0x9
 1907 07fe 04       		.byte	0x4
 1908 07ff 03080000 		.4byte	0x803
 1909 0803 18       		.uleb128 0x18
 1910 0804 08080000 		.4byte	0x808
 1911 0808 04       		.uleb128 0x4
 1912 0809 01       		.byte	0x1
 1913 080a 08       		.byte	0x8
 1914 080b 48050000 		.4byte	.LASF123
 1915 080f 09       		.uleb128 0x9
 1916 0810 04       		.byte	0x4
 1917 0811 1C030000 		.4byte	0x31c
 1918 0815 0F       		.uleb128 0xf
 1919 0816 FD070000 		.4byte	0x7fd
 1920 081a 10       		.uleb128 0x10
ARM GAS  /tmp/cchWVbPq.s 			page 64


 1921 081b 45050000 		.4byte	0x545
 1922 081f 2A080000 		.4byte	0x82a
 1923 0823 11       		.uleb128 0x11
 1924 0824 50040000 		.4byte	0x450
 1925 0828 1A       		.byte	0x1a
 1926 0829 00       		.byte	0
 1927 082a 03       		.uleb128 0x3
 1928 082b 12020000 		.4byte	.LASF124
 1929 082f 0E       		.byte	0xe
 1930 0830 34       		.byte	0x34
 1931 0831 C6070000 		.4byte	0x7c6
 1932 0835 09       		.uleb128 0x9
 1933 0836 04       		.byte	0x4
 1934 0837 2A080000 		.4byte	0x82a
 1935 083b 04       		.uleb128 0x4
 1936 083c 01       		.byte	0x1
 1937 083d 02       		.byte	0x2
 1938 083e 65040000 		.4byte	.LASF125
 1939 0842 19       		.uleb128 0x19
 1940 0843 01       		.byte	0x1
 1941 0844 0F       		.byte	0xf
 1942 0845 31       		.byte	0x31
 1943 0846 69080000 		.4byte	0x869
 1944 084a 1A       		.uleb128 0x1a
 1945 084b B1020000 		.4byte	.LASF126
 1946 084f 00       		.sleb128 0
 1947 0850 1A       		.uleb128 0x1a
 1948 0851 F6040000 		.4byte	.LASF127
 1949 0855 01       		.sleb128 1
 1950 0856 1A       		.uleb128 0x1a
 1951 0857 8A030000 		.4byte	.LASF128
 1952 085b 02       		.sleb128 2
 1953 085c 1A       		.uleb128 0x1a
 1954 085d 1B010000 		.4byte	.LASF129
 1955 0861 03       		.sleb128 3
 1956 0862 1A       		.uleb128 0x1a
 1957 0863 3C000000 		.4byte	.LASF130
 1958 0867 04       		.sleb128 4
 1959 0868 00       		.byte	0
 1960 0869 03       		.uleb128 0x3
 1961 086a 29020000 		.4byte	.LASF131
 1962 086e 0F       		.byte	0xf
 1963 086f 37       		.byte	0x37
 1964 0870 42080000 		.4byte	0x842
 1965 0874 03       		.uleb128 0x3
 1966 0875 F7010000 		.4byte	.LASF132
 1967 0879 0F       		.byte	0xf
 1968 087a 3C       		.byte	0x3c
 1969 087b 7F080000 		.4byte	0x87f
 1970 087f 0A       		.uleb128 0xa
 1971 0880 F7010000 		.4byte	.LASF132
 1972 0884 10       		.byte	0x10
 1973 0885 10       		.byte	0x10
 1974 0886 F901     		.2byte	0x1f9
 1975 0888 C1080000 		.4byte	0x8c1
 1976 088c 08       		.uleb128 0x8
 1977 088d 31010000 		.4byte	.LASF133
ARM GAS  /tmp/cchWVbPq.s 			page 65


 1978 0891 10       		.byte	0x10
 1979 0892 FD01     		.2byte	0x1fd
 1980 0894 69080000 		.4byte	0x869
 1981 0898 00       		.byte	0
 1982 0899 08       		.uleb128 0x8
 1983 089a 5D050000 		.4byte	.LASF134
 1984 089e 10       		.byte	0x10
 1985 089f 0102     		.2byte	0x201
 1986 08a1 45090000 		.4byte	0x945
 1987 08a5 04       		.byte	0x4
 1988 08a6 08       		.uleb128 0x8
 1989 08a7 77070000 		.4byte	.LASF135
 1990 08ab 10       		.byte	0x10
 1991 08ac 0902     		.2byte	0x209
 1992 08ae CE000000 		.4byte	0xce
 1993 08b2 08       		.byte	0x8
 1994 08b3 07       		.uleb128 0x7
 1995 08b4 74696D00 		.ascii	"tim\000"
 1996 08b8 10       		.byte	0x10
 1997 08b9 0D02     		.2byte	0x20d
 1998 08bb 50090000 		.4byte	0x950
 1999 08bf 0C       		.byte	0xc
 2000 08c0 00       		.byte	0
 2001 08c1 03       		.uleb128 0x3
 2002 08c2 C5010000 		.4byte	.LASF136
 2003 08c6 0F       		.byte	0xf
 2004 08c7 43       		.byte	0x43
 2005 08c8 CC080000 		.4byte	0x8cc
 2006 08cc 09       		.uleb128 0x9
 2007 08cd 04       		.byte	0x4
 2008 08ce D2080000 		.4byte	0x8d2
 2009 08d2 0B       		.uleb128 0xb
 2010 08d3 DD080000 		.4byte	0x8dd
 2011 08d7 0C       		.uleb128 0xc
 2012 08d8 DD080000 		.4byte	0x8dd
 2013 08dc 00       		.byte	0
 2014 08dd 09       		.uleb128 0x9
 2015 08de 04       		.byte	0x4
 2016 08df 74080000 		.4byte	0x874
 2017 08e3 13       		.uleb128 0x13
 2018 08e4 BC020000 		.4byte	.LASF137
 2019 08e8 10       		.byte	0x10
 2020 08e9 CF01     		.2byte	0x1cf
 2021 08eb CE000000 		.4byte	0xce
 2022 08ef 13       		.uleb128 0x13
 2023 08f0 4A010000 		.4byte	.LASF138
 2024 08f4 10       		.byte	0x10
 2025 08f5 D401     		.2byte	0x1d4
 2026 08f7 CE000000 		.4byte	0xce
 2027 08fb 12       		.uleb128 0x12
 2028 08fc 10       		.byte	0x10
 2029 08fd 10       		.byte	0x10
 2030 08fe DA01     		.2byte	0x1da
 2031 0900 39090000 		.4byte	0x939
 2032 0904 08       		.uleb128 0x8
 2033 0905 CA000000 		.4byte	.LASF139
 2034 0909 10       		.byte	0x10
ARM GAS  /tmp/cchWVbPq.s 			page 66


 2035 090a E001     		.2byte	0x1e0
 2036 090c E3080000 		.4byte	0x8e3
 2037 0910 00       		.byte	0
 2038 0911 08       		.uleb128 0x8
 2039 0912 E7020000 		.4byte	.LASF140
 2040 0916 10       		.byte	0x10
 2041 0917 E701     		.2byte	0x1e7
 2042 0919 C1080000 		.4byte	0x8c1
 2043 091d 04       		.byte	0x4
 2044 091e 07       		.uleb128 0x7
 2045 091f 63723200 		.ascii	"cr2\000"
 2046 0923 10       		.byte	0x10
 2047 0924 ED01     		.2byte	0x1ed
 2048 0926 CE000000 		.4byte	0xce
 2049 092a 08       		.byte	0x8
 2050 092b 08       		.uleb128 0x8
 2051 092c 9A070000 		.4byte	.LASF141
 2052 0930 10       		.byte	0x10
 2053 0931 F301     		.2byte	0x1f3
 2054 0933 CE000000 		.4byte	0xce
 2055 0937 0C       		.byte	0xc
 2056 0938 00       		.byte	0
 2057 0939 13       		.uleb128 0x13
 2058 093a BB050000 		.4byte	.LASF142
 2059 093e 10       		.byte	0x10
 2060 093f F401     		.2byte	0x1f4
 2061 0941 FB080000 		.4byte	0x8fb
 2062 0945 09       		.uleb128 0x9
 2063 0946 04       		.byte	0x4
 2064 0947 4B090000 		.4byte	0x94b
 2065 094b 18       		.uleb128 0x18
 2066 094c 39090000 		.4byte	0x939
 2067 0950 09       		.uleb128 0x9
 2068 0951 04       		.byte	0x4
 2069 0952 00070000 		.4byte	0x700
 2070 0956 1B       		.uleb128 0x1b
 2071 0957 50060000 		.4byte	.LASF143
 2072 095b 01       		.byte	0x1
 2073 095c B702     		.2byte	0x2b7
 2074 095e 01       		.byte	0x1
 2075 095f 70090000 		.4byte	0x970
 2076 0963 1C       		.uleb128 0x1c
 2077 0964 A6020000 		.4byte	.LASF145
 2078 0968 01       		.byte	0x1
 2079 0969 B702     		.2byte	0x2b7
 2080 096b DD080000 		.4byte	0x8dd
 2081 096f 00       		.byte	0
 2082 0970 1B       		.uleb128 0x1b
 2083 0971 9B030000 		.4byte	.LASF144
 2084 0975 01       		.byte	0x1
 2085 0976 4A03     		.2byte	0x34a
 2086 0978 01       		.byte	0x1
 2087 0979 8A090000 		.4byte	0x98a
 2088 097d 1C       		.uleb128 0x1c
 2089 097e A6020000 		.4byte	.LASF145
 2090 0982 01       		.byte	0x1
 2091 0983 4A03     		.2byte	0x34a
ARM GAS  /tmp/cchWVbPq.s 			page 67


 2092 0985 DD080000 		.4byte	0x8dd
 2093 0989 00       		.byte	0
 2094 098a 1D       		.uleb128 0x1d
 2095 098b F0020000 		.4byte	.LASF146
 2096 098f 01       		.byte	0x1
 2097 0990 9601     		.2byte	0x196
 2098 0992 00000000 		.4byte	.LFB273
 2099 0996 14000000 		.4byte	.LFE273-.LFB273
 2100 099a 01       		.uleb128 0x1
 2101 099b 9C       		.byte	0x9c
 2102 099c B4090000 		.4byte	0x9b4
 2103 09a0 1E       		.uleb128 0x1e
 2104 09a1 0A000000 		.4byte	.LVL0
 2105 09a5 9D0B0000 		.4byte	0xb9d
 2106 09a9 1F       		.uleb128 0x1f
 2107 09aa 01       		.uleb128 0x1
 2108 09ab 50       		.byte	0x50
 2109 09ac 05       		.uleb128 0x5
 2110 09ad 03       		.byte	0x3
 2111 09ae 00000000 		.4byte	.LANCHOR0
 2112 09b2 00       		.byte	0
 2113 09b3 00       		.byte	0
 2114 09b4 1D       		.uleb128 0x1d
 2115 09b5 1B060000 		.4byte	.LASF147
 2116 09b9 01       		.byte	0x1
 2117 09ba E801     		.2byte	0x1e8
 2118 09bc 00000000 		.4byte	.LFB274
 2119 09c0 68000000 		.4byte	.LFE274-.LFB274
 2120 09c4 01       		.uleb128 0x1
 2121 09c5 9C       		.byte	0x9c
 2122 09c6 080A0000 		.4byte	0xa08
 2123 09ca 20       		.uleb128 0x20
 2124 09cb A6020000 		.4byte	.LASF145
 2125 09cf 01       		.byte	0x1
 2126 09d0 E801     		.2byte	0x1e8
 2127 09d2 DD080000 		.4byte	0x8dd
 2128 09d6 00000000 		.4byte	.LLST0
 2129 09da 21       		.uleb128 0x21
 2130 09db 70736300 		.ascii	"psc\000"
 2131 09df 01       		.byte	0x1
 2132 09e0 E901     		.2byte	0x1e9
 2133 09e2 B8000000 		.4byte	0xb8
 2134 09e6 42000000 		.4byte	.LLST1
 2135 09ea 22       		.uleb128 0x22
 2136 09eb 68000000 		.4byte	.LASF161
 2137 09ef 180A0000 		.4byte	0xa18
 2138 09f3 23       		.uleb128 0x23
 2139 09f4 54000000 		.4byte	.LVL7
 2140 09f8 AE0B0000 		.4byte	0xbae
 2141 09fc 1F       		.uleb128 0x1f
 2142 09fd 01       		.uleb128 0x1
 2143 09fe 51       		.byte	0x51
 2144 09ff 01       		.uleb128 0x1
 2145 0a00 37       		.byte	0x37
 2146 0a01 1F       		.uleb128 0x1f
 2147 0a02 01       		.uleb128 0x1
 2148 0a03 50       		.byte	0x50
ARM GAS  /tmp/cchWVbPq.s 			page 68


 2149 0a04 01       		.uleb128 0x1
 2150 0a05 49       		.byte	0x49
 2151 0a06 00       		.byte	0
 2152 0a07 00       		.byte	0
 2153 0a08 10       		.uleb128 0x10
 2154 0a09 08080000 		.4byte	0x808
 2155 0a0d 180A0000 		.4byte	0xa18
 2156 0a11 11       		.uleb128 0x11
 2157 0a12 50040000 		.4byte	0x450
 2158 0a16 0D       		.byte	0xd
 2159 0a17 00       		.byte	0
 2160 0a18 18       		.uleb128 0x18
 2161 0a19 080A0000 		.4byte	0xa08
 2162 0a1d 24       		.uleb128 0x24
 2163 0a1e 56090000 		.4byte	0x956
 2164 0a22 00000000 		.4byte	.LFB275
 2165 0a26 34000000 		.4byte	.LFE275-.LFB275
 2166 0a2a 01       		.uleb128 0x1
 2167 0a2b 9C       		.byte	0x9c
 2168 0a2c 5F0A0000 		.4byte	0xa5f
 2169 0a30 25       		.uleb128 0x25
 2170 0a31 63090000 		.4byte	0x963
 2171 0a35 55000000 		.4byte	.LLST2
 2172 0a39 26       		.uleb128 0x26
 2173 0a3a 1A000000 		.4byte	.LBB6
 2174 0a3e 1A000000 		.4byte	.LBE6-.LBB6
 2175 0a42 27       		.uleb128 0x27
 2176 0a43 63090000 		.4byte	0x963
 2177 0a47 06       		.uleb128 0x6
 2178 0a48 03       		.byte	0x3
 2179 0a49 00000000 		.4byte	GPTD1
 2180 0a4d 9F       		.byte	0x9f
 2181 0a4e 23       		.uleb128 0x23
 2182 0a4f 20000000 		.4byte	.LVL13
 2183 0a53 C40B0000 		.4byte	0xbc4
 2184 0a57 1F       		.uleb128 0x1f
 2185 0a58 01       		.uleb128 0x1
 2186 0a59 50       		.byte	0x50
 2187 0a5a 01       		.uleb128 0x1
 2188 0a5b 49       		.byte	0x49
 2189 0a5c 00       		.byte	0
 2190 0a5d 00       		.byte	0
 2191 0a5e 00       		.byte	0
 2192 0a5f 1D       		.uleb128 0x1d
 2193 0a60 EB030000 		.4byte	.LASF148
 2194 0a64 01       		.byte	0x1
 2195 0a65 3403     		.2byte	0x334
 2196 0a67 00000000 		.4byte	.LFB276
 2197 0a6b 22000000 		.4byte	.LFE276-.LFB276
 2198 0a6f 01       		.uleb128 0x1
 2199 0a70 9C       		.byte	0x9c
 2200 0a71 960A0000 		.4byte	0xa96
 2201 0a75 20       		.uleb128 0x20
 2202 0a76 A6020000 		.4byte	.LASF145
 2203 0a7a 01       		.byte	0x1
 2204 0a7b 3403     		.2byte	0x334
 2205 0a7d DD080000 		.4byte	0x8dd
ARM GAS  /tmp/cchWVbPq.s 			page 69


 2206 0a81 8F000000 		.4byte	.LLST3
 2207 0a85 20       		.uleb128 0x20
 2208 0a86 E6010000 		.4byte	.LASF149
 2209 0a8a 01       		.byte	0x1
 2210 0a8b 3403     		.2byte	0x334
 2211 0a8d EF080000 		.4byte	0x8ef
 2212 0a91 B0000000 		.4byte	.LLST4
 2213 0a95 00       		.byte	0
 2214 0a96 24       		.uleb128 0x24
 2215 0a97 70090000 		.4byte	0x970
 2216 0a9b 00000000 		.4byte	.LFB277
 2217 0a9f 12000000 		.4byte	.LFE277-.LFB277
 2218 0aa3 01       		.uleb128 0x1
 2219 0aa4 9C       		.byte	0x9c
 2220 0aa5 B10A0000 		.4byte	0xab1
 2221 0aa9 27       		.uleb128 0x27
 2222 0aaa 7D090000 		.4byte	0x97d
 2223 0aae 01       		.uleb128 0x1
 2224 0aaf 50       		.byte	0x50
 2225 0ab0 00       		.byte	0
 2226 0ab1 1D       		.uleb128 0x1d
 2227 0ab2 70020000 		.4byte	.LASF150
 2228 0ab6 01       		.byte	0x1
 2229 0ab7 5E03     		.2byte	0x35e
 2230 0ab9 00000000 		.4byte	.LFB278
 2231 0abd 1A000000 		.4byte	.LFE278-.LFB278
 2232 0ac1 01       		.uleb128 0x1
 2233 0ac2 9C       		.byte	0x9c
 2234 0ac3 E80A0000 		.4byte	0xae8
 2235 0ac7 20       		.uleb128 0x20
 2236 0ac8 A6020000 		.4byte	.LASF145
 2237 0acc 01       		.byte	0x1
 2238 0acd 5E03     		.2byte	0x35e
 2239 0acf DD080000 		.4byte	0x8dd
 2240 0ad3 EE000000 		.4byte	.LLST5
 2241 0ad7 20       		.uleb128 0x20
 2242 0ad8 E6010000 		.4byte	.LASF149
 2243 0adc 01       		.byte	0x1
 2244 0add 5E03     		.2byte	0x35e
 2245 0adf EF080000 		.4byte	0x8ef
 2246 0ae3 0F010000 		.4byte	.LLST6
 2247 0ae7 00       		.byte	0
 2248 0ae8 1D       		.uleb128 0x1d
 2249 0ae9 0A040000 		.4byte	.LASF151
 2250 0aed 01       		.byte	0x1
 2251 0aee 6F03     		.2byte	0x36f
 2252 0af0 00000000 		.4byte	.LFB279
 2253 0af4 26000000 		.4byte	.LFE279-.LFB279
 2254 0af8 01       		.uleb128 0x1
 2255 0af9 9C       		.byte	0x9c
 2256 0afa 3A0B0000 		.4byte	0xb3a
 2257 0afe 20       		.uleb128 0x20
 2258 0aff A6020000 		.4byte	.LASF145
 2259 0b03 01       		.byte	0x1
 2260 0b04 6F03     		.2byte	0x36f
 2261 0b06 DD080000 		.4byte	0x8dd
 2262 0b0a 2F010000 		.4byte	.LLST7
ARM GAS  /tmp/cchWVbPq.s 			page 70


 2263 0b0e 28       		.uleb128 0x28
 2264 0b0f 70090000 		.4byte	0x970
 2265 0b13 12000000 		.4byte	.LBB8
 2266 0b17 0C000000 		.4byte	.LBE8-.LBB8
 2267 0b1b 01       		.byte	0x1
 2268 0b1c 7403     		.2byte	0x374
 2269 0b1e 2C0B0000 		.4byte	0xb2c
 2270 0b22 25       		.uleb128 0x25
 2271 0b23 7D090000 		.4byte	0x97d
 2272 0b27 50010000 		.4byte	.LLST8
 2273 0b2b 00       		.byte	0
 2274 0b2c 29       		.uleb128 0x29
 2275 0b2d 24000000 		.4byte	.LVL26
 2276 0b31 1F       		.uleb128 0x1f
 2277 0b32 01       		.uleb128 0x1
 2278 0b33 50       		.byte	0x50
 2279 0b34 03       		.uleb128 0x3
 2280 0b35 F3       		.byte	0xf3
 2281 0b36 01       		.uleb128 0x1
 2282 0b37 50       		.byte	0x50
 2283 0b38 00       		.byte	0
 2284 0b39 00       		.byte	0
 2285 0b3a 2A       		.uleb128 0x2a
 2286 0b3b 29000000 		.4byte	.LASF152
 2287 0b3f 01       		.byte	0x1
 2288 0b40 9B       		.byte	0x9b
 2289 0b41 00000000 		.4byte	.LFB272
 2290 0b45 14000000 		.4byte	.LFE272-.LFB272
 2291 0b49 01       		.uleb128 0x1
 2292 0b4a 9C       		.byte	0x9c
 2293 0b4b 700B0000 		.4byte	0xb70
 2294 0b4f 2B       		.uleb128 0x2b
 2295 0b50 08000000 		.4byte	.LVL27
 2296 0b54 E80A0000 		.4byte	0xae8
 2297 0b58 660B0000 		.4byte	0xb66
 2298 0b5c 1F       		.uleb128 0x1f
 2299 0b5d 01       		.uleb128 0x1
 2300 0b5e 50       		.byte	0x50
 2301 0b5f 05       		.uleb128 0x5
 2302 0b60 03       		.byte	0x3
 2303 0b61 00000000 		.4byte	.LANCHOR0
 2304 0b65 00       		.byte	0
 2305 0b66 2C       		.uleb128 0x2c
 2306 0b67 10000000 		.4byte	.LVL28
 2307 0b6b D50B0000 		.4byte	0xbd5
 2308 0b6f 00       		.byte	0
 2309 0b70 2D       		.uleb128 0x2d
 2310 0b71 81040000 		.4byte	.LASF153
 2311 0b75 11       		.byte	0x11
 2312 0b76 FA06     		.2byte	0x6fa
 2313 0b78 7C0B0000 		.4byte	0xb7c
 2314 0b7c 0F       		.uleb128 0xf
 2315 0b7d C3000000 		.4byte	0xc3
 2316 0b81 2E       		.uleb128 0x2e
 2317 0b82 636800   		.ascii	"ch\000"
 2318 0b85 07       		.byte	0x7
 2319 0b86 0B02     		.2byte	0x20b
ARM GAS  /tmp/cchWVbPq.s 			page 71


 2320 0b88 E9030000 		.4byte	0x3e9
 2321 0b8c 2F       		.uleb128 0x2f
 2322 0b8d BF000000 		.4byte	.LASF154
 2323 0b91 01       		.byte	0x1
 2324 0b92 2A       		.byte	0x2a
 2325 0b93 74080000 		.4byte	0x874
 2326 0b97 05       		.uleb128 0x5
 2327 0b98 03       		.byte	0x3
 2328 0b99 00000000 		.4byte	GPTD1
 2329 0b9d 30       		.uleb128 0x30
 2330 0b9e 49020000 		.4byte	.LASF155
 2331 0ba2 0F       		.byte	0xf
 2332 0ba3 7A       		.byte	0x7a
 2333 0ba4 AE0B0000 		.4byte	0xbae
 2334 0ba8 0C       		.uleb128 0xc
 2335 0ba9 DD080000 		.4byte	0x8dd
 2336 0bad 00       		.byte	0
 2337 0bae 30       		.uleb128 0x30
 2338 0baf DB000000 		.4byte	.LASF156
 2339 0bb3 12       		.byte	0x12
 2340 0bb4 4E       		.byte	0x4e
 2341 0bb5 C40B0000 		.4byte	0xbc4
 2342 0bb9 0C       		.uleb128 0xc
 2343 0bba CE000000 		.4byte	0xce
 2344 0bbe 0C       		.uleb128 0xc
 2345 0bbf CE000000 		.4byte	0xce
 2346 0bc3 00       		.byte	0
 2347 0bc4 30       		.uleb128 0x30
 2348 0bc5 57020000 		.4byte	.LASF157
 2349 0bc9 12       		.byte	0x12
 2350 0bca 4F       		.byte	0x4f
 2351 0bcb D50B0000 		.4byte	0xbd5
 2352 0bcf 0C       		.uleb128 0xc
 2353 0bd0 CE000000 		.4byte	0xce
 2354 0bd4 00       		.byte	0
 2355 0bd5 31       		.uleb128 0x31
 2356 0bd6 D4020000 		.4byte	.LASF162
 2357 0bda 0A       		.byte	0xa
 2358 0bdb 6F01     		.2byte	0x16f
 2359 0bdd 00       		.byte	0
 2360              		.section	.debug_abbrev,"",%progbits
 2361              	.Ldebug_abbrev0:
 2362 0000 01       		.uleb128 0x1
 2363 0001 11       		.uleb128 0x11
 2364 0002 01       		.byte	0x1
 2365 0003 25       		.uleb128 0x25
 2366 0004 0E       		.uleb128 0xe
 2367 0005 13       		.uleb128 0x13
 2368 0006 0B       		.uleb128 0xb
 2369 0007 03       		.uleb128 0x3
 2370 0008 0E       		.uleb128 0xe
 2371 0009 1B       		.uleb128 0x1b
 2372 000a 0E       		.uleb128 0xe
 2373 000b 55       		.uleb128 0x55
 2374 000c 17       		.uleb128 0x17
 2375 000d 11       		.uleb128 0x11
 2376 000e 01       		.uleb128 0x1
ARM GAS  /tmp/cchWVbPq.s 			page 72


 2377 000f 10       		.uleb128 0x10
 2378 0010 17       		.uleb128 0x17
 2379 0011 00       		.byte	0
 2380 0012 00       		.byte	0
 2381 0013 02       		.uleb128 0x2
 2382 0014 24       		.uleb128 0x24
 2383 0015 00       		.byte	0
 2384 0016 0B       		.uleb128 0xb
 2385 0017 0B       		.uleb128 0xb
 2386 0018 3E       		.uleb128 0x3e
 2387 0019 0B       		.uleb128 0xb
 2388 001a 03       		.uleb128 0x3
 2389 001b 08       		.uleb128 0x8
 2390 001c 00       		.byte	0
 2391 001d 00       		.byte	0
 2392 001e 03       		.uleb128 0x3
 2393 001f 16       		.uleb128 0x16
 2394 0020 00       		.byte	0
 2395 0021 03       		.uleb128 0x3
 2396 0022 0E       		.uleb128 0xe
 2397 0023 3A       		.uleb128 0x3a
 2398 0024 0B       		.uleb128 0xb
 2399 0025 3B       		.uleb128 0x3b
 2400 0026 0B       		.uleb128 0xb
 2401 0027 49       		.uleb128 0x49
 2402 0028 13       		.uleb128 0x13
 2403 0029 00       		.byte	0
 2404 002a 00       		.byte	0
 2405 002b 04       		.uleb128 0x4
 2406 002c 24       		.uleb128 0x24
 2407 002d 00       		.byte	0
 2408 002e 0B       		.uleb128 0xb
 2409 002f 0B       		.uleb128 0xb
 2410 0030 3E       		.uleb128 0x3e
 2411 0031 0B       		.uleb128 0xb
 2412 0032 03       		.uleb128 0x3
 2413 0033 0E       		.uleb128 0xe
 2414 0034 00       		.byte	0
 2415 0035 00       		.byte	0
 2416 0036 05       		.uleb128 0x5
 2417 0037 13       		.uleb128 0x13
 2418 0038 01       		.byte	0x1
 2419 0039 03       		.uleb128 0x3
 2420 003a 0E       		.uleb128 0xe
 2421 003b 0B       		.uleb128 0xb
 2422 003c 0B       		.uleb128 0xb
 2423 003d 3A       		.uleb128 0x3a
 2424 003e 0B       		.uleb128 0xb
 2425 003f 3B       		.uleb128 0x3b
 2426 0040 0B       		.uleb128 0xb
 2427 0041 01       		.uleb128 0x1
 2428 0042 13       		.uleb128 0x13
 2429 0043 00       		.byte	0
 2430 0044 00       		.byte	0
 2431 0045 06       		.uleb128 0x6
 2432 0046 0D       		.uleb128 0xd
 2433 0047 00       		.byte	0
ARM GAS  /tmp/cchWVbPq.s 			page 73


 2434 0048 03       		.uleb128 0x3
 2435 0049 0E       		.uleb128 0xe
 2436 004a 3A       		.uleb128 0x3a
 2437 004b 0B       		.uleb128 0xb
 2438 004c 3B       		.uleb128 0x3b
 2439 004d 0B       		.uleb128 0xb
 2440 004e 49       		.uleb128 0x49
 2441 004f 13       		.uleb128 0x13
 2442 0050 38       		.uleb128 0x38
 2443 0051 0B       		.uleb128 0xb
 2444 0052 00       		.byte	0
 2445 0053 00       		.byte	0
 2446 0054 07       		.uleb128 0x7
 2447 0055 0D       		.uleb128 0xd
 2448 0056 00       		.byte	0
 2449 0057 03       		.uleb128 0x3
 2450 0058 08       		.uleb128 0x8
 2451 0059 3A       		.uleb128 0x3a
 2452 005a 0B       		.uleb128 0xb
 2453 005b 3B       		.uleb128 0x3b
 2454 005c 05       		.uleb128 0x5
 2455 005d 49       		.uleb128 0x49
 2456 005e 13       		.uleb128 0x13
 2457 005f 38       		.uleb128 0x38
 2458 0060 0B       		.uleb128 0xb
 2459 0061 00       		.byte	0
 2460 0062 00       		.byte	0
 2461 0063 08       		.uleb128 0x8
 2462 0064 0D       		.uleb128 0xd
 2463 0065 00       		.byte	0
 2464 0066 03       		.uleb128 0x3
 2465 0067 0E       		.uleb128 0xe
 2466 0068 3A       		.uleb128 0x3a
 2467 0069 0B       		.uleb128 0xb
 2468 006a 3B       		.uleb128 0x3b
 2469 006b 05       		.uleb128 0x5
 2470 006c 49       		.uleb128 0x49
 2471 006d 13       		.uleb128 0x13
 2472 006e 38       		.uleb128 0x38
 2473 006f 0B       		.uleb128 0xb
 2474 0070 00       		.byte	0
 2475 0071 00       		.byte	0
 2476 0072 09       		.uleb128 0x9
 2477 0073 0F       		.uleb128 0xf
 2478 0074 00       		.byte	0
 2479 0075 0B       		.uleb128 0xb
 2480 0076 0B       		.uleb128 0xb
 2481 0077 49       		.uleb128 0x49
 2482 0078 13       		.uleb128 0x13
 2483 0079 00       		.byte	0
 2484 007a 00       		.byte	0
 2485 007b 0A       		.uleb128 0xa
 2486 007c 13       		.uleb128 0x13
 2487 007d 01       		.byte	0x1
 2488 007e 03       		.uleb128 0x3
 2489 007f 0E       		.uleb128 0xe
 2490 0080 0B       		.uleb128 0xb
ARM GAS  /tmp/cchWVbPq.s 			page 74


 2491 0081 0B       		.uleb128 0xb
 2492 0082 3A       		.uleb128 0x3a
 2493 0083 0B       		.uleb128 0xb
 2494 0084 3B       		.uleb128 0x3b
 2495 0085 05       		.uleb128 0x5
 2496 0086 01       		.uleb128 0x1
 2497 0087 13       		.uleb128 0x13
 2498 0088 00       		.byte	0
 2499 0089 00       		.byte	0
 2500 008a 0B       		.uleb128 0xb
 2501 008b 15       		.uleb128 0x15
 2502 008c 01       		.byte	0x1
 2503 008d 27       		.uleb128 0x27
 2504 008e 19       		.uleb128 0x19
 2505 008f 01       		.uleb128 0x1
 2506 0090 13       		.uleb128 0x13
 2507 0091 00       		.byte	0
 2508 0092 00       		.byte	0
 2509 0093 0C       		.uleb128 0xc
 2510 0094 05       		.uleb128 0x5
 2511 0095 00       		.byte	0
 2512 0096 49       		.uleb128 0x49
 2513 0097 13       		.uleb128 0x13
 2514 0098 00       		.byte	0
 2515 0099 00       		.byte	0
 2516 009a 0D       		.uleb128 0xd
 2517 009b 0F       		.uleb128 0xf
 2518 009c 00       		.byte	0
 2519 009d 0B       		.uleb128 0xb
 2520 009e 0B       		.uleb128 0xb
 2521 009f 00       		.byte	0
 2522 00a0 00       		.byte	0
 2523 00a1 0E       		.uleb128 0xe
 2524 00a2 13       		.uleb128 0x13
 2525 00a3 01       		.byte	0x1
 2526 00a4 03       		.uleb128 0x3
 2527 00a5 0E       		.uleb128 0xe
 2528 00a6 0B       		.uleb128 0xb
 2529 00a7 05       		.uleb128 0x5
 2530 00a8 3A       		.uleb128 0x3a
 2531 00a9 0B       		.uleb128 0xb
 2532 00aa 3B       		.uleb128 0x3b
 2533 00ab 05       		.uleb128 0x5
 2534 00ac 01       		.uleb128 0x1
 2535 00ad 13       		.uleb128 0x13
 2536 00ae 00       		.byte	0
 2537 00af 00       		.byte	0
 2538 00b0 0F       		.uleb128 0xf
 2539 00b1 35       		.uleb128 0x35
 2540 00b2 00       		.byte	0
 2541 00b3 49       		.uleb128 0x49
 2542 00b4 13       		.uleb128 0x13
 2543 00b5 00       		.byte	0
 2544 00b6 00       		.byte	0
 2545 00b7 10       		.uleb128 0x10
 2546 00b8 01       		.uleb128 0x1
 2547 00b9 01       		.byte	0x1
ARM GAS  /tmp/cchWVbPq.s 			page 75


 2548 00ba 49       		.uleb128 0x49
 2549 00bb 13       		.uleb128 0x13
 2550 00bc 01       		.uleb128 0x1
 2551 00bd 13       		.uleb128 0x13
 2552 00be 00       		.byte	0
 2553 00bf 00       		.byte	0
 2554 00c0 11       		.uleb128 0x11
 2555 00c1 21       		.uleb128 0x21
 2556 00c2 00       		.byte	0
 2557 00c3 49       		.uleb128 0x49
 2558 00c4 13       		.uleb128 0x13
 2559 00c5 2F       		.uleb128 0x2f
 2560 00c6 0B       		.uleb128 0xb
 2561 00c7 00       		.byte	0
 2562 00c8 00       		.byte	0
 2563 00c9 12       		.uleb128 0x12
 2564 00ca 13       		.uleb128 0x13
 2565 00cb 01       		.byte	0x1
 2566 00cc 0B       		.uleb128 0xb
 2567 00cd 0B       		.uleb128 0xb
 2568 00ce 3A       		.uleb128 0x3a
 2569 00cf 0B       		.uleb128 0xb
 2570 00d0 3B       		.uleb128 0x3b
 2571 00d1 05       		.uleb128 0x5
 2572 00d2 01       		.uleb128 0x1
 2573 00d3 13       		.uleb128 0x13
 2574 00d4 00       		.byte	0
 2575 00d5 00       		.byte	0
 2576 00d6 13       		.uleb128 0x13
 2577 00d7 16       		.uleb128 0x16
 2578 00d8 00       		.byte	0
 2579 00d9 03       		.uleb128 0x3
 2580 00da 0E       		.uleb128 0xe
 2581 00db 3A       		.uleb128 0x3a
 2582 00dc 0B       		.uleb128 0xb
 2583 00dd 3B       		.uleb128 0x3b
 2584 00de 05       		.uleb128 0x5
 2585 00df 49       		.uleb128 0x49
 2586 00e0 13       		.uleb128 0x13
 2587 00e1 00       		.byte	0
 2588 00e2 00       		.byte	0
 2589 00e3 14       		.uleb128 0x14
 2590 00e4 0D       		.uleb128 0xd
 2591 00e5 00       		.byte	0
 2592 00e6 03       		.uleb128 0x3
 2593 00e7 08       		.uleb128 0x8
 2594 00e8 3A       		.uleb128 0x3a
 2595 00e9 0B       		.uleb128 0xb
 2596 00ea 3B       		.uleb128 0x3b
 2597 00eb 0B       		.uleb128 0xb
 2598 00ec 49       		.uleb128 0x49
 2599 00ed 13       		.uleb128 0x13
 2600 00ee 38       		.uleb128 0x38
 2601 00ef 0B       		.uleb128 0xb
 2602 00f0 00       		.byte	0
 2603 00f1 00       		.byte	0
 2604 00f2 15       		.uleb128 0x15
ARM GAS  /tmp/cchWVbPq.s 			page 76


 2605 00f3 13       		.uleb128 0x13
 2606 00f4 01       		.byte	0x1
 2607 00f5 0B       		.uleb128 0xb
 2608 00f6 0B       		.uleb128 0xb
 2609 00f7 3A       		.uleb128 0x3a
 2610 00f8 0B       		.uleb128 0xb
 2611 00f9 3B       		.uleb128 0x3b
 2612 00fa 0B       		.uleb128 0xb
 2613 00fb 01       		.uleb128 0x1
 2614 00fc 13       		.uleb128 0x13
 2615 00fd 00       		.byte	0
 2616 00fe 00       		.byte	0
 2617 00ff 16       		.uleb128 0x16
 2618 0100 17       		.uleb128 0x17
 2619 0101 01       		.byte	0x1
 2620 0102 0B       		.uleb128 0xb
 2621 0103 0B       		.uleb128 0xb
 2622 0104 3A       		.uleb128 0x3a
 2623 0105 0B       		.uleb128 0xb
 2624 0106 3B       		.uleb128 0x3b
 2625 0107 0B       		.uleb128 0xb
 2626 0108 01       		.uleb128 0x1
 2627 0109 13       		.uleb128 0x13
 2628 010a 00       		.byte	0
 2629 010b 00       		.byte	0
 2630 010c 17       		.uleb128 0x17
 2631 010d 0D       		.uleb128 0xd
 2632 010e 00       		.byte	0
 2633 010f 03       		.uleb128 0x3
 2634 0110 0E       		.uleb128 0xe
 2635 0111 3A       		.uleb128 0x3a
 2636 0112 0B       		.uleb128 0xb
 2637 0113 3B       		.uleb128 0x3b
 2638 0114 05       		.uleb128 0x5
 2639 0115 49       		.uleb128 0x49
 2640 0116 13       		.uleb128 0x13
 2641 0117 00       		.byte	0
 2642 0118 00       		.byte	0
 2643 0119 18       		.uleb128 0x18
 2644 011a 26       		.uleb128 0x26
 2645 011b 00       		.byte	0
 2646 011c 49       		.uleb128 0x49
 2647 011d 13       		.uleb128 0x13
 2648 011e 00       		.byte	0
 2649 011f 00       		.byte	0
 2650 0120 19       		.uleb128 0x19
 2651 0121 04       		.uleb128 0x4
 2652 0122 01       		.byte	0x1
 2653 0123 0B       		.uleb128 0xb
 2654 0124 0B       		.uleb128 0xb
 2655 0125 3A       		.uleb128 0x3a
 2656 0126 0B       		.uleb128 0xb
 2657 0127 3B       		.uleb128 0x3b
 2658 0128 0B       		.uleb128 0xb
 2659 0129 01       		.uleb128 0x1
 2660 012a 13       		.uleb128 0x13
 2661 012b 00       		.byte	0
ARM GAS  /tmp/cchWVbPq.s 			page 77


 2662 012c 00       		.byte	0
 2663 012d 1A       		.uleb128 0x1a
 2664 012e 28       		.uleb128 0x28
 2665 012f 00       		.byte	0
 2666 0130 03       		.uleb128 0x3
 2667 0131 0E       		.uleb128 0xe
 2668 0132 1C       		.uleb128 0x1c
 2669 0133 0D       		.uleb128 0xd
 2670 0134 00       		.byte	0
 2671 0135 00       		.byte	0
 2672 0136 1B       		.uleb128 0x1b
 2673 0137 2E       		.uleb128 0x2e
 2674 0138 01       		.byte	0x1
 2675 0139 3F       		.uleb128 0x3f
 2676 013a 19       		.uleb128 0x19
 2677 013b 03       		.uleb128 0x3
 2678 013c 0E       		.uleb128 0xe
 2679 013d 3A       		.uleb128 0x3a
 2680 013e 0B       		.uleb128 0xb
 2681 013f 3B       		.uleb128 0x3b
 2682 0140 05       		.uleb128 0x5
 2683 0141 27       		.uleb128 0x27
 2684 0142 19       		.uleb128 0x19
 2685 0143 20       		.uleb128 0x20
 2686 0144 0B       		.uleb128 0xb
 2687 0145 01       		.uleb128 0x1
 2688 0146 13       		.uleb128 0x13
 2689 0147 00       		.byte	0
 2690 0148 00       		.byte	0
 2691 0149 1C       		.uleb128 0x1c
 2692 014a 05       		.uleb128 0x5
 2693 014b 00       		.byte	0
 2694 014c 03       		.uleb128 0x3
 2695 014d 0E       		.uleb128 0xe
 2696 014e 3A       		.uleb128 0x3a
 2697 014f 0B       		.uleb128 0xb
 2698 0150 3B       		.uleb128 0x3b
 2699 0151 05       		.uleb128 0x5
 2700 0152 49       		.uleb128 0x49
 2701 0153 13       		.uleb128 0x13
 2702 0154 00       		.byte	0
 2703 0155 00       		.byte	0
 2704 0156 1D       		.uleb128 0x1d
 2705 0157 2E       		.uleb128 0x2e
 2706 0158 01       		.byte	0x1
 2707 0159 3F       		.uleb128 0x3f
 2708 015a 19       		.uleb128 0x19
 2709 015b 03       		.uleb128 0x3
 2710 015c 0E       		.uleb128 0xe
 2711 015d 3A       		.uleb128 0x3a
 2712 015e 0B       		.uleb128 0xb
 2713 015f 3B       		.uleb128 0x3b
 2714 0160 05       		.uleb128 0x5
 2715 0161 27       		.uleb128 0x27
 2716 0162 19       		.uleb128 0x19
 2717 0163 11       		.uleb128 0x11
 2718 0164 01       		.uleb128 0x1
ARM GAS  /tmp/cchWVbPq.s 			page 78


 2719 0165 12       		.uleb128 0x12
 2720 0166 06       		.uleb128 0x6
 2721 0167 40       		.uleb128 0x40
 2722 0168 18       		.uleb128 0x18
 2723 0169 9742     		.uleb128 0x2117
 2724 016b 19       		.uleb128 0x19
 2725 016c 01       		.uleb128 0x1
 2726 016d 13       		.uleb128 0x13
 2727 016e 00       		.byte	0
 2728 016f 00       		.byte	0
 2729 0170 1E       		.uleb128 0x1e
 2730 0171 898201   		.uleb128 0x4109
 2731 0174 01       		.byte	0x1
 2732 0175 11       		.uleb128 0x11
 2733 0176 01       		.uleb128 0x1
 2734 0177 9542     		.uleb128 0x2115
 2735 0179 19       		.uleb128 0x19
 2736 017a 31       		.uleb128 0x31
 2737 017b 13       		.uleb128 0x13
 2738 017c 00       		.byte	0
 2739 017d 00       		.byte	0
 2740 017e 1F       		.uleb128 0x1f
 2741 017f 8A8201   		.uleb128 0x410a
 2742 0182 00       		.byte	0
 2743 0183 02       		.uleb128 0x2
 2744 0184 18       		.uleb128 0x18
 2745 0185 9142     		.uleb128 0x2111
 2746 0187 18       		.uleb128 0x18
 2747 0188 00       		.byte	0
 2748 0189 00       		.byte	0
 2749 018a 20       		.uleb128 0x20
 2750 018b 05       		.uleb128 0x5
 2751 018c 00       		.byte	0
 2752 018d 03       		.uleb128 0x3
 2753 018e 0E       		.uleb128 0xe
 2754 018f 3A       		.uleb128 0x3a
 2755 0190 0B       		.uleb128 0xb
 2756 0191 3B       		.uleb128 0x3b
 2757 0192 05       		.uleb128 0x5
 2758 0193 49       		.uleb128 0x49
 2759 0194 13       		.uleb128 0x13
 2760 0195 02       		.uleb128 0x2
 2761 0196 17       		.uleb128 0x17
 2762 0197 00       		.byte	0
 2763 0198 00       		.byte	0
 2764 0199 21       		.uleb128 0x21
 2765 019a 34       		.uleb128 0x34
 2766 019b 00       		.byte	0
 2767 019c 03       		.uleb128 0x3
 2768 019d 08       		.uleb128 0x8
 2769 019e 3A       		.uleb128 0x3a
 2770 019f 0B       		.uleb128 0xb
 2771 01a0 3B       		.uleb128 0x3b
 2772 01a1 05       		.uleb128 0x5
 2773 01a2 49       		.uleb128 0x49
 2774 01a3 13       		.uleb128 0x13
 2775 01a4 02       		.uleb128 0x2
ARM GAS  /tmp/cchWVbPq.s 			page 79


 2776 01a5 17       		.uleb128 0x17
 2777 01a6 00       		.byte	0
 2778 01a7 00       		.byte	0
 2779 01a8 22       		.uleb128 0x22
 2780 01a9 34       		.uleb128 0x34
 2781 01aa 00       		.byte	0
 2782 01ab 03       		.uleb128 0x3
 2783 01ac 0E       		.uleb128 0xe
 2784 01ad 49       		.uleb128 0x49
 2785 01ae 13       		.uleb128 0x13
 2786 01af 34       		.uleb128 0x34
 2787 01b0 19       		.uleb128 0x19
 2788 01b1 00       		.byte	0
 2789 01b2 00       		.byte	0
 2790 01b3 23       		.uleb128 0x23
 2791 01b4 898201   		.uleb128 0x4109
 2792 01b7 01       		.byte	0x1
 2793 01b8 11       		.uleb128 0x11
 2794 01b9 01       		.uleb128 0x1
 2795 01ba 31       		.uleb128 0x31
 2796 01bb 13       		.uleb128 0x13
 2797 01bc 00       		.byte	0
 2798 01bd 00       		.byte	0
 2799 01be 24       		.uleb128 0x24
 2800 01bf 2E       		.uleb128 0x2e
 2801 01c0 01       		.byte	0x1
 2802 01c1 31       		.uleb128 0x31
 2803 01c2 13       		.uleb128 0x13
 2804 01c3 11       		.uleb128 0x11
 2805 01c4 01       		.uleb128 0x1
 2806 01c5 12       		.uleb128 0x12
 2807 01c6 06       		.uleb128 0x6
 2808 01c7 40       		.uleb128 0x40
 2809 01c8 18       		.uleb128 0x18
 2810 01c9 9742     		.uleb128 0x2117
 2811 01cb 19       		.uleb128 0x19
 2812 01cc 01       		.uleb128 0x1
 2813 01cd 13       		.uleb128 0x13
 2814 01ce 00       		.byte	0
 2815 01cf 00       		.byte	0
 2816 01d0 25       		.uleb128 0x25
 2817 01d1 05       		.uleb128 0x5
 2818 01d2 00       		.byte	0
 2819 01d3 31       		.uleb128 0x31
 2820 01d4 13       		.uleb128 0x13
 2821 01d5 02       		.uleb128 0x2
 2822 01d6 17       		.uleb128 0x17
 2823 01d7 00       		.byte	0
 2824 01d8 00       		.byte	0
 2825 01d9 26       		.uleb128 0x26
 2826 01da 0B       		.uleb128 0xb
 2827 01db 01       		.byte	0x1
 2828 01dc 11       		.uleb128 0x11
 2829 01dd 01       		.uleb128 0x1
 2830 01de 12       		.uleb128 0x12
 2831 01df 06       		.uleb128 0x6
 2832 01e0 00       		.byte	0
ARM GAS  /tmp/cchWVbPq.s 			page 80


 2833 01e1 00       		.byte	0
 2834 01e2 27       		.uleb128 0x27
 2835 01e3 05       		.uleb128 0x5
 2836 01e4 00       		.byte	0
 2837 01e5 31       		.uleb128 0x31
 2838 01e6 13       		.uleb128 0x13
 2839 01e7 02       		.uleb128 0x2
 2840 01e8 18       		.uleb128 0x18
 2841 01e9 00       		.byte	0
 2842 01ea 00       		.byte	0
 2843 01eb 28       		.uleb128 0x28
 2844 01ec 1D       		.uleb128 0x1d
 2845 01ed 01       		.byte	0x1
 2846 01ee 31       		.uleb128 0x31
 2847 01ef 13       		.uleb128 0x13
 2848 01f0 11       		.uleb128 0x11
 2849 01f1 01       		.uleb128 0x1
 2850 01f2 12       		.uleb128 0x12
 2851 01f3 06       		.uleb128 0x6
 2852 01f4 58       		.uleb128 0x58
 2853 01f5 0B       		.uleb128 0xb
 2854 01f6 59       		.uleb128 0x59
 2855 01f7 05       		.uleb128 0x5
 2856 01f8 01       		.uleb128 0x1
 2857 01f9 13       		.uleb128 0x13
 2858 01fa 00       		.byte	0
 2859 01fb 00       		.byte	0
 2860 01fc 29       		.uleb128 0x29
 2861 01fd 898201   		.uleb128 0x4109
 2862 0200 01       		.byte	0x1
 2863 0201 11       		.uleb128 0x11
 2864 0202 01       		.uleb128 0x1
 2865 0203 00       		.byte	0
 2866 0204 00       		.byte	0
 2867 0205 2A       		.uleb128 0x2a
 2868 0206 2E       		.uleb128 0x2e
 2869 0207 01       		.byte	0x1
 2870 0208 3F       		.uleb128 0x3f
 2871 0209 19       		.uleb128 0x19
 2872 020a 03       		.uleb128 0x3
 2873 020b 0E       		.uleb128 0xe
 2874 020c 3A       		.uleb128 0x3a
 2875 020d 0B       		.uleb128 0xb
 2876 020e 3B       		.uleb128 0x3b
 2877 020f 0B       		.uleb128 0xb
 2878 0210 27       		.uleb128 0x27
 2879 0211 19       		.uleb128 0x19
 2880 0212 11       		.uleb128 0x11
 2881 0213 01       		.uleb128 0x1
 2882 0214 12       		.uleb128 0x12
 2883 0215 06       		.uleb128 0x6
 2884 0216 40       		.uleb128 0x40
 2885 0217 18       		.uleb128 0x18
 2886 0218 9742     		.uleb128 0x2117
 2887 021a 19       		.uleb128 0x19
 2888 021b 01       		.uleb128 0x1
 2889 021c 13       		.uleb128 0x13
ARM GAS  /tmp/cchWVbPq.s 			page 81


 2890 021d 00       		.byte	0
 2891 021e 00       		.byte	0
 2892 021f 2B       		.uleb128 0x2b
 2893 0220 898201   		.uleb128 0x4109
 2894 0223 01       		.byte	0x1
 2895 0224 11       		.uleb128 0x11
 2896 0225 01       		.uleb128 0x1
 2897 0226 31       		.uleb128 0x31
 2898 0227 13       		.uleb128 0x13
 2899 0228 01       		.uleb128 0x1
 2900 0229 13       		.uleb128 0x13
 2901 022a 00       		.byte	0
 2902 022b 00       		.byte	0
 2903 022c 2C       		.uleb128 0x2c
 2904 022d 898201   		.uleb128 0x4109
 2905 0230 00       		.byte	0
 2906 0231 11       		.uleb128 0x11
 2907 0232 01       		.uleb128 0x1
 2908 0233 9542     		.uleb128 0x2115
 2909 0235 19       		.uleb128 0x19
 2910 0236 31       		.uleb128 0x31
 2911 0237 13       		.uleb128 0x13
 2912 0238 00       		.byte	0
 2913 0239 00       		.byte	0
 2914 023a 2D       		.uleb128 0x2d
 2915 023b 34       		.uleb128 0x34
 2916 023c 00       		.byte	0
 2917 023d 03       		.uleb128 0x3
 2918 023e 0E       		.uleb128 0xe
 2919 023f 3A       		.uleb128 0x3a
 2920 0240 0B       		.uleb128 0xb
 2921 0241 3B       		.uleb128 0x3b
 2922 0242 05       		.uleb128 0x5
 2923 0243 49       		.uleb128 0x49
 2924 0244 13       		.uleb128 0x13
 2925 0245 3F       		.uleb128 0x3f
 2926 0246 19       		.uleb128 0x19
 2927 0247 3C       		.uleb128 0x3c
 2928 0248 19       		.uleb128 0x19
 2929 0249 00       		.byte	0
 2930 024a 00       		.byte	0
 2931 024b 2E       		.uleb128 0x2e
 2932 024c 34       		.uleb128 0x34
 2933 024d 00       		.byte	0
 2934 024e 03       		.uleb128 0x3
 2935 024f 08       		.uleb128 0x8
 2936 0250 3A       		.uleb128 0x3a
 2937 0251 0B       		.uleb128 0xb
 2938 0252 3B       		.uleb128 0x3b
 2939 0253 05       		.uleb128 0x5
 2940 0254 49       		.uleb128 0x49
 2941 0255 13       		.uleb128 0x13
 2942 0256 3F       		.uleb128 0x3f
 2943 0257 19       		.uleb128 0x19
 2944 0258 3C       		.uleb128 0x3c
 2945 0259 19       		.uleb128 0x19
 2946 025a 00       		.byte	0
ARM GAS  /tmp/cchWVbPq.s 			page 82


 2947 025b 00       		.byte	0
 2948 025c 2F       		.uleb128 0x2f
 2949 025d 34       		.uleb128 0x34
 2950 025e 00       		.byte	0
 2951 025f 03       		.uleb128 0x3
 2952 0260 0E       		.uleb128 0xe
 2953 0261 3A       		.uleb128 0x3a
 2954 0262 0B       		.uleb128 0xb
 2955 0263 3B       		.uleb128 0x3b
 2956 0264 0B       		.uleb128 0xb
 2957 0265 49       		.uleb128 0x49
 2958 0266 13       		.uleb128 0x13
 2959 0267 3F       		.uleb128 0x3f
 2960 0268 19       		.uleb128 0x19
 2961 0269 02       		.uleb128 0x2
 2962 026a 18       		.uleb128 0x18
 2963 026b 00       		.byte	0
 2964 026c 00       		.byte	0
 2965 026d 30       		.uleb128 0x30
 2966 026e 2E       		.uleb128 0x2e
 2967 026f 01       		.byte	0x1
 2968 0270 3F       		.uleb128 0x3f
 2969 0271 19       		.uleb128 0x19
 2970 0272 03       		.uleb128 0x3
 2971 0273 0E       		.uleb128 0xe
 2972 0274 3A       		.uleb128 0x3a
 2973 0275 0B       		.uleb128 0xb
 2974 0276 3B       		.uleb128 0x3b
 2975 0277 0B       		.uleb128 0xb
 2976 0278 27       		.uleb128 0x27
 2977 0279 19       		.uleb128 0x19
 2978 027a 3C       		.uleb128 0x3c
 2979 027b 19       		.uleb128 0x19
 2980 027c 01       		.uleb128 0x1
 2981 027d 13       		.uleb128 0x13
 2982 027e 00       		.byte	0
 2983 027f 00       		.byte	0
 2984 0280 31       		.uleb128 0x31
 2985 0281 2E       		.uleb128 0x2e
 2986 0282 00       		.byte	0
 2987 0283 3F       		.uleb128 0x3f
 2988 0284 19       		.uleb128 0x19
 2989 0285 03       		.uleb128 0x3
 2990 0286 0E       		.uleb128 0xe
 2991 0287 3A       		.uleb128 0x3a
 2992 0288 0B       		.uleb128 0xb
 2993 0289 3B       		.uleb128 0x3b
 2994 028a 05       		.uleb128 0x5
 2995 028b 27       		.uleb128 0x27
 2996 028c 19       		.uleb128 0x19
 2997 028d 3C       		.uleb128 0x3c
 2998 028e 19       		.uleb128 0x19
 2999 028f 00       		.byte	0
 3000 0290 00       		.byte	0
 3001 0291 00       		.byte	0
 3002              		.section	.debug_loc,"",%progbits
 3003              	.Ldebug_loc0:
ARM GAS  /tmp/cchWVbPq.s 			page 83


 3004              	.LLST0:
 3005 0000 00000000 		.4byte	.LVL1
 3006 0004 0A000000 		.4byte	.LVL2
 3007 0008 0100     		.2byte	0x1
 3008 000a 50       		.byte	0x50
 3009 000b 0A000000 		.4byte	.LVL2
 3010 000f 16000000 		.4byte	.LVL3
 3011 0013 0100     		.2byte	0x1
 3012 0015 54       		.byte	0x54
 3013 0016 16000000 		.4byte	.LVL3
 3014 001a 30000000 		.4byte	.LVL5
 3015 001e 0400     		.2byte	0x4
 3016 0020 F3       		.byte	0xf3
 3017 0021 01       		.uleb128 0x1
 3018 0022 50       		.byte	0x50
 3019 0023 9F       		.byte	0x9f
 3020 0024 30000000 		.4byte	.LVL5
 3021 0028 4C000000 		.4byte	.LVL6
 3022 002c 0100     		.2byte	0x1
 3023 002e 50       		.byte	0x50
 3024 002f 4C000000 		.4byte	.LVL6
 3025 0033 68000000 		.4byte	.LFE274
 3026 0037 0100     		.2byte	0x1
 3027 0039 54       		.byte	0x54
 3028 003a 00000000 		.4byte	0
 3029 003e 00000000 		.4byte	0
 3030              	.LLST1:
 3031 0042 20000000 		.4byte	.LVL4
 3032 0046 30000000 		.4byte	.LVL5
 3033 004a 0100     		.2byte	0x1
 3034 004c 50       		.byte	0x50
 3035 004d 00000000 		.4byte	0
 3036 0051 00000000 		.4byte	0
 3037              	.LLST2:
 3038 0055 00000000 		.4byte	.LVL8
 3039 0059 08000000 		.4byte	.LVL9
 3040 005d 0100     		.2byte	0x1
 3041 005f 50       		.byte	0x50
 3042 0060 08000000 		.4byte	.LVL9
 3043 0064 0A000000 		.4byte	.LVL10
 3044 0068 0400     		.2byte	0x4
 3045 006a F3       		.byte	0xf3
 3046 006b 01       		.uleb128 0x1
 3047 006c 50       		.byte	0x50
 3048 006d 9F       		.byte	0x9f
 3049 006e 0A000000 		.4byte	.LVL10
 3050 0072 1C000000 		.4byte	.LVL12
 3051 0076 0100     		.2byte	0x1
 3052 0078 50       		.byte	0x50
 3053 0079 1C000000 		.4byte	.LVL12
 3054 007d 34000000 		.4byte	.LFE275
 3055 0081 0400     		.2byte	0x4
 3056 0083 F3       		.byte	0xf3
 3057 0084 01       		.uleb128 0x1
 3058 0085 50       		.byte	0x50
 3059 0086 9F       		.byte	0x9f
 3060 0087 00000000 		.4byte	0
ARM GAS  /tmp/cchWVbPq.s 			page 84


 3061 008b 00000000 		.4byte	0
 3062              	.LLST3:
 3063 008f 00000000 		.4byte	.LVL14
 3064 0093 06000000 		.4byte	.LVL15
 3065 0097 0100     		.2byte	0x1
 3066 0099 50       		.byte	0x50
 3067 009a 06000000 		.4byte	.LVL15
 3068 009e 22000000 		.4byte	.LFE276
 3069 00a2 0400     		.2byte	0x4
 3070 00a4 F3       		.byte	0xf3
 3071 00a5 01       		.uleb128 0x1
 3072 00a6 50       		.byte	0x50
 3073 00a7 9F       		.byte	0x9f
 3074 00a8 00000000 		.4byte	0
 3075 00ac 00000000 		.4byte	0
 3076              	.LLST4:
 3077 00b0 00000000 		.4byte	.LVL14
 3078 00b4 08000000 		.4byte	.LVL16
 3079 00b8 0100     		.2byte	0x1
 3080 00ba 51       		.byte	0x51
 3081 00bb 08000000 		.4byte	.LVL16
 3082 00bf 0E000000 		.4byte	.LVL17
 3083 00c3 0300     		.2byte	0x3
 3084 00c5 71       		.byte	0x71
 3085 00c6 01       		.sleb128 1
 3086 00c7 9F       		.byte	0x9f
 3087 00c8 0E000000 		.4byte	.LVL17
 3088 00cc 10000000 		.4byte	.LVL18
 3089 00d0 0600     		.2byte	0x6
 3090 00d2 73       		.byte	0x73
 3091 00d3 2C       		.sleb128 44
 3092 00d4 06       		.byte	0x6
 3093 00d5 23       		.byte	0x23
 3094 00d6 01       		.uleb128 0x1
 3095 00d7 9F       		.byte	0x9f
 3096 00d8 10000000 		.4byte	.LVL18
 3097 00dc 22000000 		.4byte	.LFE276
 3098 00e0 0400     		.2byte	0x4
 3099 00e2 F3       		.byte	0xf3
 3100 00e3 01       		.uleb128 0x1
 3101 00e4 51       		.byte	0x51
 3102 00e5 9F       		.byte	0x9f
 3103 00e6 00000000 		.4byte	0
 3104 00ea 00000000 		.4byte	0
 3105              	.LLST5:
 3106 00ee 00000000 		.4byte	.LVL20
 3107 00f2 06000000 		.4byte	.LVL22
 3108 00f6 0100     		.2byte	0x1
 3109 00f8 50       		.byte	0x50
 3110 00f9 06000000 		.4byte	.LVL22
 3111 00fd 1A000000 		.4byte	.LFE278
 3112 0101 0400     		.2byte	0x4
 3113 0103 F3       		.byte	0xf3
 3114 0104 01       		.uleb128 0x1
 3115 0105 50       		.byte	0x50
 3116 0106 9F       		.byte	0x9f
 3117 0107 00000000 		.4byte	0
ARM GAS  /tmp/cchWVbPq.s 			page 85


 3118 010b 00000000 		.4byte	0
 3119              	.LLST6:
 3120 010f 00000000 		.4byte	.LVL20
 3121 0113 04000000 		.4byte	.LVL21
 3122 0117 0100     		.2byte	0x1
 3123 0119 51       		.byte	0x51
 3124 011a 04000000 		.4byte	.LVL21
 3125 011e 1A000000 		.4byte	.LFE278
 3126 0122 0300     		.2byte	0x3
 3127 0124 71       		.byte	0x71
 3128 0125 01       		.sleb128 1
 3129 0126 9F       		.byte	0x9f
 3130 0127 00000000 		.4byte	0
 3131 012b 00000000 		.4byte	0
 3132              	.LLST7:
 3133 012f 00000000 		.4byte	.LVL23
 3134 0133 23000000 		.4byte	.LVL26-1
 3135 0137 0100     		.2byte	0x1
 3136 0139 50       		.byte	0x50
 3137 013a 23000000 		.4byte	.LVL26-1
 3138 013e 26000000 		.4byte	.LFE279
 3139 0142 0400     		.2byte	0x4
 3140 0144 F3       		.byte	0xf3
 3141 0145 01       		.uleb128 0x1
 3142 0146 50       		.byte	0x50
 3143 0147 9F       		.byte	0x9f
 3144 0148 00000000 		.4byte	0
 3145 014c 00000000 		.4byte	0
 3146              	.LLST8:
 3147 0150 12000000 		.4byte	.LVL24
 3148 0154 1E000000 		.4byte	.LVL25
 3149 0158 0100     		.2byte	0x1
 3150 015a 50       		.byte	0x50
 3151 015b 00000000 		.4byte	0
 3152 015f 00000000 		.4byte	0
 3153              		.section	.debug_aranges,"",%progbits
 3154 0000 54000000 		.4byte	0x54
 3155 0004 0200     		.2byte	0x2
 3156 0006 00000000 		.4byte	.Ldebug_info0
 3157 000a 04       		.byte	0x4
 3158 000b 00       		.byte	0
 3159 000c 0000     		.2byte	0
 3160 000e 0000     		.2byte	0
 3161 0010 00000000 		.4byte	.LFB273
 3162 0014 14000000 		.4byte	.LFE273-.LFB273
 3163 0018 00000000 		.4byte	.LFB274
 3164 001c 68000000 		.4byte	.LFE274-.LFB274
 3165 0020 00000000 		.4byte	.LFB275
 3166 0024 34000000 		.4byte	.LFE275-.LFB275
 3167 0028 00000000 		.4byte	.LFB276
 3168 002c 22000000 		.4byte	.LFE276-.LFB276
 3169 0030 00000000 		.4byte	.LFB277
 3170 0034 12000000 		.4byte	.LFE277-.LFB277
 3171 0038 00000000 		.4byte	.LFB278
 3172 003c 1A000000 		.4byte	.LFE278-.LFB278
 3173 0040 00000000 		.4byte	.LFB279
 3174 0044 26000000 		.4byte	.LFE279-.LFB279
ARM GAS  /tmp/cchWVbPq.s 			page 86


 3175 0048 00000000 		.4byte	.LFB272
 3176 004c 14000000 		.4byte	.LFE272-.LFB272
 3177 0050 00000000 		.4byte	0
 3178 0054 00000000 		.4byte	0
 3179              		.section	.debug_ranges,"",%progbits
 3180              	.Ldebug_ranges0:
 3181 0000 00000000 		.4byte	.LFB273
 3182 0004 14000000 		.4byte	.LFE273
 3183 0008 00000000 		.4byte	.LFB274
 3184 000c 68000000 		.4byte	.LFE274
 3185 0010 00000000 		.4byte	.LFB275
 3186 0014 34000000 		.4byte	.LFE275
 3187 0018 00000000 		.4byte	.LFB276
 3188 001c 22000000 		.4byte	.LFE276
 3189 0020 00000000 		.4byte	.LFB277
 3190 0024 12000000 		.4byte	.LFE277
 3191 0028 00000000 		.4byte	.LFB278
 3192 002c 1A000000 		.4byte	.LFE278
 3193 0030 00000000 		.4byte	.LFB279
 3194 0034 26000000 		.4byte	.LFE279
 3195 0038 00000000 		.4byte	.LFB272
 3196 003c 14000000 		.4byte	.LFE272
 3197 0040 00000000 		.4byte	0
 3198 0044 00000000 		.4byte	0
 3199              		.section	.debug_line,"",%progbits
 3200              	.Ldebug_line0:
 3201 0000 4A040000 		.section	.debug_str,"MS",%progbits,1
 3201      02006303 
 3201      00000201 
 3201      FB0E0D00 
 3201      01010101 
 3202              	.LASF52:
 3203 0000 72656164 		.ascii	"ready_list_t\000"
 3203      795F6C69 
 3203      73745F74 
 3203      00
 3204              	.LASF97:
 3205 000d 44494552 		.ascii	"DIER\000"
 3205      00
 3206              	.LASF2:
 3207 0012 73697A65 		.ascii	"size_t\000"
 3207      5F7400
 3208              	.LASF108:
 3209 0019 7264796D 		.ascii	"rdymsg\000"
 3209      736700
 3210              	.LASF19:
 3211 0020 75696E74 		.ascii	"uint64_t\000"
 3211      36345F74 
 3211      00
 3212              	.LASF152:
 3213 0029 56656374 		.ascii	"VectorA4\000"
 3213      6F724134 
 3213      00
 3214              	.LASF3:
 3215 0032 5F5F7569 		.ascii	"__uint8_t\000"
 3215      6E74385F 
 3215      7400
ARM GAS  /tmp/cchWVbPq.s 			page 87


 3216              	.LASF130:
 3217 003c 4750545F 		.ascii	"GPT_ONESHOT\000"
 3217      4F4E4553 
 3217      484F5400 
 3218              	.LASF51:
 3219 0048 63685F74 		.ascii	"ch_threads_queue\000"
 3219      68726561 
 3219      64735F71 
 3219      75657565 
 3219      00
 3220              	.LASF71:
 3221 0059 73797374 		.ascii	"system_debug_t\000"
 3221      656D5F64 
 3221      65627567 
 3221      5F7400
 3222              	.LASF161:
 3223 0068 5F5F6675 		.ascii	"__func__.7099\000"
 3223      6E635F5F 
 3223      2E373039 
 3223      3900
 3224              	.LASF14:
 3225 0076 6C6F6E67 		.ascii	"long long unsigned int\000"
 3225      206C6F6E 
 3225      6720756E 
 3225      7369676E 
 3225      65642069 
 3226              	.LASF109:
 3227 008d 65786974 		.ascii	"exitcode\000"
 3227      636F6465 
 3227      00
 3228              	.LASF78:
 3229 0096 6D61696E 		.ascii	"mainthread\000"
 3229      74687265 
 3229      616400
 3230              	.LASF112:
 3231 00a1 73656E74 		.ascii	"sentmsg\000"
 3231      6D736700 
 3232              	.LASF68:
 3233 00a9 76697274 		.ascii	"virtual_timers_list_t\000"
 3233      75616C5F 
 3233      74696D65 
 3233      72735F6C 
 3233      6973745F 
 3234              	.LASF154:
 3235 00bf 47505444 		.ascii	"GPTD1\000"
 3235      3100
 3236              	.LASF101:
 3237 00c5 42445452 		.ascii	"BDTR\000"
 3237      00
 3238              	.LASF139:
 3239 00ca 66726571 		.ascii	"frequency\000"
 3239      75656E63 
 3239      7900
 3240              	.LASF32:
 3241 00d4 705F7072 		.ascii	"p_prio\000"
 3241      696F00
 3242              	.LASF156:
ARM GAS  /tmp/cchWVbPq.s 			page 88


 3243 00db 6E766963 		.ascii	"nvicEnableVector\000"
 3243      456E6162 
 3243      6C655665 
 3243      63746F72 
 3243      00
 3244              	.LASF98:
 3245 00ec 43434D52 		.ascii	"CCMR1\000"
 3245      3100
 3246              	.LASF99:
 3247 00f2 43434D52 		.ascii	"CCMR2\000"
 3247      3200
 3248              	.LASF103:
 3249 00f8 43434D52 		.ascii	"CCMR3\000"
 3249      3300
 3250              	.LASF1:
 3251 00fe 7369676E 		.ascii	"signed char\000"
 3251      65642063 
 3251      68617200 
 3252              	.LASF120:
 3253 010a 6D5F7175 		.ascii	"m_queue\000"
 3253      65756500 
 3254              	.LASF83:
 3255 0112 41504231 		.ascii	"APB1RSTR\000"
 3255      52535452 
 3255      00
 3256              	.LASF129:
 3257 011b 4750545F 		.ascii	"GPT_CONTINUOUS\000"
 3257      434F4E54 
 3257      494E554F 
 3257      555300
 3258              	.LASF77:
 3259 012a 76746C69 		.ascii	"vtlist\000"
 3259      737400
 3260              	.LASF133:
 3261 0131 73746174 		.ascii	"state\000"
 3261      6500
 3262              	.LASF75:
 3263 0137 63685F73 		.ascii	"ch_system\000"
 3263      79737465 
 3263      6D00
 3264              	.LASF9:
 3265 0141 6C6F6E67 		.ascii	"long int\000"
 3265      20696E74 
 3265      00
 3266              	.LASF138:
 3267 014a 67707463 		.ascii	"gptcnt_t\000"
 3267      6E745F74 
 3267      00
 3268              	.LASF82:
 3269 0153 41504232 		.ascii	"APB2RSTR\000"
 3269      52535452 
 3269      00
 3270              	.LASF160:
 3271 015c 2F6E6673 		.ascii	"/nfs/nfs4/home/jacoroge/p442-submissions/milestone2"
 3271      2F6E6673 
 3271      342F686F 
 3271      6D652F6A 
ARM GAS  /tmp/cchWVbPq.s 			page 89


 3271      61636F72 
 3272 018f 00       		.ascii	"\000"
 3273              	.LASF22:
 3274 0190 74737461 		.ascii	"tstate_t\000"
 3274      74655F74 
 3274      00
 3275              	.LASF100:
 3276 0199 43434552 		.ascii	"CCER\000"
 3276      00
 3277              	.LASF12:
 3278 019e 6C6F6E67 		.ascii	"long long int\000"
 3278      206C6F6E 
 3278      6720696E 
 3278      7400
 3279              	.LASF16:
 3280 01ac 75696E74 		.ascii	"uint16_t\000"
 3280      31365F74 
 3280      00
 3281              	.LASF34:
 3282 01b5 705F6E65 		.ascii	"p_newer\000"
 3282      77657200 
 3283              	.LASF117:
 3284 01bd 735F7175 		.ascii	"s_queue\000"
 3284      65756500 
 3285              	.LASF136:
 3286 01c5 67707463 		.ascii	"gptcallback_t\000"
 3286      616C6C62 
 3286      61636B5F 
 3286      7400
 3287              	.LASF7:
 3288 01d3 73686F72 		.ascii	"short unsigned int\000"
 3288      7420756E 
 3288      7369676E 
 3288      65642069 
 3288      6E7400
 3289              	.LASF149:
 3290 01e6 696E7465 		.ascii	"interval\000"
 3290      7276616C 
 3290      00
 3291              	.LASF57:
 3292 01ef 725F6E65 		.ascii	"r_newer\000"
 3292      77657200 
 3293              	.LASF132:
 3294 01f7 47505444 		.ascii	"GPTDriver\000"
 3294      72697665 
 3294      7200
 3295              	.LASF92:
 3296 0201 72656761 		.ascii	"regarm_t\000"
 3296      726D5F74 
 3296      00
 3297              	.LASF64:
 3298 020a 76745F70 		.ascii	"vt_prev\000"
 3298      72657600 
 3299              	.LASF124:
 3300 0212 6D757465 		.ascii	"mutex_t\000"
 3300      785F7400 
 3301              	.LASF79:
ARM GAS  /tmp/cchWVbPq.s 			page 90


 3302 021a 69646C65 		.ascii	"idle_thread_wa\000"
 3302      5F746872 
 3302      6561645F 
 3302      776100
 3303              	.LASF131:
 3304 0229 67707473 		.ascii	"gptstate_t\000"
 3304      74617465 
 3304      5F7400
 3305              	.LASF0:
 3306 0234 756E7369 		.ascii	"unsigned int\000"
 3306      676E6564 
 3306      20696E74 
 3306      00
 3307              	.LASF63:
 3308 0241 76745F6E 		.ascii	"vt_next\000"
 3308      65787400 
 3309              	.LASF155:
 3310 0249 6770744F 		.ascii	"gptObjectInit\000"
 3310      626A6563 
 3310      74496E69 
 3310      7400
 3311              	.LASF157:
 3312 0257 6E766963 		.ascii	"nvicDisableVector\000"
 3312      44697361 
 3312      626C6556 
 3312      6563746F 
 3312      7200
 3313              	.LASF113:
 3314 0269 77747365 		.ascii	"wtsemp\000"
 3314      6D7000
 3315              	.LASF150:
 3316 0270 6770745F 		.ascii	"gpt_lld_polled_delay\000"
 3316      6C6C645F 
 3316      706F6C6C 
 3316      65645F64 
 3316      656C6179 
 3317              	.LASF41:
 3318 0285 705F6D73 		.ascii	"p_msgqueue\000"
 3318      67717565 
 3318      756500
 3319              	.LASF91:
 3320 0290 5243435F 		.ascii	"RCC_TypeDef\000"
 3320      54797065 
 3320      44656600 
 3321              	.LASF48:
 3322 029c 63685F74 		.ascii	"ch_thread\000"
 3322      68726561 
 3322      6400
 3323              	.LASF145:
 3324 02a6 67707470 		.ascii	"gptp\000"
 3324      00
 3325              	.LASF118:
 3326 02ab 735F636E 		.ascii	"s_cnt\000"
 3326      7400
 3327              	.LASF126:
 3328 02b1 4750545F 		.ascii	"GPT_UNINIT\000"
 3328      554E494E 
ARM GAS  /tmp/cchWVbPq.s 			page 91


 3328      495400
 3329              	.LASF137:
 3330 02bc 67707466 		.ascii	"gptfreq_t\000"
 3330      7265715F 
 3330      7400
 3331              	.LASF45:
 3332 02c6 705F6D70 		.ascii	"p_mpool\000"
 3332      6F6F6C00 
 3333              	.LASF25:
 3334 02ce 6D73675F 		.ascii	"msg_t\000"
 3334      7400
 3335              	.LASF162:
 3336 02d4 5F706F72 		.ascii	"_port_irq_epilogue\000"
 3336      745F6972 
 3336      715F6570 
 3336      696C6F67 
 3336      756500
 3337              	.LASF140:
 3338 02e7 63616C6C 		.ascii	"callback\000"
 3338      6261636B 
 3338      00
 3339              	.LASF146:
 3340 02f0 6770745F 		.ascii	"gpt_lld_init\000"
 3340      6C6C645F 
 3340      696E6974 
 3340      00
 3341              	.LASF105:
 3342 02fd 73746D33 		.ascii	"stm32_tim_t\000"
 3342      325F7469 
 3342      6D5F7400 
 3343              	.LASF53:
 3344 0309 63685F72 		.ascii	"ch_ready_list\000"
 3344      65616479 
 3344      5F6C6973 
 3344      7400
 3345              	.LASF26:
 3346 0317 6576656E 		.ascii	"eventmask_t\000"
 3346      746D6173 
 3346      6B5F7400 
 3347              	.LASF8:
 3348 0323 5F5F696E 		.ascii	"__int32_t\000"
 3348      7433325F 
 3348      7400
 3349              	.LASF93:
 3350 032d 73746B61 		.ascii	"stkalign_t\000"
 3350      6C69676E 
 3350      5F7400
 3351              	.LASF47:
 3352 0338 74687265 		.ascii	"threads_list_t\000"
 3352      6164735F 
 3352      6C697374 
 3352      5F7400
 3353              	.LASF40:
 3354 0347 705F7761 		.ascii	"p_waiting\000"
 3354      6974696E 
 3354      6700
 3355              	.LASF80:
ARM GAS  /tmp/cchWVbPq.s 			page 92


 3356 0351 73697A65 		.ascii	"sizetype\000"
 3356      74797065 
 3356      00
 3357              	.LASF46:
 3358 035a 74687265 		.ascii	"thread_reference_t\000"
 3358      61645F72 
 3358      65666572 
 3358      656E6365 
 3358      5F7400
 3359              	.LASF69:
 3360 036d 63685F76 		.ascii	"ch_virtual_timers_list\000"
 3360      69727475 
 3360      616C5F74 
 3360      696D6572 
 3360      735F6C69 
 3361              	.LASF111:
 3362 0384 77747472 		.ascii	"wttrp\000"
 3362      7000
 3363              	.LASF128:
 3364 038a 4750545F 		.ascii	"GPT_READY\000"
 3364      52454144 
 3364      5900
 3365              	.LASF30:
 3366 0394 705F6E65 		.ascii	"p_next\000"
 3366      787400
 3367              	.LASF144:
 3368 039b 6770745F 		.ascii	"gpt_lld_stop_timer\000"
 3368      6C6C645F 
 3368      73746F70 
 3368      5F74696D 
 3368      657200
 3369              	.LASF70:
 3370 03ae 76745F6C 		.ascii	"vt_lasttime\000"
 3370      61737474 
 3370      696D6500 
 3371              	.LASF35:
 3372 03ba 705F6F6C 		.ascii	"p_older\000"
 3372      64657200 
 3373              	.LASF56:
 3374 03c2 725F6374 		.ascii	"r_ctx\000"
 3374      7800
 3375              	.LASF107:
 3376 03c8 746D5F63 		.ascii	"tm_calibration_t\000"
 3376      616C6962 
 3376      72617469 
 3376      6F6E5F74 
 3376      00
 3377              	.LASF88:
 3378 03d9 41484252 		.ascii	"AHBRSTR\000"
 3378      53545200 
 3379              	.LASF59:
 3380 03e1 725F6375 		.ascii	"r_current\000"
 3380      7272656E 
 3380      7400
 3381              	.LASF148:
 3382 03eb 6770745F 		.ascii	"gpt_lld_start_timer\000"
 3382      6C6C645F 
ARM GAS  /tmp/cchWVbPq.s 			page 93


 3382      73746172 
 3382      745F7469 
 3382      6D657200 
 3383              	.LASF13:
 3384 03ff 5F5F7569 		.ascii	"__uint64_t\000"
 3384      6E743634 
 3384      5F7400
 3385              	.LASF151:
 3386 040a 6770745F 		.ascii	"gpt_lld_serve_interrupt\000"
 3386      6C6C645F 
 3386      73657276 
 3386      655F696E 
 3386      74657272 
 3387              	.LASF23:
 3388 0422 74726566 		.ascii	"trefs_t\000"
 3388      735F7400 
 3389              	.LASF95:
 3390 042a 706F7274 		.ascii	"port_intctx\000"
 3390      5F696E74 
 3390      63747800 
 3391              	.LASF61:
 3392 0436 76697274 		.ascii	"virtual_timer_t\000"
 3392      75616C5F 
 3392      74696D65 
 3392      725F7400 
 3393              	.LASF31:
 3394 0446 705F7072 		.ascii	"p_prev\000"
 3394      657600
 3395              	.LASF24:
 3396 044d 74707269 		.ascii	"tprio_t\000"
 3396      6F5F7400 
 3397              	.LASF72:
 3398 0455 63685F73 		.ascii	"ch_system_debug\000"
 3398      79737465 
 3398      6D5F6465 
 3398      62756700 
 3399              	.LASF125:
 3400 0465 5F426F6F 		.ascii	"_Bool\000"
 3400      6C00
 3401              	.LASF17:
 3402 046b 696E7433 		.ascii	"int32_t\000"
 3402      325F7400 
 3403              	.LASF4:
 3404 0473 756E7369 		.ascii	"unsigned char\000"
 3404      676E6564 
 3404      20636861 
 3404      7200
 3405              	.LASF153:
 3406 0481 49544D5F 		.ascii	"ITM_RxBuffer\000"
 3406      52784275 
 3406      66666572 
 3406      00
 3407              	.LASF43:
 3408 048e 705F6D74 		.ascii	"p_mtxlist\000"
 3408      786C6973 
 3408      7400
 3409              	.LASF5:
ARM GAS  /tmp/cchWVbPq.s 			page 94


 3410 0498 73686F72 		.ascii	"short int\000"
 3410      7420696E 
 3410      7400
 3411              	.LASF37:
 3412 04a2 705F7374 		.ascii	"p_state\000"
 3412      61746500 
 3413              	.LASF55:
 3414 04aa 725F7072 		.ascii	"r_prio\000"
 3414      696F00
 3415              	.LASF115:
 3416 04b1 65776D61 		.ascii	"ewmask\000"
 3416      736B00
 3417              	.LASF38:
 3418 04b8 705F666C 		.ascii	"p_flags\000"
 3418      61677300 
 3419              	.LASF85:
 3420 04c0 41504232 		.ascii	"APB2ENR\000"
 3420      454E5200 
 3421              	.LASF62:
 3422 04c8 63685F76 		.ascii	"ch_virtual_timer\000"
 3422      69727475 
 3422      616C5F74 
 3422      696D6572 
 3422      00
 3423              	.LASF116:
 3424 04d9 63685F73 		.ascii	"ch_semaphore\000"
 3424      656D6170 
 3424      686F7265 
 3424      00
 3425              	.LASF104:
 3426 04e6 43435852 		.ascii	"CCXR\000"
 3426      00
 3427              	.LASF42:
 3428 04eb 705F6570 		.ascii	"p_epending\000"
 3428      656E6469 
 3428      6E6700
 3429              	.LASF127:
 3430 04f6 4750545F 		.ascii	"GPT_STOP\000"
 3430      53544F50 
 3430      00
 3431              	.LASF27:
 3432 04ff 636E745F 		.ascii	"cnt_t\000"
 3432      7400
 3433              	.LASF18:
 3434 0505 75696E74 		.ascii	"uint32_t\000"
 3434      33325F74 
 3434      00
 3435              	.LASF114:
 3436 050e 77746D74 		.ascii	"wtmtxp\000"
 3436      787000
 3437              	.LASF54:
 3438 0515 725F7175 		.ascii	"r_queue\000"
 3438      65756500 
 3439              	.LASF65:
 3440 051d 76745F64 		.ascii	"vt_delta\000"
 3440      656C7461 
 3440      00
ARM GAS  /tmp/cchWVbPq.s 			page 95


 3441              	.LASF49:
 3442 0526 63685F74 		.ascii	"ch_threads_list\000"
 3442      68726561 
 3442      64735F6C 
 3442      69737400 
 3443              	.LASF11:
 3444 0536 6C6F6E67 		.ascii	"long unsigned int\000"
 3444      20756E73 
 3444      69676E65 
 3444      6420696E 
 3444      7400
 3445              	.LASF123:
 3446 0548 63686172 		.ascii	"char\000"
 3446      00
 3447              	.LASF6:
 3448 054d 5F5F7569 		.ascii	"__uint16_t\000"
 3448      6E743136 
 3448      5F7400
 3449              	.LASF96:
 3450 0558 534D4352 		.ascii	"SMCR\000"
 3450      00
 3451              	.LASF134:
 3452 055d 636F6E66 		.ascii	"config\000"
 3452      696700
 3453              	.LASF102:
 3454 0564 444D4152 		.ascii	"DMAR\000"
 3454      00
 3455              	.LASF29:
 3456 0569 74687265 		.ascii	"thread_t\000"
 3456      61645F74 
 3456      00
 3457              	.LASF122:
 3458 0572 6D5F6E65 		.ascii	"m_next\000"
 3458      787400
 3459              	.LASF28:
 3460 0579 73797374 		.ascii	"systime_t\000"
 3460      696D655F 
 3460      7400
 3461              	.LASF44:
 3462 0583 705F7265 		.ascii	"p_realprio\000"
 3462      616C7072 
 3462      696F00
 3463              	.LASF60:
 3464 058e 76746675 		.ascii	"vtfunc_t\000"
 3464      6E635F74 
 3464      00
 3465              	.LASF10:
 3466 0597 5F5F7569 		.ascii	"__uint32_t\000"
 3466      6E743332 
 3466      5F7400
 3467              	.LASF73:
 3468 05a2 70616E69 		.ascii	"panic_msg\000"
 3468      635F6D73 
 3468      6700
 3469              	.LASF106:
 3470 05ac 6F666673 		.ascii	"offset\000"
 3470      657400
ARM GAS  /tmp/cchWVbPq.s 			page 96


 3471              	.LASF86:
 3472 05b3 41504231 		.ascii	"APB1ENR\000"
 3472      454E5200 
 3473              	.LASF142:
 3474 05bb 47505443 		.ascii	"GPTConfig\000"
 3474      6F6E6669 
 3474      6700
 3475              	.LASF94:
 3476 05c5 636F6E74 		.ascii	"context\000"
 3476      65787400 
 3477              	.LASF58:
 3478 05cd 725F6F6C 		.ascii	"r_older\000"
 3478      64657200 
 3479              	.LASF74:
 3480 05d5 63685F73 		.ascii	"ch_system_t\000"
 3480      79737465 
 3480      6D5F7400 
 3481              	.LASF159:
 3482 05e1 2E2E2F43 		.ascii	"../ChibiOS/os/hal/ports/STM32/LLD/TIMv1/gpt_lld.c\000"
 3482      68696269 
 3482      4F532F6F 
 3482      732F6861 
 3482      6C2F706F 
 3483              	.LASF20:
 3484 0613 7274636E 		.ascii	"rtcnt_t\000"
 3484      745F7400 
 3485              	.LASF147:
 3486 061b 6770745F 		.ascii	"gpt_lld_start\000"
 3486      6C6C645F 
 3486      73746172 
 3486      7400
 3487              	.LASF67:
 3488 0629 76745F70 		.ascii	"vt_par\000"
 3488      617200
 3489              	.LASF50:
 3490 0630 74687265 		.ascii	"threads_queue_t\000"
 3490      6164735F 
 3490      71756575 
 3490      655F7400 
 3491              	.LASF119:
 3492 0640 63685F6D 		.ascii	"ch_mutex\000"
 3492      75746578 
 3492      00
 3493              	.LASF39:
 3494 0649 705F7265 		.ascii	"p_refs\000"
 3494      667300
 3495              	.LASF143:
 3496 0650 6770745F 		.ascii	"gpt_lld_stop\000"
 3496      6C6C645F 
 3496      73746F70 
 3496      00
 3497              	.LASF87:
 3498 065d 42444352 		.ascii	"BDCR\000"
 3498      00
 3499              	.LASF76:
 3500 0662 726C6973 		.ascii	"rlist\000"
 3500      7400
ARM GAS  /tmp/cchWVbPq.s 			page 97


 3501              	.LASF89:
 3502 0668 43464752 		.ascii	"CFGR2\000"
 3502      3200
 3503              	.LASF90:
 3504 066e 43464752 		.ascii	"CFGR3\000"
 3504      3300
 3505              	.LASF15:
 3506 0674 75696E74 		.ascii	"uint8_t\000"
 3506      385F7400 
 3507              	.LASF158:
 3508 067c 474E5520 		.ascii	"GNU C 4.8.4 20140526 (release) [ARM/embedded-4_8-br"
 3508      4320342E 
 3508      382E3420 
 3508      32303134 
 3508      30353236 
 3509 06af 616E6368 		.ascii	"anch revision 211358] -mcpu=cortex-m4 -mno-thumb-in"
 3509      20726576 
 3509      6973696F 
 3509      6E203231 
 3509      31333538 
 3510 06e2 74657277 		.ascii	"terwork -mthumb -ggdb -O2 -fomit-frame-pointer -fal"
 3510      6F726B20 
 3510      2D6D7468 
 3510      756D6220 
 3510      2D676764 
 3511 0715 69676E2D 		.ascii	"ign-functions=16 -ffunction-sections -fdata-section"
 3511      66756E63 
 3511      74696F6E 
 3511      733D3136 
 3511      202D6666 
 3512 0748 73202D66 		.ascii	"s -fno-common -flto\000"
 3512      6E6F2D63 
 3512      6F6D6D6F 
 3512      6E202D66 
 3512      6C746F00 
 3513              	.LASF110:
 3514 075c 77746F62 		.ascii	"wtobjp\000"
 3514      6A7000
 3515              	.LASF36:
 3516 0763 705F6E61 		.ascii	"p_name\000"
 3516      6D6500
 3517              	.LASF81:
 3518 076a 43464752 		.ascii	"CFGR\000"
 3518      00
 3519              	.LASF21:
 3520 076f 746D6F64 		.ascii	"tmode_t\000"
 3520      655F7400 
 3521              	.LASF135:
 3522 0777 636C6F63 		.ascii	"clock\000"
 3522      6B00
 3523              	.LASF121:
 3524 077d 6D5F6F77 		.ascii	"m_owner\000"
 3524      6E657200 
 3525              	.LASF33:
 3526 0785 705F6374 		.ascii	"p_ctx\000"
 3526      7800
 3527              	.LASF66:
ARM GAS  /tmp/cchWVbPq.s 			page 98


 3528 078b 76745F66 		.ascii	"vt_func\000"
 3528      756E6300 
 3529              	.LASF84:
 3530 0793 41484245 		.ascii	"AHBENR\000"
 3530      4E5200
 3531              	.LASF141:
 3532 079a 64696572 		.ascii	"dier\000"
 3532      00
 3533              		.comm	__gnu_lto_v1,1,1
 3534              		.ident	"GCC: (GNU Tools for ARM Embedded Processors) 4.8.4 20140526 (release) [ARM/embedded-4_8-br
ARM GAS  /tmp/cchWVbPq.s 			page 99


DEFINED SYMBOLS
                            *ABS*:00000000 gpt_lld.c
     /tmp/cchWVbPq.s:501    .text.gpt_lld_init:00000000 $t
     /tmp/cchWVbPq.s:507    .text.gpt_lld_init:00000000 gpt_lld_init
     /tmp/cchWVbPq.s:525    .text.gpt_lld_init:0000000c $d
     /tmp/cchWVbPq.s:531    .text.gpt_lld_start:00000000 $t
     /tmp/cchWVbPq.s:537    .text.gpt_lld_start:00000000 gpt_lld_start
     /tmp/cchWVbPq.s:623    .text.gpt_lld_start:0000005c $d
     /tmp/cchWVbPq.s:630    .text.gpt_lld_stop:00000000 $t
     /tmp/cchWVbPq.s:636    .text.gpt_lld_stop:00000000 gpt_lld_stop
     /tmp/cchWVbPq.s:688    .text.gpt_lld_stop:0000002c $d
     /tmp/cchWVbPq.s:696    .text.gpt_lld_start_timer:00000000 $t
     /tmp/cchWVbPq.s:702    .text.gpt_lld_start_timer:00000000 gpt_lld_start_timer
     /tmp/cchWVbPq.s:747    .text.gpt_lld_stop_timer:00000000 $t
     /tmp/cchWVbPq.s:753    .text.gpt_lld_stop_timer:00000000 gpt_lld_stop_timer
     /tmp/cchWVbPq.s:776    .text.gpt_lld_polled_delay:00000000 $t
     /tmp/cchWVbPq.s:782    .text.gpt_lld_polled_delay:00000000 gpt_lld_polled_delay
     /tmp/cchWVbPq.s:818    .text.gpt_lld_serve_interrupt:00000000 $t
     /tmp/cchWVbPq.s:824    .text.gpt_lld_serve_interrupt:00000000 gpt_lld_serve_interrupt
     /tmp/cchWVbPq.s:875    .text.VectorA4:00000000 $t
     /tmp/cchWVbPq.s:881    .text.VectorA4:00000000 VectorA4
     /tmp/cchWVbPq.s:903    .text.VectorA4:00000010 $d
     /tmp/cchWVbPq.s:913    .bss.GPTD1:00000000 GPTD1
     /tmp/cchWVbPq.s:909    .bss.GPTD1:00000000 $d
                            *COM*:00000001 __gnu_lto_v1
                     .debug_frame:00000010 $d
     /tmp/cchWVbPq.s:530    .text.gpt_lld_init:00000014 $t
     /tmp/cchWVbPq.s:629    .text.gpt_lld_start:00000068 $t
     /tmp/cchWVbPq.s:695    .text.gpt_lld_stop:00000034 $t
     /tmp/cchWVbPq.s:908    .text.VectorA4:00000014 $t

UNDEFINED SYMBOLS
gptObjectInit
nvicEnableVector
nvicDisableVector
_port_irq_epilogue
