ARM GAS  /tmp/cc7TT2jv.s 			page 1


   1              		.syntax unified
   2              		.cpu cortex-m4
   3              		.fpu softvfp
   4              		.eabi_attribute 20, 1
   5              		.eabi_attribute 21, 1
   6              		.eabi_attribute 23, 3
   7              		.eabi_attribute 24, 1
   8              		.eabi_attribute 25, 1
   9              		.eabi_attribute 26, 1
  10              		.eabi_attribute 30, 2
  11              		.eabi_attribute 34, 1
  12              		.eabi_attribute 18, 4
  13              		.thumb
  14              		.file	"nvic.c"
  15              		.text
  16              	.Ltext0:
  17              		.section	.gnu.lto_.jmpfuncs.fb140c3bb965f25d,"",%progbits
  18 0000 789C6362 		.ascii	"x\234cb`b\300\006\270\2404\013\0033##\02333#\003\000"
  18      6062C006 
  18      B8A0340B 
  18      03332323 
  18      13333323 
  19 0016 01F00021 		.ascii	"\001\360\000!"
  20              		.text
  21              		.section	.gnu.lto_.inline.fb140c3bb965f25d,"",%progbits
  22 0000 789C6D4C 		.ascii	"x\234mL\313\025\200 \014KK\205\352\305\021\330\300%"
  22      CB158020 
  22      0C4B4B85 
  22      EAC511D8 
  22      C025
  23 0012 5D84911C 		.ascii	"]\204\221\034\305\021LQy\036\354!}\371*\024\177\267"
  23      C5114C51 
  23      791EEC21 
  23      7DF92A14 
  23      7FB7
  24 0024 3FDF8065 		.ascii	"?\337\200e\026\025\011\022`\371\334\220[U\350\261\032"
  24      16150912 
  24      60F9DC90 
  24      5B55E8B1 
  24      1A
  25 0035 C89CAAD3 		.ascii	"\310\234\252\323\363\302TD\222\265zG\350Z\037QL&\322"
  25      F3C25444 
  25      92B57A47 
  25      E85A1F51 
  25      4C26D2
  26 0048 57127B9F 		.ascii	"W\022{\237\201PP\362[\035\346\250\342\002a/\015\002"
  26      815050F2 
  26      5B1DE6A8 
  26      E202612F 
  26      0D02
  27              		.text
  28              		.section	.gnu.lto_.pureconst.fb140c3bb965f25d,"",%progbits
  29 0000 789C6362 		.ascii	"x\234cb`b\340d\200\000\026\006)F)&)f)\000\002\326\000"
  29      6062E064 
  29      80001606 
  29      29462926 
  29      29662900 
ARM GAS  /tmp/cc7TT2jv.s 			page 2


  30 0017 80       		.ascii	"\200"
  31              		.text
  32              		.section	.gnu.lto_nvicEnableVector.fb140c3bb965f25d,"",%progbits
  33 0000 789C9D91 		.ascii	"x\234\235\221\277K\303@\024\307\337\2734\346GQW\235"
  33      BF4BC340 
  33      14C7DFBB 
  33      34E64751 
  33      579D
  34 0012 2CBA08D2 		.ascii	",\272\010\322\244\340\340\340$\235\034\212P+\350\330"
  34      A4E0E0E0 
  34      249D1C8A 
  34      502BE8D8 
  35 0022 664803B6 		.ascii	"fH\003\266\021+\342f\332t\323\241\203\213\325\301\""
  35      112BE266 
  35      DA74D3A1 
  35      838BD5C1 
  35      22
  36 0033 22883FFE 		.ascii	"\"\210?\376\000AJ7\207*nNR\\\005\021'A!\276Kl\244\""
  36      00414A37 
  36      872A6E4E 
  36      525C0511 
  36      274121BE 
  37 004b 0E1EDCDD 		.ascii	"\016\036\334\335\273{\337\367\276\237\343\0300\3709"
  37      BB7BDFF7 
  37      BE9FE318 
  37      30F839
  38 005a 8669A6E9 		.ascii	"\206i\246\351z\222v\024\000Y\355\006\240,3D\036\000"
  38      7A927614 
  38      0059ED06 
  38      A02C3344 
  38      1E00
  39 006c C226C3CD 		.ascii	"\302&\303\315%\344R\034\205\206\343\324:G\217olw\247"
  39      25E4521C 
  39      8586E3D4 
  39      3A478F6F 
  39      6C77A7
  40 007f 593D703E 		.ascii	"Y=p><\017\321Bj\233@0\020\026\351\2001\177c\221^\237"
  40      3C0FD142 
  40      6A9B4030 
  40      1016E980 
  40      317F6391 
  41 0095 0BD6EC78 		.ascii	"\013\326\354x\336\376m\375a\010\373\021\013\274\310"
  41      DEFE6DFD 
  41      6108FB11 
  41      0BBCC8
  42 00a4 4241E08B 		.ascii	"BA\340\213HG\224(\212\310\220\305\006\371(t\000\225"
  42      48479428 
  42      8AC890C5 
  42      06F92874 
  42      0095
  43 00b6 16914A45 		.ascii	"\026\221JE\250\222m\014\270\003\215\014\255\234m\001"
  43      A8926D0C 
  43      B8038D0C 
  43      AD9C6D01 
  44 00c6 19DF8536 		.ascii	"\031\337\2056T\236\\\357\035\263xHr\023\231\211\244"
  44      549E5CEF 
  44      1DB37848 
ARM GAS  /tmp/cc7TT2jv.s 			page 3


  44      72139989 
  44      A4
  45 00d7 68837B26 		.ascii	"h\203{&t\257\004\272\345P}\034\252\015\255\331 \021"
  45      74AF04BA 
  45      E5507D1C 
  45      AA0DADD9 
  45      2011
  46 00e9 8753A75A 		.ascii	"\207S\247Zv\246(1\001'<\034\264P\332\203:Ie\256W\234"
  46      76A62831 
  46      01273C1C 
  46      B450DA83 
  46      3A4965AE 
  47 00ff 96EB0CF8 		.ascii	"\226\353\014\370\357Q\374W\3440x\215\351\203\005\221"
  47      EF51FC57 
  47      E430788D 
  47      E9830591 
  48 010f E09B9DBB 		.ascii	"\340\233\235\273\307\333\343]?\211\362\274\010D\337"
  48      C7DBE35D 
  48      3F89F2BC 
  48      0844DF
  49 011e AFF2EC5E 		.ascii	"\257\362\354^\205x\262_K\025\227!\236b\006v0\002\001"
  49      8578B25F 
  49      4B159721 
  49      9E620676 
  49      300201
  50 0131 B8FB1ACA 		.ascii	"\270\373\032\312U\236\020\221\253|\364\353\227h\017"
  50      559E1091 
  50      AB7CF4EB 
  50      97680F
  51 0140 FCB485EA 		.ascii	"\374\264\205\3527|\364ox\374B\226Bx5hzO_\372\377\266"
  51      377CF46F 
  51      78FC4296 
  51      42783568 
  51      7A4F5FFA 
  52 0156 ECB7B677 		.ascii	"\354\267\266wP\356l\215\005M\273#C\004\364e\\\037\327"
  52      50EE6C8D 
  52      054DBB23 
  52      4304F465 
  52      5C1FD7
  53 0169 343D99B7 		.ascii	"4=\231\267r\326\334\274n\227\364|vY_\261W\327J\272a"
  53      72D6DCBC 
  53      6E97F47C 
  53      76595FB1 
  53      57D74ABA 
  54 017e 170A7651 		.ascii	"\027\012vQ\237I\247\222\251\015\275\270n\031\232\001"
  54      9F49A792 
  54      A90DBDB8 
  54      6E199A01 
  55 018e 42514B7C 		.ascii	"BQK|\002\020\\\224\200"
  55      02105C94 
  55      80
  56              		.text
  57              		.section	.gnu.lto_nvicDisableVector.fb140c3bb965f25d,"",%progbits
  58 0000 789C7D50 		.ascii	"x\234}P=K\003A\020\235\267w\247\211\202bie\320F\220"
  58      3D4B0341 
  58      109DB777 
  58      A7898262 
ARM GAS  /tmp/cc7TT2jv.s 			page 4


  58      6965D046 
  59 0015 DC291616 		.ascii	"\334)\026\026V\222:\010\032A\313\344\212\344\300\344"
  59      56923A08 
  59      1A41CBE4 
  59      8AE4C0E4 
  60 0025 C488D8E5 		.ascii	"\304\210\330\345\342\305\316\"\205\205\037\215\301."
  60      E2C5CE22 
  60      85851F8D 
  60      C12E
  61 0033 C40FB011 		.ascii	"\304\017\260\021\004\011\001\013\213\010\376\203`#X"
  61      0409010B 
  61      8B08FE83 
  61      602358
  62 0042 88689342 		.ascii	"\210h\223B8g/9%\026\016\354\316\354\2747ofV\220\240"
  62      38672F39 
  62      25160EEC 
  62      CEECBC37 
  62      6F665690 
  63 0057 BF36CAE7 		.ascii	"\2776\312\347\036D\263\354\241\020D\371\221\250\030"
  63      1E44B3EC 
  63      A11044F9 
  63      91A818
  64 0066 12800C08 		.ascii	"\022\200\014\010T\020(\254AR1N\025\307)\267\366^\332"
  64      541028AC 
  64      4152314E 
  64      15C729B7 
  64      F65EDA
  65 0079 E2E8A05E 		.ascii	"\342\350\240^:u\276<\017\260\300\262\323 \023\264\312"
  65      3A75BE3C 
  65      0FB0C0B2 
  65      D32013B4 
  65      CA
  66 008a 0F447C27 		.ascii	"\017D|'\324\336>\227\242\336\362\274\332\365\325s\025"
  66      D4DE3E97 
  66      A2DEF2BC 
  66      DAF5D573 
  66      15
  67 009b 2361202B 		.ascii	"#a +\253,(\012%Qae\225\037\244\361%\3534*q\243\010I"
  67      AB2C280A 
  67      25516165 
  67      951FA4F1 
  67      25EB342A 
  68 00b3 4DB604DF 		.ascii	"M\266\004\337r\232\025\010\351\225&\271\027\356\347"
  68      729A1508 
  68      E99526B9 
  68      17EEE7
  69 00c2 FE641267 		.ascii	"\376d\022g\320(\015\221\006dO\256#j\322\356\233{\207"
  69      D0280D91 
  69      06644FAE 
  69      236AD2EE 
  69      9B7B87
  70 00d5 00531893 		.ascii	"\000S\030\223I\367V\011R*g}\372\230Ow\317\335\217\037"
  70      49F75609 
  70      522A677D 
  70      FA984F77 
  70      CFDD8F1F 
  71 00e9 BA260115 		.ascii	"\272&\001\025\222%\261\306\303\373`\007\212R\315)\025"
ARM GAS  /tmp/cc7TT2jv.s 			page 5


  71      9225B1C6 
  71      C3FB6007 
  71      8A52CD29 
  71      15
  72 00fa 9D790BDA 		.ascii	"\235y\013\332\024Ue8l\241\357\204\216\231\337/\213B"
  72      14556538 
  72      6CA1EF84 
  72      8E99DF2F 
  72      8B42
  73 010c 4EC37586 		.ascii	"N\303u\206\374\335C\376\306)t6\347\371(\2104_\364\346"
  73      FCDD43FE 
  73      C6297436 
  73      E7F92888 
  73      345FF4E6 
  74 0120 F0B58D1E 		.ascii	"\360\265\215\036\3319\013\341_\331\201\377e\321\025"
  74      D9390BE1 
  74      5FD981FF 
  74      65D115
  75 012f EBEAFB58 		.ascii	"\353\352\373XX\006OTlU':\302\201%\230\306\177&G\210"
  75      58064F54 
  75      6C55273A 
  75      C2812598 
  75      C67F2647 
  76 0144 EABA11CB 		.ascii	"\352\272\021\313X)kq\331\260\363F&\271nl\330\233[y\303"
  76      58296B71 
  76      D9B0F346 
  76      26B96E6C 
  76      D89B5B79 
  77 0159 B4B3593B 		.ascii	"\264\263Y;g,,\305c\361\035#\267m\231\272IJN\237\371"
  77      672C2CC5 
  77      63F11D23 
  77      B76D99BA 
  77      494A4E9F 
  78 016e 06CE8A78 		.ascii	"\006\316\212xt"
  78      74
  79              		.text
  80              		.section	.gnu.lto_nvicSetSystemHandlerPriority.fb140c3bb965f25d,"",%progbits
  81 0000 789C5D50 		.ascii	"x\234]P-O\003A\020}o\267\0270\340q$\225\344n%\232T!"
  81      2D4F0341 
  81      107D6FB7 
  81      1730E071 
  81      2495E46E 
  82 0018 1A122809 		.ascii	"\032\022(\011\310\366D\273\011\327#\224\020\\\367\270"
  82      C8F644BB 
  82      09D72394 
  82      105CF7B8 
  83 0028 0649AA41 		.ascii	"\006I\252Aa\011\037\202?@\021\270^\202E\325c\020\370"
  83      61091F82 
  83      3F4011B8 
  83      5E8245D5 
  83      6310F8
  84 003b 327B9733 		.ascii	"2{\2273L2\263og\336\274}Y\005\205\377\261!\371#i$\251"
  84      4C32B36F 
  84      67DEBC7D 
  84      590585FF 
  84      B121F923 
  85 0052 41352D80 		.ascii	"A5-\200lU\221\036\200\030+\216\217Yr_\324\333b\271|"
ARM GAS  /tmp/cc7TT2jv.s 			page 6


  85      6C55911E 
  85      80182B8E 
  85      8F59725F 
  85      D4DB62B9 
  86 0067 FEBDFE98 		.ascii	"\376\275\376\230\261h\256\220\011E\321\022\332\227@"
  86      B168AE90 
  86      0945D112 
  86      DA9740
  87 0076 AE9E1760 		.ascii	"\256\236\027`\342\334t3\241<\026\227\213\035\251^\355"
  87      E2DC7433 
  87      A13C1697 
  87      8B1DA95E 
  87      ED
  88 0087 505A72EA 		.ascii	"PZr\3529\256\276\363\327\233\260\313{\006\350S\365\375"
  88      39AEBEF3 
  88      D79BB0CB 
  88      7B06E853 
  88      F5FD
  89 0099 E21CF993 		.ascii	"\342\034\371\223\256[Z\272G\264d\003~\362\276[\015B"
  89      AE5B5ABA 
  89      47B46403 
  89      7EF2BE5B 
  89      0D42
  90 00ab 3CBA49E6 		.ascii	"<\272I\346\266e\260\205\007\017\327,\325\035n\205\252"
  90      B665B085 
  90      070FD72C 
  90      D51D6E85 
  90      AA
  91 00bc 3DBFE1BE 		.ascii	"=\277\341\276r\267\216\022\226\236{\225u\221\014P#\015"
  91      72B78E12 
  91      969E7B95 
  91      75910C50 
  91      230D
  92 00ce 7C225B14 		.ascii	"|\"[\024\315J\264\216\216\270\020{\376\217\302(2\255"
  92      CD4AB48E 
  92      8EB8107B 
  92      FE8FC228 
  92      32AD
  93 00e0 81EDD9BD 		.ascii	"\201\355\331\275\003\223\216\314\240{bN\323\263\363"
  93      03938ECC 
  93      A07B624E 
  93      D3B3F3
  94 00ef 9189D324 		.ascii	"\221\211\323$I\207fg\277\335j_\232\341\205\215\243\030"
  94      49876667 
  94      BFDD6A5F 
  94      9AE1858D 
  94      A318
  95 0101 7F83C847 		.ascii	"\177\203\310G\205"
  95      85
  96              		.text
  97              		.section	.gnu.lto_nvicClearPending.fb140c3bb965f25d,"",%progbits
  98 0000 789C5D50 		.ascii	"x\234]P1H\303P\020\275\367\177\222\352\2428:Yt\021\244"
  98      3148C350 
  98      10BDF77F 
  98      92EAA238 
  98      3A597411 
  99 0015 89E8E824 		.ascii	"\211\350\350$\235\034\212\240\025tL3\264\001\333\210"
ARM GAS  /tmp/cc7TT2jv.s 			page 7


  99      9D1C8AA0 
  99      15744C33 
  99      B401DB88 
 100 0025 1571EBAF 		.ascii	"\025q\353\257\351,\035\\\324\305\342&Uw\273\224\356"
 100      E92C1D5C 
 100      D4C5E226 
 100      5577BB94 
 100      EE
 101 0036 15DD1D8A 		.ascii	"\025\335\035\212 \024\007W\027!\336OMA\017\376\277\373"
 101      20140757 
 101      1721DE4F 
 101      4D410FFE 
 101      BFFB
 102 0048 EFDEBDBB 		.ascii	"\357\336\275\273\177\202\004\375\267Y>\012D\253\354"
 102      7F8204FD 
 102      B7593E0A 
 102      44ABEC
 103 0057 2109A2F9 		.ascii	"!\011\242\371DT\237\020\200\016\010T\023\250\355AS1"
 103      44549F10 
 103      800E0854 
 103      13A8ED41 
 103      5331
 104 0069 4F2DA59A 		.ascii	"O-\245\232\203\367\257gyq\336m\\\253\357(\002|\260\354"
 104      83F7AF67 
 104      7971DE6D 
 104      5CABEF28 
 104      027CB0EC 
 105 007d 32C803ED 		.ascii	"2\310\003\355\362\003\351\330\011\343o\237\007\321\035"
 105      F203E9D8 
 105      09E36F9F 
 105      07D11D
 106 008c 44D16BA7 		.ascii	"D\321k\247\3756\304\314$P\326U>\244$\027-V6\370A\246"
 106      FD36C4CC 
 106      2450D655 
 106      3EA42417 
 106      2D5636F8 
 107 00a2 BE2C0D73 		.ascii	"\276,\015s\205I\015\356\226&-\314\226\347[\217\264\003"
 107      85490DEE 
 107      96262DCC 
 107      96E75B8F 
 107      B403
 108 00b4 A1BDEC53 		.ascii	"\241\275\354Sx\037Fg\213.n`R\021\242\010\350\306\\G"
 108      781F4667 
 108      8B2E6E60 
 108      5211A208 
 108      E8C65C47 
 109 00c8 D4A7D3CF 		.ascii	"\324\247\323\317\360\003INrN\203aG&\220\301hL\237\213"
 109      F003494E 
 109      724E8361 
 109      472690C1 
 109      684C9F8B 
 110 00dc E9E1DD38 		.ascii	"\351\341\3358c\30604\347W\350q,dqZ\203\275\215\021\222"
 110      63C63034 
 110      E757E871 
 110      2C64715A 
 110      83BD8D11 
 111 00f1 A1B66AD4 		.ascii	"\241\266j\324\325\232\017c\211nu8\355\303\274\242K\226"
ARM GAS  /tmp/cc7TT2jv.s 			page 8


 111      D59A0F63 
 111      896E7538 
 111      EDC3BCA2 
 111      4B96
 112 0103 B0B44E4A 		.ascii	"\260\264NJ\365B5\025o$\025\357\241\200\321>x`J\"\213"
 112      F5423515 
 112      6F2415EF 
 112      A180D13E 
 112      78604A22 
 113 0118 E885EA83 		.ascii	"\350\205\352\203\341\302H4\261<\017\315?\325\274\214"
 113      E1C24834 
 113      B13C0FCD 
 113      3FD5BC8C 
 114 0128 6D3BD992 		.ascii	"m;\331\222_\3607\267\235\240\352\224\334}\347 8<\252"
 114      5FF037B7 
 114      9DA0EA94 
 114      DC7DE720 
 114      383CAA
 115 013b 3A5E502E 		.ascii	":^P.\007\025g}+\227\315\2358\225c\337\263=\222\025{"
 115      0715677D 
 115      2B97CD9D 
 115      389563DF 
 115      B33D9215 
 116 0150 E5077161 		.ascii	"\345\007qahb"
 116      6862
 117              		.text
 118              		.section	.gnu.lto_.symbol_nodes.fb140c3bb965f25d,"",%progbits
 119 0000 789C4DC7 		.ascii	"x\234M\307\261\025\000\020\020D\301\275\257/\255m*<"
 119      B1150010 
 119      1044C1BD 
 119      AF2FAD6D 
 119      2A3C
 120 0012 E44A5293 		.ascii	"\344JR\223\304{L6\010U]$\226rK\366jA\307\361u`\276N"
 120      C47B4C36 
 120      08555D24 
 120      96724BF6 
 120      6A41C7F1 
 121 002a 5C5E7500 		.ascii	"\\^u\000Ff\022\247"
 121      466612A7 
 122              		.text
 123              		.section	.gnu.lto_.refs.fb140c3bb965f25d,"",%progbits
 124 0000 789C6362 		.ascii	"x\234cb`b`d\200\002\000\000F\000\006"
 124      60626064 
 124      80020000 
 124      460006
 125              		.text
 126              		.section	.gnu.lto_.decls.fb140c3bb965f25d,"",%progbits
 127 0000 789CBD59 		.ascii	"x\234\275Y\177l\024U\036\177ov\227v\245W\301x\212\006"
 127      7F6C1455 
 127      1E7F6F76 
 127      9776A557 
 127      C1788A06 
 128 0014 43356A8C 		.ascii	"C5j\214w\355B\305\000\377\030\312\266\\\367\217j\263"
 128      77ED42C5 
 128      00FF18CA 
 128      B65CF78F 
 128      6AB3
ARM GAS  /tmp/cc7TT2jv.s 			page 9


 129 0026 0BC4C484 		.ascii	"\013\304\304\204e\330\016v\223v\227\333.w\362\337\353"
 129      65D80E76 
 129      937697DB 
 129      2E77F2DF 
 129      EB
 130 0037 554E3CD0 		.ascii	"UN<\320+\002^\317\303f\301r\034\261\"VlZB\270\015\022"
 130      2B025ECF 
 130      C366C172 
 130      1CB12256 
 130      6C5A42B8 
 131 004d 0F4F1301 		.ascii	"\017O\023\001\365@\212\270\236\271\250\347y\325xzG\016"
 131      F5408AB8 
 131      9EB9A8E7 
 131      79D5787A 
 131      470E
 132 005f D9FBBE37 		.ascii	"\331\373\2767\277\336\233\235\267\2351\346&y\337}3\363"
 132      BFDE9B9D 
 132      B79D31E6 
 132      2679DF7D 
 132      33F3
 133 0071 7D9FF7F9 		.ascii	"}\237\367\371|\337w\336|;U\220\202\266c\204\312pdnF"
 133      7CDF77DE 
 133      7C3B5590 
 133      82B66384 
 133      CA70646E 
 134 0086 E82D05A1 		.ascii	"\350-\005\241\020B\350>d\037Ah{\241\215A\233\200v\034"
 134      1042E83E 
 134      641F4168 
 134      7BA18D41 
 134      9B80761C 
 135 009a 551EF47E 		.ascii	"U\036\364~\235\341[o\364\001\026\325 \035\357\004\264"
 135      9DE15B6F 
 135      F40116D5 
 135      201DEF04 
 135      B4
 136 00ab D7A1BD09 		.ascii	"\327\241\275\011\355khoC;\013-\000\355sh\037A;c\214"
 136      ED6B686F 
 136      433B0B2D 
 136      00ED7368 
 136      1F413B63 
 137 00c0 A1584003 		.ascii	"\241X@\003\275\010\355\005\307<\224\303l\307<\346\034"
 137      BD08ED05 
 137      C73C94C3 
 137      6CC73CE6 
 137      1C
 138 00d1 26A63987 		.ascii	"&\2469\2079'\305\2322\346\301\006\006\375\035w`O\030"
 138      3927C59A 
 138      32E6C106 
 138      06FD1D77 
 138      604F18
 139 00e4 38D818FB 		.ascii	"8\330\030\373\015\264\313\320\026a\375\332l\343w\302"
 139      0DB4CBD0 
 139      1661FDDA 
 139      6CE377C2 
 140 00f4 E07D0CDA 		.ascii	"\340}\014\332Qh\315X\304\241\361\251u\341\350\344\207"
 140      5168CD58 
 140      C4A1F1A9 
ARM GAS  /tmp/cc7TT2jv.s 			page 10


 140      75E1E8E4 
 140      87
 141 0105 0DDDD818 		.ascii	"\015\335\330\030C\177\213\016N\013\3200)\224J\373\207"
 141      437F8B0E 
 141      4E0BD030 
 141      29944AFB 
 141      87
 142 0116 DFC0E429 		.ascii	"\337\300\344)r\245\\\016\240\033\320n\002G\341\227\204"
 142      72A55C0E 
 142      A01BD06E 
 142      0247E197 
 142      84
 143 0127 E0BC8AEF 		.ascii	"\340\274\212\357\373!z\020\253\270>\214\032X\247.\314"
 143      FB217A10 
 143      ABB83E8C 
 143      1A58A72E 
 143      CC
 144 0138 264648C5 		.ascii	"&FH\305\373\360\015\254\027`!@a\264\225\220_\320\201"
 144      FBF00DAC 
 144      17602140 
 144      61B49590 
 144      5FD081
 145 014b EDA78097 		.ascii	"\355\247\200\227\333\250;\320\010!\203\2453\007\267"
 145      DBA83BD0 
 145      082183A5 
 145      3307B7
 146 015a FF98905A 		.ascii	"\377\230\220Z\025\217\3400\214\035\301\030\335\215\016"
 146      158FE030 
 146      8C1DC118 
 146      DD8D0E
 147 0169 C2A48384 		.ascii	"\302\244\203\204\354[\242\240\312\303;\366{\333\216"
 147      EC5BA2A0 
 147      CAC33BF6 
 147      7BDB8E
 148 0178 2D63D87F 		.ascii	"-c\330\177`\330\223\012\006\246\007\360\335\006\220"
 148      60D8930A 
 148      06A607F0 
 148      DD0690
 149 0187 8A6BC23C 		.ascii	"\212k\302<0;7\035(\032\273mth\326^\213\374\272\033\341"
 149      303B371D 
 149      281ABB6D 
 149      7468D65E 
 149      8BFCBA1B 
 150 019c D0D5B1CE 		.ascii	"\320\325\261\316\352\200\005\240\240\223\016F\267\243"
 150      EA8005A0 
 150      A0930E46 
 150      B7A3
 151 01aa E708790A 		.ascii	"\347\010y\012\226`\344&RP\314\230\274\313\274\366\342"
 151      9660E426 
 151      5250CC98 
 151      BCCBBCF6 
 151      E2
 152 01bb 05AE5A0D 		.ascii	"\005\256Z\015l}(\231\324\332\315a\347\274\014C\350N"
 152      6C7D2899 
 152      D4DACD61 
 152      E7BC0C43 
 152      E84E
ARM GAS  /tmp/cc7TT2jv.s 			page 11


 153 01cd B49FAEF1 		.ascii	"\264\237\256\361\023d\313\034\314\226\030\031\243\004"
 153      1364CB1C 
 153      CC961819 
 153      A304
 154 01db A9A35858 		.ascii	"\251\243XX\012=W\212G^\253\033\354/\225\313\013\274"
 154      0A3D578A 
 154      475EAB1B 
 154      EC2F95CB 
 154      0BBC
 155 01ed 27CACB62 		.ascii	"'\312\313b\242\3504\034a\271\350\032\026\262\323\324"
 155      A2E8341C 
 155      61B9E81A 
 155      16B2D3D4 
 156 01fd A6E24340 		.ascii	"\246\342C@G\305c\337I\333\230S\333+\256\332\376ej\323"
 156      47C563DF 
 156      49DB9853 
 156      DB2BAEDA 
 156      FE656AD3 
 157 0211 935B41FF 		.ascii	"\223[A\377tg\305E|[\200zLxZ\250om1\207\231\230\031\206"
 157      7467C545 
 157      7C5B807A 
 157      4C785AA8 
 157      6F6D3187 
 158 0229 49C44C38 		.ascii	"I\304L8\305L\272\2129\372'K\314\313L\314\316\200\253"
 158      C54CBA8A 
 158      39FA274B 
 158      CCCB4CCC 
 158      CE80AB
 159 023c 981DCE10 		.ascii	"\230\035\316\020\037\377N\254\216;Y\375Qd\305\036\341"
 159      1FFF4EAC 
 159      8E3B59FD 
 159      5164C51E 
 159      E1
 160 024d 0152DA4F 		.ascii	"\001R\332O\346\015\331\217p\2559\001\335\235\314\355"
 160      E60DD98F 
 160      70AD3901 
 160      DD9DCCED 
 161 025d E1D30B0A 		.ascii	"\341\323\013\012<\302\3063_m\200\212_\305w\200\305\342"
 161      3CC2C633 
 161      5F6D808A 
 161      5FC57780 
 161      C5E2
 162 026f 4389C376 		.ascii	"C\211\303v\247\214iv\2158\244{\300\266\366\223\341\245"
 162      A78C6976 
 162      8D38A47B 
 162      C0B6F693 
 162      E1A5
 163 0281 6C3F798D 		.ascii	"l?y\215-\367h\300\271\237`\307~2\003\027?\276s\321 "
 163      2DF768C0 
 163      B99F60C7 
 163      7E320317 
 163      3FBE73D1 
 164 0296 8D73C350 		.ascii	"\215s\303P\275\212O\3005\203&\271\326\344\371\205\016"
 164      BD8A4FC0 
 164      358326B9 
 164      D6E4F985 
 164      0E
ARM GAS  /tmp/cc7TT2jv.s 			page 12


 165 02a7 C8FB9DAC 		.ascii	"\310\373\235\254\342\247\342?\343\271\266~b\354\247"
 165      E2A7E23F 
 165      E3B9B67E 
 165      62ECA7
 166 02b6 CC45F6EC 		.ascii	"\314E\366\354\276a\3503.[\235i,(1\335\320uh\007\343"
 166      BE61E833 
 166      2E5B9D69 
 166      2C2831DD 
 166      D0756807 
 167 02cb C26DD385 		.ascii	"\302m\323\205\0226G=:\337\216\354\373S\323+Yd\337\304"
 167      1236473D 
 167      3ADF8EEC 
 167      FB53D32B 
 167      5964DFC4 
 168 02df D74164FF 		.ascii	"\327Ad\377\352\210\254\007 :\361[0X\037\306`Iq\307T"
 168      EA88AC07 
 168      203AF15B 
 168      30581FC6 
 168      604971C7 
 169 02f4 1D09EAD7 		.ascii	"\035\011\352\327\221\000(\034\267\242\002y\264\277\270"
 169      9100281C 
 169      B7A20279 
 169      B4BFB8
 170 0303 7B6A1726 		.ascii	"{j\027&\205\023\330\214\340\251z#M\253\275iT\274\237"
 170      8513D88C 
 170      E0A97A23 
 170      4DABBD69 
 170      54BC9F
 171 0316 65DDCCAF 		.ascii	"e\335\314\257\002s!\024sx\203\260^4\364#\334z9\334T"
 171      02732114 
 171      737883B0 
 171      5E34F423 
 171      DC7A39DC 
 172 032b FC8EEFE5 		.ascii	"\374\216\357\345zW\262\\5\302j\231^\020\366\177\260"
 172      7A57B25C 
 172      35C26A99 
 172      5E10F67F 
 172      B0
 173 033c B0D368B9 		.ascii	"\260\323h\271\262\260pL\320z+\335i\010!\336O?4\250\312"
 173      B2B0704C 
 173      D07A2BDD 
 173      690821DE 
 173      4F3F34A8 
 174 0351 04CD32C7 		.ascii	"\004\3152\307\2573&>\357[\320{\022A7\"S\301\227\025"
 174      AF33263E 
 174      EF5BD07B 
 174      12413722 
 174      53C19715 
 175 0365 0A846985 		.ascii	"\012\204i\205\220V*\200$\030\002\005*>\013\324\024\364"
 175      90562A80 
 175      24180205 
 175      2A3E0BD4 
 175      14F4
 176 0377 5F4FE120 		.ascii	"_O\341 X\036\217g\030\332y\206F\202^\250\025dh\300m"
 176      581E8F67 
 176      18DA7986 
 176      46825EA8 
ARM GAS  /tmp/cc7TT2jv.s 			page 13


 176      156468C0 
 177 038c 0FC7EDF1 		.ascii	"\017\307\355\361\0124Wn\212\234\3330\307\355Io\334d"
 177      0A34576E 
 177      8A9CDB30 
 177      C7ED496F 
 177      DC64
 178 039e 68C0ED30 		.ascii	"h\300\3550\307m\310\033\267\200\234\333\030\307\355"
 178      C76DC81B 
 178      B7809CDB 
 178      18C7ED
 179 03ad 596FDC64 		.ascii	"Yo\334dh\300\355\010\307\355\2007nA9\267\361*9^o\002"
 179      68C0ED08 
 179      C7ED8037 
 179      6E4139B7 
 179      F12A395E 
 180 03c3 94CC4DF6 		.ascii	"\224\314M\366\357\276\223\3743I\222/\261\222|\264B\203"
 180      EFBE93FC 
 180      3349922F 
 180      B1927CB4 
 180      4283
 181 03d5 38AF1912 		.ascii	"8\257\031\022\231\010\010\311\304C\207\327\251\370u"
 181      990808C9 
 181      C44387D7 
 181      A9F875
 182 03e4 1692F10A 		.ascii	"\026\222\361\0128\361]a\306d\226<&G\253\304d\257\265"
 182      38F15D61 
 182      C664963C 
 182      2647ABC4 
 182      64AFB5
 183 03f7 4F0F5E6F 		.ascii	"O\017^oH\374\302wP\276\224\004e dEe\262B\206cfSS\215"
 183      48FCC277 
 183      50BE9404 
 183      65206445 
 183      65B24286 
 184 0410 2C2C03C5 		.ascii	",,\003\305cSu4U\336f\257\367W\235\200\002+3*\363]\320"
 184      63537534 
 184      55DE66AF 
 184      F7579D80 
 184      022B332A 
 185 0427 DC0EFEED 		.ascii	"\334\016\376\355\244\342\323\354\245q\006\337\012\366"
 185      A4E2D3EC 
 185      A57106DF 
 185      0AF6
 186 0435 1CB353CC 		.ascii	"\034\263S\314\276\317\354\007\314~\310\354G\314\376"
 186      BECFEC07 
 186      CC7EC8EC 
 186      47CCFE
 187 0444 8DD98F99 		.ascii	"\215\331\217\231\375\224\331\317\231\235f\366+\260\326"
 187      FD94D9CF 
 187      999D66F6 
 187      2BB0D6
 188 0453 311BFDCA 		.ascii	"1\033\375\312\376\363H\177\241\312\242\3725\236m\216"
 188      FEF3487F 
 188      A1CAA2FA 
 188      359E6D8E 
 189 0463 929417EB 		.ascii	"\222\224\027\353\314!u\025^'\245^*\376\267\357\005\376"
 189      CC217515 
ARM GAS  /tmp/cc7TT2jv.s 			page 14


 189      5E27A55E 
 189      2AFEB7EF 
 189      05FE
 190 0475 8F64812D 		.ascii	"\217d\201-\202\202\227[AP\262*\266\355v\311V\374\340"
 190      8282975B 
 190      4150B22A 
 190      B6ED76C9 
 190      56FCE0
 191 0488 126E50F1 		.ascii	"\022nP\361eVU\234\012\316XU8@\350\234W*\212\212K\254"
 191      6556559C 
 191      0ACE5855 
 191      3840E89C 
 191      572A8A8A 
 192 049e A8B83273 		.ascii	"\250\2702sQ\261k\240\270\373\322\256\233hQa\225\022"
 192      51B16BA0 
 192      B8FBD2AE 
 192      9B685161 
 192      9512
 193 04b0 C5EFA194 		.ascii	"\305\357\241\224P\320\031&\345J\365\334D\362D\177\372"
 193      50D01926 
 193      E54AF5DC 
 193      44F2447F 
 193      FA
 194 04c1 1297E8E7 		.ascii	"\022\227\350\347|\2035\010`C<\330E/`\265rf\317\360`"
 194      7C833508 
 194      60433CD8 
 194      452F60B5 
 194      7266CFF0 
 195 04d6 1FFA0613 		.ascii	"\037\372\006\023\231\355\341\301>\366\0026G\316l\230"
 195      99EDE1C1 
 195      3EF60236 
 195      47CE6C98 
 196 04e6 07FBCC37 		.ascii	"\007\373\3147\030\317\014\336\227k\351\006\374\015\333"
 196      18CF0CDE 
 196      976BE906 
 196      FC0DDB
 197 04f5 80A79D58 		.ascii	"\200\247\235X\302\363dt\347\311\211\215\361\304\276"
 197      C2F36474 
 197      E7C9898D 
 197      F1C4BE
 198 0504 F242AC41 		.ascii	"\362B\254A\036\262#<\330e/`w\311\231\215\363`W}\203"
 198      1EB2233C 
 198      D8652F60 
 198      77C9998D 
 198      F360577D 
 199 0519 89CC2678 		.ascii	"\211\314&x\260\201\220\007\260\205rfGy\260\255\276\301"
 199      B0819007 
 199      B0857266 
 199      4779B0AD 
 199      BEC1
 200 052b 4466C778 		.ascii	"Df\307x\260'\275\200-\2253;\316\203\355\364\015\306"
 200      B027BD80 
 200      2D95333B 
 200      CE83EDF4 
 200      0DC6
 201 053d 31DBD55F 		.ascii	"1\333\325_<\275\326z1\027\226\323-\270l\357\332\313"
 201      3CBDD67A 
ARM GAS  /tmp/cc7TT2jv.s 			page 15


 201      311796D3 
 201      2DB86CEF 
 201      DACB
 202 054f C5074870 		.ascii	"\305\007Hp\033\221\272\251\370Y\305\357\346>\254\270"
 202      1B91BAA9 
 202      F859C5EF 
 202      E63EACB8 
 203 055f 6FEEE29F 		.ascii	"o\356\342\237\215\246\027\255 \235\262\005\022Fw\271"
 203      8DA617AD 
 203      209DB205 
 203      124677B9 
 204 056f 2486B0EB 		.ascii	"$\206\260\353\236\325cXf1\334\343%\206\355r\260wx\260"
 204      9ED56358 
 204      6631DCE3 
 204      2586ED72 
 204      B07778B0 
 205 0583 826F3071 		.ascii	"\202o0qA\376\262V\254\224\270\365 V\2712\207_\220\212"
 205      41FEB256 
 205      AC94B8F5 
 205      2056B932 
 205      875F908A 
 206 0597 82CAE1A6 		.ascii	"\202\312\341\246\342\337\373^\220\003\222\005\261?\302"
 206      E2DFFB5E 
 206      90039205 
 206      B13FC2
 207 05a6 F15EF49B 		.ascii	"\361^\364\233\211S\266\310\302\350v\312\202\330_</\327"
 207      8953B6C8 
 207      C2E876CA 
 207      82D85F3C 
 207      2FD7
 208 05b8 5DB0A0AE 		.ascii	"]\260\240\256\257\246\333\351\246\342\347}\353\036\225"
 208      AFA6DBE9 
 208      A6E2E77D 
 208      EB1E95
 209 05c7 E80E0ABA 		.ascii	"\350\016\012\272Gm\335\007\235\272E\026Fw\235D7\024"
 209      476DDD07 
 209      9DBA4516 
 209      46779D44 
 209      3714
 210 05d9 0B17D6D2 		.ascii	"\013\027\326\322\334\241LU|\201}Q\233\011l\243$y`k\270"
 210      DCA14C55 
 210      7C817D51 
 210      9B096CA3 
 210      2479606B 
 211 05ee C86F0D87 		.ascii	"\310o\015\207\274d\342V\267?'\335\016\276\316Q\361\267"
 211      BC64E256 
 211      B73F27DD 
 211      0EBECE51 
 211      F1B7
 212 0600 AC10B9CA 		.ascii	"\254\020\271\312\212\313~\205\332\001f\2670\373\030"
 212      8ACB7E85 
 212      DA0166B7 
 212      30FB18
 213 060f B38F33BB 		.ascii	"\263\2173\273\215\331'\230\3755\263;\230\335\311\354"
 213      8DD92798 
 213      FD35B33B 
 213      98DDC9EC 
ARM GAS  /tmp/cc7TT2jv.s 			page 16


 214 061f 6E667FC3 		.ascii	"nf\177\303\354o\231\375\035\263\005f\3671;\302\354A"
 214      EC6F99FD 
 214      1DB30566 
 214      F7313BC2 
 214      EC41
 215 0631 660F31FB 		.ascii	"f\0171\373\242\"/g/W)g_R\254j\3616\264\227\234>]\332"
 215      A2222F67 
 215      2F572967 
 215      5F52AC6A 
 215      F136B497 
 216 0649 323D84B7 		.ascii	"2=\204\267\226\310 \271Z.c\273x\265\276\370\025\253"
 216      96C820B9 
 216      5A2E63BB 
 216      78B5BEF8 
 216      15AB
 217 065b 7FF1A3FF 		.ascii	"\177\361\243\377\203P\270\317\203\363\334}U\374\212"
 217      8350B8CF 
 217      83F3DC7D 
 217      55FC8A
 218 066a 42E335CE 		.ascii	"B\3435\316e\227\3367{\372\207\307#!\307\177o\354\340"
 218      6597DE37 
 218      7BFA87C7 
 218      2321C77F 
 218      6FECE0
 219 067d 571F6A4C 		.ascii	"W\037jL\372\211\225.\267\010\017\012\255\306\251\253"
 219      FA89952E 
 219      B7080F0A 
 219      ADC6A9AB 
 220 068d C44DC513 		.ascii	"\304M\305\023\276\037\224I\311\2032_`=i?(\223!\307\247"
 220      BE1F9449 
 220      C983325F 
 220      603D693F 
 220      289321C7 
 221 06a2 6F270B05 		.ascii	"o'\013\005\235\010\231%\3655\264\323\330\324\024\211"
 221      9D089925 
 221      F535B4D3 
 221      D8D41489 
 222 06b2 76A7D7A7 		.ascii	"v\247\327\247\037HD\262}\221n\265'\2621\233\313\367"
 222      1F4844B2 
 222      7D916EB5 
 222      27B2319B 
 222      CBF7
 223 06c4 4552D9DE 		.ascii	"ER\331\336\336l&\322\022\357\210v<\022\311\374,\235"
 223      DE6C26D2 
 223      12EF8876 
 223      3C12C9FC 
 223      2C9D
 224 06d6 6A4AA1BE 		.ascii	"jJ\241\276Hf\003k\367F\272\263\275Z$\247\365ij.\325"
 224      4866036B 
 224      F746BAB3 
 224      BD5A24A7 
 224      F5696A2E 
 225 06eb 0DE3725D 		.ascii	"\015\343r]?WsZD\315\3656G\036N\245\032\241\323\250\365"
 225      3F57735A 
 225      44CDF536 
 225      471E4EA5 
 225      1AA1D3A8 
ARM GAS  /tmp/cc7TT2jv.s 			page 17


 226 0700 AED7BABA 		.ascii	"\256\327\272\272\264.\353B&\233\321\0325u}\272qqric"
 226      B42EEB42 
 226      269BD11A 
 226      35757DBA 
 226      71717269 
 227 0715 F3C2458B 		.ascii	"\363\302E\213\177\332\034\021nD\322\231T\317\246.-\322"
 227      7FDA1C11 
 227      6E44D299 
 227      54CFA62E 
 227      2DD2
 228 0727 97EF4A67 		.ascii	"\227\357Jg\362M\335\250v\023\374\336\323\234\314\317"
 228      F24DDDA8 
 228      7613FCDE 
 228      D39CCCCF 
 229 0737 FAC9FDAB 		.ascii	"\372\311\375\253\033\242h\000\377\377H\364\252\251\356"
 229      1BA26800 
 229      FFFF48F4 
 229      AAA9EE
 230 0746 74468B24 		.ascii	"tF\213$\273\264\015\352\246\236|2\277y\243\326\007\244"
 230      BBB40DEA 
 230      A69E7C32 
 230      BF79A3D6 
 230      07A4
 231 0758 AE49264D 		.ascii	"\256I&MZshl\3322\352\372\036m\215\226\312gs8\023\334"
 231      5A73686C 
 231      DA32EAFA 
 231      1E6D8D96 
 231      CA677338 
 232 076e 984B67E7 		.ascii	"\230Kg\347\322\353\255\351>\373\306|z%\241\345\023\233"
 232      D2EBADE9 
 232      3EFBC67C 
 232      7A25A1E5 
 232      139B
 233 0780 FBF25A6F 		.ascii	"\373\362Zo\273\232\351\352\321r\235\340\232K\3477\327"
 233      BB9AE9EA 
 233      D1729DE0 
 233      9A4BE737 
 233      D7
 234 0791 74EBE70C 		.ascii	"t\353\347\014.\332\003\212:\265\014\204\340\341\032"
 234      2EDA038A 
 234      3AB50C84 
 234      E0E11A
 235 07a0 3AD1D264 		.ascii	":\321\322d>\254O\011\275\037\211k\246=\222\217D;\022"
 235      3EAC4F09 
 235      BD1F896B 
 235      A63D928F 
 235      443B12
 236 07b3 B184453B 		.ascii	"\261\204E;\225\315i\311T\357b \032\276\177M,\232\\\005"
 236      95CD69C9 
 236      54EF6220 
 236      1ABE7F4D 
 236      2C9A5C05 
 237 07c7 B483B144 		.ascii	"\264\203\261D[<\034o\003"
 237      5B3C1C6F 
 237      03
 238 07d0 BBA6AD75 		.ascii	"\273\246\255ua0\026m\213\327\306\365\263Ep\263\323\276"
 238      6130166D 
ARM GAS  /tmp/cc7TT2jv.s 			page 18


 238      8BD7C6F5 
 238      B34570B3 
 238      D3BE
 239 07e2 D90C37B9 		.ascii	"\331\0147\271\323{\202\261\226\025\366\351b%\326i\235"
 239      D37B82B1 
 239      9615F6E9 
 239      6225D669 
 239      9D
 240 07f3 DC1B4CAC 		.ascii	"\334\033L\254\212\305k\023\321\025l\222P\264su\254\025"
 240      8AC56B13 
 240      D1156C92 
 240      50B47375 
 240      AC15
 241 0805 8627E2C1 		.ascii	"\206'\342\3015\253\036\210\207Zb\361h<\220\200\026\245"
 241      35AB1E88 
 241      875A62F1 
 241      683C9080 
 241      16A5
 242 0817 BFED9DA1 		.ascii	"\277\355\235\241D;\275\031]\011\246\235\232V0\241\216"
 242      443BBD19 
 242      5D09A69D 
 242      9A5630A1 
 242      8E
 243 0828 8E952DF1 		.ascii	"\216\225-\361\340\012jZ\340<\320\2712\036h\205\326\322"
 243      E00A6A5A 
 243      E03CD0B9 
 243      321E6885 
 243      D6D2
 244 083a 1A0FC2BD 		.ascii	"\032\017\302\2758\360k\211\003xK4\036L\301:\327&\223"
 244      38F06B89 
 244      03784B34 
 244      1E4CC13A 
 244      D72693
 245 084d 1B366552 		.ascii	"\0336eR\311\344\017\314N\323\222\205\313\226\375\017"
 245      C9E40FCC 
 245      4ED39285 
 245      CB96FD0F 
 246 085d F11198EB 		.ascii	"\361\021\230\353"
 247              		.text
 248              		.section	.gnu.lto_.symtab.fb140c3bb965f25d,"",%progbits
 249 0000 6E766963 		.ascii	"nvicEnableVector\000\000\000\000\000\000\000\000\000"
 249      456E6162 
 249      6C655665 
 249      63746F72 
 249      00000000 
 250 0019 000000A1 		.ascii	"\000\000\000\241\000\000\000nvicDisableVector\000\000"
 250      0000006E 
 250      76696344 
 250      69736162 
 250      6C655665 
 251 0033 00000000 		.ascii	"\000\000\000\000\000\000\000\000\000\000\262\000\000"
 251      00000000 
 251      0000B200 
 251      00
 252 0040 006E7669 		.ascii	"\000nvicSetSystemHandlerPriority\000\000\000\000\000"
 252      63536574 
 252      53797374 
ARM GAS  /tmp/cc7TT2jv.s 			page 19


 252      656D4861 
 252      6E646C65 
 253 0062 00000000 		.ascii	"\000\000\000\000\000\000\000\270\000\000\000nvicCle"
 253      000000B8 
 253      0000006E 
 253      76696343 
 253      6C65
 254 0074 61725065 		.ascii	"arPending\000\000\000\000\000\000\000\000\000\000\000"
 254      6E64696E 
 254      67000000 
 254      00000000 
 254      00000000 
 255 0088 00BE0000 		.ascii	"\000\276\000\000\000"
 255      00
 256              		.text
 257              		.section	.gnu.lto_.opts,"",%progbits
 258 0000 272D6D63 		.ascii	"'-mcpu=cortex-m4' '-mno-thumb-interwork' '-mthumb' "
 258      70753D63 
 258      6F727465 
 258      782D6D34 
 258      2720272D 
 259 0033 272D6767 		.ascii	"'-ggdb' '-O2' '-fomit-frame-pointer' '-falign-funct"
 259      64622720 
 259      272D4F32 
 259      2720272D 
 259      666F6D69 
 260 0066 696F6E73 		.ascii	"ions=16' '-ffunction-sections' '-fdata-sections' '-"
 260      3D313627 
 260      20272D66 
 260      66756E63 
 260      74696F6E 
 261 0099 666E6F2D 		.ascii	"fno-common' '-flto'\000"
 261      636F6D6D 
 261      6F6E2720 
 261      272D666C 
 261      746F2700 
 262              		.text
 263              		.cfi_sections	.debug_frame
 264              		.section	.text.nvicEnableVector,"ax",%progbits
 265              		.align	2
 266              		.p2align 4,,15
 267              		.global	nvicEnableVector
 268              		.thumb
 269              		.thumb_func
 270              		.type	nvicEnableVector, %function
 271              	nvicEnableVector:
 272              	.LFB272:
 273              		.file 1 "../ChibiOS/os/hal/ports/common/ARMCMx/nvic.c"
 274              		.loc 1 57 0
 275              		.cfi_startproc
 276              		@ args = 0, pretend = 0, frame = 0
 277              		@ frame_needed = 0, uses_anonymous_args = 0
 278              		@ link register save eliminated.
 279              	.LVL0:
 280              		.loc 1 65 0
 281 0000 4309     		lsrs	r3, r0, #5
 282 0002 9B00     		lsls	r3, r3, #2
ARM GAS  /tmp/cc7TT2jv.s 			page 20


 283              		.loc 1 63 0
 284 0004 00F16042 		add	r2, r0, #-536870912
 285 0008 03F16043 		add	r3, r3, #-536870912
 286              		.loc 1 57 0
 287 000c 10B4     		push	{r4}
 288              		.cfi_def_cfa_offset 4
 289              		.cfi_offset 4, -4
 290 000e 03F56143 		add	r3, r3, #57600
 291              		.loc 1 65 0
 292 0012 0124     		movs	r4, #1
 293              		.loc 1 63 0
 294 0014 0901     		lsls	r1, r1, #4
 295              	.LVL1:
 296 0016 02F56142 		add	r2, r2, #57600
 297              		.loc 1 65 0
 298 001a 00F01F00 		and	r0, r0, #31
 299              	.LVL2:
 300 001e 04FA00F0 		lsl	r0, r4, r0
 301              		.loc 1 63 0
 302 0022 C9B2     		uxtb	r1, r1
 303 0024 82F80013 		strb	r1, [r2, #768]
 304              		.loc 1 65 0
 305 0028 C3F88001 		str	r0, [r3, #384]
 306              		.loc 1 66 0
 307 002c 1860     		str	r0, [r3]
 308              		.loc 1 67 0
 309 002e 5DF8044B 		ldr	r4, [sp], #4
 310 0032 7047     		bx	lr
 311              		.cfi_endproc
 312              	.LFE272:
 313              		.size	nvicEnableVector, .-nvicEnableVector
 314 0034 AFF30080 		.section	.text.nvicDisableVector,"ax",%progbits
 314      AFF30080 
 314      AFF30080 
 315              		.align	2
 316              		.p2align 4,,15
 317              		.global	nvicDisableVector
 318              		.thumb
 319              		.thumb_func
 320              		.type	nvicDisableVector, %function
 321              	nvicDisableVector:
 322              	.LFB273:
 323              		.loc 1 74 0
 324              		.cfi_startproc
 325              		@ args = 0, pretend = 0, frame = 0
 326              		@ frame_needed = 0, uses_anonymous_args = 0
 327              		@ link register save eliminated.
 328              	.LVL3:
 329              		.loc 1 76 0
 330 0000 084B     		ldr	r3, .L3
 331 0002 4109     		lsrs	r1, r0, #5
 332              		.loc 1 74 0
 333 0004 10B4     		push	{r4}
 334              		.cfi_def_cfa_offset 4
 335              		.cfi_offset 4, -4
 336              		.loc 1 76 0
 337 0006 00F01F02 		and	r2, r0, #31
ARM GAS  /tmp/cc7TT2jv.s 			page 21


 338 000a 2031     		adds	r1, r1, #32
 339 000c 0124     		movs	r4, #1
 340              		.loc 1 80 0
 341 000e 1844     		add	r0, r0, r3
 342              	.LVL4:
 343              		.loc 1 76 0
 344 0010 9440     		lsls	r4, r4, r2
 345              		.loc 1 80 0
 346 0012 0022     		movs	r2, #0
 347              		.loc 1 76 0
 348 0014 43F82140 		str	r4, [r3, r1, lsl #2]
 349              		.loc 1 80 0
 350 0018 80F80023 		strb	r2, [r0, #768]
 351              		.loc 1 82 0
 352 001c 5DF8044B 		ldr	r4, [sp], #4
 353 0020 7047     		bx	lr
 354              	.L4:
 355 0022 00BF     		.align	2
 356              	.L3:
 357 0024 00E100E0 		.word	-536813312
 358              		.cfi_endproc
 359              	.LFE273:
 360              		.size	nvicDisableVector, .-nvicDisableVector
 361 0028 AFF30080 		.section	.text.nvicSetSystemHandlerPriority,"ax",%progbits
 361      AFF30080 
 362              		.align	2
 363              		.p2align 4,,15
 364              		.global	nvicSetSystemHandlerPriority
 365              		.thumb
 366              		.thumb_func
 367              		.type	nvicSetSystemHandlerPriority, %function
 368              	nvicSetSystemHandlerPriority:
 369              	.LFB274:
 370              		.loc 1 90 0
 371              		.cfi_startproc
 372              		@ args = 0, pretend = 0, frame = 0
 373              		@ frame_needed = 0, uses_anonymous_args = 0
 374              		@ link register save eliminated.
 375              	.LVL5:
 376              		.loc 1 100 0
 377 0000 00F16040 		add	r0, r0, #-536870912
 378              	.LVL6:
 379 0004 00F56D40 		add	r0, r0, #60672
 380              	.LVL7:
 381 0008 0901     		lsls	r1, r1, #4
 382              	.LVL8:
 383 000a C9B2     		uxtb	r1, r1
 384 000c 0176     		strb	r1, [r0, #24]
 385 000e 7047     		bx	lr
 386              		.cfi_endproc
 387              	.LFE274:
 388              		.size	nvicSetSystemHandlerPriority, .-nvicSetSystemHandlerPriority
 389              		.section	.text.nvicClearPending,"ax",%progbits
 390              		.align	2
 391              		.p2align 4,,15
 392              		.global	nvicClearPending
 393              		.thumb
ARM GAS  /tmp/cc7TT2jv.s 			page 22


 394              		.thumb_func
 395              		.type	nvicClearPending, %function
 396              	nvicClearPending:
 397              	.LFB275:
 398              		.loc 1 109 0
 399              		.cfi_startproc
 400              		@ args = 0, pretend = 0, frame = 0
 401              		@ frame_needed = 0, uses_anonymous_args = 0
 402              		@ link register save eliminated.
 403              	.LVL9:
 404              		.loc 1 111 0
 405 0000 4209     		lsrs	r2, r0, #5
 406 0002 6032     		adds	r2, r2, #96
 407 0004 00F01F00 		and	r0, r0, #31
 408              	.LVL10:
 409 0008 0121     		movs	r1, #1
 410 000a 034B     		ldr	r3, .L7
 411 000c 01FA00F0 		lsl	r0, r1, r0
 412 0010 43F82200 		str	r0, [r3, r2, lsl #2]
 413 0014 7047     		bx	lr
 414              	.L8:
 415 0016 00BF     		.align	2
 416              	.L7:
 417 0018 00E100E0 		.word	-536813312
 418              		.cfi_endproc
 419              	.LFE275:
 420              		.size	nvicClearPending, .-nvicClearPending
 421 001c AFF30080 		.text
 422              	.Letext0:
 423              		.file 2 "/nfs/nfs5/home/research/hardware/arm2/gcc-arm-embedded/gcc-arm-none-eabi-4_8-2014q2/arm-n
 424              		.file 3 "/nfs/nfs5/home/research/hardware/arm2/gcc-arm-embedded/gcc-arm-none-eabi-4_8-2014q2/arm-n
 425              		.file 4 "../ChibiOS/os/rt/ports/ARMCMx/compilers/GCC/chtypes.h"
 426              		.file 5 "../ChibiOS/os/rt/include/chsystypes.h"
 427              		.file 6 "../ChibiOS/os/rt/include/chschd.h"
 428              		.file 7 "../ChibiOS/os/ext/CMSIS/include/core_cm4.h"
 429              		.file 8 "../ChibiOS/os/rt/ports/ARMCMx/chcore.h"
 430              		.file 9 "../ChibiOS/os/rt/ports/ARMCMx/chcore_v7m.h"
 431              		.file 10 "../ChibiOS/os/rt/include/chtm.h"
 432              		.file 11 "../ChibiOS/os/rt/include/chsem.h"
 433              		.file 12 "../ChibiOS/os/rt/include/chmtx.h"