ARM GAS  /tmp/cc7TT2jv.s 			page 1


   1              		.syntax unified
   2              		.cpu cortex-m4
   3              		.fpu softvfp
   4              		.eabi_attribute 20, 1
   5              		.eabi_attribute 21, 1
   6              		.eabi_attribute 23, 3
   7              		.eabi_attribute 24, 1
   8              		.eabi_attribute 25, 1
   9              		.eabi_attribute 26, 1
  10              		.eabi_attribute 30, 2
  11              		.eabi_attribute 34, 1
  12              		.eabi_attribute 18, 4
  13              		.thumb
  14              		.file	"nvic.c"
  15              		.text
  16              	.Ltext0:
  17              		.section	.gnu.lto_.jmpfuncs.fb140c3bb965f25d,"",%progbits
  18 0000 789C6362 		.ascii	"x\234cb`b\300\006\270\2404\013\0033##\02333#\003\000"
  18      6062C006 
  18      B8A0340B 
  18      03332323 
  18      13333323 
  19 0016 01F00021 		.ascii	"\001\360\000!"
  20              		.text
  21              		.section	.gnu.lto_.inline.fb140c3bb965f25d,"",%progbits
  22 0000 789C6D4C 		.ascii	"x\234mL\313\025\200 \014KK\205\352\305\021\330\300%"
  22      CB158020 
  22      0C4B4B85 
  22      EAC511D8 
  22      C025
  23 0012 5D84911C 		.ascii	"]\204\221\034\305\021LQy\036\354!}\371*\024\177\267"
  23      C5114C51 
  23      791EEC21 
  23      7DF92A14 
  23      7FB7
  24 0024 3FDF8065 		.ascii	"?\337\200e\026\025\011\022`\371\334\220[U\350\261\032"
  24      16150912 
  24      60F9DC90 
  24      5B55E8B1 
  24      1A
  25 0035 C89CAAD3 		.ascii	"\310\234\252\323\363\302TD\222\265zG\350Z\037QL&\322"
  25      F3C25444 
  25      92B57A47 
  25      E85A1F51 
  25      4C26D2
  26 0048 57127B9F 		.ascii	"W\022{\237\201PP\362[\035\346\250\342\002a/\015\002"
  26      815050F2 
  26      5B1DE6A8 
  26      E202612F 
  26      0D02
  27              		.text
  28              		.section	.gnu.lto_.pureconst.fb140c3bb965f25d,"",%progbits
  29 0000 789C6362 		.ascii	"x\234cb`b\340d\200\000\026\006)F)&)f)\000\002\326\000"
  29      6062E064 
  29      80001606 
  29      29462926 
  29      29662900 
ARM GAS  /tmp/cc7TT2jv.s 			page 2


  30 0017 80       		.ascii	"\200"
  31              		.text
  32              		.section	.gnu.lto_nvicEnableVector.fb140c3bb965f25d,"",%progbits
  33 0000 789C9D91 		.ascii	"x\234\235\221\277K\303@\024\307\337\2734\346GQW\235"
  33      BF4BC340 
  33      14C7DFBB 
  33      34E64751 
  33      579D
  34 0012 2CBA08D2 		.ascii	",\272\010\322\244\340\340\340$\235\034\212P+\350\330"
  34      A4E0E0E0 
  34      249D1C8A 
  34      502BE8D8 
  35 0022 664803B6 		.ascii	"fH\003\266\021+\342f\332t\323\241\203\213\325\301\""
  35      112BE266 
  35      DA74D3A1 
  35      838BD5C1 
  35      22
  36 0033 22883FFE 		.ascii	"\"\210?\376\000AJ7\207*nNR\\\005\021'A!\276Kl\244\""
  36      00414A37 
  36      872A6E4E 
  36      525C0511 
  36      274121BE 
  37 004b 0E1EDCDD 		.ascii	"\016\036\334\335\273{\337\367\276\237\343\0300\3709"
  37      BB7BDFF7 
  37      BE9FE318 
  37      30F839
  38 005a 8669A6E9 		.ascii	"\206i\246\351z\222v\024\000Y\355\006\240,3D\036\000"
  38      7A927614 
  38      0059ED06 
  38      A02C3344 
  38      1E00
  39 006c C226C3CD 		.ascii	"\302&\303\315%\344R\034\205\206\343\324:G\217olw\247"
  39      25E4521C 
  39      8586E3D4 
  39      3A478F6F 
  39      6C77A7
  40 007f 593D703E 		.ascii	"Y=p><\017\321Bj\233@0\020\026\351\2001\177c\221^\237"
  40      3C0FD142 
  40      6A9B4030 
  40      1016E980 
  40      317F6391 
  41 0095 0BD6EC78 		.ascii	"\013\326\354x\336\376m\375a\010\373\021\013\274\310"
  41      DEFE6DFD 
  41      6108FB11 
  41      0BBCC8
  42 00a4 4241E08B 		.ascii	"BA\340\213HG\224(\212\310\220\305\006\371(t\000\225"
  42      48479428 
  42      8AC890C5 
  42      06F92874 
  42      0095
  43 00b6 16914A45 		.ascii	"\026\221JE\250\222m\014\270\003\215\014\255\234m\001"
  43      A8926D0C 
  43      B8038D0C 
  43      AD9C6D01 
  44 00c6 19DF8536 		.ascii	"\031\337\2056T\236\\\357\035\263xHr\023\231\211\244"
  44      549E5CEF 
  44      1DB37848 
ARM GAS  /tmp/cc7TT2jv.s 			page 3


  44      72139989 
  44      A4
  45 00d7 68837B26 		.ascii	"h\203{&t\257\004\272\345P}\034\252\015\255\331 \021"
  45      74AF04BA 
  45      E5507D1C 
  45      AA0DADD9 
  45      2011
  46 00e9 8753A75A 		.ascii	"\207S\247Zv\246(1\001'<\034\264P\332\203:Ie\256W\234"
  46      76A62831 
  46      01273C1C 
  46      B450DA83 
  46      3A4965AE 
  47 00ff 96EB0CF8 		.ascii	"\226\353\014\370\357Q\374W\3440x\215\351\203\005\221"
  47      EF51FC57 
  47      E430788D 
  47      E9830591 
  48 010f E09B9DBB 		.ascii	"\340\233\235\273\307\333\343]?\211\362\274\010D\337"
  48      C7DBE35D 
  48      3F89F2BC 
  48      0844DF
  49 011e AFF2EC5E 		.ascii	"\257\362\354^\205x\262_K\025\227!\236b\006v0\002\001"
  49      8578B25F 
  49      4B159721 
  49      9E620676 
  49      300201
  50 0131 B8FB1ACA 		.ascii	"\270\373\032\312U\236\020\221\253|\364\353\227h\017"
  50      559E1091 
  50      AB7CF4EB 
  50      97680F
  51 0140 FCB485EA 		.ascii	"\374\264\205\3527|\364ox\374B\226Bx5hzO_\372\377\266"
  51      377CF46F 
  51      78FC4296 
  51      42783568 
  51      7A4F5FFA 
  52 0156 ECB7B677 		.ascii	"\354\267\266wP\356l\215\005M\273#C\004\364e\\\037\327"
  52      50EE6C8D 
  52      054DBB23 
  52      4304F465 
  52      5C1FD7
  53 0169 343D99B7 		.ascii	"4=\231\267r\326\334\274n\227\364|vY_\261W\327J\272a"
  53      72D6DCBC 
  53      6E97F47C 
  53      76595FB1 
  53      57D74ABA 
  54 017e 170A7651 		.ascii	"\027\012vQ\237I\247\222\251\015\275\270n\031\232\001"
  54      9F49A792 
  54      A90DBDB8 
  54      6E199A01 
  55 018e 42514B7C 		.ascii	"BQK|\002\020\\\224\200"
  55      02105C94 
  55      80
  56              		.text
  57              		.section	.gnu.lto_nvicDisableVector.fb140c3bb965f25d,"",%progbits
  58 0000 789C7D50 		.ascii	"x\234}P=K\003A\020\235\267w\247\211\202bie\320F\220"
  58      3D4B0341 
  58      109DB777 
  58      A7898262 
ARM GAS  /tmp/cc7TT2jv.s 			page 4


  58      6965D046 
  59 0015 DC291616 		.ascii	"\334)\026\026V\222:\010\032A\313\344\212\344\300\344"
  59      56923A08 
  59      1A41CBE4 
  59      8AE4C0E4 
  60 0025 C488D8E5 		.ascii	"\304\210\330\345\342\305\316\"\205\205\037\215\301."
  60      E2C5CE22 
  60      85851F8D 
  60      C12E
  61 0033 C40FB011 		.ascii	"\304\017\260\021\004\011\001\013\213\010\376\203`#X"
  61      0409010B 
  61      8B08FE83 
  61      602358
  62 0042 88689342 		.ascii	"\210h\223B8g/9%\026\016\354\316\354\2747ofV\220\240"
  62      38672F39 
  62      25160EEC 
  62      CEECBC37 
  62      6F665690 
  63 0057 BF36CAE7 		.ascii	"\2776\312\347\036D\263\354\241\020D\371\221\250\030"
  63      1E44B3EC 
  63      A11044F9 
  63      91A818
  64 0066 12800C08 		.ascii	"\022\200\014\010T\020(\254AR1N\025\307)\267\366^\332"
  64      541028AC 
  64      4152314E 
  64      15C729B7 
  64      F65EDA
  65 0079 E2E8A05E 		.ascii	"\342\350\240^:u\276<\017\260\300\262\323 \023\264\312"
  65      3A75BE3C 
  65      0FB0C0B2 
  65      D32013B4 
  65      CA
  66 008a 0F447C27 		.ascii	"\017D|'\324\336>\227\242\336\362\274\332\365\325s\025"
  66      D4DE3E97 
  66      A2DEF2BC 
  66      DAF5D573 
  66      15
  67 009b 2361202B 		.ascii	"#a +\253,(\012%Qae\225\037\244\361%\3534*q\243\010I"
  67      AB2C280A 
  67      25516165 
  67      951FA4F1 
  67      25EB342A 
  68 00b3 4DB604DF 		.ascii	"M\266\004\337r\232\025\010\351\225&\271\027\356\347"
  68      729A1508 
  68      E99526B9 
  68      17EEE7
  69 00c2 FE641267 		.ascii	"\376d\022g\320(\015\221\006dO\256#j\322\356\233{\207"
  69      D0280D91 
  69      06644FAE 
  69      236AD2EE 
  69      9B7B87
  70 00d5 00531893 		.ascii	"\000S\030\223I\367V\011R*g}\372\230Ow\317\335\217\037"
  70      49F75609 
  70      522A677D 
  70      FA984F77 
  70      CFDD8F1F 
  71 00e9 BA260115 		.ascii	"\272&\001\025\222%\261\306\303\373`\007\212R\315)\025"
ARM GAS  /tmp/cc7TT2jv.s 			page 5


  71      9225B1C6 
  71      C3FB6007 
  71      8A52CD29 
  71      15
  72 00fa 9D790BDA 		.ascii	"\235y\013\332\024Ue8l\241\357\204\216\231\337/\213B"
  72      14556538 
  72      6CA1EF84 
  72      8E99DF2F 
  72      8B42
  73 010c 4EC37586 		.ascii	"N\303u\206\374\335C\376\306)t6\347\371(\2104_\364\346"
  73      FCDD43FE 
  73      C6297436 
  73      E7F92888 
  73      345FF4E6 
  74 0120 F0B58D1E 		.ascii	"\360\265\215\036\3319\013\341_\331\201\377e\321\025"
  74      D9390BE1 
  74      5FD981FF 
  74      65D115
  75 012f EBEAFB58 		.ascii	"\353\352\373XX\006OTlU':\302\201%\230\306\177&G\210"
  75      58064F54 
  75      6C55273A 
  75      C2812598 
  75      C67F2647 
  76 0144 EABA11CB 		.ascii	"\352\272\021\313X)kq\331\260\363F&\271nl\330\233[y\303"
  76      58296B71 
  76      D9B0F346 
  76      26B96E6C 
  76      D89B5B79 
  77 0159 B4B3593B 		.ascii	"\264\263Y;g,,\305c\361\035#\267m\231\272IJN\237\371"
  77      672C2CC5 
  77      63F11D23 
  77      B76D99BA 
  77      494A4E9F 
  78 016e 06CE8A78 		.ascii	"\006\316\212xt"
  78      74
  79              		.text
  80              		.section	.gnu.lto_nvicSetSystemHandlerPriority.fb140c3bb965f25d,"",%progbits
  81 0000 789C5D50 		.ascii	"x\234]P-O\003A\020}o\267\0270\340q$\225\344n%\232T!"
  81      2D4F0341 
  81      107D6FB7 
  81      1730E071 
  81      2495E46E 
  82 0018 1A122809 		.ascii	"\032\022(\011\310\366D\273\011\327#\224\020\\\367\270"
  82      C8F644BB 
  82      09D72394 
  82      105CF7B8 
  83 0028 0649AA41 		.ascii	"\006I\252Aa\011\037\202?@\021\270^\202E\325c\020\370"
  83      61091F82 
  83      3F4011B8 
  83      5E8245D5 
  83      6310F8
  84 003b 327B9733 		.ascii	"2{\2273L2\263og\336\274}Y\005\205\377\261!\371#i$\251"
  84      4C32B36F 
  84      67DEBC7D 
  84      590585FF 
  84      B121F923 
  85 0052 41352D80 		.ascii	"A5-\200lU\221\036\200\030+\216\217Yr_\324\333b\271|"
ARM GAS  /tmp/cc7TT2jv.s 			page 6


  85      6C55911E 
  85      80182B8E 
  85      8F59725F 
  85      D4DB62B9 
  86 0067 FEBDFE98 		.ascii	"\376\275\376\230\261h\256\220\011E\321\022\332\227@"
  86      B168AE90 
  86      0945D112 
  86      DA9740
  87 0076 AE9E1760 		.ascii	"\256\236\027`\342\334t3\241<\026\227\213\035\251^\355"
  87      E2DC7433 
  87      A13C1697 
  87      8B1DA95E 
  87      ED
  88 0087 505A72EA 		.ascii	"PZr\3529\256\276\363\327\233\260\313{\006\350S\365\375"
  88      39AEBEF3 
  88      D79BB0CB 
  88      7B06E853 
  88      F5FD
  89 0099 E21CF993 		.ascii	"\342\034\371\223\256[Z\272G\264d\003~\362\276[\015B"
  89      AE5B5ABA 
  89      47B46403 
  89      7EF2BE5B 
  89      0D42
  90 00ab 3CBA49E6 		.ascii	"<\272I\346\266e\260\205\007\017\327,\325\035n\205\252"
  90      B665B085 
  90      070FD72C 
  90      D51D6E85 
  90      AA
  91 00bc 3DBFE1BE 		.ascii	"=\277\341\276r\267\216\022\226\236{\225u\221\014P#\015"
  91      72B78E12 
  91      969E7B95 
  91      75910C50 
  91      230D
  92 00ce 7C225B14 		.ascii	"|\"[\024\315J\264\216\216\270\020{\376\217\302(2\255"
  92      CD4AB48E 
  92      8EB8107B 
  92      FE8FC228 
  92      32AD
  93 00e0 81EDD9BD 		.ascii	"\201\355\331\275\003\223\216\314\240{bN\323\263\363"
  93      03938ECC 
  93      A07B624E 
  93      D3B3F3
  94 00ef 9189D324 		.ascii	"\221\211\323$I\207fg\277\335j_\232\341\205\215\243\030"
  94      49876667 
  94      BFDD6A5F 
  94      9AE1858D 
  94      A318
  95 0101 7F83C847 		.ascii	"\177\203\310G\205"
  95      85
  96              		.text
  97              		.section	.gnu.lto_nvicClearPending.fb140c3bb965f25d,"",%progbits
  98 0000 789C5D50 		.ascii	"x\234]P1H\303P\020\275\367\177\222\352\2428:Yt\021\244"
  98      3148C350 
  98      10BDF77F 
  98      92EAA238 
  98      3A597411 
  99 0015 89E8E824 		.ascii	"\211\350\350$\235\034\212\240\025tL3\264\001\333\210"
ARM GAS  /tmp/cc7TT2jv.s 			page 7


  99      9D1C8AA0 
  99      15744C33 
  99      B401DB88 
 100 0025 1571EBAF 		.ascii	"\025q\353\257\351,\035\\\324\305\342&Uw\273\224\356"
 100      E92C1D5C 
 100      D4C5E226 
 100      5577BB94 
 100      EE
 101 0036 15DD1D8A 		.ascii	"\025\335\035\212 \024\007W\027!\336OMA\017\376\277\373"
 101      20140757 
 101      1721DE4F 
 101      4D410FFE 
 101      BFFB
 102 0048 EFDEBDBB 		.ascii	"\357\336\275\273\177\202\004\375\267Y>\012D\253\354"
 102      7F8204FD 
 102      B7593E0A 
 102      44ABEC
 103 0057 2109A2F9 		.ascii	"!\011\242\371DT\237\020\200\016\010T\023\250\355AS1"
 103      44549F10 
 103      800E0854 
 103      13A8ED41 
 103      5331
 104 0069 4F2DA59A 		.ascii	"O-\245\232\203\367\257gyq\336m\\\253\357(\002|\260\354"
 104      83F7AF67 
 104      7971DE6D 
 104      5CABEF28 
 104      027CB0EC 
 105 007d 32C803ED 		.ascii	"2\310\003\355\362\003\351\330\011\343o\237\007\321\035"
 105      F203E9D8 
 105      09E36F9F 
 105      07D11D
 106 008c 44D16BA7 		.ascii	"D\321k\247\3756\304\314$P\326U>\244$\027-V6\370A\246"
 106      FD36C4CC 
 106      2450D655 
 106      3EA42417 
 106      2D5636F8 
 107 00a2 BE2C0D73 		.ascii	"\276,\015s\205I\015\356\226&-\314\226\347[\217\264\003"
 107      85490DEE 
 107      96262DCC 
 107      96E75B8F 
 107      B403
 108 00b4 A1BDEC53 		.ascii	"\241\275\354Sx\037Fg\213.n`R\021\242\010\350\306\\G"
 108      781F4667 
 108      8B2E6E60 
 108      5211A208 
 108      E8C65C47 
 109 00c8 D4A7D3CF 		.ascii	"\324\247\323\317\360\003INrN\203aG&\220\301hL\237\213"
 109      F003494E 
 109      724E8361 
 109      472690C1 
 109      684C9F8B 
 110 00dc E9E1DD38 		.ascii	"\351\341\3358c\30604\347W\350q,dqZ\203\275\215\021\222"
 110      63C63034 
 110      E757E871 
 110      2C64715A 
 110      83BD8D11 
 111 00f1 A1B66AD4 		.ascii	"\241\266j\324\325\232\017c\211nu8\355\303\274\242K\226"
ARM GAS  /tmp/cc7TT2jv.s 			page 8


 111      D59A0F63 
 111      896E7538 
 111      EDC3BCA2 
 111      4B96
 112 0103 B0B44E4A 		.ascii	"\260\264NJ\365B5\025o$\025\357\241\200\321>x`J\"\213"
 112      F5423515 
 112      6F2415EF 
 112      A180D13E 
 112      78604A22 
 113 0118 E885EA83 		.ascii	"\350\205\352\203\341\302H4\261<\017\315?\325\274\214"
 113      E1C24834 
 113      B13C0FCD 
 113      3FD5BC8C 
 114 0128 6D3BD992 		.ascii	"m;\331\222_\3607\267\235\240\352\224\334}\347 8<\252"
 114      5FF037B7 
 114      9DA0EA94 
 114      DC7DE720 
 114      383CAA
 115 013b 3A5E502E 		.ascii	":^P.\007\025g}+\227\315\2358\225c\337\263=\222\025{"
 115      0715677D 
 115      2B97CD9D 
 115      389563DF 
 115      B33D9215 
 116 0150 E5077161 		.ascii	"\345\007qahb"
 116      6862
 117              		.text
 118              		.section	.gnu.lto_.symbol_nodes.fb140c3bb965f25d,"",%progbits
 119 0000 789C4DC7 		.ascii	"x\234M\307\261\025\000\020\020D\301\275\257/\255m*<"
 119      B1150010 
 119      1044C1BD 
 119      AF2FAD6D 
 119      2A3C
 120 0012 E44A5293 		.ascii	"\344JR\223\304{L6\010U]$\226rK\366jA\307\361u`\276N"
 120      C47B4C36 
 120      08555D24 
 120      96724BF6 
 120      6A41C7F1 
 121 002a 5C5E7500 		.ascii	"\\^u\000Ff\022\247"
 121      466612A7 
 122              		.text
 123              		.section	.gnu.lto_.refs.fb140c3bb965f25d,"",%progbits
 124 0000 789C6362 		.ascii	"x\234cb`b`d\200\002\000\000F\000\006"
 124      60626064 
 124      80020000 
 124      460006
 125              		.text
 126              		.section	.gnu.lto_.decls.fb140c3bb965f25d,"",%progbits
 127 0000 789CBD59 		.ascii	"x\234\275Y\177l\024U\036\177ov\227v\245W\301x\212\006"
 127      7F6C1455 
 127      1E7F6F76 
 127      9776A557 
 127      C1788A06 
 128 0014 43356A8C 		.ascii	"C5j\214w\355B\305\000\377\030\312\266\\\367\217j\263"
 128      77ED42C5 
 128      00FF18CA 
 128      B65CF78F 
 128      6AB3
ARM GAS  /tmp/cc7TT2jv.s 			page 9


 129 0026 0BC4C484 		.ascii	"\013\304\304\204e\330\016v\223v\227\333.w\362\337\353"
 129      65D80E76 
 129      937697DB 
 129      2E77F2DF 
 129      EB
 130 0037 554E3CD0 		.ascii	"UN<\320+\002^\317\303f\301r\034\261\"VlZB\270\015\022"
 130      2B025ECF 
 130      C366C172 
 130      1CB12256 
 130      6C5A42B8 
 131 004d 0F4F1301 		.ascii	"\017O\023\001\365@\212\270\236\271\250\347y\325xzG\016"
 131      F5408AB8 
 131      9EB9A8E7 
 131      79D5787A 
 131      470E
 132 005f D9FBBE37 		.ascii	"\331\373\2767\277\336\233\235\267\2351\346&y\337}3\363"
 132      BFDE9B9D 
 132      B79D31E6 
 132      2679DF7D 
 132      33F3
 133 0071 7D9FF7F9 		.ascii	"}\237\367\371|\337w\336|;U\220\202\266c\204\312pdnF"
 133      7CDF77DE 
 133      7C3B5590 
 133      82B66384 
 133      CA70646E 
 134 0086 E82D05A1 		.ascii	"\350-\005\241\020B\350>d\037Ah{\241\215A\233\200v\034"
 134      1042E83E 
 134      641F4168 
 134      7BA18D41 
 134      9B80761C 
 135 009a 551EF47E 		.ascii	"U\036\364~\235\341[o\364\001\026\325 \035\357\004\264"
 135      9DE15B6F 
 135      F40116D5 
 135      201DEF04 
 135      B4
 136 00ab D7A1BD09 		.ascii	"\327\241\275\011\355khoC;\013-\000\355sh\037A;c\214"
 136      ED6B686F 
 136      433B0B2D 
 136      00ED7368 
 136      1F413B63 
 137 00c0 A1584003 		.ascii	"\241X@\003\275\010\355\005\307<\224\303l\307<\346\034"
 137      BD08ED05 
 137      C73C94C3 
 137      6CC73CE6 
 137      1C
 138 00d1 26A63987 		.ascii	"&\2469\2079'\305\2322\346\301\006\006\375\035w`O\030"
 138      3927C59A 
 138      32E6C106 
 138      06FD1D77 
 138      604F18
 139 00e4 38D818FB 		.ascii	"8\330\030\373\015\264\313\320\026a\375\332l\343w\302"
 139      0DB4CBD0 
 139      1661FDDA 
 139      6CE377C2 
 140 00f4 E07D0CDA 		.ascii	"\340}\014\332Qh\315X\304\241\361\251u\341\350\344\207"
 140      5168CD58 
 140      C4A1F1A9 
ARM GAS  /tmp/cc7TT2jv.s 			page 10


 140      75E1E8E4 
 140      87
 141 0105 0DDDD818 		.ascii	"\015\335\330\030C\177\213\016N\013\3200)\224J\373\207"
 141      437F8B0E 
 141      4E0BD030 
 141      29944AFB 
 141      87
 142 0116 DFC0E429 		.ascii	"\337\300\344)r\245\\\016\240\033\320n\002G\341\227\204"
 142      72A55C0E 
 142      A01BD06E 
 142      0247E197 
 142      84
 143 0127 E0BC8AEF 		.ascii	"\340\274\212\357\373!z\020\253\270>\214\032X\247.\314"
 143      FB217A10 
 143      ABB83E8C 
 143      1A58A72E 
 143      CC
 144 0138 264648C5 		.ascii	"&FH\305\373\360\015\254\027`!@a\264\225\220_\320\201"
 144      FBF00DAC 
 144      17602140 
 144      61B49590 
 144      5FD081
 145 014b EDA78097 		.ascii	"\355\247\200\227\333\250;\320\010!\203\2453\007\267"
 145      DBA83BD0 
 145      082183A5 
 145      3307B7
 146 015a FF98905A 		.ascii	"\377\230\220Z\025\217\3400\214\035\301\030\335\215\016"
 146      158FE030 
 146      8C1DC118 
 146      DD8D0E
 147 0169 C2A48384 		.ascii	"\302\244\203\204\354[\242\240\312\303;\366{\333\216"
 147      EC5BA2A0 
 147      CAC33BF6 
 147      7BDB8E
 148 0178 2D63D87F 		.ascii	"-c\330\177`\330\223\012\006\246\007\360\335\006\220"
 148      60D8930A 
 148      06A607F0 
 148      DD0690
 149 0187 8A6BC23C 		.ascii	"\212k\302<0;7\035(\032\273mth\326^\213\374\272\033\341"
 149      303B371D 
 149      281ABB6D 
 149      7468D65E 
 149      8BFCBA1B 
 150 019c D0D5B1CE 		.ascii	"\320\325\261\316\352\200\005\240\240\223\016F\267\243"
 150      EA8005A0 
 150      A0930E46 
 150      B7A3
 151 01aa E708790A 		.ascii	"\347\010y\012\226`\344&RP\314\230\274\313\274\366\342"
 151      9660E426 
 151      5250CC98 
 151      BCCBBCF6 
 151      E2
 152 01bb 05AE5A0D 		.ascii	"\005\256Z\015l}(\231\324\332\315a\347\274\014C\350N"
 152      6C7D2899 
 152      D4DACD61 
 152      E7BC0C43 
 152      E84E
ARM GAS  /tmp/cc7TT2jv.s 			page 11


 153 01cd B49FAEF1 		.ascii	"\264\237\256\361\023d\313\034\314\226\030\031\243\004"
 153      1364CB1C 
 153      CC961819 
 153      A304
 154 01db A9A35858 		.ascii	"\251\243XX\012=W\212G^\253\033\354/\225\313\013\274"
 154      0A3D578A 
 154      475EAB1B 
 154      EC2F95CB 
 154      0BBC
 155 01ed 27CACB62 		.ascii	"'\312\313b\242\3504\034a\271\350\032\026\262\323\324"
 155      A2E8341C 
 155      61B9E81A 
 155      16B2D3D4 
 156 01fd A6E24340 		.ascii	"\246\342C@G\305c\337I\333\230S\333+\256\332\376ej\323"
 156      47C563DF 
 156      49DB9853 
 156      DB2BAEDA 
 156      FE656AD3 
 157 0211 935B41FF 		.ascii	"\223[A\377tg\305E|[\200zLxZ\250om1\207\231\230\031\206"
 157      7467C545 
 157      7C5B807A 
 157      4C785AA8 
 157      6F6D3187 
 158 0229 49C44C38 		.ascii	"I\304L8\305L\272\2129\372'K\314\313L\314\316\200\253"
 158      C54CBA8A 
 158      39FA274B 
 158      CCCB4CCC 
 158      CE80AB
 159 023c 981DCE10 		.ascii	"\230\035\316\020\037\377N\254\216;Y\375Qd\305\036\341"
 159      1FFF4EAC 
 159      8E3B59FD 
 159      5164C51E 
 159      E1
 160 024d 0152DA4F 		.ascii	"\001R\332O\346\015\331\217p\2559\001\335\235\314\355"
 160      E60DD98F 
 160      70AD3901 
 160      DD9DCCED 
 161 025d E1D30B0A 		.ascii	"\341\323\013\012<\302\3063_m\200\212_\305w\200\305\342"
 161      3CC2C633 
 161      5F6D808A 
 161      5FC57780 
 161      C5E2
 162 026f 4389C376 		.ascii	"C\211\303v\247\214iv\2158\244{\300\266\366\223\341\245"
 162      A78C6976 
 162      8D38A47B 
 162      C0B6F693 
 162      E1A5
 163 0281 6C3F798D 		.ascii	"l?y\215-\367h\300\271\237`\307~2\003\027?\276s\321 "
 163      2DF768C0 
 163      B99F60C7 
 163      7E320317 
 163      3FBE73D1 
 164 0296 8D73C350 		.ascii	"\215s\303P\275\212O\3005\203&\271\326\344\371\205\016"
 164      BD8A4FC0 
 164      358326B9 
 164      D6E4F985 
 164      0E
ARM GAS  /tmp/cc7TT2jv.s 			page 12


 165 02a7 C8FB9DAC 		.ascii	"\310\373\235\254\342\247\342?\343\271\266~b\354\247"
 165      E2A7E23F 
 165      E3B9B67E 
 165      62ECA7
 166 02b6 CC45F6EC 		.ascii	"\314E\366\354\276a\3503.[\235i,(1\335\320uh\007\343"
 166      BE61E833 
 166      2E5B9D69 
 166      2C2831DD 
 166      D0756807 
 167 02cb C26DD385 		.ascii	"\302m\323\205\0226G=:\337\216\354\373S\323+Yd\337\304"
 167      1236473D 
 167      3ADF8EEC 
 167      FB53D32B 
 167      5964DFC4 
 168 02df D74164FF 		.ascii	"\327Ad\377\352\210\254\007 :\361[0X\037\306`Iq\307T"
 168      EA88AC07 
 168      203AF15B 
 168      30581FC6 
 168      604971C7 
 169 02f4 1D09EAD7 		.ascii	"\035\011\352\327\221\000(\034\267\242\002y\264\277\270"
 169      9100281C 
 169      B7A20279 
 169      B4BFB8
 170 0303 7B6A1726 		.ascii	"{j\027&\205\023\330\214\340\251z#M\253\275iT\274\237"
 170      8513D88C 
 170      E0A97A23 
 170      4DABBD69 
 170      54BC9F
 171 0316 65DDCCAF 		.ascii	"e\335\314\257\002s!\024sx\203\260^4\364#\334z9\334T"
 171      02732114 
 171      737883B0 
 171      5E34F423 
 171      DC7A39DC 
 172 032b FC8EEFE5 		.ascii	"\374\216\357\345zW\262\\5\302j\231^\020\366\177\260"
 172      7A57B25C 
 172      35C26A99 
 172      5E10F67F 
 172      B0
 173 033c B0D368B9 		.ascii	"\260\323h\271\262\260pL\320z+\335i\010!\336O?4\250\312"
 173      B2B0704C 
 173      D07A2BDD 
 173      690821DE 
 173      4F3F34A8 
 174 0351 04CD32C7 		.ascii	"\004\3152\307\2573&>\357[\320{\022A7\"S\301\227\025"
 174      AF33263E 
 174      EF5BD07B 
 174      12413722 
 174      53C19715 
 175 0365 0A846985 		.ascii	"\012\204i\205\220V*\200$\030\002\005*>\013\324\024\364"
 175      90562A80 
 175      24180205 
 175      2A3E0BD4 
 175      14F4
 176 0377 5F4FE120 		.ascii	"_O\341 X\036\217g\030\332y\206F\202^\250\025dh\300m"
 176      581E8F67 
 176      18DA7986 
 176      46825EA8 
ARM GAS  /tmp/cc7TT2jv.s 			page 13


 176      156468C0 
 177 038c 0FC7EDF1 		.ascii	"\017\307\355\361\0124Wn\212\234\3330\307\355Io\334d"
 177      0A34576E 
 177      8A9CDB30 
 177      C7ED496F 
 177      DC64
 178 039e 68C0ED30 		.ascii	"h\300\3550\307m\310\033\267\200\234\333\030\307\355"
 178      C76DC81B 
 178      B7809CDB 
 178      18C7ED
 179 03ad 596FDC64 		.ascii	"Yo\334dh\300\355\010\307\355\2007nA9\267\361*9^o\002"
 179      68C0ED08 
 179      C7ED8037 
 179      6E4139B7 
 179      F12A395E 
 180 03c3 94CC4DF6 		.ascii	"\224\314M\366\357\276\223\3743I\222/\261\222|\264B\203"
 180      EFBE93FC 
 180      3349922F 
 180      B1927CB4 
 180      4283
 181 03d5 38AF1912 		.ascii	"8\257\031\022\231\010\010\311\304C\207\327\251\370u"
 181      990808C9 
 181      C44387D7 
 181      A9F875
 182 03e4 1692F10A 		.ascii	"\026\222\361\0128\361]a\306d\226<&G\253\304d\257\265"
 182      38F15D61 
 182      C664963C 
 182      2647ABC4 
 182      64AFB5
 183 03f7 4F0F5E6F 		.ascii	"O\017^oH\374\302wP\276\224\004e dEe\262B\206cfSS\215"
 183      48FCC277 
 183      50BE9404 
 183      65206445 
 183      65B24286 
 184 0410 2C2C03C5 		.ascii	",,\003\305cSu4U\336f\257\367W\235\200\002+3*\363]\320"
 184      63537534 
 184      55DE66AF 
 184      F7579D80 
 184      022B332A 
 185 0427 DC0EFEED 		.ascii	"\334\016\376\355\244\342\323\354\245q\006\337\012\366"
 185      A4E2D3EC 
 185      A57106DF 
 185      0AF6
 186 0435 1CB353CC 		.ascii	"\034\263S\314\276\317\354\007\314~\310\354G\314\376"
 186      BECFEC07 
 186      CC7EC8EC 
 186      47CCFE
 187 0444 8DD98F99 		.ascii	"\215\331\217\231\375\224\331\317\231\235f\366+\260\326"
 187      FD94D9CF 
 187      999D66F6 
 187      2BB0D6
 188 0453 311BFDCA 		.ascii	"1\033\375\312\376\363H\177\241\312\242\3725\236m\216"
 188      FEF3487F 
 188      A1CAA2FA 
 188      359E6D8E 
 189 0463 929417EB 		.ascii	"\222\224\027\353\314!u\025^'\245^*\376\267\357\005\376"
 189      CC217515 
ARM GAS  /tmp/cc7TT2jv.s 			page 14


 189      5E27A55E 
 189      2AFEB7EF 
 189      05FE
 190 0475 8F64812D 		.ascii	"\217d\201-\202\202\227[AP\262*\266\355v\311V\374\340"
 190      8282975B 
 190      4150B22A 
 190      B6ED76C9 
 190      56FCE0
 191 0488 126E50F1 		.ascii	"\022nP\361eVU\234\012\316XU8@\350\234W*\212\212K\254"
 191      6556559C 
 191      0ACE5855 
 191      3840E89C 
 191      572A8A8A 
 192 049e A8B83273 		.ascii	"\250\2702sQ\261k\240\270\373\322\256\233hQa\225\022"
 192      51B16BA0 
 192      B8FBD2AE 
 192      9B685161 
 192      9512
 193 04b0 C5EFA194 		.ascii	"\305\357\241\224P\320\031&\345J\365\334D\362D\177\372"
 193      50D01926 
 193      E54AF5DC 
 193      44F2447F 
 193      FA
 194 04c1 1297E8E7 		.ascii	"\022\227\350\347|\2035\010`C<\330E/`\265rf\317\360`"
 194      7C833508 
 194      60433CD8 
 194      452F60B5 
 194      7266CFF0 
 195 04d6 1FFA0613 		.ascii	"\037\372\006\023\231\355\341\301>\366\0026G\316l\230"
 195      99EDE1C1 
 195      3EF60236 
 195      47CE6C98 
 196 04e6 07FBCC37 		.ascii	"\007\373\3147\030\317\014\336\227k\351\006\374\015\333"
 196      18CF0CDE 
 196      976BE906 
 196      FC0DDB
 197 04f5 80A79D58 		.ascii	"\200\247\235X\302\363dt\347\311\211\215\361\304\276"
 197      C2F36474 
 197      E7C9898D 
 197      F1C4BE
 198 0504 F242AC41 		.ascii	"\362B\254A\036\262#<\330e/`w\311\231\215\363`W}\203"
 198      1EB2233C 
 198      D8652F60 
 198      77C9998D 
 198      F360577D 
 199 0519 89CC2678 		.ascii	"\211\314&x\260\201\220\007\260\205rfGy\260\255\276\301"
 199      B0819007 
 199      B0857266 
 199      4779B0AD 
 199      BEC1
 200 052b 4466C778 		.ascii	"Df\307x\260'\275\200-\2253;\316\203\355\364\015\306"
 200      B027BD80 
 200      2D95333B 
 200      CE83EDF4 
 200      0DC6
 201 053d 31DBD55F 		.ascii	"1\333\325_<\275\326z1\027\226\323-\270l\357\332\313"
 201      3CBDD67A 
ARM GAS  /tmp/cc7TT2jv.s 			page 15


 201      311796D3 
 201      2DB86CEF 
 201      DACB
 202 054f C5074870 		.ascii	"\305\007Hp\033\221\272\251\370Y\305\357\346>\254\270"
 202      1B91BAA9 
 202      F859C5EF 
 202      E63EACB8 
 203 055f 6FEEE29F 		.ascii	"o\356\342\237\215\246\027\255 \235\262\005\022Fw\271"
 203      8DA617AD 
 203      209DB205 
 203      124677B9 
 204 056f 2486B0EB 		.ascii	"$\206\260\353\236\325cXf1\334\343%\206\355r\260wx\260"
 204      9ED56358 
 204      6631DCE3 
 204      2586ED72 
 204      B07778B0 
 205 0583 826F3071 		.ascii	"\202o0qA\376\262V\254\224\270\365 V\2712\207_\220\212"
 205      41FEB256 
 205      AC94B8F5 
 205      2056B932 
 205      875F908A 
 206 0597 82CAE1A6 		.ascii	"\202\312\341\246\342\337\373^\220\003\222\005\261?\302"
 206      E2DFFB5E 
 206      90039205 
 206      B13FC2
 207 05a6 F15EF49B 		.ascii	"\361^\364\233\211S\266\310\302\350v\312\202\330_</\327"
 207      8953B6C8 
 207      C2E876CA 
 207      82D85F3C 
 207      2FD7
 208 05b8 5DB0A0AE 		.ascii	"]\260\240\256\257\246\333\351\246\342\347}\353\036\225"
 208      AFA6DBE9 
 208      A6E2E77D 
 208      EB1E95
 209 05c7 E80E0ABA 		.ascii	"\350\016\012\272Gm\335\007\235\272E\026Fw\235D7\024"
 209      476DDD07 
 209      9DBA4516 
 209      46779D44 
 209      3714
 210 05d9 0B17D6D2 		.ascii	"\013\027\326\322\334\241LU|\201}Q\233\011l\243$y`k\270"
 210      DCA14C55 
 210      7C817D51 
 210      9B096CA3 
 210      2479606B 
 211 05ee C86F0D87 		.ascii	"\310o\015\207\274d\342V\267?'\335\016\276\316Q\361\267"
 211      BC64E256 
 211      B73F27DD 
 211      0EBECE51 
 211      F1B7
 212 0600 AC10B9CA 		.ascii	"\254\020\271\312\212\313~\205\332\001f\2670\373\030"
 212      8ACB7E85 
 212      DA0166B7 
 212      30FB18
 213 060f B38F33BB 		.ascii	"\263\2173\273\215\331'\230\3755\263;\230\335\311\354"
 213      8DD92798 
 213      FD35B33B 
 213      98DDC9EC 
ARM GAS  /tmp/cc7TT2jv.s 			page 16


 214 061f 6E667FC3 		.ascii	"nf\177\303\354o\231\375\035\263\005f\3671;\302\354A"
 214      EC6F99FD 
 214      1DB30566 
 214      F7313BC2 
 214      EC41
 215 0631 660F31FB 		.ascii	"f\0171\373\242\"/g/W)g_R\254j\3616\264\227\234>]\332"
 215      A2222F67 
 215      2F572967 
 215      5F52AC6A 
 215      F136B497 
 216 0649 323D84B7 		.ascii	"2=\204\267\226\310 \271Z.c\273x\265\276\370\025\253"
 216      96C820B9 
 216      5A2E63BB 
 216      78B5BEF8 
 216      15AB
 217 065b 7FF1A3FF 		.ascii	"\177\361\243\377\203P\270\317\203\363\334}U\374\212"
 217      8350B8CF 
 217      83F3DC7D 
 217      55FC8A
 218 066a 42E335CE 		.ascii	"B\3435\316e\227\3367{\372\207\307#!\307\177o\354\340"
 218      6597DE37 
 218      7BFA87C7 
 218      2321C77F 
 218      6FECE0
 219 067d 571F6A4C 		.ascii	"W\037jL\372\211\225.\267\010\017\012\255\306\251\253"
 219      FA89952E 
 219      B7080F0A 
 219      ADC6A9AB 
 220 068d C44DC513 		.ascii	"\304M\305\023\276\037\224I\311\2032_`=i?(\223!\307\247"
 220      BE1F9449 
 220      C983325F 
 220      603D693F 
 220      289321C7 
 221 06a2 6F270B05 		.ascii	"o'\013\005\235\010\231%\3655\264\323\330\324\024\211"
 221      9D089925 
 221      F535B4D3 
 221      D8D41489 
 222 06b2 76A7D7A7 		.ascii	"v\247\327\247\037HD\262}\221n\265'\2621\233\313\367"
 222      1F4844B2 
 222      7D916EB5 
 222      27B2319B 
 222      CBF7
 223 06c4 4552D9DE 		.ascii	"ER\331\336\336l&\322\022\357\210v<\022\311\374,\235"
 223      DE6C26D2 
 223      12EF8876 
 223      3C12C9FC 
 223      2C9D
 224 06d6 6A4AA1BE 		.ascii	"jJ\241\276Hf\003k\367F\272\263\275Z$\247\365ij.\325"
 224      4866036B 
 224      F746BAB3 
 224      BD5A24A7 
 224      F5696A2E 
 225 06eb 0DE3725D 		.ascii	"\015\343r]?WsZD\315\3656G\036N\245\032\241\323\250\365"
 225      3F57735A 
 225      44CDF536 
 225      471E4EA5 
 225      1AA1D3A8 
ARM GAS  /tmp/cc7TT2jv.s 			page 17


 226 0700 AED7BABA 		.ascii	"\256\327\272\272\264.\353B&\233\321\0325u}\272qqric"
 226      B42EEB42 
 226      269BD11A 
 226      35757DBA 
 226      71717269 
 227 0715 F3C2458B 		.ascii	"\363\302E\213\177\332\034\021nD\322\231T\317\246.-\322"
 227      7FDA1C11 
 227      6E44D299 
 227      54CFA62E 
 227      2DD2
 228 0727 97EF4A67 		.ascii	"\227\357Jg\362M\335\250v\023\374\336\323\234\314\317"
 228      F24DDDA8 
 228      7613FCDE 
 228      D39CCCCF 
 229 0737 FAC9FDAB 		.ascii	"\372\311\375\253\033\242h\000\377\377H\364\252\251\356"
 229      1BA26800 
 229      FFFF48F4 
 229      AAA9EE
 230 0746 74468B24 		.ascii	"tF\213$\273\264\015\352\246\236|2\277y\243\326\007\244"
 230      BBB40DEA 
 230      A69E7C32 
 230      BF79A3D6 
 230      07A4
 231 0758 AE49264D 		.ascii	"\256I&MZshl\3322\352\372\036m\215\226\312gs8\023\334"
 231      5A73686C 
 231      DA32EAFA 
 231      1E6D8D96 
 231      CA677338 
 232 076e 984B67E7 		.ascii	"\230Kg\347\322\353\255\351>\373\306|z%\241\345\023\233"
 232      D2EBADE9 
 232      3EFBC67C 
 232      7A25A1E5 
 232      139B
 233 0780 FBF25A6F 		.ascii	"\373\362Zo\273\232\351\352\321r\235\340\232K\3477\327"
 233      BB9AE9EA 
 233      D1729DE0 
 233      9A4BE737 
 233      D7
 234 0791 74EBE70C 		.ascii	"t\353\347\014.\332\003\212:\265\014\204\340\341\032"
 234      2EDA038A 
 234      3AB50C84 
 234      E0E11A
 235 07a0 3AD1D264 		.ascii	":\321\322d>\254O\011\275\037\211k\246=\222\217D;\022"
 235      3EAC4F09 
 235      BD1F896B 
 235      A63D928F 
 235      443B12
 236 07b3 B184453B 		.ascii	"\261\204E;\225\315i\311T\357b \032\276\177M,\232\\\005"
 236      95CD69C9 
 236      54EF6220 
 236      1ABE7F4D 
 236      2C9A5C05 
 237 07c7 B483B144 		.ascii	"\264\203\261D[<\034o\003"
 237      5B3C1C6F 
 237      03
 238 07d0 BBA6AD75 		.ascii	"\273\246\255ua0\026m\213\327\306\365\263Ep\263\323\276"
 238      6130166D 
ARM GAS  /tmp/cc7TT2jv.s 			page 18


 238      8BD7C6F5 
 238      B34570B3 
 238      D3BE
 239 07e2 D90C37B9 		.ascii	"\331\0147\271\323{\202\261\226\025\366\351b%\326i\235"
 239      D37B82B1 
 239      9615F6E9 
 239      6225D669 
 239      9D
 240 07f3 DC1B4CAC 		.ascii	"\334\033L\254\212\305k\023\321\025l\222P\264su\254\025"
 240      8AC56B13 
 240      D1156C92 
 240      50B47375 
 240      AC15
 241 0805 8627E2C1 		.ascii	"\206'\342\3015\253\036\210\207Zb\361h<\220\200\026\245"
 241      35AB1E88 
 241      875A62F1 
 241      683C9080 
 241      16A5
 242 0817 BFED9DA1 		.ascii	"\277\355\235\241D;\275\031]\011\246\235\232V0\241\216"
 242      443BBD19 
 242      5D09A69D 
 242      9A5630A1 
 242      8E
 243 0828 8E952DF1 		.ascii	"\216\225-\361\340\012jZ\340<\320\2712\036h\205\326\322"
 243      E00A6A5A 
 243      E03CD0B9 
 243      321E6885 
 243      D6D2
 244 083a 1A0FC2BD 		.ascii	"\032\017\302\2758\360k\211\003xK4\036L\301:\327&\223"
 244      38F06B89 
 244      03784B34 
 244      1E4CC13A 
 244      D72693
 245 084d 1B366552 		.ascii	"\0336eR\311\344\017\314N\323\222\205\313\226\375\017"
 245      C9E40FCC 
 245      4ED39285 
 245      CB96FD0F 
 246 085d F11198EB 		.ascii	"\361\021\230\353"
 247              		.text
 248              		.section	.gnu.lto_.symtab.fb140c3bb965f25d,"",%progbits
 249 0000 6E766963 		.ascii	"nvicEnableVector\000\000\000\000\000\000\000\000\000"
 249      456E6162 
 249      6C655665 
 249      63746F72 
 249      00000000 
 250 0019 000000A1 		.ascii	"\000\000\000\241\000\000\000nvicDisableVector\000\000"
 250      0000006E 
 250      76696344 
 250      69736162 
 250      6C655665 
 251 0033 00000000 		.ascii	"\000\000\000\000\000\000\000\000\000\000\262\000\000"
 251      00000000 
 251      0000B200 
 251      00
 252 0040 006E7669 		.ascii	"\000nvicSetSystemHandlerPriority\000\000\000\000\000"
 252      63536574 
 252      53797374 
ARM GAS  /tmp/cc7TT2jv.s 			page 19


 252      656D4861 
 252      6E646C65 
 253 0062 00000000 		.ascii	"\000\000\000\000\000\000\000\270\000\000\000nvicCle"
 253      000000B8 
 253      0000006E 
 253      76696343 
 253      6C65
 254 0074 61725065 		.ascii	"arPending\000\000\000\000\000\000\000\000\000\000\000"
 254      6E64696E 
 254      67000000 
 254      00000000 
 254      00000000 
 255 0088 00BE0000 		.ascii	"\000\276\000\000\000"
 255      00
 256              		.text
 257              		.section	.gnu.lto_.opts,"",%progbits
 258 0000 272D6D63 		.ascii	"'-mcpu=cortex-m4' '-mno-thumb-interwork' '-mthumb' "
 258      70753D63 
 258      6F727465 
 258      782D6D34 
 258      2720272D 
 259 0033 272D6767 		.ascii	"'-ggdb' '-O2' '-fomit-frame-pointer' '-falign-funct"
 259      64622720 
 259      272D4F32 
 259      2720272D 
 259      666F6D69 
 260 0066 696F6E73 		.ascii	"ions=16' '-ffunction-sections' '-fdata-sections' '-"
 260      3D313627 
 260      20272D66 
 260      66756E63 
 260      74696F6E 
 261 0099 666E6F2D 		.ascii	"fno-common' '-flto'\000"
 261      636F6D6D 
 261      6F6E2720 
 261      272D666C 
 261      746F2700 
 262              		.text
 263              		.cfi_sections	.debug_frame
 264              		.section	.text.nvicEnableVector,"ax",%progbits
 265              		.align	2
 266              		.p2align 4,,15
 267              		.global	nvicEnableVector
 268              		.thumb
 269              		.thumb_func
 270              		.type	nvicEnableVector, %function
 271              	nvicEnableVector:
 272              	.LFB272:
 273              		.file 1 "../ChibiOS/os/hal/ports/common/ARMCMx/nvic.c"
 274              		.loc 1 57 0
 275              		.cfi_startproc
 276              		@ args = 0, pretend = 0, frame = 0
 277              		@ frame_needed = 0, uses_anonymous_args = 0
 278              		@ link register save eliminated.
 279              	.LVL0:
 280              		.loc 1 65 0
 281 0000 4309     		lsrs	r3, r0, #5
 282 0002 9B00     		lsls	r3, r3, #2
ARM GAS  /tmp/cc7TT2jv.s 			page 20


 283              		.loc 1 63 0
 284 0004 00F16042 		add	r2, r0, #-536870912
 285 0008 03F16043 		add	r3, r3, #-536870912
 286              		.loc 1 57 0
 287 000c 10B4     		push	{r4}
 288              		.cfi_def_cfa_offset 4
 289              		.cfi_offset 4, -4
 290 000e 03F56143 		add	r3, r3, #57600
 291              		.loc 1 65 0
 292 0012 0124     		movs	r4, #1
 293              		.loc 1 63 0
 294 0014 0901     		lsls	r1, r1, #4
 295              	.LVL1:
 296 0016 02F56142 		add	r2, r2, #57600
 297              		.loc 1 65 0
 298 001a 00F01F00 		and	r0, r0, #31
 299              	.LVL2:
 300 001e 04FA00F0 		lsl	r0, r4, r0
 301              		.loc 1 63 0
 302 0022 C9B2     		uxtb	r1, r1
 303 0024 82F80013 		strb	r1, [r2, #768]
 304              		.loc 1 65 0
 305 0028 C3F88001 		str	r0, [r3, #384]
 306              		.loc 1 66 0
 307 002c 1860     		str	r0, [r3]
 308              		.loc 1 67 0
 309 002e 5DF8044B 		ldr	r4, [sp], #4
 310 0032 7047     		bx	lr
 311              		.cfi_endproc
 312              	.LFE272:
 313              		.size	nvicEnableVector, .-nvicEnableVector
 314 0034 AFF30080 		.section	.text.nvicDisableVector,"ax",%progbits
 314      AFF30080 
 314      AFF30080 
 315              		.align	2
 316              		.p2align 4,,15
 317              		.global	nvicDisableVector
 318              		.thumb
 319              		.thumb_func
 320              		.type	nvicDisableVector, %function
 321              	nvicDisableVector:
 322              	.LFB273:
 323              		.loc 1 74 0
 324              		.cfi_startproc
 325              		@ args = 0, pretend = 0, frame = 0
 326              		@ frame_needed = 0, uses_anonymous_args = 0
 327              		@ link register save eliminated.
 328              	.LVL3:
 329              		.loc 1 76 0
 330 0000 084B     		ldr	r3, .L3
 331 0002 4109     		lsrs	r1, r0, #5
 332              		.loc 1 74 0
 333 0004 10B4     		push	{r4}
 334              		.cfi_def_cfa_offset 4
 335              		.cfi_offset 4, -4
 336              		.loc 1 76 0
 337 0006 00F01F02 		and	r2, r0, #31
ARM GAS  /tmp/cc7TT2jv.s 			page 21


 338 000a 2031     		adds	r1, r1, #32
 339 000c 0124     		movs	r4, #1
 340              		.loc 1 80 0
 341 000e 1844     		add	r0, r0, r3
 342              	.LVL4:
 343              		.loc 1 76 0
 344 0010 9440     		lsls	r4, r4, r2
 345              		.loc 1 80 0
 346 0012 0022     		movs	r2, #0
 347              		.loc 1 76 0
 348 0014 43F82140 		str	r4, [r3, r1, lsl #2]
 349              		.loc 1 80 0
 350 0018 80F80023 		strb	r2, [r0, #768]
 351              		.loc 1 82 0
 352 001c 5DF8044B 		ldr	r4, [sp], #4
 353 0020 7047     		bx	lr
 354              	.L4:
 355 0022 00BF     		.align	2
 356              	.L3:
 357 0024 00E100E0 		.word	-536813312
 358              		.cfi_endproc
 359              	.LFE273:
 360              		.size	nvicDisableVector, .-nvicDisableVector
 361 0028 AFF30080 		.section	.text.nvicSetSystemHandlerPriority,"ax",%progbits
 361      AFF30080 
 362              		.align	2
 363              		.p2align 4,,15
 364              		.global	nvicSetSystemHandlerPriority
 365              		.thumb
 366              		.thumb_func
 367              		.type	nvicSetSystemHandlerPriority, %function
 368              	nvicSetSystemHandlerPriority:
 369              	.LFB274:
 370              		.loc 1 90 0
 371              		.cfi_startproc
 372              		@ args = 0, pretend = 0, frame = 0
 373              		@ frame_needed = 0, uses_anonymous_args = 0
 374              		@ link register save eliminated.
 375              	.LVL5:
 376              		.loc 1 100 0
 377 0000 00F16040 		add	r0, r0, #-536870912
 378              	.LVL6:
 379 0004 00F56D40 		add	r0, r0, #60672
 380              	.LVL7:
 381 0008 0901     		lsls	r1, r1, #4
 382              	.LVL8:
 383 000a C9B2     		uxtb	r1, r1
 384 000c 0176     		strb	r1, [r0, #24]
 385 000e 7047     		bx	lr
 386              		.cfi_endproc
 387              	.LFE274:
 388              		.size	nvicSetSystemHandlerPriority, .-nvicSetSystemHandlerPriority
 389              		.section	.text.nvicClearPending,"ax",%progbits
 390              		.align	2
 391              		.p2align 4,,15
 392              		.global	nvicClearPending
 393              		.thumb
ARM GAS  /tmp/cc7TT2jv.s 			page 22


 394              		.thumb_func
 395              		.type	nvicClearPending, %function
 396              	nvicClearPending:
 397              	.LFB275:
 398              		.loc 1 109 0
 399              		.cfi_startproc
 400              		@ args = 0, pretend = 0, frame = 0
 401              		@ frame_needed = 0, uses_anonymous_args = 0
 402              		@ link register save eliminated.
 403              	.LVL9:
 404              		.loc 1 111 0
 405 0000 4209     		lsrs	r2, r0, #5
 406 0002 6032     		adds	r2, r2, #96
 407 0004 00F01F00 		and	r0, r0, #31
 408              	.LVL10:
 409 0008 0121     		movs	r1, #1
 410 000a 034B     		ldr	r3, .L7
 411 000c 01FA00F0 		lsl	r0, r1, r0
 412 0010 43F82200 		str	r0, [r3, r2, lsl #2]
 413 0014 7047     		bx	lr
 414              	.L8:
 415 0016 00BF     		.align	2
 416              	.L7:
 417 0018 00E100E0 		.word	-536813312
 418              		.cfi_endproc
 419              	.LFE275:
 420              		.size	nvicClearPending, .-nvicClearPending
 421 001c AFF30080 		.text
 422              	.Letext0:
 423              		.file 2 "/nfs/nfs5/home/research/hardware/arm2/gcc-arm-embedded/gcc-arm-none-eabi-4_8-2014q2/arm-n
 424              		.file 3 "/nfs/nfs5/home/research/hardware/arm2/gcc-arm-embedded/gcc-arm-none-eabi-4_8-2014q2/arm-n
 425              		.file 4 "../ChibiOS/os/rt/ports/ARMCMx/compilers/GCC/chtypes.h"
 426              		.file 5 "../ChibiOS/os/rt/include/chsystypes.h"
 427              		.file 6 "../ChibiOS/os/rt/include/chschd.h"
 428              		.file 7 "../ChibiOS/os/ext/CMSIS/include/core_cm4.h"
 429              		.file 8 "../ChibiOS/os/rt/ports/ARMCMx/chcore.h"
 430              		.file 9 "../ChibiOS/os/rt/ports/ARMCMx/chcore_v7m.h"
 431              		.file 10 "../ChibiOS/os/rt/include/chtm.h"
 432              		.file 11 "../ChibiOS/os/rt/include/chsem.h"
 433              		.file 12 "../ChibiOS/os/rt/include/chmtx.h"
 434              		.section	.debug_info,"",%progbits
 435              	.Ldebug_info0:
 436 0000 CA090000 		.4byte	0x9ca
 437 0004 0400     		.2byte	0x4
 438 0006 00000000 		.4byte	.Ldebug_abbrev0
 439 000a 04       		.byte	0x4
 440 000b 01       		.uleb128 0x1
 441 000c 6D050000 		.4byte	.LASF137
 442 0010 01       		.byte	0x1
 443 0011 1B020000 		.4byte	.LASF138
 444 0015 41010000 		.4byte	.LASF139
 445 0019 00000000 		.4byte	.Ldebug_ranges0+0
 446 001d 00000000 		.4byte	0
 447 0021 00000000 		.4byte	.Ldebug_line0
 448 0025 02       		.uleb128 0x2
 449 0026 04       		.byte	0x4
 450 0027 05       		.byte	0x5
ARM GAS  /tmp/cc7TT2jv.s 			page 23


 451 0028 696E7400 		.ascii	"int\000"
 452 002c 03       		.uleb128 0x3
 453 002d 04       		.byte	0x4
 454 002e 07       		.byte	0x7
 455 002f D7010000 		.4byte	.LASF0
 456 0033 03       		.uleb128 0x3
 457 0034 01       		.byte	0x1
 458 0035 06       		.byte	0x6
 459 0036 FA000000 		.4byte	.LASF1
 460 003a 04       		.uleb128 0x4
 461 003b 37000000 		.4byte	.LASF5
 462 003f 02       		.byte	0x2
 463 0040 1C       		.byte	0x1c
 464 0041 45000000 		.4byte	0x45
 465 0045 03       		.uleb128 0x3
 466 0046 01       		.byte	0x1
 467 0047 08       		.byte	0x8
 468 0048 B5030000 		.4byte	.LASF2
 469 004c 03       		.uleb128 0x3
 470 004d 02       		.byte	0x2
 471 004e 05       		.byte	0x5
 472 004f E8030000 		.4byte	.LASF3
 473 0053 03       		.uleb128 0x3
 474 0054 02       		.byte	0x2
 475 0055 07       		.byte	0x7
 476 0056 33040000 		.4byte	.LASF4
 477 005a 04       		.uleb128 0x4
 478 005b 9C020000 		.4byte	.LASF6
 479 005f 02       		.byte	0x2
 480 0060 37       		.byte	0x37
 481 0061 65000000 		.4byte	0x65
 482 0065 03       		.uleb128 0x3
 483 0066 04       		.byte	0x4
 484 0067 05       		.byte	0x5
 485 0068 38010000 		.4byte	.LASF7
 486 006c 04       		.uleb128 0x4
 487 006d F9040000 		.4byte	.LASF8
 488 0071 02       		.byte	0x2
 489 0072 38       		.byte	0x38
 490 0073 77000000 		.4byte	0x77
 491 0077 03       		.uleb128 0x3
 492 0078 04       		.byte	0x4
 493 0079 07       		.byte	0x7
 494 007a AA040000 		.4byte	.LASF9
 495 007e 03       		.uleb128 0x3
 496 007f 08       		.byte	0x8
 497 0080 05       		.byte	0x5
 498 0081 EC000000 		.4byte	.LASF10
 499 0085 04       		.uleb128 0x4
 500 0086 4D030000 		.4byte	.LASF11
 501 008a 02       		.byte	0x2
 502 008b 4E       		.byte	0x4e
 503 008c 90000000 		.4byte	0x90
 504 0090 03       		.uleb128 0x3
 505 0091 08       		.byte	0x8
 506 0092 07       		.byte	0x7
 507 0093 6A000000 		.4byte	.LASF12
ARM GAS  /tmp/cc7TT2jv.s 			page 24


 508 0097 04       		.uleb128 0x4
 509 0098 57050000 		.4byte	.LASF13
 510 009c 03       		.byte	0x3
 511 009d 2A       		.byte	0x2a
 512 009e 3A000000 		.4byte	0x3a
 513 00a2 04       		.uleb128 0x4
 514 00a3 AD030000 		.4byte	.LASF14
 515 00a7 03       		.byte	0x3
 516 00a8 41       		.byte	0x41
 517 00a9 5A000000 		.4byte	0x5a
 518 00ad 04       		.uleb128 0x4
 519 00ae 79040000 		.4byte	.LASF15
 520 00b2 03       		.byte	0x3
 521 00b3 42       		.byte	0x42
 522 00b4 6C000000 		.4byte	0x6c
 523 00b8 04       		.uleb128 0x4
 524 00b9 2E000000 		.4byte	.LASF16
 525 00bd 03       		.byte	0x3
 526 00be 4E       		.byte	0x4e
 527 00bf 85000000 		.4byte	0x85
 528 00c3 04       		.uleb128 0x4
 529 00c4 1D050000 		.4byte	.LASF17
 530 00c8 04       		.byte	0x4
 531 00c9 39       		.byte	0x39
 532 00ca AD000000 		.4byte	0xad
 533 00ce 04       		.uleb128 0x4
 534 00cf 7A020000 		.4byte	.LASF18
 535 00d3 04       		.byte	0x4
 536 00d4 3C       		.byte	0x3c
 537 00d5 97000000 		.4byte	0x97
 538 00d9 04       		.uleb128 0x4
 539 00da 75010000 		.4byte	.LASF19
 540 00de 04       		.byte	0x4
 541 00df 3D       		.byte	0x3d
 542 00e0 97000000 		.4byte	0x97
 543 00e4 04       		.uleb128 0x4
 544 00e5 58030000 		.4byte	.LASF20
 545 00e9 04       		.byte	0x4
 546 00ea 3E       		.byte	0x3e
 547 00eb 97000000 		.4byte	0x97
 548 00ef 04       		.uleb128 0x4
 549 00f0 8F030000 		.4byte	.LASF21
 550 00f4 04       		.byte	0x4
 551 00f5 40       		.byte	0x40
 552 00f6 AD000000 		.4byte	0xad
 553 00fa 04       		.uleb128 0x4
 554 00fb 57020000 		.4byte	.LASF22
 555 00ff 04       		.byte	0x4
 556 0100 41       		.byte	0x41
 557 0101 A2000000 		.4byte	0xa2
 558 0105 04       		.uleb128 0x4
 559 0106 90020000 		.4byte	.LASF23
 560 010a 04       		.byte	0x4
 561 010b 43       		.byte	0x43
 562 010c AD000000 		.4byte	0xad
 563 0110 04       		.uleb128 0x4
 564 0111 D1010000 		.4byte	.LASF24
ARM GAS  /tmp/cc7TT2jv.s 			page 25


 565 0115 04       		.byte	0x4
 566 0116 45       		.byte	0x45
 567 0117 A2000000 		.4byte	0xa2
 568 011b 04       		.uleb128 0x4
 569 011c DB040000 		.4byte	.LASF25
 570 0120 05       		.byte	0x5
 571 0121 33       		.byte	0x33
 572 0122 AD000000 		.4byte	0xad
 573 0126 04       		.uleb128 0x4
 574 0127 CB040000 		.4byte	.LASF26
 575 012b 05       		.byte	0x5
 576 012c 3F       		.byte	0x3f
 577 012d 31010000 		.4byte	0x131
 578 0131 05       		.uleb128 0x5
 579 0132 48020000 		.4byte	.LASF45
 580 0136 40       		.byte	0x40
 581 0137 06       		.byte	0x6
 582 0138 C2       		.byte	0xc2
 583 0139 11020000 		.4byte	0x211
 584 013d 06       		.uleb128 0x6
 585 013e 2C040000 		.4byte	.LASF27
 586 0142 06       		.byte	0x6
 587 0143 C3       		.byte	0xc3
 588 0144 1C020000 		.4byte	0x21c
 589 0148 00       		.byte	0
 590 0149 06       		.uleb128 0x6
 591 014a 88030000 		.4byte	.LASF28
 592 014e 06       		.byte	0x6
 593 014f C5       		.byte	0xc5
 594 0150 1C020000 		.4byte	0x21c
 595 0154 04       		.byte	0x4
 596 0155 06       		.uleb128 0x6
 597 0156 CF000000 		.4byte	.LASF29
 598 015a 06       		.byte	0x6
 599 015b C7       		.byte	0xc7
 600 015c EF000000 		.4byte	0xef
 601 0160 08       		.byte	0x8
 602 0161 06       		.uleb128 0x6
 603 0162 76060000 		.4byte	.LASF30
 604 0166 06       		.byte	0x6
 605 0167 C8       		.byte	0xc8
 606 0168 17070000 		.4byte	0x717
 607 016c 0C       		.byte	0xc
 608 016d 06       		.uleb128 0x6
 609 016e 7E010000 		.4byte	.LASF31
 610 0172 06       		.byte	0x6
 611 0173 CA       		.byte	0xca
 612 0174 1C020000 		.4byte	0x21c
 613 0178 10       		.byte	0x10
 614 0179 06       		.uleb128 0x6
 615 017a 1C030000 		.4byte	.LASF32
 616 017e 06       		.byte	0x6
 617 017f CB       		.byte	0xcb
 618 0180 1C020000 		.4byte	0x21c
 619 0184 14       		.byte	0x14
 620 0185 06       		.uleb128 0x6
 621 0186 54060000 		.4byte	.LASF33
ARM GAS  /tmp/cc7TT2jv.s 			page 26


 622 018a 06       		.byte	0x6
 623 018b D2       		.byte	0xd2
 624 018c A2080000 		.4byte	0x8a2
 625 0190 18       		.byte	0x18
 626 0191 06       		.uleb128 0x6
 627 0192 D6030000 		.4byte	.LASF34
 628 0196 06       		.byte	0x6
 629 0197 DD       		.byte	0xdd
 630 0198 D9000000 		.4byte	0xd9
 631 019c 1C       		.byte	0x1c
 632 019d 06       		.uleb128 0x6
 633 019e 5B060000 		.4byte	.LASF35
 634 01a2 06       		.byte	0x6
 635 01a3 E1       		.byte	0xe1
 636 01a4 CE000000 		.4byte	0xce
 637 01a8 1D       		.byte	0x1d
 638 01a9 06       		.uleb128 0x6
 639 01aa 45050000 		.4byte	.LASF36
 640 01ae 06       		.byte	0x6
 641 01af E6       		.byte	0xe6
 642 01b0 E4000000 		.4byte	0xe4
 643 01b4 1E       		.byte	0x1e
 644 01b5 07       		.uleb128 0x7
 645 01b6 705F7500 		.ascii	"p_u\000"
 646 01ba 06       		.byte	0x6
 647 01bb 3701     		.2byte	0x137
 648 01bd D1070000 		.4byte	0x7d1
 649 01c1 20       		.byte	0x20
 650 01c2 08       		.uleb128 0x8
 651 01c3 C9020000 		.4byte	.LASF37
 652 01c7 06       		.byte	0x6
 653 01c8 3C01     		.2byte	0x13c
 654 01ca 22020000 		.4byte	0x222
 655 01ce 24       		.byte	0x24
 656 01cf 08       		.uleb128 0x8
 657 01d0 05020000 		.4byte	.LASF38
 658 01d4 06       		.byte	0x6
 659 01d5 4201     		.2byte	0x142
 660 01d7 46020000 		.4byte	0x246
 661 01db 28       		.byte	0x28
 662 01dc 08       		.uleb128 0x8
 663 01dd 64040000 		.4byte	.LASF39
 664 01e1 06       		.byte	0x6
 665 01e2 4801     		.2byte	0x148
 666 01e4 05010000 		.4byte	0x105
 667 01e8 30       		.byte	0x30
 668 01e9 08       		.uleb128 0x8
 669 01ea DE030000 		.4byte	.LASF40
 670 01ee 06       		.byte	0x6
 671 01ef 4F01     		.2byte	0x14f
 672 01f1 9C080000 		.4byte	0x89c
 673 01f5 34       		.byte	0x34
 674 01f6 08       		.uleb128 0x8
 675 01f7 E5040000 		.4byte	.LASF41
 676 01fb 06       		.byte	0x6
 677 01fc 5301     		.2byte	0x153
 678 01fe EF000000 		.4byte	0xef
ARM GAS  /tmp/cc7TT2jv.s 			page 27


 679 0202 38       		.byte	0x38
 680 0203 08       		.uleb128 0x8
 681 0204 06010000 		.4byte	.LASF42
 682 0208 06       		.byte	0x6
 683 0209 5A01     		.2byte	0x15a
 684 020b F9020000 		.4byte	0x2f9
 685 020f 3C       		.byte	0x3c
 686 0210 00       		.byte	0
 687 0211 04       		.uleb128 0x4
 688 0212 DC020000 		.4byte	.LASF43
 689 0216 05       		.byte	0x5
 690 0217 44       		.byte	0x44
 691 0218 1C020000 		.4byte	0x21c
 692 021c 09       		.uleb128 0x9
 693 021d 04       		.byte	0x4
 694 021e 26010000 		.4byte	0x126
 695 0222 04       		.uleb128 0x4
 696 0223 00000000 		.4byte	.LASF44
 697 0227 05       		.byte	0x5
 698 0228 49       		.byte	0x49
 699 0229 2D020000 		.4byte	0x22d
 700 022d 05       		.uleb128 0x5
 701 022e 9A040000 		.4byte	.LASF46
 702 0232 04       		.byte	0x4
 703 0233 06       		.byte	0x6
 704 0234 B0       		.byte	0xb0
 705 0235 46020000 		.4byte	0x246
 706 0239 06       		.uleb128 0x6
 707 023a 2C040000 		.4byte	.LASF27
 708 023e 06       		.byte	0x6
 709 023f B1       		.byte	0xb1
 710 0240 1C020000 		.4byte	0x21c
 711 0244 00       		.byte	0
 712 0245 00       		.byte	0
 713 0246 04       		.uleb128 0x4
 714 0247 2C050000 		.4byte	.LASF47
 715 024b 05       		.byte	0x5
 716 024c 50       		.byte	0x50
 717 024d 51020000 		.4byte	0x251
 718 0251 05       		.uleb128 0x5
 719 0252 B9000000 		.4byte	.LASF48
 720 0256 08       		.byte	0x8
 721 0257 06       		.byte	0x6
 722 0258 B7       		.byte	0xb7
 723 0259 76020000 		.4byte	0x276
 724 025d 06       		.uleb128 0x6
 725 025e 2C040000 		.4byte	.LASF27
 726 0262 06       		.byte	0x6
 727 0263 B8       		.byte	0xb8
 728 0264 1C020000 		.4byte	0x21c
 729 0268 00       		.byte	0
 730 0269 06       		.uleb128 0x6
 731 026a 88030000 		.4byte	.LASF28
 732 026e 06       		.byte	0x6
 733 026f B9       		.byte	0xb9
 734 0270 1C020000 		.4byte	0x21c
 735 0274 04       		.byte	0x4
ARM GAS  /tmp/cc7TT2jv.s 			page 28


 736 0275 00       		.byte	0
 737 0276 04       		.uleb128 0x4
 738 0277 14000000 		.4byte	.LASF49
 739 027b 05       		.byte	0x5
 740 027c 57       		.byte	0x57
 741 027d 81020000 		.4byte	0x281
 742 0281 0A       		.uleb128 0xa
 743 0282 82020000 		.4byte	.LASF50
 744 0286 1C       		.byte	0x1c
 745 0287 06       		.byte	0x6
 746 0288 9201     		.2byte	0x192
 747 028a DD020000 		.4byte	0x2dd
 748 028e 08       		.uleb128 0x8
 749 028f 89040000 		.4byte	.LASF51
 750 0293 06       		.byte	0x6
 751 0294 9301     		.2byte	0x193
 752 0296 46020000 		.4byte	0x246
 753 029a 00       		.byte	0
 754 029b 08       		.uleb128 0x8
 755 029c 1E040000 		.4byte	.LASF52
 756 02a0 06       		.byte	0x6
 757 02a1 9401     		.2byte	0x194
 758 02a3 EF000000 		.4byte	0xef
 759 02a7 08       		.byte	0x8
 760 02a8 08       		.uleb128 0x8
 761 02a9 24030000 		.4byte	.LASF53
 762 02ad 06       		.byte	0x6
 763 02ae 9601     		.2byte	0x196
 764 02b0 17070000 		.4byte	0x717
 765 02b4 0C       		.byte	0xc
 766 02b5 08       		.uleb128 0x8
 767 02b6 98010000 		.4byte	.LASF54
 768 02ba 06       		.byte	0x6
 769 02bb 9901     		.2byte	0x199
 770 02bd 1C020000 		.4byte	0x21c
 771 02c1 10       		.byte	0x10
 772 02c2 08       		.uleb128 0x8
 773 02c3 45030000 		.4byte	.LASF55
 774 02c7 06       		.byte	0x6
 775 02c8 9A01     		.2byte	0x19a
 776 02ca 1C020000 		.4byte	0x21c
 777 02ce 14       		.byte	0x14
 778 02cf 08       		.uleb128 0x8
 779 02d0 BC040000 		.4byte	.LASF56
 780 02d4 06       		.byte	0x6
 781 02d5 9D01     		.2byte	0x19d
 782 02d7 1C020000 		.4byte	0x21c
 783 02db 18       		.byte	0x18
 784 02dc 00       		.byte	0
 785 02dd 04       		.uleb128 0x4
 786 02de F0040000 		.4byte	.LASF57
 787 02e2 05       		.byte	0x5
 788 02e3 5C       		.byte	0x5c
 789 02e4 E8020000 		.4byte	0x2e8
 790 02e8 09       		.uleb128 0x9
 791 02e9 04       		.byte	0x4
 792 02ea EE020000 		.4byte	0x2ee
ARM GAS  /tmp/cc7TT2jv.s 			page 29


 793 02ee 0B       		.uleb128 0xb
 794 02ef F9020000 		.4byte	0x2f9
 795 02f3 0C       		.uleb128 0xc
 796 02f4 F9020000 		.4byte	0x2f9
 797 02f8 00       		.byte	0
 798 02f9 0D       		.uleb128 0xd
 799 02fa 04       		.byte	0x4
 800 02fb 04       		.uleb128 0x4
 801 02fc B9020000 		.4byte	.LASF58
 802 0300 05       		.byte	0x5
 803 0301 61       		.byte	0x61
 804 0302 06030000 		.4byte	0x306
 805 0306 0A       		.uleb128 0xa
 806 0307 46040000 		.4byte	.LASF59
 807 030b 14       		.byte	0x14
 808 030c 06       		.byte	0x6
 809 030d 6D01     		.2byte	0x16d
 810 030f 55030000 		.4byte	0x355
 811 0313 08       		.uleb128 0x8
 812 0314 E4010000 		.4byte	.LASF60
 813 0318 06       		.byte	0x6
 814 0319 6E01     		.2byte	0x16e
 815 031b B4080000 		.4byte	0x8b4
 816 031f 00       		.byte	0
 817 0320 08       		.uleb128 0x8
 818 0321 A9010000 		.4byte	.LASF61
 819 0325 06       		.byte	0x6
 820 0326 6F01     		.2byte	0x16f
 821 0328 B4080000 		.4byte	0x8b4
 822 032c 04       		.byte	0x4
 823 032d 08       		.uleb128 0x8
 824 032e 91040000 		.4byte	.LASF62
 825 0332 06       		.byte	0x6
 826 0333 7001     		.2byte	0x170
 827 0335 1B010000 		.4byte	0x11b
 828 0339 08       		.byte	0x8
 829 033a 08       		.uleb128 0x8
 830 033b 7C060000 		.4byte	.LASF63
 831 033f 06       		.byte	0x6
 832 0340 7101     		.2byte	0x171
 833 0342 DD020000 		.4byte	0x2dd
 834 0346 0C       		.byte	0xc
 835 0347 08       		.uleb128 0x8
 836 0348 25050000 		.4byte	.LASF64
 837 034c 06       		.byte	0x6
 838 034d 7301     		.2byte	0x173
 839 034f F9020000 		.4byte	0x2f9
 840 0353 10       		.byte	0x10
 841 0354 00       		.byte	0
 842 0355 04       		.uleb128 0x4
 843 0356 9D000000 		.4byte	.LASF65
 844 035a 05       		.byte	0x5
 845 035b 66       		.byte	0x66
 846 035c 60030000 		.4byte	0x360
 847 0360 0A       		.uleb128 0xa
 848 0361 EF020000 		.4byte	.LASF66
 849 0365 10       		.byte	0x10
ARM GAS  /tmp/cc7TT2jv.s 			page 30


 850 0366 06       		.byte	0x6
 851 0367 7D01     		.2byte	0x17d
 852 0369 A2030000 		.4byte	0x3a2
 853 036d 08       		.uleb128 0x8
 854 036e E4010000 		.4byte	.LASF60
 855 0372 06       		.byte	0x6
 856 0373 7E01     		.2byte	0x17e
 857 0375 B4080000 		.4byte	0x8b4
 858 0379 00       		.byte	0
 859 037a 08       		.uleb128 0x8
 860 037b A9010000 		.4byte	.LASF61
 861 037f 06       		.byte	0x6
 862 0380 8001     		.2byte	0x180
 863 0382 B4080000 		.4byte	0x8b4
 864 0386 04       		.byte	0x4
 865 0387 08       		.uleb128 0x8
 866 0388 91040000 		.4byte	.LASF62
 867 038c 06       		.byte	0x6
 868 038d 8201     		.2byte	0x182
 869 038f 1B010000 		.4byte	0x11b
 870 0393 08       		.byte	0x8
 871 0394 08       		.uleb128 0x8
 872 0395 10030000 		.4byte	.LASF67
 873 0399 06       		.byte	0x6
 874 039a 8A01     		.2byte	0x18a
 875 039c 1B010000 		.4byte	0x11b
 876 03a0 0C       		.byte	0xc
 877 03a1 00       		.byte	0
 878 03a2 04       		.uleb128 0x4
 879 03a3 4D000000 		.4byte	.LASF68
 880 03a7 05       		.byte	0x5
 881 03a8 6B       		.byte	0x6b
 882 03a9 AD030000 		.4byte	0x3ad
 883 03ad 0A       		.uleb128 0xa
 884 03ae 97030000 		.4byte	.LASF69
 885 03b2 04       		.byte	0x4
 886 03b3 06       		.byte	0x6
 887 03b4 A401     		.2byte	0x1a4
 888 03b6 C8030000 		.4byte	0x3c8
 889 03ba 08       		.uleb128 0x8
 890 03bb 04050000 		.4byte	.LASF70
 891 03bf 06       		.byte	0x6
 892 03c0 AC01     		.2byte	0x1ac
 893 03c2 BA080000 		.4byte	0x8ba
 894 03c6 00       		.byte	0
 895 03c7 00       		.byte	0
 896 03c8 04       		.uleb128 0x4
 897 03c9 6E020000 		.4byte	.LASF71
 898 03cd 05       		.byte	0x5
 899 03ce 70       		.byte	0x70
 900 03cf D3030000 		.4byte	0x3d3
 901 03d3 0E       		.uleb128 0xe
 902 03d4 2E010000 		.4byte	.LASF72
 903 03d8 5001     		.2byte	0x150
 904 03da 06       		.byte	0x6
 905 03db C401     		.2byte	0x1c4
 906 03dd 2F040000 		.4byte	0x42f
ARM GAS  /tmp/cc7TT2jv.s 			page 31


 907 03e1 08       		.uleb128 0x8
 908 03e2 51050000 		.4byte	.LASF73
 909 03e6 06       		.byte	0x6
 910 03e7 C801     		.2byte	0x1c8
 911 03e9 76020000 		.4byte	0x276
 912 03ed 00       		.byte	0
 913 03ee 08       		.uleb128 0x8
 914 03ef 27010000 		.4byte	.LASF74
 915 03f3 06       		.byte	0x6
 916 03f4 CC01     		.2byte	0x1cc
 917 03f6 55030000 		.4byte	0x355
 918 03fa 1C       		.byte	0x1c
 919 03fb 07       		.uleb128 0x7
 920 03fc 64626700 		.ascii	"dbg\000"
 921 0400 06       		.byte	0x6
 922 0401 D001     		.2byte	0x1d0
 923 0403 A2030000 		.4byte	0x3a2
 924 0407 2C       		.byte	0x2c
 925 0408 08       		.uleb128 0x8
 926 0409 8A000000 		.4byte	.LASF75
 927 040d 06       		.byte	0x6
 928 040e D401     		.2byte	0x1d4
 929 0410 26010000 		.4byte	0x126
 930 0414 30       		.byte	0x30
 931 0415 07       		.uleb128 0x7
 932 0416 746D00   		.ascii	"tm\000"
 933 0419 06       		.byte	0x6
 934 041a D901     		.2byte	0x1d9
 935 041c C6070000 		.4byte	0x7c6
 936 0420 70       		.byte	0x70
 937 0421 08       		.uleb128 0x8
 938 0422 C2010000 		.4byte	.LASF76
 939 0426 06       		.byte	0x6
 940 0427 E501     		.2byte	0x1e5
 941 0429 BF080000 		.4byte	0x8bf
 942 042d 78       		.byte	0x78
 943 042e 00       		.byte	0
 944 042f 0F       		.uleb128 0xf
 945 0430 040E     		.2byte	0xe04
 946 0432 07       		.byte	0x7
 947 0433 A001     		.2byte	0x1a0
 948 0435 EB040000 		.4byte	0x4eb
 949 0439 08       		.uleb128 0x8
 950 043a F2030000 		.4byte	.LASF77
 951 043e 07       		.byte	0x7
 952 043f A201     		.2byte	0x1a2
 953 0441 02050000 		.4byte	0x502
 954 0445 00       		.byte	0
 955 0446 08       		.uleb128 0x8
 956 0447 60030000 		.4byte	.LASF78
 957 044b 07       		.byte	0x7
 958 044c A301     		.2byte	0x1a3
 959 044e 07050000 		.4byte	0x507
 960 0452 20       		.byte	0x20
 961 0453 08       		.uleb128 0x8
 962 0454 3B030000 		.4byte	.LASF79
 963 0458 07       		.byte	0x7
ARM GAS  /tmp/cc7TT2jv.s 			page 32


 964 0459 A401     		.2byte	0x1a4
 965 045b 17050000 		.4byte	0x517
 966 045f 80       		.byte	0x80
 967 0460 08       		.uleb128 0x8
 968 0461 5F050000 		.4byte	.LASF80
 969 0465 07       		.byte	0x7
 970 0466 A501     		.2byte	0x1a5
 971 0468 07050000 		.4byte	0x507
 972 046c A0       		.byte	0xa0
 973 046d 10       		.uleb128 0x10
 974 046e CA000000 		.4byte	.LASF81
 975 0472 07       		.byte	0x7
 976 0473 A601     		.2byte	0x1a6
 977 0475 1C050000 		.4byte	0x51c
 978 0479 0001     		.2byte	0x100
 979 047b 10       		.uleb128 0x10
 980 047c 6A030000 		.4byte	.LASF82
 981 0480 07       		.byte	0x7
 982 0481 A701     		.2byte	0x1a7
 983 0483 07050000 		.4byte	0x507
 984 0487 2001     		.2byte	0x120
 985 0489 10       		.uleb128 0x10
 986 048a 0F000000 		.4byte	.LASF83
 987 048e 07       		.byte	0x7
 988 048f A801     		.2byte	0x1a8
 989 0491 21050000 		.4byte	0x521
 990 0495 8001     		.2byte	0x180
 991 0497 10       		.uleb128 0x10
 992 0498 74030000 		.4byte	.LASF84
 993 049c 07       		.byte	0x7
 994 049d A901     		.2byte	0x1a9
 995 049f 07050000 		.4byte	0x507
 996 04a3 A001     		.2byte	0x1a0
 997 04a5 10       		.uleb128 0x10
 998 04a6 0B030000 		.4byte	.LASF85
 999 04aa 07       		.byte	0x7
 1000 04ab AA01     		.2byte	0x1aa
 1001 04ad 26050000 		.4byte	0x526
 1002 04b1 0002     		.2byte	0x200
 1003 04b3 10       		.uleb128 0x10
 1004 04b4 7E030000 		.4byte	.LASF86
 1005 04b8 07       		.byte	0x7
 1006 04b9 AB01     		.2byte	0x1ab
 1007 04bb 2B050000 		.4byte	0x52b
 1008 04bf 2002     		.2byte	0x220
 1009 04c1 11       		.uleb128 0x11
 1010 04c2 495000   		.ascii	"IP\000"
 1011 04c5 07       		.byte	0x7
 1012 04c6 AC01     		.2byte	0x1ac
 1013 04c8 4B050000 		.4byte	0x54b
 1014 04cc 0003     		.2byte	0x300
 1015 04ce 10       		.uleb128 0x10
 1016 04cf 6F040000 		.4byte	.LASF87
 1017 04d3 07       		.byte	0x7
 1018 04d4 AD01     		.2byte	0x1ad
 1019 04d6 50050000 		.4byte	0x550
 1020 04da F003     		.2byte	0x3f0
ARM GAS  /tmp/cc7TT2jv.s 			page 33


 1021 04dc 10       		.uleb128 0x10
 1022 04dd 68050000 		.4byte	.LASF88
 1023 04e1 07       		.byte	0x7
 1024 04e2 AE01     		.2byte	0x1ae
 1025 04e4 61050000 		.4byte	0x561
 1026 04e8 000E     		.2byte	0xe00
 1027 04ea 00       		.byte	0
 1028 04eb 12       		.uleb128 0x12
 1029 04ec AD000000 		.4byte	0xad
 1030 04f0 FB040000 		.4byte	0x4fb
 1031 04f4 13       		.uleb128 0x13
 1032 04f5 FB040000 		.4byte	0x4fb
 1033 04f9 07       		.byte	0x7
 1034 04fa 00       		.byte	0
 1035 04fb 03       		.uleb128 0x3
 1036 04fc 04       		.byte	0x4
 1037 04fd 07       		.byte	0x7
 1038 04fe D3020000 		.4byte	.LASF89
 1039 0502 14       		.uleb128 0x14
 1040 0503 EB040000 		.4byte	0x4eb
 1041 0507 12       		.uleb128 0x12
 1042 0508 AD000000 		.4byte	0xad
 1043 050c 17050000 		.4byte	0x517
 1044 0510 13       		.uleb128 0x13
 1045 0511 FB040000 		.4byte	0x4fb
 1046 0515 17       		.byte	0x17
 1047 0516 00       		.byte	0
 1048 0517 14       		.uleb128 0x14
 1049 0518 EB040000 		.4byte	0x4eb
 1050 051c 14       		.uleb128 0x14
 1051 051d EB040000 		.4byte	0x4eb
 1052 0521 14       		.uleb128 0x14
 1053 0522 EB040000 		.4byte	0x4eb
 1054 0526 14       		.uleb128 0x14
 1055 0527 EB040000 		.4byte	0x4eb
 1056 052b 12       		.uleb128 0x12
 1057 052c AD000000 		.4byte	0xad
 1058 0530 3B050000 		.4byte	0x53b
 1059 0534 13       		.uleb128 0x13
 1060 0535 FB040000 		.4byte	0x4fb
 1061 0539 37       		.byte	0x37
 1062 053a 00       		.byte	0
 1063 053b 12       		.uleb128 0x12
 1064 053c 97000000 		.4byte	0x97
 1065 0540 4B050000 		.4byte	0x54b
 1066 0544 13       		.uleb128 0x13
 1067 0545 FB040000 		.4byte	0x4fb
 1068 0549 EF       		.byte	0xef
 1069 054a 00       		.byte	0
 1070 054b 14       		.uleb128 0x14
 1071 054c 3B050000 		.4byte	0x53b
 1072 0550 12       		.uleb128 0x12
 1073 0551 AD000000 		.4byte	0xad
 1074 0555 61050000 		.4byte	0x561
 1075 0559 15       		.uleb128 0x15
 1076 055a FB040000 		.4byte	0x4fb
 1077 055e 8302     		.2byte	0x283
ARM GAS  /tmp/cc7TT2jv.s 			page 34


 1078 0560 00       		.byte	0
 1079 0561 14       		.uleb128 0x14
 1080 0562 AD000000 		.4byte	0xad
 1081 0566 16       		.uleb128 0x16
 1082 0567 F7030000 		.4byte	.LASF90
 1083 056b 07       		.byte	0x7
 1084 056c AF01     		.2byte	0x1af
 1085 056e 2F040000 		.4byte	0x42f
 1086 0572 17       		.uleb128 0x17
 1087 0573 8C       		.byte	0x8c
 1088 0574 07       		.byte	0x7
 1089 0575 C001     		.2byte	0x1c0
 1090 0577 8D060000 		.4byte	0x68d
 1091 057b 08       		.uleb128 0x8
 1092 057c B3000000 		.4byte	.LASF91
 1093 0580 07       		.byte	0x7
 1094 0581 C201     		.2byte	0x1c2
 1095 0583 8D060000 		.4byte	0x68d
 1096 0587 00       		.byte	0
 1097 0588 08       		.uleb128 0x8
 1098 0589 52020000 		.4byte	.LASF92
 1099 058d 07       		.byte	0x7
 1100 058e C301     		.2byte	0x1c3
 1101 0590 61050000 		.4byte	0x561
 1102 0594 04       		.byte	0x4
 1103 0595 08       		.uleb128 0x8
 1104 0596 10020000 		.4byte	.LASF93
 1105 059a 07       		.byte	0x7
 1106 059b C401     		.2byte	0x1c4
 1107 059d 61050000 		.4byte	0x561
 1108 05a1 08       		.byte	0x8
 1109 05a2 08       		.uleb128 0x8
 1110 05a3 5D020000 		.4byte	.LASF94
 1111 05a7 07       		.byte	0x7
 1112 05a8 C501     		.2byte	0x1c5
 1113 05aa 61050000 		.4byte	0x561
 1114 05ae 0C       		.byte	0xc
 1115 05af 07       		.uleb128 0x7
 1116 05b0 53435200 		.ascii	"SCR\000"
 1117 05b4 07       		.byte	0x7
 1118 05b5 C601     		.2byte	0x1c6
 1119 05b7 61050000 		.4byte	0x561
 1120 05bb 10       		.byte	0x10
 1121 05bc 07       		.uleb128 0x7
 1122 05bd 43435200 		.ascii	"CCR\000"
 1123 05c1 07       		.byte	0x7
 1124 05c2 C701     		.2byte	0x1c7
 1125 05c4 61050000 		.4byte	0x561
 1126 05c8 14       		.byte	0x14
 1127 05c9 07       		.uleb128 0x7
 1128 05ca 53485000 		.ascii	"SHP\000"
 1129 05ce 07       		.byte	0x7
 1130 05cf C801     		.2byte	0x1c8
 1131 05d1 A2060000 		.4byte	0x6a2
 1132 05d5 18       		.byte	0x18
 1133 05d6 08       		.uleb128 0x8
 1134 05d7 C3030000 		.4byte	.LASF95
ARM GAS  /tmp/cc7TT2jv.s 			page 35


 1135 05db 07       		.byte	0x7
 1136 05dc C901     		.2byte	0x1c9
 1137 05de 61050000 		.4byte	0x561
 1138 05e2 24       		.byte	0x24
 1139 05e3 08       		.uleb128 0x8
 1140 05e4 06030000 		.4byte	.LASF96
 1141 05e8 07       		.byte	0x7
 1142 05e9 CA01     		.2byte	0x1ca
 1143 05eb 61050000 		.4byte	0x561
 1144 05ef 28       		.byte	0x28
 1145 05f0 08       		.uleb128 0x8
 1146 05f1 69060000 		.4byte	.LASF97
 1147 05f5 07       		.byte	0x7
 1148 05f6 CB01     		.2byte	0x1cb
 1149 05f8 61050000 		.4byte	0x561
 1150 05fc 2C       		.byte	0x2c
 1151 05fd 08       		.uleb128 0x8
 1152 05fe 63020000 		.4byte	.LASF98
 1153 0602 07       		.byte	0x7
 1154 0603 CC01     		.2byte	0x1cc
 1155 0605 61050000 		.4byte	0x561
 1156 0609 30       		.byte	0x30
 1157 060a 08       		.uleb128 0x8
 1158 060b 68020000 		.4byte	.LASF99
 1159 060f 07       		.byte	0x7
 1160 0610 CD01     		.2byte	0x1cd
 1161 0612 61050000 		.4byte	0x561
 1162 0616 34       		.byte	0x34
 1163 0617 08       		.uleb128 0x8
 1164 0618 8E010000 		.4byte	.LASF100
 1165 061c 07       		.byte	0x7
 1166 061d CE01     		.2byte	0x1ce
 1167 061f 61050000 		.4byte	0x561
 1168 0623 38       		.byte	0x38
 1169 0624 08       		.uleb128 0x8
 1170 0625 93010000 		.4byte	.LASF101
 1171 0629 07       		.byte	0x7
 1172 062a CF01     		.2byte	0x1cf
 1173 062c 61050000 		.4byte	0x561
 1174 0630 3C       		.byte	0x3c
 1175 0631 07       		.uleb128 0x7
 1176 0632 50465200 		.ascii	"PFR\000"
 1177 0636 07       		.byte	0x7
 1178 0637 D001     		.2byte	0x1d0
 1179 0639 B7060000 		.4byte	0x6b7
 1180 063d 40       		.byte	0x40
 1181 063e 07       		.uleb128 0x7
 1182 063f 44465200 		.ascii	"DFR\000"
 1183 0643 07       		.byte	0x7
 1184 0644 D101     		.2byte	0x1d1
 1185 0646 8D060000 		.4byte	0x68d
 1186 064a 48       		.byte	0x48
 1187 064b 07       		.uleb128 0x7
 1188 064c 41445200 		.ascii	"ADR\000"
 1189 0650 07       		.byte	0x7
 1190 0651 D201     		.2byte	0x1d2
 1191 0653 8D060000 		.4byte	0x68d
ARM GAS  /tmp/cc7TT2jv.s 			page 36


 1192 0657 4C       		.byte	0x4c
 1193 0658 08       		.uleb128 0x8
 1194 0659 4C050000 		.4byte	.LASF102
 1195 065d 07       		.byte	0x7
 1196 065e D301     		.2byte	0x1d3
 1197 0660 D1060000 		.4byte	0x6d1
 1198 0664 50       		.byte	0x50
 1199 0665 08       		.uleb128 0x8
 1200 0666 E7000000 		.4byte	.LASF103
 1201 066a 07       		.byte	0x7
 1202 066b D401     		.2byte	0x1d4
 1203 066d EB060000 		.4byte	0x6eb
 1204 0671 60       		.byte	0x60
 1205 0672 08       		.uleb128 0x8
 1206 0673 60030000 		.4byte	.LASF78
 1207 0677 07       		.byte	0x7
 1208 0678 D501     		.2byte	0x1d5
 1209 067a DB060000 		.4byte	0x6db
 1210 067e 74       		.byte	0x74
 1211 067f 08       		.uleb128 0x8
 1212 0680 63060000 		.4byte	.LASF104
 1213 0684 07       		.byte	0x7
 1214 0685 D601     		.2byte	0x1d6
 1215 0687 61050000 		.4byte	0x561
 1216 068b 88       		.byte	0x88
 1217 068c 00       		.byte	0
 1218 068d 18       		.uleb128 0x18
 1219 068e 61050000 		.4byte	0x561
 1220 0692 12       		.uleb128 0x12
 1221 0693 97000000 		.4byte	0x97
 1222 0697 A2060000 		.4byte	0x6a2
 1223 069b 13       		.uleb128 0x13
 1224 069c FB040000 		.4byte	0x4fb
 1225 06a0 0B       		.byte	0xb
 1226 06a1 00       		.byte	0
 1227 06a2 14       		.uleb128 0x14
 1228 06a3 92060000 		.4byte	0x692
 1229 06a7 12       		.uleb128 0x12
 1230 06a8 AD000000 		.4byte	0xad
 1231 06ac B7060000 		.4byte	0x6b7
 1232 06b0 13       		.uleb128 0x13
 1233 06b1 FB040000 		.4byte	0x4fb
 1234 06b5 01       		.byte	0x1
 1235 06b6 00       		.byte	0
 1236 06b7 18       		.uleb128 0x18
 1237 06b8 BC060000 		.4byte	0x6bc
 1238 06bc 14       		.uleb128 0x14
 1239 06bd A7060000 		.4byte	0x6a7
 1240 06c1 12       		.uleb128 0x12
 1241 06c2 AD000000 		.4byte	0xad
 1242 06c6 D1060000 		.4byte	0x6d1
 1243 06ca 13       		.uleb128 0x13
 1244 06cb FB040000 		.4byte	0x4fb
 1245 06cf 03       		.byte	0x3
 1246 06d0 00       		.byte	0
 1247 06d1 18       		.uleb128 0x18
 1248 06d2 D6060000 		.4byte	0x6d6
ARM GAS  /tmp/cc7TT2jv.s 			page 37


 1249 06d6 14       		.uleb128 0x14
 1250 06d7 C1060000 		.4byte	0x6c1
 1251 06db 12       		.uleb128 0x12
 1252 06dc AD000000 		.4byte	0xad
 1253 06e0 EB060000 		.4byte	0x6eb
 1254 06e4 13       		.uleb128 0x13
 1255 06e5 FB040000 		.4byte	0x4fb
 1256 06e9 04       		.byte	0x4
 1257 06ea 00       		.byte	0
 1258 06eb 18       		.uleb128 0x18
 1259 06ec F0060000 		.4byte	0x6f0
 1260 06f0 14       		.uleb128 0x14
 1261 06f1 DB060000 		.4byte	0x6db
 1262 06f5 16       		.uleb128 0x16
 1263 06f6 B1010000 		.4byte	.LASF105
 1264 06fa 07       		.byte	0x7
 1265 06fb D701     		.2byte	0x1d7
 1266 06fd 72050000 		.4byte	0x572
 1267 0701 04       		.uleb128 0x4
 1268 0702 A0010000 		.4byte	.LASF106
 1269 0706 08       		.byte	0x8
 1270 0707 65       		.byte	0x65
 1271 0708 F9020000 		.4byte	0x2f9
 1272 070c 04       		.uleb128 0x4
 1273 070d A6020000 		.4byte	.LASF107
 1274 0711 08       		.byte	0x8
 1275 0712 6D       		.byte	0x6d
 1276 0713 B8000000 		.4byte	0xb8
 1277 0717 05       		.uleb128 0x5
 1278 0718 15050000 		.4byte	.LASF108
 1279 071c 04       		.byte	0x4
 1280 071d 08       		.byte	0x8
 1281 071e 89       		.byte	0x89
 1282 071f 30070000 		.4byte	0x730
 1283 0723 19       		.uleb128 0x19
 1284 0724 72313300 		.ascii	"r13\000"
 1285 0728 08       		.byte	0x8
 1286 0729 8A       		.byte	0x8a
 1287 072a AB070000 		.4byte	0x7ab
 1288 072e 00       		.byte	0
 1289 072f 00       		.byte	0
 1290 0730 05       		.uleb128 0x5
 1291 0731 41000000 		.4byte	.LASF109
 1292 0735 24       		.byte	0x24
 1293 0736 09       		.byte	0x9
 1294 0737 FD       		.byte	0xfd
 1295 0738 AB070000 		.4byte	0x7ab
 1296 073c 07       		.uleb128 0x7
 1297 073d 723400   		.ascii	"r4\000"
 1298 0740 09       		.byte	0x9
 1299 0741 1001     		.2byte	0x110
 1300 0743 01070000 		.4byte	0x701
 1301 0747 00       		.byte	0
 1302 0748 07       		.uleb128 0x7
 1303 0749 723500   		.ascii	"r5\000"
 1304 074c 09       		.byte	0x9
 1305 074d 1101     		.2byte	0x111
ARM GAS  /tmp/cc7TT2jv.s 			page 38


 1306 074f 01070000 		.4byte	0x701
 1307 0753 04       		.byte	0x4
 1308 0754 07       		.uleb128 0x7
 1309 0755 723600   		.ascii	"r6\000"
 1310 0758 09       		.byte	0x9
 1311 0759 1201     		.2byte	0x112
 1312 075b 01070000 		.4byte	0x701
 1313 075f 08       		.byte	0x8
 1314 0760 07       		.uleb128 0x7
 1315 0761 723700   		.ascii	"r7\000"
 1316 0764 09       		.byte	0x9
 1317 0765 1301     		.2byte	0x113
 1318 0767 01070000 		.4byte	0x701
 1319 076b 0C       		.byte	0xc
 1320 076c 07       		.uleb128 0x7
 1321 076d 723800   		.ascii	"r8\000"
 1322 0770 09       		.byte	0x9
 1323 0771 1401     		.2byte	0x114
 1324 0773 01070000 		.4byte	0x701
 1325 0777 10       		.byte	0x10
 1326 0778 07       		.uleb128 0x7
 1327 0779 723900   		.ascii	"r9\000"
 1328 077c 09       		.byte	0x9
 1329 077d 1501     		.2byte	0x115
 1330 077f 01070000 		.4byte	0x701
 1331 0783 14       		.byte	0x14
 1332 0784 07       		.uleb128 0x7
 1333 0785 72313000 		.ascii	"r10\000"
 1334 0789 09       		.byte	0x9
 1335 078a 1601     		.2byte	0x116
 1336 078c 01070000 		.4byte	0x701
 1337 0790 18       		.byte	0x18
 1338 0791 07       		.uleb128 0x7
 1339 0792 72313100 		.ascii	"r11\000"
 1340 0796 09       		.byte	0x9
 1341 0797 1701     		.2byte	0x117
 1342 0799 01070000 		.4byte	0x701
 1343 079d 1C       		.byte	0x1c
 1344 079e 07       		.uleb128 0x7
 1345 079f 6C7200   		.ascii	"lr\000"
 1346 07a2 09       		.byte	0x9
 1347 07a3 1801     		.2byte	0x118
 1348 07a5 01070000 		.4byte	0x701
 1349 07a9 20       		.byte	0x20
 1350 07aa 00       		.byte	0
 1351 07ab 09       		.uleb128 0x9
 1352 07ac 04       		.byte	0x4
 1353 07ad 30070000 		.4byte	0x730
 1354 07b1 1A       		.uleb128 0x1a
 1355 07b2 04       		.byte	0x4
 1356 07b3 0A       		.byte	0xa
 1357 07b4 38       		.byte	0x38
 1358 07b5 C6070000 		.4byte	0x7c6
 1359 07b9 06       		.uleb128 0x6
 1360 07ba 0E050000 		.4byte	.LASF110
 1361 07be 0A       		.byte	0xa
 1362 07bf 3C       		.byte	0x3c
ARM GAS  /tmp/cc7TT2jv.s 			page 39


 1363 07c0 C3000000 		.4byte	0xc3
 1364 07c4 00       		.byte	0
 1365 07c5 00       		.byte	0
 1366 07c6 04       		.uleb128 0x4
 1367 07c7 2A030000 		.4byte	.LASF111
 1368 07cb 0A       		.byte	0xa
 1369 07cc 3D       		.byte	0x3d
 1370 07cd B1070000 		.4byte	0x7b1
 1371 07d1 1B       		.uleb128 0x1b
 1372 07d2 04       		.byte	0x4
 1373 07d3 06       		.byte	0x6
 1374 07d4 FA       		.byte	0xfa
 1375 07d5 3A080000 		.4byte	0x83a
 1376 07d9 1C       		.uleb128 0x1c
 1377 07da 27000000 		.4byte	.LASF112
 1378 07de 06       		.byte	0x6
 1379 07df 0101     		.2byte	0x101
 1380 07e1 FA000000 		.4byte	0xfa
 1381 07e5 1C       		.uleb128 0x1c
 1382 07e6 81000000 		.4byte	.LASF113
 1383 07ea 06       		.byte	0x6
 1384 07eb 0801     		.2byte	0x108
 1385 07ed FA000000 		.4byte	0xfa
 1386 07f1 1C       		.uleb128 0x1c
 1387 07f2 4D060000 		.4byte	.LASF114
 1388 07f6 06       		.byte	0x6
 1389 07f7 0F01     		.2byte	0x10f
 1390 07f9 F9020000 		.4byte	0x2f9
 1391 07fd 1C       		.uleb128 0x1c
 1392 07fe 21000000 		.4byte	.LASF115
 1393 0802 06       		.byte	0x6
 1394 0803 1601     		.2byte	0x116
 1395 0805 3A080000 		.4byte	0x83a
 1396 0809 1C       		.uleb128 0x1c
 1397 080a 95000000 		.4byte	.LASF116
 1398 080e 06       		.byte	0x6
 1399 080f 1B01     		.2byte	0x11b
 1400 0811 FA000000 		.4byte	0xfa
 1401 0815 1C       		.uleb128 0x1c
 1402 0816 FE010000 		.4byte	.LASF117
 1403 081a 06       		.byte	0x6
 1404 081b 2401     		.2byte	0x124
 1405 081d 65080000 		.4byte	0x865
 1406 0821 1C       		.uleb128 0x1c
 1407 0822 82040000 		.4byte	.LASF118
 1408 0826 06       		.byte	0x6
 1409 0827 2D01     		.2byte	0x12d
 1410 0829 9C080000 		.4byte	0x89c
 1411 082d 1C       		.uleb128 0x1c
 1412 082e 25040000 		.4byte	.LASF119
 1413 0832 06       		.byte	0x6
 1414 0833 3501     		.2byte	0x135
 1415 0835 05010000 		.4byte	0x105
 1416 0839 00       		.byte	0
 1417 083a 09       		.uleb128 0x9
 1418 083b 04       		.byte	0x4
 1419 083c 11020000 		.4byte	0x211
ARM GAS  /tmp/cc7TT2jv.s 			page 40


 1420 0840 05       		.uleb128 0x5
 1421 0841 57040000 		.4byte	.LASF120
 1422 0845 0C       		.byte	0xc
 1423 0846 0B       		.byte	0xb
 1424 0847 34       		.byte	0x34
 1425 0848 65080000 		.4byte	0x865
 1426 084c 06       		.uleb128 0x6
 1427 084d 86010000 		.4byte	.LASF121
 1428 0851 0B       		.byte	0xb
 1429 0852 35       		.byte	0x35
 1430 0853 46020000 		.4byte	0x246
 1431 0857 00       		.byte	0
 1432 0858 06       		.uleb128 0x6
 1433 0859 15020000 		.4byte	.LASF122
 1434 085d 0B       		.byte	0xb
 1435 085e 37       		.byte	0x37
 1436 085f 10010000 		.4byte	0x110
 1437 0863 08       		.byte	0x8
 1438 0864 00       		.byte	0
 1439 0865 09       		.uleb128 0x9
 1440 0866 04       		.byte	0x4
 1441 0867 40080000 		.4byte	0x840
 1442 086b 05       		.uleb128 0x5
 1443 086c 3C050000 		.4byte	.LASF123
 1444 0870 10       		.byte	0x10
 1445 0871 0C       		.byte	0xc
 1446 0872 39       		.byte	0x39
 1447 0873 9C080000 		.4byte	0x89c
 1448 0877 06       		.uleb128 0x6
 1449 0878 0E010000 		.4byte	.LASF124
 1450 087c 0C       		.byte	0xc
 1451 087d 3A       		.byte	0x3a
 1452 087e 46020000 		.4byte	0x246
 1453 0882 00       		.byte	0
 1454 0883 06       		.uleb128 0x6
 1455 0884 6E060000 		.4byte	.LASF125
 1456 0888 0C       		.byte	0xc
 1457 0889 3C       		.byte	0x3c
 1458 088a 1C020000 		.4byte	0x21c
 1459 088e 08       		.byte	0x8
 1460 088f 06       		.uleb128 0x6
 1461 0890 D4040000 		.4byte	.LASF126
 1462 0894 0C       		.byte	0xc
 1463 0895 3E       		.byte	0x3e
 1464 0896 DA080000 		.4byte	0x8da
 1465 089a 0C       		.byte	0xc
 1466 089b 00       		.byte	0
 1467 089c 09       		.uleb128 0x9
 1468 089d 04       		.byte	0x4
 1469 089e 6B080000 		.4byte	0x86b
 1470 08a2 09       		.uleb128 0x9
 1471 08a3 04       		.byte	0x4
 1472 08a4 A8080000 		.4byte	0x8a8
 1473 08a8 18       		.uleb128 0x18
 1474 08a9 AD080000 		.4byte	0x8ad
 1475 08ad 03       		.uleb128 0x3
 1476 08ae 01       		.byte	0x1
ARM GAS  /tmp/cc7TT2jv.s 			page 41


 1477 08af 08       		.byte	0x8
 1478 08b0 C6040000 		.4byte	.LASF127
 1479 08b4 09       		.uleb128 0x9
 1480 08b5 04       		.byte	0x4
 1481 08b6 FB020000 		.4byte	0x2fb
 1482 08ba 14       		.uleb128 0x14
 1483 08bb A2080000 		.4byte	0x8a2
 1484 08bf 12       		.uleb128 0x12
 1485 08c0 0C070000 		.4byte	0x70c
 1486 08c4 CF080000 		.4byte	0x8cf
 1487 08c8 13       		.uleb128 0x13
 1488 08c9 FB040000 		.4byte	0x4fb
 1489 08cd 1A       		.byte	0x1a
 1490 08ce 00       		.byte	0
 1491 08cf 04       		.uleb128 0x4
 1492 08d0 BA010000 		.4byte	.LASF128
 1493 08d4 0C       		.byte	0xc
 1494 08d5 34       		.byte	0x34
 1495 08d6 6B080000 		.4byte	0x86b
 1496 08da 09       		.uleb128 0x9
 1497 08db 04       		.byte	0x4
 1498 08dc CF080000 		.4byte	0x8cf
 1499 08e0 03       		.uleb128 0x3
 1500 08e1 01       		.byte	0x1
 1501 08e2 02       		.byte	0x2
 1502 08e3 A7030000 		.4byte	.LASF129
 1503 08e7 1D       		.uleb128 0x1d
 1504 08e8 D6000000 		.4byte	.LASF131
 1505 08ec 01       		.byte	0x1
 1506 08ed 39       		.byte	0x39
 1507 08ee 00000000 		.4byte	.LFB272
 1508 08f2 34000000 		.4byte	.LFE272-.LFB272
 1509 08f6 01       		.uleb128 0x1
 1510 08f7 9C       		.byte	0x9c
 1511 08f8 19090000 		.4byte	0x919
 1512 08fc 1E       		.uleb128 0x1e
 1513 08fd 6E00     		.ascii	"n\000"
 1514 08ff 01       		.byte	0x1
 1515 0900 39       		.byte	0x39
 1516 0901 AD000000 		.4byte	0xad
 1517 0905 00000000 		.4byte	.LLST0
 1518 0909 1F       		.uleb128 0x1f
 1519 090a 40030000 		.4byte	.LASF130
 1520 090e 01       		.byte	0x1
 1521 090f 39       		.byte	0x39
 1522 0910 AD000000 		.4byte	0xad
 1523 0914 24000000 		.4byte	.LLST1
 1524 0918 00       		.byte	0
 1525 0919 1D       		.uleb128 0x1d
 1526 091a EC010000 		.4byte	.LASF132
 1527 091e 01       		.byte	0x1
 1528 091f 4A       		.byte	0x4a
 1529 0920 00000000 		.4byte	.LFB273
 1530 0924 28000000 		.4byte	.LFE273-.LFB273
 1531 0928 01       		.uleb128 0x1
 1532 0929 9C       		.byte	0x9c
 1533 092a 3C090000 		.4byte	0x93c
ARM GAS  /tmp/cc7TT2jv.s 			page 42


 1534 092e 1E       		.uleb128 0x1e
 1535 092f 6E00     		.ascii	"n\000"
 1536 0931 01       		.byte	0x1
 1537 0932 4A       		.byte	0x4a
 1538 0933 AD000000 		.4byte	0xad
 1539 0937 45000000 		.4byte	.LLST2
 1540 093b 00       		.byte	0
 1541 093c 1D       		.uleb128 0x1d
 1542 093d 01040000 		.4byte	.LASF133
 1543 0941 01       		.byte	0x1
 1544 0942 5A       		.byte	0x5a
 1545 0943 00000000 		.4byte	.LFB274
 1546 0947 10000000 		.4byte	.LFE274-.LFB274
 1547 094b 01       		.uleb128 0x1
 1548 094c 9C       		.byte	0x9c
 1549 094d 79090000 		.4byte	0x979
 1550 0951 1F       		.uleb128 0x1f
 1551 0952 B1020000 		.4byte	.LASF134
 1552 0956 01       		.byte	0x1
 1553 0957 5A       		.byte	0x5a
 1554 0958 AD000000 		.4byte	0xad
 1555 095c 69000000 		.4byte	.LLST3
 1556 0960 1F       		.uleb128 0x1f
 1557 0961 40030000 		.4byte	.LASF130
 1558 0965 01       		.byte	0x1
 1559 0966 5A       		.byte	0x5a
 1560 0967 AD000000 		.4byte	0xad
 1561 096b 9E000000 		.4byte	.LLST4
 1562 096f 20       		.uleb128 0x20
 1563 0970 5C000000 		.4byte	.LASF140
 1564 0974 89090000 		.4byte	0x989
 1565 0978 00       		.byte	0
 1566 0979 12       		.uleb128 0x12
 1567 097a AD080000 		.4byte	0x8ad
 1568 097e 89090000 		.4byte	0x989
 1569 0982 13       		.uleb128 0x13
 1570 0983 FB040000 		.4byte	0x4fb
 1571 0987 1C       		.byte	0x1c
 1572 0988 00       		.byte	0
 1573 0989 18       		.uleb128 0x18
 1574 098a 79090000 		.4byte	0x979
 1575 098e 1D       		.uleb128 0x1d
 1576 098f 16010000 		.4byte	.LASF135
 1577 0993 01       		.byte	0x1
 1578 0994 6D       		.byte	0x6d
 1579 0995 00000000 		.4byte	.LFB275
 1580 0999 1C000000 		.4byte	.LFE275-.LFB275
 1581 099d 01       		.uleb128 0x1
 1582 099e 9C       		.byte	0x9c
 1583 099f B1090000 		.4byte	0x9b1
 1584 09a3 1E       		.uleb128 0x1e
 1585 09a4 6E00     		.ascii	"n\000"
 1586 09a6 01       		.byte	0x1
 1587 09a7 6D       		.byte	0x6d
 1588 09a8 AD000000 		.4byte	0xad
 1589 09ac BF000000 		.4byte	.LLST5
 1590 09b0 00       		.byte	0
ARM GAS  /tmp/cc7TT2jv.s 			page 43


 1591 09b1 21       		.uleb128 0x21
 1592 09b2 C9030000 		.4byte	.LASF136
 1593 09b6 07       		.byte	0x7
 1594 09b7 FA06     		.2byte	0x6fa
 1595 09b9 BD090000 		.4byte	0x9bd
 1596 09bd 14       		.uleb128 0x14
 1597 09be A2000000 		.4byte	0xa2
 1598 09c2 22       		.uleb128 0x22
 1599 09c3 636800   		.ascii	"ch\000"
 1600 09c6 06       		.byte	0x6
 1601 09c7 0B02     		.2byte	0x20b
 1602 09c9 C8030000 		.4byte	0x3c8
 1603 09cd 00       		.byte	0
 1604              		.section	.debug_abbrev,"",%progbits
 1605              	.Ldebug_abbrev0:
 1606 0000 01       		.uleb128 0x1
 1607 0001 11       		.uleb128 0x11
 1608 0002 01       		.byte	0x1
 1609 0003 25       		.uleb128 0x25
 1610 0004 0E       		.uleb128 0xe
 1611 0005 13       		.uleb128 0x13
 1612 0006 0B       		.uleb128 0xb
 1613 0007 03       		.uleb128 0x3
 1614 0008 0E       		.uleb128 0xe
 1615 0009 1B       		.uleb128 0x1b
 1616 000a 0E       		.uleb128 0xe
 1617 000b 55       		.uleb128 0x55
 1618 000c 17       		.uleb128 0x17
 1619 000d 11       		.uleb128 0x11
 1620 000e 01       		.uleb128 0x1
 1621 000f 10       		.uleb128 0x10
 1622 0010 17       		.uleb128 0x17
 1623 0011 00       		.byte	0
 1624 0012 00       		.byte	0
 1625 0013 02       		.uleb128 0x2
 1626 0014 24       		.uleb128 0x24
 1627 0015 00       		.byte	0
 1628 0016 0B       		.uleb128 0xb
 1629 0017 0B       		.uleb128 0xb
 1630 0018 3E       		.uleb128 0x3e
 1631 0019 0B       		.uleb128 0xb
 1632 001a 03       		.uleb128 0x3
 1633 001b 08       		.uleb128 0x8
 1634 001c 00       		.byte	0
 1635 001d 00       		.byte	0
 1636 001e 03       		.uleb128 0x3
 1637 001f 24       		.uleb128 0x24
 1638 0020 00       		.byte	0
 1639 0021 0B       		.uleb128 0xb
 1640 0022 0B       		.uleb128 0xb
 1641 0023 3E       		.uleb128 0x3e
 1642 0024 0B       		.uleb128 0xb
 1643 0025 03       		.uleb128 0x3
 1644 0026 0E       		.uleb128 0xe
 1645 0027 00       		.byte	0
 1646 0028 00       		.byte	0
 1647 0029 04       		.uleb128 0x4
ARM GAS  /tmp/cc7TT2jv.s 			page 44


 1648 002a 16       		.uleb128 0x16
 1649 002b 00       		.byte	0
 1650 002c 03       		.uleb128 0x3
 1651 002d 0E       		.uleb128 0xe
 1652 002e 3A       		.uleb128 0x3a
 1653 002f 0B       		.uleb128 0xb
 1654 0030 3B       		.uleb128 0x3b
 1655 0031 0B       		.uleb128 0xb
 1656 0032 49       		.uleb128 0x49
 1657 0033 13       		.uleb128 0x13
 1658 0034 00       		.byte	0
 1659 0035 00       		.byte	0
 1660 0036 05       		.uleb128 0x5
 1661 0037 13       		.uleb128 0x13
 1662 0038 01       		.byte	0x1
 1663 0039 03       		.uleb128 0x3
 1664 003a 0E       		.uleb128 0xe
 1665 003b 0B       		.uleb128 0xb
 1666 003c 0B       		.uleb128 0xb
 1667 003d 3A       		.uleb128 0x3a
 1668 003e 0B       		.uleb128 0xb
 1669 003f 3B       		.uleb128 0x3b
 1670 0040 0B       		.uleb128 0xb
 1671 0041 01       		.uleb128 0x1
 1672 0042 13       		.uleb128 0x13
 1673 0043 00       		.byte	0
 1674 0044 00       		.byte	0
 1675 0045 06       		.uleb128 0x6
 1676 0046 0D       		.uleb128 0xd
 1677 0047 00       		.byte	0
 1678 0048 03       		.uleb128 0x3
 1679 0049 0E       		.uleb128 0xe
 1680 004a 3A       		.uleb128 0x3a
 1681 004b 0B       		.uleb128 0xb
 1682 004c 3B       		.uleb128 0x3b
 1683 004d 0B       		.uleb128 0xb
 1684 004e 49       		.uleb128 0x49
 1685 004f 13       		.uleb128 0x13
 1686 0050 38       		.uleb128 0x38
 1687 0051 0B       		.uleb128 0xb
 1688 0052 00       		.byte	0
 1689 0053 00       		.byte	0
 1690 0054 07       		.uleb128 0x7
 1691 0055 0D       		.uleb128 0xd
 1692 0056 00       		.byte	0
 1693 0057 03       		.uleb128 0x3
 1694 0058 08       		.uleb128 0x8
 1695 0059 3A       		.uleb128 0x3a
 1696 005a 0B       		.uleb128 0xb
 1697 005b 3B       		.uleb128 0x3b
 1698 005c 05       		.uleb128 0x5
 1699 005d 49       		.uleb128 0x49
 1700 005e 13       		.uleb128 0x13
 1701 005f 38       		.uleb128 0x38
 1702 0060 0B       		.uleb128 0xb
 1703 0061 00       		.byte	0
 1704 0062 00       		.byte	0
ARM GAS  /tmp/cc7TT2jv.s 			page 45


 1705 0063 08       		.uleb128 0x8
 1706 0064 0D       		.uleb128 0xd
 1707 0065 00       		.byte	0
 1708 0066 03       		.uleb128 0x3
 1709 0067 0E       		.uleb128 0xe
 1710 0068 3A       		.uleb128 0x3a
 1711 0069 0B       		.uleb128 0xb
 1712 006a 3B       		.uleb128 0x3b
 1713 006b 05       		.uleb128 0x5
 1714 006c 49       		.uleb128 0x49
 1715 006d 13       		.uleb128 0x13
 1716 006e 38       		.uleb128 0x38
 1717 006f 0B       		.uleb128 0xb
 1718 0070 00       		.byte	0
 1719 0071 00       		.byte	0
 1720 0072 09       		.uleb128 0x9
 1721 0073 0F       		.uleb128 0xf
 1722 0074 00       		.byte	0
 1723 0075 0B       		.uleb128 0xb
 1724 0076 0B       		.uleb128 0xb
 1725 0077 49       		.uleb128 0x49
 1726 0078 13       		.uleb128 0x13
 1727 0079 00       		.byte	0
 1728 007a 00       		.byte	0
 1729 007b 0A       		.uleb128 0xa
 1730 007c 13       		.uleb128 0x13
 1731 007d 01       		.byte	0x1
 1732 007e 03       		.uleb128 0x3
 1733 007f 0E       		.uleb128 0xe
 1734 0080 0B       		.uleb128 0xb
 1735 0081 0B       		.uleb128 0xb
 1736 0082 3A       		.uleb128 0x3a
 1737 0083 0B       		.uleb128 0xb
 1738 0084 3B       		.uleb128 0x3b
 1739 0085 05       		.uleb128 0x5
 1740 0086 01       		.uleb128 0x1
 1741 0087 13       		.uleb128 0x13
 1742 0088 00       		.byte	0
 1743 0089 00       		.byte	0
 1744 008a 0B       		.uleb128 0xb
 1745 008b 15       		.uleb128 0x15
 1746 008c 01       		.byte	0x1
 1747 008d 27       		.uleb128 0x27
 1748 008e 19       		.uleb128 0x19
 1749 008f 01       		.uleb128 0x1
 1750 0090 13       		.uleb128 0x13
 1751 0091 00       		.byte	0
 1752 0092 00       		.byte	0
 1753 0093 0C       		.uleb128 0xc
 1754 0094 05       		.uleb128 0x5
 1755 0095 00       		.byte	0
 1756 0096 49       		.uleb128 0x49
 1757 0097 13       		.uleb128 0x13
 1758 0098 00       		.byte	0
 1759 0099 00       		.byte	0
 1760 009a 0D       		.uleb128 0xd
 1761 009b 0F       		.uleb128 0xf
ARM GAS  /tmp/cc7TT2jv.s 			page 46


 1762 009c 00       		.byte	0
 1763 009d 0B       		.uleb128 0xb
 1764 009e 0B       		.uleb128 0xb
 1765 009f 00       		.byte	0
 1766 00a0 00       		.byte	0
 1767 00a1 0E       		.uleb128 0xe
 1768 00a2 13       		.uleb128 0x13
 1769 00a3 01       		.byte	0x1
 1770 00a4 03       		.uleb128 0x3
 1771 00a5 0E       		.uleb128 0xe
 1772 00a6 0B       		.uleb128 0xb
 1773 00a7 05       		.uleb128 0x5
 1774 00a8 3A       		.uleb128 0x3a
 1775 00a9 0B       		.uleb128 0xb
 1776 00aa 3B       		.uleb128 0x3b
 1777 00ab 05       		.uleb128 0x5
 1778 00ac 01       		.uleb128 0x1
 1779 00ad 13       		.uleb128 0x13
 1780 00ae 00       		.byte	0
 1781 00af 00       		.byte	0
 1782 00b0 0F       		.uleb128 0xf
 1783 00b1 13       		.uleb128 0x13
 1784 00b2 01       		.byte	0x1
 1785 00b3 0B       		.uleb128 0xb
 1786 00b4 05       		.uleb128 0x5
 1787 00b5 3A       		.uleb128 0x3a
 1788 00b6 0B       		.uleb128 0xb
 1789 00b7 3B       		.uleb128 0x3b
 1790 00b8 05       		.uleb128 0x5
 1791 00b9 01       		.uleb128 0x1
 1792 00ba 13       		.uleb128 0x13
 1793 00bb 00       		.byte	0
 1794 00bc 00       		.byte	0
 1795 00bd 10       		.uleb128 0x10
 1796 00be 0D       		.uleb128 0xd
 1797 00bf 00       		.byte	0
 1798 00c0 03       		.uleb128 0x3
 1799 00c1 0E       		.uleb128 0xe
 1800 00c2 3A       		.uleb128 0x3a
 1801 00c3 0B       		.uleb128 0xb
 1802 00c4 3B       		.uleb128 0x3b
 1803 00c5 05       		.uleb128 0x5
 1804 00c6 49       		.uleb128 0x49
 1805 00c7 13       		.uleb128 0x13
 1806 00c8 38       		.uleb128 0x38
 1807 00c9 05       		.uleb128 0x5
 1808 00ca 00       		.byte	0
 1809 00cb 00       		.byte	0
 1810 00cc 11       		.uleb128 0x11
 1811 00cd 0D       		.uleb128 0xd
 1812 00ce 00       		.byte	0
 1813 00cf 03       		.uleb128 0x3
 1814 00d0 08       		.uleb128 0x8
 1815 00d1 3A       		.uleb128 0x3a
 1816 00d2 0B       		.uleb128 0xb
 1817 00d3 3B       		.uleb128 0x3b
 1818 00d4 05       		.uleb128 0x5
ARM GAS  /tmp/cc7TT2jv.s 			page 47


 1819 00d5 49       		.uleb128 0x49
 1820 00d6 13       		.uleb128 0x13
 1821 00d7 38       		.uleb128 0x38
 1822 00d8 05       		.uleb128 0x5
 1823 00d9 00       		.byte	0
 1824 00da 00       		.byte	0
 1825 00db 12       		.uleb128 0x12
 1826 00dc 01       		.uleb128 0x1
 1827 00dd 01       		.byte	0x1
 1828 00de 49       		.uleb128 0x49
 1829 00df 13       		.uleb128 0x13
 1830 00e0 01       		.uleb128 0x1
 1831 00e1 13       		.uleb128 0x13
 1832 00e2 00       		.byte	0
 1833 00e3 00       		.byte	0
 1834 00e4 13       		.uleb128 0x13
 1835 00e5 21       		.uleb128 0x21
 1836 00e6 00       		.byte	0
 1837 00e7 49       		.uleb128 0x49
 1838 00e8 13       		.uleb128 0x13
 1839 00e9 2F       		.uleb128 0x2f
 1840 00ea 0B       		.uleb128 0xb
 1841 00eb 00       		.byte	0
 1842 00ec 00       		.byte	0
 1843 00ed 14       		.uleb128 0x14
 1844 00ee 35       		.uleb128 0x35
 1845 00ef 00       		.byte	0
 1846 00f0 49       		.uleb128 0x49
 1847 00f1 13       		.uleb128 0x13
 1848 00f2 00       		.byte	0
 1849 00f3 00       		.byte	0
 1850 00f4 15       		.uleb128 0x15
 1851 00f5 21       		.uleb128 0x21
 1852 00f6 00       		.byte	0
 1853 00f7 49       		.uleb128 0x49
 1854 00f8 13       		.uleb128 0x13
 1855 00f9 2F       		.uleb128 0x2f
 1856 00fa 05       		.uleb128 0x5
 1857 00fb 00       		.byte	0
 1858 00fc 00       		.byte	0
 1859 00fd 16       		.uleb128 0x16
 1860 00fe 16       		.uleb128 0x16
 1861 00ff 00       		.byte	0
 1862 0100 03       		.uleb128 0x3
 1863 0101 0E       		.uleb128 0xe
 1864 0102 3A       		.uleb128 0x3a
 1865 0103 0B       		.uleb128 0xb
 1866 0104 3B       		.uleb128 0x3b
 1867 0105 05       		.uleb128 0x5
 1868 0106 49       		.uleb128 0x49
 1869 0107 13       		.uleb128 0x13
 1870 0108 00       		.byte	0
 1871 0109 00       		.byte	0
 1872 010a 17       		.uleb128 0x17
 1873 010b 13       		.uleb128 0x13
 1874 010c 01       		.byte	0x1
 1875 010d 0B       		.uleb128 0xb
ARM GAS  /tmp/cc7TT2jv.s 			page 48


 1876 010e 0B       		.uleb128 0xb
 1877 010f 3A       		.uleb128 0x3a
 1878 0110 0B       		.uleb128 0xb
 1879 0111 3B       		.uleb128 0x3b
 1880 0112 05       		.uleb128 0x5
 1881 0113 01       		.uleb128 0x1
 1882 0114 13       		.uleb128 0x13
 1883 0115 00       		.byte	0
 1884 0116 00       		.byte	0
 1885 0117 18       		.uleb128 0x18
 1886 0118 26       		.uleb128 0x26
 1887 0119 00       		.byte	0
 1888 011a 49       		.uleb128 0x49
 1889 011b 13       		.uleb128 0x13
 1890 011c 00       		.byte	0
 1891 011d 00       		.byte	0
 1892 011e 19       		.uleb128 0x19
 1893 011f 0D       		.uleb128 0xd
 1894 0120 00       		.byte	0
 1895 0121 03       		.uleb128 0x3
 1896 0122 08       		.uleb128 0x8
 1897 0123 3A       		.uleb128 0x3a
 1898 0124 0B       		.uleb128 0xb
 1899 0125 3B       		.uleb128 0x3b
 1900 0126 0B       		.uleb128 0xb
 1901 0127 49       		.uleb128 0x49
 1902 0128 13       		.uleb128 0x13
 1903 0129 38       		.uleb128 0x38
 1904 012a 0B       		.uleb128 0xb
 1905 012b 00       		.byte	0
 1906 012c 00       		.byte	0
 1907 012d 1A       		.uleb128 0x1a
 1908 012e 13       		.uleb128 0x13
 1909 012f 01       		.byte	0x1
 1910 0130 0B       		.uleb128 0xb
 1911 0131 0B       		.uleb128 0xb
 1912 0132 3A       		.uleb128 0x3a
 1913 0133 0B       		.uleb128 0xb
 1914 0134 3B       		.uleb128 0x3b
 1915 0135 0B       		.uleb128 0xb
 1916 0136 01       		.uleb128 0x1
 1917 0137 13       		.uleb128 0x13
 1918 0138 00       		.byte	0
 1919 0139 00       		.byte	0
 1920 013a 1B       		.uleb128 0x1b
 1921 013b 17       		.uleb128 0x17
 1922 013c 01       		.byte	0x1
 1923 013d 0B       		.uleb128 0xb
 1924 013e 0B       		.uleb128 0xb
 1925 013f 3A       		.uleb128 0x3a
 1926 0140 0B       		.uleb128 0xb
 1927 0141 3B       		.uleb128 0x3b
 1928 0142 0B       		.uleb128 0xb
 1929 0143 01       		.uleb128 0x1
 1930 0144 13       		.uleb128 0x13
 1931 0145 00       		.byte	0
 1932 0146 00       		.byte	0
ARM GAS  /tmp/cc7TT2jv.s 			page 49


 1933 0147 1C       		.uleb128 0x1c
 1934 0148 0D       		.uleb128 0xd
 1935 0149 00       		.byte	0
 1936 014a 03       		.uleb128 0x3
 1937 014b 0E       		.uleb128 0xe
 1938 014c 3A       		.uleb128 0x3a
 1939 014d 0B       		.uleb128 0xb
 1940 014e 3B       		.uleb128 0x3b
 1941 014f 05       		.uleb128 0x5
 1942 0150 49       		.uleb128 0x49
 1943 0151 13       		.uleb128 0x13
 1944 0152 00       		.byte	0
 1945 0153 00       		.byte	0
 1946 0154 1D       		.uleb128 0x1d
 1947 0155 2E       		.uleb128 0x2e
 1948 0156 01       		.byte	0x1
 1949 0157 3F       		.uleb128 0x3f
 1950 0158 19       		.uleb128 0x19
 1951 0159 03       		.uleb128 0x3
 1952 015a 0E       		.uleb128 0xe
 1953 015b 3A       		.uleb128 0x3a
 1954 015c 0B       		.uleb128 0xb
 1955 015d 3B       		.uleb128 0x3b
 1956 015e 0B       		.uleb128 0xb
 1957 015f 27       		.uleb128 0x27
 1958 0160 19       		.uleb128 0x19
 1959 0161 11       		.uleb128 0x11
 1960 0162 01       		.uleb128 0x1
 1961 0163 12       		.uleb128 0x12
 1962 0164 06       		.uleb128 0x6
 1963 0165 40       		.uleb128 0x40
 1964 0166 18       		.uleb128 0x18
 1965 0167 9742     		.uleb128 0x2117
 1966 0169 19       		.uleb128 0x19
 1967 016a 01       		.uleb128 0x1
 1968 016b 13       		.uleb128 0x13
 1969 016c 00       		.byte	0
 1970 016d 00       		.byte	0
 1971 016e 1E       		.uleb128 0x1e
 1972 016f 05       		.uleb128 0x5
 1973 0170 00       		.byte	0
 1974 0171 03       		.uleb128 0x3
 1975 0172 08       		.uleb128 0x8
 1976 0173 3A       		.uleb128 0x3a
 1977 0174 0B       		.uleb128 0xb
 1978 0175 3B       		.uleb128 0x3b
 1979 0176 0B       		.uleb128 0xb
 1980 0177 49       		.uleb128 0x49
 1981 0178 13       		.uleb128 0x13
 1982 0179 02       		.uleb128 0x2
 1983 017a 17       		.uleb128 0x17
 1984 017b 00       		.byte	0
 1985 017c 00       		.byte	0
 1986 017d 1F       		.uleb128 0x1f
 1987 017e 05       		.uleb128 0x5
 1988 017f 00       		.byte	0
 1989 0180 03       		.uleb128 0x3
ARM GAS  /tmp/cc7TT2jv.s 			page 50


 1990 0181 0E       		.uleb128 0xe
 1991 0182 3A       		.uleb128 0x3a
 1992 0183 0B       		.uleb128 0xb
 1993 0184 3B       		.uleb128 0x3b
 1994 0185 0B       		.uleb128 0xb
 1995 0186 49       		.uleb128 0x49
 1996 0187 13       		.uleb128 0x13
 1997 0188 02       		.uleb128 0x2
 1998 0189 17       		.uleb128 0x17
 1999 018a 00       		.byte	0
 2000 018b 00       		.byte	0
 2001 018c 20       		.uleb128 0x20
 2002 018d 34       		.uleb128 0x34
 2003 018e 00       		.byte	0
 2004 018f 03       		.uleb128 0x3
 2005 0190 0E       		.uleb128 0xe
 2006 0191 49       		.uleb128 0x49
 2007 0192 13       		.uleb128 0x13
 2008 0193 34       		.uleb128 0x34
 2009 0194 19       		.uleb128 0x19
 2010 0195 00       		.byte	0
 2011 0196 00       		.byte	0
 2012 0197 21       		.uleb128 0x21
 2013 0198 34       		.uleb128 0x34
 2014 0199 00       		.byte	0
 2015 019a 03       		.uleb128 0x3
 2016 019b 0E       		.uleb128 0xe
 2017 019c 3A       		.uleb128 0x3a
 2018 019d 0B       		.uleb128 0xb
 2019 019e 3B       		.uleb128 0x3b
 2020 019f 05       		.uleb128 0x5
 2021 01a0 49       		.uleb128 0x49
 2022 01a1 13       		.uleb128 0x13
 2023 01a2 3F       		.uleb128 0x3f
 2024 01a3 19       		.uleb128 0x19
 2025 01a4 3C       		.uleb128 0x3c
 2026 01a5 19       		.uleb128 0x19
 2027 01a6 00       		.byte	0
 2028 01a7 00       		.byte	0
 2029 01a8 22       		.uleb128 0x22
 2030 01a9 34       		.uleb128 0x34
 2031 01aa 00       		.byte	0
 2032 01ab 03       		.uleb128 0x3
 2033 01ac 08       		.uleb128 0x8
 2034 01ad 3A       		.uleb128 0x3a
 2035 01ae 0B       		.uleb128 0xb
 2036 01af 3B       		.uleb128 0x3b
 2037 01b0 05       		.uleb128 0x5
 2038 01b1 49       		.uleb128 0x49
 2039 01b2 13       		.uleb128 0x13
 2040 01b3 3F       		.uleb128 0x3f
 2041 01b4 19       		.uleb128 0x19
 2042 01b5 3C       		.uleb128 0x3c
 2043 01b6 19       		.uleb128 0x19
 2044 01b7 00       		.byte	0
 2045 01b8 00       		.byte	0
 2046 01b9 00       		.byte	0
ARM GAS  /tmp/cc7TT2jv.s 			page 51


 2047              		.section	.debug_loc,"",%progbits
 2048              	.Ldebug_loc0:
 2049              	.LLST0:
 2050 0000 00000000 		.4byte	.LVL0
 2051 0004 1E000000 		.4byte	.LVL2
 2052 0008 0100     		.2byte	0x1
 2053 000a 50       		.byte	0x50
 2054 000b 1E000000 		.4byte	.LVL2
 2055 000f 34000000 		.4byte	.LFE272
 2056 0013 0700     		.2byte	0x7
 2057 0015 72       		.byte	0x72
 2058 0016 80BEFCFF 		.sleb128 536813312
 2058      01
 2059 001b 9F       		.byte	0x9f
 2060 001c 00000000 		.4byte	0
 2061 0020 00000000 		.4byte	0
 2062              	.LLST1:
 2063 0024 00000000 		.4byte	.LVL0
 2064 0028 16000000 		.4byte	.LVL1
 2065 002c 0100     		.2byte	0x1
 2066 002e 51       		.byte	0x51
 2067 002f 16000000 		.4byte	.LVL1
 2068 0033 34000000 		.4byte	.LFE272
 2069 0037 0400     		.2byte	0x4
 2070 0039 F3       		.byte	0xf3
 2071 003a 01       		.uleb128 0x1
 2072 003b 51       		.byte	0x51
 2073 003c 9F       		.byte	0x9f
 2074 003d 00000000 		.4byte	0
 2075 0041 00000000 		.4byte	0
 2076              	.LLST2:
 2077 0045 00000000 		.4byte	.LVL3
 2078 0049 10000000 		.4byte	.LVL4
 2079 004d 0100     		.2byte	0x1
 2080 004f 50       		.byte	0x50
 2081 0050 10000000 		.4byte	.LVL4
 2082 0054 28000000 		.4byte	.LFE273
 2083 0058 0700     		.2byte	0x7
 2084 005a 70       		.byte	0x70
 2085 005b 80BEFCFF 		.sleb128 536813312
 2085      01
 2086 0060 9F       		.byte	0x9f
 2087 0061 00000000 		.4byte	0
 2088 0065 00000000 		.4byte	0
 2089              	.LLST3:
 2090 0069 00000000 		.4byte	.LVL5
 2091 006d 04000000 		.4byte	.LVL6
 2092 0071 0100     		.2byte	0x1
 2093 0073 50       		.byte	0x50
 2094 0074 04000000 		.4byte	.LVL6
 2095 0078 08000000 		.4byte	.LVL7
 2096 007c 0700     		.2byte	0x7
 2097 007e 70       		.byte	0x70
 2098 007f 80808080 		.sleb128 536870912
 2098      02
 2099 0084 9F       		.byte	0x9f
 2100 0085 08000000 		.4byte	.LVL7
ARM GAS  /tmp/cc7TT2jv.s 			page 52


 2101 0089 10000000 		.4byte	.LFE274
 2102 008d 0700     		.2byte	0x7
 2103 008f 70       		.byte	0x70
 2104 0090 80A6FCFF 		.sleb128 536810240
 2104      01
 2105 0095 9F       		.byte	0x9f
 2106 0096 00000000 		.4byte	0
 2107 009a 00000000 		.4byte	0
 2108              	.LLST4:
 2109 009e 00000000 		.4byte	.LVL5
 2110 00a2 0A000000 		.4byte	.LVL8
 2111 00a6 0100     		.2byte	0x1
 2112 00a8 51       		.byte	0x51
 2113 00a9 0A000000 		.4byte	.LVL8
 2114 00ad 10000000 		.4byte	.LFE274
 2115 00b1 0400     		.2byte	0x4
 2116 00b3 F3       		.byte	0xf3
 2117 00b4 01       		.uleb128 0x1
 2118 00b5 51       		.byte	0x51
 2119 00b6 9F       		.byte	0x9f
 2120 00b7 00000000 		.4byte	0
 2121 00bb 00000000 		.4byte	0
 2122              	.LLST5:
 2123 00bf 00000000 		.4byte	.LVL9
 2124 00c3 08000000 		.4byte	.LVL10
 2125 00c7 0100     		.2byte	0x1
 2126 00c9 50       		.byte	0x50
 2127 00ca 08000000 		.4byte	.LVL10
 2128 00ce 1C000000 		.4byte	.LFE275
 2129 00d2 0400     		.2byte	0x4
 2130 00d4 F3       		.byte	0xf3
 2131 00d5 01       		.uleb128 0x1
 2132 00d6 50       		.byte	0x50
 2133 00d7 9F       		.byte	0x9f
 2134 00d8 00000000 		.4byte	0
 2135 00dc 00000000 		.4byte	0
 2136              		.section	.debug_aranges,"",%progbits
 2137 0000 34000000 		.4byte	0x34
 2138 0004 0200     		.2byte	0x2
 2139 0006 00000000 		.4byte	.Ldebug_info0
 2140 000a 04       		.byte	0x4
 2141 000b 00       		.byte	0
 2142 000c 0000     		.2byte	0
 2143 000e 0000     		.2byte	0
 2144 0010 00000000 		.4byte	.LFB272
 2145 0014 34000000 		.4byte	.LFE272-.LFB272
 2146 0018 00000000 		.4byte	.LFB273
 2147 001c 28000000 		.4byte	.LFE273-.LFB273
 2148 0020 00000000 		.4byte	.LFB274
 2149 0024 10000000 		.4byte	.LFE274-.LFB274
 2150 0028 00000000 		.4byte	.LFB275
 2151 002c 1C000000 		.4byte	.LFE275-.LFB275
 2152 0030 00000000 		.4byte	0
 2153 0034 00000000 		.4byte	0
 2154              		.section	.debug_ranges,"",%progbits
 2155              	.Ldebug_ranges0:
 2156 0000 00000000 		.4byte	.LFB272
ARM GAS  /tmp/cc7TT2jv.s 			page 53


 2157 0004 34000000 		.4byte	.LFE272
 2158 0008 00000000 		.4byte	.LFB273
 2159 000c 28000000 		.4byte	.LFE273
 2160 0010 00000000 		.4byte	.LFB274
 2161 0014 10000000 		.4byte	.LFE274
 2162 0018 00000000 		.4byte	.LFB275
 2163 001c 1C000000 		.4byte	.LFE275
 2164 0020 00000000 		.4byte	0
 2165 0024 00000000 		.4byte	0
 2166              		.section	.debug_line,"",%progbits
 2167              	.Ldebug_line0:
 2168 0000 93020000 		.section	.debug_str,"MS",%progbits,1
 2168      02003502 
 2168      00000201 
 2168      FB0E0D00 
 2168      01010101 
 2169              	.LASF44:
 2170 0000 74687265 		.ascii	"threads_list_t\000"
 2170      6164735F 
 2170      6C697374 
 2170      5F7400
 2171              	.LASF83:
 2172 000f 49435052 		.ascii	"ICPR\000"
 2172      00
 2173              	.LASF49:
 2174 0014 72656164 		.ascii	"ready_list_t\000"
 2174      795F6C69 
 2174      73745F74 
 2174      00
 2175              	.LASF115:
 2176 0021 77747472 		.ascii	"wttrp\000"
 2176      7000
 2177              	.LASF112:
 2178 0027 7264796D 		.ascii	"rdymsg\000"
 2178      736700
 2179              	.LASF16:
 2180 002e 75696E74 		.ascii	"uint64_t\000"
 2180      36345F74 
 2180      00
 2181              	.LASF5:
 2182 0037 5F5F7569 		.ascii	"__uint8_t\000"
 2182      6E74385F 
 2182      7400
 2183              	.LASF109:
 2184 0041 706F7274 		.ascii	"port_intctx\000"
 2184      5F696E74 
 2184      63747800 
 2185              	.LASF68:
 2186 004d 73797374 		.ascii	"system_debug_t\000"
 2186      656D5F64 
 2186      65627567 
 2186      5F7400
 2187              	.LASF140:
 2188 005c 5F5F6675 		.ascii	"__func__.7099\000"
 2188      6E635F5F 
 2188      2E373039 
 2188      3900
ARM GAS  /tmp/cc7TT2jv.s 			page 54


 2189              	.LASF12:
 2190 006a 6C6F6E67 		.ascii	"long long unsigned int\000"
 2190      206C6F6E 
 2190      6720756E 
 2190      7369676E 
 2190      65642069 
 2191              	.LASF113:
 2192 0081 65786974 		.ascii	"exitcode\000"
 2192      636F6465 
 2192      00
 2193              	.LASF75:
 2194 008a 6D61696E 		.ascii	"mainthread\000"
 2194      74687265 
 2194      616400
 2195              	.LASF116:
 2196 0095 73656E74 		.ascii	"sentmsg\000"
 2196      6D736700 
 2197              	.LASF65:
 2198 009d 76697274 		.ascii	"virtual_timers_list_t\000"
 2198      75616C5F 
 2198      74696D65 
 2198      72735F6C 
 2198      6973745F 
 2199              	.LASF91:
 2200 00b3 43505549 		.ascii	"CPUID\000"
 2200      4400
 2201              	.LASF48:
 2202 00b9 63685F74 		.ascii	"ch_threads_queue\000"
 2202      68726561 
 2202      64735F71 
 2202      75657565 
 2202      00
 2203              	.LASF81:
 2204 00ca 49535052 		.ascii	"ISPR\000"
 2204      00
 2205              	.LASF29:
 2206 00cf 705F7072 		.ascii	"p_prio\000"
 2206      696F00
 2207              	.LASF131:
 2208 00d6 6E766963 		.ascii	"nvicEnableVector\000"
 2208      456E6162 
 2208      6C655665 
 2208      63746F72 
 2208      00
 2209              	.LASF103:
 2210 00e7 49534152 		.ascii	"ISAR\000"
 2210      00
 2211              	.LASF10:
 2212 00ec 6C6F6E67 		.ascii	"long long int\000"
 2212      206C6F6E 
 2212      6720696E 
 2212      7400
 2213              	.LASF1:
 2214 00fa 7369676E 		.ascii	"signed char\000"
 2214      65642063 
 2214      68617200 
 2215              	.LASF42:
ARM GAS  /tmp/cc7TT2jv.s 			page 55


 2216 0106 705F6D70 		.ascii	"p_mpool\000"
 2216      6F6F6C00 
 2217              	.LASF124:
 2218 010e 6D5F7175 		.ascii	"m_queue\000"
 2218      65756500 
 2219              	.LASF135:
 2220 0116 6E766963 		.ascii	"nvicClearPending\000"
 2220      436C6561 
 2220      7250656E 
 2220      64696E67 
 2220      00
 2221              	.LASF74:
 2222 0127 76746C69 		.ascii	"vtlist\000"
 2222      737400
 2223              	.LASF72:
 2224 012e 63685F73 		.ascii	"ch_system\000"
 2224      79737465 
 2224      6D00
 2225              	.LASF7:
 2226 0138 6C6F6E67 		.ascii	"long int\000"
 2226      20696E74 
 2226      00
 2227              	.LASF139:
 2228 0141 2F6E6673 		.ascii	"/nfs/nfs4/home/jacoroge/p442-submissions/milestone2"
 2228      2F6E6673 
 2228      342F686F 
 2228      6D652F6A 
 2228      61636F72 
 2229 0174 00       		.ascii	"\000"
 2230              	.LASF19:
 2231 0175 74737461 		.ascii	"tstate_t\000"
 2231      74655F74 
 2231      00
 2232              	.LASF31:
 2233 017e 705F6E65 		.ascii	"p_newer\000"
 2233      77657200 
 2234              	.LASF121:
 2235 0186 735F7175 		.ascii	"s_queue\000"
 2235      65756500 
 2236              	.LASF100:
 2237 018e 42464152 		.ascii	"BFAR\000"
 2237      00
 2238              	.LASF101:
 2239 0193 41465352 		.ascii	"AFSR\000"
 2239      00
 2240              	.LASF54:
 2241 0198 725F6E65 		.ascii	"r_newer\000"
 2241      77657200 
 2242              	.LASF106:
 2243 01a0 72656761 		.ascii	"regarm_t\000"
 2243      726D5F74 
 2243      00
 2244              	.LASF61:
 2245 01a9 76745F70 		.ascii	"vt_prev\000"
 2245      72657600 
 2246              	.LASF105:
 2247 01b1 5343425F 		.ascii	"SCB_Type\000"
ARM GAS  /tmp/cc7TT2jv.s 			page 56


 2247      54797065 
 2247      00
 2248              	.LASF128:
 2249 01ba 6D757465 		.ascii	"mutex_t\000"
 2249      785F7400 
 2250              	.LASF76:
 2251 01c2 69646C65 		.ascii	"idle_thread_wa\000"
 2251      5F746872 
 2251      6561645F 
 2251      776100
 2252              	.LASF24:
 2253 01d1 636E745F 		.ascii	"cnt_t\000"
 2253      7400
 2254              	.LASF0:
 2255 01d7 756E7369 		.ascii	"unsigned int\000"
 2255      676E6564 
 2255      20696E74 
 2255      00
 2256              	.LASF60:
 2257 01e4 76745F6E 		.ascii	"vt_next\000"
 2257      65787400 
 2258              	.LASF132:
 2259 01ec 6E766963 		.ascii	"nvicDisableVector\000"
 2259      44697361 
 2259      626C6556 
 2259      6563746F 
 2259      7200
 2260              	.LASF117:
 2261 01fe 77747365 		.ascii	"wtsemp\000"
 2261      6D7000
 2262              	.LASF38:
 2263 0205 705F6D73 		.ascii	"p_msgqueue\000"
 2263      67717565 
 2263      756500
 2264              	.LASF93:
 2265 0210 56544F52 		.ascii	"VTOR\000"
 2265      00
 2266              	.LASF122:
 2267 0215 735F636E 		.ascii	"s_cnt\000"
 2267      7400
 2268              	.LASF138:
 2269 021b 2E2E2F43 		.ascii	"../ChibiOS/os/hal/ports/common/ARMCMx/nvic.c\000"
 2269      68696269 
 2269      4F532F6F 
 2269      732F6861 
 2269      6C2F706F 
 2270              	.LASF45:
 2271 0248 63685F74 		.ascii	"ch_thread\000"
 2271      68726561 
 2271      6400
 2272              	.LASF92:
 2273 0252 49435352 		.ascii	"ICSR\000"
 2273      00
 2274              	.LASF22:
 2275 0257 6D73675F 		.ascii	"msg_t\000"
 2275      7400
 2276              	.LASF94:
ARM GAS  /tmp/cc7TT2jv.s 			page 57


 2277 025d 41495243 		.ascii	"AIRCR\000"
 2277      5200
 2278              	.LASF98:
 2279 0263 44465352 		.ascii	"DFSR\000"
 2279      00
 2280              	.LASF99:
 2281 0268 4D4D4641 		.ascii	"MMFAR\000"
 2281      5200
 2282              	.LASF71:
 2283 026e 63685F73 		.ascii	"ch_system_t\000"
 2283      79737465 
 2283      6D5F7400 
 2284              	.LASF18:
 2285 027a 746D6F64 		.ascii	"tmode_t\000"
 2285      655F7400 
 2286              	.LASF50:
 2287 0282 63685F72 		.ascii	"ch_ready_list\000"
 2287      65616479 
 2287      5F6C6973 
 2287      7400
 2288              	.LASF23:
 2289 0290 6576656E 		.ascii	"eventmask_t\000"
 2289      746D6173 
 2289      6B5F7400 
 2290              	.LASF6:
 2291 029c 5F5F696E 		.ascii	"__int32_t\000"
 2291      7433325F 
 2291      7400
 2292              	.LASF107:
 2293 02a6 73746B61 		.ascii	"stkalign_t\000"
 2293      6C69676E 
 2293      5F7400
 2294              	.LASF134:
 2295 02b1 68616E64 		.ascii	"handler\000"
 2295      6C657200 
 2296              	.LASF58:
 2297 02b9 76697274 		.ascii	"virtual_timer_t\000"
 2297      75616C5F 
 2297      74696D65 
 2297      725F7400 
 2298              	.LASF37:
 2299 02c9 705F7761 		.ascii	"p_waiting\000"
 2299      6974696E 
 2299      6700
 2300              	.LASF89:
 2301 02d3 73697A65 		.ascii	"sizetype\000"
 2301      74797065 
 2301      00
 2302              	.LASF43:
 2303 02dc 74687265 		.ascii	"thread_reference_t\000"
 2303      61645F72 
 2303      65666572 
 2303      656E6365 
 2303      5F7400
 2304              	.LASF66:
 2305 02ef 63685F76 		.ascii	"ch_virtual_timers_list\000"
 2305      69727475 
ARM GAS  /tmp/cc7TT2jv.s 			page 58


 2305      616C5F74 
 2305      696D6572 
 2305      735F6C69 
 2306              	.LASF96:
 2307 0306 43465352 		.ascii	"CFSR\000"
 2307      00
 2308              	.LASF85:
 2309 030b 49414252 		.ascii	"IABR\000"
 2309      00
 2310              	.LASF67:
 2311 0310 76745F6C 		.ascii	"vt_lasttime\000"
 2311      61737474 
 2311      696D6500 
 2312              	.LASF32:
 2313 031c 705F6F6C 		.ascii	"p_older\000"
 2313      64657200 
 2314              	.LASF53:
 2315 0324 725F6374 		.ascii	"r_ctx\000"
 2315      7800
 2316              	.LASF111:
 2317 032a 746D5F63 		.ascii	"tm_calibration_t\000"
 2317      616C6962 
 2317      72617469 
 2317      6F6E5F74 
 2317      00
 2318              	.LASF79:
 2319 033b 49434552 		.ascii	"ICER\000"
 2319      00
 2320              	.LASF130:
 2321 0340 7072696F 		.ascii	"prio\000"
 2321      00
 2322              	.LASF55:
 2323 0345 725F6F6C 		.ascii	"r_older\000"
 2323      64657200 
 2324              	.LASF11:
 2325 034d 5F5F7569 		.ascii	"__uint64_t\000"
 2325      6E743634 
 2325      5F7400
 2326              	.LASF20:
 2327 0358 74726566 		.ascii	"trefs_t\000"
 2327      735F7400 
 2328              	.LASF78:
 2329 0360 52455345 		.ascii	"RESERVED0\000"
 2329      52564544 
 2329      3000
 2330              	.LASF82:
 2331 036a 52455345 		.ascii	"RESERVED2\000"
 2331      52564544 
 2331      3200
 2332              	.LASF84:
 2333 0374 52455345 		.ascii	"RESERVED3\000"
 2333      52564544 
 2333      3300
 2334              	.LASF86:
 2335 037e 52455345 		.ascii	"RESERVED4\000"
 2335      52564544 
 2335      3400
ARM GAS  /tmp/cc7TT2jv.s 			page 59


 2336              	.LASF28:
 2337 0388 705F7072 		.ascii	"p_prev\000"
 2337      657600
 2338              	.LASF21:
 2339 038f 74707269 		.ascii	"tprio_t\000"
 2339      6F5F7400 
 2340              	.LASF69:
 2341 0397 63685F73 		.ascii	"ch_system_debug\000"
 2341      79737465 
 2341      6D5F6465 
 2341      62756700 
 2342              	.LASF129:
 2343 03a7 5F426F6F 		.ascii	"_Bool\000"
 2343      6C00
 2344              	.LASF14:
 2345 03ad 696E7433 		.ascii	"int32_t\000"
 2345      325F7400 
 2346              	.LASF2:
 2347 03b5 756E7369 		.ascii	"unsigned char\000"
 2347      676E6564 
 2347      20636861 
 2347      7200
 2348              	.LASF95:
 2349 03c3 53484353 		.ascii	"SHCSR\000"
 2349      5200
 2350              	.LASF136:
 2351 03c9 49544D5F 		.ascii	"ITM_RxBuffer\000"
 2351      52784275 
 2351      66666572 
 2351      00
 2352              	.LASF34:
 2353 03d6 705F7374 		.ascii	"p_state\000"
 2353      61746500 
 2354              	.LASF40:
 2355 03de 705F6D74 		.ascii	"p_mtxlist\000"
 2355      786C6973 
 2355      7400
 2356              	.LASF3:
 2357 03e8 73686F72 		.ascii	"short int\000"
 2357      7420696E 
 2357      7400
 2358              	.LASF77:
 2359 03f2 49534552 		.ascii	"ISER\000"
 2359      00
 2360              	.LASF90:
 2361 03f7 4E564943 		.ascii	"NVIC_Type\000"
 2361      5F547970 
 2361      6500
 2362              	.LASF133:
 2363 0401 6E766963 		.ascii	"nvicSetSystemHandlerPriority\000"
 2363      53657453 
 2363      79737465 
 2363      6D48616E 
 2363      646C6572 
 2364              	.LASF52:
 2365 041e 725F7072 		.ascii	"r_prio\000"
 2365      696F00
ARM GAS  /tmp/cc7TT2jv.s 			page 60


 2366              	.LASF119:
 2367 0425 65776D61 		.ascii	"ewmask\000"
 2367      736B00
 2368              	.LASF27:
 2369 042c 705F6E65 		.ascii	"p_next\000"
 2369      787400
 2370              	.LASF4:
 2371 0433 73686F72 		.ascii	"short unsigned int\000"
 2371      7420756E 
 2371      7369676E 
 2371      65642069 
 2371      6E7400
 2372              	.LASF59:
 2373 0446 63685F76 		.ascii	"ch_virtual_timer\000"
 2373      69727475 
 2373      616C5F74 
 2373      696D6572 
 2373      00
 2374              	.LASF120:
 2375 0457 63685F73 		.ascii	"ch_semaphore\000"
 2375      656D6170 
 2375      686F7265 
 2375      00
 2376              	.LASF39:
 2377 0464 705F6570 		.ascii	"p_epending\000"
 2377      656E6469 
 2377      6E6700
 2378              	.LASF87:
 2379 046f 52455345 		.ascii	"RESERVED5\000"
 2379      52564544 
 2379      3500
 2380              	.LASF15:
 2381 0479 75696E74 		.ascii	"uint32_t\000"
 2381      33325F74 
 2381      00
 2382              	.LASF118:
 2383 0482 77746D74 		.ascii	"wtmtxp\000"
 2383      787000
 2384              	.LASF51:
 2385 0489 725F7175 		.ascii	"r_queue\000"
 2385      65756500 
 2386              	.LASF62:
 2387 0491 76745F64 		.ascii	"vt_delta\000"
 2387      656C7461 
 2387      00
 2388              	.LASF46:
 2389 049a 63685F74 		.ascii	"ch_threads_list\000"
 2389      68726561 
 2389      64735F6C 
 2389      69737400 
 2390              	.LASF9:
 2391 04aa 6C6F6E67 		.ascii	"long unsigned int\000"
 2391      20756E73 
 2391      69676E65 
 2391      6420696E 
 2391      7400
 2392              	.LASF56:
ARM GAS  /tmp/cc7TT2jv.s 			page 61


 2393 04bc 725F6375 		.ascii	"r_current\000"
 2393      7272656E 
 2393      7400
 2394              	.LASF127:
 2395 04c6 63686172 		.ascii	"char\000"
 2395      00
 2396              	.LASF26:
 2397 04cb 74687265 		.ascii	"thread_t\000"
 2397      61645F74 
 2397      00
 2398              	.LASF126:
 2399 04d4 6D5F6E65 		.ascii	"m_next\000"
 2399      787400
 2400              	.LASF25:
 2401 04db 73797374 		.ascii	"systime_t\000"
 2401      696D655F 
 2401      7400
 2402              	.LASF41:
 2403 04e5 705F7265 		.ascii	"p_realprio\000"
 2403      616C7072 
 2403      696F00
 2404              	.LASF57:
 2405 04f0 76746675 		.ascii	"vtfunc_t\000"
 2405      6E635F74 
 2405      00
 2406              	.LASF8:
 2407 04f9 5F5F7569 		.ascii	"__uint32_t\000"
 2407      6E743332 
 2407      5F7400
 2408              	.LASF70:
 2409 0504 70616E69 		.ascii	"panic_msg\000"
 2409      635F6D73 
 2409      6700
 2410              	.LASF110:
 2411 050e 6F666673 		.ascii	"offset\000"
 2411      657400
 2412              	.LASF108:
 2413 0515 636F6E74 		.ascii	"context\000"
 2413      65787400 
 2414              	.LASF17:
 2415 051d 7274636E 		.ascii	"rtcnt_t\000"
 2415      745F7400 
 2416              	.LASF64:
 2417 0525 76745F70 		.ascii	"vt_par\000"
 2417      617200
 2418              	.LASF47:
 2419 052c 74687265 		.ascii	"threads_queue_t\000"
 2419      6164735F 
 2419      71756575 
 2419      655F7400 
 2420              	.LASF123:
 2421 053c 63685F6D 		.ascii	"ch_mutex\000"
 2421      75746578 
 2421      00
 2422              	.LASF36:
 2423 0545 705F7265 		.ascii	"p_refs\000"
 2423      667300
ARM GAS  /tmp/cc7TT2jv.s 			page 62


 2424              	.LASF102:
 2425 054c 4D4D4652 		.ascii	"MMFR\000"
 2425      00
 2426              	.LASF73:
 2427 0551 726C6973 		.ascii	"rlist\000"
 2427      7400
 2428              	.LASF13:
 2429 0557 75696E74 		.ascii	"uint8_t\000"
 2429      385F7400 
 2430              	.LASF80:
 2431 055f 52534552 		.ascii	"RSERVED1\000"
 2431      56454431 
 2431      00
 2432              	.LASF88:
 2433 0568 53544952 		.ascii	"STIR\000"
 2433      00
 2434              	.LASF137:
 2435 056d 474E5520 		.ascii	"GNU C 4.8.4 20140526 (release) [ARM/embedded-4_8-br"
 2435      4320342E 
 2435      382E3420 
 2435      32303134 
 2435      30353236 
 2436 05a0 616E6368 		.ascii	"anch revision 211358] -mcpu=cortex-m4 -mno-thumb-in"
 2436      20726576 
 2436      6973696F 
 2436      6E203231 
 2436      31333538 
 2437 05d3 74657277 		.ascii	"terwork -mthumb -ggdb -O2 -fomit-frame-pointer -fal"
 2437      6F726B20 
 2437      2D6D7468 
 2437      756D6220 
 2437      2D676764 
 2438 0606 69676E2D 		.ascii	"ign-functions=16 -ffunction-sections -fdata-section"
 2438      66756E63 
 2438      74696F6E 
 2438      733D3136 
 2438      202D6666 
 2439 0639 73202D66 		.ascii	"s -fno-common -flto\000"
 2439      6E6F2D63 
 2439      6F6D6D6F 
 2439      6E202D66 
 2439      6C746F00 
 2440              	.LASF114:
 2441 064d 77746F62 		.ascii	"wtobjp\000"
 2441      6A7000
 2442              	.LASF33:
 2443 0654 705F6E61 		.ascii	"p_name\000"
 2443      6D6500
 2444              	.LASF35:
 2445 065b 705F666C 		.ascii	"p_flags\000"
 2445      61677300 
 2446              	.LASF104:
 2447 0663 43504143 		.ascii	"CPACR\000"
 2447      5200
 2448              	.LASF97:
 2449 0669 48465352 		.ascii	"HFSR\000"
 2449      00
ARM GAS  /tmp/cc7TT2jv.s 			page 63


 2450              	.LASF125:
 2451 066e 6D5F6F77 		.ascii	"m_owner\000"
 2451      6E657200 
 2452              	.LASF30:
 2453 0676 705F6374 		.ascii	"p_ctx\000"
 2453      7800
 2454              	.LASF63:
 2455 067c 76745F66 		.ascii	"vt_func\000"
 2455      756E6300 
 2456              		.comm	__gnu_lto_v1,1,1
 2457              		.ident	"GCC: (GNU Tools for ARM Embedded Processors) 4.8.4 20140526 (release) [ARM/embedded-4_8-br
ARM GAS  /tmp/cc7TT2jv.s 			page 64


DEFINED SYMBOLS
                            *ABS*:00000000 nvic.c
     /tmp/cc7TT2jv.s:265    .text.nvicEnableVector:00000000 $t
     /tmp/cc7TT2jv.s:271    .text.nvicEnableVector:00000000 nvicEnableVector
     /tmp/cc7TT2jv.s:315    .text.nvicDisableVector:00000000 $t
     /tmp/cc7TT2jv.s:321    .text.nvicDisableVector:00000000 nvicDisableVector
     /tmp/cc7TT2jv.s:357    .text.nvicDisableVector:00000024 $d
     /tmp/cc7TT2jv.s:362    .text.nvicSetSystemHandlerPriority:00000000 $t
     /tmp/cc7TT2jv.s:368    .text.nvicSetSystemHandlerPriority:00000000 nvicSetSystemHandlerPriority
     /tmp/cc7TT2jv.s:390    .text.nvicClearPending:00000000 $t
     /tmp/cc7TT2jv.s:396    .text.nvicClearPending:00000000 nvicClearPending
     /tmp/cc7TT2jv.s:417    .text.nvicClearPending:00000018 $d
                            *COM*:00000001 __gnu_lto_v1
                     .debug_frame:00000010 $d
     /tmp/cc7TT2jv.s:361    .text.nvicDisableVector:00000028 $t
     /tmp/cc7TT2jv.s:421    .text.nvicClearPending:0000001c $t

NO UNDEFINED SYMBOLS
