ARM GAS  /tmp/cc80SRS3.s 			page 1


   1              		.syntax unified
   2              		.cpu cortex-m4
   3              		.fpu softvfp
   4              		.eabi_attribute 20, 1
   5              		.eabi_attribute 21, 1
   6              		.eabi_attribute 23, 3
   7              		.eabi_attribute 24, 1
   8              		.eabi_attribute 25, 1
   9              		.eabi_attribute 26, 1
  10              		.eabi_attribute 30, 2
  11              		.eabi_attribute 34, 1
  12              		.eabi_attribute 18, 4
  13              		.thumb
  14              		.file	"pal.c"
  15              		.text
  16              	.Ltext0:
  17              		.section	.gnu.lto_.jmpfuncs.1a63bd08e5062557,"",%progbits
  18 0000 789C6362 		.ascii	"x\234cb`b\300\006D\24043\003##3\02333\204\315\300X\006"
  18      6062C006 
  18      44A03433 
  18      03232333 
  18      13333384 
  19 0018 A4010623 		.ascii	"\244\001\006#\000\243"
  19      00A3
  20              		.text
  21              		.section	.gnu.lto_.inline.1a63bd08e5062557,"",%progbits
  22 0000 789C6362 		.ascii	"x\234cb`b\300\006\276Cif\006\006N\016Ff\006F0\023D:"
  22      6062C006 
  22      BE436966 
  22      06064E0E 
  22      46660646 
  23 0018 8049050E 		.ascii	"\200I\005\016\266\017z\014l\013\344\231\030\030_\260"
  23      B60F7A0C 
  23      6C0BE499 
  23      18185FB0 
  24 0028 B3404810 		.ascii	"\263@H\020\301\001fr\200\010\0010S\000d\014#\003\037"
  24      C1016672 
  24      80080130 
  24      5300640C 
  24      23031F
  25 003b 2F230BC4 		.ascii	"/#\013\304\024FF\210\010\320\020\210\201\334L\027\370"
  25      14464688 
  25      08D01088 
  25      81DC4C17 
  25      F8
  26 004c 318C028A 		.ascii	"1\214\002\212\241\030\302\262@^\002\304R`b`\336!\256"
  26      A118C2B2 
  26      405E02C4 
  26      52606260 
  26      DE21AE
  27 005f C000B4DE 		.ascii	"\300\000\264\336\002d\016\023\003\2670\212\373\240\206"
  27      02640E13 
  27      03B7308A 
  27      FBA086
  28 006e 7202E588 		.ascii	"r\002\345\210s\036\320&\011\220I,\274@}\023\374@\220"
  28      731ED026 
  28      0990492C 
ARM GAS  /tmp/cc80SRS3.s 			page 2


  28      BC407D13 
  28      FC4090
  29 0081 01003C62 		.ascii	"\001\000<b\037\210"
  29      1F88
  30              		.text
  31              		.section	.gnu.lto_.pureconst.1a63bd08e5062557,"",%progbits
  32 0000 789C6362 		.ascii	"x\234cb`b`g\200\000f\006)F)&I\000\001\312\000_"
  32      60626067 
  32      80006606 
  32      29462926 
  32      490001CA 
  33              		.text
  34              		.section	.gnu.lto_palReadBus.1a63bd08e5062557,"",%progbits
  35 0000 789C6D90 		.ascii	"x\234m\220\261J\003A\020\206\377\177\366.w\227\302^"
  35      B14A0341 
  35      1086FF7F 
  35      F62E7797 
  35      C25E
  36 0012 10B13670 		.ascii	"\020\2616p\367\020>\200\205\021\324.\271\"9HP\314\003"
  36      F7103E80 
  36      8511D42E 
  36      B9223948 
  36      50CC03
  37 0025 E4CCA5B2 		.ascii	"\344\314\245\262\012V\242\225\215\205El\005\033\261"
  37      0A56A295 
  37      8D85456C 
  37      051BB1
  38 0034 B08B686B 		.ascii	"\260\213hk%\330\212\257\020g7\336\211\222\205\375gw"
  38      25D88AAF 
  38      106737DE 
  38      899285FD 
  38      6777
  39 0046 76BE7F86 		.ascii	"v\276\177\206\025\010\376\257U\335\247\004\3265\322"
  39      1508FEAF 
  39      55DDA704 
  39      D635D2
  40 0055 80327906 		.ascii	"\2002y\006NB!\355\001\304P8\334\247\253\275\225\207"
  40      4E4221ED 
  40      01C45038 
  40      DCA7ABBD 
  40      9587
  41 0067 F7F97C7A 		.ascii	"\367\371|z\366t\375\311s\251\013\373\204AFx*\364U\244"
  41      F674FDC9 
  41      73A90BFB 
  41      84414678 
  41      2AF455A4 
  42 007b A662027B 		.ascii	"\246b\002{\015\255D*\236\222>\306y>\331\350S\215Rg\326"
  42      0DAD442A 
  42      9E923EC6 
  42      793ED9E8 
  42      538D5267 
  43 0090 54B51D76 		.ascii	"T\265\035v)6\232\031Fow\037/l\361J\235:4\015lf\364/"
  43      29369A19 
  43      466F771F 
  43      2F6CF14A 
  43      9D3A340D 
  44 00a8 71C18CB5 		.ascii	"q\301\214\265\016eOc\340\306h\263\034~\206\307\203\022"
ARM GAS  /tmp/cc80SRS3.s 			page 3


  44      0E654F63 
  44      E0C668B3 
  44      1C7E86C7 
  44      8312
  45 00ba F01AB8C9 		.ascii	"\360\032\270\311\307Z\024.\230H=,\343\3770\254\230Q"
  45      C75A142E 
  45      98483D2C 
  45      E3FF30AC 
  45      9851
  46 00cc C5F8AE49 		.ascii	"\305\370\256I}y\023\371\005\276LIh\221oS\305\264J\005"
  46      7D7913F9 
  46      05BE4C49 
  46      68916F53 
  46      C5B44A05 
  47 00e0 DA5B1FFE 		.ascii	"\332[\037\376:\207\316\331[\356l*\347\342\276X)\221"
  47      3A87CED9 
  47      5BEE6C2A 
  47      E7E2BE58 
  47      2991
  48 00f2 C85985C0 		.ascii	"\310Y\205\300+\252_\210\026\205M\235^?\311N\264\026"
  48      2BAA5F88 
  48      16854D9D 
  48      5E3FC94E 
  48      B416
  49 0104 C7C95637 		.ascii	"\307\311V7kg\333;\311\341 \351\266z\311\3408M\216Z\275"
  49      6B67DB3B 
  49      C9E120E9 
  49      B67AC9E0 
  49      384D8E5A 
  50 0119 38C537E5 		.ascii	"8\3057\3451S\303"
  50      3153C3
  51              		.text
  52              		.section	.gnu.lto_palWriteBus.1a63bd08e5062557,"",%progbits
  53 0000 789C6D51 		.ascii	"x\234mQ=K\303P\024\275\367\2754M\322/\335\024D\0047"
  53      3D4BC350 
  53      14BDF7BD 
  53      344DD22F 
  53      DD144404 
  54 0015 0BCD0F70 		.ascii	"\013\315\017ptrr\260\202\272\245\035\332@\213b\177@"
  54      747272B0 
  54      82BAA51D 
  54      DA408B62 
  54      7F40
  55 0027 5BEDE0D8 		.ascii	"[\355\340\330\331N\256\202uq\021\005\305\301M\301M\234"
  55      D94EAE82 
  55      75711105 
  55      C5C14DC1 
  55      4D9C
  56 0039 FA0B7471 		.ascii	"\372\013tq\024\352\271/M\212\245\201\234{\337y\367\236"
  56      14EAB92F 
  56      4D8AA581 
  56      9C7BDF79 
  56      F79E
  57 004b 7B6EA248 		.ascii	"{n\242H\321\354\263\214w\023\364*\"kb\325\177#\352:"
  57      D1ECB38C 
  57      7713F42A 
  57      226B62D5 
ARM GAS  /tmp/cc80SRS3.s 			page 4


  57      7F23EA3A 
  58 005f 8A591262 		.ascii	"\212Y\022bj+n\037\260\251\275QO\243\361x\370\363r\373"
  58      6A2B6E1F 
  58      B0A9BD51 
  58      4FA3F178 
  58      F8F372FB 
  59 0073 CB03B5A8 		.ascii	"\313\003\265\250\270\311\244)d\262\220q\012\031\333"
  59      B8C9A429 
  59      64B29071 
  59      0A19DB
  60 0082 02690107 		.ascii	"\002i\001\007\240\\\001\017\2403\302e\005rr\314KV\020"
  60      A05C010F 
  60      A033C265 
  60      057272CC 
  60      4B5610
  61 0095 806E8A7A 		.ascii	"\200n\212z\235N\177\255\311\360Q5\243\312@\231\277\007"
  61      9D4E7FAD 
  61      C9F05135 
  61      A3CA4099 
  61      BF07
  62 00a7 0A51BFD2 		.ascii	"\012Q\277\322\351\347\307\367R\300\227\030Sc]\244\215"
  62      E9E7C7F7 
  62      52C09718 
  62      53635DA4 
  62      8D
  63 00b8 90AD015D 		.ascii	"\220\255\001]p\310\251\032\253}D\333x\254p\274\031z"
  63      70C8A91A 
  63      AB7D44DB 
  63      78AC70BC 
  63      197A
  64 00ca 1E74DC81 		.ascii	"\036t\334\201\"\313P\2071c\033\215\364|\015N4\316\356"
  64      22CB5087 
  64      31631B8D 
  64      F47C0D4E 
  64      34CEEE
  65 00dd 138DB491 		.ascii	"\023\215\264\221\261\377\3138F\306\231/\243\2462\347"
  65      B1FFCB38 
  65      46C6992F 
  65      A3A632E7 
  66 00ed 898C8B26 		.ascii	"\211\214\213&)R\013\221\311\257\344\306\303\245)\276"
  66      29520B91 
  66      C9AFE4C6 
  66      C3A529BE 
  67 00fd 4EA88C19 		.ascii	"N\250\214\031\353\3158\311b\233\330\311\264=\007\341"
  67      EBCD38C9 
  67      629BD8C9 
  67      B43D07E1 
  68 010d 99F6BCA9 		.ascii	"\231\366\274\251\315\031\366.a\013F7/\354\363vD\026"
  68      CD19F62E 
  68      610B4637 
  68      2FECF376 
  68      4416
  69 011f E9AAD383 		.ascii	"\351\252\323\203)7N\274h#\324i1kM6\322\223\030\235!"
  69      29374EBC 
  69      6823D469 
  69      316B4D36 
  69      D293189D 
ARM GAS  /tmp/cc80SRS3.s 			page 5


  70 0134 45F44EDD 		.ascii	"E\364N\335\321\343z$\023?e|A\3747\331\177\245T\362\267"
  70      D1E37A24 
  70      133F657C 
  70      41FC37D9 
  70      7FA554F2 
  71 0149 EA6125DC 		.ascii	"\352a%\334\331\365\217Z~=h\370\255\223\252\177\0344"
  71      D9F58F5A 
  71      7E3D68F8 
  71      AD93AA7F 
  71      1C34
  72 015b 4A55FA03 		.ascii	"JU\372\003\\\024t:"
  72      5C14743A 
  73              		.text
  74              		.section	.gnu.lto_palSetBusMode.1a63bd08e5062557,"",%progbits
  75 0000 789C6D90 		.ascii	"x\234m\220\277J\003A\020\306\277o\367\376\231\312RA"
  75      BF4A0341 
  75      10C6BF6F 
  75      F7FE99CA 
  75      5241
  76 0012 44B053B8 		.ascii	"D\260S\270}\010\037\300\302\010jw9\360\262\220\240\230"
  76      7D081FC0 
  76      C2086A77 
  76      39F0B290 
  76      A098
  77 0024 D22217B5 		.ascii	"\322\"\027\265\260L\255 \370\000\232\326\322\316J\203"
  77      B04CAD20 
  77      F8009AD6 
  77      D2CE4A83 
  78 0034 96567900 		.ascii	"\226Vy\000\311\003h\021g7\236\202\334\300\316\354~;"
  78      C9036811 
  78      67379E82 
  78      DCC0CEEC 
  78      7E3B
  79 0046 BF99D955 		.ascii	"\277\231\331UP\370o\313\262\016\011\254J\244\006\325"
  79      50F86FCB 
  79      B20E09AC 
  79      4AA406D5 
  80 0056 F0051824 		.ascii	"\360\005\030$\212t\033\020}\305\376>}\356H=Nf\263\373"
  80      8A741B10 
  80      7DC5FE3E 
  80      7DEE483D 
  80      4E66B3FB 
  81 006a B7A7D107 		.ascii	"\267\247\321\007oTC\261KhX\"\020\307P\234\212\304\351"
  81      6F5443B1 
  81      4B685822 
  81      10C7509C 
  81      8AC4E9
  82 007d D81D13B9 		.ascii	"\330\035\023\271uX\210\213\262\034\256u)\275s_\247)"
  82      7558888B 
  82      B21CAE75 
  82      29BD735F 
  82      A729
  83 008f DE15DF15 		.ascii	"\336\025\337\025I\242~\306\331\373\303\327R\306[\251"
  83      49A27EC6 
  83      D9FBC3D7 
  83      52C65BA9 
  84 009f 51506F62 		.ascii	"QPob\3032\270\306\025-\303\202jOb\344\007h\261\032["
ARM GAS  /tmp/cc80SRS3.s 			page 6


  84      C332B8C6 
  84      152DC382 
  84      6A4F62E4 
  84      0768B11A 
  85 00b4 98830A08 		.ascii	"\230\203\012\010<\020\327\003\254\001B\017$\365\200"
  85      3C10D703 
  85      AC01420F 
  85      24F580
  86 00c3 FA03A6BA 		.ascii	"\372\003\246\272\"\"\201\234t~\367+\305\322\270p\324"
  86      2222819C 
  86      747EF72B 
  86      C5D2B870 
  86      D4
  87 00d4 18D15C03 		.ascii	"\030\321\\\003N\361Y^\226\213\226\013\371Ocy\216OM,"
  87      4EF1595E 
  87      968B960B 
  87      F94F6379 
  87      8E4F4D2C 
  88 00e8 1BC02B06 		.ascii	"\033\300+\006\223\351z\225=\267\246d\312/\270\266+i"
  88      93E97A95 
  88      3DB7A664 
  88      CA2FB8B6 
  88      2B69
  89 00fa 6AB6DAB6 		.ascii	"j\266\332\266e\267w\314Q\317\264\263\216\351\235\344"
  89      65B777CC 
  89      51CFB4B3 
  89      8EE99DE4 
  90 010a E638EBA4 		.ascii	"\3468\353\2449\276\001}UNr"
  90      39BE017D 
  90      554E72
  91              		.text
  92              		.section	.gnu.lto_.symbol_nodes.1a63bd08e5062557,"",%progbits
  93 0000 789C4DC7 		.ascii	"x\234M\307\261\015\2000\024CA\373\375\331\230\313))"
  93      B10D8030 
  93      144341FB 
  93      FDD998CB 
  93      2929
  94 0012 03122D0D 		.ascii	"\003\022-\015\373\260C\026A\024 \301u\207\320\244\027"
  94      FBB04316 
  94      411420C1 
  94      7587D0A4 
  94      17
  95 0023 9D48FD94 		.ascii	"\235H\375\224\222}6\013\361\257+\341\2537RO[sQ:\306"
  95      927D360B 
  95      F1AF2BE1 
  95      AB37524F 
  95      5B73513A 
  96 0038 65DDCE89 		.ascii	"e\335\316\211\024\225"
  96      1495
  97              		.text
  98              		.section	.gnu.lto_.refs.1a63bd08e5062557,"",%progbits
  99 0000 789C6362 		.ascii	"x\234cb`b`d\200\002\000\000F\000\006"
  99      60626064 
  99      80020000 
  99      460006
 100              		.text
 101              		.section	.gnu.lto_.decls.1a63bd08e5062557,"",%progbits
ARM GAS  /tmp/cc80SRS3.s 			page 7


 102 0000 789CBD58 		.ascii	"x\234\275X{l\024E\030\237\331\273\203^9\312KHI\210\034"
 102      7B6C1445 
 102      189FD9BB 
 102      835E39CA 
 102      4B484988 
 103 0015 460C21B4 		.ascii	"F\014!\264K\013\"\374C\024\212\224\010\266\271B\300"
 103      4B0B22FC 
 103      43148A94 
 103      08B6B942 
 103      C0
 104 0026 BFD6EDDD 		.ascii	"\277\326\355\335\226^l{\365n\253!1qJy\205D)E^\001\313"
 104      965E6C7B 
 104      F56EAB21 
 104      31714A79 
 104      85442945 
 105 003d 01226008 		.ascii	"\001\"`\010 P\020(x \322\012H\011F\224\030\343\201\020"
 105      20501028 
 105      7820D20A 
 105      48094694 
 105      18E38110 
 106 0051 D2800920 		.ascii	"\322\200\011 DD\312\371\315\354\356\335\356\366\366"
 106      4444CAF9 
 106      CDECEEDD 
 106      EEF6F6
 107 0060 1E247AC9 		.ascii	"\036$z\31177\2633\363\373~\337c\036\273\034\342\320"
 107      3737B333 
 107      F3FB7EDF 
 107      631EBB1C 
 107      E2D0
 108 0072 0718A118 		.ascii	"\007\030\241\030\374\026=\207\320Q\016!;Bh*J\374h{+"
 108      FC163D87 
 108      D0510E21 
 108      3B42682A 
 108      4AFC687B 
 109 0087 C803901E 		.ascii	"\310\003\220\036\020'F\275~\264\277\037\310-\220\276"
 109      102746BD 
 109      7EB4BF1F 
 109      C82D90BE 
 110 0097 200E75DE 		.ascii	" \016u\336v\2206\220} {A\332A\016\203\334Q\373\017\201"
 110      76903690 
 110      7D207B41 
 110      DA410E83 
 110      DC51FB0F 
 111 00ac 9C01B90D 		.ascii	"\234\001\271\015\322\015\202U,\240\201\356\201\0140"
 111      D20D8255 
 111      2CA081EE 
 111      810C30
 112 00bb E9A21C5C 		.ascii	"\351\242\034\\I\364\350ulW\361\251\256\357T}\016UW\267"
 112      49F4E875 
 112      6C57F1A9 
 112      AEEF547D 
 112      0E5557B7 
 113 00cf AAAB13E4 		.ascii	"\252\253\023\344\202\252\217b\332@\376\006y\0142\334"
 113      82AA8F62 
 113      DA40FE06 
 113      790C32DC 
 114 00df A4B3C7C2 		.ascii	"\244\263\307\302\266d:\237\207\271\271X\301\323\353"
ARM GAS  /tmp/cc80SRS3.s 			page 8


 114      B6643A9F 
 114      87B9B958 
 114      C1D3EB
 115 00ee E374BEA3 		.ascii	"\343t\276\243}\016\370\357\0032\322\244k$j%\341ht\307"
 115      7D0EF8EF 
 115      0332D2A4 
 115      6B246A25 
 115      E16874C7 
 116 0102 F5BB7823 		.ascii	"\365\273x#\211,!\261\330\207h\030ZK\340\027^F\010\226"
 116      892C21B1 
 116      D8876818 
 116      5A4BE017 
 116      5E460896 
 117 0116 9D680521 		.ascii	"\235h\005!\213i\243\2643\017\241\005X\304yN\344f\025"
 117      8B69A3B4 
 117      330FA105 
 117      58C4794E 
 117      E46615
 118 0129 9793F11A 		.ascii	"\227\223\361\032\215>#\2449\032{\262s,!9\"\336\216\235"
 118      8D3E23A4 
 118      391A7BB2 
 118      732C2139 
 118      22DE8E9D 
 119 013d A0BF02A3 		.ascii	"\240\277\002\243\261h7\3404\303\374\342$!D\231CoY\376"
 119      B16837E0 
 119      34C3FCE2 
 119      24214499 
 119      436F59FE 
 120 0151 ED29BC18 		.ascii	"\355)\274\030\350\210x'\003\377\005c$\342\317\361\330"
 120      E8887827 
 120      03FF0563 
 120      24E2CFF1 
 120      D8
 121 0162 ACA136AE 		.ascii	"\254\2416\256j\237\302X~\301\200\2729#\220\210\373:"
 121      6A9FC258 
 121      7EC180BA 
 121      39239088 
 121      FB3A
 122 0174 F51C595B 		.ascii	"\365\034Y[\033@\321X\267Z\241I<\000\375\307\303\223"
 122      1B40D158 
 122      B75AA149 
 122      3C00FDC7 
 122      C393
 123 0186 D942676E 		.ascii	"\331Bgn\303\303X\315\306b\015\011\2632\341\201\301h"
 123      C3C358CD 
 123      C6620D09 
 123      B332E181 
 123      C168
 124 0198 358DA05B 		.ascii	"5\215\240[\347\213\267\265\371\256\204/\256\376t\241"
 124      E78BB7B5 
 124      F9AE842F 
 124      AEFE74A1 
 125 01a8 98F9621F 		.ascii	"\230\371b\037\036\014(kmF_\244C\241,\016\300Le\016\303"
 125      1E0C286B 
 125      6D465FA4 
 125      43A12C0E 
 125      C04C650E 
ARM GAS  /tmp/cc80SRS3.s 			page 9


 126 01bd 2491871D 		.ascii	"$\221\207\035.bW\236#\003\232\3417\012\205\201m\244"
 126      2E62579E 
 126      23039AE1 
 126      370A8581 
 126      6DA4
 127 01cf A763F370 		.ascii	"\247c\363p\022>\215\323\221\217r\232\336q\272|\013o"
 127      123E8DD3 
 127      918F729A 
 127      DE71BA7C 
 127      0B6F
 128 01e1 B131F687 		.ascii	"\2611\366\207\031\373M\351\331\033a(\275\243f\372\377"
 128      19FB4DE9 
 128      D91B6128 
 128      BDA366FA 
 128      FF
 129 01f2 5C64F48F 		.ascii	"\\d\364\217\246\247\277\244)\022\273\250\320g\331\327"
 129      A6A7BFA4 
 129      2912BBA8 
 129      D067D9D7 
 130 0202 9432FB44 		.ascii	"\2242\373D\274\013\217\316(\336\034\332\305,\241\024"
 130      BC0B8FCE 
 130      28DE1CDA 
 130      C52CA114 
 131 0212 9221A955 		.ascii	"\222!\251U\345\247\0160\322j\356r5\213\"ng\011\2767"
 131      E5A70E30 
 131      D26AEE72 
 131      358B226E 
 131      6709BE37 
 132 0226 6B30B701 		.ascii	"k0\267\001\254E\017\326\226\011X\2165\263O\364`'\262"
 132      AC450FD6 
 132      9609588E 
 132      35B34FF4 
 132      6027B2
 133 0239 0633325B 		.ascii	"\00632[\247\007\373&\023\260\201\326\3146\350\301:\262"
 133      A707FB26 
 133      13B081D6 
 133      CC36E8C1 
 133      3AB2
 134 024b 06D3336B 		.ascii	"\006\3233k\214\034\351:\207I\213k\010j!\244\221\204"
 134      8C1CE93A 
 134      87498B6B 
 134      086A21A4 
 134      9184
 135 025d FB582505 		.ascii	"\373X%\005Bl\010I9D\304\347\360\020c\222nZ\225G\223"
 135      426C0849 
 135      3944C4E7 
 135      F0106392 
 135      6E5A9547 
 136 0272 943E4FBF 		.ascii	"\224>O\277\306>\355R\222T\333:\3173\343\350\334g\310"
 136      C63EED52 
 136      9254DB3A 
 136      CF33E3E8 
 136      DC67C8
 137 0285 2E50DED6 		.ascii	".P\336\326\325\217\254t\251\253+\374\352\256\024\304"
 137      D58FAC74 
 137      A9AB2BFC 
 137      EAAE14C4 
ARM GAS  /tmp/cc80SRS3.s 			page 10


 138 0295 BBCCAB6B 		.ascii	"\273\314\253kK\027\347V\036\247\347\375e\327\346|\022"
 138      4B17E756 
 138      1EA7E7FD 
 138      65D7E67C 
 138      12
 139 02a6 3E85D5AD 		.ascii	">\205\325\255\235,#ct\272\006j\272\350\346\027?%\216"
 139      9D2C2363 
 139      74BA066A 
 139      BAE8E617 
 139      3F258E
 140 02b9 8C631BC2 		.ascii	"\214c\033\302ef\350\367\266\244gD\006@\033W\355T\316"
 140      6566E8F7 
 140      B6A46744 
 140      06401B57 
 140      ED54CE
 141 02cc 881F19D0 		.ascii	"\210\037\031\320\025\233\371\214\260\231\316\010\233"
 141      159BF98C 
 141      B099CE08 
 141      9B
 142 02d9 7155DB9C 		.ascii	"qU\333\234\211J,fC\331\015\346\3205\246\260+\221\177"
 142      894A2C66 
 142      43D90DE6 
 142      D035A6B0 
 142      2B917F
 143 02ec 0692E942 		.ascii	"\006\222\351B\2648\372\364F+s\235\346\211\233Y\343\015"
 143      B438FAF4 
 143      462B739D 
 143      E6899B59 
 143      E30D
 144 02fe 34C58443 		.ascii	"4\305\204C\267\2375mt\226+F\213\370\002\036\005\345"
 144      B79F356D 
 144      74962B46 
 144      8BF8021E 
 144      05E5
 145 0310 4528750A 		.ascii	"E(u\012\376\310d\321\345[\030\015+\370+\375\012\276"
 145      FEC864D1 
 145      E55B180D 
 145      2BF82BFD 
 145      0ABE
 146 0322 9F3598DB 		.ascii	"\2375\230\333\000vL\017\366W&`nkf\355z\260'Y\203\031"
 146      00764C0F 
 146      F6572660 
 146      6E6B66ED 
 146      7AB02759 
 147 0338 999DD483 		.ascii	"\231\235\324\2035\3323\000\033\223*(\206\370$NC\021"
 147      35DA3300 
 147      1B932A28 
 147      86F8244E 
 147      4311
 148 034a 1F63C7D5 		.ascii	"\037c\307\325q\026\251\223\254\214\260\3624+\317\260"
 148      7116A993 
 148      AC8CB0F2 
 148      342BCFB0 
 149 035a F22C2B3B 		.ascii	"\362,+;Y\371++\177c\3455V\376\256\217\257\365\215,\362"
 149      59F92B2B 
 149      7F63E535 
 149      56FEAE8F 
ARM GAS  /tmp/cc80SRS3.s 			page 11


 149      AFF58D2C 
 150 036f C3BA1174 		.ascii	"\303\272\021t7k\203[\000\207\226\332\215k\315p3P\216"
 150      376B835B 
 150      008796DA 
 150      8D6BCD70 
 150      33508E
 151 0382 7AABDDE6 		.ascii	"z\253\335\346\026\000$\337Tz\365q\250\231\3519\360l"
 151      160024DF 
 151      547AF571 
 151      A899E939 
 151      F06C
 152 0394 672C2CB1 		.ascii	"g,,\261\253\353\317\266\3405M\244s\274v\337]\2375\242"
 152      ABEBCFB6 
 152      E0354DA4 
 152      73BC76DF 
 152      5D9F35A2 
 153 03a8 5B8F18D9 		.ascii	"[\217\030\331\177\016\002\233\315\225\370\306=\334\304"
 153      7F0E029B 
 153      CD95F8C6 
 153      3DDCC4
 154 03b7 AEC47798 		.ascii	"\256\304w\230\376\315v\363.\3450\355R\016\343\306\343"
 154      FECD76F3 
 154      2EE530ED 
 154      520EE3C6 
 154      E3
 155 03c8 70262AF1 		.ascii	"p&*\361\273\307\356L\254Hv\302'\317\250\003\272\214"
 155      BBC7EE4C 
 155      AC4876C2 
 155      27CFA803 
 155      BA8C
 156 03da 3AC832EA 		.ascii	":\3102\352\020\313\215nV\336N\227!\024b/\356\227\300"
 156      10CB8D6E 
 156      56DE4E97 
 156      2114622F 
 156      EE97C0
 157 03ed 9B97D84C 		.ascii	"\233\227\330L9\264\337d\361\213h;!-\360.\023\261\303"
 157      39B4DF64 
 157      F18B683B 
 157      212DF02E 
 157      13B1C3
 158 0400 BB8C5D99 		.ascii	"\273\214]\231\312\241\343l\330V<\322\342b\246*x\011"
 158      CAA1E36C 
 158      D8563CD2 
 158      E262A62A 
 158      7809
 159 0412 EDA0AE3F 		.ascii	"\355\240\256?q\243\274T\011)J1K\245s\027sz{\225\227"
 159      71A3BC54 
 159      09294A31 
 159      4BA57317 
 159      737A7B95 
 160 0427 A9C8C365 		.ascii	"\251\310\303e\347\341\370'O\350nnx\227\022\361\324\241"
 160      E7E1F827 
 160      4FE86E6E 
 160      789712F1 
 160      D4A1
 161 0439 96763E34 		.ascii	"\226v>4\336\347\025^\361\206B\310\354\201\257\223z\200"
 161      DEE7155E 
ARM GAS  /tmp/cc80SRS3.s 			page 12


 161      F18642C8 
 161      EC81AF93 
 161      7A80
 162 044b FCE92B55 		.ascii	"\374\351+U\246\213\370>0\024\361\203\324\306\253\323"
 162      A68BF83E 
 162      3014F183 
 162      D4C6ABD3 
 163 045b 8E48A55A 		.ascii	"\216H\245Z2\237g\300\326\323T:\314g\204|D\226\016\304"
 163      329F67C0 
 163      D6D3543A 
 163      CC67847C 
 163      44960EC4 
 164 046f CC38A4CE 		.ascii	"\3148\244\3162$\301\243\244^\272\334\341jn\214\306b"
 164      3224C1A3 
 164      A45EBADC 
 164      E16A6E8C 
 164      C662
 165 0481 233377D1 		.ascii	"#3w\321\323\024.\312\342=u\377\036\345=\265\221\243"
 165      D3142ECA 
 165      E23D75FF 
 165      1EE53DB5 
 165      91A3
 166 0493 A65EEAB5 		.ascii	"\246^\352\265nv\342gy\0054\205\346\252Er>\376\331\226"
 166      6E76E267 
 166      79053485 
 166      E6AA4572 
 166      3EFED996 
 167 04a7 484E2D3E 		.ascii	"HN->=\031\305\347 \215\217B\372\026C\267\236FGY\305"
 167      3D19C5E7 
 167      208D8F42 
 167      FA1643B7 
 167      9E464759 
 168 04bc A7C71C9F 		.ascii	"\247\307\034\237%\\\257\370D\251\233\3166\342\325M\341"
 168      255CAFF8 
 168      44A99BCE 
 168      36E2D54D 
 168      E1
 169 04cd 4E72979A 		.ascii	"Nr\227\232\230y\224Vr\246(\265%I\344x[ej\362\336\035"
 169      98799456 
 169      72A628B5 
 169      2549E478 
 169      5B656AF2 
 170 04e3 93F734AA 		.ascii	"\223\3674\252\037\033\251\276\200\266\222K\227\2427"
 170      1F1BA9BE 
 170      80B6924B 
 170      97A237
 171 04f2 AF6FC02B 		.ascii	"\257o\300+\242\244\231<\215\305\360 \324\314\336\373"
 171      A2A4993C 
 171      8DC5F020 
 171      D4CCDEFB 
 172 0502 36E4A929 		.ascii	"6\344\251)\021\335\021\311\337\220H\211\034\215/\326"
 172      11DD11C9 
 172      DF904889 
 172      1C8D2FD6 
 173 0512 52827EA1 		.ascii	"R\202~\241\340\342\203I~~\362\261\"n\341\350\016\266"
 173      E0E28349 
 173      7E7EF2B1 
ARM GAS  /tmp/cc80SRS3.s 			page 13


 173      226EE1E8 
 173      0EB6
 174 0524 4661CCBA 		.ascii	"Fa\314\272\224\272V\213a\312}\261#\331\307\016\006\220"
 174      94BA568B 
 174      61CA7DB1 
 174      23D9C70E 
 174      0690
 175 0536 7AAAAA74 		.ascii	"z\252\252t\201\246T\331\367\022\366(#\223\217\022\361"
 175      81A654D9 
 175      F712F628 
 175      23938F12 
 175      F1
 176 0547 5A6E10AB 		.ascii	"Zn\020\2531CH\374\304t9-\003\265N\307\306\345LTr\015"
 176      314348FC 
 176      C474392D 
 176      03B54EC7 
 176      C6E54C54 
 177 055d 9CB55160 		.ascii	"\234\265Q`\331r\207i'5\221\200cU\265]\304\364\243\224"
 177      D9728769 
 177      27359180 
 177      6355B55D 
 177      C4F4A394 
 178 0571 129EC8A3 		.ascii	"\022\236\310\243\263$g?YA\277-\351\215Y\2350\306\364"
 178      B324673F 
 178      5941BF2D 
 178      E98D599D 
 178      30C6F4
 179 0584 59C1C2E4 		.ascii	"Y\301\302\344^\037\0376em\362f\013\223\343G\214a\024"
 179      5E1F1F36 
 179      656DF266 
 179      0B93E347 
 179      8C6114
 180 0597 54D773A6 		.ascii	"T\327s\246\375\323D\202C\255\006\223M\367\025\272\026"
 180      FDD34482 
 180      43AD0693 
 180      4DF715BA 
 180      16
 181 05a8 ACB8B472 		.ascii	"\254\270\264rq\255\252\243\256t\244sT\275\006\222\227"
 181      71ADAAA3 
 181      AE74A473 
 181      54BD0692 
 181      97
 182 05b9 CA51A651 		.ascii	"\312Q\246Q\020\262\254\035\265\315\302Q\375\015\216"
 182      10B2AC1D 
 182      B5CDC251 
 182      FD0D8E
 183 05c8 DA667694 		.ascii	"\332fv\224nG2\221\340\320\036\203\243\320\210\302B~"
 183      6E473291 
 183      E0D01E83 
 183      A3D088C2 
 183      427E
 184 05da 7AB5BFD2 		.ascii	"z\265\277\322_V\301\007B|\265X\303\207\202^\276^\254"
 184      5F56C107 
 184      427CB558 
 184      C387825E 
 184      BE5EAC
 185 05ed 29F4A209 		.ascii	")\364\242\011\275;\353\003A9\304W\314\2353\241\230\237"
ARM GAS  /tmp/cc80SRS3.s 			page 14


 185      BD3BEB03 
 185      4139C457 
 185      CC9D33A1 
 185      989F
 186 05ff 3DBB849F 		.ascii	"=\273\204\237Y>\253\354\275b:^\250\251\361\025V#\227"
 186      593EABEC 
 186      BD623A5E 
 186      A8A9F115 
 186      562397
 187 0612 3F40C7D4 		.ascii	"?@\307\324\212\241w\004\271\317\3147\347\271\247\243"
 187      8AA17704 
 187      B9CFCC37 
 187      E7B9A7A3 
 188 0622 105F57C5 		.ascii	"\020_W\305\344e\276:P+\361A)$\211Ao5 \006}\357\213A"
 188      E465BE3A 
 188      502BF141 
 188      29248941 
 188      6F352006 
 189 063a 891783B5 		.ascii	"\211\027\203\265\305\374B\257\267\000*\005Rm\245\344"
 189      C5FC42AF 
 189      B7002A05 
 189      526DA5E4 
 190 064a F349BEF8 		.ascii	"\363I\276\370\203\272@\235T \211\225\376\202\211\302"
 190      83BA409D 
 190      54208995 
 190      FE8289C2 
 191 065a E482E2F1 		.ascii	"\344\202\342\361E\023\337-\346\015\035\274\277\316["
 191      4513DF2D 
 191      E60D1DBC 
 191      BFCE5B
 192 0669 D3E093F8 		.ascii	"\323\340\223\370\220\354\363\327\311\300#\247\001\376"
 192      90ECF3D7 
 192      C9C023A7 
 192      01FE
 193 0677 27140B72 		.ascii	"'\024\013r\023\376\377\264\327\212\336j\177\235\304"
 193      13FEFFB4 
 193      D78ADE6A 
 193      7F9DC4
 194 0686 0B3EA94A 		.ascii	"\013>\251Jl\250\221\005yQ\275\024\0026\271\202\240\361"
 194      6CA89105 
 194      7951BD14 
 194      0236B982 
 194      A0F1
 195 0698 71F776AA 		.ascii	"q\367v\2526\235z\275\0329f\225Mk\010\271Br-\014_X\357"
 195      369D7ABD 
 195      1A396695 
 195      4D6B08B9 
 195      42722D0C 
 196 06af 0F08B263 		.ascii	"\017\010\262cNY\311\014O\237\262\271o\225\317\360\364"
 196      4E59C90C 
 196      4F9FB2B9 
 196      6F95CFF0 
 196      F4
 197 06c0 2DAB289F 		.ascii	"-\253(\2371\243\304\343(\237W^\342\261\315\002)+\361"
 197      31A3C4E3 
 197      289F575E 
 197      E2B1CD02 
ARM GAS  /tmp/cc80SRS3.s 			page 15


 197      292BF1
 198 06d3 E0F9CCE2 		.ascii	"\340\371\314\342\242I\202\254*\243U[H\222\035\336\032"
 198      A24982AC 
 198      2AA3555B 
 198      48921DDE 
 198      1A
 199 06e4 B01797DA 		.ascii	"\260\027\227\332\247Ux<\366\331\323\337\360\330_{\335"
 199      A755783C 
 199      F6D9D3DF 
 199      F0D85F7B 
 199      DD
 200 06f5 339B16A5 		.ascii	"3\233\026\245\266i\036O\256\0221\277\017\342\245T\354"
 200      B6691E4F 
 200      AE1231BF 
 200      0FE2A554 
 200      EC
 201 0706 347A2E8A 		.ascii	"4z.\212!T\211!y2t\004\252\252\000*\027\030z$\321\007"
 201      21548921 
 201      79327404 
 201      AAAA002A 
 201      17187A24 
 202 071c FC6C950D 		.ascii	"\374l\225\015\241~\320\234\037\364\313\022\264\355\225"
 202      A17ED09C 
 202      1FF4CB12 
 202      B4ED95
 203 072b 7E3994E3 		.ascii	"~9\224\343\017\324\006|\222 \367\207\236\012I\206\347"
 203      0FD4067C 
 203      9220F787 
 203      9E0A4986 
 203      E7
 204 073c 73A06DA7 		.ascii	"s\240m\247\017\207\012j\222\010\000\2640\030h\250\247"
 204      0F870A6A 
 204      920800B4 
 204      301868A8 
 204      A7
 205 074d 4FED5E88 		.ascii	"O\355^\210B\216 T5\324y\005\241\277V)|e\374\224\"Ck"
 205      428E2054 
 205      35D47905 
 205      A1BF5629 
 205      7C65FC94 
 206 0764 92AE5534 		.ascii	"\222\256U4\276\350_\027H\257\236"
 206      BEE85F17 
 206      48AF9E
 207              		.text
 208              		.section	.gnu.lto_.symtab.1a63bd08e5062557,"",%progbits
 209 0000 70616C52 		.ascii	"palReadBus\000\000\000\000\000\000\000\000\000\000\000"
 209      65616442 
 209      75730000 
 209      00000000 
 209      00000000 
 210 0015 00A10000 		.ascii	"\000\241\000\000\000palWriteBus\000\000\000\000\000"
 210      0070616C 
 210      57726974 
 210      65427573 
 210      00000000 
 211 002a 00000000 		.ascii	"\000\000\000\000\000\000\000\364\000\000\000palSetB"
 211      000000F4 
ARM GAS  /tmp/cc80SRS3.s 			page 16


 211      00000070 
 211      616C5365 
 211      7442
 212 003c 75734D6F 		.ascii	"usMode\000\000\000\000\000\000\000\000\000\000\000\000"
 212      64650000 
 212      00000000 
 212      00000000 
 212      0000
 213 004e FD000000 		.ascii	"\375\000\000\000_pal_lld_setgroupmode\000\000\002\000"
 213      5F70616C 
 213      5F6C6C64 
 213      5F736574 
 213      67726F75 
 214 006b 00000000 		.ascii	"\000\000\000\000\000\000\000\000\011\001\000\000"
 214      00000000 
 214      09010000 
 215              		.text
 216              		.section	.gnu.lto_.opts,"",%progbits
 217 0000 272D6D63 		.ascii	"'-mcpu=cortex-m4' '-mno-thumb-interwork' '-mthumb' "
 217      70753D63 
 217      6F727465 
 217      782D6D34 
 217      2720272D 
 218 0033 272D6767 		.ascii	"'-ggdb' '-O2' '-fomit-frame-pointer' '-falign-funct"
 218      64622720 
 218      272D4F32 
 218      2720272D 
 218      666F6D69 
 219 0066 696F6E73 		.ascii	"ions=16' '-ffunction-sections' '-fdata-sections' '-"
 219      3D313627 
 219      20272D66 
 219      66756E63 
 219      74696F6E 
 220 0099 666E6F2D 		.ascii	"fno-common' '-flto'\000"
 220      636F6D6D 
 220      6F6E2720 
 220      272D666C 
 220      746F2700 
 221              		.text
 222              		.cfi_sections	.debug_frame
 223              		.section	.text.palReadBus,"ax",%progbits
 224              		.align	2
 225              		.p2align 4,,15
 226              		.global	palReadBus
 227              		.thumb
 228              		.thumb_func
 229              		.type	palReadBus, %function
 230              	palReadBus:
 231              	.LFB272:
 232              		.file 1 "../ChibiOS/os/hal/src/pal.c"
 233              		.loc 1 65 0
 234              		.cfi_startproc
 235              		@ args = 0, pretend = 0, frame = 0
 236              		@ frame_needed = 0, uses_anonymous_args = 0
 237              		@ link register save eliminated.
 238              	.LVL0:
 239              		.loc 1 69 0
ARM GAS  /tmp/cc80SRS3.s 			page 17


 240 0000 0368     		ldr	r3, [r0]
 241 0002 8268     		ldr	r2, [r0, #8]
 242 0004 1969     		ldr	r1, [r3, #16]
 243 0006 4368     		ldr	r3, [r0, #4]
 244 0008 21FA02F0 		lsr	r0, r1, r2
 245              	.LVL1:
 246              		.loc 1 70 0
 247 000c 1840     		ands	r0, r0, r3
 248 000e 7047     		bx	lr
 249              		.cfi_endproc
 250              	.LFE272:
 251              		.size	palReadBus, .-palReadBus
 252              		.section	.text.palWriteBus,"ax",%progbits
 253              		.align	2
 254              		.p2align 4,,15
 255              		.global	palWriteBus
 256              		.thumb
 257              		.thumb_func
 258              		.type	palWriteBus, %function
 259              	palWriteBus:
 260              	.LFB273:
 261              		.loc 1 90 0
 262              		.cfi_startproc
 263              		@ args = 0, pretend = 0, frame = 0
 264              		@ frame_needed = 0, uses_anonymous_args = 0
 265              		@ link register save eliminated.
 266              	.LVL2:
 267              		.loc 1 94 0
 268 0000 0DC8     		ldmia	r0, {r0, r2, r3}
 269              	.LVL3:
 270              		.loc 1 90 0
 271 0002 30B4     		push	{r4, r5}
 272              		.cfi_def_cfa_offset 8
 273              		.cfi_offset 4, -8
 274              		.cfi_offset 5, -4
 275              		.loc 1 94 0
 276 0004 22EA0105 		bic	r5, r2, r1
 277 0008 03F11004 		add	r4, r3, #16
 278 000c 0A40     		ands	r2, r2, r1
 279 000e 02FA03F3 		lsl	r3, r2, r3
 280 0012 05FA04F2 		lsl	r2, r5, r4
 281 0016 1343     		orrs	r3, r3, r2
 282 0018 8361     		str	r3, [r0, #24]
 283              		.loc 1 95 0
 284 001a 30BC     		pop	{r4, r5}
 285 001c 7047     		bx	lr
 286              		.cfi_endproc
 287              	.LFE273:
 288              		.size	palWriteBus, .-palWriteBus
 289 001e 00BF     		.section	.text.palSetBusMode,"ax",%progbits
 290              		.align	2
 291              		.p2align 4,,15
 292              		.global	palSetBusMode
 293              		.thumb
 294              		.thumb_func
 295              		.type	palSetBusMode, %function
 296              	palSetBusMode:
ARM GAS  /tmp/cc80SRS3.s 			page 18


 297              	.LFB274:
 298              		.loc 1 113 0
 299              		.cfi_startproc
 300              		@ args = 0, pretend = 0, frame = 0
 301              		@ frame_needed = 0, uses_anonymous_args = 0
 302              		@ link register save eliminated.
 303              	.LVL4:
 304 0000 10B4     		push	{r4}
 305              		.cfi_def_cfa_offset 4
 306              		.cfi_offset 4, -4
 307              		.loc 1 113 0
 308 0002 0A46     		mov	r2, r1
 309              		.loc 1 117 0
 310 0004 4468     		ldr	r4, [r0, #4]
 311 0006 8168     		ldr	r1, [r0, #8]
 312              	.LVL5:
 313 0008 0068     		ldr	r0, [r0]
 314              	.LVL6:
 315 000a 04FA01F1 		lsl	r1, r4, r1
 316              		.loc 1 118 0
 317 000e 5DF8044B 		ldr	r4, [sp], #4
 318              		.loc 1 117 0
 319 0012 FFF7FEBF 		b	_pal_lld_setgroupmode
 320              	.LVL7:
 321              		.cfi_endproc
 322              	.LFE274:
 323              		.size	palSetBusMode, .-palSetBusMode
 324 0016 00BFAFF3 		.text
 324      0080AFF3 
 324      0080
 325              	.Letext0:
 326              		.file 2 "/nfs/nfs5/home/research/hardware/arm2/gcc-arm-embedded/gcc-arm-none-eabi-4_8-2014q2/arm-n
 327              		.file 3 "/nfs/nfs5/home/research/hardware/arm2/gcc-arm-embedded/gcc-arm-none-eabi-4_8-2014q2/arm-n
 328              		.file 4 "../ChibiOS/os/rt/ports/ARMCMx/compilers/GCC/chtypes.h"
 329              		.file 5 "../ChibiOS/os/rt/include/chsystypes.h"
 330              		.file 6 "../ChibiOS/os/rt/include/chschd.h"
 331              		.file 7 "../ChibiOS/os/rt/ports/ARMCMx/chcore.h"
 332              		.file 8 "../ChibiOS/os/rt/ports/ARMCMx/chcore_v7m.h"
 333              		.file 9 "../ChibiOS/os/rt/include/chtm.h"
 334              		.file 10 "../ChibiOS/os/rt/include/chsem.h"
 335              		.file 11 "../ChibiOS/os/rt/include/chmtx.h"
 336              		.file 12 "../ChibiOS/os/hal/ports/STM32/LLD/GPIOv2/pal_lld.h"
 337              		.file 13 "../ChibiOS/os/hal/include/pal.h"
 338              		.file 14 "../ChibiOS/os/ext/CMSIS/include/core_cm4.h"