ARM GAS  /tmp/cc80SRS3.s 			page 1


   1              		.syntax unified
   2              		.cpu cortex-m4
   3              		.fpu softvfp
   4              		.eabi_attribute 20, 1
   5              		.eabi_attribute 21, 1
   6              		.eabi_attribute 23, 3
   7              		.eabi_attribute 24, 1
   8              		.eabi_attribute 25, 1
   9              		.eabi_attribute 26, 1
  10              		.eabi_attribute 30, 2
  11              		.eabi_attribute 34, 1
  12              		.eabi_attribute 18, 4
  13              		.thumb
  14              		.file	"pal.c"
  15              		.text
  16              	.Ltext0:
  17              		.section	.gnu.lto_.jmpfuncs.1a63bd08e5062557,"",%progbits
  18 0000 789C6362 		.ascii	"x\234cb`b\300\006D\24043\003##3\02333\204\315\300X\006"
  18      6062C006 
  18      44A03433 
  18      03232333 
  18      13333384 
  19 0018 A4010623 		.ascii	"\244\001\006#\000\243"
  19      00A3
  20              		.text
  21              		.section	.gnu.lto_.inline.1a63bd08e5062557,"",%progbits
  22 0000 789C6362 		.ascii	"x\234cb`b\300\006\276Cif\006\006N\016Ff\006F0\023D:"
  22      6062C006 
  22      BE436966 
  22      06064E0E 
  22      46660646 
  23 0018 8049050E 		.ascii	"\200I\005\016\266\017z\014l\013\344\231\030\030_\260"
  23      B60F7A0C 
  23      6C0BE499 
  23      18185FB0 
  24 0028 B3404810 		.ascii	"\263@H\020\301\001fr\200\010\0010S\000d\014#\003\037"
  24      C1016672 
  24      80080130 
  24      5300640C 
  24      23031F
  25 003b 2F230BC4 		.ascii	"/#\013\304\024FF\210\010\320\020\210\201\334L\027\370"
  25      14464688 
  25      08D01088 
  25      81DC4C17 
  25      F8
  26 004c 318C028A 		.ascii	"1\214\002\212\241\030\302\262@^\002\304R`b`\336!\256"
  26      A118C2B2 
  26      405E02C4 
  26      52606260 
  26      DE21AE
  27 005f C000B4DE 		.ascii	"\300\000\264\336\002d\016\023\003\2670\212\373\240\206"
  27      02640E13 
  27      03B7308A 
  27      FBA086
  28 006e 7202E588 		.ascii	"r\002\345\210s\036\320&\011\220I,\274@}\023\374@\220"
  28      731ED026 
  28      0990492C 
ARM GAS  /tmp/cc80SRS3.s 			page 2


  28      BC407D13 
  28      FC4090
  29 0081 01003C62 		.ascii	"\001\000<b\037\210"
  29      1F88
  30              		.text
  31              		.section	.gnu.lto_.pureconst.1a63bd08e5062557,"",%progbits
  32 0000 789C6362 		.ascii	"x\234cb`b`g\200\000f\006)F)&I\000\001\312\000_"
  32      60626067 
  32      80006606 
  32      29462926 
  32      490001CA 
  33              		.text
  34              		.section	.gnu.lto_palReadBus.1a63bd08e5062557,"",%progbits
  35 0000 789C6D90 		.ascii	"x\234m\220\261J\003A\020\206\377\177\366.w\227\302^"
  35      B14A0341 
  35      1086FF7F 
  35      F62E7797 
  35      C25E
  36 0012 10B13670 		.ascii	"\020\2616p\367\020>\200\205\021\324.\271\"9HP\314\003"
  36      F7103E80 
  36      8511D42E 
  36      B9223948 
  36      50CC03
  37 0025 E4CCA5B2 		.ascii	"\344\314\245\262\012V\242\225\215\205El\005\033\261"
  37      0A56A295 
  37      8D85456C 
  37      051BB1
  38 0034 B08B686B 		.ascii	"\260\213hk%\330\212\257\020g7\336\211\222\205\375gw"
  38      25D88AAF 
  38      106737DE 
  38      899285FD 
  38      6777
  39 0046 76BE7F86 		.ascii	"v\276\177\206\025\010\376\257U\335\247\004\3265\322"
  39      1508FEAF 
  39      55DDA704 
  39      D635D2
  40 0055 80327906 		.ascii	"\2002y\006NB!\355\001\304P8\334\247\253\275\225\207"
  40      4E4221ED 
  40      01C45038 
  40      DCA7ABBD 
  40      9587
  41 0067 F7F97C7A 		.ascii	"\367\371|z\366t\375\311s\251\013\373\204AFx*\364U\244"
  41      F674FDC9 
  41      73A90BFB 
  41      84414678 
  41      2AF455A4 
  42 007b A662027B 		.ascii	"\246b\002{\015\255D*\236\222>\306y>\331\350S\215Rg\326"
  42      0DAD442A 
  42      9E923EC6 
  42      793ED9E8 
  42      538D5267 
  43 0090 54B51D76 		.ascii	"T\265\035v)6\232\031Fow\037/l\361J\235:4\015lf\364/"
  43      29369A19 
  43      466F771F 
  43      2F6CF14A 
  43      9D3A340D 
  44 00a8 71C18CB5 		.ascii	"q\301\214\265\016eOc\340\306h\263\034~\206\307\203\022"
ARM GAS  /tmp/cc80SRS3.s 			page 3


  44      0E654F63 
  44      E0C668B3 
  44      1C7E86C7 
  44      8312
  45 00ba F01AB8C9 		.ascii	"\360\032\270\311\307Z\024.\230H=,\343\3770\254\230Q"
  45      C75A142E 
  45      98483D2C 
  45      E3FF30AC 
  45      9851
  46 00cc C5F8AE49 		.ascii	"\305\370\256I}y\023\371\005\276LIh\221oS\305\264J\005"
  46      7D7913F9 
  46      05BE4C49 
  46      68916F53 
  46      C5B44A05 
  47 00e0 DA5B1FFE 		.ascii	"\332[\037\376:\207\316\331[\356l*\347\342\276X)\221"
  47      3A87CED9 
  47      5BEE6C2A 
  47      E7E2BE58 
  47      2991
  48 00f2 C85985C0 		.ascii	"\310Y\205\300+\252_\210\026\205M\235^?\311N\264\026"
  48      2BAA5F88 
  48      16854D9D 
  48      5E3FC94E 
  48      B416
  49 0104 C7C95637 		.ascii	"\307\311V7kg\333;\311\341 \351\266z\311\3408M\216Z\275"
  49      6B67DB3B 
  49      C9E120E9 
  49      B67AC9E0 
  49      384D8E5A 
  50 0119 38C537E5 		.ascii	"8\3057\3451S\303"
  50      3153C3
  51              		.text
  52              		.section	.gnu.lto_palWriteBus.1a63bd08e5062557,"",%progbits
  53 0000 789C6D51 		.ascii	"x\234mQ=K\303P\024\275\367\2754M\322/\335\024D\0047"
  53      3D4BC350 
  53      14BDF7BD 
  53      344DD22F 
  53      DD144404 
  54 0015 0BCD0F70 		.ascii	"\013\315\017ptrr\260\202\272\245\035\332@\213b\177@"
  54      747272B0 
  54      82BAA51D 
  54      DA408B62 
  54      7F40
  55 0027 5BEDE0D8 		.ascii	"[\355\340\330\331N\256\202uq\021\005\305\301M\301M\234"
  55      D94EAE82 
  55      75711105 
  55      C5C14DC1 
  55      4D9C
  56 0039 FA0B7471 		.ascii	"\372\013tq\024\352\271/M\212\245\201\234{\337y\367\236"
  56      14EAB92F 
  56      4D8AA581 
  56      9C7BDF79 
  56      F79E
  57 004b 7B6EA248 		.ascii	"{n\242H\321\354\263\214w\023\364*\"kb\325\177#\352:"
  57      D1ECB38C 
  57      7713F42A 
  57      226B62D5 
ARM GAS  /tmp/cc80SRS3.s 			page 4


  57      7F23EA3A 
  58 005f 8A591262 		.ascii	"\212Y\022bj+n\037\260\251\275QO\243\361x\370\363r\373"
  58      6A2B6E1F 
  58      B0A9BD51 
  58      4FA3F178 
  58      F8F372FB 
  59 0073 CB03B5A8 		.ascii	"\313\003\265\250\270\311\244)d\262\220q\012\031\333"
  59      B8C9A429 
  59      64B29071 
  59      0A19DB
  60 0082 02690107 		.ascii	"\002i\001\007\240\\\001\017\2403\302e\005rr\314KV\020"
  60      A05C010F 
  60      A033C265 
  60      057272CC 
  60      4B5610
  61 0095 806E8A7A 		.ascii	"\200n\212z\235N\177\255\311\360Q5\243\312@\231\277\007"
  61      9D4E7FAD 
  61      C9F05135 
  61      A3CA4099 
  61      BF07
  62 00a7 0A51BFD2 		.ascii	"\012Q\277\322\351\347\307\367R\300\227\030Sc]\244\215"
  62      E9E7C7F7 
  62      52C09718 
  62      53635DA4 
  62      8D
  63 00b8 90AD015D 		.ascii	"\220\255\001]p\310\251\032\253}D\333x\254p\274\031z"
  63      70C8A91A 
  63      AB7D44DB 
  63      78AC70BC 
  63      197A
  64 00ca 1E74DC81 		.ascii	"\036t\334\201\"\313P\2071c\033\215\364|\015N4\316\356"
  64      22CB5087 
  64      31631B8D 
  64      F47C0D4E 
  64      34CEEE
  65 00dd 138DB491 		.ascii	"\023\215\264\221\261\377\3138F\306\231/\243\2462\347"
  65      B1FFCB38 
  65      46C6992F 
  65      A3A632E7 
  66 00ed 898C8B26 		.ascii	"\211\214\213&)R\013\221\311\257\344\306\303\245)\276"
  66      29520B91 
  66      C9AFE4C6 
  66      C3A529BE 
  67 00fd 4EA88C19 		.ascii	"N\250\214\031\353\3158\311b\233\330\311\264=\007\341"
  67      EBCD38C9 
  67      629BD8C9 
  67      B43D07E1 
  68 010d 99F6BCA9 		.ascii	"\231\366\274\251\315\031\366.a\013F7/\354\363vD\026"
  68      CD19F62E 
  68      610B4637 
  68      2FECF376 
  68      4416
  69 011f E9AAD383 		.ascii	"\351\252\323\203)7N\274h#\324i1kM6\322\223\030\235!"
  69      29374EBC 
  69      6823D469 
  69      316B4D36 
  69      D293189D 
ARM GAS  /tmp/cc80SRS3.s 			page 5


  70 0134 45F44EDD 		.ascii	"E\364N\335\321\343z$\023?e|A\3747\331\177\245T\362\267"
  70      D1E37A24 
  70      133F657C 
  70      41FC37D9 
  70      7FA554F2 
  71 0149 EA6125DC 		.ascii	"\352a%\334\331\365\217Z~=h\370\255\223\252\177\0344"
  71      D9F58F5A 
  71      7E3D68F8 
  71      AD93AA7F 
  71      1C34
  72 015b 4A55FA03 		.ascii	"JU\372\003\\\024t:"
  72      5C14743A 
  73              		.text
  74              		.section	.gnu.lto_palSetBusMode.1a63bd08e5062557,"",%progbits
  75 0000 789C6D90 		.ascii	"x\234m\220\277J\003A\020\306\277o\367\376\231\312RA"
  75      BF4A0341 
  75      10C6BF6F 
  75      F7FE99CA 
  75      5241
  76 0012 44B053B8 		.ascii	"D\260S\270}\010\037\300\302\010jw9\360\262\220\240\230"
  76      7D081FC0 
  76      C2086A77 
  76      39F0B290 
  76      A098
  77 0024 D22217B5 		.ascii	"\322\"\027\265\260L\255 \370\000\232\326\322\316J\203"
  77      B04CAD20 
  77      F8009AD6 
  77      D2CE4A83 
  78 0034 96567900 		.ascii	"\226Vy\000\311\003h\021g7\236\202\334\300\316\354~;"
  78      C9036811 
  78      67379E82 
  78      DCC0CEEC 
  78      7E3B
  79 0046 BF99D955 		.ascii	"\277\231\331UP\370o\313\262\016\011\254J\244\006\325"
  79      50F86FCB 
  79      B20E09AC 
  79      4AA406D5 
  80 0056 F0051824 		.ascii	"\360\005\030$\212t\033\020}\305\376>}\356H=Nf\263\373"
  80      8A741B10 
  80      7DC5FE3E 
  80      7DEE483D 
  80      4E66B3FB 
  81 006a B7A7D107 		.ascii	"\267\247\321\007oTC\261KhX\"\020\307P\234\212\304\351"
  81      6F5443B1 
  81      4B685822 
  81      10C7509C 
  81      8AC4E9
  82 007d D81D13B9 		.ascii	"\330\035\023\271uX\210\213\262\034\256u)\275s_\247)"
  82      7558888B 
  82      B21CAE75 
  82      29BD735F 
  82      A729
  83 008f DE15DF15 		.ascii	"\336\025\337\025I\242~\306\331\373\303\327R\306[\251"
  83      49A27EC6 
  83      D9FBC3D7 
  83      52C65BA9 
  84 009f 51506F62 		.ascii	"QPob\3032\270\306\025-\303\202jOb\344\007h\261\032["
ARM GAS  /tmp/cc80SRS3.s 			page 6


  84      C332B8C6 
  84      152DC382 
  84      6A4F62E4 
  84      0768B11A 
  85 00b4 98830A08 		.ascii	"\230\203\012\010<\020\327\003\254\001B\017$\365\200"
  85      3C10D703 
  85      AC01420F 
  85      24F580
  86 00c3 FA03A6BA 		.ascii	"\372\003\246\272\"\"\201\234t~\367+\305\322\270p\324"
  86      2222819C 
  86      747EF72B 
  86      C5D2B870 
  86      D4
  87 00d4 18D15C03 		.ascii	"\030\321\\\003N\361Y^\226\213\226\013\371Ocy\216OM,"
  87      4EF1595E 
  87      968B960B 
  87      F94F6379 
  87      8E4F4D2C 
  88 00e8 1BC02B06 		.ascii	"\033\300+\006\223\351z\225=\267\246d\312/\270\266+i"
  88      93E97A95 
  88      3DB7A664 
  88      CA2FB8B6 
  88      2B69
  89 00fa 6AB6DAB6 		.ascii	"j\266\332\266e\267w\314Q\317\264\263\216\351\235\344"
  89      65B777CC 
  89      51CFB4B3 
  89      8EE99DE4 
  90 010a E638EBA4 		.ascii	"\3468\353\2449\276\001}UNr"
  90      39BE017D 
  90      554E72
  91              		.text
  92              		.section	.gnu.lto_.symbol_nodes.1a63bd08e5062557,"",%progbits
  93 0000 789C4DC7 		.ascii	"x\234M\307\261\015\2000\024CA\373\375\331\230\313))"
  93      B10D8030 
  93      144341FB 
  93      FDD998CB 
  93      2929
  94 0012 03122D0D 		.ascii	"\003\022-\015\373\260C\026A\024 \301u\207\320\244\027"
  94      FBB04316 
  94      411420C1 
  94      7587D0A4 
  94      17
  95 0023 9D48FD94 		.ascii	"\235H\375\224\222}6\013\361\257+\341\2537RO[sQ:\306"
  95      927D360B 
  95      F1AF2BE1 
  95      AB37524F 
  95      5B73513A 
  96 0038 65DDCE89 		.ascii	"e\335\316\211\024\225"
  96      1495
  97              		.text
  98              		.section	.gnu.lto_.refs.1a63bd08e5062557,"",%progbits
  99 0000 789C6362 		.ascii	"x\234cb`b`d\200\002\000\000F\000\006"
  99      60626064 
  99      80020000 
  99      460006
 100              		.text
 101              		.section	.gnu.lto_.decls.1a63bd08e5062557,"",%progbits
ARM GAS  /tmp/cc80SRS3.s 			page 7


 102 0000 789CBD58 		.ascii	"x\234\275X{l\024E\030\237\331\273\203^9\312KHI\210\034"
 102      7B6C1445 
 102      189FD9BB 
 102      835E39CA 
 102      4B484988 
 103 0015 460C21B4 		.ascii	"F\014!\264K\013\"\374C\024\212\224\010\266\271B\300"
 103      4B0B22FC 
 103      43148A94 
 103      08B6B942 
 103      C0
 104 0026 BFD6EDDD 		.ascii	"\277\326\355\335\226^l{\365n\253!1qJy\205D)E^\001\313"
 104      965E6C7B 
 104      F56EAB21 
 104      31714A79 
 104      85442945 
 105 003d 01226008 		.ascii	"\001\"`\010 P\020(x \322\012H\011F\224\030\343\201\020"
 105      20501028 
 105      7820D20A 
 105      48094694 
 105      18E38110 
 106 0051 D2800920 		.ascii	"\322\200\011 DD\312\371\315\354\356\335\356\366\366"
 106      4444CAF9 
 106      CDECEEDD 
 106      EEF6F6
 107 0060 1E247AC9 		.ascii	"\036$z\31177\2633\363\373~\337c\036\273\034\342\320"
 107      3737B333 
 107      F3FB7EDF 
 107      631EBB1C 
 107      E2D0
 108 0072 0718A118 		.ascii	"\007\030\241\030\374\026=\207\320Q\016!;Bh*J\374h{+"
 108      FC163D87 
 108      D0510E21 
 108      3B42682A 
 108      4AFC687B 
 109 0087 C803901E 		.ascii	"\310\003\220\036\020'F\275~\264\277\037\310-\220\276"
 109      102746BD 
 109      7EB4BF1F 
 109      C82D90BE 
 110 0097 200E75DE 		.ascii	" \016u\336v\2206\220} {A\332A\016\203\334Q\373\017\201"
 110      76903690 
 110      7D207B41 
 110      DA410E83 
 110      DC51FB0F 
 111 00ac 9C01B90D 		.ascii	"\234\001\271\015\322\015\202U,\240\201\356\201\0140"
 111      D20D8255 
 111      2CA081EE 
 111      810C30
 112 00bb E9A21C5C 		.ascii	"\351\242\034\\I\364\350ulW\361\251\256\357T}\016UW\267"
 112      49F4E875 
 112      6C57F1A9 
 112      AEEF547D 
 112      0E5557B7 
 113 00cf AAAB13E4 		.ascii	"\252\253\023\344\202\252\217b\332@\376\006y\0142\334"
 113      82AA8F62 
 113      DA40FE06 
 113      790C32DC 
 114 00df A4B3C7C2 		.ascii	"\244\263\307\302\266d:\237\207\271\271X\301\323\353"
ARM GAS  /tmp/cc80SRS3.s 			page 8


 114      B6643A9F 
 114      87B9B958 
 114      C1D3EB
 115 00ee E374BEA3 		.ascii	"\343t\276\243}\016\370\357\0032\322\244k$j%\341ht\307"
 115      7D0EF8EF 
 115      0332D2A4 
 115      6B246A25 
 115      E16874C7 
 116 0102 F5BB7823 		.ascii	"\365\273x#\211,!\261\330\207h\030ZK\340\027^F\010\226"
 116      892C21B1 
 116      D8876818 
 116      5A4BE017 
 116      5E460896 
 117 0116 9D680521 		.ascii	"\235h\005!\213i\243\2643\017\241\005X\304yN\344f\025"
 117      8B69A3B4 
 117      330FA105 
 117      58C4794E 
 117      E46615
 118 0129 9793F11A 		.ascii	"\227\223\361\032\215>#\2449\032{\262s,!9\"\336\216\235"
 118      8D3E23A4 
 118      391A7BB2 
 118      732C2139 
 118      22DE8E9D 
 119 013d A0BF02A3 		.ascii	"\240\277\002\243\261h7\3404\303\374\342$!D\231CoY\376"
 119      B16837E0 
 119      34C3FCE2 
 119      24214499 
 119      436F59FE 
 120 0151 ED29BC18 		.ascii	"\355)\274\030\350\210x'\003\377\005c$\342\317\361\330"
 120      E8887827 
 120      03FF0563 
 120      24E2CFF1 
 120      D8
 121 0162 ACA136AE 		.ascii	"\254\2416\256j\237\302X~\301\200\2729#\220\210\373:"
 121      6A9FC258 
 121      7EC180BA 
 121      39239088 
 121      FB3A
 122 0174 F51C595B 		.ascii	"\365\034Y[\033@\321X\267Z\241I<\000\375\307\303\223"
 122      1B40D158 
 122      B75AA149 
 122      3C00FDC7 
 122      C393
 123 0186 D942676E 		.ascii	"\331Bgn\303\303X\315\306b\015\011\2632\341\201\301h"
 123      C3C358CD 
 123      C6620D09 
 123      B332E181 
 123      C168
 124 0198 358DA05B 		.ascii	"5\215\240[\347\213\267\265\371\256\204/\256\376t\241"
 124      E78BB7B5 
 124      F9AE842F 
 124      AEFE74A1 
 125 01a8 98F9621F 		.ascii	"\230\371b\037\036\014(kmF_\244C\241,\016\300Le\016\303"
 125      1E0C286B 
 125      6D465FA4 
 125      43A12C0E 
 125      C04C650E 
ARM GAS  /tmp/cc80SRS3.s 			page 9


 126 01bd 2491871D 		.ascii	"$\221\207\035.bW\236#\003\232\3417\012\205\201m\244"
 126      2E62579E 
 126      23039AE1 
 126      370A8581 
 126      6DA4
 127 01cf A763F370 		.ascii	"\247c\363p\022>\215\323\221\217r\232\336q\272|\013o"
 127      123E8DD3 
 127      918F729A 
 127      DE71BA7C 
 127      0B6F
 128 01e1 B131F687 		.ascii	"\2611\366\207\031\373M\351\331\033a(\275\243f\372\377"
 128      19FB4DE9 
 128      D91B6128 
 128      BDA366FA 
 128      FF
 129 01f2 5C64F48F 		.ascii	"\\d\364\217\246\247\277\244)\022\273\250\320g\331\327"
 129      A6A7BFA4 
 129      2912BBA8 
 129      D067D9D7 
 130 0202 9432FB44 		.ascii	"\2242\373D\274\013\217\316(\336\034\332\305,\241\024"
 130      BC0B8FCE 
 130      28DE1CDA 
 130      C52CA114 
 131 0212 9221A955 		.ascii	"\222!\251U\345\247\0160\322j\356r5\213\"ng\011\2767"
 131      E5A70E30 
 131      D26AEE72 
 131      358B226E 
 131      6709BE37 
 132 0226 6B30B701 		.ascii	"k0\267\001\254E\017\326\226\011X\2165\263O\364`'\262"
 132      AC450FD6 
 132      9609588E 
 132      35B34FF4 
 132      6027B2
 133 0239 0633325B 		.ascii	"\00632[\247\007\373&\023\260\201\326\3146\350\301:\262"
 133      A707FB26 
 133      13B081D6 
 133      CC36E8C1 
 133      3AB2
 134 024b 06D3336B 		.ascii	"\006\3233k\214\034\351:\207I\213k\010j!\244\221\204"
 134      8C1CE93A 
 134      87498B6B 
 134      086A21A4 
 134      9184
 135 025d FB582505 		.ascii	"\373X%\005Bl\010I9D\304\347\360\020c\222nZ\225G\223"
 135      426C0849 
 135      3944C4E7 
 135      F0106392 
 135      6E5A9547 
 136 0272 943E4FBF 		.ascii	"\224>O\277\306>\355R\222T\333:\3173\343\350\334g\310"
 136      C63EED52 
 136      9254DB3A 
 136      CF33E3E8 
 136      DC67C8
 137 0285 2E50DED6 		.ascii	".P\336\326\325\217\254t\251\253+\374\352\256\024\304"
 137      D58FAC74 
 137      A9AB2BFC 
 137      EAAE14C4 
ARM GAS  /tmp/cc80SRS3.s 			page 10


 138 0295 BBCCAB6B 		.ascii	"\273\314\253kK\027\347V\036\247\347\375e\327\346|\022"
 138      4B17E756 
 138      1EA7E7FD 
 138      65D7E67C 
 138      12
 139 02a6 3E85D5AD 		.ascii	">\205\325\255\235,#ct\272\006j\272\350\346\027?%\216"
 139      9D2C2363 
 139      74BA066A 
 139      BAE8E617 
 139      3F258E
 140 02b9 8C631BC2 		.ascii	"\214c\033\302ef\350\367\266\244gD\006@\033W\355T\316"
 140      6566E8F7 
 140      B6A46744 
 140      06401B57 
 140      ED54CE
 141 02cc 881F19D0 		.ascii	"\210\037\031\320\025\233\371\214\260\231\316\010\233"
 141      159BF98C 
 141      B099CE08 
 141      9B
 142 02d9 7155DB9C 		.ascii	"qU\333\234\211J,fC\331\015\346\3205\246\260+\221\177"
 142      894A2C66 
 142      43D90DE6 
 142      D035A6B0 
 142      2B917F
 143 02ec 0692E942 		.ascii	"\006\222\351B\2648\372\364F+s\235\346\211\233Y\343\015"
 143      B438FAF4 
 143      462B739D 
 143      E6899B59 
 143      E30D
 144 02fe 34C58443 		.ascii	"4\305\204C\267\2375mt\226+F\213\370\002\036\005\345"
 144      B79F356D 
 144      74962B46 
 144      8BF8021E 
 144      05E5
 145 0310 4528750A 		.ascii	"E(u\012\376\310d\321\345[\030\015+\370+\375\012\276"
 145      FEC864D1 
 145      E55B180D 
 145      2BF82BFD 
 145      0ABE
 146 0322 9F3598DB 		.ascii	"\2375\230\333\000vL\017\366W&`nkf\355z\260'Y\203\031"
 146      00764C0F 
 146      F6572660 
 146      6E6B66ED 
 146      7AB02759 
 147 0338 999DD483 		.ascii	"\231\235\324\2035\3323\000\033\223*(\206\370$NC\021"
 147      35DA3300 
 147      1B932A28 
 147      86F8244E 
 147      4311
 148 034a 1F63C7D5 		.ascii	"\037c\307\325q\026\251\223\254\214\260\3624+\317\260"
 148      7116A993 
 148      AC8CB0F2 
 148      342BCFB0 
 149 035a F22C2B3B 		.ascii	"\362,+;Y\371++\177c\3455V\376\256\217\257\365\215,\362"
 149      59F92B2B 
 149      7F63E535 
 149      56FEAE8F 
ARM GAS  /tmp/cc80SRS3.s 			page 11


 149      AFF58D2C 
 150 036f C3BA1174 		.ascii	"\303\272\021t7k\203[\000\207\226\332\215k\315p3P\216"
 150      376B835B 
 150      008796DA 
 150      8D6BCD70 
 150      33508E
 151 0382 7AABDDE6 		.ascii	"z\253\335\346\026\000$\337Tz\365q\250\231\3519\360l"
 151      160024DF 
 151      547AF571 
 151      A899E939 
 151      F06C
 152 0394 672C2CB1 		.ascii	"g,,\261\253\353\317\266\3405M\244s\274v\337]\2375\242"
 152      ABEBCFB6 
 152      E0354DA4 
 152      73BC76DF 
 152      5D9F35A2 
 153 03a8 5B8F18D9 		.ascii	"[\217\030\331\177\016\002\233\315\225\370\306=\334\304"
 153      7F0E029B 
 153      CD95F8C6 
 153      3DDCC4
 154 03b7 AEC47798 		.ascii	"\256\304w\230\376\315v\363.\3450\355R\016\343\306\343"
 154      FECD76F3 
 154      2EE530ED 
 154      520EE3C6 
 154      E3
 155 03c8 70262AF1 		.ascii	"p&*\361\273\307\356L\254Hv\302'\317\250\003\272\214"
 155      BBC7EE4C 
 155      AC4876C2 
 155      27CFA803 
 155      BA8C
 156 03da 3AC832EA 		.ascii	":\3102\352\020\313\215nV\336N\227!\024b/\356\227\300"
 156      10CB8D6E 
 156      56DE4E97 
 156      2114622F 
 156      EE97C0
 157 03ed 9B97D84C 		.ascii	"\233\227\330L9\264\337d\361\213h;!-\360.\023\261\303"
 157      39B4DF64 
 157      F18B683B 
 157      212DF02E 
 157      13B1C3
 158 0400 BB8C5D99 		.ascii	"\273\214]\231\312\241\343l\330V<\322\342b\246*x\011"
 158      CAA1E36C 
 158      D8563CD2 
 158      E262A62A 
 158      7809
 159 0412 EDA0AE3F 		.ascii	"\355\240\256?q\243\274T\011)J1K\245s\027sz{\225\227"
 159      71A3BC54 
 159      09294A31 
 159      4BA57317 
 159      737A7B95 
 160 0427 A9C8C365 		.ascii	"\251\310\303e\347\341\370'O\350nnx\227\022\361\324\241"
 160      E7E1F827 
 160      4FE86E6E 
 160      789712F1 
 160      D4A1
 161 0439 96763E34 		.ascii	"\226v>4\336\347\025^\361\206B\310\354\201\257\223z\200"
 161      DEE7155E 
ARM GAS  /tmp/cc80SRS3.s 			page 12


 161      F18642C8 
 161      EC81AF93 
 161      7A80
 162 044b FCE92B55 		.ascii	"\374\351+U\246\213\370>0\024\361\203\324\306\253\323"
 162      A68BF83E 
 162      3014F183 
 162      D4C6ABD3 
 163 045b 8E48A55A 		.ascii	"\216H\245Z2\237g\300\326\323T:\314g\204|D\226\016\304"
 163      329F67C0 
 163      D6D3543A 
 163      CC67847C 
 163      44960EC4 
 164 046f CC38A4CE 		.ascii	"\3148\244\3162$\301\243\244^\272\334\341jn\214\306b"
 164      3224C1A3 
 164      A45EBADC 
 164      E16A6E8C 
 164      C662
 165 0481 233377D1 		.ascii	"#3w\321\323\024.\312\342=u\377\036\345=\265\221\243"
 165      D3142ECA 
 165      E23D75FF 
 165      1EE53DB5 
 165      91A3
 166 0493 A65EEAB5 		.ascii	"\246^\352\265nv\342gy\0054\205\346\252Er>\376\331\226"
 166      6E76E267 
 166      79053485 
 166      E6AA4572 
 166      3EFED996 
 167 04a7 484E2D3E 		.ascii	"HN->=\031\305\347 \215\217B\372\026C\267\236FGY\305"
 167      3D19C5E7 
 167      208D8F42 
 167      FA1643B7 
 167      9E464759 
 168 04bc A7C71C9F 		.ascii	"\247\307\034\237%\\\257\370D\251\233\3166\342\325M\341"
 168      255CAFF8 
 168      44A99BCE 
 168      36E2D54D 
 168      E1
 169 04cd 4E72979A 		.ascii	"Nr\227\232\230y\224Vr\246(\265%I\344x[ej\362\336\035"
 169      98799456 
 169      72A628B5 
 169      2549E478 
 169      5B656AF2 
 170 04e3 93F734AA 		.ascii	"\223\3674\252\037\033\251\276\200\266\222K\227\2427"
 170      1F1BA9BE 
 170      80B6924B 
 170      97A237
 171 04f2 AF6FC02B 		.ascii	"\257o\300+\242\244\231<\215\305\360 \324\314\336\373"
 171      A2A4993C 
 171      8DC5F020 
 171      D4CCDEFB 
 172 0502 36E4A929 		.ascii	"6\344\251)\021\335\021\311\337\220H\211\034\215/\326"
 172      11DD11C9 
 172      DF904889 
 172      1C8D2FD6 
 173 0512 52827EA1 		.ascii	"R\202~\241\340\342\203I~~\362\261\"n\341\350\016\266"
 173      E0E28349 
 173      7E7EF2B1 
ARM GAS  /tmp/cc80SRS3.s 			page 13


 173      226EE1E8 
 173      0EB6
 174 0524 4661CCBA 		.ascii	"Fa\314\272\224\272V\213a\312}\261#\331\307\016\006\220"
 174      94BA568B 
 174      61CA7DB1 
 174      23D9C70E 
 174      0690
 175 0536 7AAAAA74 		.ascii	"z\252\252t\201\246T\331\367\022\366(#\223\217\022\361"
 175      81A654D9 
 175      F712F628 
 175      23938F12 
 175      F1
 176 0547 5A6E10AB 		.ascii	"Zn\020\2531CH\374\304t9-\003\265N\307\306\345LTr\015"
 176      314348FC 
 176      C474392D 
 176      03B54EC7 
 176      C6E54C54 
 177 055d 9CB55160 		.ascii	"\234\265Q`\331r\207i'5\221\200cU\265]\304\364\243\224"
 177      D9728769 
 177      27359180 
 177      6355B55D 
 177      C4F4A394 
 178 0571 129EC8A3 		.ascii	"\022\236\310\243\263$g?YA\277-\351\215Y\2350\306\364"
 178      B324673F 
 178      5941BF2D 
 178      E98D599D 
 178      30C6F4
 179 0584 59C1C2E4 		.ascii	"Y\301\302\344^\037\0376em\362f\013\223\343G\214a\024"
 179      5E1F1F36 
 179      656DF266 
 179      0B93E347 
 179      8C6114
 180 0597 54D773A6 		.ascii	"T\327s\246\375\323D\202C\255\006\223M\367\025\272\026"
 180      FDD34482 
 180      43AD0693 
 180      4DF715BA 
 180      16
 181 05a8 ACB8B472 		.ascii	"\254\270\264rq\255\252\243\256t\244sT\275\006\222\227"
 181      71ADAAA3 
 181      AE74A473 
 181      54BD0692 
 181      97
 182 05b9 CA51A651 		.ascii	"\312Q\246Q\020\262\254\035\265\315\302Q\375\015\216"
 182      10B2AC1D 
 182      B5CDC251 
 182      FD0D8E
 183 05c8 DA667694 		.ascii	"\332fv\224nG2\221\340\320\036\203\243\320\210\302B~"
 183      6E473291 
 183      E0D01E83 
 183      A3D088C2 
 183      427E
 184 05da 7AB5BFD2 		.ascii	"z\265\277\322_V\301\007B|\265X\303\207\202^\276^\254"
 184      5F56C107 
 184      427CB558 
 184      C387825E 
 184      BE5EAC
 185 05ed 29F4A209 		.ascii	")\364\242\011\275;\353\003A9\304W\314\2353\241\230\237"
ARM GAS  /tmp/cc80SRS3.s 			page 14


 185      BD3BEB03 
 185      4139C457 
 185      CC9D33A1 
 185      989F
 186 05ff 3DBB849F 		.ascii	"=\273\204\237Y>\253\354\275b:^\250\251\361\025V#\227"
 186      593EABEC 
 186      BD623A5E 
 186      A8A9F115 
 186      562397
 187 0612 3F40C7D4 		.ascii	"?@\307\324\212\241w\004\271\317\3147\347\271\247\243"
 187      8AA17704 
 187      B9CFCC37 
 187      E7B9A7A3 
 188 0622 105F57C5 		.ascii	"\020_W\305\344e\276:P+\361A)$\211Ao5 \006}\357\213A"
 188      E465BE3A 
 188      502BF141 
 188      29248941 
 188      6F352006 
 189 063a 891783B5 		.ascii	"\211\027\203\265\305\374B\257\267\000*\005Rm\245\344"
 189      C5FC42AF 
 189      B7002A05 
 189      526DA5E4 
 190 064a F349BEF8 		.ascii	"\363I\276\370\203\272@\235T \211\225\376\202\211\302"
 190      83BA409D 
 190      54208995 
 190      FE8289C2 
 191 065a E482E2F1 		.ascii	"\344\202\342\361E\023\337-\346\015\035\274\277\316["
 191      4513DF2D 
 191      E60D1DBC 
 191      BFCE5B
 192 0669 D3E093F8 		.ascii	"\323\340\223\370\220\354\363\327\311\300#\247\001\376"
 192      90ECF3D7 
 192      C9C023A7 
 192      01FE
 193 0677 27140B72 		.ascii	"'\024\013r\023\376\377\264\327\212\336j\177\235\304"
 193      13FEFFB4 
 193      D78ADE6A 
 193      7F9DC4
 194 0686 0B3EA94A 		.ascii	"\013>\251Jl\250\221\005yQ\275\024\0026\271\202\240\361"
 194      6CA89105 
 194      7951BD14 
 194      0236B982 
 194      A0F1
 195 0698 71F776AA 		.ascii	"q\367v\2526\235z\275\0329f\225Mk\010\271Br-\014_X\357"
 195      369D7ABD 
 195      1A396695 
 195      4D6B08B9 
 195      42722D0C 
 196 06af 0F08B263 		.ascii	"\017\010\262cNY\311\014O\237\262\271o\225\317\360\364"
 196      4E59C90C 
 196      4F9FB2B9 
 196      6F95CFF0 
 196      F4
 197 06c0 2DAB289F 		.ascii	"-\253(\2371\243\304\343(\237W^\342\261\315\002)+\361"
 197      31A3C4E3 
 197      289F575E 
 197      E2B1CD02 
ARM GAS  /tmp/cc80SRS3.s 			page 15


 197      292BF1
 198 06d3 E0F9CCE2 		.ascii	"\340\371\314\342\242I\202\254*\243U[H\222\035\336\032"
 198      A24982AC 
 198      2AA3555B 
 198      48921DDE 
 198      1A
 199 06e4 B01797DA 		.ascii	"\260\027\227\332\247Ux<\366\331\323\337\360\330_{\335"
 199      A755783C 
 199      F6D9D3DF 
 199      F0D85F7B 
 199      DD
 200 06f5 339B16A5 		.ascii	"3\233\026\245\266i\036O\256\0221\277\017\342\245T\354"
 200      B6691E4F 
 200      AE1231BF 
 200      0FE2A554 
 200      EC
 201 0706 347A2E8A 		.ascii	"4z.\212!T\211!y2t\004\252\252\000*\027\030z$\321\007"
 201      21548921 
 201      79327404 
 201      AAAA002A 
 201      17187A24 
 202 071c FC6C950D 		.ascii	"\374l\225\015\241~\320\234\037\364\313\022\264\355\225"
 202      A17ED09C 
 202      1FF4CB12 
 202      B4ED95
 203 072b 7E3994E3 		.ascii	"~9\224\343\017\324\006|\222 \367\207\236\012I\206\347"
 203      0FD4067C 
 203      9220F787 
 203      9E0A4986 
 203      E7
 204 073c 73A06DA7 		.ascii	"s\240m\247\017\207\012j\222\010\000\2640\030h\250\247"
 204      0F870A6A 
 204      920800B4 
 204      301868A8 
 204      A7
 205 074d 4FED5E88 		.ascii	"O\355^\210B\216 T5\324y\005\241\277V)|e\374\224\"Ck"
 205      428E2054 
 205      35D47905 
 205      A1BF5629 
 205      7C65FC94 
 206 0764 92AE5534 		.ascii	"\222\256U4\276\350_\027H\257\236"
 206      BEE85F17 
 206      48AF9E
 207              		.text
 208              		.section	.gnu.lto_.symtab.1a63bd08e5062557,"",%progbits
 209 0000 70616C52 		.ascii	"palReadBus\000\000\000\000\000\000\000\000\000\000\000"
 209      65616442 
 209      75730000 
 209      00000000 
 209      00000000 
 210 0015 00A10000 		.ascii	"\000\241\000\000\000palWriteBus\000\000\000\000\000"
 210      0070616C 
 210      57726974 
 210      65427573 
 210      00000000 
 211 002a 00000000 		.ascii	"\000\000\000\000\000\000\000\364\000\000\000palSetB"
 211      000000F4 
ARM GAS  /tmp/cc80SRS3.s 			page 16


 211      00000070 
 211      616C5365 
 211      7442
 212 003c 75734D6F 		.ascii	"usMode\000\000\000\000\000\000\000\000\000\000\000\000"
 212      64650000 
 212      00000000 
 212      00000000 
 212      0000
 213 004e FD000000 		.ascii	"\375\000\000\000_pal_lld_setgroupmode\000\000\002\000"
 213      5F70616C 
 213      5F6C6C64 
 213      5F736574 
 213      67726F75 
 214 006b 00000000 		.ascii	"\000\000\000\000\000\000\000\000\011\001\000\000"
 214      00000000 
 214      09010000 
 215              		.text
 216              		.section	.gnu.lto_.opts,"",%progbits
 217 0000 272D6D63 		.ascii	"'-mcpu=cortex-m4' '-mno-thumb-interwork' '-mthumb' "
 217      70753D63 
 217      6F727465 
 217      782D6D34 
 217      2720272D 
 218 0033 272D6767 		.ascii	"'-ggdb' '-O2' '-fomit-frame-pointer' '-falign-funct"
 218      64622720 
 218      272D4F32 
 218      2720272D 
 218      666F6D69 
 219 0066 696F6E73 		.ascii	"ions=16' '-ffunction-sections' '-fdata-sections' '-"
 219      3D313627 
 219      20272D66 
 219      66756E63 
 219      74696F6E 
 220 0099 666E6F2D 		.ascii	"fno-common' '-flto'\000"
 220      636F6D6D 
 220      6F6E2720 
 220      272D666C 
 220      746F2700 
 221              		.text
 222              		.cfi_sections	.debug_frame
 223              		.section	.text.palReadBus,"ax",%progbits
 224              		.align	2
 225              		.p2align 4,,15
 226              		.global	palReadBus
 227              		.thumb
 228              		.thumb_func
 229              		.type	palReadBus, %function
 230              	palReadBus:
 231              	.LFB272:
 232              		.file 1 "../ChibiOS/os/hal/src/pal.c"
 233              		.loc 1 65 0
 234              		.cfi_startproc
 235              		@ args = 0, pretend = 0, frame = 0
 236              		@ frame_needed = 0, uses_anonymous_args = 0
 237              		@ link register save eliminated.
 238              	.LVL0:
 239              		.loc 1 69 0
ARM GAS  /tmp/cc80SRS3.s 			page 17


 240 0000 0368     		ldr	r3, [r0]
 241 0002 8268     		ldr	r2, [r0, #8]
 242 0004 1969     		ldr	r1, [r3, #16]
 243 0006 4368     		ldr	r3, [r0, #4]
 244 0008 21FA02F0 		lsr	r0, r1, r2
 245              	.LVL1:
 246              		.loc 1 70 0
 247 000c 1840     		ands	r0, r0, r3
 248 000e 7047     		bx	lr
 249              		.cfi_endproc
 250              	.LFE272:
 251              		.size	palReadBus, .-palReadBus
 252              		.section	.text.palWriteBus,"ax",%progbits
 253              		.align	2
 254              		.p2align 4,,15
 255              		.global	palWriteBus
 256              		.thumb
 257              		.thumb_func
 258              		.type	palWriteBus, %function
 259              	palWriteBus:
 260              	.LFB273:
 261              		.loc 1 90 0
 262              		.cfi_startproc
 263              		@ args = 0, pretend = 0, frame = 0
 264              		@ frame_needed = 0, uses_anonymous_args = 0
 265              		@ link register save eliminated.
 266              	.LVL2:
 267              		.loc 1 94 0
 268 0000 0DC8     		ldmia	r0, {r0, r2, r3}
 269              	.LVL3:
 270              		.loc 1 90 0
 271 0002 30B4     		push	{r4, r5}
 272              		.cfi_def_cfa_offset 8
 273              		.cfi_offset 4, -8
 274              		.cfi_offset 5, -4
 275              		.loc 1 94 0
 276 0004 22EA0105 		bic	r5, r2, r1
 277 0008 03F11004 		add	r4, r3, #16
 278 000c 0A40     		ands	r2, r2, r1
 279 000e 02FA03F3 		lsl	r3, r2, r3
 280 0012 05FA04F2 		lsl	r2, r5, r4
 281 0016 1343     		orrs	r3, r3, r2
 282 0018 8361     		str	r3, [r0, #24]
 283              		.loc 1 95 0
 284 001a 30BC     		pop	{r4, r5}
 285 001c 7047     		bx	lr
 286              		.cfi_endproc
 287              	.LFE273:
 288              		.size	palWriteBus, .-palWriteBus
 289 001e 00BF     		.section	.text.palSetBusMode,"ax",%progbits
 290              		.align	2
 291              		.p2align 4,,15
 292              		.global	palSetBusMode
 293              		.thumb
 294              		.thumb_func
 295              		.type	palSetBusMode, %function
 296              	palSetBusMode:
ARM GAS  /tmp/cc80SRS3.s 			page 18


 297              	.LFB274:
 298              		.loc 1 113 0
 299              		.cfi_startproc
 300              		@ args = 0, pretend = 0, frame = 0
 301              		@ frame_needed = 0, uses_anonymous_args = 0
 302              		@ link register save eliminated.
 303              	.LVL4:
 304 0000 10B4     		push	{r4}
 305              		.cfi_def_cfa_offset 4
 306              		.cfi_offset 4, -4
 307              		.loc 1 113 0
 308 0002 0A46     		mov	r2, r1
 309              		.loc 1 117 0
 310 0004 4468     		ldr	r4, [r0, #4]
 311 0006 8168     		ldr	r1, [r0, #8]
 312              	.LVL5:
 313 0008 0068     		ldr	r0, [r0]
 314              	.LVL6:
 315 000a 04FA01F1 		lsl	r1, r4, r1
 316              		.loc 1 118 0
 317 000e 5DF8044B 		ldr	r4, [sp], #4
 318              		.loc 1 117 0
 319 0012 FFF7FEBF 		b	_pal_lld_setgroupmode
 320              	.LVL7:
 321              		.cfi_endproc
 322              	.LFE274:
 323              		.size	palSetBusMode, .-palSetBusMode
 324 0016 00BFAFF3 		.text
 324      0080AFF3 
 324      0080
 325              	.Letext0:
 326              		.file 2 "/nfs/nfs5/home/research/hardware/arm2/gcc-arm-embedded/gcc-arm-none-eabi-4_8-2014q2/arm-n
 327              		.file 3 "/nfs/nfs5/home/research/hardware/arm2/gcc-arm-embedded/gcc-arm-none-eabi-4_8-2014q2/arm-n
 328              		.file 4 "../ChibiOS/os/rt/ports/ARMCMx/compilers/GCC/chtypes.h"
 329              		.file 5 "../ChibiOS/os/rt/include/chsystypes.h"
 330              		.file 6 "../ChibiOS/os/rt/include/chschd.h"
 331              		.file 7 "../ChibiOS/os/rt/ports/ARMCMx/chcore.h"
 332              		.file 8 "../ChibiOS/os/rt/ports/ARMCMx/chcore_v7m.h"
 333              		.file 9 "../ChibiOS/os/rt/include/chtm.h"
 334              		.file 10 "../ChibiOS/os/rt/include/chsem.h"
 335              		.file 11 "../ChibiOS/os/rt/include/chmtx.h"
 336              		.file 12 "../ChibiOS/os/hal/ports/STM32/LLD/GPIOv2/pal_lld.h"
 337              		.file 13 "../ChibiOS/os/hal/include/pal.h"
 338              		.file 14 "../ChibiOS/os/ext/CMSIS/include/core_cm4.h"
 339              		.section	.debug_info,"",%progbits
 340              	.Ldebug_info0:
 341 0000 AE080000 		.4byte	0x8ae
 342 0004 0400     		.2byte	0x4
 343 0006 00000000 		.4byte	.Ldebug_abbrev0
 344 000a 04       		.byte	0x4
 345 000b 01       		.uleb128 0x1
 346 000c 39050000 		.4byte	.LASF129
 347 0010 01       		.byte	0x1
 348 0011 E8010000 		.4byte	.LASF130
 349 0015 36010000 		.4byte	.LASF131
 350 0019 00000000 		.4byte	.Ldebug_ranges0+0
 351 001d 00000000 		.4byte	0
ARM GAS  /tmp/cc80SRS3.s 			page 19


 352 0021 00000000 		.4byte	.Ldebug_line0
 353 0025 02       		.uleb128 0x2
 354 0026 04       		.byte	0x4
 355 0027 05       		.byte	0x5
 356 0028 696E7400 		.ascii	"int\000"
 357 002c 03       		.uleb128 0x3
 358 002d 04       		.byte	0x4
 359 002e 07       		.byte	0x7
 360 002f D3010000 		.4byte	.LASF0
 361 0033 03       		.uleb128 0x3
 362 0034 01       		.byte	0x1
 363 0035 06       		.byte	0x6
 364 0036 F2000000 		.4byte	.LASF1
 365 003a 04       		.uleb128 0x4
 366 003b 23000000 		.4byte	.LASF4
 367 003f 02       		.byte	0x2
 368 0040 1C       		.byte	0x1c
 369 0041 45000000 		.4byte	0x45
 370 0045 03       		.uleb128 0x3
 371 0046 01       		.byte	0x1
 372 0047 08       		.byte	0x8
 373 0048 76030000 		.4byte	.LASF2
 374 004c 03       		.uleb128 0x3
 375 004d 02       		.byte	0x2
 376 004e 05       		.byte	0x5
 377 004f 8E030000 		.4byte	.LASF3
 378 0053 04       		.uleb128 0x4
 379 0054 72040000 		.4byte	.LASF5
 380 0058 02       		.byte	0x2
 381 0059 26       		.byte	0x26
 382 005a 5E000000 		.4byte	0x5e
 383 005e 03       		.uleb128 0x3
 384 005f 02       		.byte	0x2
 385 0060 07       		.byte	0x7
 386 0061 21020000 		.4byte	.LASF6
 387 0065 04       		.uleb128 0x4
 388 0066 72020000 		.4byte	.LASF7
 389 006a 02       		.byte	0x2
 390 006b 37       		.byte	0x37
 391 006c 70000000 		.4byte	0x70
 392 0070 03       		.uleb128 0x3
 393 0071 04       		.byte	0x4
 394 0072 05       		.byte	0x5
 395 0073 2D010000 		.4byte	.LASF8
 396 0077 04       		.uleb128 0x4
 397 0078 AB040000 		.4byte	.LASF9
 398 007c 02       		.byte	0x2
 399 007d 38       		.byte	0x38
 400 007e 82000000 		.4byte	0x82
 401 0082 03       		.uleb128 0x3
 402 0083 04       		.byte	0x4
 403 0084 07       		.byte	0x7
 404 0085 4B040000 		.4byte	.LASF10
 405 0089 03       		.uleb128 0x3
 406 008a 08       		.byte	0x8
 407 008b 05       		.byte	0x5
 408 008c E4000000 		.4byte	.LASF11
ARM GAS  /tmp/cc80SRS3.s 			page 20


 409 0090 04       		.uleb128 0x4
 410 0091 87020000 		.4byte	.LASF12
 411 0095 02       		.byte	0x2
 412 0096 4E       		.byte	0x4e
 413 0097 9B000000 		.4byte	0x9b
 414 009b 03       		.uleb128 0x3
 415 009c 08       		.byte	0x8
 416 009d 07       		.byte	0x7
 417 009e 70000000 		.4byte	.LASF13
 418 00a2 04       		.uleb128 0x4
 419 00a3 31050000 		.4byte	.LASF14
 420 00a7 03       		.byte	0x3
 421 00a8 2A       		.byte	0x2a
 422 00a9 3A000000 		.4byte	0x3a
 423 00ad 04       		.uleb128 0x4
 424 00ae 73010000 		.4byte	.LASF15
 425 00b2 03       		.byte	0x3
 426 00b3 36       		.byte	0x36
 427 00b4 53000000 		.4byte	0x53
 428 00b8 04       		.uleb128 0x4
 429 00b9 6E030000 		.4byte	.LASF16
 430 00bd 03       		.byte	0x3
 431 00be 41       		.byte	0x41
 432 00bf 65000000 		.4byte	0x65
 433 00c3 04       		.uleb128 0x4
 434 00c4 1A040000 		.4byte	.LASF17
 435 00c8 03       		.byte	0x3
 436 00c9 42       		.byte	0x42
 437 00ca 77000000 		.4byte	0x77
 438 00ce 04       		.uleb128 0x4
 439 00cf 1A000000 		.4byte	.LASF18
 440 00d3 03       		.byte	0x3
 441 00d4 4E       		.byte	0x4e
 442 00d5 90000000 		.4byte	0x90
 443 00d9 04       		.uleb128 0x4
 444 00da B5030000 		.4byte	.LASF19
 445 00de 03       		.byte	0x3
 446 00df 60       		.byte	0x60
 447 00e0 2C000000 		.4byte	0x2c
 448 00e4 04       		.uleb128 0x4
 449 00e5 F0040000 		.4byte	.LASF20
 450 00e9 04       		.byte	0x4
 451 00ea 39       		.byte	0x39
 452 00eb C3000000 		.4byte	0xc3
 453 00ef 04       		.uleb128 0x4
 454 00f0 50020000 		.4byte	.LASF21
 455 00f4 04       		.byte	0x4
 456 00f5 3C       		.byte	0x3c
 457 00f6 A2000000 		.4byte	0xa2
 458 00fa 04       		.uleb128 0x4
 459 00fb 6A010000 		.4byte	.LASF22
 460 00ff 04       		.byte	0x4
 461 0100 3D       		.byte	0x3d
 462 0101 A2000000 		.4byte	0xa2
 463 0105 04       		.uleb128 0x4
 464 0106 31030000 		.4byte	.LASF23
 465 010a 04       		.byte	0x4
ARM GAS  /tmp/cc80SRS3.s 			page 21


 466 010b 3E       		.byte	0x3e
 467 010c A2000000 		.4byte	0xa2
 468 0110 04       		.uleb128 0x4
 469 0111 50030000 		.4byte	.LASF24
 470 0115 04       		.byte	0x4
 471 0116 40       		.byte	0x40
 472 0117 C3000000 		.4byte	0xc3
 473 011b 04       		.uleb128 0x4
 474 011c 3E020000 		.4byte	.LASF25
 475 0120 04       		.byte	0x4
 476 0121 41       		.byte	0x41
 477 0122 B8000000 		.4byte	0xb8
 478 0126 04       		.uleb128 0x4
 479 0127 66020000 		.4byte	.LASF26
 480 012b 04       		.byte	0x4
 481 012c 43       		.byte	0x43
 482 012d C3000000 		.4byte	0xc3
 483 0131 04       		.uleb128 0x4
 484 0132 CD010000 		.4byte	.LASF27
 485 0136 04       		.byte	0x4
 486 0137 45       		.byte	0x45
 487 0138 B8000000 		.4byte	0xb8
 488 013c 04       		.uleb128 0x4
 489 013d 8D040000 		.4byte	.LASF28
 490 0141 05       		.byte	0x5
 491 0142 33       		.byte	0x33
 492 0143 C3000000 		.4byte	0xc3
 493 0147 04       		.uleb128 0x4
 494 0148 7D040000 		.4byte	.LASF29
 495 014c 05       		.byte	0x5
 496 014d 3F       		.byte	0x3f
 497 014e 52010000 		.4byte	0x152
 498 0152 05       		.uleb128 0x5
 499 0153 34020000 		.4byte	.LASF48
 500 0157 40       		.byte	0x40
 501 0158 06       		.byte	0x6
 502 0159 C2       		.byte	0xc2
 503 015a 32020000 		.4byte	0x232
 504 015e 06       		.uleb128 0x6
 505 015f AE030000 		.4byte	.LASF30
 506 0163 06       		.byte	0x6
 507 0164 C3       		.byte	0xc3
 508 0165 3D020000 		.4byte	0x23d
 509 0169 00       		.byte	0
 510 016a 06       		.uleb128 0x6
 511 016b 49030000 		.4byte	.LASF31
 512 016f 06       		.byte	0x6
 513 0170 C5       		.byte	0xc5
 514 0171 3D020000 		.4byte	0x23d
 515 0175 04       		.byte	0x4
 516 0176 06       		.uleb128 0x6
 517 0177 DD000000 		.4byte	.LASF32
 518 017b 06       		.byte	0x6
 519 017c C7       		.byte	0xc7
 520 017d 10010000 		.4byte	0x110
 521 0181 08       		.byte	0x8
 522 0182 06       		.uleb128 0x6
ARM GAS  /tmp/cc80SRS3.s 			page 22


 523 0183 47060000 		.4byte	.LASF33
 524 0187 06       		.byte	0x6
 525 0188 C8       		.byte	0xc8
 526 0189 72040000 		.4byte	0x472
 527 018d 0C       		.byte	0xc
 528 018e 06       		.uleb128 0x6
 529 018f 7C010000 		.4byte	.LASF34
 530 0193 06       		.byte	0x6
 531 0194 CA       		.byte	0xca
 532 0195 3D020000 		.4byte	0x23d
 533 0199 10       		.byte	0x10
 534 019a 06       		.uleb128 0x6
 535 019b E1020000 		.4byte	.LASF35
 536 019f 06       		.byte	0x6
 537 01a0 CB       		.byte	0xcb
 538 01a1 3D020000 		.4byte	0x23d
 539 01a5 14       		.byte	0x14
 540 01a6 06       		.uleb128 0x6
 541 01a7 20060000 		.4byte	.LASF36
 542 01ab 06       		.byte	0x6
 543 01ac D2       		.byte	0xd2
 544 01ad FD050000 		.4byte	0x5fd
 545 01b1 18       		.byte	0x18
 546 01b2 06       		.uleb128 0x6
 547 01b3 98030000 		.4byte	.LASF37
 548 01b7 06       		.byte	0x6
 549 01b8 DD       		.byte	0xdd
 550 01b9 FA000000 		.4byte	0xfa
 551 01bd 1C       		.byte	0x1c
 552 01be 06       		.uleb128 0x6
 553 01bf D0030000 		.4byte	.LASF38
 554 01c3 06       		.byte	0x6
 555 01c4 E1       		.byte	0xe1
 556 01c5 EF000000 		.4byte	0xef
 557 01c9 1D       		.byte	0x1d
 558 01ca 06       		.uleb128 0x6
 559 01cb 24050000 		.4byte	.LASF39
 560 01cf 06       		.byte	0x6
 561 01d0 E6       		.byte	0xe6
 562 01d1 05010000 		.4byte	0x105
 563 01d5 1E       		.byte	0x1e
 564 01d6 07       		.uleb128 0x7
 565 01d7 705F7500 		.ascii	"p_u\000"
 566 01db 06       		.byte	0x6
 567 01dc 3701     		.2byte	0x137
 568 01de 2C050000 		.4byte	0x52c
 569 01e2 20       		.byte	0x20
 570 01e3 08       		.uleb128 0x8
 571 01e4 92020000 		.4byte	.LASF40
 572 01e8 06       		.byte	0x6
 573 01e9 3C01     		.2byte	0x13c
 574 01eb 43020000 		.4byte	0x243
 575 01ef 24       		.byte	0x24
 576 01f0 08       		.uleb128 0x8
 577 01f1 0B020000 		.4byte	.LASF41
 578 01f5 06       		.byte	0x6
 579 01f6 4201     		.2byte	0x142
ARM GAS  /tmp/cc80SRS3.s 			page 23


 580 01f8 67020000 		.4byte	0x267
 581 01fc 28       		.byte	0x28
 582 01fd 08       		.uleb128 0x8
 583 01fe 0F040000 		.4byte	.LASF42
 584 0202 06       		.byte	0x6
 585 0203 4801     		.2byte	0x148
 586 0205 26010000 		.4byte	0x126
 587 0209 30       		.byte	0x30
 588 020a 08       		.uleb128 0x8
 589 020b 84030000 		.4byte	.LASF43
 590 020f 06       		.byte	0x6
 591 0210 4F01     		.2byte	0x14f
 592 0212 F7050000 		.4byte	0x5f7
 593 0216 34       		.byte	0x34
 594 0217 08       		.uleb128 0x8
 595 0218 97040000 		.4byte	.LASF44
 596 021c 06       		.byte	0x6
 597 021d 5301     		.2byte	0x153
 598 021f 10010000 		.4byte	0x110
 599 0223 38       		.byte	0x38
 600 0224 08       		.uleb128 0x8
 601 0225 03010000 		.4byte	.LASF45
 602 0229 06       		.byte	0x6
 603 022a 5A01     		.2byte	0x15a
 604 022c 1A030000 		.4byte	0x31a
 605 0230 3C       		.byte	0x3c
 606 0231 00       		.byte	0
 607 0232 04       		.uleb128 0x4
 608 0233 A5020000 		.4byte	.LASF46
 609 0237 05       		.byte	0x5
 610 0238 44       		.byte	0x44
 611 0239 3D020000 		.4byte	0x23d
 612 023d 09       		.uleb128 0x9
 613 023e 04       		.byte	0x4
 614 023f 47010000 		.4byte	0x147
 615 0243 04       		.uleb128 0x4
 616 0244 27060000 		.4byte	.LASF47
 617 0248 05       		.byte	0x5
 618 0249 49       		.byte	0x49
 619 024a 4E020000 		.4byte	0x24e
 620 024e 05       		.uleb128 0x5
 621 024f 3B040000 		.4byte	.LASF49
 622 0253 04       		.byte	0x4
 623 0254 06       		.byte	0x6
 624 0255 B0       		.byte	0xb0
 625 0256 67020000 		.4byte	0x267
 626 025a 06       		.uleb128 0x6
 627 025b AE030000 		.4byte	.LASF30
 628 025f 06       		.byte	0x6
 629 0260 B1       		.byte	0xb1
 630 0261 3D020000 		.4byte	0x23d
 631 0265 00       		.byte	0
 632 0266 00       		.byte	0
 633 0267 04       		.uleb128 0x4
 634 0268 0B050000 		.4byte	.LASF50
 635 026c 05       		.byte	0x5
 636 026d 50       		.byte	0x50
ARM GAS  /tmp/cc80SRS3.s 			page 24


 637 026e 72020000 		.4byte	0x272
 638 0272 05       		.uleb128 0x5
 639 0273 CC000000 		.4byte	.LASF51
 640 0277 08       		.byte	0x8
 641 0278 06       		.byte	0x6
 642 0279 B7       		.byte	0xb7
 643 027a 97020000 		.4byte	0x297
 644 027e 06       		.uleb128 0x6
 645 027f AE030000 		.4byte	.LASF30
 646 0283 06       		.byte	0x6
 647 0284 B8       		.byte	0xb8
 648 0285 3D020000 		.4byte	0x23d
 649 0289 00       		.byte	0
 650 028a 06       		.uleb128 0x6
 651 028b 49030000 		.4byte	.LASF31
 652 028f 06       		.byte	0x6
 653 0290 B9       		.byte	0xb9
 654 0291 3D020000 		.4byte	0x23d
 655 0295 04       		.byte	0x4
 656 0296 00       		.byte	0
 657 0297 04       		.uleb128 0x4
 658 0298 00000000 		.4byte	.LASF52
 659 029c 05       		.byte	0x5
 660 029d 57       		.byte	0x57
 661 029e A2020000 		.4byte	0x2a2
 662 02a2 0A       		.uleb128 0xa
 663 02a3 58020000 		.4byte	.LASF53
 664 02a7 1C       		.byte	0x1c
 665 02a8 06       		.byte	0x6
 666 02a9 9201     		.2byte	0x192
 667 02ab FE020000 		.4byte	0x2fe
 668 02af 08       		.uleb128 0x8
 669 02b0 2A040000 		.4byte	.LASF54
 670 02b4 06       		.byte	0x6
 671 02b5 9301     		.2byte	0x193
 672 02b7 67020000 		.4byte	0x267
 673 02bb 00       		.byte	0
 674 02bc 08       		.uleb128 0x8
 675 02bd A0030000 		.4byte	.LASF55
 676 02c1 06       		.byte	0x6
 677 02c2 9401     		.2byte	0x194
 678 02c4 10010000 		.4byte	0x110
 679 02c8 08       		.byte	0x8
 680 02c9 08       		.uleb128 0x8
 681 02ca E9020000 		.4byte	.LASF56
 682 02ce 06       		.byte	0x6
 683 02cf 9601     		.2byte	0x196
 684 02d1 72040000 		.4byte	0x472
 685 02d5 0C       		.byte	0xc
 686 02d6 08       		.uleb128 0x8
 687 02d7 94010000 		.4byte	.LASF57
 688 02db 06       		.byte	0x6
 689 02dc 9901     		.2byte	0x199
 690 02de 3D020000 		.4byte	0x23d
 691 02e2 10       		.byte	0x10
 692 02e3 08       		.uleb128 0x8
 693 02e4 0A030000 		.4byte	.LASF58
ARM GAS  /tmp/cc80SRS3.s 			page 25


 694 02e8 06       		.byte	0x6
 695 02e9 9A01     		.2byte	0x19a
 696 02eb 3D020000 		.4byte	0x23d
 697 02ef 14       		.byte	0x14
 698 02f0 08       		.uleb128 0x8
 699 02f1 00030000 		.4byte	.LASF59
 700 02f5 06       		.byte	0x6
 701 02f6 9D01     		.2byte	0x19d
 702 02f8 3D020000 		.4byte	0x23d
 703 02fc 18       		.byte	0x18
 704 02fd 00       		.byte	0
 705 02fe 04       		.uleb128 0x4
 706 02ff A2040000 		.4byte	.LASF60
 707 0303 05       		.byte	0x5
 708 0304 5C       		.byte	0x5c
 709 0305 09030000 		.4byte	0x309
 710 0309 09       		.uleb128 0x9
 711 030a 04       		.byte	0x4
 712 030b 0F030000 		.4byte	0x30f
 713 030f 0B       		.uleb128 0xb
 714 0310 1A030000 		.4byte	0x31a
 715 0314 0C       		.uleb128 0xc
 716 0315 1A030000 		.4byte	0x31a
 717 0319 00       		.byte	0
 718 031a 0D       		.uleb128 0xd
 719 031b 04       		.byte	0x4
 720 031c 04       		.uleb128 0x4
 721 031d 39030000 		.4byte	.LASF61
 722 0321 05       		.byte	0x5
 723 0322 61       		.byte	0x61
 724 0323 27030000 		.4byte	0x327
 725 0327 0A       		.uleb128 0xa
 726 0328 F1030000 		.4byte	.LASF62
 727 032c 14       		.byte	0x14
 728 032d 06       		.byte	0x6
 729 032e 6D01     		.2byte	0x16d
 730 0330 76030000 		.4byte	0x376
 731 0334 08       		.uleb128 0x8
 732 0335 E0010000 		.4byte	.LASF63
 733 0339 06       		.byte	0x6
 734 033a 6E01     		.2byte	0x16e
 735 033c 0F060000 		.4byte	0x60f
 736 0340 00       		.byte	0
 737 0341 08       		.uleb128 0x8
 738 0342 AA010000 		.4byte	.LASF64
 739 0346 06       		.byte	0x6
 740 0347 6F01     		.2byte	0x16f
 741 0349 0F060000 		.4byte	0x60f
 742 034d 04       		.byte	0x4
 743 034e 08       		.uleb128 0x8
 744 034f 32040000 		.4byte	.LASF65
 745 0353 06       		.byte	0x6
 746 0354 7001     		.2byte	0x170
 747 0356 3C010000 		.4byte	0x13c
 748 035a 08       		.byte	0x8
 749 035b 08       		.uleb128 0x8
 750 035c 4D060000 		.4byte	.LASF66
ARM GAS  /tmp/cc80SRS3.s 			page 26


 751 0360 06       		.byte	0x6
 752 0361 7101     		.2byte	0x171
 753 0363 FE020000 		.4byte	0x2fe
 754 0367 0C       		.byte	0xc
 755 0368 08       		.uleb128 0x8
 756 0369 F8040000 		.4byte	.LASF67
 757 036d 06       		.byte	0x6
 758 036e 7301     		.2byte	0x173
 759 0370 1A030000 		.4byte	0x31a
 760 0374 10       		.byte	0x10
 761 0375 00       		.byte	0
 762 0376 04       		.uleb128 0x4
 763 0377 A9000000 		.4byte	.LASF68
 764 037b 05       		.byte	0x5
 765 037c 66       		.byte	0x66
 766 037d 81030000 		.4byte	0x381
 767 0381 0A       		.uleb128 0xa
 768 0382 B8020000 		.4byte	.LASF69
 769 0386 10       		.byte	0x10
 770 0387 06       		.byte	0x6
 771 0388 7D01     		.2byte	0x17d
 772 038a C3030000 		.4byte	0x3c3
 773 038e 08       		.uleb128 0x8
 774 038f E0010000 		.4byte	.LASF63
 775 0393 06       		.byte	0x6
 776 0394 7E01     		.2byte	0x17e
 777 0396 0F060000 		.4byte	0x60f
 778 039a 00       		.byte	0
 779 039b 08       		.uleb128 0x8
 780 039c AA010000 		.4byte	.LASF64
 781 03a0 06       		.byte	0x6
 782 03a1 8001     		.2byte	0x180
 783 03a3 0F060000 		.4byte	0x60f
 784 03a7 04       		.byte	0x4
 785 03a8 08       		.uleb128 0x8
 786 03a9 32040000 		.4byte	.LASF65
 787 03ad 06       		.byte	0x6
 788 03ae 8201     		.2byte	0x182
 789 03b0 3C010000 		.4byte	0x13c
 790 03b4 08       		.byte	0x8
 791 03b5 08       		.uleb128 0x8
 792 03b6 D5020000 		.4byte	.LASF70
 793 03ba 06       		.byte	0x6
 794 03bb 8A01     		.2byte	0x18a
 795 03bd 3C010000 		.4byte	0x13c
 796 03c1 0C       		.byte	0xc
 797 03c2 00       		.byte	0
 798 03c3 04       		.uleb128 0x4
 799 03c4 4E000000 		.4byte	.LASF71
 800 03c8 05       		.byte	0x5
 801 03c9 6B       		.byte	0x6b
 802 03ca CE030000 		.4byte	0x3ce
 803 03ce 0A       		.uleb128 0xa
 804 03cf 58030000 		.4byte	.LASF72
 805 03d3 04       		.byte	0x4
 806 03d4 06       		.byte	0x6
 807 03d5 A401     		.2byte	0x1a4
ARM GAS  /tmp/cc80SRS3.s 			page 27


 808 03d7 E9030000 		.4byte	0x3e9
 809 03db 08       		.uleb128 0x8
 810 03dc B6040000 		.4byte	.LASF73
 811 03e0 06       		.byte	0x6
 812 03e1 AC01     		.2byte	0x1ac
 813 03e3 15060000 		.4byte	0x615
 814 03e7 00       		.byte	0
 815 03e8 00       		.byte	0
 816 03e9 04       		.uleb128 0x4
 817 03ea 44020000 		.4byte	.LASF74
 818 03ee 05       		.byte	0x5
 819 03ef 70       		.byte	0x70
 820 03f0 F4030000 		.4byte	0x3f4
 821 03f4 0E       		.uleb128 0xe
 822 03f5 E7030000 		.4byte	.LASF75
 823 03f9 5001     		.2byte	0x150
 824 03fb 06       		.byte	0x6
 825 03fc C401     		.2byte	0x1c4
 826 03fe 50040000 		.4byte	0x450
 827 0402 08       		.uleb128 0x8
 828 0403 2B050000 		.4byte	.LASF76
 829 0407 06       		.byte	0x6
 830 0408 C801     		.2byte	0x1c8
 831 040a 97020000 		.4byte	0x297
 832 040e 00       		.byte	0
 833 040f 08       		.uleb128 0x8
 834 0410 13010000 		.4byte	.LASF77
 835 0414 06       		.byte	0x6
 836 0415 CC01     		.2byte	0x1cc
 837 0417 76030000 		.4byte	0x376
 838 041b 1C       		.byte	0x1c
 839 041c 07       		.uleb128 0x7
 840 041d 64626700 		.ascii	"dbg\000"
 841 0421 06       		.byte	0x6
 842 0422 D001     		.2byte	0x1d0
 843 0424 C3030000 		.4byte	0x3c3
 844 0428 2C       		.byte	0x2c
 845 0429 08       		.uleb128 0x8
 846 042a 96000000 		.4byte	.LASF78
 847 042e 06       		.byte	0x6
 848 042f D401     		.2byte	0x1d4
 849 0431 47010000 		.4byte	0x147
 850 0435 30       		.byte	0x30
 851 0436 07       		.uleb128 0x7
 852 0437 746D00   		.ascii	"tm\000"
 853 043a 06       		.byte	0x6
 854 043b D901     		.2byte	0x1d9
 855 043d 21050000 		.4byte	0x521
 856 0441 70       		.byte	0x70
 857 0442 08       		.uleb128 0x8
 858 0443 D8030000 		.4byte	.LASF79
 859 0447 06       		.byte	0x6
 860 0448 E501     		.2byte	0x1e5
 861 044a 1A060000 		.4byte	0x61a
 862 044e 78       		.byte	0x78
 863 044f 00       		.byte	0
 864 0450 03       		.uleb128 0x3
ARM GAS  /tmp/cc80SRS3.s 			page 28


 865 0451 04       		.byte	0x4
 866 0452 07       		.byte	0x7
 867 0453 9C020000 		.4byte	.LASF80
 868 0457 0F       		.uleb128 0xf
 869 0458 C3000000 		.4byte	0xc3
 870 045c 04       		.uleb128 0x4
 871 045d A1010000 		.4byte	.LASF81
 872 0461 07       		.byte	0x7
 873 0462 65       		.byte	0x65
 874 0463 1A030000 		.4byte	0x31a
 875 0467 04       		.uleb128 0x4
 876 0468 7C020000 		.4byte	.LASF82
 877 046c 07       		.byte	0x7
 878 046d 6D       		.byte	0x6d
 879 046e CE000000 		.4byte	0xce
 880 0472 05       		.uleb128 0x5
 881 0473 D2040000 		.4byte	.LASF83
 882 0477 04       		.byte	0x4
 883 0478 07       		.byte	0x7
 884 0479 89       		.byte	0x89
 885 047a 8B040000 		.4byte	0x48b
 886 047e 10       		.uleb128 0x10
 887 047f 72313300 		.ascii	"r13\000"
 888 0483 07       		.byte	0x7
 889 0484 8A       		.byte	0x8a
 890 0485 06050000 		.4byte	0x506
 891 0489 00       		.byte	0
 892 048a 00       		.byte	0
 893 048b 05       		.uleb128 0x5
 894 048c 42000000 		.4byte	.LASF84
 895 0490 24       		.byte	0x24
 896 0491 08       		.byte	0x8
 897 0492 FD       		.byte	0xfd
 898 0493 06050000 		.4byte	0x506
 899 0497 07       		.uleb128 0x7
 900 0498 723400   		.ascii	"r4\000"
 901 049b 08       		.byte	0x8
 902 049c 1001     		.2byte	0x110
 903 049e 5C040000 		.4byte	0x45c
 904 04a2 00       		.byte	0
 905 04a3 07       		.uleb128 0x7
 906 04a4 723500   		.ascii	"r5\000"
 907 04a7 08       		.byte	0x8
 908 04a8 1101     		.2byte	0x111
 909 04aa 5C040000 		.4byte	0x45c
 910 04ae 04       		.byte	0x4
 911 04af 07       		.uleb128 0x7
 912 04b0 723600   		.ascii	"r6\000"
 913 04b3 08       		.byte	0x8
 914 04b4 1201     		.2byte	0x112
 915 04b6 5C040000 		.4byte	0x45c
 916 04ba 08       		.byte	0x8
 917 04bb 07       		.uleb128 0x7
 918 04bc 723700   		.ascii	"r7\000"
 919 04bf 08       		.byte	0x8
 920 04c0 1301     		.2byte	0x113
 921 04c2 5C040000 		.4byte	0x45c
ARM GAS  /tmp/cc80SRS3.s 			page 29


 922 04c6 0C       		.byte	0xc
 923 04c7 07       		.uleb128 0x7
 924 04c8 723800   		.ascii	"r8\000"
 925 04cb 08       		.byte	0x8
 926 04cc 1401     		.2byte	0x114
 927 04ce 5C040000 		.4byte	0x45c
 928 04d2 10       		.byte	0x10
 929 04d3 07       		.uleb128 0x7
 930 04d4 723900   		.ascii	"r9\000"
 931 04d7 08       		.byte	0x8
 932 04d8 1501     		.2byte	0x115
 933 04da 5C040000 		.4byte	0x45c
 934 04de 14       		.byte	0x14
 935 04df 07       		.uleb128 0x7
 936 04e0 72313000 		.ascii	"r10\000"
 937 04e4 08       		.byte	0x8
 938 04e5 1601     		.2byte	0x116
 939 04e7 5C040000 		.4byte	0x45c
 940 04eb 18       		.byte	0x18
 941 04ec 07       		.uleb128 0x7
 942 04ed 72313100 		.ascii	"r11\000"
 943 04f1 08       		.byte	0x8
 944 04f2 1701     		.2byte	0x117
 945 04f4 5C040000 		.4byte	0x45c
 946 04f8 1C       		.byte	0x1c
 947 04f9 07       		.uleb128 0x7
 948 04fa 6C7200   		.ascii	"lr\000"
 949 04fd 08       		.byte	0x8
 950 04fe 1801     		.2byte	0x118
 951 0500 5C040000 		.4byte	0x45c
 952 0504 20       		.byte	0x20
 953 0505 00       		.byte	0
 954 0506 09       		.uleb128 0x9
 955 0507 04       		.byte	0x4
 956 0508 8B040000 		.4byte	0x48b
 957 050c 11       		.uleb128 0x11
 958 050d 04       		.byte	0x4
 959 050e 09       		.byte	0x9
 960 050f 38       		.byte	0x38
 961 0510 21050000 		.4byte	0x521
 962 0514 06       		.uleb128 0x6
 963 0515 C0040000 		.4byte	.LASF85
 964 0519 09       		.byte	0x9
 965 051a 3C       		.byte	0x3c
 966 051b E4000000 		.4byte	0xe4
 967 051f 00       		.byte	0
 968 0520 00       		.byte	0
 969 0521 04       		.uleb128 0x4
 970 0522 EF020000 		.4byte	.LASF86
 971 0526 09       		.byte	0x9
 972 0527 3D       		.byte	0x3d
 973 0528 0C050000 		.4byte	0x50c
 974 052c 12       		.uleb128 0x12
 975 052d 04       		.byte	0x4
 976 052e 06       		.byte	0x6
 977 052f FA       		.byte	0xfa
 978 0530 95050000 		.4byte	0x595
ARM GAS  /tmp/cc80SRS3.s 			page 30


 979 0534 13       		.uleb128 0x13
 980 0535 13000000 		.4byte	.LASF87
 981 0539 06       		.byte	0x6
 982 053a 0101     		.2byte	0x101
 983 053c 1B010000 		.4byte	0x11b
 984 0540 13       		.uleb128 0x13
 985 0541 8D000000 		.4byte	.LASF88
 986 0545 06       		.byte	0x6
 987 0546 0801     		.2byte	0x108
 988 0548 1B010000 		.4byte	0x11b
 989 054c 13       		.uleb128 0x13
 990 054d 19060000 		.4byte	.LASF89
 991 0551 06       		.byte	0x6
 992 0552 0F01     		.2byte	0x10f
 993 0554 1A030000 		.4byte	0x31a
 994 0558 13       		.uleb128 0x13
 995 0559 0D000000 		.4byte	.LASF90
 996 055d 06       		.byte	0x6
 997 055e 1601     		.2byte	0x116
 998 0560 95050000 		.4byte	0x595
 999 0564 13       		.uleb128 0x13
 1000 0565 A1000000 		.4byte	.LASF91
 1001 0569 06       		.byte	0x6
 1002 056a 1B01     		.2byte	0x11b
 1003 056c 1B010000 		.4byte	0x11b
 1004 0570 13       		.uleb128 0x13
 1005 0571 04020000 		.4byte	.LASF92
 1006 0575 06       		.byte	0x6
 1007 0576 2401     		.2byte	0x124
 1008 0578 C0050000 		.4byte	0x5c0
 1009 057c 13       		.uleb128 0x13
 1010 057d 23040000 		.4byte	.LASF93
 1011 0581 06       		.byte	0x6
 1012 0582 2D01     		.2byte	0x12d
 1013 0584 F7050000 		.4byte	0x5f7
 1014 0588 13       		.uleb128 0x13
 1015 0589 A7030000 		.4byte	.LASF94
 1016 058d 06       		.byte	0x6
 1017 058e 3501     		.2byte	0x135
 1018 0590 26010000 		.4byte	0x126
 1019 0594 00       		.byte	0
 1020 0595 09       		.uleb128 0x9
 1021 0596 04       		.byte	0x4
 1022 0597 32020000 		.4byte	0x232
 1023 059b 05       		.uleb128 0x5
 1024 059c 02040000 		.4byte	.LASF95
 1025 05a0 0C       		.byte	0xc
 1026 05a1 0A       		.byte	0xa
 1027 05a2 34       		.byte	0x34
 1028 05a3 C0050000 		.4byte	0x5c0
 1029 05a7 06       		.uleb128 0x6
 1030 05a8 84010000 		.4byte	.LASF96
 1031 05ac 0A       		.byte	0xa
 1032 05ad 35       		.byte	0x35
 1033 05ae 67020000 		.4byte	0x267
 1034 05b2 00       		.byte	0
 1035 05b3 06       		.uleb128 0x6
ARM GAS  /tmp/cc80SRS3.s 			page 31


 1036 05b4 1B020000 		.4byte	.LASF97
 1037 05b8 0A       		.byte	0xa
 1038 05b9 37       		.byte	0x37
 1039 05ba 31010000 		.4byte	0x131
 1040 05be 08       		.byte	0x8
 1041 05bf 00       		.byte	0
 1042 05c0 09       		.uleb128 0x9
 1043 05c1 04       		.byte	0x4
 1044 05c2 9B050000 		.4byte	0x59b
 1045 05c6 05       		.uleb128 0x5
 1046 05c7 1B050000 		.4byte	.LASF98
 1047 05cb 10       		.byte	0x10
 1048 05cc 0B       		.byte	0xb
 1049 05cd 39       		.byte	0x39
 1050 05ce F7050000 		.4byte	0x5f7
 1051 05d2 06       		.uleb128 0x6
 1052 05d3 0B010000 		.4byte	.LASF99
 1053 05d7 0B       		.byte	0xb
 1054 05d8 3A       		.byte	0x3a
 1055 05d9 67020000 		.4byte	0x267
 1056 05dd 00       		.byte	0
 1057 05de 06       		.uleb128 0x6
 1058 05df 3F060000 		.4byte	.LASF100
 1059 05e3 0B       		.byte	0xb
 1060 05e4 3C       		.byte	0x3c
 1061 05e5 3D020000 		.4byte	0x23d
 1062 05e9 08       		.byte	0x8
 1063 05ea 06       		.uleb128 0x6
 1064 05eb 86040000 		.4byte	.LASF101
 1065 05ef 0B       		.byte	0xb
 1066 05f0 3E       		.byte	0x3e
 1067 05f1 35060000 		.4byte	0x635
 1068 05f5 0C       		.byte	0xc
 1069 05f6 00       		.byte	0
 1070 05f7 09       		.uleb128 0x9
 1071 05f8 04       		.byte	0x4
 1072 05f9 C6050000 		.4byte	0x5c6
 1073 05fd 09       		.uleb128 0x9
 1074 05fe 04       		.byte	0x4
 1075 05ff 03060000 		.4byte	0x603
 1076 0603 14       		.uleb128 0x14
 1077 0604 08060000 		.4byte	0x608
 1078 0608 03       		.uleb128 0x3
 1079 0609 01       		.byte	0x1
 1080 060a 08       		.byte	0x8
 1081 060b 5D040000 		.4byte	.LASF102
 1082 060f 09       		.uleb128 0x9
 1083 0610 04       		.byte	0x4
 1084 0611 1C030000 		.4byte	0x31c
 1085 0615 0F       		.uleb128 0xf
 1086 0616 FD050000 		.4byte	0x5fd
 1087 061a 15       		.uleb128 0x15
 1088 061b 67040000 		.4byte	0x467
 1089 061f 2A060000 		.4byte	0x62a
 1090 0623 16       		.uleb128 0x16
 1091 0624 50040000 		.4byte	0x450
 1092 0628 1A       		.byte	0x1a
ARM GAS  /tmp/cc80SRS3.s 			page 32


 1093 0629 00       		.byte	0
 1094 062a 04       		.uleb128 0x4
 1095 062b BF010000 		.4byte	.LASF103
 1096 062f 0B       		.byte	0xb
 1097 0630 34       		.byte	0x34
 1098 0631 C6050000 		.4byte	0x5c6
 1099 0635 09       		.uleb128 0x9
 1100 0636 04       		.byte	0x4
 1101 0637 2A060000 		.4byte	0x62a
 1102 063b 03       		.uleb128 0x3
 1103 063c 01       		.byte	0x1
 1104 063d 02       		.byte	0x2
 1105 063e 68030000 		.4byte	.LASF104
 1106 0642 11       		.uleb128 0x11
 1107 0643 04       		.byte	0x4
 1108 0644 0C       		.byte	0xc
 1109 0645 E7       		.byte	0xe7
 1110 0646 63060000 		.4byte	0x663
 1111 064a 10       		.uleb128 0x10
 1112 064b 73657400 		.ascii	"set\000"
 1113 064f 0C       		.byte	0xc
 1114 0650 E8       		.byte	0xe8
 1115 0651 AD000000 		.4byte	0xad
 1116 0655 00       		.byte	0
 1117 0656 06       		.uleb128 0x6
 1118 0657 CF020000 		.4byte	.LASF105
 1119 065b 0C       		.byte	0xc
 1120 065c E9       		.byte	0xe9
 1121 065d AD000000 		.4byte	0xad
 1122 0661 02       		.byte	0x2
 1123 0662 00       		.byte	0
 1124 0663 12       		.uleb128 0x12
 1125 0664 04       		.byte	0x4
 1126 0665 0C       		.byte	0xc
 1127 0666 E5       		.byte	0xe5
 1128 0667 7E060000 		.4byte	0x67e
 1129 066b 17       		.uleb128 0x17
 1130 066c 5700     		.ascii	"W\000"
 1131 066e 0C       		.byte	0xc
 1132 066f E6       		.byte	0xe6
 1133 0670 C3000000 		.4byte	0xc3
 1134 0674 17       		.uleb128 0x17
 1135 0675 4800     		.ascii	"H\000"
 1136 0677 0C       		.byte	0xc
 1137 0678 EA       		.byte	0xea
 1138 0679 42060000 		.4byte	0x642
 1139 067d 00       		.byte	0
 1140 067e 11       		.uleb128 0x11
 1141 067f 2C       		.byte	0x2c
 1142 0680 0C       		.byte	0xc
 1143 0681 DD       		.byte	0xdd
 1144 0682 0B070000 		.4byte	0x70b
 1145 0686 06       		.uleb128 0x6
 1146 0687 6A000000 		.4byte	.LASF106
 1147 068b 0C       		.byte	0xc
 1148 068c DF       		.byte	0xdf
 1149 068d 57040000 		.4byte	0x457
ARM GAS  /tmp/cc80SRS3.s 			page 33


 1150 0691 00       		.byte	0
 1151 0692 06       		.uleb128 0x6
 1152 0693 3B000000 		.4byte	.LASF107
 1153 0697 0C       		.byte	0xc
 1154 0698 E0       		.byte	0xe0
 1155 0699 57040000 		.4byte	0x457
 1156 069d 04       		.byte	0x4
 1157 069e 06       		.uleb128 0x6
 1158 069f 8C010000 		.4byte	.LASF108
 1159 06a3 0C       		.byte	0xc
 1160 06a4 E1       		.byte	0xe1
 1161 06a5 57040000 		.4byte	0x457
 1162 06a9 08       		.byte	0x8
 1163 06aa 06       		.uleb128 0x6
 1164 06ab 87000000 		.4byte	.LASF109
 1165 06af 0C       		.byte	0xc
 1166 06b0 E2       		.byte	0xe2
 1167 06b1 57040000 		.4byte	0x457
 1168 06b5 0C       		.byte	0xc
 1169 06b6 10       		.uleb128 0x10
 1170 06b7 49445200 		.ascii	"IDR\000"
 1171 06bb 0C       		.byte	0xc
 1172 06bc E3       		.byte	0xe3
 1173 06bd 57040000 		.4byte	0x457
 1174 06c1 10       		.byte	0x10
 1175 06c2 10       		.uleb128 0x10
 1176 06c3 4F445200 		.ascii	"ODR\000"
 1177 06c7 0C       		.byte	0xc
 1178 06c8 E4       		.byte	0xe4
 1179 06c9 57040000 		.4byte	0x457
 1180 06cd 14       		.byte	0x14
 1181 06ce 06       		.uleb128 0x6
 1182 06cf FE000000 		.4byte	.LASF110
 1183 06d3 0C       		.byte	0xc
 1184 06d4 EB       		.byte	0xeb
 1185 06d5 0B070000 		.4byte	0x70b
 1186 06d9 18       		.byte	0x18
 1187 06da 06       		.uleb128 0x6
 1188 06db 16020000 		.4byte	.LASF111
 1189 06df 0C       		.byte	0xc
 1190 06e0 EC       		.byte	0xec
 1191 06e1 57040000 		.4byte	0x457
 1192 06e5 1C       		.byte	0x1c
 1193 06e6 06       		.uleb128 0x6
 1194 06e7 2C030000 		.4byte	.LASF112
 1195 06eb 0C       		.byte	0xc
 1196 06ec ED       		.byte	0xed
 1197 06ed 57040000 		.4byte	0x457
 1198 06f1 20       		.byte	0x20
 1199 06f2 06       		.uleb128 0x6
 1200 06f3 19030000 		.4byte	.LASF113
 1201 06f7 0C       		.byte	0xc
 1202 06f8 EE       		.byte	0xee
 1203 06f9 57040000 		.4byte	0x457
 1204 06fd 24       		.byte	0x24
 1205 06fe 10       		.uleb128 0x10
 1206 06ff 42525200 		.ascii	"BRR\000"
ARM GAS  /tmp/cc80SRS3.s 			page 34


 1207 0703 0C       		.byte	0xc
 1208 0704 EF       		.byte	0xef
 1209 0705 57040000 		.4byte	0x457
 1210 0709 28       		.byte	0x28
 1211 070a 00       		.byte	0
 1212 070b 0F       		.uleb128 0xf
 1213 070c 63060000 		.4byte	0x663
 1214 0710 04       		.uleb128 0x4
 1215 0711 B2010000 		.4byte	.LASF114
 1216 0715 0C       		.byte	0xc
 1217 0716 F0       		.byte	0xf0
 1218 0717 7E060000 		.4byte	0x67e
 1219 071b 18       		.uleb128 0x18
 1220 071c 5D000000 		.4byte	.LASF115
 1221 0720 0C       		.byte	0xc
 1222 0721 3F01     		.2byte	0x13f
 1223 0723 C3000000 		.4byte	0xc3
 1224 0727 18       		.uleb128 0x18
 1225 0728 36060000 		.4byte	.LASF116
 1226 072c 0C       		.byte	0xc
 1227 072d 4401     		.2byte	0x144
 1228 072f C3000000 		.4byte	0xc3
 1229 0733 18       		.uleb128 0x18
 1230 0734 C7040000 		.4byte	.LASF117
 1231 0738 0C       		.byte	0xc
 1232 0739 5101     		.2byte	0x151
 1233 073b 3F070000 		.4byte	0x73f
 1234 073f 09       		.uleb128 0x9
 1235 0740 04       		.byte	0x4
 1236 0741 10070000 		.4byte	0x710
 1237 0745 11       		.uleb128 0x11
 1238 0746 0C       		.byte	0xc
 1239 0747 0D       		.byte	0xd
 1240 0748 7A       		.byte	0x7a
 1241 0749 72070000 		.4byte	0x772
 1242 074d 06       		.uleb128 0x6
 1243 074e 12030000 		.4byte	.LASF118
 1244 0752 0D       		.byte	0xd
 1245 0753 7E       		.byte	0x7e
 1246 0754 33070000 		.4byte	0x733
 1247 0758 00       		.byte	0
 1248 0759 06       		.uleb128 0x6
 1249 075a 9C010000 		.4byte	.LASF119
 1250 075e 0D       		.byte	0xd
 1251 075f 84       		.byte	0x84
 1252 0760 1B070000 		.4byte	0x71b
 1253 0764 04       		.byte	0x4
 1254 0765 06       		.uleb128 0x6
 1255 0766 C0040000 		.4byte	.LASF85
 1256 076a 0D       		.byte	0xd
 1257 076b 88       		.byte	0x88
 1258 076c D9000000 		.4byte	0xd9
 1259 0770 08       		.byte	0x8
 1260 0771 00       		.byte	0
 1261 0772 04       		.uleb128 0x4
 1262 0773 C7010000 		.4byte	.LASF120
 1263 0777 0D       		.byte	0xd
ARM GAS  /tmp/cc80SRS3.s 			page 35


 1264 0778 89       		.byte	0x89
 1265 0779 45070000 		.4byte	0x745
 1266 077d 19       		.uleb128 0x19
 1267 077e 67040000 		.4byte	.LASF132
 1268 0782 01       		.byte	0x1
 1269 0783 41       		.byte	0x41
 1270 0784 1B070000 		.4byte	0x71b
 1271 0788 00000000 		.4byte	.LFB272
 1272 078c 10000000 		.4byte	.LFE272-.LFB272
 1273 0790 01       		.uleb128 0x1
 1274 0791 9C       		.byte	0x9c
 1275 0792 AF070000 		.4byte	0x7af
 1276 0796 1A       		.uleb128 0x1a
 1277 0797 62757300 		.ascii	"bus\000"
 1278 079b 01       		.byte	0x1
 1279 079c 41       		.byte	0x41
 1280 079d AF070000 		.4byte	0x7af
 1281 07a1 00000000 		.4byte	.LLST0
 1282 07a5 1B       		.uleb128 0x1b
 1283 07a6 2D000000 		.4byte	.LASF122
 1284 07aa C5070000 		.4byte	0x7c5
 1285 07ae 00       		.byte	0
 1286 07af 09       		.uleb128 0x9
 1287 07b0 04       		.byte	0x4
 1288 07b1 72070000 		.4byte	0x772
 1289 07b5 15       		.uleb128 0x15
 1290 07b6 08060000 		.4byte	0x608
 1291 07ba C5070000 		.4byte	0x7c5
 1292 07be 16       		.uleb128 0x16
 1293 07bf 50040000 		.4byte	0x450
 1294 07c3 0A       		.byte	0xa
 1295 07c4 00       		.byte	0
 1296 07c5 14       		.uleb128 0x14
 1297 07c6 B5070000 		.4byte	0x7b5
 1298 07ca 1C       		.uleb128 0x1c
 1299 07cb FF040000 		.4byte	.LASF124
 1300 07cf 01       		.byte	0x1
 1301 07d0 5A       		.byte	0x5a
 1302 07d1 00000000 		.4byte	.LFB273
 1303 07d5 1E000000 		.4byte	.LFE273-.LFB273
 1304 07d9 01       		.uleb128 0x1
 1305 07da 9C       		.byte	0x9c
 1306 07db 05080000 		.4byte	0x805
 1307 07df 1A       		.uleb128 0x1a
 1308 07e0 62757300 		.ascii	"bus\000"
 1309 07e4 01       		.byte	0x1
 1310 07e5 5A       		.byte	0x5a
 1311 07e6 AF070000 		.4byte	0x7af
 1312 07ea 21000000 		.4byte	.LLST1
 1313 07ee 1D       		.uleb128 0x1d
 1314 07ef 28010000 		.4byte	.LASF121
 1315 07f3 01       		.byte	0x1
 1316 07f4 5A       		.byte	0x5a
 1317 07f5 1B070000 		.4byte	0x71b
 1318 07f9 01       		.uleb128 0x1
 1319 07fa 51       		.byte	0x51
 1320 07fb 1B       		.uleb128 0x1b
ARM GAS  /tmp/cc80SRS3.s 			page 36


 1321 07fc 1A010000 		.4byte	.LASF123
 1322 0800 15080000 		.4byte	0x815
 1323 0804 00       		.byte	0
 1324 0805 15       		.uleb128 0x15
 1325 0806 08060000 		.4byte	0x608
 1326 080a 15080000 		.4byte	0x815
 1327 080e 16       		.uleb128 0x16
 1328 080f 50040000 		.4byte	0x450
 1329 0813 0B       		.byte	0xb
 1330 0814 00       		.byte	0
 1331 0815 14       		.uleb128 0x14
 1332 0816 05080000 		.4byte	0x805
 1333 081a 1C       		.uleb128 0x1c
 1334 081b 1E030000 		.4byte	.LASF125
 1335 081f 01       		.byte	0x1
 1336 0820 71       		.byte	0x71
 1337 0821 00000000 		.4byte	.LFB274
 1338 0825 16000000 		.4byte	.LFE274-.LFB274
 1339 0829 01       		.uleb128 0x1
 1340 082a 9C       		.byte	0x9c
 1341 082b 68080000 		.4byte	0x868
 1342 082f 1A       		.uleb128 0x1a
 1343 0830 62757300 		.ascii	"bus\000"
 1344 0834 01       		.byte	0x1
 1345 0835 71       		.byte	0x71
 1346 0836 AF070000 		.4byte	0x7af
 1347 083a 42000000 		.4byte	.LLST2
 1348 083e 1E       		.uleb128 0x1e
 1349 083f 62040000 		.4byte	.LASF126
 1350 0843 01       		.byte	0x1
 1351 0844 71       		.byte	0x71
 1352 0845 27070000 		.4byte	0x727
 1353 0849 63000000 		.4byte	.LLST3
 1354 084d 1B       		.uleb128 0x1b
 1355 084e C2030000 		.4byte	.LASF127
 1356 0852 78080000 		.4byte	0x878
 1357 0856 1F       		.uleb128 0x1f
 1358 0857 16000000 		.4byte	.LVL7
 1359 085b 99080000 		.4byte	0x899
 1360 085f 20       		.uleb128 0x20
 1361 0860 01       		.uleb128 0x1
 1362 0861 52       		.byte	0x52
 1363 0862 03       		.uleb128 0x3
 1364 0863 F3       		.byte	0xf3
 1365 0864 01       		.uleb128 0x1
 1366 0865 51       		.byte	0x51
 1367 0866 00       		.byte	0
 1368 0867 00       		.byte	0
 1369 0868 15       		.uleb128 0x15
 1370 0869 08060000 		.4byte	0x608
 1371 086d 78080000 		.4byte	0x878
 1372 0871 16       		.uleb128 0x16
 1373 0872 50040000 		.4byte	0x450
 1374 0876 0D       		.byte	0xd
 1375 0877 00       		.byte	0
 1376 0878 14       		.uleb128 0x14
 1377 0879 68080000 		.4byte	0x868
ARM GAS  /tmp/cc80SRS3.s 			page 37


 1378 087d 21       		.uleb128 0x21
 1379 087e BF000000 		.4byte	.LASF128
 1380 0882 0E       		.byte	0xe
 1381 0883 FA06     		.2byte	0x6fa
 1382 0885 89080000 		.4byte	0x889
 1383 0889 0F       		.uleb128 0xf
 1384 088a B8000000 		.4byte	0xb8
 1385 088e 22       		.uleb128 0x22
 1386 088f 636800   		.ascii	"ch\000"
 1387 0892 06       		.byte	0x6
 1388 0893 0B02     		.2byte	0x20b
 1389 0895 E9030000 		.4byte	0x3e9
 1390 0899 23       		.uleb128 0x23
 1391 089a DA040000 		.4byte	.LASF133
 1392 089e 0C       		.byte	0xc
 1393 089f 2402     		.2byte	0x224
 1394 08a1 0C       		.uleb128 0xc
 1395 08a2 33070000 		.4byte	0x733
 1396 08a6 0C       		.uleb128 0xc
 1397 08a7 1B070000 		.4byte	0x71b
 1398 08ab 0C       		.uleb128 0xc
 1399 08ac 27070000 		.4byte	0x727
 1400 08b0 00       		.byte	0
 1401 08b1 00       		.byte	0
 1402              		.section	.debug_abbrev,"",%progbits
 1403              	.Ldebug_abbrev0:
 1404 0000 01       		.uleb128 0x1
 1405 0001 11       		.uleb128 0x11
 1406 0002 01       		.byte	0x1
 1407 0003 25       		.uleb128 0x25
 1408 0004 0E       		.uleb128 0xe
 1409 0005 13       		.uleb128 0x13
 1410 0006 0B       		.uleb128 0xb
 1411 0007 03       		.uleb128 0x3
 1412 0008 0E       		.uleb128 0xe
 1413 0009 1B       		.uleb128 0x1b
 1414 000a 0E       		.uleb128 0xe
 1415 000b 55       		.uleb128 0x55
 1416 000c 17       		.uleb128 0x17
 1417 000d 11       		.uleb128 0x11
 1418 000e 01       		.uleb128 0x1
 1419 000f 10       		.uleb128 0x10
 1420 0010 17       		.uleb128 0x17
 1421 0011 00       		.byte	0
 1422 0012 00       		.byte	0
 1423 0013 02       		.uleb128 0x2
 1424 0014 24       		.uleb128 0x24
 1425 0015 00       		.byte	0
 1426 0016 0B       		.uleb128 0xb
 1427 0017 0B       		.uleb128 0xb
 1428 0018 3E       		.uleb128 0x3e
 1429 0019 0B       		.uleb128 0xb
 1430 001a 03       		.uleb128 0x3
 1431 001b 08       		.uleb128 0x8
 1432 001c 00       		.byte	0
 1433 001d 00       		.byte	0
 1434 001e 03       		.uleb128 0x3
ARM GAS  /tmp/cc80SRS3.s 			page 38


 1435 001f 24       		.uleb128 0x24
 1436 0020 00       		.byte	0
 1437 0021 0B       		.uleb128 0xb
 1438 0022 0B       		.uleb128 0xb
 1439 0023 3E       		.uleb128 0x3e
 1440 0024 0B       		.uleb128 0xb
 1441 0025 03       		.uleb128 0x3
 1442 0026 0E       		.uleb128 0xe
 1443 0027 00       		.byte	0
 1444 0028 00       		.byte	0
 1445 0029 04       		.uleb128 0x4
 1446 002a 16       		.uleb128 0x16
 1447 002b 00       		.byte	0
 1448 002c 03       		.uleb128 0x3
 1449 002d 0E       		.uleb128 0xe
 1450 002e 3A       		.uleb128 0x3a
 1451 002f 0B       		.uleb128 0xb
 1452 0030 3B       		.uleb128 0x3b
 1453 0031 0B       		.uleb128 0xb
 1454 0032 49       		.uleb128 0x49
 1455 0033 13       		.uleb128 0x13
 1456 0034 00       		.byte	0
 1457 0035 00       		.byte	0
 1458 0036 05       		.uleb128 0x5
 1459 0037 13       		.uleb128 0x13
 1460 0038 01       		.byte	0x1
 1461 0039 03       		.uleb128 0x3
 1462 003a 0E       		.uleb128 0xe
 1463 003b 0B       		.uleb128 0xb
 1464 003c 0B       		.uleb128 0xb
 1465 003d 3A       		.uleb128 0x3a
 1466 003e 0B       		.uleb128 0xb
 1467 003f 3B       		.uleb128 0x3b
 1468 0040 0B       		.uleb128 0xb
 1469 0041 01       		.uleb128 0x1
 1470 0042 13       		.uleb128 0x13
 1471 0043 00       		.byte	0
 1472 0044 00       		.byte	0
 1473 0045 06       		.uleb128 0x6
 1474 0046 0D       		.uleb128 0xd
 1475 0047 00       		.byte	0
 1476 0048 03       		.uleb128 0x3
 1477 0049 0E       		.uleb128 0xe
 1478 004a 3A       		.uleb128 0x3a
 1479 004b 0B       		.uleb128 0xb
 1480 004c 3B       		.uleb128 0x3b
 1481 004d 0B       		.uleb128 0xb
 1482 004e 49       		.uleb128 0x49
 1483 004f 13       		.uleb128 0x13
 1484 0050 38       		.uleb128 0x38
 1485 0051 0B       		.uleb128 0xb
 1486 0052 00       		.byte	0
 1487 0053 00       		.byte	0
 1488 0054 07       		.uleb128 0x7
 1489 0055 0D       		.uleb128 0xd
 1490 0056 00       		.byte	0
 1491 0057 03       		.uleb128 0x3
ARM GAS  /tmp/cc80SRS3.s 			page 39


 1492 0058 08       		.uleb128 0x8
 1493 0059 3A       		.uleb128 0x3a
 1494 005a 0B       		.uleb128 0xb
 1495 005b 3B       		.uleb128 0x3b
 1496 005c 05       		.uleb128 0x5
 1497 005d 49       		.uleb128 0x49
 1498 005e 13       		.uleb128 0x13
 1499 005f 38       		.uleb128 0x38
 1500 0060 0B       		.uleb128 0xb
 1501 0061 00       		.byte	0
 1502 0062 00       		.byte	0
 1503 0063 08       		.uleb128 0x8
 1504 0064 0D       		.uleb128 0xd
 1505 0065 00       		.byte	0
 1506 0066 03       		.uleb128 0x3
 1507 0067 0E       		.uleb128 0xe
 1508 0068 3A       		.uleb128 0x3a
 1509 0069 0B       		.uleb128 0xb
 1510 006a 3B       		.uleb128 0x3b
 1511 006b 05       		.uleb128 0x5
 1512 006c 49       		.uleb128 0x49
 1513 006d 13       		.uleb128 0x13
 1514 006e 38       		.uleb128 0x38
 1515 006f 0B       		.uleb128 0xb
 1516 0070 00       		.byte	0
 1517 0071 00       		.byte	0
 1518 0072 09       		.uleb128 0x9
 1519 0073 0F       		.uleb128 0xf
 1520 0074 00       		.byte	0
 1521 0075 0B       		.uleb128 0xb
 1522 0076 0B       		.uleb128 0xb
 1523 0077 49       		.uleb128 0x49
 1524 0078 13       		.uleb128 0x13
 1525 0079 00       		.byte	0
 1526 007a 00       		.byte	0
 1527 007b 0A       		.uleb128 0xa
 1528 007c 13       		.uleb128 0x13
 1529 007d 01       		.byte	0x1
 1530 007e 03       		.uleb128 0x3
 1531 007f 0E       		.uleb128 0xe
 1532 0080 0B       		.uleb128 0xb
 1533 0081 0B       		.uleb128 0xb
 1534 0082 3A       		.uleb128 0x3a
 1535 0083 0B       		.uleb128 0xb
 1536 0084 3B       		.uleb128 0x3b
 1537 0085 05       		.uleb128 0x5
 1538 0086 01       		.uleb128 0x1
 1539 0087 13       		.uleb128 0x13
 1540 0088 00       		.byte	0
 1541 0089 00       		.byte	0
 1542 008a 0B       		.uleb128 0xb
 1543 008b 15       		.uleb128 0x15
 1544 008c 01       		.byte	0x1
 1545 008d 27       		.uleb128 0x27
 1546 008e 19       		.uleb128 0x19
 1547 008f 01       		.uleb128 0x1
 1548 0090 13       		.uleb128 0x13
ARM GAS  /tmp/cc80SRS3.s 			page 40


 1549 0091 00       		.byte	0
 1550 0092 00       		.byte	0
 1551 0093 0C       		.uleb128 0xc
 1552 0094 05       		.uleb128 0x5
 1553 0095 00       		.byte	0
 1554 0096 49       		.uleb128 0x49
 1555 0097 13       		.uleb128 0x13
 1556 0098 00       		.byte	0
 1557 0099 00       		.byte	0
 1558 009a 0D       		.uleb128 0xd
 1559 009b 0F       		.uleb128 0xf
 1560 009c 00       		.byte	0
 1561 009d 0B       		.uleb128 0xb
 1562 009e 0B       		.uleb128 0xb
 1563 009f 00       		.byte	0
 1564 00a0 00       		.byte	0
 1565 00a1 0E       		.uleb128 0xe
 1566 00a2 13       		.uleb128 0x13
 1567 00a3 01       		.byte	0x1
 1568 00a4 03       		.uleb128 0x3
 1569 00a5 0E       		.uleb128 0xe
 1570 00a6 0B       		.uleb128 0xb
 1571 00a7 05       		.uleb128 0x5
 1572 00a8 3A       		.uleb128 0x3a
 1573 00a9 0B       		.uleb128 0xb
 1574 00aa 3B       		.uleb128 0x3b
 1575 00ab 05       		.uleb128 0x5
 1576 00ac 01       		.uleb128 0x1
 1577 00ad 13       		.uleb128 0x13
 1578 00ae 00       		.byte	0
 1579 00af 00       		.byte	0
 1580 00b0 0F       		.uleb128 0xf
 1581 00b1 35       		.uleb128 0x35
 1582 00b2 00       		.byte	0
 1583 00b3 49       		.uleb128 0x49
 1584 00b4 13       		.uleb128 0x13
 1585 00b5 00       		.byte	0
 1586 00b6 00       		.byte	0
 1587 00b7 10       		.uleb128 0x10
 1588 00b8 0D       		.uleb128 0xd
 1589 00b9 00       		.byte	0
 1590 00ba 03       		.uleb128 0x3
 1591 00bb 08       		.uleb128 0x8
 1592 00bc 3A       		.uleb128 0x3a
 1593 00bd 0B       		.uleb128 0xb
 1594 00be 3B       		.uleb128 0x3b
 1595 00bf 0B       		.uleb128 0xb
 1596 00c0 49       		.uleb128 0x49
 1597 00c1 13       		.uleb128 0x13
 1598 00c2 38       		.uleb128 0x38
 1599 00c3 0B       		.uleb128 0xb
 1600 00c4 00       		.byte	0
 1601 00c5 00       		.byte	0
 1602 00c6 11       		.uleb128 0x11
 1603 00c7 13       		.uleb128 0x13
 1604 00c8 01       		.byte	0x1
 1605 00c9 0B       		.uleb128 0xb
ARM GAS  /tmp/cc80SRS3.s 			page 41


 1606 00ca 0B       		.uleb128 0xb
 1607 00cb 3A       		.uleb128 0x3a
 1608 00cc 0B       		.uleb128 0xb
 1609 00cd 3B       		.uleb128 0x3b
 1610 00ce 0B       		.uleb128 0xb
 1611 00cf 01       		.uleb128 0x1
 1612 00d0 13       		.uleb128 0x13
 1613 00d1 00       		.byte	0
 1614 00d2 00       		.byte	0
 1615 00d3 12       		.uleb128 0x12
 1616 00d4 17       		.uleb128 0x17
 1617 00d5 01       		.byte	0x1
 1618 00d6 0B       		.uleb128 0xb
 1619 00d7 0B       		.uleb128 0xb
 1620 00d8 3A       		.uleb128 0x3a
 1621 00d9 0B       		.uleb128 0xb
 1622 00da 3B       		.uleb128 0x3b
 1623 00db 0B       		.uleb128 0xb
 1624 00dc 01       		.uleb128 0x1
 1625 00dd 13       		.uleb128 0x13
 1626 00de 00       		.byte	0
 1627 00df 00       		.byte	0
 1628 00e0 13       		.uleb128 0x13
 1629 00e1 0D       		.uleb128 0xd
 1630 00e2 00       		.byte	0
 1631 00e3 03       		.uleb128 0x3
 1632 00e4 0E       		.uleb128 0xe
 1633 00e5 3A       		.uleb128 0x3a
 1634 00e6 0B       		.uleb128 0xb
 1635 00e7 3B       		.uleb128 0x3b
 1636 00e8 05       		.uleb128 0x5
 1637 00e9 49       		.uleb128 0x49
 1638 00ea 13       		.uleb128 0x13
 1639 00eb 00       		.byte	0
 1640 00ec 00       		.byte	0
 1641 00ed 14       		.uleb128 0x14
 1642 00ee 26       		.uleb128 0x26
 1643 00ef 00       		.byte	0
 1644 00f0 49       		.uleb128 0x49
 1645 00f1 13       		.uleb128 0x13
 1646 00f2 00       		.byte	0
 1647 00f3 00       		.byte	0
 1648 00f4 15       		.uleb128 0x15
 1649 00f5 01       		.uleb128 0x1
 1650 00f6 01       		.byte	0x1
 1651 00f7 49       		.uleb128 0x49
 1652 00f8 13       		.uleb128 0x13
 1653 00f9 01       		.uleb128 0x1
 1654 00fa 13       		.uleb128 0x13
 1655 00fb 00       		.byte	0
 1656 00fc 00       		.byte	0
 1657 00fd 16       		.uleb128 0x16
 1658 00fe 21       		.uleb128 0x21
 1659 00ff 00       		.byte	0
 1660 0100 49       		.uleb128 0x49
 1661 0101 13       		.uleb128 0x13
 1662 0102 2F       		.uleb128 0x2f
ARM GAS  /tmp/cc80SRS3.s 			page 42


 1663 0103 0B       		.uleb128 0xb
 1664 0104 00       		.byte	0
 1665 0105 00       		.byte	0
 1666 0106 17       		.uleb128 0x17
 1667 0107 0D       		.uleb128 0xd
 1668 0108 00       		.byte	0
 1669 0109 03       		.uleb128 0x3
 1670 010a 08       		.uleb128 0x8
 1671 010b 3A       		.uleb128 0x3a
 1672 010c 0B       		.uleb128 0xb
 1673 010d 3B       		.uleb128 0x3b
 1674 010e 0B       		.uleb128 0xb
 1675 010f 49       		.uleb128 0x49
 1676 0110 13       		.uleb128 0x13
 1677 0111 00       		.byte	0
 1678 0112 00       		.byte	0
 1679 0113 18       		.uleb128 0x18
 1680 0114 16       		.uleb128 0x16
 1681 0115 00       		.byte	0
 1682 0116 03       		.uleb128 0x3
 1683 0117 0E       		.uleb128 0xe
 1684 0118 3A       		.uleb128 0x3a
 1685 0119 0B       		.uleb128 0xb
 1686 011a 3B       		.uleb128 0x3b
 1687 011b 05       		.uleb128 0x5
 1688 011c 49       		.uleb128 0x49
 1689 011d 13       		.uleb128 0x13
 1690 011e 00       		.byte	0
 1691 011f 00       		.byte	0
 1692 0120 19       		.uleb128 0x19
 1693 0121 2E       		.uleb128 0x2e
 1694 0122 01       		.byte	0x1
 1695 0123 3F       		.uleb128 0x3f
 1696 0124 19       		.uleb128 0x19
 1697 0125 03       		.uleb128 0x3
 1698 0126 0E       		.uleb128 0xe
 1699 0127 3A       		.uleb128 0x3a
 1700 0128 0B       		.uleb128 0xb
 1701 0129 3B       		.uleb128 0x3b
 1702 012a 0B       		.uleb128 0xb
 1703 012b 27       		.uleb128 0x27
 1704 012c 19       		.uleb128 0x19
 1705 012d 49       		.uleb128 0x49
 1706 012e 13       		.uleb128 0x13
 1707 012f 11       		.uleb128 0x11
 1708 0130 01       		.uleb128 0x1
 1709 0131 12       		.uleb128 0x12
 1710 0132 06       		.uleb128 0x6
 1711 0133 40       		.uleb128 0x40
 1712 0134 18       		.uleb128 0x18
 1713 0135 9742     		.uleb128 0x2117
 1714 0137 19       		.uleb128 0x19
 1715 0138 01       		.uleb128 0x1
 1716 0139 13       		.uleb128 0x13
 1717 013a 00       		.byte	0
 1718 013b 00       		.byte	0
 1719 013c 1A       		.uleb128 0x1a
ARM GAS  /tmp/cc80SRS3.s 			page 43


 1720 013d 05       		.uleb128 0x5
 1721 013e 00       		.byte	0
 1722 013f 03       		.uleb128 0x3
 1723 0140 08       		.uleb128 0x8
 1724 0141 3A       		.uleb128 0x3a
 1725 0142 0B       		.uleb128 0xb
 1726 0143 3B       		.uleb128 0x3b
 1727 0144 0B       		.uleb128 0xb
 1728 0145 49       		.uleb128 0x49
 1729 0146 13       		.uleb128 0x13
 1730 0147 02       		.uleb128 0x2
 1731 0148 17       		.uleb128 0x17
 1732 0149 00       		.byte	0
 1733 014a 00       		.byte	0
 1734 014b 1B       		.uleb128 0x1b
 1735 014c 34       		.uleb128 0x34
 1736 014d 00       		.byte	0
 1737 014e 03       		.uleb128 0x3
 1738 014f 0E       		.uleb128 0xe
 1739 0150 49       		.uleb128 0x49
 1740 0151 13       		.uleb128 0x13
 1741 0152 34       		.uleb128 0x34
 1742 0153 19       		.uleb128 0x19
 1743 0154 00       		.byte	0
 1744 0155 00       		.byte	0
 1745 0156 1C       		.uleb128 0x1c
 1746 0157 2E       		.uleb128 0x2e
 1747 0158 01       		.byte	0x1
 1748 0159 3F       		.uleb128 0x3f
 1749 015a 19       		.uleb128 0x19
 1750 015b 03       		.uleb128 0x3
 1751 015c 0E       		.uleb128 0xe
 1752 015d 3A       		.uleb128 0x3a
 1753 015e 0B       		.uleb128 0xb
 1754 015f 3B       		.uleb128 0x3b
 1755 0160 0B       		.uleb128 0xb
 1756 0161 27       		.uleb128 0x27
 1757 0162 19       		.uleb128 0x19
 1758 0163 11       		.uleb128 0x11
 1759 0164 01       		.uleb128 0x1
 1760 0165 12       		.uleb128 0x12
 1761 0166 06       		.uleb128 0x6
 1762 0167 40       		.uleb128 0x40
 1763 0168 18       		.uleb128 0x18
 1764 0169 9742     		.uleb128 0x2117
 1765 016b 19       		.uleb128 0x19
 1766 016c 01       		.uleb128 0x1
 1767 016d 13       		.uleb128 0x13
 1768 016e 00       		.byte	0
 1769 016f 00       		.byte	0
 1770 0170 1D       		.uleb128 0x1d
 1771 0171 05       		.uleb128 0x5
 1772 0172 00       		.byte	0
 1773 0173 03       		.uleb128 0x3
 1774 0174 0E       		.uleb128 0xe
 1775 0175 3A       		.uleb128 0x3a
 1776 0176 0B       		.uleb128 0xb
ARM GAS  /tmp/cc80SRS3.s 			page 44


 1777 0177 3B       		.uleb128 0x3b
 1778 0178 0B       		.uleb128 0xb
 1779 0179 49       		.uleb128 0x49
 1780 017a 13       		.uleb128 0x13
 1781 017b 02       		.uleb128 0x2
 1782 017c 18       		.uleb128 0x18
 1783 017d 00       		.byte	0
 1784 017e 00       		.byte	0
 1785 017f 1E       		.uleb128 0x1e
 1786 0180 05       		.uleb128 0x5
 1787 0181 00       		.byte	0
 1788 0182 03       		.uleb128 0x3
 1789 0183 0E       		.uleb128 0xe
 1790 0184 3A       		.uleb128 0x3a
 1791 0185 0B       		.uleb128 0xb
 1792 0186 3B       		.uleb128 0x3b
 1793 0187 0B       		.uleb128 0xb
 1794 0188 49       		.uleb128 0x49
 1795 0189 13       		.uleb128 0x13
 1796 018a 02       		.uleb128 0x2
 1797 018b 17       		.uleb128 0x17
 1798 018c 00       		.byte	0
 1799 018d 00       		.byte	0
 1800 018e 1F       		.uleb128 0x1f
 1801 018f 898201   		.uleb128 0x4109
 1802 0192 01       		.byte	0x1
 1803 0193 11       		.uleb128 0x11
 1804 0194 01       		.uleb128 0x1
 1805 0195 9542     		.uleb128 0x2115
 1806 0197 19       		.uleb128 0x19
 1807 0198 31       		.uleb128 0x31
 1808 0199 13       		.uleb128 0x13
 1809 019a 00       		.byte	0
 1810 019b 00       		.byte	0
 1811 019c 20       		.uleb128 0x20
 1812 019d 8A8201   		.uleb128 0x410a
 1813 01a0 00       		.byte	0
 1814 01a1 02       		.uleb128 0x2
 1815 01a2 18       		.uleb128 0x18
 1816 01a3 9142     		.uleb128 0x2111
 1817 01a5 18       		.uleb128 0x18
 1818 01a6 00       		.byte	0
 1819 01a7 00       		.byte	0
 1820 01a8 21       		.uleb128 0x21
 1821 01a9 34       		.uleb128 0x34
 1822 01aa 00       		.byte	0
 1823 01ab 03       		.uleb128 0x3
 1824 01ac 0E       		.uleb128 0xe
 1825 01ad 3A       		.uleb128 0x3a
 1826 01ae 0B       		.uleb128 0xb
 1827 01af 3B       		.uleb128 0x3b
 1828 01b0 05       		.uleb128 0x5
 1829 01b1 49       		.uleb128 0x49
 1830 01b2 13       		.uleb128 0x13
 1831 01b3 3F       		.uleb128 0x3f
 1832 01b4 19       		.uleb128 0x19
 1833 01b5 3C       		.uleb128 0x3c
ARM GAS  /tmp/cc80SRS3.s 			page 45


 1834 01b6 19       		.uleb128 0x19
 1835 01b7 00       		.byte	0
 1836 01b8 00       		.byte	0
 1837 01b9 22       		.uleb128 0x22
 1838 01ba 34       		.uleb128 0x34
 1839 01bb 00       		.byte	0
 1840 01bc 03       		.uleb128 0x3
 1841 01bd 08       		.uleb128 0x8
 1842 01be 3A       		.uleb128 0x3a
 1843 01bf 0B       		.uleb128 0xb
 1844 01c0 3B       		.uleb128 0x3b
 1845 01c1 05       		.uleb128 0x5
 1846 01c2 49       		.uleb128 0x49
 1847 01c3 13       		.uleb128 0x13
 1848 01c4 3F       		.uleb128 0x3f
 1849 01c5 19       		.uleb128 0x19
 1850 01c6 3C       		.uleb128 0x3c
 1851 01c7 19       		.uleb128 0x19
 1852 01c8 00       		.byte	0
 1853 01c9 00       		.byte	0
 1854 01ca 23       		.uleb128 0x23
 1855 01cb 2E       		.uleb128 0x2e
 1856 01cc 01       		.byte	0x1
 1857 01cd 3F       		.uleb128 0x3f
 1858 01ce 19       		.uleb128 0x19
 1859 01cf 03       		.uleb128 0x3
 1860 01d0 0E       		.uleb128 0xe
 1861 01d1 3A       		.uleb128 0x3a
 1862 01d2 0B       		.uleb128 0xb
 1863 01d3 3B       		.uleb128 0x3b
 1864 01d4 05       		.uleb128 0x5
 1865 01d5 27       		.uleb128 0x27
 1866 01d6 19       		.uleb128 0x19
 1867 01d7 3C       		.uleb128 0x3c
 1868 01d8 19       		.uleb128 0x19
 1869 01d9 00       		.byte	0
 1870 01da 00       		.byte	0
 1871 01db 00       		.byte	0
 1872              		.section	.debug_loc,"",%progbits
 1873              	.Ldebug_loc0:
 1874              	.LLST0:
 1875 0000 00000000 		.4byte	.LVL0
 1876 0004 0C000000 		.4byte	.LVL1
 1877 0008 0100     		.2byte	0x1
 1878 000a 50       		.byte	0x50
 1879 000b 0C000000 		.4byte	.LVL1
 1880 000f 10000000 		.4byte	.LFE272
 1881 0013 0400     		.2byte	0x4
 1882 0015 F3       		.byte	0xf3
 1883 0016 01       		.uleb128 0x1
 1884 0017 50       		.byte	0x50
 1885 0018 9F       		.byte	0x9f
 1886 0019 00000000 		.4byte	0
 1887 001d 00000000 		.4byte	0
 1888              	.LLST1:
 1889 0021 00000000 		.4byte	.LVL2
 1890 0025 02000000 		.4byte	.LVL3
ARM GAS  /tmp/cc80SRS3.s 			page 46


 1891 0029 0100     		.2byte	0x1
 1892 002b 50       		.byte	0x50
 1893 002c 02000000 		.4byte	.LVL3
 1894 0030 1E000000 		.4byte	.LFE273
 1895 0034 0400     		.2byte	0x4
 1896 0036 F3       		.byte	0xf3
 1897 0037 01       		.uleb128 0x1
 1898 0038 50       		.byte	0x50
 1899 0039 9F       		.byte	0x9f
 1900 003a 00000000 		.4byte	0
 1901 003e 00000000 		.4byte	0
 1902              	.LLST2:
 1903 0042 00000000 		.4byte	.LVL4
 1904 0046 0A000000 		.4byte	.LVL6
 1905 004a 0100     		.2byte	0x1
 1906 004c 50       		.byte	0x50
 1907 004d 0A000000 		.4byte	.LVL6
 1908 0051 16000000 		.4byte	.LFE274
 1909 0055 0400     		.2byte	0x4
 1910 0057 F3       		.byte	0xf3
 1911 0058 01       		.uleb128 0x1
 1912 0059 50       		.byte	0x50
 1913 005a 9F       		.byte	0x9f
 1914 005b 00000000 		.4byte	0
 1915 005f 00000000 		.4byte	0
 1916              	.LLST3:
 1917 0063 00000000 		.4byte	.LVL4
 1918 0067 08000000 		.4byte	.LVL5
 1919 006b 0100     		.2byte	0x1
 1920 006d 51       		.byte	0x51
 1921 006e 08000000 		.4byte	.LVL5
 1922 0072 15000000 		.4byte	.LVL7-1
 1923 0076 0100     		.2byte	0x1
 1924 0078 52       		.byte	0x52
 1925 0079 15000000 		.4byte	.LVL7-1
 1926 007d 16000000 		.4byte	.LFE274
 1927 0081 0400     		.2byte	0x4
 1928 0083 F3       		.byte	0xf3
 1929 0084 01       		.uleb128 0x1
 1930 0085 51       		.byte	0x51
 1931 0086 9F       		.byte	0x9f
 1932 0087 00000000 		.4byte	0
 1933 008b 00000000 		.4byte	0
 1934              		.section	.debug_aranges,"",%progbits
 1935 0000 2C000000 		.4byte	0x2c
 1936 0004 0200     		.2byte	0x2
 1937 0006 00000000 		.4byte	.Ldebug_info0
 1938 000a 04       		.byte	0x4
 1939 000b 00       		.byte	0
 1940 000c 0000     		.2byte	0
 1941 000e 0000     		.2byte	0
 1942 0010 00000000 		.4byte	.LFB272
 1943 0014 10000000 		.4byte	.LFE272-.LFB272
 1944 0018 00000000 		.4byte	.LFB273
 1945 001c 1E000000 		.4byte	.LFE273-.LFB273
 1946 0020 00000000 		.4byte	.LFB274
 1947 0024 16000000 		.4byte	.LFE274-.LFB274
ARM GAS  /tmp/cc80SRS3.s 			page 47


 1948 0028 00000000 		.4byte	0
 1949 002c 00000000 		.4byte	0
 1950              		.section	.debug_ranges,"",%progbits
 1951              	.Ldebug_ranges0:
 1952 0000 00000000 		.4byte	.LFB272
 1953 0004 10000000 		.4byte	.LFE272
 1954 0008 00000000 		.4byte	.LFB273
 1955 000c 1E000000 		.4byte	.LFE273
 1956 0010 00000000 		.4byte	.LFB274
 1957 0014 16000000 		.4byte	.LFE274
 1958 0018 00000000 		.4byte	0
 1959 001c 00000000 		.4byte	0
 1960              		.section	.debug_line,"",%progbits
 1961              	.Ldebug_line0:
 1962 0000 BD020000 		.section	.debug_str,"MS",%progbits,1
 1962      02007D02 
 1962      00000201 
 1962      FB0E0D00 
 1962      01010101 
 1963              	.LASF52:
 1964 0000 72656164 		.ascii	"ready_list_t\000"
 1964      795F6C69 
 1964      73745F74 
 1964      00
 1965              	.LASF90:
 1966 000d 77747472 		.ascii	"wttrp\000"
 1966      7000
 1967              	.LASF87:
 1968 0013 7264796D 		.ascii	"rdymsg\000"
 1968      736700
 1969              	.LASF18:
 1970 001a 75696E74 		.ascii	"uint64_t\000"
 1970      36345F74 
 1970      00
 1971              	.LASF4:
 1972 0023 5F5F7569 		.ascii	"__uint8_t\000"
 1972      6E74385F 
 1972      7400
 1973              	.LASF122:
 1974 002d 5F5F6675 		.ascii	"__func__.7091\000"
 1974      6E635F5F 
 1974      2E373039 
 1974      3100
 1975              	.LASF107:
 1976 003b 4F545950 		.ascii	"OTYPER\000"
 1976      455200
 1977              	.LASF84:
 1978 0042 706F7274 		.ascii	"port_intctx\000"
 1978      5F696E74 
 1978      63747800 
 1979              	.LASF71:
 1980 004e 73797374 		.ascii	"system_debug_t\000"
 1980      656D5F64 
 1980      65627567 
 1980      5F7400
 1981              	.LASF115:
 1982 005d 696F706F 		.ascii	"ioportmask_t\000"
ARM GAS  /tmp/cc80SRS3.s 			page 48


 1982      72746D61 
 1982      736B5F74 
 1982      00
 1983              	.LASF106:
 1984 006a 4D4F4445 		.ascii	"MODER\000"
 1984      5200
 1985              	.LASF13:
 1986 0070 6C6F6E67 		.ascii	"long long unsigned int\000"
 1986      206C6F6E 
 1986      6720756E 
 1986      7369676E 
 1986      65642069 
 1987              	.LASF109:
 1988 0087 50555044 		.ascii	"PUPDR\000"
 1988      5200
 1989              	.LASF88:
 1990 008d 65786974 		.ascii	"exitcode\000"
 1990      636F6465 
 1990      00
 1991              	.LASF78:
 1992 0096 6D61696E 		.ascii	"mainthread\000"
 1992      74687265 
 1992      616400
 1993              	.LASF91:
 1994 00a1 73656E74 		.ascii	"sentmsg\000"
 1994      6D736700 
 1995              	.LASF68:
 1996 00a9 76697274 		.ascii	"virtual_timers_list_t\000"
 1996      75616C5F 
 1996      74696D65 
 1996      72735F6C 
 1996      6973745F 
 1997              	.LASF128:
 1998 00bf 49544D5F 		.ascii	"ITM_RxBuffer\000"
 1998      52784275 
 1998      66666572 
 1998      00
 1999              	.LASF51:
 2000 00cc 63685F74 		.ascii	"ch_threads_queue\000"
 2000      68726561 
 2000      64735F71 
 2000      75657565 
 2000      00
 2001              	.LASF32:
 2002 00dd 705F7072 		.ascii	"p_prio\000"
 2002      696F00
 2003              	.LASF11:
 2004 00e4 6C6F6E67 		.ascii	"long long int\000"
 2004      206C6F6E 
 2004      6720696E 
 2004      7400
 2005              	.LASF1:
 2006 00f2 7369676E 		.ascii	"signed char\000"
 2006      65642063 
 2006      68617200 
 2007              	.LASF110:
 2008 00fe 42535252 		.ascii	"BSRR\000"
ARM GAS  /tmp/cc80SRS3.s 			page 49


 2008      00
 2009              	.LASF45:
 2010 0103 705F6D70 		.ascii	"p_mpool\000"
 2010      6F6F6C00 
 2011              	.LASF99:
 2012 010b 6D5F7175 		.ascii	"m_queue\000"
 2012      65756500 
 2013              	.LASF77:
 2014 0113 76746C69 		.ascii	"vtlist\000"
 2014      737400
 2015              	.LASF123:
 2016 011a 5F5F6675 		.ascii	"__func__.7096\000"
 2016      6E635F5F 
 2016      2E373039 
 2016      3600
 2017              	.LASF121:
 2018 0128 62697473 		.ascii	"bits\000"
 2018      00
 2019              	.LASF8:
 2020 012d 6C6F6E67 		.ascii	"long int\000"
 2020      20696E74 
 2020      00
 2021              	.LASF131:
 2022 0136 2F6E6673 		.ascii	"/nfs/nfs4/home/jacoroge/p442-submissions/milestone2"
 2022      2F6E6673 
 2022      342F686F 
 2022      6D652F6A 
 2022      61636F72 
 2023 0169 00       		.ascii	"\000"
 2024              	.LASF22:
 2025 016a 74737461 		.ascii	"tstate_t\000"
 2025      74655F74 
 2025      00
 2026              	.LASF15:
 2027 0173 75696E74 		.ascii	"uint16_t\000"
 2027      31365F74 
 2027      00
 2028              	.LASF34:
 2029 017c 705F6E65 		.ascii	"p_newer\000"
 2029      77657200 
 2030              	.LASF96:
 2031 0184 735F7175 		.ascii	"s_queue\000"
 2031      65756500 
 2032              	.LASF108:
 2033 018c 4F535045 		.ascii	"OSPEEDR\000"
 2033      45445200 
 2034              	.LASF57:
 2035 0194 725F6E65 		.ascii	"r_newer\000"
 2035      77657200 
 2036              	.LASF119:
 2037 019c 6D61736B 		.ascii	"mask\000"
 2037      00
 2038              	.LASF81:
 2039 01a1 72656761 		.ascii	"regarm_t\000"
 2039      726D5F74 
 2039      00
 2040              	.LASF64:
ARM GAS  /tmp/cc80SRS3.s 			page 50


 2041 01aa 76745F70 		.ascii	"vt_prev\000"
 2041      72657600 
 2042              	.LASF114:
 2043 01b2 73746D33 		.ascii	"stm32_gpio_t\000"
 2043      325F6770 
 2043      696F5F74 
 2043      00
 2044              	.LASF103:
 2045 01bf 6D757465 		.ascii	"mutex_t\000"
 2045      785F7400 
 2046              	.LASF120:
 2047 01c7 494F4275 		.ascii	"IOBus\000"
 2047      7300
 2048              	.LASF27:
 2049 01cd 636E745F 		.ascii	"cnt_t\000"
 2049      7400
 2050              	.LASF0:
 2051 01d3 756E7369 		.ascii	"unsigned int\000"
 2051      676E6564 
 2051      20696E74 
 2051      00
 2052              	.LASF63:
 2053 01e0 76745F6E 		.ascii	"vt_next\000"
 2053      65787400 
 2054              	.LASF130:
 2055 01e8 2E2E2F43 		.ascii	"../ChibiOS/os/hal/src/pal.c\000"
 2055      68696269 
 2055      4F532F6F 
 2055      732F6861 
 2055      6C2F7372 
 2056              	.LASF92:
 2057 0204 77747365 		.ascii	"wtsemp\000"
 2057      6D7000
 2058              	.LASF41:
 2059 020b 705F6D73 		.ascii	"p_msgqueue\000"
 2059      67717565 
 2059      756500
 2060              	.LASF111:
 2061 0216 4C434B52 		.ascii	"LCKR\000"
 2061      00
 2062              	.LASF97:
 2063 021b 735F636E 		.ascii	"s_cnt\000"
 2063      7400
 2064              	.LASF6:
 2065 0221 73686F72 		.ascii	"short unsigned int\000"
 2065      7420756E 
 2065      7369676E 
 2065      65642069 
 2065      6E7400
 2066              	.LASF48:
 2067 0234 63685F74 		.ascii	"ch_thread\000"
 2067      68726561 
 2067      6400
 2068              	.LASF25:
 2069 023e 6D73675F 		.ascii	"msg_t\000"
 2069      7400
 2070              	.LASF74:
ARM GAS  /tmp/cc80SRS3.s 			page 51


 2071 0244 63685F73 		.ascii	"ch_system_t\000"
 2071      79737465 
 2071      6D5F7400 
 2072              	.LASF21:
 2073 0250 746D6F64 		.ascii	"tmode_t\000"
 2073      655F7400 
 2074              	.LASF53:
 2075 0258 63685F72 		.ascii	"ch_ready_list\000"
 2075      65616479 
 2075      5F6C6973 
 2075      7400
 2076              	.LASF26:
 2077 0266 6576656E 		.ascii	"eventmask_t\000"
 2077      746D6173 
 2077      6B5F7400 
 2078              	.LASF7:
 2079 0272 5F5F696E 		.ascii	"__int32_t\000"
 2079      7433325F 
 2079      7400
 2080              	.LASF82:
 2081 027c 73746B61 		.ascii	"stkalign_t\000"
 2081      6C69676E 
 2081      5F7400
 2082              	.LASF12:
 2083 0287 5F5F7569 		.ascii	"__uint64_t\000"
 2083      6E743634 
 2083      5F7400
 2084              	.LASF40:
 2085 0292 705F7761 		.ascii	"p_waiting\000"
 2085      6974696E 
 2085      6700
 2086              	.LASF80:
 2087 029c 73697A65 		.ascii	"sizetype\000"
 2087      74797065 
 2087      00
 2088              	.LASF46:
 2089 02a5 74687265 		.ascii	"thread_reference_t\000"
 2089      61645F72 
 2089      65666572 
 2089      656E6365 
 2089      5F7400
 2090              	.LASF69:
 2091 02b8 63685F76 		.ascii	"ch_virtual_timers_list\000"
 2091      69727475 
 2091      616C5F74 
 2091      696D6572 
 2091      735F6C69 
 2092              	.LASF105:
 2093 02cf 636C6561 		.ascii	"clear\000"
 2093      7200
 2094              	.LASF70:
 2095 02d5 76745F6C 		.ascii	"vt_lasttime\000"
 2095      61737474 
 2095      696D6500 
 2096              	.LASF35:
 2097 02e1 705F6F6C 		.ascii	"p_older\000"
 2097      64657200 
ARM GAS  /tmp/cc80SRS3.s 			page 52


 2098              	.LASF56:
 2099 02e9 725F6374 		.ascii	"r_ctx\000"
 2099      7800
 2100              	.LASF86:
 2101 02ef 746D5F63 		.ascii	"tm_calibration_t\000"
 2101      616C6962 
 2101      72617469 
 2101      6F6E5F74 
 2101      00
 2102              	.LASF59:
 2103 0300 725F6375 		.ascii	"r_current\000"
 2103      7272656E 
 2103      7400
 2104              	.LASF58:
 2105 030a 725F6F6C 		.ascii	"r_older\000"
 2105      64657200 
 2106              	.LASF118:
 2107 0312 706F7274 		.ascii	"portid\000"
 2107      696400
 2108              	.LASF113:
 2109 0319 41465248 		.ascii	"AFRH\000"
 2109      00
 2110              	.LASF125:
 2111 031e 70616C53 		.ascii	"palSetBusMode\000"
 2111      65744275 
 2111      734D6F64 
 2111      6500
 2112              	.LASF112:
 2113 032c 4146524C 		.ascii	"AFRL\000"
 2113      00
 2114              	.LASF23:
 2115 0331 74726566 		.ascii	"trefs_t\000"
 2115      735F7400 
 2116              	.LASF61:
 2117 0339 76697274 		.ascii	"virtual_timer_t\000"
 2117      75616C5F 
 2117      74696D65 
 2117      725F7400 
 2118              	.LASF31:
 2119 0349 705F7072 		.ascii	"p_prev\000"
 2119      657600
 2120              	.LASF24:
 2121 0350 74707269 		.ascii	"tprio_t\000"
 2121      6F5F7400 
 2122              	.LASF72:
 2123 0358 63685F73 		.ascii	"ch_system_debug\000"
 2123      79737465 
 2123      6D5F6465 
 2123      62756700 
 2124              	.LASF104:
 2125 0368 5F426F6F 		.ascii	"_Bool\000"
 2125      6C00
 2126              	.LASF16:
 2127 036e 696E7433 		.ascii	"int32_t\000"
 2127      325F7400 
 2128              	.LASF2:
 2129 0376 756E7369 		.ascii	"unsigned char\000"
ARM GAS  /tmp/cc80SRS3.s 			page 53


 2129      676E6564 
 2129      20636861 
 2129      7200
 2130              	.LASF43:
 2131 0384 705F6D74 		.ascii	"p_mtxlist\000"
 2131      786C6973 
 2131      7400
 2132              	.LASF3:
 2133 038e 73686F72 		.ascii	"short int\000"
 2133      7420696E 
 2133      7400
 2134              	.LASF37:
 2135 0398 705F7374 		.ascii	"p_state\000"
 2135      61746500 
 2136              	.LASF55:
 2137 03a0 725F7072 		.ascii	"r_prio\000"
 2137      696F00
 2138              	.LASF94:
 2139 03a7 65776D61 		.ascii	"ewmask\000"
 2139      736B00
 2140              	.LASF30:
 2141 03ae 705F6E65 		.ascii	"p_next\000"
 2141      787400
 2142              	.LASF19:
 2143 03b5 75696E74 		.ascii	"uint_fast8_t\000"
 2143      5F666173 
 2143      74385F74 
 2143      00
 2144              	.LASF127:
 2145 03c2 5F5F6675 		.ascii	"__func__.7101\000"
 2145      6E635F5F 
 2145      2E373130 
 2145      3100
 2146              	.LASF38:
 2147 03d0 705F666C 		.ascii	"p_flags\000"
 2147      61677300 
 2148              	.LASF79:
 2149 03d8 69646C65 		.ascii	"idle_thread_wa\000"
 2149      5F746872 
 2149      6561645F 
 2149      776100
 2150              	.LASF75:
 2151 03e7 63685F73 		.ascii	"ch_system\000"
 2151      79737465 
 2151      6D00
 2152              	.LASF62:
 2153 03f1 63685F76 		.ascii	"ch_virtual_timer\000"
 2153      69727475 
 2153      616C5F74 
 2153      696D6572 
 2153      00
 2154              	.LASF95:
 2155 0402 63685F73 		.ascii	"ch_semaphore\000"
 2155      656D6170 
 2155      686F7265 
 2155      00
 2156              	.LASF42:
ARM GAS  /tmp/cc80SRS3.s 			page 54


 2157 040f 705F6570 		.ascii	"p_epending\000"
 2157      656E6469 
 2157      6E6700
 2158              	.LASF17:
 2159 041a 75696E74 		.ascii	"uint32_t\000"
 2159      33325F74 
 2159      00
 2160              	.LASF93:
 2161 0423 77746D74 		.ascii	"wtmtxp\000"
 2161      787000
 2162              	.LASF54:
 2163 042a 725F7175 		.ascii	"r_queue\000"
 2163      65756500 
 2164              	.LASF65:
 2165 0432 76745F64 		.ascii	"vt_delta\000"
 2165      656C7461 
 2165      00
 2166              	.LASF49:
 2167 043b 63685F74 		.ascii	"ch_threads_list\000"
 2167      68726561 
 2167      64735F6C 
 2167      69737400 
 2168              	.LASF10:
 2169 044b 6C6F6E67 		.ascii	"long unsigned int\000"
 2169      20756E73 
 2169      69676E65 
 2169      6420696E 
 2169      7400
 2170              	.LASF102:
 2171 045d 63686172 		.ascii	"char\000"
 2171      00
 2172              	.LASF126:
 2173 0462 6D6F6465 		.ascii	"mode\000"
 2173      00
 2174              	.LASF132:
 2175 0467 70616C52 		.ascii	"palReadBus\000"
 2175      65616442 
 2175      757300
 2176              	.LASF5:
 2177 0472 5F5F7569 		.ascii	"__uint16_t\000"
 2177      6E743136 
 2177      5F7400
 2178              	.LASF29:
 2179 047d 74687265 		.ascii	"thread_t\000"
 2179      61645F74 
 2179      00
 2180              	.LASF101:
 2181 0486 6D5F6E65 		.ascii	"m_next\000"
 2181      787400
 2182              	.LASF28:
 2183 048d 73797374 		.ascii	"systime_t\000"
 2183      696D655F 
 2183      7400
 2184              	.LASF44:
 2185 0497 705F7265 		.ascii	"p_realprio\000"
 2185      616C7072 
 2185      696F00
ARM GAS  /tmp/cc80SRS3.s 			page 55


 2186              	.LASF60:
 2187 04a2 76746675 		.ascii	"vtfunc_t\000"
 2187      6E635F74 
 2187      00
 2188              	.LASF9:
 2189 04ab 5F5F7569 		.ascii	"__uint32_t\000"
 2189      6E743332 
 2189      5F7400
 2190              	.LASF73:
 2191 04b6 70616E69 		.ascii	"panic_msg\000"
 2191      635F6D73 
 2191      6700
 2192              	.LASF85:
 2193 04c0 6F666673 		.ascii	"offset\000"
 2193      657400
 2194              	.LASF117:
 2195 04c7 696F706F 		.ascii	"ioportid_t\000"
 2195      72746964 
 2195      5F7400
 2196              	.LASF83:
 2197 04d2 636F6E74 		.ascii	"context\000"
 2197      65787400 
 2198              	.LASF133:
 2199 04da 5F70616C 		.ascii	"_pal_lld_setgroupmode\000"
 2199      5F6C6C64 
 2199      5F736574 
 2199      67726F75 
 2199      706D6F64 
 2200              	.LASF20:
 2201 04f0 7274636E 		.ascii	"rtcnt_t\000"
 2201      745F7400 
 2202              	.LASF67:
 2203 04f8 76745F70 		.ascii	"vt_par\000"
 2203      617200
 2204              	.LASF124:
 2205 04ff 70616C57 		.ascii	"palWriteBus\000"
 2205      72697465 
 2205      42757300 
 2206              	.LASF50:
 2207 050b 74687265 		.ascii	"threads_queue_t\000"
 2207      6164735F 
 2207      71756575 
 2207      655F7400 
 2208              	.LASF98:
 2209 051b 63685F6D 		.ascii	"ch_mutex\000"
 2209      75746578 
 2209      00
 2210              	.LASF39:
 2211 0524 705F7265 		.ascii	"p_refs\000"
 2211      667300
 2212              	.LASF76:
 2213 052b 726C6973 		.ascii	"rlist\000"
 2213      7400
 2214              	.LASF14:
 2215 0531 75696E74 		.ascii	"uint8_t\000"
 2215      385F7400 
 2216              	.LASF129:
ARM GAS  /tmp/cc80SRS3.s 			page 56


 2217 0539 474E5520 		.ascii	"GNU C 4.8.4 20140526 (release) [ARM/embedded-4_8-br"
 2217      4320342E 
 2217      382E3420 
 2217      32303134 
 2217      30353236 
 2218 056c 616E6368 		.ascii	"anch revision 211358] -mcpu=cortex-m4 -mno-thumb-in"
 2218      20726576 
 2218      6973696F 
 2218      6E203231 
 2218      31333538 
 2219 059f 74657277 		.ascii	"terwork -mthumb -ggdb -O2 -fomit-frame-pointer -fal"
 2219      6F726B20 
 2219      2D6D7468 
 2219      756D6220 
 2219      2D676764 
 2220 05d2 69676E2D 		.ascii	"ign-functions=16 -ffunction-sections -fdata-section"
 2220      66756E63 
 2220      74696F6E 
 2220      733D3136 
 2220      202D6666 
 2221 0605 73202D66 		.ascii	"s -fno-common -flto\000"
 2221      6E6F2D63 
 2221      6F6D6D6F 
 2221      6E202D66 
 2221      6C746F00 
 2222              	.LASF89:
 2223 0619 77746F62 		.ascii	"wtobjp\000"
 2223      6A7000
 2224              	.LASF36:
 2225 0620 705F6E61 		.ascii	"p_name\000"
 2225      6D6500
 2226              	.LASF47:
 2227 0627 74687265 		.ascii	"threads_list_t\000"
 2227      6164735F 
 2227      6C697374 
 2227      5F7400
 2228              	.LASF116:
 2229 0636 696F6D6F 		.ascii	"iomode_t\000"
 2229      64655F74 
 2229      00
 2230              	.LASF100:
 2231 063f 6D5F6F77 		.ascii	"m_owner\000"
 2231      6E657200 
 2232              	.LASF33:
 2233 0647 705F6374 		.ascii	"p_ctx\000"
 2233      7800
 2234              	.LASF66:
 2235 064d 76745F66 		.ascii	"vt_func\000"
 2235      756E6300 
 2236              		.comm	__gnu_lto_v1,1,1
 2237              		.ident	"GCC: (GNU Tools for ARM Embedded Processors) 4.8.4 20140526 (release) [ARM/embedded-4_8-br
ARM GAS  /tmp/cc80SRS3.s 			page 57


DEFINED SYMBOLS
                            *ABS*:00000000 pal.c
     /tmp/cc80SRS3.s:224    .text.palReadBus:00000000 $t
     /tmp/cc80SRS3.s:230    .text.palReadBus:00000000 palReadBus
     /tmp/cc80SRS3.s:253    .text.palWriteBus:00000000 $t
     /tmp/cc80SRS3.s:259    .text.palWriteBus:00000000 palWriteBus
     /tmp/cc80SRS3.s:290    .text.palSetBusMode:00000000 $t
     /tmp/cc80SRS3.s:296    .text.palSetBusMode:00000000 palSetBusMode
                            *COM*:00000001 __gnu_lto_v1
                     .debug_frame:00000010 $d

UNDEFINED SYMBOLS
_pal_lld_setgroupmode
