ARM GAS  /tmp/cca3TaT1.s 			page 1


   1              		.syntax unified
   2              		.cpu cortex-m4
   3              		.fpu softvfp
   4              		.eabi_attribute 20, 1
   5              		.eabi_attribute 21, 1
   6              		.eabi_attribute 23, 3
   7              		.eabi_attribute 24, 1
   8              		.eabi_attribute 25, 1
   9              		.eabi_attribute 26, 1
  10              		.eabi_attribute 30, 2
  11              		.eabi_attribute 34, 1
  12              		.eabi_attribute 18, 4
  13              		.thumb
  14              		.file	"st.c"
  15              		.text
  16              	.Ltext0:
  17              		.section	.gnu.lto_.jmpfuncs.88004cab34d31283,"",%progbits
  18 0000 789C6362 		.ascii	"x\234cb`b\300\006x\2414+\020322103\26200\000\000\002"
  18      6062C006 
  18      78A1342B 
  18      10333232 
  18      313033B2 
  19 0019 6D0023   		.ascii	"m\000#"
  20              		.text
  21              		.section	.gnu.lto_.inline.88004cab34d31283,"",%progbits
  22 0000 789C6362 		.ascii	"x\234cb`b\300\006R\2414+\003\003\013\017#X\021\333\002"
  22      6062C006 
  22      52A1342B 
  22      03030B0F 
  22      235811DB 
  23 0015 79B05A46 		.ascii	"y\260ZF.\020\301\300\306\012\024f\373\240\007\027gb"
  23      2E10C1C0 
  23      C60A1466 
  23      FBA00717 
  23      6762
  24 0027 6061060A 		.ascii	"`a\006\0121]\340\207\0131c\012\261`\0121\000\000\232"
  24      315DE087 
  24      0B31630A 
  24      B1600A31 
  24      00009A
  25 003a 48086D   		.ascii	"H\010m"
  26              		.text
  27              		.section	.gnu.lto_.pureconst.88004cab34d31283,"",%progbits
  28 0000 789C6362 		.ascii	"x\234cb`b\340f\200\000V\006\011F)&)f)\026)\000\004\027"
  28      6062E066 
  28      80005606 
  28      09462926 
  28      29662916 
  29 0018 009F     		.ascii	"\000\237"
  30              		.text
  31              		.section	.gnu.lto_stInit.88004cab34d31283,"",%progbits
  32 0000 789C6362 		.ascii	"x\234cb`b@\007\222@\\\011\304\262@\314\310\314\300\310"
  32      60624007 
  32      92405C09 
  32      C4B240CC 
  32      C8CCC0C8 
  33 0014 34E11C03 		.ascii	"4\341\034\003C#\007\023##\210\301\300\310P\317\304X"
ARM GAS  /tmp/cca3TaT1.s 			page 2


  33      43230713 
  33      232388C1 
  33      C0C850CF 
  33      C458
  34 0026 1FC90856 		.ascii	"\037\311\010V\273\236\351\300\203\377\377\327\375X\373"
  34      BB9EE9C0 
  34      83FFFFD7 
  34      FD58FB
  35 0035 B01EA894 		.ascii	"\260\036\250\224\201\201\225\241\245\241a\202\002\003"
  35      818195A1 
  35      A5A16182 
  35      0203
  36 0043 4332583E 		.ascii	"C2X>\004H\2024\20522\201h\346\363\014\315\017\376\331"
  36      04488234 
  36      85323281 
  36      68E6F30C 
  36      CD0FFED9 
  37 0057 24322E64 		.ascii	"$2.dd\005\312V3\374j\350h\020\310d\004\252\206\030\227"
  37      6405CA56 
  37      33FC6AE8 
  37      6810C864 
  37      04AA8618 
  38 006c 09A22F32 		.ascii	"\011\242/24>\370\317\004S\004\001!@\011\240\001 \307"
  38      343EF8CF 
  38      04530401 
  38      214009A0 
  38      0120C7
  39 007f 4AEBE9E9 		.ascii	"J\353\351\351;gd&e\372\007\353\347\027\353g$\346\350"
  39      3B676426 
  39      65FA07EB 
  39      E717EB67 
  39      24E6E8
  40 0092 171725EB 		.ascii	"\027\027%\353\027\227\350%3\000\000\355\343*\327"
  40      1797E825 
  40      330000ED 
  40      E32AD7
  41              		.text
  42              		.section	.gnu.lto_stStartAlarm.88004cab34d31283,"",%progbits
  43 0000 789C9D91 		.ascii	"x\234\235\221AK\002A\024\307\337\233\335Uou\215 \302"
  43      414B0241 
  43      14C7DF9B 
  43      DD556F75 
  43      8D20C2
  44 0013 6BB583F5 		.ascii	"k\265\203\365\001:\324%P:\270A\235b\265\310\005\305"
  44      013AD425 
  44      503AB841 
  44      9D62B5C8 
  44      05C5
  45 0025 70A5ABB3 		.ascii	"p\245\253\263\"\236E\210\302NJ\021\204\344)\220\272"
  45      229E4588 
  45      C24E4A11 
  45      84E42990 
  45      BA
  46 0036 58B79202 		.ascii	"X\267\222\002\243k\340\027\010\374\000\301\366fT\302"
  46      A36BE017 
  46      08FC00C1 
  46      F66654C2 
ARM GAS  /tmp/cca3TaT1.s 			page 3


  47 0046 3A043DD8 		.ascii	":\004=\330y;\377y\357\367\177\3140`\3603f\350{B\000"
  47      793BFF79 
  47      EFF77FCC 
  47      3060F033 
  47      66E87B42 
  48 005b 8B326A80 		.ascii	"\2132j\200\254\362\002\340\205\030\242\374\001\204\002"
  48      ACF202E0 
  48      8518A2FC 
  48      018402
  49 006a C3C20EAA 		.ascii	"\303\302\016\252\332\026\353\364}\377\372\266|\331\304"
  49      DA16EBF4 
  49      7DFFFAB6 
  49      7CD9C4
  50 0079 1A0B32CC 		.ascii	"\032\0132\314(\335\200\222\020\225\371\014\322.\251"
  50      28DD8092 
  50      1095F90C 
  50      D22EA9
  51 0088 148B56D9 		.ascii	"\024\213V\331\276\205Lf\355\021\212!\2000\324\205\250"
  51      BE854C66 
  51      ED118A21 
  51      8030D485 
  51      A8
  52 0099 76EECA5D 		.ascii	"v\356\312]\024U\341\015|\177\312A\032i\016e\3336:\210"
  52      1455E10D 
  52      7C7FCA41 
  52      1A690E65 
  52      DB363A88 
  53 00ad F32A317D 		.ascii	"\363*1}r\306\003\302\3003<t?_\337\213\301\221\335\330"
  53      72C603C2 
  53      C0333C74 
  53      3F5FDF8B 
  53      C191DDD8 
  54 00c1 B7D37DEB 		.ascii	"\267\323}\353\031660L\2256\326\321 \232\232b\011\232"
  54      19363630 
  54      4C9536D6 
  54      D1209A9A 
  54      62099A
  55 00d4 A2E4F54F 		.ascii	"\242\344\365O>\216\027\035\324\026\340\212vb\325A\375"
  55      3E8E171D 
  55      D416E08A 
  55      7662D541 
  55      FD
  56 00e5 0C6A5E45 		.ascii	"\014j^EL;hH\267\200\240\320\225q@\331%P\221.\210\244"
  56      4C3B6848 
  56      B780A0D0 
  56      957140D9 
  56      2550912E 
  57 00fb D4E0708A 		.ascii	"\324\340p\212\2212\036\246}\332\272\327l<'\355\033\255"
  57      91321EA6 
  57      7DDABAD7 
  57      6C3C27ED 
  57      1BAD
  58 010d FD89C609 		.ascii	"\375\211\306\011\264&E\011k\377\013\306&a\362u{\340"
  58      B4264509 
  58      6BFF0BC6 
  58      2661F275 
  58      7BE0
ARM GAS  /tmp/cca3TaT1.s 			page 4


  59 011f 0D1A37FA 		.ascii	"\015\0327\372\360\"\306a\221-\275\203<\2375M\276\226"
  59      F022C661 
  59      912DBD83 
  59      3C9F354D 
  59      BE96
  60 0131 7212CE66 		.ascii	"r\022\316f\234g]\236\262\323\334\315%\271\2337\223\240"
  60      9C675D9E 
  60      B2D3DCCD 
  60      25B99B37 
  60      93A0
  61 0143 E79DCC7E 		.ascii	"\347\235\314~\344w\301a6\227wy\334\212\255,\363ht\235"
  61      E477C161 
  61      36977779 
  61      DC8AAD2C 
  61      F368749D 
  62 0157 5B1BB1A3 		.ascii	"[\033\261\243\010\265\354\246\323{f\012\276\000\313"
  62      08B5ECA6 
  62      D37B660A 
  62      BE00CB
  63 0166 6F8BC9   		.ascii	"o\213\311"
  64              		.text
  65              		.section	.gnu.lto_stStopAlarm.88004cab34d31283,"",%progbits
  66 0000 789C6362 		.ascii	"x\234cb`b@\007\222@|\024\210\375\201\230\221\231\201"
  66      60624007 
  66      92407C14 
  66      88FD8198 
  66      919981
  67 0013 9169C239 		.ascii	"\221i\3029\006\206F\016&FF\020\203\201\221\241\236\211"
  67      0686460E 
  67      26464610 
  67      838191A1 
  67      9E89
  68 0025 B13E9211 		.ascii	"\261>\222\021\254v=\323\201\007\377\377\257\373\326"
  68      AC763DD3 
  68      8107FFFF 
  68      AFFBD6
  69 0034 36E70DE3 		.ascii	"6\347\015\343l&\026\240\010+CKC\303\004\005\006\206"
  69      6C2616A0 
  69      082B434B 
  69      43C30405 
  69      0686
  70 0046 64B08A10 		.ascii	"d\260\212\020 \011\322\026\312\310\004\242\231\3172"
  70      2009D216 
  70      CAC804A2 
  70      99CF32
  71 0055 1CDA71E7 		.ascii	"\034\332q\347\374\363G\254pu\020\306\201\323\367\016"
  71      FCF347AC 
  71      707510C6 
  71      81D3F70E 
  72 0065 B2323024 		.ascii	"\26220$2.dd\005j\005\353\325fX\325\320\322\370\340\357"
  72      322E6464 
  72      056A05EB 
  72      D56658D5 
  72      D0D2F8E0 
  73 007a 9E69F299 		.ascii	"\236i\362\231\214\014\263\031f5Nh\020\310dd\214`\314"
  73      8C0CB319 
  73      66354E68 
ARM GAS  /tmp/cca3TaT1.s 			page 5


  73      10C86464 
  73      8C60CC
  74 008d 64646A00 		.ascii	"ddj\000\002\026\0060\023\354\222$\220\226D\306\305@"
  74      02160630 
  74      13EC9224 
  74      909644C6 
  74      C540
  75 009f ED6051B0 		.ascii	"\355`Q\260\340E\206\306\017\217\266\263@L\205\201\020"
  75      E04586C6 
  75      0F8FB6B3 
  75      404C8581 
  75      10
  76 00b0 A0E940A7 		.ascii	"\240\351@\247\200\264I\353\351\351;gd&e\372\007\353"
  76      80B449EB 
  76      E9E93B67 
  76      642665FA 
  76      07EB
  77 00c2 E717EB67 		.ascii	"\347\027\353g$\346\350\027\027%\353\027\227\350%3\030"
  77      24E6E817 
  77      1725EB17 
  77      97E82533 
  77      18
  78 00d3 62CA15E4 		.ascii	"b\312\025\344\027\225\024\353\007\207\370\032\033\351"
  78      179514EB 
  78      0787F81A 
  78      1BE9
  79 00e1 FBF8B8E8 		.ascii	"\373\370\270\350\207x\372\226\031\002U\307\347\344\244"
  79      8778FA96 
  79      190255C7 
  79      E7E4A4
  80 00f0 E8653000 		.ascii	"\350e0\000\000Y\022QV"
  80      00591251 
  80      56
  81              		.text
  82              		.section	.gnu.lto_stSetAlarm.88004cab34d31283,"",%progbits
  83 0000 789C6550 		.ascii	"x\234eP\277KBQ\024>\337\365=u\2535\202\010\327\352\335"
  83      BF4B4251 
  83      143EDFF5 
  83      3D75AB35 
  83      8208D7EA 
  84 0015 AC3FA0A1 		.ascii	"\254?\240\241\226@i\360\0055\205Z\344\005\305Pi\365"
  84      964069F0 
  84      0535855A 
  84      E405C550 
  84      69F5
  85 0027 3E115CC5 		.ascii	">\021\\\305E(\032\014j\210~P\215-\322\026RP\177\201"
  85      45281A0C 
  85      6A887E50 
  85      8D2DD216 
  85      52507F81 
  86 003b 3447B8B4 		.ascii	"4G\270\264\005\257\363\256:T\007\356=\347|\234\363}"
  86      05AFF3AE 
  86      3A5407EE 
  86      3DE77C9C 
  86      F37D
  87 004d DFBD8204 		.ascii	"\337\275\202\004\375\215)>\213 r9#D\020\315\027\"/*"
  87      FD8D293E 
ARM GAS  /tmp/cca3TaT1.s 			page 6


  87      8B207239 
  87      234410CD 
  87      17222F2A 
  88 0061 80A02050 		.ascii	"\200\240 PU\240\272\0153{#\272}\337\277\276k\234\177"
  88      55A0BA0D 
  88      337B23BA 
  88      7DDFBFBE 
  88      6B9C7F
  89 0074 E044D802 		.ascii	"\340D\330\002\005\203\333T\327\2729[\000wY\203\270|"
  89      0583DB54 
  89      D7BA395B 
  89      00775983 
  89      B87C
  90 0086 07EB9B10 		.ascii	"\007\353\233\020A\016=Q-J\024\243\216\326\255\356}\243"
  90      410E3D51 
  90      2D4A14A3 
  90      8ED6ADEE 
  90      7DA3
  91 0098 07DDD2DE 		.ascii	"\007\335\322\336\300\367'\024\330\322\014\202\265-("
  91      C0F72714 
  91      D8D20C82 
  91      B52D28
  92 00a7 60D62461 		.ascii	"`\326$a\375\366\270\3174\364L\217\275\357\267\257Zd"
  92      FDF6B8CF 
  92      34F44C8F 
  92      BDEFB7AF 
  92      5A64
  93 00b9 2437D6ED 		.ascii	"$7\326\355\366>o\3554N\021\343\3114:\260\231\315\270"
  93      F63E6FED 
  93      344E11E3 
  93      C9343AB0 
  93      99CDB8
  94 00cc 58A04B5D 		.ascii	"X\240K]\367\372\355\253\366\274Bh\216.\270\323+\012"
  94      F7FAEDAB 
  94      F6BC4268 
  94      8E2EB8D3 
  94      2B0A
  95 00de D6311D79 		.ascii	"\3261\035yM=\251`\007ja\315a\031\341\260\221\313\300"
  95      4D3DA960 
  95      076A61CD 
  95      6119E1B0 
  95      91CBC0
  96 00f1 309D3193 		.ascii	"0\2351\223A#C\027#\304\230y%o\360\376`\015\345\306\341"
  96      41234317 
  96      23C49879 
  96      256FF0FE 
  96      600DE5C6 
  97 0106 B22CBF36 		.ascii	"\262,\2776\370\343i\307\221\2539\225Q\033)Y,\313\\:"
  97      F8E369C7 
  97      91AB3995 
  97      511B2959 
  97      2CCB5C3A 
  98 011a 2FCBA5AC 		.ascii	"/\313\245\254,W\234,Y\025U\330\213\377\0378(\226*e\231"
  98      2C579C2C 
  98      591555D8 
  98      8BFF1F38 
  98      28962A65 
ARM GAS  /tmp/cca3TaT1.s 			page 7


  99 012f 7293CB4B 		.ascii	"r\223\313K2\221X\223\356z\3620\316+;\371\374\256\223"
  99      32915893 
  99      EE7AF230 
  99      CE2B3BF9 
  99      FCAE93
 100 0142 A31F76FD 		.ascii	"\243\037v\375gl"
 100      676C
 101              		.text
 102              		.section	.gnu.lto_stGetAlarm.88004cab34d31283,"",%progbits
 103 0000 789C6362 		.ascii	"x\234cb`b@\007\222@\374\014\210\375\201\230\221\231"
 103      60624007 
 103      9240FC0C 
 103      88FD8198 
 103      9199
 104 0012 819169C2 		.ascii	"\201\221i\3029\006\206F\016&FF\020\203\201\221\241\236"
 104      39068646 
 104      0E264646 
 104      10838191 
 104      A19E
 105 0024 89B13E92 		.ascii	"\211\261>\222\021\254v=\323\201\007\377\377\257\373"
 105      11AC763D 
 105      D38107FF 
 105      FFAFFB
 106 0033 D43EEF0D 		.ascii	"\324>\357\015\343|&\026f\206L\2608+CKC\303\004\205\\"
 106      E37C2616 
 106      66864CB0 
 106      382B434B 
 106      43C30485 
 107 0048 1027192C 		.ascii	"\020'\031,\022\002$A\332C\031\231@4\363Y\206Cw\356\234"
 107      12022441 
 107      DA431999 
 107      4034F359 
 107      864377EE 
 108 005d FF6F0455 		.ascii	"\377o\004U\011\323r\340\344?\240\302D\306\205\214\254"
 108      09D372E0 
 108      E43FA0C2 
 108      44C6858C 
 108      AC
 109 006e 408D609D 		.ascii	"@\215`\235\351\214\314\272\014k\032Z\032\037\374\375"
 109      E98CCCBA 
 109      0C6B1A5A 
 109      1A1FFCFD 
 110 007e 335D2A93 		.ascii	"3]*\223\221Q\233a\025\220\3270\2311\223\221i6\303\254"
 110      91519B61 
 110      1590D730 
 110      99319391 
 110      6936C3AC 
 111 0092 C6090D02 		.ascii	"\306\011\015\002\231\214\314\021@.K\003\020\2600\200"
 111      998CCC11 
 111      402E4B03 
 111      10B03080 
 112 00a2 9960E725 		.ascii	"\231`\347%\201LHd\\\0144\015,\312\012\361!T\204\201"
 112      814C4864 
 112      5C0C340D 
 112      2CCA0AF1 
 112      21548481 
 113 00b6 E12243E3 		.ascii	"\341\"C\343\207K\373y \366\001-\202H\207\000-\006\272"
ARM GAS  /tmp/cca3TaT1.s 			page 8


 113      874BFB79 
 113      20F6012D 
 113      82488700 
 113      2D06BA
 114 00c9 111432D2 		.ascii	"\021\0242\322zz\372\316\031\231I\231\376\301\372\371"
 114      7A7AFACE 
 114      19994999 
 114      FEC1FAF9 
 115 00d9 C5FA1989 		.ascii	"\305\372\031\2119\372\305E\311\372\305%z\311\014\206"
 115      39FAC545 
 115      C9FAC525 
 115      7AC90C86 
 116 00e9 987205F9 		.ascii	"\230r\005\371E%\305\372\301!\276\306F\372>>.\372!\236"
 116      4525C5FA 
 116      C121BEC6 
 116      46FA3E3E 
 116      2EFA219E 
 117 00fd BE658640 		.ascii	"\276e\206@\325\36199)z\031\014\000[\223W<"
 117      D5F13939 
 117      297A190C 
 117      005B9357 
 117      3C
 118              		.text
 119              		.section	.gnu.lto_.symbol_nodes.88004cab34d31283,"",%progbits
 120 0000 789C4DC7 		.ascii	"x\234M\307\261\015\2000\020\004\301\3735\256\224B\316"
 120      B10D8030 
 120      1004C1FB 
 120      35AE9442 
 120      CE
 121 0011 1209A101 		.ascii	"\022\011\241\001\223R\0225P\011\"\000\011O6\010\215"
 121      93521235 
 121      50092200 
 121      094F3608 
 121      8D
 122 0022 FA50B154 		.ascii	"\372P\261TO\311>\346`\301\321u\305t\335p\352\332\360"
 122      4FC93EE6 
 122      60C1D175 
 122      C574DD70 
 122      EADAF0
 123 0035 F037769C 		.ascii	"\3607v\234\337\226\022IY\323u\207\036\334\301\035\316"
 123      DF961249 
 123      59D37587 
 123      1EDCC11D 
 123      CE
 124              		.text
 125              		.section	.gnu.lto_.refs.88004cab34d31283,"",%progbits
 126 0000 789C6362 		.ascii	"x\234cb`b`d\200\002\000\000F\000\006"
 126      60626064 
 126      80020000 
 126      460006
 127              		.text
 128              		.section	.gnu.lto_.decls.88004cab34d31283,"",%progbits
 129 0000 789CBD58 		.ascii	"x\234\275Xkl\024U\024\276wv[v\333\245\024P\2541\221"
 129      6B6C1455 
 129      14BE7776 
 129      5B76DBA5 
 129      1450AC31 
ARM GAS  /tmp/cca3TaT1.s 			page 9


 130 0015 4A841892 		.ascii	"J\204\030\222v\332RT\376 \270%\224\204\002\331\226\244"
 130      76DA5254 
 130      FE20B825 
 130      948402D9 
 130      96A4
 131 0027 893FD6E9 		.ascii	"\211?\326\351\356\300n\322\335\326\335\251\206\177\267"
 131      EEC06ED2 
 131      DDD6DDA9 
 131      867FB7
 132 0036 2D101431 		.ascii	"-\020\0241\245<\254\206\300\362\206\004\324T\254\026"
 132      A53CAC86 
 132      C0F28604 
 132      D454AC16 
 133 0046 792C8F42 		.ascii	"y,\217B#>\200\012\012UYC\260>C\015\341)t=sgfwf:SfIt"
 133      233E800A 
 133      0A555943 
 133      B03E430D 
 133      E129743D 
 134 0064 92737A77 		.ascii	"\222szw\346\234\357~\367\234sg\316-\203\030\264\011"
 134      E69CEF7E 
 134      F79C7367 
 134      CE2D8318 
 134      B409
 135 0076 2394846B 		.ascii	"#\224\204k\322x\204\0360\010e#\204f\242\364%\376\336"
 135      D278841E 
 135      30086523 
 135      8466A2F4 
 135      25FEDE
 136 0089 0AB20BA4 		.ascii	"\012\262\013\244\013\244\033\3440\31014\374\022\355"
 136      0BA41BE4 
 136      30C83134 
 136      FC12ED
 137 0098 00029D00 		.ascii	"\000\002\235\000\331&\337c\344\373F\366\"\246\003d/"
 137      D926DF63 
 137      E4FB46F6 
 137      22A60364 
 137      2F
 138 00a9 481E880B 		.ascii	"H\036\210\013\344$H\017H/\310\035\020;\210\015d\000"
 138      E424480F 
 138      482FC81D 
 138      103B880D 
 138      6400
 139 00bb E402489F 		.ascii	"\344\002H\237\214)\372\336\225\307\037\203\014\351\260"
 139      8C29FADE 
 139      95C71F83 
 139      0CE9B0
 140 00ca BB64BF93 		.ascii	"\273d\277\223*,\254\362\027\237;\360pN\335\0269a\231"
 140      2A2CACF2 
 140      179F3BF0 
 140      704EDD16 
 140      396199
 141 00dd 1323FBE4 		.ascii	"\023#\373\344bi\3749\310\030\035\256\030\257l\031\363"
 141      6269FC39 
 141      C8181DAE 
 141      18AF6C19 
 141      F3
 142 00ee 6158A2ED 		.ascii	"aX\242\355cX\272\367\204\016g\"\332Lb\211\304\212-g"
ARM GAS  /tmp/cca3TaT1.s 			page 10


 142      6358BAF7 
 142      840E6722 
 142      DA4C6289 
 142      C48A2D67 
 143 0102 306927F7 		.ascii	"0i'\367\223I\033\232\2006\020\270b+\011\301\002\207"
 143      93491B9A 
 143      803610B8 
 143      622B09C1 
 143      0287
 144 0114 673E8E6A 		.ascii	"g>\216j1\207\363\234\250\220\016\\N:\001B\034\336\206"
 144      3187F39C 
 144      A8900E5C 
 144      4E3A0142 
 144      1CDE86
 145 0127 27C8A3C5 		.ascii	"'\310\243\3056\011\216AOc4\025\355\005\3776B\266\215"
 145      36098E41 
 145      4F633415 
 145      ED05FF36 
 145      42B68D
 146 013a 1F1E0CB8 		.ascii	"\037\036\014\270\246\240\235\342\004d\017\261Qx\021"
 146      A6A09DE2 
 146      04640FB1 
 146      517811
 147 0149 602B9EA8 		.ascii	"`+\236\2506\341\360v\314\350y&\006\343\007O\271\332"
 147      36E1F076 
 147      CCE87926 
 147      06E3074F 
 147      B9DA
 148 015b 9A13C9E4 		.ascii	"\232\023\311\344D\353$w\313$m4\026\310\211V\021\322"
 148      44EB2477 
 148      CB246D34 
 148      16C88956 
 148      11D2
 149 016d 223A56F6 		.ascii	"\":V\366B2\214\274&\243\035@?\321\275\277\217!\304\301"
 149      42328CBC 
 149      26A31D40 
 149      3FD1BDBF 
 149      8F21C4C1 
 150 0181 E1BDD809 		.ascii	"\341\275\330\011\276\325\030\300v\340\2512!\3538\377"
 150      BED518C0 
 150      76E0A932 
 150      21EB38FF 
 151 0191 ACEC3986 		.ascii	"\254\3549\206[\200'\207\367Q\244s\370Q\241n\276sh\006"
 151      5B802787 
 151      F751A473 
 151      F851A16E 
 151      BE736806 
 152 01a5 A5F42105 		.ascii	"\245\364!\005\272\302h\2018<\312\251\215\"\374V\014"
 152      BAC26881 
 152      383CCAA9 
 152      8D22FC56 
 152      0C
 153 01b6 4434FA58 		.ascii	"D4\372X\036\210;t\014\372\217\315\323\225A\213\343w"
 153      1E883B74 
 153      0CFA8FCD 
 153      D395418B 
 153      E377
ARM GAS  /tmp/cca3TaT1.s 			page 11


 154 01c8 1DE167D1 		.ascii	"\035\341g\321vB\332\023;\007~\265\275G\342v%\324\267"
 154      7642DA13 
 154      3B077EB5 
 154      BD47E276 
 154      25D4B7
 155 01db A9D92E28 		.ascii	"\251\331.(\011\243XHV\351:ZCV\344\343T!\355\322\027"
 155      09A35848 
 155      56E93A5A 
 155      4356E4E3 
 155      5421EDD2 
 156 01f0 52A76121 		.ascii	"R\247a!\335R\012I\252b\006%u\324\214\313\264K\217\376"
 156      DD520A49 
 156      AA620625 
 156      75D48CCB 
 156      B44B8FFE 
 157 0204 A9217AE7 		.ascii	"\251!z\347\351\024\372n\212\276\332f\264pr\333_)\255"
 157      E914FA6E 
 157      8ABEDA66 
 157      B47072DB 
 157      5F29AD
 158 0217 86C30700 		.ascii	"\206\303\007\000\210\303\335\217\264\346n=\253\203\206"
 158      88C3DD8F 
 158      B4E66E3D 
 158      AB8386
 159 0226 AC6E9C5E 		.ascii	"\254n\234^\363$\211\265\304\223\311\227\364\233\\D7"
 159      F32489B5 
 159      C493C997 
 159      F49B5C44 
 159      37
 160 0237 DB40470C 		.ascii	"\333@G\014v\371F\233a\264ZH\347\036\342T\310r\370\260"
 160      76F9469B 
 160      61B45A48 
 160      E71EE254 
 160      C872F8B0 
 161 024b C97264BC 		.ascii	"\311rd\274\243\0064\333\022\353\372\0374\343\265\255"
 161      A30634DB 
 161      12EBFA1F 
 161      34E3B5AD 
 162 025b B15E3228 		.ascii	"\261^2(\326\220\222\240\276aSJ \307\265 \271\350\255"
 162      D69092A0 
 162      BE61534A 
 162      20C7B520 
 162      B9E8AD
 163 026e F466927C 		.ascii	"\364f\222|\315\026v\002\347*^t\013\266\216\270\0059"
 163      CD167602 
 163      E72A5E74 
 163      0BB68EB8 
 163      0539
 164 0280 BC1F4FB6 		.ascii	"\274\037O\266T\364cQ\233\030\333Bq\376\223\351\300\022"
 164      54F46351 
 164      9B18DB42 
 164      71FE93E9 
 164      C012
 165 0292 ACC0E5D3 		.ascii	"\254\300\345\3239\325f\373\314\3158|\012\217M\223$\251"
 165      39D566FB 
 165      CCCD387C 
 165      0A8F4D93 
ARM GAS  /tmp/cca3TaT1.s 			page 12


 165      24A9
 166 02a4 A5B9CC53 		.ascii	"\245\271\314SvZ*\026\345vj\220\336\213j+4\016\255\225"
 166      765A2A16 
 166      E5766A90 
 166      DE8B6A2B 
 166      340EAD95 
 167 02b8 99A4964E 		.ascii	"\231\244\226N\262\025\237WQ\352\365\223\334|\373y\372"
 167      B2159F57 
 167      51EAF593 
 167      DC7CFB79 
 167      FA
 168 02c9 FAE9C5E3 		.ascii	"\372\351\305\343 #\353\355\332\214<\024F\234\364\014"
 168      2023EBED 
 168      DA8C3C14 
 168      469CF40C 
 169 02d9 B84A4E14 		.ascii	"\270JN\024\224\304\327\365\273\210]\272\217\014\022"
 169      94C4D7F5 
 169      BB885DBA 
 169      8F0C12
 170 02e8 2C5FCFA0 		.ascii	",_\317\240\030Y\336\032\337\320\277\011J\3708\226\002"
 170      1859DE1A 
 170      DFD0BF09 
 170      4AF83896 
 170      02
 171 02f9 CBA018A5 		.ascii	"\313\240\030\245 \372\032\205\"\265|%\026yN\035\336"
 171      20FA1A85 
 171      22B57C25 
 171      16794E1D 
 171      DE
 172 030a C67E571B 		.ascii	"\306~W\033\247\200\355\310\030\254P\003\326\241\006"
 172      A780EDC8 
 172      18AC5003 
 172      D6A106
 173 0319 DB6305CC 		.ascii	"\333c\005\314a\316\354}5\330\376\214\301\264\3146\251"
 173      61CEEC7D 
 173      35D8FE8C 
 173      C1B4CC36 
 173      A9
 174 032a C13AAD80 		.ascii	"\301:\255\200\345\2333\333\254\006\373$c0-\263\217\324"
 174      E59B33DB 
 174      AC06FB24 
 174      63302DB3 
 174      8FD4
 175 033c 60DD56C0 		.ascii	"`\335V\300\012\314\231u\252\301\216f\014\246ev@\015"
 175      0ACC9975 
 175      AAC18E66 
 175      0CA66576 
 175      400D
 176 034e D66305AC 		.ascii	"\326c\005\254\320\234Y\227\032\354\213\214\301\264\314"
 176      D09C5997 
 176      1AEC8B8C 
 176      C1B4CC
 177 035d 3E53837D 		.ascii	">S\203}m\005\3549sf\007\325`\3473\006\3232;\244\006"
 177      6D05EC39 
 177      736607D5 
 177      60E73306 
 177      D3323BA4 
ARM GAS  /tmp/cca3TaT1.s 			page 13


 178 0372 BB6805AC 		.ascii	"\273h\005\254\304\214Ys\374\310+\"V\017\274\374\030"
 178      C48C5973 
 178      FCC82B22 
 178      560FBCFC 
 178      18
 179 0383 74598FA5 		.ascii	"tY\217\245}K\032\201i\231\235U3\373\311\012\263Y\346"
 179      7D4B1A81 
 179      69999D55 
 179      33FBC90A 
 179      B359E6
 180 0396 60E7D560 		.ascii	"`\347\325`W\255\200U\232'\340[5\330@\306`Zf\027\325"
 180      57AD8055 
 180      9A27E05B 
 180      35D840C6 
 180      605A6617 
 181 03ab 607F5A01 		.ascii	"`\177Z\001[d\316\354{5\330\365\214\301\324\314\232\343"
 181      5B64CEEC 
 181      7B35D8F5 
 181      8CC1D4CC 
 181      9AE3
 182 03bd 97219BF2 		.ascii	"\227!\233\362\027/6K\367e\234\245}\205i\314\366\231"
 182      172F364B 
 182      F7659CA5 
 182      7D8569CC 
 182      F699
 183 03cf 9A71F866 		.ascii	"\232q\370f\306\037\306[&\037F\365\251(m\005\313\276"
 183      C61FC65B 
 183      261F46F5 
 183      A9286D05 
 183      CBBE
 184 03e1 A95FB686 		.ascii	"\251_\266\206\204<\2545\210\241\321\245\376\372q\370"
 184      843CAC35 
 184      88A1D1A5 
 184      FEFA71F8 
 185 03f1 4BDA4E7C 		.ascii	"K\332N|\205\237\001\375\015\325\347\250\356\243\372"
 185      859F01FD 
 185      0DD5E7A8 
 185      EEA3FA
 186 0400 02D5DF51 		.ascii	"\002\325\337Q}\211\352~\252\177\244\372\012\325?S}\225"
 186      7D89EA7E 
 186      AA7FA4FA 
 186      0AD53F53 
 186      7D95
 187 0412 EA6B540F 		.ascii	"\352kT\017P\375\033\325\177P\375\027\325\327\251\376"
 187      50FD1BD5 
 187      7F50FD17 
 187      D5D7A9FE 
 188 0422 9BEA1BA0 		.ascii	"\233\352\033\240S\227\256]\3525\311\257\310\375N\272"
 188      5397AE5D 
 188      EA35C9AF 
 188      C8FD4EBA 
 189 0432 5D123BB5 		.ascii	"]\022;\265\370 tj?\034\307\355\255D\352\324b\016\245"
 189      F820746A 
 189      3F1CC7ED 
 189      AD44EAD4 
 189      620EA5
 190 0445 DBBDA76B 		.ascii	"\333\275\247k\014\344n\267\217\257T:\3745Y\242\305]"
ARM GAS  /tmp/cca3TaT1.s 			page 14


 190      0CE46EB7 
 190      8FAF543A 
 190      FC3559A2 
 190      C55D
 191 0457 8BDDEE25 		.ascii	"\213\335\356%\262\250 \325\354\336\3257\273\367\264"
 191      B2A820D5 
 191      ECDED537 
 191      BBF7B4
 192 0466 0DE024B4 		.ascii	"\015\340$\264\225\234=\233\2706\320\201W%\340\024:\224"
 192      959C3D9B 
 192      B836D081 
 192      5725E014 
 192      3A94
 193 0478 4C62A5D5 		.ascii	"Lb\245\325\352\310\223\317Z\211\235\361\202\216t\233"
 193      EAC893CF 
 193      5A899DF1 
 193      828E749B 
 194 0488 E250D781 		.ascii	"\342P\327\201\324\227\200\003\2232&\005\005\306\266"
 194      D4978003 
 194      93322605 
 194      05C6B6
 195 0497 1C6E66C4 		.ascii	"\034nf\304,\2660\351\272\222\306\312(I\017\361\355Y"
 195      2CB630E9 
 195      BA92C6CA 
 195      28490FF1 
 195      ED59
 196 04a9 06FF1790 		.ascii	"\006\377\027\220\350\217\354*O\032P&\035Mm\323\353\221"
 196      E88FEC2A 
 196      4F1A5026 
 196      1D4D6DD3 
 196      EB91
 197 04bb 2C8DAD38 		.ascii	",\215\2558\274\234\311t\203\254`\2147\210K\303Y\261"
 197      BC9CC974 
 197      83AC608C 
 197      37884BC3 
 197      59B1
 198 04cd 8295BD9B 		.ascii	"\202\225\275\233\245;\253\351H@\217&\257\235\3039XU"
 198      A53BABE9 
 198      48408F26 
 198      AF9DC339 
 198      5855
 199 04df 3ABFE84A 		.ascii	":\277\350JG\352\362?\310\262r\014[\305\350j\340Mf\330"
 199      47EAF23F 
 199      C8B2720C 
 199      5BC5E86A 
 199      E04D66D8 
 200 04f3 49223E18 		.ascii	"I\">\030?\177F:\206m\211\347+\245\031\3172,\315\243"
 200      3F7F463A 
 200      866D89E7 
 200      2BA519CF 
 200      322CCDA3 
 201 0507 7CEA2076 		.ascii	"|\352 v\237\036\304V3\217P\232\253\365\264\336f\014"
 201      9F1EC456 
 201      338F509A 
 201      ABF5B4DE 
 201      660C
 202 0519 4BF39661 		.ascii	"K\363\226air\230\244SY\253L\232;R\302uV\034^\233q\302"
ARM GAS  /tmp/cca3TaT1.s 			page 15


 202      697298A4 
 202      5359AB4C 
 202      9A3B52C2 
 202      75561C5E 
 203 0530 DB4D129E 		.ascii	"\333M\022\236\243Y\210b\005\303\225\214\356\240\252"
 203      A3598862 
 203      05C3958C 
 203      EEA0AA
 204 053f 23C1A073 		.ascii	"#\301\240s\306\011\037j\307\353\324\011?B\023r\3058"
 204      C6091F6A 
 204      C7EBD409 
 204      3F421372 
 204      C538
 205 0551 E1FA93E4 		.ascii	"\341\372\223\344z\223|\310\023m0\016\364\220*\320\034"
 205      7A937CC8 
 205      136D300E 
 205      F4902AD0 
 205      1C
 206 0562 6E83E028 		.ascii	"n\203\340(\374\017\217\300\177P\303\037=U\\\314\272"
 206      FC0F8FC0 
 206      7F50C31F 
 206      3D555CCC 
 206      BA
 207 0573 03C1BAE0 		.ascii	"\003\301\272\340\302j\266!\312\006\270z6\032\361\261"
 207      C26AB621 
 207      CA06B87A 
 207      361AF1B1 
 208 0583 51A1D887 		.ascii	"Q\241\330\207\262\243\302\274pP\310\236\273`q\241\033"
 208      B2A3C2BC 
 208      7050C89E 
 208      BB6071A1 
 208      1B
 209 0594 4DD15A46 		.ascii	"M\321ZF\0046\030\366\3257\371y\326\027\210.\213\012"
 209      043618F6 
 209      D537F979 
 209      D617882E 
 209      8B0A
 210 05a6 CB1AF968 		.ascii	"\313\032\371hq\0009\305q0\304{\205(\033^Be:\033h\010"
 210      710039C5 
 210      7130C47B 
 210      85281B5E 
 210      42653A1B 
 211 05bc F16C848F 		.ascii	"\361l\204\217\362\\\304\027\200I\"\3767\270\010\317"
 211      F25CC417 
 211      804922FE 
 211      37B808CF 
 212 05cc 72915019 		.ascii	"r\221P\031\273\324\347+\202A\021\037\252\343\375~\336"
 212      BBD4E72B 
 212      8241111F 
 212      AAE3FD7E 
 212      DE
 213 05dd 9FBA116E 		.ascii	"\237\272\021n\010\363E<W\027,*\367\276XTVRZ\376Z\031"
 213      08F3453C 
 213      57172C2A 
 213      F7BE5854 
 213      56525AFE 
 214 05f3 AB799062 		.ascii	"\253y\220b\020\025\374\301\260\000\263;\232\340\357"
ARM GAS  /tmp/cca3TaT1.s 			page 16


 214      1015FCC1 
 214      B000B33B 
 214      9AE0EF
 215 0602 B432AFD0 		.ascii	"\2642\257\320\212\377\277\331C\234/\020\014\363\254"
 215      8AFFBFD9 
 215      439C2F10 
 215      0CF3AC
 216 0611 D7CF2FE1 		.ascii	"\327\317/\341\232\352\005\257\022\213\034\257W\341\343"
 216      9AEA05AF 
 216      128B1CAF 
 216      57E1E3
 217 0620 8A0AD502 		.ascii	"\212\012\325\002\027\021f\327\003\306(\256\216\306("
 217      171166D7 
 217      03C628AE 
 217      8EC628
 218 062f 57BCD9D0 		.ascii	"W\274\331\320H\357\345\300\230\027\224\341\\yX:<=\215"
 218      48EFE5C0 
 218      981794E1 
 218      5C79583A 
 218      3C3D8D
 219 0642 0D11086D 		.ascii	"\015\021\010muM\325\2642v\376\374\012\266f^\325\353"
 219      754DD5B4 
 219      3276FEFC 
 219      0AB6665E 
 219      D5EB
 220 0654 A510016F 		.ascii	"\245\020\001o}\275\037\346\314\225F\336 d\256\334\272"
 220      7DBD1FE6 
 220      CC9546DE 
 220      2064AEDC 
 220      BA
 221 0665 77482419 		.ascii	"wH$\031\014I\000\362\017\257`s{JA\312\354\325Un\217"
 221      0C4900F2 
 221      0FAF6073 
 221      7B4A41CA 
 221      ECD5556E 
 222 067a BD62DE1C 		.ascii	"\275b\336\034\017S\355\261\315\231\353\311r\273\253"
 222      0F53EDB1 
 222      CD99EBC9 
 222      72BBAB
 223 0689 3CA55497 		.ascii	"<\245T\227\331\335\3569\036\233{A\215mQ\265\3336\333"
 223      D9DDEE39 
 223      1E9B7B41 
 223      8D6D51B5 
 223      DB36DB
 224 069c E3B179DC 		.ascii	"\343\261y\334\360\033\034^\256\250\361\330*D\317\252"
 224      F01B1C5E 
 224      AEA8F1D8 
 224      2A44CFAA 
 225 06ac D91E66A1 		.ascii	"\331\036f\241\3445\015\354k=\343d\232Q1(^N\\\253]\014"
 225      E4350DEC 
 225      6B3DE364 
 225      9A513128 
 225      5E4E5CAB 
 226 06c2 89DD07F9 		.ascii	"\211\335\007\371qx\275K\232\302>\257w\2642(~\241dF\371"
 226      7178BD4B 
 226      9AC23EAF 
 226      77B43228 
ARM GAS  /tmp/cca3TaT1.s 			page 17


 226      7EA16446 
 227 06d7 D8944F43 		.ascii	"\330\224OC\243\344\222\257\334\341e\014\225CiI\251\362"
 227      A3E492AF 
 227      DCE1650C 
 227      95436949 
 227      A9F2
 228 06e9 78A9E1E3 		.ascii	"x\251\341\343\351\377\002n6\252\021"
 228      E9FF026E 
 228      36AA11
 229              		.text
 230              		.section	.gnu.lto_.symtab.88004cab34d31283,"",%progbits
 231 0000 7374496E 		.ascii	"stInit\000\000\000\000\000\000\000\000\000\000\000\000"
 231      69740000 
 231      00000000 
 231      00000000 
 231      0000
 232 0012 A1000000 		.ascii	"\241\000\000\000stStartAlarm\000\000\000\000\000\000"
 232      73745374 
 232      61727441 
 232      6C61726D 
 232      00000000 
 233 0028 00000000 		.ascii	"\000\000\000\000\000\000\246\000\000\000stStopAlarm"
 233      0000A600 
 233      00007374 
 233      53746F70 
 233      416C6172 
 234 003d 00000000 		.ascii	"\000\000\000\000\000\000\000\000\000\000\000\000\266"
 234      00000000 
 234      00000000 
 234      B6
 235 004a 00000073 		.ascii	"\000\000\000stSetAlarm\000\000\000\000\000\000\000\000"
 235      74536574 
 235      416C6172 
 235      6D000000 
 235      00000000 
 236 005f 00000000 		.ascii	"\000\000\000\000\271\000\000\000stGetAlarm\000\000\000"
 236      B9000000 
 236      73744765 
 236      74416C61 
 236      726D0000 
 237 0074 00000000 		.ascii	"\000\000\000\000\000\000\000\000\000\275\000\000\000"
 237      00000000 
 237      00BD0000 
 237      00
 238 0081 73745F6C 		.ascii	"st_lld_init\000\000\002\000\000\000\000\000\000\000"
 238      6C645F69 
 238      6E697400 
 238      00020000 
 238      00000000 
 239 0096 0000C100 		.ascii	"\000\000\301\000\000\000"
 239      0000
 240              		.text
 241              		.section	.gnu.lto_.opts,"",%progbits
 242 0000 272D6D63 		.ascii	"'-mcpu=cortex-m4' '-mno-thumb-interwork' '-mthumb' "
 242      70753D63 
 242      6F727465 
 242      782D6D34 
ARM GAS  /tmp/cca3TaT1.s 			page 18


 242      2720272D 
 243 0033 272D6767 		.ascii	"'-ggdb' '-O2' '-fomit-frame-pointer' '-falign-funct"
 243      64622720 
 243      272D4F32 
 243      2720272D 
 243      666F6D69 
 244 0066 696F6E73 		.ascii	"ions=16' '-ffunction-sections' '-fdata-sections' '-"
 244      3D313627 
 244      20272D66 
 244      66756E63 
 244      74696F6E 
 245 0099 666E6F2D 		.ascii	"fno-common' '-flto'\000"
 245      636F6D6D 
 245      6F6E2720 
 245      272D666C 
 245      746F2700 
 246              		.text
 247              		.cfi_sections	.debug_frame
 248              		.section	.text.stInit,"ax",%progbits
 249              		.align	2
 250              		.p2align 4,,15
 251              		.global	stInit
 252              		.thumb
 253              		.thumb_func
 254              		.type	stInit, %function
 255              	stInit:
 256              	.LFB272:
 257              		.file 1 "../ChibiOS/os/hal/src/st.c"
 258              		.loc 1 60 0
 259              		.cfi_startproc
 260              		@ args = 0, pretend = 0, frame = 0
 261              		@ frame_needed = 0, uses_anonymous_args = 0
 262              		@ link register save eliminated.
 263              		.loc 1 62 0
 264 0000 FFF7FEBF 		b	st_lld_init
 265              	.LVL0:
 266              		.cfi_endproc
 267              	.LFE272:
 268              		.size	stInit, .-stInit
 269 0004 AFF30080 		.section	.text.stStartAlarm,"ax",%progbits
 269      AFF30080 
 269      AFF30080 
 270              		.align	2
 271              		.p2align 4,,15
 272              		.global	stStartAlarm
 273              		.thumb
 274              		.thumb_func
 275              		.type	stStartAlarm, %function
 276              	stStartAlarm:
 277              	.LFB273:
 278              		.loc 1 77 0
 279              		.cfi_startproc
 280              		@ args = 0, pretend = 0, frame = 0
 281              		@ frame_needed = 0, uses_anonymous_args = 0
 282              		@ link register save eliminated.
 283              	.LVL1:
 284              	.LBB10:
ARM GAS  /tmp/cca3TaT1.s 			page 19


 285              	.LBB11:
 286              		.file 2 "../ChibiOS/os/hal/ports/STM32/LLD/TIMv1/st_lld.h"
 287              		.loc 2 155 0
 288 0000 4FF08043 		mov	r3, #1073741824
 289              	.LVL2:
 290              		.loc 2 156 0
 291 0004 0021     		movs	r1, #0
 292              		.loc 2 157 0
 293 0006 0222     		movs	r2, #2
 294              		.loc 2 155 0
 295 0008 5863     		str	r0, [r3, #52]
 296              		.loc 2 156 0
 297 000a 1961     		str	r1, [r3, #16]
 298              		.loc 2 157 0
 299 000c DA60     		str	r2, [r3, #12]
 300 000e 7047     		bx	lr
 301              	.LBE11:
 302              	.LBE10:
 303              		.cfi_endproc
 304              	.LFE273:
 305              		.size	stStartAlarm, .-stStartAlarm
 306              		.section	.text.stStopAlarm,"ax",%progbits
 307              		.align	2
 308              		.p2align 4,,15
 309              		.global	stStopAlarm
 310              		.thumb
 311              		.thumb_func
 312              		.type	stStopAlarm, %function
 313              	stStopAlarm:
 314              	.LFB274:
 315              		.loc 1 91 0
 316              		.cfi_startproc
 317              		@ args = 0, pretend = 0, frame = 0
 318              		@ frame_needed = 0, uses_anonymous_args = 0
 319              		@ link register save eliminated.
 320              	.LBB12:
 321              	.LBB13:
 322              		.loc 2 167 0
 323 0000 4FF08043 		mov	r3, #1073741824
 324 0004 0022     		movs	r2, #0
 325 0006 DA60     		str	r2, [r3, #12]
 326 0008 7047     		bx	lr
 327              	.LBE13:
 328              	.LBE12:
 329              		.cfi_endproc
 330              	.LFE274:
 331              		.size	stStopAlarm, .-stStopAlarm
 332 000a 00BFAFF3 		.section	.text.stSetAlarm,"ax",%progbits
 332      0080
 333              		.align	2
 334              		.p2align 4,,15
 335              		.global	stSetAlarm
 336              		.thumb
 337              		.thumb_func
 338              		.type	stSetAlarm, %function
 339              	stSetAlarm:
 340              	.LFB275:
ARM GAS  /tmp/cca3TaT1.s 			page 20


 341              		.loc 1 105 0
 342              		.cfi_startproc
 343              		@ args = 0, pretend = 0, frame = 0
 344              		@ frame_needed = 0, uses_anonymous_args = 0
 345              		@ link register save eliminated.
 346              	.LVL3:
 347              	.LBB14:
 348              	.LBB15:
 349              		.loc 2 179 0
 350 0000 4FF08043 		mov	r3, #1073741824
 351              	.LVL4:
 352 0004 5863     		str	r0, [r3, #52]
 353 0006 7047     		bx	lr
 354              	.LBE15:
 355              	.LBE14:
 356              		.cfi_endproc
 357              	.LFE275:
 358              		.size	stSetAlarm, .-stSetAlarm
 359 0008 AFF30080 		.section	.text.stGetAlarm,"ax",%progbits
 359      AFF30080 
 360              		.align	2
 361              		.p2align 4,,15
 362              		.global	stGetAlarm
 363              		.thumb
 364              		.thumb_func
 365              		.type	stGetAlarm, %function
 366              	stGetAlarm:
 367              	.LFB276:
 368              		.loc 1 121 0
 369              		.cfi_startproc
 370              		@ args = 0, pretend = 0, frame = 0
 371              		@ frame_needed = 0, uses_anonymous_args = 0
 372              		@ link register save eliminated.
 373              	.LBB16:
 374              	.LBB17:
 375              		.loc 2 191 0
 376 0000 4FF08043 		mov	r3, #1073741824
 377 0004 586B     		ldr	r0, [r3, #52]
 378              	.LBE17:
 379              	.LBE16:
 380              		.loc 1 126 0
 381 0006 7047     		bx	lr
 382              		.cfi_endproc
 383              	.LFE276:
 384              		.size	stGetAlarm, .-stGetAlarm
 385 0008 AFF30080 		.text
 385      AFF30080 
 386              	.Letext0:
 387              		.file 3 "/nfs/nfs5/home/research/hardware/arm2/gcc-arm-embedded/gcc-arm-none-eabi-4_8-2014q2/arm-n
 388              		.file 4 "/nfs/nfs5/home/research/hardware/arm2/gcc-arm-embedded/gcc-arm-none-eabi-4_8-2014q2/arm-n
 389              		.file 5 "../ChibiOS/os/rt/ports/ARMCMx/compilers/GCC/chtypes.h"
 390              		.file 6 "../ChibiOS/os/rt/include/chsystypes.h"
 391              		.file 7 "../ChibiOS/os/rt/include/chschd.h"
 392              		.file 8 "../ChibiOS/os/rt/ports/ARMCMx/chcore.h"
 393              		.file 9 "../ChibiOS/os/rt/ports/ARMCMx/chcore_v7m.h"
 394              		.file 10 "../ChibiOS/os/hal/ports/STM32/LLD/TIMv1/stm32_tim.h"
 395              		.file 11 "../ChibiOS/os/rt/include/chtm.h"
ARM GAS  /tmp/cca3TaT1.s 			page 21


 396              		.file 12 "../ChibiOS/os/rt/include/chsem.h"
 397              		.file 13 "../ChibiOS/os/rt/include/chmtx.h"
 398              		.file 14 "../ChibiOS/os/ext/CMSIS/include/core_cm4.h"