ARM GAS  /tmp/cca3TaT1.s 			page 1


   1              		.syntax unified
   2              		.cpu cortex-m4
   3              		.fpu softvfp
   4              		.eabi_attribute 20, 1
   5              		.eabi_attribute 21, 1
   6              		.eabi_attribute 23, 3
   7              		.eabi_attribute 24, 1
   8              		.eabi_attribute 25, 1
   9              		.eabi_attribute 26, 1
  10              		.eabi_attribute 30, 2
  11              		.eabi_attribute 34, 1
  12              		.eabi_attribute 18, 4
  13              		.thumb
  14              		.file	"st.c"
  15              		.text
  16              	.Ltext0:
  17              		.section	.gnu.lto_.jmpfuncs.88004cab34d31283,"",%progbits
  18 0000 789C6362 		.ascii	"x\234cb`b\300\006x\2414+\020322103\26200\000\000\002"
  18      6062C006 
  18      78A1342B 
  18      10333232 
  18      313033B2 
  19 0019 6D0023   		.ascii	"m\000#"
  20              		.text
  21              		.section	.gnu.lto_.inline.88004cab34d31283,"",%progbits
  22 0000 789C6362 		.ascii	"x\234cb`b\300\006R\2414+\003\003\013\017#X\021\333\002"
  22      6062C006 
  22      52A1342B 
  22      03030B0F 
  22      235811DB 
  23 0015 79B05A46 		.ascii	"y\260ZF.\020\301\300\306\012\024f\373\240\007\027gb"
  23      2E10C1C0 
  23      C60A1466 
  23      FBA00717 
  23      6762
  24 0027 6061060A 		.ascii	"`a\006\0121]\340\207\0131c\012\261`\0121\000\000\232"
  24      315DE087 
  24      0B31630A 
  24      B1600A31 
  24      00009A
  25 003a 48086D   		.ascii	"H\010m"
  26              		.text
  27              		.section	.gnu.lto_.pureconst.88004cab34d31283,"",%progbits
  28 0000 789C6362 		.ascii	"x\234cb`b\340f\200\000V\006\011F)&)f)\026)\000\004\027"
  28      6062E066 
  28      80005606 
  28      09462926 
  28      29662916 
  29 0018 009F     		.ascii	"\000\237"
  30              		.text
  31              		.section	.gnu.lto_stInit.88004cab34d31283,"",%progbits
  32 0000 789C6362 		.ascii	"x\234cb`b@\007\222@\\\011\304\262@\314\310\314\300\310"
  32      60624007 
  32      92405C09 
  32      C4B240CC 
  32      C8CCC0C8 
  33 0014 34E11C03 		.ascii	"4\341\034\003C#\007\023##\210\301\300\310P\317\304X"
ARM GAS  /tmp/cca3TaT1.s 			page 2


  33      43230713 
  33      232388C1 
  33      C0C850CF 
  33      C458
  34 0026 1FC90856 		.ascii	"\037\311\010V\273\236\351\300\203\377\377\327\375X\373"
  34      BB9EE9C0 
  34      83FFFFD7 
  34      FD58FB
  35 0035 B01EA894 		.ascii	"\260\036\250\224\201\201\225\241\245\241a\202\002\003"
  35      818195A1 
  35      A5A16182 
  35      0203
  36 0043 4332583E 		.ascii	"C2X>\004H\2024\20522\201h\346\363\014\315\017\376\331"
  36      04488234 
  36      85323281 
  36      68E6F30C 
  36      CD0FFED9 
  37 0057 24322E64 		.ascii	"$2.dd\005\312V3\374j\350h\020\310d\004\252\206\030\227"
  37      6405CA56 
  37      33FC6AE8 
  37      6810C864 
  37      04AA8618 
  38 006c 09A22F32 		.ascii	"\011\242/24>\370\317\004S\004\001!@\011\240\001 \307"
  38      343EF8CF 
  38      04530401 
  38      214009A0 
  38      0120C7
  39 007f 4AEBE9E9 		.ascii	"J\353\351\351;gd&e\372\007\353\347\027\353g$\346\350"
  39      3B676426 
  39      65FA07EB 
  39      E717EB67 
  39      24E6E8
  40 0092 171725EB 		.ascii	"\027\027%\353\027\227\350%3\000\000\355\343*\327"
  40      1797E825 
  40      330000ED 
  40      E32AD7
  41              		.text
  42              		.section	.gnu.lto_stStartAlarm.88004cab34d31283,"",%progbits
  43 0000 789C9D91 		.ascii	"x\234\235\221AK\002A\024\307\337\233\335Uou\215 \302"
  43      414B0241 
  43      14C7DF9B 
  43      DD556F75 
  43      8D20C2
  44 0013 6BB583F5 		.ascii	"k\265\203\365\001:\324%P:\270A\235b\265\310\005\305"
  44      013AD425 
  44      503AB841 
  44      9D62B5C8 
  44      05C5
  45 0025 70A5ABB3 		.ascii	"p\245\253\263\"\236E\210\302NJ\021\204\344)\220\272"
  45      229E4588 
  45      C24E4A11 
  45      84E42990 
  45      BA
  46 0036 58B79202 		.ascii	"X\267\222\002\243k\340\027\010\374\000\301\366fT\302"
  46      A36BE017 
  46      08FC00C1 
  46      F66654C2 
ARM GAS  /tmp/cca3TaT1.s 			page 3


  47 0046 3A043DD8 		.ascii	":\004=\330y;\377y\357\367\177\3140`\3603f\350{B\000"
  47      793BFF79 
  47      EFF77FCC 
  47      3060F033 
  47      66E87B42 
  48 005b 8B326A80 		.ascii	"\2132j\200\254\362\002\340\205\030\242\374\001\204\002"
  48      ACF202E0 
  48      8518A2FC 
  48      018402
  49 006a C3C20EAA 		.ascii	"\303\302\016\252\332\026\353\364}\377\372\266|\331\304"
  49      DA16EBF4 
  49      7DFFFAB6 
  49      7CD9C4
  50 0079 1A0B32CC 		.ascii	"\032\0132\314(\335\200\222\020\225\371\014\322.\251"
  50      28DD8092 
  50      1095F90C 
  50      D22EA9
  51 0088 148B56D9 		.ascii	"\024\213V\331\276\205Lf\355\021\212!\2000\324\205\250"
  51      BE854C66 
  51      ED118A21 
  51      8030D485 
  51      A8
  52 0099 76EECA5D 		.ascii	"v\356\312]\024U\341\015|\177\312A\032i\016e\3336:\210"
  52      1455E10D 
  52      7C7FCA41 
  52      1A690E65 
  52      DB363A88 
  53 00ad F32A317D 		.ascii	"\363*1}r\306\003\302\3003<t?_\337\213\301\221\335\330"
  53      72C603C2 
  53      C0333C74 
  53      3F5FDF8B 
  53      C191DDD8 
  54 00c1 B7D37DEB 		.ascii	"\267\323}\353\031660L\2256\326\321 \232\232b\011\232"
  54      19363630 
  54      4C9536D6 
  54      D1209A9A 
  54      62099A
  55 00d4 A2E4F54F 		.ascii	"\242\344\365O>\216\027\035\324\026\340\212vb\325A\375"
  55      3E8E171D 
  55      D416E08A 
  55      7662D541 
  55      FD
  56 00e5 0C6A5E45 		.ascii	"\014j^EL;hH\267\200\240\320\225q@\331%P\221.\210\244"
  56      4C3B6848 
  56      B780A0D0 
  56      957140D9 
  56      2550912E 
  57 00fb D4E0708A 		.ascii	"\324\340p\212\2212\036\246}\332\272\327l<'\355\033\255"
  57      91321EA6 
  57      7DDABAD7 
  57      6C3C27ED 
  57      1BAD
  58 010d FD89C609 		.ascii	"\375\211\306\011\264&E\011k\377\013\306&a\362u{\340"
  58      B4264509 
  58      6BFF0BC6 
  58      2661F275 
  58      7BE0
ARM GAS  /tmp/cca3TaT1.s 			page 4


  59 011f 0D1A37FA 		.ascii	"\015\0327\372\360\"\306a\221-\275\203<\2375M\276\226"
  59      F022C661 
  59      912DBD83 
  59      3C9F354D 
  59      BE96
  60 0131 7212CE66 		.ascii	"r\022\316f\234g]\236\262\323\334\315%\271\2337\223\240"
  60      9C675D9E 
  60      B2D3DCCD 
  60      25B99B37 
  60      93A0
  61 0143 E79DCC7E 		.ascii	"\347\235\314~\344w\301a6\227wy\334\212\255,\363ht\235"
  61      E477C161 
  61      36977779 
  61      DC8AAD2C 
  61      F368749D 
  62 0157 5B1BB1A3 		.ascii	"[\033\261\243\010\265\354\246\323{f\012\276\000\313"
  62      08B5ECA6 
  62      D37B660A 
  62      BE00CB
  63 0166 6F8BC9   		.ascii	"o\213\311"
  64              		.text
  65              		.section	.gnu.lto_stStopAlarm.88004cab34d31283,"",%progbits
  66 0000 789C6362 		.ascii	"x\234cb`b@\007\222@|\024\210\375\201\230\221\231\201"
  66      60624007 
  66      92407C14 
  66      88FD8198 
  66      919981
  67 0013 9169C239 		.ascii	"\221i\3029\006\206F\016&FF\020\203\201\221\241\236\211"
  67      0686460E 
  67      26464610 
  67      838191A1 
  67      9E89
  68 0025 B13E9211 		.ascii	"\261>\222\021\254v=\323\201\007\377\377\257\373\326"
  68      AC763DD3 
  68      8107FFFF 
  68      AFFBD6
  69 0034 36E70DE3 		.ascii	"6\347\015\343l&\026\240\010+CKC\303\004\005\006\206"
  69      6C2616A0 
  69      082B434B 
  69      43C30405 
  69      0686
  70 0046 64B08A10 		.ascii	"d\260\212\020 \011\322\026\312\310\004\242\231\3172"
  70      2009D216 
  70      CAC804A2 
  70      99CF32
  71 0055 1CDA71E7 		.ascii	"\034\332q\347\374\363G\254pu\020\306\201\323\367\016"
  71      FCF347AC 
  71      707510C6 
  71      81D3F70E 
  72 0065 B2323024 		.ascii	"\26220$2.dd\005j\005\353\325fX\325\320\322\370\340\357"
  72      322E6464 
  72      056A05EB 
  72      D56658D5 
  72      D0D2F8E0 
  73 007a 9E69F299 		.ascii	"\236i\362\231\214\014\263\031f5Nh\020\310dd\214`\314"
  73      8C0CB319 
  73      66354E68 
ARM GAS  /tmp/cca3TaT1.s 			page 5


  73      10C86464 
  73      8C60CC
  74 008d 64646A00 		.ascii	"ddj\000\002\026\0060\023\354\222$\220\226D\306\305@"
  74      02160630 
  74      13EC9224 
  74      909644C6 
  74      C540
  75 009f ED6051B0 		.ascii	"\355`Q\260\340E\206\306\017\217\266\263@L\205\201\020"
  75      E04586C6 
  75      0F8FB6B3 
  75      404C8581 
  75      10
  76 00b0 A0E940A7 		.ascii	"\240\351@\247\200\264I\353\351\351;gd&e\372\007\353"
  76      80B449EB 
  76      E9E93B67 
  76      642665FA 
  76      07EB
  77 00c2 E717EB67 		.ascii	"\347\027\353g$\346\350\027\027%\353\027\227\350%3\030"
  77      24E6E817 
  77      1725EB17 
  77      97E82533 
  77      18
  78 00d3 62CA15E4 		.ascii	"b\312\025\344\027\225\024\353\007\207\370\032\033\351"
  78      179514EB 
  78      0787F81A 
  78      1BE9
  79 00e1 FBF8B8E8 		.ascii	"\373\370\270\350\207x\372\226\031\002U\307\347\344\244"
  79      8778FA96 
  79      190255C7 
  79      E7E4A4
  80 00f0 E8653000 		.ascii	"\350e0\000\000Y\022QV"
  80      00591251 
  80      56
  81              		.text
  82              		.section	.gnu.lto_stSetAlarm.88004cab34d31283,"",%progbits
  83 0000 789C6550 		.ascii	"x\234eP\277KBQ\024>\337\365=u\2535\202\010\327\352\335"
  83      BF4B4251 
  83      143EDFF5 
  83      3D75AB35 
  83      8208D7EA 
  84 0015 AC3FA0A1 		.ascii	"\254?\240\241\226@i\360\0055\205Z\344\005\305Pi\365"
  84      964069F0 
  84      0535855A 
  84      E405C550 
  84      69F5
  85 0027 3E115CC5 		.ascii	">\021\\\305E(\032\014j\210~P\215-\322\026RP\177\201"
  85      45281A0C 
  85      6A887E50 
  85      8D2DD216 
  85      52507F81 
  86 003b 3447B8B4 		.ascii	"4G\270\264\005\257\363\256:T\007\356=\347|\234\363}"
  86      05AFF3AE 
  86      3A5407EE 
  86      3DE77C9C 
  86      F37D
  87 004d DFBD8204 		.ascii	"\337\275\202\004\375\215)>\213 r9#D\020\315\027\"/*"
  87      FD8D293E 
ARM GAS  /tmp/cca3TaT1.s 			page 6


  87      8B207239 
  87      234410CD 
  87      17222F2A 
  88 0061 80A02050 		.ascii	"\200\240 PU\240\272\0153{#\272}\337\277\276k\234\177"
  88      55A0BA0D 
  88      337B23BA 
  88      7DDFBFBE 
  88      6B9C7F
  89 0074 E044D802 		.ascii	"\340D\330\002\005\203\333T\327\2729[\000wY\203\270|"
  89      0583DB54 
  89      D7BA395B 
  89      00775983 
  89      B87C
  90 0086 07EB9B10 		.ascii	"\007\353\233\020A\016=Q-J\024\243\216\326\255\356}\243"
  90      410E3D51 
  90      2D4A14A3 
  90      8ED6ADEE 
  90      7DA3
  91 0098 07DDD2DE 		.ascii	"\007\335\322\336\300\367'\024\330\322\014\202\265-("
  91      C0F72714 
  91      D8D20C82 
  91      B52D28
  92 00a7 60D62461 		.ascii	"`\326$a\375\366\270\3174\364L\217\275\357\267\257Zd"
  92      FDF6B8CF 
  92      34F44C8F 
  92      BDEFB7AF 
  92      5A64
  93 00b9 2437D6ED 		.ascii	"$7\326\355\366>o\3554N\021\343\3114:\260\231\315\270"
  93      F63E6FED 
  93      344E11E3 
  93      C9343AB0 
  93      99CDB8
  94 00cc 58A04B5D 		.ascii	"X\240K]\367\372\355\253\366\274Bh\216.\270\323+\012"
  94      F7FAEDAB 
  94      F6BC4268 
  94      8E2EB8D3 
  94      2B0A
  95 00de D6311D79 		.ascii	"\3261\035yM=\251`\007ja\315a\031\341\260\221\313\300"
  95      4D3DA960 
  95      076A61CD 
  95      6119E1B0 
  95      91CBC0
  96 00f1 309D3193 		.ascii	"0\2351\223A#C\027#\304\230y%o\360\376`\015\345\306\341"
  96      41234317 
  96      23C49879 
  96      256FF0FE 
  96      600DE5C6 
  97 0106 B22CBF36 		.ascii	"\262,\2776\370\343i\307\221\2539\225Q\033)Y,\313\\:"
  97      F8E369C7 
  97      91AB3995 
  97      511B2959 
  97      2CCB5C3A 
  98 011a 2FCBA5AC 		.ascii	"/\313\245\254,W\234,Y\025U\330\213\377\0378(\226*e\231"
  98      2C579C2C 
  98      591555D8 
  98      8BFF1F38 
  98      28962A65 
ARM GAS  /tmp/cca3TaT1.s 			page 7


  99 012f 7293CB4B 		.ascii	"r\223\313K2\221X\223\356z\3620\316+;\371\374\256\223"
  99      32915893 
  99      EE7AF230 
  99      CE2B3BF9 
  99      FCAE93
 100 0142 A31F76FD 		.ascii	"\243\037v\375gl"
 100      676C
 101              		.text
 102              		.section	.gnu.lto_stGetAlarm.88004cab34d31283,"",%progbits
 103 0000 789C6362 		.ascii	"x\234cb`b@\007\222@\374\014\210\375\201\230\221\231"
 103      60624007 
 103      9240FC0C 
 103      88FD8198 
 103      9199
 104 0012 819169C2 		.ascii	"\201\221i\3029\006\206F\016&FF\020\203\201\221\241\236"
 104      39068646 
 104      0E264646 
 104      10838191 
 104      A19E
 105 0024 89B13E92 		.ascii	"\211\261>\222\021\254v=\323\201\007\377\377\257\373"
 105      11AC763D 
 105      D38107FF 
 105      FFAFFB
 106 0033 D43EEF0D 		.ascii	"\324>\357\015\343|&\026f\206L\2608+CKC\303\004\205\\"
 106      E37C2616 
 106      66864CB0 
 106      382B434B 
 106      43C30485 
 107 0048 1027192C 		.ascii	"\020'\031,\022\002$A\332C\031\231@4\363Y\206Cw\356\234"
 107      12022441 
 107      DA431999 
 107      4034F359 
 107      864377EE 
 108 005d FF6F0455 		.ascii	"\377o\004U\011\323r\340\344?\240\302D\306\205\214\254"
 108      09D372E0 
 108      E43FA0C2 
 108      44C6858C 
 108      AC
 109 006e 408D609D 		.ascii	"@\215`\235\351\214\314\272\014k\032Z\032\037\374\375"
 109      E98CCCBA 
 109      0C6B1A5A 
 109      1A1FFCFD 
 110 007e 335D2A93 		.ascii	"3]*\223\221Q\233a\025\220\3270\2311\223\221i6\303\254"
 110      91519B61 
 110      1590D730 
 110      99319391 
 110      6936C3AC 
 111 0092 C6090D02 		.ascii	"\306\011\015\002\231\214\314\021@.K\003\020\2600\200"
 111      998CCC11 
 111      402E4B03 
 111      10B03080 
 112 00a2 9960E725 		.ascii	"\231`\347%\201LHd\\\0144\015,\312\012\361!T\204\201"
 112      814C4864 
 112      5C0C340D 
 112      2CCA0AF1 
 112      21548481 
 113 00b6 E12243E3 		.ascii	"\341\"C\343\207K\373y \366\001-\202H\207\000-\006\272"
ARM GAS  /tmp/cca3TaT1.s 			page 8


 113      874BFB79 
 113      20F6012D 
 113      82488700 
 113      2D06BA
 114 00c9 111432D2 		.ascii	"\021\0242\322zz\372\316\031\231I\231\376\301\372\371"
 114      7A7AFACE 
 114      19994999 
 114      FEC1FAF9 
 115 00d9 C5FA1989 		.ascii	"\305\372\031\2119\372\305E\311\372\305%z\311\014\206"
 115      39FAC545 
 115      C9FAC525 
 115      7AC90C86 
 116 00e9 987205F9 		.ascii	"\230r\005\371E%\305\372\301!\276\306F\372>>.\372!\236"
 116      4525C5FA 
 116      C121BEC6 
 116      46FA3E3E 
 116      2EFA219E 
 117 00fd BE658640 		.ascii	"\276e\206@\325\36199)z\031\014\000[\223W<"
 117      D5F13939 
 117      297A190C 
 117      005B9357 
 117      3C
 118              		.text
 119              		.section	.gnu.lto_.symbol_nodes.88004cab34d31283,"",%progbits
 120 0000 789C4DC7 		.ascii	"x\234M\307\261\015\2000\020\004\301\3735\256\224B\316"
 120      B10D8030 
 120      1004C1FB 
 120      35AE9442 
 120      CE
 121 0011 1209A101 		.ascii	"\022\011\241\001\223R\0225P\011\"\000\011O6\010\215"
 121      93521235 
 121      50092200 
 121      094F3608 
 121      8D
 122 0022 FA50B154 		.ascii	"\372P\261TO\311>\346`\301\321u\305t\335p\352\332\360"
 122      4FC93EE6 
 122      60C1D175 
 122      C574DD70 
 122      EADAF0
 123 0035 F037769C 		.ascii	"\3607v\234\337\226\022IY\323u\207\036\334\301\035\316"
 123      DF961249 
 123      59D37587 
 123      1EDCC11D 
 123      CE
 124              		.text
 125              		.section	.gnu.lto_.refs.88004cab34d31283,"",%progbits
 126 0000 789C6362 		.ascii	"x\234cb`b`d\200\002\000\000F\000\006"
 126      60626064 
 126      80020000 
 126      460006
 127              		.text
 128              		.section	.gnu.lto_.decls.88004cab34d31283,"",%progbits
 129 0000 789CBD58 		.ascii	"x\234\275Xkl\024U\024\276wv[v\333\245\024P\2541\221"
 129      6B6C1455 
 129      14BE7776 
 129      5B76DBA5 
 129      1450AC31 
ARM GAS  /tmp/cca3TaT1.s 			page 9


 130 0015 4A841892 		.ascii	"J\204\030\222v\332RT\376 \270%\224\204\002\331\226\244"
 130      76DA5254 
 130      FE20B825 
 130      948402D9 
 130      96A4
 131 0027 893FD6E9 		.ascii	"\211?\326\351\356\300n\322\335\326\335\251\206\177\267"
 131      EEC06ED2 
 131      DDD6DDA9 
 131      867FB7
 132 0036 2D101431 		.ascii	"-\020\0241\245<\254\206\300\362\206\004\324T\254\026"
 132      A53CAC86 
 132      C0F28604 
 132      D454AC16 
 133 0046 792C8F42 		.ascii	"y,\217B#>\200\012\012UYC\260>C\015\341)t=sgfwf:SfIt"
 133      233E800A 
 133      0A555943 
 133      B03E430D 
 133      E129743D 
 134 0064 92737A77 		.ascii	"\222szw\346\234\357~\367\234sg\316-\203\030\264\011"
 134      E69CEF7E 
 134      F79C7367 
 134      CE2D8318 
 134      B409
 135 0076 2394846B 		.ascii	"#\224\204k\322x\204\0360\010e#\204f\242\364%\376\336"
 135      D278841E 
 135      30086523 
 135      8466A2F4 
 135      25FEDE
 136 0089 0AB20BA4 		.ascii	"\012\262\013\244\013\244\033\3440\31014\374\022\355"
 136      0BA41BE4 
 136      30C83134 
 136      FC12ED
 137 0098 00029D00 		.ascii	"\000\002\235\000\331&\337c\344\373F\366\"\246\003d/"
 137      D926DF63 
 137      E4FB46F6 
 137      22A60364 
 137      2F
 138 00a9 481E880B 		.ascii	"H\036\210\013\344$H\017H/\310\035\020;\210\015d\000"
 138      E424480F 
 138      482FC81D 
 138      103B880D 
 138      6400
 139 00bb E402489F 		.ascii	"\344\002H\237\214)\372\336\225\307\037\203\014\351\260"
 139      8C29FADE 
 139      95C71F83 
 139      0CE9B0
 140 00ca BB64BF93 		.ascii	"\273d\277\223*,\254\362\027\237;\360pN\335\0269a\231"
 140      2A2CACF2 
 140      179F3BF0 
 140      704EDD16 
 140      396199
 141 00dd 1323FBE4 		.ascii	"\023#\373\344bi\3749\310\030\035\256\030\257l\031\363"
 141      6269FC39 
 141      C8181DAE 
 141      18AF6C19 
 141      F3
 142 00ee 6158A2ED 		.ascii	"aX\242\355cX\272\367\204\016g\"\332Lb\211\304\212-g"
ARM GAS  /tmp/cca3TaT1.s 			page 10


 142      6358BAF7 
 142      840E6722 
 142      DA4C6289 
 142      C48A2D67 
 143 0102 306927F7 		.ascii	"0i'\367\223I\033\232\2006\020\270b+\011\301\002\207"
 143      93491B9A 
 143      803610B8 
 143      622B09C1 
 143      0287
 144 0114 673E8E6A 		.ascii	"g>\216j1\207\363\234\250\220\016\\N:\001B\034\336\206"
 144      3187F39C 
 144      A8900E5C 
 144      4E3A0142 
 144      1CDE86
 145 0127 27C8A3C5 		.ascii	"'\310\243\3056\011\216AOc4\025\355\005\3776B\266\215"
 145      36098E41 
 145      4F633415 
 145      ED05FF36 
 145      42B68D
 146 013a 1F1E0CB8 		.ascii	"\037\036\014\270\246\240\235\342\004d\017\261Qx\021"
 146      A6A09DE2 
 146      04640FB1 
 146      517811
 147 0149 602B9EA8 		.ascii	"`+\236\2506\341\360v\314\350y&\006\343\007O\271\332"
 147      36E1F076 
 147      CCE87926 
 147      06E3074F 
 147      B9DA
 148 015b 9A13C9E4 		.ascii	"\232\023\311\344D\353$w\313$m4\026\310\211V\021\322"
 148      44EB2477 
 148      CB246D34 
 148      16C88956 
 148      11D2
 149 016d 223A56F6 		.ascii	"\":V\366B2\214\274&\243\035@?\321\275\277\217!\304\301"
 149      42328CBC 
 149      26A31D40 
 149      3FD1BDBF 
 149      8F21C4C1 
 150 0181 E1BDD809 		.ascii	"\341\275\330\011\276\325\030\300v\340\2512!\3538\377"
 150      BED518C0 
 150      76E0A932 
 150      21EB38FF 
 151 0191 ACEC3986 		.ascii	"\254\3549\206[\200'\207\367Q\244s\370Q\241n\276sh\006"
 151      5B802787 
 151      F751A473 
 151      F851A16E 
 151      BE736806 
 152 01a5 A5F42105 		.ascii	"\245\364!\005\272\302h\2018<\312\251\215\"\374V\014"
 152      BAC26881 
 152      383CCAA9 
 152      8D22FC56 
 152      0C
 153 01b6 4434FA58 		.ascii	"D4\372X\036\210;t\014\372\217\315\323\225A\213\343w"
 153      1E883B74 
 153      0CFA8FCD 
 153      D395418B 
 153      E377
ARM GAS  /tmp/cca3TaT1.s 			page 11


 154 01c8 1DE167D1 		.ascii	"\035\341g\321vB\332\023;\007~\265\275G\342v%\324\267"
 154      7642DA13 
 154      3B077EB5 
 154      BD47E276 
 154      25D4B7
 155 01db A9D92E28 		.ascii	"\251\331.(\011\243XHV\351:ZCV\344\343T!\355\322\027"
 155      09A35848 
 155      56E93A5A 
 155      4356E4E3 
 155      5421EDD2 
 156 01f0 52A76121 		.ascii	"R\247a!\335R\012I\252b\006%u\324\214\313\264K\217\376"
 156      DD520A49 
 156      AA620625 
 156      75D48CCB 
 156      B44B8FFE 
 157 0204 A9217AE7 		.ascii	"\251!z\347\351\024\372n\212\276\332f\264pr\333_)\255"
 157      E914FA6E 
 157      8ABEDA66 
 157      B47072DB 
 157      5F29AD
 158 0217 86C30700 		.ascii	"\206\303\007\000\210\303\335\217\264\346n=\253\203\206"
 158      88C3DD8F 
 158      B4E66E3D 
 158      AB8386
 159 0226 AC6E9C5E 		.ascii	"\254n\234^\363$\211\265\304\223\311\227\364\233\\D7"
 159      F32489B5 
 159      C493C997 
 159      F49B5C44 
 159      37
 160 0237 DB40470C 		.ascii	"\333@G\014v\371F\233a\264ZH\347\036\342T\310r\370\260"
 160      76F9469B 
 160      61B45A48 
 160      E71EE254 
 160      C872F8B0 
 161 024b C97264BC 		.ascii	"\311rd\274\243\0064\333\022\353\372\0374\343\265\255"
 161      A30634DB 
 161      12EBFA1F 
 161      34E3B5AD 
 162 025b B15E3228 		.ascii	"\261^2(\326\220\222\240\276aSJ \307\265 \271\350\255"
 162      D69092A0 
 162      BE61534A 
 162      20C7B520 
 162      B9E8AD
 163 026e F466927C 		.ascii	"\364f\222|\315\026v\002\347*^t\013\266\216\270\0059"
 163      CD167602 
 163      E72A5E74 
 163      0BB68EB8 
 163      0539
 164 0280 BC1F4FB6 		.ascii	"\274\037O\266T\364cQ\233\030\333Bq\376\223\351\300\022"
 164      54F46351 
 164      9B18DB42 
 164      71FE93E9 
 164      C012
 165 0292 ACC0E5D3 		.ascii	"\254\300\345\3239\325f\373\314\3158|\012\217M\223$\251"
 165      39D566FB 
 165      CCCD387C 
 165      0A8F4D93 
ARM GAS  /tmp/cca3TaT1.s 			page 12


 165      24A9
 166 02a4 A5B9CC53 		.ascii	"\245\271\314SvZ*\026\345vj\220\336\213j+4\016\255\225"
 166      765A2A16 
 166      E5766A90 
 166      DE8B6A2B 
 166      340EAD95 
 167 02b8 99A4964E 		.ascii	"\231\244\226N\262\025\237WQ\352\365\223\334|\373y\372"
 167      B2159F57 
 167      51EAF593 
 167      DC7CFB79 
 167      FA
 168 02c9 FAE9C5E3 		.ascii	"\372\351\305\343 #\353\355\332\214<\024F\234\364\014"
 168      2023EBED 
 168      DA8C3C14 
 168      469CF40C 
 169 02d9 B84A4E14 		.ascii	"\270JN\024\224\304\327\365\273\210]\272\217\014\022"
 169      94C4D7F5 
 169      BB885DBA 
 169      8F0C12
 170 02e8 2C5FCFA0 		.ascii	",_\317\240\030Y\336\032\337\320\277\011J\3708\226\002"
 170      1859DE1A 
 170      DFD0BF09 
 170      4AF83896 
 170      02
 171 02f9 CBA018A5 		.ascii	"\313\240\030\245 \372\032\205\"\265|%\026yN\035\336"
 171      20FA1A85 
 171      22B57C25 
 171      16794E1D 
 171      DE
 172 030a C67E571B 		.ascii	"\306~W\033\247\200\355\310\030\254P\003\326\241\006"
 172      A780EDC8 
 172      18AC5003 
 172      D6A106
 173 0319 DB6305CC 		.ascii	"\333c\005\314a\316\354}5\330\376\214\301\264\3146\251"
 173      61CEEC7D 
 173      35D8FE8C 
 173      C1B4CC36 
 173      A9
 174 032a C13AAD80 		.ascii	"\301:\255\200\345\2333\333\254\006\373$c0-\263\217\324"
 174      E59B33DB 
 174      AC06FB24 
 174      63302DB3 
 174      8FD4
 175 033c 60DD56C0 		.ascii	"`\335V\300\012\314\231u\252\301\216f\014\246ev@\015"
 175      0ACC9975 
 175      AAC18E66 
 175      0CA66576 
 175      400D
 176 034e D66305AC 		.ascii	"\326c\005\254\320\234Y\227\032\354\213\214\301\264\314"
 176      D09C5997 
 176      1AEC8B8C 
 176      C1B4CC
 177 035d 3E53837D 		.ascii	">S\203}m\005\3549sf\007\325`\3473\006\3232;\244\006"
 177      6D05EC39 
 177      736607D5 
 177      60E73306 
 177      D3323BA4 
ARM GAS  /tmp/cca3TaT1.s 			page 13


 178 0372 BB6805AC 		.ascii	"\273h\005\254\304\214Ys\374\310+\"V\017\274\374\030"
 178      C48C5973 
 178      FCC82B22 
 178      560FBCFC 
 178      18
 179 0383 74598FA5 		.ascii	"tY\217\245}K\032\201i\231\235U3\373\311\012\263Y\346"
 179      7D4B1A81 
 179      69999D55 
 179      33FBC90A 
 179      B359E6
 180 0396 60E7D560 		.ascii	"`\347\325`W\255\200U\232'\340[5\330@\306`Zf\027\325"
 180      57AD8055 
 180      9A27E05B 
 180      35D840C6 
 180      605A6617 
 181 03ab 607F5A01 		.ascii	"`\177Z\001[d\316\354{5\330\365\214\301\324\314\232\343"
 181      5B64CEEC 
 181      7B35D8F5 
 181      8CC1D4CC 
 181      9AE3
 182 03bd 97219BF2 		.ascii	"\227!\233\362\027/6K\367e\234\245}\205i\314\366\231"
 182      172F364B 
 182      F7659CA5 
 182      7D8569CC 
 182      F699
 183 03cf 9A71F866 		.ascii	"\232q\370f\306\037\306[&\037F\365\251(m\005\313\276"
 183      C61FC65B 
 183      261F46F5 
 183      A9286D05 
 183      CBBE
 184 03e1 A95FB686 		.ascii	"\251_\266\206\204<\2545\210\241\321\245\376\372q\370"
 184      843CAC35 
 184      88A1D1A5 
 184      FEFA71F8 
 185 03f1 4BDA4E7C 		.ascii	"K\332N|\205\237\001\375\015\325\347\250\356\243\372"
 185      859F01FD 
 185      0DD5E7A8 
 185      EEA3FA
 186 0400 02D5DF51 		.ascii	"\002\325\337Q}\211\352~\252\177\244\372\012\325?S}\225"
 186      7D89EA7E 
 186      AA7FA4FA 
 186      0AD53F53 
 186      7D95
 187 0412 EA6B540F 		.ascii	"\352kT\017P\375\033\325\177P\375\027\325\327\251\376"
 187      50FD1BD5 
 187      7F50FD17 
 187      D5D7A9FE 
 188 0422 9BEA1BA0 		.ascii	"\233\352\033\240S\227\256]\3525\311\257\310\375N\272"
 188      5397AE5D 
 188      EA35C9AF 
 188      C8FD4EBA 
 189 0432 5D123BB5 		.ascii	"]\022;\265\370 tj?\034\307\355\255D\352\324b\016\245"
 189      F820746A 
 189      3F1CC7ED 
 189      AD44EAD4 
 189      620EA5
 190 0445 DBBDA76B 		.ascii	"\333\275\247k\014\344n\267\217\257T:\3745Y\242\305]"
ARM GAS  /tmp/cca3TaT1.s 			page 14


 190      0CE46EB7 
 190      8FAF543A 
 190      FC3559A2 
 190      C55D
 191 0457 8BDDEE25 		.ascii	"\213\335\356%\262\250 \325\354\336\3257\273\367\264"
 191      B2A820D5 
 191      ECDED537 
 191      BBF7B4
 192 0466 0DE024B4 		.ascii	"\015\340$\264\225\234=\233\2706\320\201W%\340\024:\224"
 192      959C3D9B 
 192      B836D081 
 192      5725E014 
 192      3A94
 193 0478 4C62A5D5 		.ascii	"Lb\245\325\352\310\223\317Z\211\235\361\202\216t\233"
 193      EAC893CF 
 193      5A899DF1 
 193      828E749B 
 194 0488 E250D781 		.ascii	"\342P\327\201\324\227\200\003\2232&\005\005\306\266"
 194      D4978003 
 194      93322605 
 194      05C6B6
 195 0497 1C6E66C4 		.ascii	"\034nf\304,\2660\351\272\222\306\312(I\017\361\355Y"
 195      2CB630E9 
 195      BA92C6CA 
 195      28490FF1 
 195      ED59
 196 04a9 06FF1790 		.ascii	"\006\377\027\220\350\217\354*O\032P&\035Mm\323\353\221"
 196      E88FEC2A 
 196      4F1A5026 
 196      1D4D6DD3 
 196      EB91
 197 04bb 2C8DAD38 		.ascii	",\215\2558\274\234\311t\203\254`\2147\210K\303Y\261"
 197      BC9CC974 
 197      83AC608C 
 197      37884BC3 
 197      59B1
 198 04cd 8295BD9B 		.ascii	"\202\225\275\233\245;\253\351H@\217&\257\235\3039XU"
 198      A53BABE9 
 198      48408F26 
 198      AF9DC339 
 198      5855
 199 04df 3ABFE84A 		.ascii	":\277\350JG\352\362?\310\262r\014[\305\350j\340Mf\330"
 199      47EAF23F 
 199      C8B2720C 
 199      5BC5E86A 
 199      E04D66D8 
 200 04f3 49223E18 		.ascii	"I\">\030?\177F:\206m\211\347+\245\031\3172,\315\243"
 200      3F7F463A 
 200      866D89E7 
 200      2BA519CF 
 200      322CCDA3 
 201 0507 7CEA2076 		.ascii	"|\352 v\237\036\304V3\217P\232\253\365\264\336f\014"
 201      9F1EC456 
 201      338F509A 
 201      ABF5B4DE 
 201      660C
 202 0519 4BF39661 		.ascii	"K\363\226air\230\244SY\253L\232;R\302uV\034^\233q\302"
ARM GAS  /tmp/cca3TaT1.s 			page 15


 202      697298A4 
 202      5359AB4C 
 202      9A3B52C2 
 202      75561C5E 
 203 0530 DB4D129E 		.ascii	"\333M\022\236\243Y\210b\005\303\225\214\356\240\252"
 203      A3598862 
 203      05C3958C 
 203      EEA0AA
 204 053f 23C1A073 		.ascii	"#\301\240s\306\011\037j\307\353\324\011?B\023r\3058"
 204      C6091F6A 
 204      C7EBD409 
 204      3F421372 
 204      C538
 205 0551 E1FA93E4 		.ascii	"\341\372\223\344z\223|\310\023m0\016\364\220*\320\034"
 205      7A937CC8 
 205      136D300E 
 205      F4902AD0 
 205      1C
 206 0562 6E83E028 		.ascii	"n\203\340(\374\017\217\300\177P\303\037=U\\\314\272"
 206      FC0F8FC0 
 206      7F50C31F 
 206      3D555CCC 
 206      BA
 207 0573 03C1BAE0 		.ascii	"\003\301\272\340\302j\266!\312\006\270z6\032\361\261"
 207      C26AB621 
 207      CA06B87A 
 207      361AF1B1 
 208 0583 51A1D887 		.ascii	"Q\241\330\207\262\243\302\274pP\310\236\273`q\241\033"
 208      B2A3C2BC 
 208      7050C89E 
 208      BB6071A1 
 208      1B
 209 0594 4DD15A46 		.ascii	"M\321ZF\0046\030\366\3257\371y\326\027\210.\213\012"
 209      043618F6 
 209      D537F979 
 209      D617882E 
 209      8B0A
 210 05a6 CB1AF968 		.ascii	"\313\032\371hq\0009\305q0\304{\205(\033^Be:\033h\010"
 210      710039C5 
 210      7130C47B 
 210      85281B5E 
 210      42653A1B 
 211 05bc F16C848F 		.ascii	"\361l\204\217\362\\\304\027\200I\"\3767\270\010\317"
 211      F25CC417 
 211      804922FE 
 211      37B808CF 
 212 05cc 72915019 		.ascii	"r\221P\031\273\324\347+\202A\021\037\252\343\375~\336"
 212      BBD4E72B 
 212      8241111F 
 212      AAE3FD7E 
 212      DE
 213 05dd 9FBA116E 		.ascii	"\237\272\021n\010\363E<W\027,*\367\276XTVRZ\376Z\031"
 213      08F3453C 
 213      57172C2A 
 213      F7BE5854 
 213      56525AFE 
 214 05f3 AB799062 		.ascii	"\253y\220b\020\025\374\301\260\000\263;\232\340\357"
ARM GAS  /tmp/cca3TaT1.s 			page 16


 214      1015FCC1 
 214      B000B33B 
 214      9AE0EF
 215 0602 B432AFD0 		.ascii	"\2642\257\320\212\377\277\331C\234/\020\014\363\254"
 215      8AFFBFD9 
 215      439C2F10 
 215      0CF3AC
 216 0611 D7CF2FE1 		.ascii	"\327\317/\341\232\352\005\257\022\213\034\257W\341\343"
 216      9AEA05AF 
 216      128B1CAF 
 216      57E1E3
 217 0620 8A0AD502 		.ascii	"\212\012\325\002\027\021f\327\003\306(\256\216\306("
 217      171166D7 
 217      03C628AE 
 217      8EC628
 218 062f 57BCD9D0 		.ascii	"W\274\331\320H\357\345\300\230\027\224\341\\yX:<=\215"
 218      48EFE5C0 
 218      981794E1 
 218      5C79583A 
 218      3C3D8D
 219 0642 0D11086D 		.ascii	"\015\021\010muM\325\2642v\376\374\012\266f^\325\353"
 219      754DD5B4 
 219      3276FEFC 
 219      0AB6665E 
 219      D5EB
 220 0654 A510016F 		.ascii	"\245\020\001o}\275\037\346\314\225F\336 d\256\334\272"
 220      7DBD1FE6 
 220      CC9546DE 
 220      2064AEDC 
 220      BA
 221 0665 77482419 		.ascii	"wH$\031\014I\000\362\017\257`s{JA\312\354\325Un\217"
 221      0C4900F2 
 221      0FAF6073 
 221      7B4A41CA 
 221      ECD5556E 
 222 067a BD62DE1C 		.ascii	"\275b\336\034\017S\355\261\315\231\353\311r\273\253"
 222      0F53EDB1 
 222      CD99EBC9 
 222      72BBAB
 223 0689 3CA55497 		.ascii	"<\245T\227\331\335\3569\036\233{A\215mQ\265\3336\333"
 223      D9DDEE39 
 223      1E9B7B41 
 223      8D6D51B5 
 223      DB36DB
 224 069c E3B179DC 		.ascii	"\343\261y\334\360\033\034^\256\250\361\330*D\317\252"
 224      F01B1C5E 
 224      AEA8F1D8 
 224      2A44CFAA 
 225 06ac D91E66A1 		.ascii	"\331\036f\241\3445\015\354k=\343d\232Q1(^N\\\253]\014"
 225      E4350DEC 
 225      6B3DE364 
 225      9A513128 
 225      5E4E5CAB 
 226 06c2 89DD07F9 		.ascii	"\211\335\007\371qx\275K\232\302>\257w\2642(~\241dF\371"
 226      7178BD4B 
 226      9AC23EAF 
 226      77B43228 
ARM GAS  /tmp/cca3TaT1.s 			page 17


 226      7EA16446 
 227 06d7 D8944F43 		.ascii	"\330\224OC\243\344\222\257\334\341e\014\225CiI\251\362"
 227      A3E492AF 
 227      DCE1650C 
 227      95436949 
 227      A9F2
 228 06e9 78A9E1E3 		.ascii	"x\251\341\343\351\377\002n6\252\021"
 228      E9FF026E 
 228      36AA11
 229              		.text
 230              		.section	.gnu.lto_.symtab.88004cab34d31283,"",%progbits
 231 0000 7374496E 		.ascii	"stInit\000\000\000\000\000\000\000\000\000\000\000\000"
 231      69740000 
 231      00000000 
 231      00000000 
 231      0000
 232 0012 A1000000 		.ascii	"\241\000\000\000stStartAlarm\000\000\000\000\000\000"
 232      73745374 
 232      61727441 
 232      6C61726D 
 232      00000000 
 233 0028 00000000 		.ascii	"\000\000\000\000\000\000\246\000\000\000stStopAlarm"
 233      0000A600 
 233      00007374 
 233      53746F70 
 233      416C6172 
 234 003d 00000000 		.ascii	"\000\000\000\000\000\000\000\000\000\000\000\000\266"
 234      00000000 
 234      00000000 
 234      B6
 235 004a 00000073 		.ascii	"\000\000\000stSetAlarm\000\000\000\000\000\000\000\000"
 235      74536574 
 235      416C6172 
 235      6D000000 
 235      00000000 
 236 005f 00000000 		.ascii	"\000\000\000\000\271\000\000\000stGetAlarm\000\000\000"
 236      B9000000 
 236      73744765 
 236      74416C61 
 236      726D0000 
 237 0074 00000000 		.ascii	"\000\000\000\000\000\000\000\000\000\275\000\000\000"
 237      00000000 
 237      00BD0000 
 237      00
 238 0081 73745F6C 		.ascii	"st_lld_init\000\000\002\000\000\000\000\000\000\000"
 238      6C645F69 
 238      6E697400 
 238      00020000 
 238      00000000 
 239 0096 0000C100 		.ascii	"\000\000\301\000\000\000"
 239      0000
 240              		.text
 241              		.section	.gnu.lto_.opts,"",%progbits
 242 0000 272D6D63 		.ascii	"'-mcpu=cortex-m4' '-mno-thumb-interwork' '-mthumb' "
 242      70753D63 
 242      6F727465 
 242      782D6D34 
ARM GAS  /tmp/cca3TaT1.s 			page 18


 242      2720272D 
 243 0033 272D6767 		.ascii	"'-ggdb' '-O2' '-fomit-frame-pointer' '-falign-funct"
 243      64622720 
 243      272D4F32 
 243      2720272D 
 243      666F6D69 
 244 0066 696F6E73 		.ascii	"ions=16' '-ffunction-sections' '-fdata-sections' '-"
 244      3D313627 
 244      20272D66 
 244      66756E63 
 244      74696F6E 
 245 0099 666E6F2D 		.ascii	"fno-common' '-flto'\000"
 245      636F6D6D 
 245      6F6E2720 
 245      272D666C 
 245      746F2700 
 246              		.text
 247              		.cfi_sections	.debug_frame
 248              		.section	.text.stInit,"ax",%progbits
 249              		.align	2
 250              		.p2align 4,,15
 251              		.global	stInit
 252              		.thumb
 253              		.thumb_func
 254              		.type	stInit, %function
 255              	stInit:
 256              	.LFB272:
 257              		.file 1 "../ChibiOS/os/hal/src/st.c"
 258              		.loc 1 60 0
 259              		.cfi_startproc
 260              		@ args = 0, pretend = 0, frame = 0
 261              		@ frame_needed = 0, uses_anonymous_args = 0
 262              		@ link register save eliminated.
 263              		.loc 1 62 0
 264 0000 FFF7FEBF 		b	st_lld_init
 265              	.LVL0:
 266              		.cfi_endproc
 267              	.LFE272:
 268              		.size	stInit, .-stInit
 269 0004 AFF30080 		.section	.text.stStartAlarm,"ax",%progbits
 269      AFF30080 
 269      AFF30080 
 270              		.align	2
 271              		.p2align 4,,15
 272              		.global	stStartAlarm
 273              		.thumb
 274              		.thumb_func
 275              		.type	stStartAlarm, %function
 276              	stStartAlarm:
 277              	.LFB273:
 278              		.loc 1 77 0
 279              		.cfi_startproc
 280              		@ args = 0, pretend = 0, frame = 0
 281              		@ frame_needed = 0, uses_anonymous_args = 0
 282              		@ link register save eliminated.
 283              	.LVL1:
 284              	.LBB10:
ARM GAS  /tmp/cca3TaT1.s 			page 19


 285              	.LBB11:
 286              		.file 2 "../ChibiOS/os/hal/ports/STM32/LLD/TIMv1/st_lld.h"
 287              		.loc 2 155 0
 288 0000 4FF08043 		mov	r3, #1073741824
 289              	.LVL2:
 290              		.loc 2 156 0
 291 0004 0021     		movs	r1, #0
 292              		.loc 2 157 0
 293 0006 0222     		movs	r2, #2
 294              		.loc 2 155 0
 295 0008 5863     		str	r0, [r3, #52]
 296              		.loc 2 156 0
 297 000a 1961     		str	r1, [r3, #16]
 298              		.loc 2 157 0
 299 000c DA60     		str	r2, [r3, #12]
 300 000e 7047     		bx	lr
 301              	.LBE11:
 302              	.LBE10:
 303              		.cfi_endproc
 304              	.LFE273:
 305              		.size	stStartAlarm, .-stStartAlarm
 306              		.section	.text.stStopAlarm,"ax",%progbits
 307              		.align	2
 308              		.p2align 4,,15
 309              		.global	stStopAlarm
 310              		.thumb
 311              		.thumb_func
 312              		.type	stStopAlarm, %function
 313              	stStopAlarm:
 314              	.LFB274:
 315              		.loc 1 91 0
 316              		.cfi_startproc
 317              		@ args = 0, pretend = 0, frame = 0
 318              		@ frame_needed = 0, uses_anonymous_args = 0
 319              		@ link register save eliminated.
 320              	.LBB12:
 321              	.LBB13:
 322              		.loc 2 167 0
 323 0000 4FF08043 		mov	r3, #1073741824
 324 0004 0022     		movs	r2, #0
 325 0006 DA60     		str	r2, [r3, #12]
 326 0008 7047     		bx	lr
 327              	.LBE13:
 328              	.LBE12:
 329              		.cfi_endproc
 330              	.LFE274:
 331              		.size	stStopAlarm, .-stStopAlarm
 332 000a 00BFAFF3 		.section	.text.stSetAlarm,"ax",%progbits
 332      0080
 333              		.align	2
 334              		.p2align 4,,15
 335              		.global	stSetAlarm
 336              		.thumb
 337              		.thumb_func
 338              		.type	stSetAlarm, %function
 339              	stSetAlarm:
 340              	.LFB275:
ARM GAS  /tmp/cca3TaT1.s 			page 20


 341              		.loc 1 105 0
 342              		.cfi_startproc
 343              		@ args = 0, pretend = 0, frame = 0
 344              		@ frame_needed = 0, uses_anonymous_args = 0
 345              		@ link register save eliminated.
 346              	.LVL3:
 347              	.LBB14:
 348              	.LBB15:
 349              		.loc 2 179 0
 350 0000 4FF08043 		mov	r3, #1073741824
 351              	.LVL4:
 352 0004 5863     		str	r0, [r3, #52]
 353 0006 7047     		bx	lr
 354              	.LBE15:
 355              	.LBE14:
 356              		.cfi_endproc
 357              	.LFE275:
 358              		.size	stSetAlarm, .-stSetAlarm
 359 0008 AFF30080 		.section	.text.stGetAlarm,"ax",%progbits
 359      AFF30080 
 360              		.align	2
 361              		.p2align 4,,15
 362              		.global	stGetAlarm
 363              		.thumb
 364              		.thumb_func
 365              		.type	stGetAlarm, %function
 366              	stGetAlarm:
 367              	.LFB276:
 368              		.loc 1 121 0
 369              		.cfi_startproc
 370              		@ args = 0, pretend = 0, frame = 0
 371              		@ frame_needed = 0, uses_anonymous_args = 0
 372              		@ link register save eliminated.
 373              	.LBB16:
 374              	.LBB17:
 375              		.loc 2 191 0
 376 0000 4FF08043 		mov	r3, #1073741824
 377 0004 586B     		ldr	r0, [r3, #52]
 378              	.LBE17:
 379              	.LBE16:
 380              		.loc 1 126 0
 381 0006 7047     		bx	lr
 382              		.cfi_endproc
 383              	.LFE276:
 384              		.size	stGetAlarm, .-stGetAlarm
 385 0008 AFF30080 		.text
 385      AFF30080 
 386              	.Letext0:
 387              		.file 3 "/nfs/nfs5/home/research/hardware/arm2/gcc-arm-embedded/gcc-arm-none-eabi-4_8-2014q2/arm-n
 388              		.file 4 "/nfs/nfs5/home/research/hardware/arm2/gcc-arm-embedded/gcc-arm-none-eabi-4_8-2014q2/arm-n
 389              		.file 5 "../ChibiOS/os/rt/ports/ARMCMx/compilers/GCC/chtypes.h"
 390              		.file 6 "../ChibiOS/os/rt/include/chsystypes.h"
 391              		.file 7 "../ChibiOS/os/rt/include/chschd.h"
 392              		.file 8 "../ChibiOS/os/rt/ports/ARMCMx/chcore.h"
 393              		.file 9 "../ChibiOS/os/rt/ports/ARMCMx/chcore_v7m.h"
 394              		.file 10 "../ChibiOS/os/hal/ports/STM32/LLD/TIMv1/stm32_tim.h"
 395              		.file 11 "../ChibiOS/os/rt/include/chtm.h"
ARM GAS  /tmp/cca3TaT1.s 			page 21


 396              		.file 12 "../ChibiOS/os/rt/include/chsem.h"
 397              		.file 13 "../ChibiOS/os/rt/include/chmtx.h"
 398              		.file 14 "../ChibiOS/os/ext/CMSIS/include/core_cm4.h"
 399              		.section	.debug_info,"",%progbits
 400              	.Ldebug_info0:
 401 0000 F2080000 		.4byte	0x8f2
 402 0004 0400     		.2byte	0x4
 403 0006 00000000 		.4byte	.Ldebug_abbrev0
 404 000a 04       		.byte	0x4
 405 000b 01       		.uleb128 0x1
 406 000c 0C050000 		.4byte	.LASF124
 407 0010 01       		.byte	0x1
 408 0011 5B000000 		.4byte	.LASF125
 409 0015 35010000 		.4byte	.LASF126
 410 0019 00000000 		.4byte	.Ldebug_ranges0+0
 411 001d 00000000 		.4byte	0
 412 0021 00000000 		.4byte	.Ldebug_line0
 413 0025 02       		.uleb128 0x2
 414 0026 04       		.byte	0x4
 415 0027 05       		.byte	0x5
 416 0028 696E7400 		.ascii	"int\000"
 417 002c 03       		.uleb128 0x3
 418 002d 04       		.byte	0x4
 419 002e 07       		.byte	0x7
 420 002f E6010000 		.4byte	.LASF0
 421 0033 03       		.uleb128 0x3
 422 0034 01       		.byte	0x1
 423 0035 06       		.byte	0x6
 424 0036 07010000 		.4byte	.LASF1
 425 003a 04       		.uleb128 0x4
 426 003b 28000000 		.4byte	.LASF5
 427 003f 03       		.byte	0x3
 428 0040 1C       		.byte	0x1c
 429 0041 45000000 		.4byte	0x45
 430 0045 03       		.uleb128 0x3
 431 0046 01       		.byte	0x1
 432 0047 08       		.byte	0x8
 433 0048 60030000 		.4byte	.LASF2
 434 004c 03       		.uleb128 0x3
 435 004d 02       		.byte	0x2
 436 004e 05       		.byte	0x5
 437 004f 78030000 		.4byte	.LASF3
 438 0053 03       		.uleb128 0x3
 439 0054 02       		.byte	0x2
 440 0055 07       		.byte	0x7
 441 0056 95010000 		.4byte	.LASF4
 442 005a 04       		.uleb128 0x4
 443 005b 5A020000 		.4byte	.LASF6
 444 005f 03       		.byte	0x3
 445 0060 37       		.byte	0x37
 446 0061 65000000 		.4byte	0x65
 447 0065 03       		.uleb128 0x3
 448 0066 04       		.byte	0x4
 449 0067 05       		.byte	0x5
 450 0068 2C010000 		.4byte	.LASF7
 451 006c 04       		.uleb128 0x4
 452 006d 89040000 		.4byte	.LASF8
ARM GAS  /tmp/cca3TaT1.s 			page 22


 453 0071 03       		.byte	0x3
 454 0072 38       		.byte	0x38
 455 0073 77000000 		.4byte	0x77
 456 0077 03       		.uleb128 0x3
 457 0078 04       		.byte	0x4
 458 0079 07       		.byte	0x7
 459 007a 33040000 		.4byte	.LASF9
 460 007e 03       		.uleb128 0x3
 461 007f 08       		.byte	0x8
 462 0080 05       		.byte	0x5
 463 0081 77010000 		.4byte	.LASF10
 464 0085 04       		.uleb128 0x4
 465 0086 10030000 		.4byte	.LASF11
 466 008a 03       		.byte	0x3
 467 008b 4E       		.byte	0x4e
 468 008c 90000000 		.4byte	0x90
 469 0090 03       		.uleb128 0x3
 470 0091 08       		.byte	0x8
 471 0092 07       		.byte	0x7
 472 0093 76000000 		.4byte	.LASF12
 473 0097 04       		.uleb128 0x4
 474 0098 AD030000 		.4byte	.LASF13
 475 009c 04       		.byte	0x4
 476 009d 2A       		.byte	0x2a
 477 009e 3A000000 		.4byte	0x3a
 478 00a2 04       		.uleb128 0x4
 479 00a3 58030000 		.4byte	.LASF14
 480 00a7 04       		.byte	0x4
 481 00a8 41       		.byte	0x41
 482 00a9 5A000000 		.4byte	0x5a
 483 00ad 04       		.uleb128 0x4
 484 00ae 02040000 		.4byte	.LASF15
 485 00b2 04       		.byte	0x4
 486 00b3 42       		.byte	0x42
 487 00b4 6C000000 		.4byte	0x6c
 488 00b8 04       		.uleb128 0x4
 489 00b9 1F000000 		.4byte	.LASF16
 490 00bd 04       		.byte	0x4
 491 00be 4E       		.byte	0x4e
 492 00bf 85000000 		.4byte	0x85
 493 00c3 04       		.uleb128 0x4
 494 00c4 BA040000 		.4byte	.LASF17
 495 00c8 05       		.byte	0x5
 496 00c9 39       		.byte	0x39
 497 00ca AD000000 		.4byte	0xad
 498 00ce 04       		.uleb128 0x4
 499 00cf 64020000 		.4byte	.LASF18
 500 00d3 05       		.byte	0x5
 501 00d4 3C       		.byte	0x3c
 502 00d5 97000000 		.4byte	0x97
 503 00d9 04       		.uleb128 0x4
 504 00da 69010000 		.4byte	.LASF19
 505 00de 05       		.byte	0x5
 506 00df 3D       		.byte	0x3d
 507 00e0 97000000 		.4byte	0x97
 508 00e4 04       		.uleb128 0x4
 509 00e5 1B030000 		.4byte	.LASF20
ARM GAS  /tmp/cca3TaT1.s 			page 23


 510 00e9 05       		.byte	0x5
 511 00ea 3E       		.byte	0x3e
 512 00eb 97000000 		.4byte	0x97
 513 00ef 04       		.uleb128 0x4
 514 00f0 3A030000 		.4byte	.LASF21
 515 00f4 05       		.byte	0x5
 516 00f5 40       		.byte	0x40
 517 00f6 AD000000 		.4byte	0xad
 518 00fa 04       		.uleb128 0x4
 519 00fb 22020000 		.4byte	.LASF22
 520 00ff 05       		.byte	0x5
 521 0100 41       		.byte	0x41
 522 0101 A2000000 		.4byte	0xa2
 523 0105 04       		.uleb128 0x4
 524 0106 4E020000 		.4byte	.LASF23
 525 010a 05       		.byte	0x5
 526 010b 43       		.byte	0x43
 527 010c AD000000 		.4byte	0xad
 528 0110 04       		.uleb128 0x4
 529 0111 E0010000 		.4byte	.LASF24
 530 0115 05       		.byte	0x5
 531 0116 45       		.byte	0x45
 532 0117 A2000000 		.4byte	0xa2
 533 011b 04       		.uleb128 0x4
 534 011c 6B040000 		.4byte	.LASF25
 535 0120 06       		.byte	0x6
 536 0121 33       		.byte	0x33
 537 0122 AD000000 		.4byte	0xad
 538 0126 04       		.uleb128 0x4
 539 0127 5B040000 		.4byte	.LASF26
 540 012b 06       		.byte	0x6
 541 012c 3F       		.byte	0x3f
 542 012d 31010000 		.4byte	0x131
 543 0131 05       		.uleb128 0x5
 544 0132 18020000 		.4byte	.LASF45
 545 0136 40       		.byte	0x40
 546 0137 07       		.byte	0x7
 547 0138 C2       		.byte	0xc2
 548 0139 11020000 		.4byte	0x211
 549 013d 06       		.uleb128 0x6
 550 013e 98030000 		.4byte	.LASF27
 551 0142 07       		.byte	0x7
 552 0143 C3       		.byte	0xc3
 553 0144 1C020000 		.4byte	0x21c
 554 0148 00       		.byte	0
 555 0149 06       		.uleb128 0x6
 556 014a 33030000 		.4byte	.LASF28
 557 014e 07       		.byte	0x7
 558 014f C5       		.byte	0xc5
 559 0150 1C020000 		.4byte	0x21c
 560 0154 04       		.byte	0x4
 561 0155 06       		.uleb128 0x6
 562 0156 EE000000 		.4byte	.LASF29
 563 015a 07       		.byte	0x7
 564 015b C7       		.byte	0xc7
 565 015c EF000000 		.4byte	0xef
 566 0160 08       		.byte	0x8
ARM GAS  /tmp/cca3TaT1.s 			page 24


 567 0161 06       		.uleb128 0x6
 568 0162 3D060000 		.4byte	.LASF30
 569 0166 07       		.byte	0x7
 570 0167 C8       		.byte	0xc8
 571 0168 71040000 		.4byte	0x471
 572 016c 0C       		.byte	0xc
 573 016d 06       		.uleb128 0x6
 574 016e 85010000 		.4byte	.LASF31
 575 0172 07       		.byte	0x7
 576 0173 CA       		.byte	0xca
 577 0174 1C020000 		.4byte	0x21c
 578 0178 10       		.byte	0x10
 579 0179 06       		.uleb128 0x6
 580 017a D3020000 		.4byte	.LASF32
 581 017e 07       		.byte	0x7
 582 017f CB       		.byte	0xcb
 583 0180 1C020000 		.4byte	0x21c
 584 0184 14       		.byte	0x14
 585 0185 06       		.uleb128 0x6
 586 0186 FE050000 		.4byte	.LASF33
 587 018a 07       		.byte	0x7
 588 018b D2       		.byte	0xd2
 589 018c 1E070000 		.4byte	0x71e
 590 0190 18       		.byte	0x18
 591 0191 06       		.uleb128 0x6
 592 0192 82030000 		.4byte	.LASF34
 593 0196 07       		.byte	0x7
 594 0197 DD       		.byte	0xdd
 595 0198 D9000000 		.4byte	0xd9
 596 019c 1C       		.byte	0x1c
 597 019d 06       		.uleb128 0x6
 598 019e 1C060000 		.4byte	.LASF35
 599 01a2 07       		.byte	0x7
 600 01a3 E1       		.byte	0xe1
 601 01a4 CE000000 		.4byte	0xce
 602 01a8 1D       		.byte	0x1d
 603 01a9 06       		.uleb128 0x6
 604 01aa F4040000 		.4byte	.LASF36
 605 01ae 07       		.byte	0x7
 606 01af E6       		.byte	0xe6
 607 01b0 E4000000 		.4byte	0xe4
 608 01b4 1E       		.byte	0x1e
 609 01b5 07       		.uleb128 0x7
 610 01b6 705F7500 		.ascii	"p_u\000"
 611 01ba 07       		.byte	0x7
 612 01bb 3701     		.2byte	0x137
 613 01bd 4D060000 		.4byte	0x64d
 614 01c1 20       		.byte	0x20
 615 01c2 08       		.uleb128 0x8
 616 01c3 8A020000 		.4byte	.LASF37
 617 01c7 07       		.byte	0x7
 618 01c8 3C01     		.2byte	0x13c
 619 01ca 22020000 		.4byte	0x222
 620 01ce 24       		.byte	0x24
 621 01cf 08       		.uleb128 0x8
 622 01d0 02020000 		.4byte	.LASF38
 623 01d4 07       		.byte	0x7
ARM GAS  /tmp/cca3TaT1.s 			page 25


 624 01d5 4201     		.2byte	0x142
 625 01d7 46020000 		.4byte	0x246
 626 01db 28       		.byte	0x28
 627 01dc 08       		.uleb128 0x8
 628 01dd F7030000 		.4byte	.LASF39
 629 01e1 07       		.byte	0x7
 630 01e2 4801     		.2byte	0x148
 631 01e4 05010000 		.4byte	0x105
 632 01e8 30       		.byte	0x30
 633 01e9 08       		.uleb128 0x8
 634 01ea 6E030000 		.4byte	.LASF40
 635 01ee 07       		.byte	0x7
 636 01ef 4F01     		.2byte	0x14f
 637 01f1 18070000 		.4byte	0x718
 638 01f5 34       		.byte	0x34
 639 01f6 08       		.uleb128 0x8
 640 01f7 75040000 		.4byte	.LASF41
 641 01fb 07       		.byte	0x7
 642 01fc 5301     		.2byte	0x153
 643 01fe EF000000 		.4byte	0xef
 644 0202 38       		.byte	0x38
 645 0203 08       		.uleb128 0x8
 646 0204 B0010000 		.4byte	.LASF42
 647 0208 07       		.byte	0x7
 648 0209 5A01     		.2byte	0x15a
 649 020b F9020000 		.4byte	0x2f9
 650 020f 3C       		.byte	0x3c
 651 0210 00       		.byte	0
 652 0211 04       		.uleb128 0x4
 653 0212 9D020000 		.4byte	.LASF43
 654 0216 06       		.byte	0x6
 655 0217 44       		.byte	0x44
 656 0218 1C020000 		.4byte	0x21c
 657 021c 09       		.uleb128 0x9
 658 021d 04       		.byte	0x4
 659 021e 26010000 		.4byte	0x126
 660 0222 04       		.uleb128 0x4
 661 0223 05060000 		.4byte	.LASF44
 662 0227 06       		.byte	0x6
 663 0228 49       		.byte	0x49
 664 0229 2D020000 		.4byte	0x22d
 665 022d 05       		.uleb128 0x5
 666 022e 23040000 		.4byte	.LASF46
 667 0232 04       		.byte	0x4
 668 0233 07       		.byte	0x7
 669 0234 B0       		.byte	0xb0
 670 0235 46020000 		.4byte	0x246
 671 0239 06       		.uleb128 0x6
 672 023a 98030000 		.4byte	.LASF27
 673 023e 07       		.byte	0x7
 674 023f B1       		.byte	0xb1
 675 0240 1C020000 		.4byte	0x21c
 676 0244 00       		.byte	0
 677 0245 00       		.byte	0
 678 0246 04       		.uleb128 0x4
 679 0247 DB040000 		.4byte	.LASF47
 680 024b 06       		.byte	0x6
ARM GAS  /tmp/cca3TaT1.s 			page 26


 681 024c 50       		.byte	0x50
 682 024d 51020000 		.4byte	0x251
 683 0251 05       		.uleb128 0x5
 684 0252 DD000000 		.4byte	.LASF48
 685 0256 08       		.byte	0x8
 686 0257 07       		.byte	0x7
 687 0258 B7       		.byte	0xb7
 688 0259 76020000 		.4byte	0x276
 689 025d 06       		.uleb128 0x6
 690 025e 98030000 		.4byte	.LASF27
 691 0262 07       		.byte	0x7
 692 0263 B8       		.byte	0xb8
 693 0264 1C020000 		.4byte	0x21c
 694 0268 00       		.byte	0
 695 0269 06       		.uleb128 0x6
 696 026a 33030000 		.4byte	.LASF28
 697 026e 07       		.byte	0x7
 698 026f B9       		.byte	0xb9
 699 0270 1C020000 		.4byte	0x21c
 700 0274 04       		.byte	0x4
 701 0275 00       		.byte	0
 702 0276 04       		.uleb128 0x4
 703 0277 00000000 		.4byte	.LASF49
 704 027b 06       		.byte	0x6
 705 027c 57       		.byte	0x57
 706 027d 81020000 		.4byte	0x281
 707 0281 0A       		.uleb128 0xa
 708 0282 40020000 		.4byte	.LASF50
 709 0286 1C       		.byte	0x1c
 710 0287 07       		.byte	0x7
 711 0288 9201     		.2byte	0x192
 712 028a DD020000 		.4byte	0x2dd
 713 028e 08       		.uleb128 0x8
 714 028f 12040000 		.4byte	.LASF51
 715 0293 07       		.byte	0x7
 716 0294 9301     		.2byte	0x193
 717 0296 46020000 		.4byte	0x246
 718 029a 00       		.byte	0
 719 029b 08       		.uleb128 0x8
 720 029c 8A030000 		.4byte	.LASF52
 721 02a0 07       		.byte	0x7
 722 02a1 9401     		.2byte	0x194
 723 02a3 EF000000 		.4byte	0xef
 724 02a7 08       		.byte	0x8
 725 02a8 08       		.uleb128 0x8
 726 02a9 E2020000 		.4byte	.LASF53
 727 02ad 07       		.byte	0x7
 728 02ae 9601     		.2byte	0x196
 729 02b0 71040000 		.4byte	0x471
 730 02b4 0C       		.byte	0xc
 731 02b5 08       		.uleb128 0x8
 732 02b6 A8010000 		.4byte	.LASF54
 733 02ba 07       		.byte	0x7
 734 02bb 9901     		.2byte	0x199
 735 02bd 1C020000 		.4byte	0x21c
 736 02c1 10       		.byte	0x10
 737 02c2 08       		.uleb128 0x8
ARM GAS  /tmp/cca3TaT1.s 			page 27


 738 02c3 08030000 		.4byte	.LASF55
 739 02c7 07       		.byte	0x7
 740 02c8 9A01     		.2byte	0x19a
 741 02ca 1C020000 		.4byte	0x21c
 742 02ce 14       		.byte	0x14
 743 02cf 08       		.uleb128 0x8
 744 02d0 FE020000 		.4byte	.LASF56
 745 02d4 07       		.byte	0x7
 746 02d5 9D01     		.2byte	0x19d
 747 02d7 1C020000 		.4byte	0x21c
 748 02db 18       		.byte	0x18
 749 02dc 00       		.byte	0
 750 02dd 04       		.uleb128 0x4
 751 02de 80040000 		.4byte	.LASF57
 752 02e2 06       		.byte	0x6
 753 02e3 5C       		.byte	0x5c
 754 02e4 E8020000 		.4byte	0x2e8
 755 02e8 09       		.uleb128 0x9
 756 02e9 04       		.byte	0x4
 757 02ea EE020000 		.4byte	0x2ee
 758 02ee 0B       		.uleb128 0xb
 759 02ef F9020000 		.4byte	0x2f9
 760 02f3 0C       		.uleb128 0xc
 761 02f4 F9020000 		.4byte	0x2f9
 762 02f8 00       		.byte	0
 763 02f9 0D       		.uleb128 0xd
 764 02fa 04       		.byte	0x4
 765 02fb 04       		.uleb128 0x4
 766 02fc 23030000 		.4byte	.LASF58
 767 0300 06       		.byte	0x6
 768 0301 61       		.byte	0x61
 769 0302 06030000 		.4byte	0x306
 770 0306 0A       		.uleb128 0xa
 771 0307 C3030000 		.4byte	.LASF59
 772 030b 14       		.byte	0x14
 773 030c 07       		.byte	0x7
 774 030d 6D01     		.2byte	0x16d
 775 030f 55030000 		.4byte	0x355
 776 0313 08       		.uleb128 0x8
 777 0314 F3010000 		.4byte	.LASF60
 778 0318 07       		.byte	0x7
 779 0319 6E01     		.2byte	0x16e
 780 031b 30070000 		.4byte	0x730
 781 031f 00       		.byte	0
 782 0320 08       		.uleb128 0x8
 783 0321 C1010000 		.4byte	.LASF61
 784 0325 07       		.byte	0x7
 785 0326 6F01     		.2byte	0x16f
 786 0328 30070000 		.4byte	0x730
 787 032c 04       		.byte	0x4
 788 032d 08       		.uleb128 0x8
 789 032e 1A040000 		.4byte	.LASF62
 790 0332 07       		.byte	0x7
 791 0333 7001     		.2byte	0x170
 792 0335 1B010000 		.4byte	0x11b
 793 0339 08       		.byte	0x8
 794 033a 08       		.uleb128 0x8
ARM GAS  /tmp/cca3TaT1.s 			page 28


 795 033b 43060000 		.4byte	.LASF63
 796 033f 07       		.byte	0x7
 797 0340 7101     		.2byte	0x171
 798 0342 DD020000 		.4byte	0x2dd
 799 0346 0C       		.byte	0xc
 800 0347 08       		.uleb128 0x8
 801 0348 D4040000 		.4byte	.LASF64
 802 034c 07       		.byte	0x7
 803 034d 7301     		.2byte	0x173
 804 034f F9020000 		.4byte	0x2f9
 805 0353 10       		.byte	0x10
 806 0354 00       		.byte	0
 807 0355 04       		.uleb128 0x4
 808 0356 A9000000 		.4byte	.LASF65
 809 035a 06       		.byte	0x6
 810 035b 66       		.byte	0x66
 811 035c 60030000 		.4byte	0x360
 812 0360 0A       		.uleb128 0xa
 813 0361 B0020000 		.4byte	.LASF66
 814 0365 10       		.byte	0x10
 815 0366 07       		.byte	0x7
 816 0367 7D01     		.2byte	0x17d
 817 0369 A2030000 		.4byte	0x3a2
 818 036d 08       		.uleb128 0x8
 819 036e F3010000 		.4byte	.LASF60
 820 0372 07       		.byte	0x7
 821 0373 7E01     		.2byte	0x17e
 822 0375 30070000 		.4byte	0x730
 823 0379 00       		.byte	0
 824 037a 08       		.uleb128 0x8
 825 037b C1010000 		.4byte	.LASF61
 826 037f 07       		.byte	0x7
 827 0380 8001     		.2byte	0x180
 828 0382 30070000 		.4byte	0x730
 829 0386 04       		.byte	0x4
 830 0387 08       		.uleb128 0x8
 831 0388 1A040000 		.4byte	.LASF62
 832 038c 07       		.byte	0x7
 833 038d 8201     		.2byte	0x182
 834 038f 1B010000 		.4byte	0x11b
 835 0393 08       		.byte	0x8
 836 0394 08       		.uleb128 0x8
 837 0395 C7020000 		.4byte	.LASF67
 838 0399 07       		.byte	0x7
 839 039a 8A01     		.2byte	0x18a
 840 039c 1B010000 		.4byte	0x11b
 841 03a0 0C       		.byte	0xc
 842 03a1 00       		.byte	0
 843 03a2 04       		.uleb128 0x4
 844 03a3 4C000000 		.4byte	.LASF68
 845 03a7 06       		.byte	0x6
 846 03a8 6B       		.byte	0x6b
 847 03a9 AD030000 		.4byte	0x3ad
 848 03ad 0A       		.uleb128 0xa
 849 03ae 42030000 		.4byte	.LASF69
 850 03b2 04       		.byte	0x4
 851 03b3 07       		.byte	0x7
ARM GAS  /tmp/cca3TaT1.s 			page 29


 852 03b4 A401     		.2byte	0x1a4
 853 03b6 C8030000 		.4byte	0x3c8
 854 03ba 08       		.uleb128 0x8
 855 03bb 94040000 		.4byte	.LASF70
 856 03bf 07       		.byte	0x7
 857 03c0 AC01     		.2byte	0x1ac
 858 03c2 36070000 		.4byte	0x736
 859 03c6 00       		.byte	0
 860 03c7 00       		.byte	0
 861 03c8 04       		.uleb128 0x4
 862 03c9 28020000 		.4byte	.LASF71
 863 03cd 06       		.byte	0x6
 864 03ce 70       		.byte	0x70
 865 03cf D3030000 		.4byte	0x3d3
 866 03d3 0E       		.uleb128 0xe
 867 03d4 22010000 		.4byte	.LASF72
 868 03d8 5001     		.2byte	0x150
 869 03da 07       		.byte	0x7
 870 03db C401     		.2byte	0x1c4
 871 03dd 2F040000 		.4byte	0x42f
 872 03e1 08       		.uleb128 0x8
 873 03e2 FB040000 		.4byte	.LASF73
 874 03e6 07       		.byte	0x7
 875 03e7 C801     		.2byte	0x1c8
 876 03e9 76020000 		.4byte	0x276
 877 03ed 00       		.byte	0
 878 03ee 08       		.uleb128 0x8
 879 03ef 1B010000 		.4byte	.LASF74
 880 03f3 07       		.byte	0x7
 881 03f4 CC01     		.2byte	0x1cc
 882 03f6 55030000 		.4byte	0x355
 883 03fa 1C       		.byte	0x1c
 884 03fb 07       		.uleb128 0x7
 885 03fc 64626700 		.ascii	"dbg\000"
 886 0400 07       		.byte	0x7
 887 0401 D001     		.2byte	0x1d0
 888 0403 A2030000 		.4byte	0x3a2
 889 0407 2C       		.byte	0x2c
 890 0408 08       		.uleb128 0x8
 891 0409 96000000 		.4byte	.LASF75
 892 040d 07       		.byte	0x7
 893 040e D401     		.2byte	0x1d4
 894 0410 26010000 		.4byte	0x126
 895 0414 30       		.byte	0x30
 896 0415 07       		.uleb128 0x7
 897 0416 746D00   		.ascii	"tm\000"
 898 0419 07       		.byte	0x7
 899 041a D901     		.2byte	0x1d9
 900 041c 42060000 		.4byte	0x642
 901 0420 70       		.byte	0x70
 902 0421 08       		.uleb128 0x8
 903 0422 D1010000 		.4byte	.LASF76
 904 0426 07       		.byte	0x7
 905 0427 E501     		.2byte	0x1e5
 906 0429 3B070000 		.4byte	0x73b
 907 042d 78       		.byte	0x78
 908 042e 00       		.byte	0
ARM GAS  /tmp/cca3TaT1.s 			page 30


 909 042f 03       		.uleb128 0x3
 910 0430 04       		.byte	0x4
 911 0431 07       		.byte	0x7
 912 0432 94020000 		.4byte	.LASF77
 913 0436 0F       		.uleb128 0xf
 914 0437 AD000000 		.4byte	0xad
 915 043b 10       		.uleb128 0x10
 916 043c AD000000 		.4byte	0xad
 917 0440 4B040000 		.4byte	0x44b
 918 0444 11       		.uleb128 0x11
 919 0445 2F040000 		.4byte	0x42f
 920 0449 01       		.byte	0x1
 921 044a 00       		.byte	0
 922 044b 10       		.uleb128 0x10
 923 044c AD000000 		.4byte	0xad
 924 0450 5B040000 		.4byte	0x45b
 925 0454 11       		.uleb128 0x11
 926 0455 2F040000 		.4byte	0x42f
 927 0459 03       		.byte	0x3
 928 045a 00       		.byte	0
 929 045b 04       		.uleb128 0x4
 930 045c B8010000 		.4byte	.LASF78
 931 0460 08       		.byte	0x8
 932 0461 65       		.byte	0x65
 933 0462 F9020000 		.4byte	0x2f9
 934 0466 04       		.uleb128 0x4
 935 0467 7F020000 		.4byte	.LASF79
 936 046b 08       		.byte	0x8
 937 046c 6D       		.byte	0x6d
 938 046d B8000000 		.4byte	0xb8
 939 0471 05       		.uleb128 0x5
 940 0472 B2040000 		.4byte	.LASF80
 941 0476 04       		.byte	0x4
 942 0477 08       		.byte	0x8
 943 0478 89       		.byte	0x89
 944 0479 8A040000 		.4byte	0x48a
 945 047d 12       		.uleb128 0x12
 946 047e 72313300 		.ascii	"r13\000"
 947 0482 08       		.byte	0x8
 948 0483 8A       		.byte	0x8a
 949 0484 05050000 		.4byte	0x505
 950 0488 00       		.byte	0
 951 0489 00       		.byte	0
 952 048a 05       		.uleb128 0x5
 953 048b 32000000 		.4byte	.LASF81
 954 048f 24       		.byte	0x24
 955 0490 09       		.byte	0x9
 956 0491 FD       		.byte	0xfd
 957 0492 05050000 		.4byte	0x505
 958 0496 07       		.uleb128 0x7
 959 0497 723400   		.ascii	"r4\000"
 960 049a 09       		.byte	0x9
 961 049b 1001     		.2byte	0x110
 962 049d 5B040000 		.4byte	0x45b
 963 04a1 00       		.byte	0
 964 04a2 07       		.uleb128 0x7
 965 04a3 723500   		.ascii	"r5\000"
ARM GAS  /tmp/cca3TaT1.s 			page 31


 966 04a6 09       		.byte	0x9
 967 04a7 1101     		.2byte	0x111
 968 04a9 5B040000 		.4byte	0x45b
 969 04ad 04       		.byte	0x4
 970 04ae 07       		.uleb128 0x7
 971 04af 723600   		.ascii	"r6\000"
 972 04b2 09       		.byte	0x9
 973 04b3 1201     		.2byte	0x112
 974 04b5 5B040000 		.4byte	0x45b
 975 04b9 08       		.byte	0x8
 976 04ba 07       		.uleb128 0x7
 977 04bb 723700   		.ascii	"r7\000"
 978 04be 09       		.byte	0x9
 979 04bf 1301     		.2byte	0x113
 980 04c1 5B040000 		.4byte	0x45b
 981 04c5 0C       		.byte	0xc
 982 04c6 07       		.uleb128 0x7
 983 04c7 723800   		.ascii	"r8\000"
 984 04ca 09       		.byte	0x9
 985 04cb 1401     		.2byte	0x114
 986 04cd 5B040000 		.4byte	0x45b
 987 04d1 10       		.byte	0x10
 988 04d2 07       		.uleb128 0x7
 989 04d3 723900   		.ascii	"r9\000"
 990 04d6 09       		.byte	0x9
 991 04d7 1501     		.2byte	0x115
 992 04d9 5B040000 		.4byte	0x45b
 993 04dd 14       		.byte	0x14
 994 04de 07       		.uleb128 0x7
 995 04df 72313000 		.ascii	"r10\000"
 996 04e3 09       		.byte	0x9
 997 04e4 1601     		.2byte	0x116
 998 04e6 5B040000 		.4byte	0x45b
 999 04ea 18       		.byte	0x18
 1000 04eb 07       		.uleb128 0x7
 1001 04ec 72313100 		.ascii	"r11\000"
 1002 04f0 09       		.byte	0x9
 1003 04f1 1701     		.2byte	0x117
 1004 04f3 5B040000 		.4byte	0x45b
 1005 04f7 1C       		.byte	0x1c
 1006 04f8 07       		.uleb128 0x7
 1007 04f9 6C7200   		.ascii	"lr\000"
 1008 04fc 09       		.byte	0x9
 1009 04fd 1801     		.2byte	0x118
 1010 04ff 5B040000 		.4byte	0x45b
 1011 0503 20       		.byte	0x20
 1012 0504 00       		.byte	0
 1013 0505 09       		.uleb128 0x9
 1014 0506 04       		.byte	0x4
 1015 0507 8A040000 		.4byte	0x48a
 1016 050b 13       		.uleb128 0x13
 1017 050c 60       		.byte	0x60
 1018 050d 0A       		.byte	0xa
 1019 050e A101     		.2byte	0x1a1
 1020 0510 17060000 		.4byte	0x617
 1021 0514 07       		.uleb128 0x7
 1022 0515 43523100 		.ascii	"CR1\000"
ARM GAS  /tmp/cca3TaT1.s 			page 32


 1023 0519 0A       		.byte	0xa
 1024 051a A201     		.2byte	0x1a2
 1025 051c 36040000 		.4byte	0x436
 1026 0520 00       		.byte	0
 1027 0521 07       		.uleb128 0x7
 1028 0522 43523200 		.ascii	"CR2\000"
 1029 0526 0A       		.byte	0xa
 1030 0527 A301     		.2byte	0x1a3
 1031 0529 36040000 		.4byte	0x436
 1032 052d 04       		.byte	0x4
 1033 052e 08       		.uleb128 0x8
 1034 052f 13020000 		.4byte	.LASF82
 1035 0533 0A       		.byte	0xa
 1036 0534 A401     		.2byte	0x1a4
 1037 0536 36040000 		.4byte	0x436
 1038 053a 08       		.byte	0x8
 1039 053b 08       		.uleb128 0x8
 1040 053c 0D000000 		.4byte	.LASF83
 1041 0540 0A       		.byte	0xa
 1042 0541 A501     		.2byte	0x1a5
 1043 0543 36040000 		.4byte	0x436
 1044 0547 0C       		.byte	0xc
 1045 0548 07       		.uleb128 0x7
 1046 0549 535200   		.ascii	"SR\000"
 1047 054c 0A       		.byte	0xa
 1048 054d A601     		.2byte	0x1a6
 1049 054f 36040000 		.4byte	0x436
 1050 0553 10       		.byte	0x10
 1051 0554 07       		.uleb128 0x7
 1052 0555 45475200 		.ascii	"EGR\000"
 1053 0559 0A       		.byte	0xa
 1054 055a A701     		.2byte	0x1a7
 1055 055c 36040000 		.4byte	0x436
 1056 0560 14       		.byte	0x14
 1057 0561 08       		.uleb128 0x8
 1058 0562 F5000000 		.4byte	.LASF84
 1059 0566 0A       		.byte	0xa
 1060 0567 A801     		.2byte	0x1a8
 1061 0569 36040000 		.4byte	0x436
 1062 056d 18       		.byte	0x18
 1063 056e 08       		.uleb128 0x8
 1064 056f FB000000 		.4byte	.LASF85
 1065 0573 0A       		.byte	0xa
 1066 0574 A901     		.2byte	0x1a9
 1067 0576 36040000 		.4byte	0x436
 1068 057a 1C       		.byte	0x1c
 1069 057b 08       		.uleb128 0x8
 1070 057c 72010000 		.4byte	.LASF86
 1071 0580 0A       		.byte	0xa
 1072 0581 AA01     		.2byte	0x1aa
 1073 0583 36040000 		.4byte	0x436
 1074 0587 20       		.byte	0x20
 1075 0588 07       		.uleb128 0x7
 1076 0589 434E5400 		.ascii	"CNT\000"
 1077 058d 0A       		.byte	0xa
 1078 058e AB01     		.2byte	0x1ab
 1079 0590 36040000 		.4byte	0x436
ARM GAS  /tmp/cca3TaT1.s 			page 33


 1080 0594 24       		.byte	0x24
 1081 0595 07       		.uleb128 0x7
 1082 0596 50534300 		.ascii	"PSC\000"
 1083 059a 0A       		.byte	0xa
 1084 059b AC01     		.2byte	0x1ac
 1085 059d 36040000 		.4byte	0x436
 1086 05a1 28       		.byte	0x28
 1087 05a2 07       		.uleb128 0x7
 1088 05a3 41525200 		.ascii	"ARR\000"
 1089 05a7 0A       		.byte	0xa
 1090 05a8 AD01     		.2byte	0x1ad
 1091 05aa 36040000 		.4byte	0x436
 1092 05ae 2C       		.byte	0x2c
 1093 05af 07       		.uleb128 0x7
 1094 05b0 52435200 		.ascii	"RCR\000"
 1095 05b4 0A       		.byte	0xa
 1096 05b5 AE01     		.2byte	0x1ae
 1097 05b7 36040000 		.4byte	0x436
 1098 05bb 30       		.byte	0x30
 1099 05bc 07       		.uleb128 0x7
 1100 05bd 43435200 		.ascii	"CCR\000"
 1101 05c1 0A       		.byte	0xa
 1102 05c2 AF01     		.2byte	0x1af
 1103 05c4 17060000 		.4byte	0x617
 1104 05c8 34       		.byte	0x34
 1105 05c9 08       		.uleb128 0x8
 1106 05ca D8000000 		.4byte	.LASF87
 1107 05ce 0A       		.byte	0xa
 1108 05cf B001     		.2byte	0x1b0
 1109 05d1 36040000 		.4byte	0x436
 1110 05d5 44       		.byte	0x44
 1111 05d6 07       		.uleb128 0x7
 1112 05d7 44435200 		.ascii	"DCR\000"
 1113 05db 0A       		.byte	0xa
 1114 05dc B101     		.2byte	0x1b1
 1115 05de 36040000 		.4byte	0x436
 1116 05e2 48       		.byte	0x48
 1117 05e3 08       		.uleb128 0x8
 1118 05e4 56040000 		.4byte	.LASF88
 1119 05e8 0A       		.byte	0xa
 1120 05e9 B201     		.2byte	0x1b2
 1121 05eb 36040000 		.4byte	0x436
 1122 05ef 4C       		.byte	0x4c
 1123 05f0 07       		.uleb128 0x7
 1124 05f1 4F5200   		.ascii	"OR\000"
 1125 05f4 0A       		.byte	0xa
 1126 05f5 B301     		.2byte	0x1b3
 1127 05f7 36040000 		.4byte	0x436
 1128 05fb 50       		.byte	0x50
 1129 05fc 08       		.uleb128 0x8
 1130 05fd 01010000 		.4byte	.LASF89
 1131 0601 0A       		.byte	0xa
 1132 0602 B401     		.2byte	0x1b4
 1133 0604 36040000 		.4byte	0x436
 1134 0608 54       		.byte	0x54
 1135 0609 08       		.uleb128 0x8
 1136 060a F2030000 		.4byte	.LASF90
ARM GAS  /tmp/cca3TaT1.s 			page 34


 1137 060e 0A       		.byte	0xa
 1138 060f B501     		.2byte	0x1b5
 1139 0611 1C060000 		.4byte	0x61c
 1140 0615 58       		.byte	0x58
 1141 0616 00       		.byte	0
 1142 0617 0F       		.uleb128 0xf
 1143 0618 4B040000 		.4byte	0x44b
 1144 061c 0F       		.uleb128 0xf
 1145 061d 3B040000 		.4byte	0x43b
 1146 0621 14       		.uleb128 0x14
 1147 0622 34020000 		.4byte	.LASF91
 1148 0626 0A       		.byte	0xa
 1149 0627 B601     		.2byte	0x1b6
 1150 0629 0B050000 		.4byte	0x50b
 1151 062d 15       		.uleb128 0x15
 1152 062e 04       		.byte	0x4
 1153 062f 0B       		.byte	0xb
 1154 0630 38       		.byte	0x38
 1155 0631 42060000 		.4byte	0x642
 1156 0635 06       		.uleb128 0x6
 1157 0636 9E040000 		.4byte	.LASF92
 1158 063a 0B       		.byte	0xb
 1159 063b 3C       		.byte	0x3c
 1160 063c C3000000 		.4byte	0xc3
 1161 0640 00       		.byte	0
 1162 0641 00       		.byte	0
 1163 0642 04       		.uleb128 0x4
 1164 0643 E8020000 		.4byte	.LASF93
 1165 0647 0B       		.byte	0xb
 1166 0648 3D       		.byte	0x3d
 1167 0649 2D060000 		.4byte	0x62d
 1168 064d 16       		.uleb128 0x16
 1169 064e 04       		.byte	0x4
 1170 064f 07       		.byte	0x7
 1171 0650 FA       		.byte	0xfa
 1172 0651 B6060000 		.4byte	0x6b6
 1173 0655 17       		.uleb128 0x17
 1174 0656 18000000 		.4byte	.LASF94
 1175 065a 07       		.byte	0x7
 1176 065b 0101     		.2byte	0x101
 1177 065d FA000000 		.4byte	0xfa
 1178 0661 17       		.uleb128 0x17
 1179 0662 8D000000 		.4byte	.LASF95
 1180 0666 07       		.byte	0x7
 1181 0667 0801     		.2byte	0x108
 1182 0669 FA000000 		.4byte	0xfa
 1183 066d 17       		.uleb128 0x17
 1184 066e F7050000 		.4byte	.LASF96
 1185 0672 07       		.byte	0x7
 1186 0673 0F01     		.2byte	0x10f
 1187 0675 F9020000 		.4byte	0x2f9
 1188 0679 17       		.uleb128 0x17
 1189 067a 12000000 		.4byte	.LASF97
 1190 067e 07       		.byte	0x7
 1191 067f 1601     		.2byte	0x116
 1192 0681 B6060000 		.4byte	0x6b6
 1193 0685 17       		.uleb128 0x17
ARM GAS  /tmp/cca3TaT1.s 			page 35


 1194 0686 A1000000 		.4byte	.LASF98
 1195 068a 07       		.byte	0x7
 1196 068b 1B01     		.2byte	0x11b
 1197 068d FA000000 		.4byte	0xfa
 1198 0691 17       		.uleb128 0x17
 1199 0692 FB010000 		.4byte	.LASF99
 1200 0696 07       		.byte	0x7
 1201 0697 2401     		.2byte	0x124
 1202 0699 E1060000 		.4byte	0x6e1
 1203 069d 17       		.uleb128 0x17
 1204 069e 0B040000 		.4byte	.LASF100
 1205 06a2 07       		.byte	0x7
 1206 06a3 2D01     		.2byte	0x12d
 1207 06a5 18070000 		.4byte	0x718
 1208 06a9 17       		.uleb128 0x17
 1209 06aa 91030000 		.4byte	.LASF101
 1210 06ae 07       		.byte	0x7
 1211 06af 3501     		.2byte	0x135
 1212 06b1 05010000 		.4byte	0x105
 1213 06b5 00       		.byte	0
 1214 06b6 09       		.uleb128 0x9
 1215 06b7 04       		.byte	0x4
 1216 06b8 11020000 		.4byte	0x211
 1217 06bc 05       		.uleb128 0x5
 1218 06bd E5030000 		.4byte	.LASF102
 1219 06c1 0C       		.byte	0xc
 1220 06c2 0C       		.byte	0xc
 1221 06c3 34       		.byte	0x34
 1222 06c4 E1060000 		.4byte	0x6e1
 1223 06c8 06       		.uleb128 0x6
 1224 06c9 8D010000 		.4byte	.LASF103
 1225 06cd 0C       		.byte	0xc
 1226 06ce 35       		.byte	0x35
 1227 06cf 46020000 		.4byte	0x246
 1228 06d3 00       		.byte	0
 1229 06d4 06       		.uleb128 0x6
 1230 06d5 0D020000 		.4byte	.LASF104
 1231 06d9 0C       		.byte	0xc
 1232 06da 37       		.byte	0x37
 1233 06db 10010000 		.4byte	0x110
 1234 06df 08       		.byte	0x8
 1235 06e0 00       		.byte	0
 1236 06e1 09       		.uleb128 0x9
 1237 06e2 04       		.byte	0x4
 1238 06e3 BC060000 		.4byte	0x6bc
 1239 06e7 05       		.uleb128 0x5
 1240 06e8 EB040000 		.4byte	.LASF105
 1241 06ec 10       		.byte	0x10
 1242 06ed 0D       		.byte	0xd
 1243 06ee 39       		.byte	0x39
 1244 06ef 18070000 		.4byte	0x718
 1245 06f3 06       		.uleb128 0x6
 1246 06f4 13010000 		.4byte	.LASF106
 1247 06f8 0D       		.byte	0xd
 1248 06f9 3A       		.byte	0x3a
 1249 06fa 46020000 		.4byte	0x246
 1250 06fe 00       		.byte	0
ARM GAS  /tmp/cca3TaT1.s 			page 36


 1251 06ff 06       		.uleb128 0x6
 1252 0700 35060000 		.4byte	.LASF107
 1253 0704 0D       		.byte	0xd
 1254 0705 3C       		.byte	0x3c
 1255 0706 1C020000 		.4byte	0x21c
 1256 070a 08       		.byte	0x8
 1257 070b 06       		.uleb128 0x6
 1258 070c 64040000 		.4byte	.LASF108
 1259 0710 0D       		.byte	0xd
 1260 0711 3E       		.byte	0x3e
 1261 0712 56070000 		.4byte	0x756
 1262 0716 0C       		.byte	0xc
 1263 0717 00       		.byte	0
 1264 0718 09       		.uleb128 0x9
 1265 0719 04       		.byte	0x4
 1266 071a E7060000 		.4byte	0x6e7
 1267 071e 09       		.uleb128 0x9
 1268 071f 04       		.byte	0x4
 1269 0720 24070000 		.4byte	0x724
 1270 0724 18       		.uleb128 0x18
 1271 0725 29070000 		.4byte	0x729
 1272 0729 03       		.uleb128 0x3
 1273 072a 01       		.byte	0x1
 1274 072b 08       		.byte	0x8
 1275 072c 51040000 		.4byte	.LASF109
 1276 0730 09       		.uleb128 0x9
 1277 0731 04       		.byte	0x4
 1278 0732 FB020000 		.4byte	0x2fb
 1279 0736 0F       		.uleb128 0xf
 1280 0737 1E070000 		.4byte	0x71e
 1281 073b 10       		.uleb128 0x10
 1282 073c 66040000 		.4byte	0x466
 1283 0740 4B070000 		.4byte	0x74b
 1284 0744 11       		.uleb128 0x11
 1285 0745 2F040000 		.4byte	0x42f
 1286 0749 1A       		.byte	0x1a
 1287 074a 00       		.byte	0
 1288 074b 04       		.uleb128 0x4
 1289 074c C9010000 		.4byte	.LASF110
 1290 0750 0D       		.byte	0xd
 1291 0751 34       		.byte	0x34
 1292 0752 E7060000 		.4byte	0x6e7
 1293 0756 09       		.uleb128 0x9
 1294 0757 04       		.byte	0x4
 1295 0758 4B070000 		.4byte	0x74b
 1296 075c 03       		.uleb128 0x3
 1297 075d 01       		.byte	0x1
 1298 075e 02       		.byte	0x2
 1299 075f 52030000 		.4byte	.LASF111
 1300 0763 19       		.uleb128 0x19
 1301 0764 6C020000 		.4byte	.LASF112
 1302 0768 02       		.byte	0x2
 1303 0769 99       		.byte	0x99
 1304 076a 03       		.byte	0x3
 1305 076b 7B070000 		.4byte	0x77b
 1306 076f 1A       		.uleb128 0x1a
 1307 0770 F9020000 		.4byte	.LASF114
ARM GAS  /tmp/cca3TaT1.s 			page 37


 1308 0774 02       		.byte	0x2
 1309 0775 99       		.byte	0x99
 1310 0776 1B010000 		.4byte	0x11b
 1311 077a 00       		.byte	0
 1312 077b 1B       		.uleb128 0x1b
 1313 077c C2040000 		.4byte	.LASF127
 1314 0780 02       		.byte	0x2
 1315 0781 A5       		.byte	0xa5
 1316 0782 03       		.byte	0x3
 1317 0783 19       		.uleb128 0x19
 1318 0784 24060000 		.4byte	.LASF113
 1319 0788 02       		.byte	0x2
 1320 0789 B1       		.byte	0xb1
 1321 078a 03       		.byte	0x3
 1322 078b 9B070000 		.4byte	0x79b
 1323 078f 1A       		.uleb128 0x1a
 1324 0790 F9020000 		.4byte	.LASF114
 1325 0794 02       		.byte	0x2
 1326 0795 B1       		.byte	0xb1
 1327 0796 1B010000 		.4byte	0x11b
 1328 079a 00       		.byte	0
 1329 079b 1C       		.uleb128 0x1c
 1330 079c D4030000 		.4byte	.LASF128
 1331 07a0 02       		.byte	0x2
 1332 07a1 BD       		.byte	0xbd
 1333 07a2 1B010000 		.4byte	0x11b
 1334 07a6 03       		.byte	0x3
 1335 07a7 1D       		.uleb128 0x1d
 1336 07a8 DB020000 		.4byte	.LASF115
 1337 07ac 01       		.byte	0x1
 1338 07ad 3C       		.byte	0x3c
 1339 07ae 00000000 		.4byte	.LFB272
 1340 07b2 04000000 		.4byte	.LFE272-.LFB272
 1341 07b6 01       		.uleb128 0x1
 1342 07b7 9C       		.byte	0x9c
 1343 07b8 C6070000 		.4byte	0x7c6
 1344 07bc 1E       		.uleb128 0x1e
 1345 07bd 04000000 		.4byte	.LVL0
 1346 07c1 EE080000 		.4byte	0x8ee
 1347 07c5 00       		.byte	0
 1348 07c6 1D       		.uleb128 0x1d
 1349 07c7 A5040000 		.4byte	.LASF116
 1350 07cb 01       		.byte	0x1
 1351 07cc 4D       		.byte	0x4d
 1352 07cd 00000000 		.4byte	.LFB273
 1353 07d1 10000000 		.4byte	.LFE273-.LFB273
 1354 07d5 01       		.uleb128 0x1
 1355 07d6 9C       		.byte	0x9c
 1356 07d7 09080000 		.4byte	0x809
 1357 07db 1F       		.uleb128 0x1f
 1358 07dc 14060000 		.4byte	.LASF119
 1359 07e0 01       		.byte	0x1
 1360 07e1 4D       		.byte	0x4d
 1361 07e2 1B010000 		.4byte	0x11b
 1362 07e6 01       		.uleb128 0x1
 1363 07e7 50       		.byte	0x50
 1364 07e8 20       		.uleb128 0x20
ARM GAS  /tmp/cca3TaT1.s 			page 38


 1365 07e9 3E000000 		.4byte	.LASF120
 1366 07ed 19080000 		.4byte	0x819
 1367 07f1 21       		.uleb128 0x21
 1368 07f2 63070000 		.4byte	0x763
 1369 07f6 00000000 		.4byte	.LBB10
 1370 07fa 10000000 		.4byte	.LBE10-.LBB10
 1371 07fe 01       		.byte	0x1
 1372 07ff 51       		.byte	0x51
 1373 0800 22       		.uleb128 0x22
 1374 0801 6F070000 		.4byte	0x76f
 1375 0805 01       		.uleb128 0x1
 1376 0806 50       		.byte	0x50
 1377 0807 00       		.byte	0
 1378 0808 00       		.byte	0
 1379 0809 10       		.uleb128 0x10
 1380 080a 29070000 		.4byte	0x729
 1381 080e 19080000 		.4byte	0x819
 1382 0812 11       		.uleb128 0x11
 1383 0813 2F040000 		.4byte	0x42f
 1384 0817 0C       		.byte	0xc
 1385 0818 00       		.byte	0
 1386 0819 18       		.uleb128 0x18
 1387 081a 09080000 		.4byte	0x809
 1388 081e 1D       		.uleb128 0x1d
 1389 081f 45040000 		.4byte	.LASF117
 1390 0823 01       		.byte	0x1
 1391 0824 5B       		.byte	0x5b
 1392 0825 00000000 		.4byte	.LFB274
 1393 0829 0A000000 		.4byte	.LFE274-.LFB274
 1394 082d 01       		.uleb128 0x1
 1395 082e 9C       		.byte	0x9c
 1396 082f 43080000 		.4byte	0x843
 1397 0833 23       		.uleb128 0x23
 1398 0834 7B070000 		.4byte	0x77b
 1399 0838 00000000 		.4byte	.LBB12
 1400 083c 0A000000 		.4byte	.LBE12-.LBB12
 1401 0840 01       		.byte	0x1
 1402 0841 5D       		.byte	0x5d
 1403 0842 00       		.byte	0
 1404 0843 1D       		.uleb128 0x1d
 1405 0844 01050000 		.4byte	.LASF118
 1406 0848 01       		.byte	0x1
 1407 0849 69       		.byte	0x69
 1408 084a 00000000 		.4byte	.LFB275
 1409 084e 08000000 		.4byte	.LFE275-.LFB275
 1410 0852 01       		.uleb128 0x1
 1411 0853 9C       		.byte	0x9c
 1412 0854 86080000 		.4byte	0x886
 1413 0858 1F       		.uleb128 0x1f
 1414 0859 14060000 		.4byte	.LASF119
 1415 085d 01       		.byte	0x1
 1416 085e 69       		.byte	0x69
 1417 085f 1B010000 		.4byte	0x11b
 1418 0863 01       		.uleb128 0x1
 1419 0864 50       		.byte	0x50
 1420 0865 20       		.uleb128 0x20
 1421 0866 9F030000 		.4byte	.LASF121
ARM GAS  /tmp/cca3TaT1.s 			page 39


 1422 086a 96080000 		.4byte	0x896
 1423 086e 21       		.uleb128 0x21
 1424 086f 83070000 		.4byte	0x783
 1425 0873 00000000 		.4byte	.LBB14
 1426 0877 08000000 		.4byte	.LBE14-.LBB14
 1427 087b 01       		.byte	0x1
 1428 087c 6D       		.byte	0x6d
 1429 087d 22       		.uleb128 0x22
 1430 087e 8F070000 		.4byte	0x78f
 1431 0882 01       		.uleb128 0x1
 1432 0883 50       		.byte	0x50
 1433 0884 00       		.byte	0
 1434 0885 00       		.byte	0
 1435 0886 10       		.uleb128 0x10
 1436 0887 29070000 		.4byte	0x729
 1437 088b 96080000 		.4byte	0x896
 1438 088f 11       		.uleb128 0x11
 1439 0890 2F040000 		.4byte	0x42f
 1440 0894 0A       		.byte	0xa
 1441 0895 00       		.byte	0
 1442 0896 18       		.uleb128 0x18
 1443 0897 86080000 		.4byte	0x886
 1444 089b 24       		.uleb128 0x24
 1445 089c EC050000 		.4byte	.LASF129
 1446 08a0 01       		.byte	0x1
 1447 08a1 79       		.byte	0x79
 1448 08a2 1B010000 		.4byte	0x11b
 1449 08a6 00000000 		.4byte	.LFB276
 1450 08aa 08000000 		.4byte	.LFE276-.LFB276
 1451 08ae 01       		.uleb128 0x1
 1452 08af 9C       		.byte	0x9c
 1453 08b0 CD080000 		.4byte	0x8cd
 1454 08b4 20       		.uleb128 0x20
 1455 08b5 B5030000 		.4byte	.LASF122
 1456 08b9 CD080000 		.4byte	0x8cd
 1457 08bd 23       		.uleb128 0x23
 1458 08be 9B070000 		.4byte	0x79b
 1459 08c2 00000000 		.4byte	.LBB16
 1460 08c6 06000000 		.4byte	.LBE16-.LBB16
 1461 08ca 01       		.byte	0x1
 1462 08cb 7D       		.byte	0x7d
 1463 08cc 00       		.byte	0
 1464 08cd 18       		.uleb128 0x18
 1465 08ce 86080000 		.4byte	0x886
 1466 08d2 25       		.uleb128 0x25
 1467 08d3 BF000000 		.4byte	.LASF123
 1468 08d7 0E       		.byte	0xe
 1469 08d8 FA06     		.2byte	0x6fa
 1470 08da DE080000 		.4byte	0x8de
 1471 08de 0F       		.uleb128 0xf
 1472 08df A2000000 		.4byte	0xa2
 1473 08e3 26       		.uleb128 0x26
 1474 08e4 636800   		.ascii	"ch\000"
 1475 08e7 07       		.byte	0x7
 1476 08e8 0B02     		.2byte	0x20b
 1477 08ea C8030000 		.4byte	0x3c8
 1478 08ee 27       		.uleb128 0x27
ARM GAS  /tmp/cca3TaT1.s 			page 40


 1479 08ef CC000000 		.4byte	.LASF130
 1480 08f3 02       		.byte	0x2
 1481 08f4 7B       		.byte	0x7b
 1482 08f5 00       		.byte	0
 1483              		.section	.debug_abbrev,"",%progbits
 1484              	.Ldebug_abbrev0:
 1485 0000 01       		.uleb128 0x1
 1486 0001 11       		.uleb128 0x11
 1487 0002 01       		.byte	0x1
 1488 0003 25       		.uleb128 0x25
 1489 0004 0E       		.uleb128 0xe
 1490 0005 13       		.uleb128 0x13
 1491 0006 0B       		.uleb128 0xb
 1492 0007 03       		.uleb128 0x3
 1493 0008 0E       		.uleb128 0xe
 1494 0009 1B       		.uleb128 0x1b
 1495 000a 0E       		.uleb128 0xe
 1496 000b 55       		.uleb128 0x55
 1497 000c 17       		.uleb128 0x17
 1498 000d 11       		.uleb128 0x11
 1499 000e 01       		.uleb128 0x1
 1500 000f 10       		.uleb128 0x10
 1501 0010 17       		.uleb128 0x17
 1502 0011 00       		.byte	0
 1503 0012 00       		.byte	0
 1504 0013 02       		.uleb128 0x2
 1505 0014 24       		.uleb128 0x24
 1506 0015 00       		.byte	0
 1507 0016 0B       		.uleb128 0xb
 1508 0017 0B       		.uleb128 0xb
 1509 0018 3E       		.uleb128 0x3e
 1510 0019 0B       		.uleb128 0xb
 1511 001a 03       		.uleb128 0x3
 1512 001b 08       		.uleb128 0x8
 1513 001c 00       		.byte	0
 1514 001d 00       		.byte	0
 1515 001e 03       		.uleb128 0x3
 1516 001f 24       		.uleb128 0x24
 1517 0020 00       		.byte	0
 1518 0021 0B       		.uleb128 0xb
 1519 0022 0B       		.uleb128 0xb
 1520 0023 3E       		.uleb128 0x3e
 1521 0024 0B       		.uleb128 0xb
 1522 0025 03       		.uleb128 0x3
 1523 0026 0E       		.uleb128 0xe
 1524 0027 00       		.byte	0
 1525 0028 00       		.byte	0
 1526 0029 04       		.uleb128 0x4
 1527 002a 16       		.uleb128 0x16
 1528 002b 00       		.byte	0
 1529 002c 03       		.uleb128 0x3
 1530 002d 0E       		.uleb128 0xe
 1531 002e 3A       		.uleb128 0x3a
 1532 002f 0B       		.uleb128 0xb
 1533 0030 3B       		.uleb128 0x3b
 1534 0031 0B       		.uleb128 0xb
 1535 0032 49       		.uleb128 0x49
ARM GAS  /tmp/cca3TaT1.s 			page 41


 1536 0033 13       		.uleb128 0x13
 1537 0034 00       		.byte	0
 1538 0035 00       		.byte	0
 1539 0036 05       		.uleb128 0x5
 1540 0037 13       		.uleb128 0x13
 1541 0038 01       		.byte	0x1
 1542 0039 03       		.uleb128 0x3
 1543 003a 0E       		.uleb128 0xe
 1544 003b 0B       		.uleb128 0xb
 1545 003c 0B       		.uleb128 0xb
 1546 003d 3A       		.uleb128 0x3a
 1547 003e 0B       		.uleb128 0xb
 1548 003f 3B       		.uleb128 0x3b
 1549 0040 0B       		.uleb128 0xb
 1550 0041 01       		.uleb128 0x1
 1551 0042 13       		.uleb128 0x13
 1552 0043 00       		.byte	0
 1553 0044 00       		.byte	0
 1554 0045 06       		.uleb128 0x6
 1555 0046 0D       		.uleb128 0xd
 1556 0047 00       		.byte	0
 1557 0048 03       		.uleb128 0x3
 1558 0049 0E       		.uleb128 0xe
 1559 004a 3A       		.uleb128 0x3a
 1560 004b 0B       		.uleb128 0xb
 1561 004c 3B       		.uleb128 0x3b
 1562 004d 0B       		.uleb128 0xb
 1563 004e 49       		.uleb128 0x49
 1564 004f 13       		.uleb128 0x13
 1565 0050 38       		.uleb128 0x38
 1566 0051 0B       		.uleb128 0xb
 1567 0052 00       		.byte	0
 1568 0053 00       		.byte	0
 1569 0054 07       		.uleb128 0x7
 1570 0055 0D       		.uleb128 0xd
 1571 0056 00       		.byte	0
 1572 0057 03       		.uleb128 0x3
 1573 0058 08       		.uleb128 0x8
 1574 0059 3A       		.uleb128 0x3a
 1575 005a 0B       		.uleb128 0xb
 1576 005b 3B       		.uleb128 0x3b
 1577 005c 05       		.uleb128 0x5
 1578 005d 49       		.uleb128 0x49
 1579 005e 13       		.uleb128 0x13
 1580 005f 38       		.uleb128 0x38
 1581 0060 0B       		.uleb128 0xb
 1582 0061 00       		.byte	0
 1583 0062 00       		.byte	0
 1584 0063 08       		.uleb128 0x8
 1585 0064 0D       		.uleb128 0xd
 1586 0065 00       		.byte	0
 1587 0066 03       		.uleb128 0x3
 1588 0067 0E       		.uleb128 0xe
 1589 0068 3A       		.uleb128 0x3a
 1590 0069 0B       		.uleb128 0xb
 1591 006a 3B       		.uleb128 0x3b
 1592 006b 05       		.uleb128 0x5
ARM GAS  /tmp/cca3TaT1.s 			page 42


 1593 006c 49       		.uleb128 0x49
 1594 006d 13       		.uleb128 0x13
 1595 006e 38       		.uleb128 0x38
 1596 006f 0B       		.uleb128 0xb
 1597 0070 00       		.byte	0
 1598 0071 00       		.byte	0
 1599 0072 09       		.uleb128 0x9
 1600 0073 0F       		.uleb128 0xf
 1601 0074 00       		.byte	0
 1602 0075 0B       		.uleb128 0xb
 1603 0076 0B       		.uleb128 0xb
 1604 0077 49       		.uleb128 0x49
 1605 0078 13       		.uleb128 0x13
 1606 0079 00       		.byte	0
 1607 007a 00       		.byte	0
 1608 007b 0A       		.uleb128 0xa
 1609 007c 13       		.uleb128 0x13
 1610 007d 01       		.byte	0x1
 1611 007e 03       		.uleb128 0x3
 1612 007f 0E       		.uleb128 0xe
 1613 0080 0B       		.uleb128 0xb
 1614 0081 0B       		.uleb128 0xb
 1615 0082 3A       		.uleb128 0x3a
 1616 0083 0B       		.uleb128 0xb
 1617 0084 3B       		.uleb128 0x3b
 1618 0085 05       		.uleb128 0x5
 1619 0086 01       		.uleb128 0x1
 1620 0087 13       		.uleb128 0x13
 1621 0088 00       		.byte	0
 1622 0089 00       		.byte	0
 1623 008a 0B       		.uleb128 0xb
 1624 008b 15       		.uleb128 0x15
 1625 008c 01       		.byte	0x1
 1626 008d 27       		.uleb128 0x27
 1627 008e 19       		.uleb128 0x19
 1628 008f 01       		.uleb128 0x1
 1629 0090 13       		.uleb128 0x13
 1630 0091 00       		.byte	0
 1631 0092 00       		.byte	0
 1632 0093 0C       		.uleb128 0xc
 1633 0094 05       		.uleb128 0x5
 1634 0095 00       		.byte	0
 1635 0096 49       		.uleb128 0x49
 1636 0097 13       		.uleb128 0x13
 1637 0098 00       		.byte	0
 1638 0099 00       		.byte	0
 1639 009a 0D       		.uleb128 0xd
 1640 009b 0F       		.uleb128 0xf
 1641 009c 00       		.byte	0
 1642 009d 0B       		.uleb128 0xb
 1643 009e 0B       		.uleb128 0xb
 1644 009f 00       		.byte	0
 1645 00a0 00       		.byte	0
 1646 00a1 0E       		.uleb128 0xe
 1647 00a2 13       		.uleb128 0x13
 1648 00a3 01       		.byte	0x1
 1649 00a4 03       		.uleb128 0x3
ARM GAS  /tmp/cca3TaT1.s 			page 43


 1650 00a5 0E       		.uleb128 0xe
 1651 00a6 0B       		.uleb128 0xb
 1652 00a7 05       		.uleb128 0x5
 1653 00a8 3A       		.uleb128 0x3a
 1654 00a9 0B       		.uleb128 0xb
 1655 00aa 3B       		.uleb128 0x3b
 1656 00ab 05       		.uleb128 0x5
 1657 00ac 01       		.uleb128 0x1
 1658 00ad 13       		.uleb128 0x13
 1659 00ae 00       		.byte	0
 1660 00af 00       		.byte	0
 1661 00b0 0F       		.uleb128 0xf
 1662 00b1 35       		.uleb128 0x35
 1663 00b2 00       		.byte	0
 1664 00b3 49       		.uleb128 0x49
 1665 00b4 13       		.uleb128 0x13
 1666 00b5 00       		.byte	0
 1667 00b6 00       		.byte	0
 1668 00b7 10       		.uleb128 0x10
 1669 00b8 01       		.uleb128 0x1
 1670 00b9 01       		.byte	0x1
 1671 00ba 49       		.uleb128 0x49
 1672 00bb 13       		.uleb128 0x13
 1673 00bc 01       		.uleb128 0x1
 1674 00bd 13       		.uleb128 0x13
 1675 00be 00       		.byte	0
 1676 00bf 00       		.byte	0
 1677 00c0 11       		.uleb128 0x11
 1678 00c1 21       		.uleb128 0x21
 1679 00c2 00       		.byte	0
 1680 00c3 49       		.uleb128 0x49
 1681 00c4 13       		.uleb128 0x13
 1682 00c5 2F       		.uleb128 0x2f
 1683 00c6 0B       		.uleb128 0xb
 1684 00c7 00       		.byte	0
 1685 00c8 00       		.byte	0
 1686 00c9 12       		.uleb128 0x12
 1687 00ca 0D       		.uleb128 0xd
 1688 00cb 00       		.byte	0
 1689 00cc 03       		.uleb128 0x3
 1690 00cd 08       		.uleb128 0x8
 1691 00ce 3A       		.uleb128 0x3a
 1692 00cf 0B       		.uleb128 0xb
 1693 00d0 3B       		.uleb128 0x3b
 1694 00d1 0B       		.uleb128 0xb
 1695 00d2 49       		.uleb128 0x49
 1696 00d3 13       		.uleb128 0x13
 1697 00d4 38       		.uleb128 0x38
 1698 00d5 0B       		.uleb128 0xb
 1699 00d6 00       		.byte	0
 1700 00d7 00       		.byte	0
 1701 00d8 13       		.uleb128 0x13
 1702 00d9 13       		.uleb128 0x13
 1703 00da 01       		.byte	0x1
 1704 00db 0B       		.uleb128 0xb
 1705 00dc 0B       		.uleb128 0xb
 1706 00dd 3A       		.uleb128 0x3a
ARM GAS  /tmp/cca3TaT1.s 			page 44


 1707 00de 0B       		.uleb128 0xb
 1708 00df 3B       		.uleb128 0x3b
 1709 00e0 05       		.uleb128 0x5
 1710 00e1 01       		.uleb128 0x1
 1711 00e2 13       		.uleb128 0x13
 1712 00e3 00       		.byte	0
 1713 00e4 00       		.byte	0
 1714 00e5 14       		.uleb128 0x14
 1715 00e6 16       		.uleb128 0x16
 1716 00e7 00       		.byte	0
 1717 00e8 03       		.uleb128 0x3
 1718 00e9 0E       		.uleb128 0xe
 1719 00ea 3A       		.uleb128 0x3a
 1720 00eb 0B       		.uleb128 0xb
 1721 00ec 3B       		.uleb128 0x3b
 1722 00ed 05       		.uleb128 0x5
 1723 00ee 49       		.uleb128 0x49
 1724 00ef 13       		.uleb128 0x13
 1725 00f0 00       		.byte	0
 1726 00f1 00       		.byte	0
 1727 00f2 15       		.uleb128 0x15
 1728 00f3 13       		.uleb128 0x13
 1729 00f4 01       		.byte	0x1
 1730 00f5 0B       		.uleb128 0xb
 1731 00f6 0B       		.uleb128 0xb
 1732 00f7 3A       		.uleb128 0x3a
 1733 00f8 0B       		.uleb128 0xb
 1734 00f9 3B       		.uleb128 0x3b
 1735 00fa 0B       		.uleb128 0xb
 1736 00fb 01       		.uleb128 0x1
 1737 00fc 13       		.uleb128 0x13
 1738 00fd 00       		.byte	0
 1739 00fe 00       		.byte	0
 1740 00ff 16       		.uleb128 0x16
 1741 0100 17       		.uleb128 0x17
 1742 0101 01       		.byte	0x1
 1743 0102 0B       		.uleb128 0xb
 1744 0103 0B       		.uleb128 0xb
 1745 0104 3A       		.uleb128 0x3a
 1746 0105 0B       		.uleb128 0xb
 1747 0106 3B       		.uleb128 0x3b
 1748 0107 0B       		.uleb128 0xb
 1749 0108 01       		.uleb128 0x1
 1750 0109 13       		.uleb128 0x13
 1751 010a 00       		.byte	0
 1752 010b 00       		.byte	0
 1753 010c 17       		.uleb128 0x17
 1754 010d 0D       		.uleb128 0xd
 1755 010e 00       		.byte	0
 1756 010f 03       		.uleb128 0x3
 1757 0110 0E       		.uleb128 0xe
 1758 0111 3A       		.uleb128 0x3a
 1759 0112 0B       		.uleb128 0xb
 1760 0113 3B       		.uleb128 0x3b
 1761 0114 05       		.uleb128 0x5
 1762 0115 49       		.uleb128 0x49
 1763 0116 13       		.uleb128 0x13
ARM GAS  /tmp/cca3TaT1.s 			page 45


 1764 0117 00       		.byte	0
 1765 0118 00       		.byte	0
 1766 0119 18       		.uleb128 0x18
 1767 011a 26       		.uleb128 0x26
 1768 011b 00       		.byte	0
 1769 011c 49       		.uleb128 0x49
 1770 011d 13       		.uleb128 0x13
 1771 011e 00       		.byte	0
 1772 011f 00       		.byte	0
 1773 0120 19       		.uleb128 0x19
 1774 0121 2E       		.uleb128 0x2e
 1775 0122 01       		.byte	0x1
 1776 0123 03       		.uleb128 0x3
 1777 0124 0E       		.uleb128 0xe
 1778 0125 3A       		.uleb128 0x3a
 1779 0126 0B       		.uleb128 0xb
 1780 0127 3B       		.uleb128 0x3b
 1781 0128 0B       		.uleb128 0xb
 1782 0129 27       		.uleb128 0x27
 1783 012a 19       		.uleb128 0x19
 1784 012b 20       		.uleb128 0x20
 1785 012c 0B       		.uleb128 0xb
 1786 012d 01       		.uleb128 0x1
 1787 012e 13       		.uleb128 0x13
 1788 012f 00       		.byte	0
 1789 0130 00       		.byte	0
 1790 0131 1A       		.uleb128 0x1a
 1791 0132 05       		.uleb128 0x5
 1792 0133 00       		.byte	0
 1793 0134 03       		.uleb128 0x3
 1794 0135 0E       		.uleb128 0xe
 1795 0136 3A       		.uleb128 0x3a
 1796 0137 0B       		.uleb128 0xb
 1797 0138 3B       		.uleb128 0x3b
 1798 0139 0B       		.uleb128 0xb
 1799 013a 49       		.uleb128 0x49
 1800 013b 13       		.uleb128 0x13
 1801 013c 00       		.byte	0
 1802 013d 00       		.byte	0
 1803 013e 1B       		.uleb128 0x1b
 1804 013f 2E       		.uleb128 0x2e
 1805 0140 00       		.byte	0
 1806 0141 03       		.uleb128 0x3
 1807 0142 0E       		.uleb128 0xe
 1808 0143 3A       		.uleb128 0x3a
 1809 0144 0B       		.uleb128 0xb
 1810 0145 3B       		.uleb128 0x3b
 1811 0146 0B       		.uleb128 0xb
 1812 0147 27       		.uleb128 0x27
 1813 0148 19       		.uleb128 0x19
 1814 0149 20       		.uleb128 0x20
 1815 014a 0B       		.uleb128 0xb
 1816 014b 00       		.byte	0
 1817 014c 00       		.byte	0
 1818 014d 1C       		.uleb128 0x1c
 1819 014e 2E       		.uleb128 0x2e
 1820 014f 00       		.byte	0
ARM GAS  /tmp/cca3TaT1.s 			page 46


 1821 0150 03       		.uleb128 0x3
 1822 0151 0E       		.uleb128 0xe
 1823 0152 3A       		.uleb128 0x3a
 1824 0153 0B       		.uleb128 0xb
 1825 0154 3B       		.uleb128 0x3b
 1826 0155 0B       		.uleb128 0xb
 1827 0156 27       		.uleb128 0x27
 1828 0157 19       		.uleb128 0x19
 1829 0158 49       		.uleb128 0x49
 1830 0159 13       		.uleb128 0x13
 1831 015a 20       		.uleb128 0x20
 1832 015b 0B       		.uleb128 0xb
 1833 015c 00       		.byte	0
 1834 015d 00       		.byte	0
 1835 015e 1D       		.uleb128 0x1d
 1836 015f 2E       		.uleb128 0x2e
 1837 0160 01       		.byte	0x1
 1838 0161 3F       		.uleb128 0x3f
 1839 0162 19       		.uleb128 0x19
 1840 0163 03       		.uleb128 0x3
 1841 0164 0E       		.uleb128 0xe
 1842 0165 3A       		.uleb128 0x3a
 1843 0166 0B       		.uleb128 0xb
 1844 0167 3B       		.uleb128 0x3b
 1845 0168 0B       		.uleb128 0xb
 1846 0169 27       		.uleb128 0x27
 1847 016a 19       		.uleb128 0x19
 1848 016b 11       		.uleb128 0x11
 1849 016c 01       		.uleb128 0x1
 1850 016d 12       		.uleb128 0x12
 1851 016e 06       		.uleb128 0x6
 1852 016f 40       		.uleb128 0x40
 1853 0170 18       		.uleb128 0x18
 1854 0171 9742     		.uleb128 0x2117
 1855 0173 19       		.uleb128 0x19
 1856 0174 01       		.uleb128 0x1
 1857 0175 13       		.uleb128 0x13
 1858 0176 00       		.byte	0
 1859 0177 00       		.byte	0
 1860 0178 1E       		.uleb128 0x1e
 1861 0179 898201   		.uleb128 0x4109
 1862 017c 00       		.byte	0
 1863 017d 11       		.uleb128 0x11
 1864 017e 01       		.uleb128 0x1
 1865 017f 9542     		.uleb128 0x2115
 1866 0181 19       		.uleb128 0x19
 1867 0182 31       		.uleb128 0x31
 1868 0183 13       		.uleb128 0x13
 1869 0184 00       		.byte	0
 1870 0185 00       		.byte	0
 1871 0186 1F       		.uleb128 0x1f
 1872 0187 05       		.uleb128 0x5
 1873 0188 00       		.byte	0
 1874 0189 03       		.uleb128 0x3
 1875 018a 0E       		.uleb128 0xe
 1876 018b 3A       		.uleb128 0x3a
 1877 018c 0B       		.uleb128 0xb
ARM GAS  /tmp/cca3TaT1.s 			page 47


 1878 018d 3B       		.uleb128 0x3b
 1879 018e 0B       		.uleb128 0xb
 1880 018f 49       		.uleb128 0x49
 1881 0190 13       		.uleb128 0x13
 1882 0191 02       		.uleb128 0x2
 1883 0192 18       		.uleb128 0x18
 1884 0193 00       		.byte	0
 1885 0194 00       		.byte	0
 1886 0195 20       		.uleb128 0x20
 1887 0196 34       		.uleb128 0x34
 1888 0197 00       		.byte	0
 1889 0198 03       		.uleb128 0x3
 1890 0199 0E       		.uleb128 0xe
 1891 019a 49       		.uleb128 0x49
 1892 019b 13       		.uleb128 0x13
 1893 019c 34       		.uleb128 0x34
 1894 019d 19       		.uleb128 0x19
 1895 019e 00       		.byte	0
 1896 019f 00       		.byte	0
 1897 01a0 21       		.uleb128 0x21
 1898 01a1 1D       		.uleb128 0x1d
 1899 01a2 01       		.byte	0x1
 1900 01a3 31       		.uleb128 0x31
 1901 01a4 13       		.uleb128 0x13
 1902 01a5 11       		.uleb128 0x11
 1903 01a6 01       		.uleb128 0x1
 1904 01a7 12       		.uleb128 0x12
 1905 01a8 06       		.uleb128 0x6
 1906 01a9 58       		.uleb128 0x58
 1907 01aa 0B       		.uleb128 0xb
 1908 01ab 59       		.uleb128 0x59
 1909 01ac 0B       		.uleb128 0xb
 1910 01ad 00       		.byte	0
 1911 01ae 00       		.byte	0
 1912 01af 22       		.uleb128 0x22
 1913 01b0 05       		.uleb128 0x5
 1914 01b1 00       		.byte	0
 1915 01b2 31       		.uleb128 0x31
 1916 01b3 13       		.uleb128 0x13
 1917 01b4 02       		.uleb128 0x2
 1918 01b5 18       		.uleb128 0x18
 1919 01b6 00       		.byte	0
 1920 01b7 00       		.byte	0
 1921 01b8 23       		.uleb128 0x23
 1922 01b9 1D       		.uleb128 0x1d
 1923 01ba 00       		.byte	0
 1924 01bb 31       		.uleb128 0x31
 1925 01bc 13       		.uleb128 0x13
 1926 01bd 11       		.uleb128 0x11
 1927 01be 01       		.uleb128 0x1
 1928 01bf 12       		.uleb128 0x12
 1929 01c0 06       		.uleb128 0x6
 1930 01c1 58       		.uleb128 0x58
 1931 01c2 0B       		.uleb128 0xb
 1932 01c3 59       		.uleb128 0x59
 1933 01c4 0B       		.uleb128 0xb
 1934 01c5 00       		.byte	0
ARM GAS  /tmp/cca3TaT1.s 			page 48


 1935 01c6 00       		.byte	0
 1936 01c7 24       		.uleb128 0x24
 1937 01c8 2E       		.uleb128 0x2e
 1938 01c9 01       		.byte	0x1
 1939 01ca 3F       		.uleb128 0x3f
 1940 01cb 19       		.uleb128 0x19
 1941 01cc 03       		.uleb128 0x3
 1942 01cd 0E       		.uleb128 0xe
 1943 01ce 3A       		.uleb128 0x3a
 1944 01cf 0B       		.uleb128 0xb
 1945 01d0 3B       		.uleb128 0x3b
 1946 01d1 0B       		.uleb128 0xb
 1947 01d2 27       		.uleb128 0x27
 1948 01d3 19       		.uleb128 0x19
 1949 01d4 49       		.uleb128 0x49
 1950 01d5 13       		.uleb128 0x13
 1951 01d6 11       		.uleb128 0x11
 1952 01d7 01       		.uleb128 0x1
 1953 01d8 12       		.uleb128 0x12
 1954 01d9 06       		.uleb128 0x6
 1955 01da 40       		.uleb128 0x40
 1956 01db 18       		.uleb128 0x18
 1957 01dc 9742     		.uleb128 0x2117
 1958 01de 19       		.uleb128 0x19
 1959 01df 01       		.uleb128 0x1
 1960 01e0 13       		.uleb128 0x13
 1961 01e1 00       		.byte	0
 1962 01e2 00       		.byte	0
 1963 01e3 25       		.uleb128 0x25
 1964 01e4 34       		.uleb128 0x34
 1965 01e5 00       		.byte	0
 1966 01e6 03       		.uleb128 0x3
 1967 01e7 0E       		.uleb128 0xe
 1968 01e8 3A       		.uleb128 0x3a
 1969 01e9 0B       		.uleb128 0xb
 1970 01ea 3B       		.uleb128 0x3b
 1971 01eb 05       		.uleb128 0x5
 1972 01ec 49       		.uleb128 0x49
 1973 01ed 13       		.uleb128 0x13
 1974 01ee 3F       		.uleb128 0x3f
 1975 01ef 19       		.uleb128 0x19
 1976 01f0 3C       		.uleb128 0x3c
 1977 01f1 19       		.uleb128 0x19
 1978 01f2 00       		.byte	0
 1979 01f3 00       		.byte	0
 1980 01f4 26       		.uleb128 0x26
 1981 01f5 34       		.uleb128 0x34
 1982 01f6 00       		.byte	0
 1983 01f7 03       		.uleb128 0x3
 1984 01f8 08       		.uleb128 0x8
 1985 01f9 3A       		.uleb128 0x3a
 1986 01fa 0B       		.uleb128 0xb
 1987 01fb 3B       		.uleb128 0x3b
 1988 01fc 05       		.uleb128 0x5
 1989 01fd 49       		.uleb128 0x49
 1990 01fe 13       		.uleb128 0x13
 1991 01ff 3F       		.uleb128 0x3f
ARM GAS  /tmp/cca3TaT1.s 			page 49


 1992 0200 19       		.uleb128 0x19
 1993 0201 3C       		.uleb128 0x3c
 1994 0202 19       		.uleb128 0x19
 1995 0203 00       		.byte	0
 1996 0204 00       		.byte	0
 1997 0205 27       		.uleb128 0x27
 1998 0206 2E       		.uleb128 0x2e
 1999 0207 00       		.byte	0
 2000 0208 3F       		.uleb128 0x3f
 2001 0209 19       		.uleb128 0x19
 2002 020a 03       		.uleb128 0x3
 2003 020b 0E       		.uleb128 0xe
 2004 020c 3A       		.uleb128 0x3a
 2005 020d 0B       		.uleb128 0xb
 2006 020e 3B       		.uleb128 0x3b
 2007 020f 0B       		.uleb128 0xb
 2008 0210 27       		.uleb128 0x27
 2009 0211 19       		.uleb128 0x19
 2010 0212 3C       		.uleb128 0x3c
 2011 0213 19       		.uleb128 0x19
 2012 0214 00       		.byte	0
 2013 0215 00       		.byte	0
 2014 0216 00       		.byte	0
 2015              		.section	.debug_aranges,"",%progbits
 2016 0000 3C000000 		.4byte	0x3c
 2017 0004 0200     		.2byte	0x2
 2018 0006 00000000 		.4byte	.Ldebug_info0
 2019 000a 04       		.byte	0x4
 2020 000b 00       		.byte	0
 2021 000c 0000     		.2byte	0
 2022 000e 0000     		.2byte	0
 2023 0010 00000000 		.4byte	.LFB272
 2024 0014 04000000 		.4byte	.LFE272-.LFB272
 2025 0018 00000000 		.4byte	.LFB273
 2026 001c 10000000 		.4byte	.LFE273-.LFB273
 2027 0020 00000000 		.4byte	.LFB274
 2028 0024 0A000000 		.4byte	.LFE274-.LFB274
 2029 0028 00000000 		.4byte	.LFB275
 2030 002c 08000000 		.4byte	.LFE275-.LFB275
 2031 0030 00000000 		.4byte	.LFB276
 2032 0034 08000000 		.4byte	.LFE276-.LFB276
 2033 0038 00000000 		.4byte	0
 2034 003c 00000000 		.4byte	0
 2035              		.section	.debug_ranges,"",%progbits
 2036              	.Ldebug_ranges0:
 2037 0000 00000000 		.4byte	.LFB272
 2038 0004 04000000 		.4byte	.LFE272
 2039 0008 00000000 		.4byte	.LFB273
 2040 000c 10000000 		.4byte	.LFE273
 2041 0010 00000000 		.4byte	.LFB274
 2042 0014 0A000000 		.4byte	.LFE274
 2043 0018 00000000 		.4byte	.LFB275
 2044 001c 08000000 		.4byte	.LFE275
 2045 0020 00000000 		.4byte	.LFB276
 2046 0024 08000000 		.4byte	.LFE276
 2047 0028 00000000 		.4byte	0
 2048 002c 00000000 		.4byte	0
ARM GAS  /tmp/cca3TaT1.s 			page 50


 2049              		.section	.debug_line,"",%progbits
 2050              	.Ldebug_line0:
 2051 0000 DF020000 		.section	.debug_str,"MS",%progbits,1
 2051      02006602 
 2051      00000201 
 2051      FB0E0D00 
 2051      01010101 
 2052              	.LASF49:
 2053 0000 72656164 		.ascii	"ready_list_t\000"
 2053      795F6C69 
 2053      73745F74 
 2053      00
 2054              	.LASF83:
 2055 000d 44494552 		.ascii	"DIER\000"
 2055      00
 2056              	.LASF97:
 2057 0012 77747472 		.ascii	"wttrp\000"
 2057      7000
 2058              	.LASF94:
 2059 0018 7264796D 		.ascii	"rdymsg\000"
 2059      736700
 2060              	.LASF16:
 2061 001f 75696E74 		.ascii	"uint64_t\000"
 2061      36345F74 
 2061      00
 2062              	.LASF5:
 2063 0028 5F5F7569 		.ascii	"__uint8_t\000"
 2063      6E74385F 
 2063      7400
 2064              	.LASF81:
 2065 0032 706F7274 		.ascii	"port_intctx\000"
 2065      5F696E74 
 2065      63747800 
 2066              	.LASF120:
 2067 003e 5F5F6675 		.ascii	"__func__.7094\000"
 2067      6E635F5F 
 2067      2E373039 
 2067      3400
 2068              	.LASF68:
 2069 004c 73797374 		.ascii	"system_debug_t\000"
 2069      656D5F64 
 2069      65627567 
 2069      5F7400
 2070              	.LASF125:
 2071 005b 2E2E2F43 		.ascii	"../ChibiOS/os/hal/src/st.c\000"
 2071      68696269 
 2071      4F532F6F 
 2071      732F6861 
 2071      6C2F7372 
 2072              	.LASF12:
 2073 0076 6C6F6E67 		.ascii	"long long unsigned int\000"
 2073      206C6F6E 
 2073      6720756E 
 2073      7369676E 
 2073      65642069 
 2074              	.LASF95:
 2075 008d 65786974 		.ascii	"exitcode\000"
ARM GAS  /tmp/cca3TaT1.s 			page 51


 2075      636F6465 
 2075      00
 2076              	.LASF75:
 2077 0096 6D61696E 		.ascii	"mainthread\000"
 2077      74687265 
 2077      616400
 2078              	.LASF98:
 2079 00a1 73656E74 		.ascii	"sentmsg\000"
 2079      6D736700 
 2080              	.LASF65:
 2081 00a9 76697274 		.ascii	"virtual_timers_list_t\000"
 2081      75616C5F 
 2081      74696D65 
 2081      72735F6C 
 2081      6973745F 
 2082              	.LASF123:
 2083 00bf 49544D5F 		.ascii	"ITM_RxBuffer\000"
 2083      52784275 
 2083      66666572 
 2083      00
 2084              	.LASF130:
 2085 00cc 73745F6C 		.ascii	"st_lld_init\000"
 2085      6C645F69 
 2085      6E697400 
 2086              	.LASF87:
 2087 00d8 42445452 		.ascii	"BDTR\000"
 2087      00
 2088              	.LASF48:
 2089 00dd 63685F74 		.ascii	"ch_threads_queue\000"
 2089      68726561 
 2089      64735F71 
 2089      75657565 
 2089      00
 2090              	.LASF29:
 2091 00ee 705F7072 		.ascii	"p_prio\000"
 2091      696F00
 2092              	.LASF84:
 2093 00f5 43434D52 		.ascii	"CCMR1\000"
 2093      3100
 2094              	.LASF85:
 2095 00fb 43434D52 		.ascii	"CCMR2\000"
 2095      3200
 2096              	.LASF89:
 2097 0101 43434D52 		.ascii	"CCMR3\000"
 2097      3300
 2098              	.LASF1:
 2099 0107 7369676E 		.ascii	"signed char\000"
 2099      65642063 
 2099      68617200 
 2100              	.LASF106:
 2101 0113 6D5F7175 		.ascii	"m_queue\000"
 2101      65756500 
 2102              	.LASF74:
 2103 011b 76746C69 		.ascii	"vtlist\000"
 2103      737400
 2104              	.LASF72:
 2105 0122 63685F73 		.ascii	"ch_system\000"
ARM GAS  /tmp/cca3TaT1.s 			page 52


 2105      79737465 
 2105      6D00
 2106              	.LASF7:
 2107 012c 6C6F6E67 		.ascii	"long int\000"
 2107      20696E74 
 2107      00
 2108              	.LASF126:
 2109 0135 2F6E6673 		.ascii	"/nfs/nfs4/home/jacoroge/p442-submissions/milestone2"
 2109      2F6E6673 
 2109      342F686F 
 2109      6D652F6A 
 2109      61636F72 
 2110 0168 00       		.ascii	"\000"
 2111              	.LASF19:
 2112 0169 74737461 		.ascii	"tstate_t\000"
 2112      74655F74 
 2112      00
 2113              	.LASF86:
 2114 0172 43434552 		.ascii	"CCER\000"
 2114      00
 2115              	.LASF10:
 2116 0177 6C6F6E67 		.ascii	"long long int\000"
 2116      206C6F6E 
 2116      6720696E 
 2116      7400
 2117              	.LASF31:
 2118 0185 705F6E65 		.ascii	"p_newer\000"
 2118      77657200 
 2119              	.LASF103:
 2120 018d 735F7175 		.ascii	"s_queue\000"
 2120      65756500 
 2121              	.LASF4:
 2122 0195 73686F72 		.ascii	"short unsigned int\000"
 2122      7420756E 
 2122      7369676E 
 2122      65642069 
 2122      6E7400
 2123              	.LASF54:
 2124 01a8 725F6E65 		.ascii	"r_newer\000"
 2124      77657200 
 2125              	.LASF42:
 2126 01b0 705F6D70 		.ascii	"p_mpool\000"
 2126      6F6F6C00 
 2127              	.LASF78:
 2128 01b8 72656761 		.ascii	"regarm_t\000"
 2128      726D5F74 
 2128      00
 2129              	.LASF61:
 2130 01c1 76745F70 		.ascii	"vt_prev\000"
 2130      72657600 
 2131              	.LASF110:
 2132 01c9 6D757465 		.ascii	"mutex_t\000"
 2132      785F7400 
 2133              	.LASF76:
 2134 01d1 69646C65 		.ascii	"idle_thread_wa\000"
 2134      5F746872 
 2134      6561645F 
ARM GAS  /tmp/cca3TaT1.s 			page 53


 2134      776100
 2135              	.LASF24:
 2136 01e0 636E745F 		.ascii	"cnt_t\000"
 2136      7400
 2137              	.LASF0:
 2138 01e6 756E7369 		.ascii	"unsigned int\000"
 2138      676E6564 
 2138      20696E74 
 2138      00
 2139              	.LASF60:
 2140 01f3 76745F6E 		.ascii	"vt_next\000"
 2140      65787400 
 2141              	.LASF99:
 2142 01fb 77747365 		.ascii	"wtsemp\000"
 2142      6D7000
 2143              	.LASF38:
 2144 0202 705F6D73 		.ascii	"p_msgqueue\000"
 2144      67717565 
 2144      756500
 2145              	.LASF104:
 2146 020d 735F636E 		.ascii	"s_cnt\000"
 2146      7400
 2147              	.LASF82:
 2148 0213 534D4352 		.ascii	"SMCR\000"
 2148      00
 2149              	.LASF45:
 2150 0218 63685F74 		.ascii	"ch_thread\000"
 2150      68726561 
 2150      6400
 2151              	.LASF22:
 2152 0222 6D73675F 		.ascii	"msg_t\000"
 2152      7400
 2153              	.LASF71:
 2154 0228 63685F73 		.ascii	"ch_system_t\000"
 2154      79737465 
 2154      6D5F7400 
 2155              	.LASF91:
 2156 0234 73746D33 		.ascii	"stm32_tim_t\000"
 2156      325F7469 
 2156      6D5F7400 
 2157              	.LASF50:
 2158 0240 63685F72 		.ascii	"ch_ready_list\000"
 2158      65616479 
 2158      5F6C6973 
 2158      7400
 2159              	.LASF23:
 2160 024e 6576656E 		.ascii	"eventmask_t\000"
 2160      746D6173 
 2160      6B5F7400 
 2161              	.LASF6:
 2162 025a 5F5F696E 		.ascii	"__int32_t\000"
 2162      7433325F 
 2162      7400
 2163              	.LASF18:
 2164 0264 746D6F64 		.ascii	"tmode_t\000"
 2164      655F7400 
 2165              	.LASF112:
ARM GAS  /tmp/cca3TaT1.s 			page 54


 2166 026c 73745F6C 		.ascii	"st_lld_start_alarm\000"
 2166      6C645F73 
 2166      74617274 
 2166      5F616C61 
 2166      726D00
 2167              	.LASF79:
 2168 027f 73746B61 		.ascii	"stkalign_t\000"
 2168      6C69676E 
 2168      5F7400
 2169              	.LASF37:
 2170 028a 705F7761 		.ascii	"p_waiting\000"
 2170      6974696E 
 2170      6700
 2171              	.LASF77:
 2172 0294 73697A65 		.ascii	"sizetype\000"
 2172      74797065 
 2172      00
 2173              	.LASF43:
 2174 029d 74687265 		.ascii	"thread_reference_t\000"
 2174      61645F72 
 2174      65666572 
 2174      656E6365 
 2174      5F7400
 2175              	.LASF66:
 2176 02b0 63685F76 		.ascii	"ch_virtual_timers_list\000"
 2176      69727475 
 2176      616C5F74 
 2176      696D6572 
 2176      735F6C69 
 2177              	.LASF67:
 2178 02c7 76745F6C 		.ascii	"vt_lasttime\000"
 2178      61737474 
 2178      696D6500 
 2179              	.LASF32:
 2180 02d3 705F6F6C 		.ascii	"p_older\000"
 2180      64657200 
 2181              	.LASF115:
 2182 02db 7374496E 		.ascii	"stInit\000"
 2182      697400
 2183              	.LASF53:
 2184 02e2 725F6374 		.ascii	"r_ctx\000"
 2184      7800
 2185              	.LASF93:
 2186 02e8 746D5F63 		.ascii	"tm_calibration_t\000"
 2186      616C6962 
 2186      72617469 
 2186      6F6E5F74 
 2186      00
 2187              	.LASF114:
 2188 02f9 74696D65 		.ascii	"time\000"
 2188      00
 2189              	.LASF56:
 2190 02fe 725F6375 		.ascii	"r_current\000"
 2190      7272656E 
 2190      7400
 2191              	.LASF55:
 2192 0308 725F6F6C 		.ascii	"r_older\000"
ARM GAS  /tmp/cca3TaT1.s 			page 55


 2192      64657200 
 2193              	.LASF11:
 2194 0310 5F5F7569 		.ascii	"__uint64_t\000"
 2194      6E743634 
 2194      5F7400
 2195              	.LASF20:
 2196 031b 74726566 		.ascii	"trefs_t\000"
 2196      735F7400 
 2197              	.LASF58:
 2198 0323 76697274 		.ascii	"virtual_timer_t\000"
 2198      75616C5F 
 2198      74696D65 
 2198      725F7400 
 2199              	.LASF28:
 2200 0333 705F7072 		.ascii	"p_prev\000"
 2200      657600
 2201              	.LASF21:
 2202 033a 74707269 		.ascii	"tprio_t\000"
 2202      6F5F7400 
 2203              	.LASF69:
 2204 0342 63685F73 		.ascii	"ch_system_debug\000"
 2204      79737465 
 2204      6D5F6465 
 2204      62756700 
 2205              	.LASF111:
 2206 0352 5F426F6F 		.ascii	"_Bool\000"
 2206      6C00
 2207              	.LASF14:
 2208 0358 696E7433 		.ascii	"int32_t\000"
 2208      325F7400 
 2209              	.LASF2:
 2210 0360 756E7369 		.ascii	"unsigned char\000"
 2210      676E6564 
 2210      20636861 
 2210      7200
 2211              	.LASF40:
 2212 036e 705F6D74 		.ascii	"p_mtxlist\000"
 2212      786C6973 
 2212      7400
 2213              	.LASF3:
 2214 0378 73686F72 		.ascii	"short int\000"
 2214      7420696E 
 2214      7400
 2215              	.LASF34:
 2216 0382 705F7374 		.ascii	"p_state\000"
 2216      61746500 
 2217              	.LASF52:
 2218 038a 725F7072 		.ascii	"r_prio\000"
 2218      696F00
 2219              	.LASF101:
 2220 0391 65776D61 		.ascii	"ewmask\000"
 2220      736B00
 2221              	.LASF27:
 2222 0398 705F6E65 		.ascii	"p_next\000"
 2222      787400
 2223              	.LASF121:
 2224 039f 5F5F6675 		.ascii	"__func__.7101\000"
ARM GAS  /tmp/cca3TaT1.s 			page 56


 2224      6E635F5F 
 2224      2E373130 
 2224      3100
 2225              	.LASF13:
 2226 03ad 75696E74 		.ascii	"uint8_t\000"
 2226      385F7400 
 2227              	.LASF122:
 2228 03b5 5F5F6675 		.ascii	"__func__.7105\000"
 2228      6E635F5F 
 2228      2E373130 
 2228      3500
 2229              	.LASF59:
 2230 03c3 63685F76 		.ascii	"ch_virtual_timer\000"
 2230      69727475 
 2230      616C5F74 
 2230      696D6572 
 2230      00
 2231              	.LASF128:
 2232 03d4 73745F6C 		.ascii	"st_lld_get_alarm\000"
 2232      6C645F67 
 2232      65745F61 
 2232      6C61726D 
 2232      00
 2233              	.LASF102:
 2234 03e5 63685F73 		.ascii	"ch_semaphore\000"
 2234      656D6170 
 2234      686F7265 
 2234      00
 2235              	.LASF90:
 2236 03f2 43435852 		.ascii	"CCXR\000"
 2236      00
 2237              	.LASF39:
 2238 03f7 705F6570 		.ascii	"p_epending\000"
 2238      656E6469 
 2238      6E6700
 2239              	.LASF15:
 2240 0402 75696E74 		.ascii	"uint32_t\000"
 2240      33325F74 
 2240      00
 2241              	.LASF100:
 2242 040b 77746D74 		.ascii	"wtmtxp\000"
 2242      787000
 2243              	.LASF51:
 2244 0412 725F7175 		.ascii	"r_queue\000"
 2244      65756500 
 2245              	.LASF62:
 2246 041a 76745F64 		.ascii	"vt_delta\000"
 2246      656C7461 
 2246      00
 2247              	.LASF46:
 2248 0423 63685F74 		.ascii	"ch_threads_list\000"
 2248      68726561 
 2248      64735F6C 
 2248      69737400 
 2249              	.LASF9:
 2250 0433 6C6F6E67 		.ascii	"long unsigned int\000"
 2250      20756E73 
ARM GAS  /tmp/cca3TaT1.s 			page 57


 2250      69676E65 
 2250      6420696E 
 2250      7400
 2251              	.LASF117:
 2252 0445 73745374 		.ascii	"stStopAlarm\000"
 2252      6F70416C 
 2252      61726D00 
 2253              	.LASF109:
 2254 0451 63686172 		.ascii	"char\000"
 2254      00
 2255              	.LASF88:
 2256 0456 444D4152 		.ascii	"DMAR\000"
 2256      00
 2257              	.LASF26:
 2258 045b 74687265 		.ascii	"thread_t\000"
 2258      61645F74 
 2258      00
 2259              	.LASF108:
 2260 0464 6D5F6E65 		.ascii	"m_next\000"
 2260      787400
 2261              	.LASF25:
 2262 046b 73797374 		.ascii	"systime_t\000"
 2262      696D655F 
 2262      7400
 2263              	.LASF41:
 2264 0475 705F7265 		.ascii	"p_realprio\000"
 2264      616C7072 
 2264      696F00
 2265              	.LASF57:
 2266 0480 76746675 		.ascii	"vtfunc_t\000"
 2266      6E635F74 
 2266      00
 2267              	.LASF8:
 2268 0489 5F5F7569 		.ascii	"__uint32_t\000"
 2268      6E743332 
 2268      5F7400
 2269              	.LASF70:
 2270 0494 70616E69 		.ascii	"panic_msg\000"
 2270      635F6D73 
 2270      6700
 2271              	.LASF92:
 2272 049e 6F666673 		.ascii	"offset\000"
 2272      657400
 2273              	.LASF116:
 2274 04a5 73745374 		.ascii	"stStartAlarm\000"
 2274      61727441 
 2274      6C61726D 
 2274      00
 2275              	.LASF80:
 2276 04b2 636F6E74 		.ascii	"context\000"
 2276      65787400 
 2277              	.LASF17:
 2278 04ba 7274636E 		.ascii	"rtcnt_t\000"
 2278      745F7400 
 2279              	.LASF127:
 2280 04c2 73745F6C 		.ascii	"st_lld_stop_alarm\000"
 2280      6C645F73 
ARM GAS  /tmp/cca3TaT1.s 			page 58


 2280      746F705F 
 2280      616C6172 
 2280      6D00
 2281              	.LASF64:
 2282 04d4 76745F70 		.ascii	"vt_par\000"
 2282      617200
 2283              	.LASF47:
 2284 04db 74687265 		.ascii	"threads_queue_t\000"
 2284      6164735F 
 2284      71756575 
 2284      655F7400 
 2285              	.LASF105:
 2286 04eb 63685F6D 		.ascii	"ch_mutex\000"
 2286      75746578 
 2286      00
 2287              	.LASF36:
 2288 04f4 705F7265 		.ascii	"p_refs\000"
 2288      667300
 2289              	.LASF73:
 2290 04fb 726C6973 		.ascii	"rlist\000"
 2290      7400
 2291              	.LASF118:
 2292 0501 73745365 		.ascii	"stSetAlarm\000"
 2292      74416C61 
 2292      726D00
 2293              	.LASF124:
 2294 050c 474E5520 		.ascii	"GNU C 4.8.4 20140526 (release) [ARM/embedded-4_8-br"
 2294      4320342E 
 2294      382E3420 
 2294      32303134 
 2294      30353236 
 2295 053f 616E6368 		.ascii	"anch revision 211358] -mcpu=cortex-m4 -mno-thumb-in"
 2295      20726576 
 2295      6973696F 
 2295      6E203231 
 2295      31333538 
 2296 0572 74657277 		.ascii	"terwork -mthumb -ggdb -O2 -fomit-frame-pointer -fal"
 2296      6F726B20 
 2296      2D6D7468 
 2296      756D6220 
 2296      2D676764 
 2297 05a5 69676E2D 		.ascii	"ign-functions=16 -ffunction-sections -fdata-section"
 2297      66756E63 
 2297      74696F6E 
 2297      733D3136 
 2297      202D6666 
 2298 05d8 73202D66 		.ascii	"s -fno-common -flto\000"
 2298      6E6F2D63 
 2298      6F6D6D6F 
 2298      6E202D66 
 2298      6C746F00 
 2299              	.LASF129:
 2300 05ec 73744765 		.ascii	"stGetAlarm\000"
 2300      74416C61 
 2300      726D00
 2301              	.LASF96:
 2302 05f7 77746F62 		.ascii	"wtobjp\000"
ARM GAS  /tmp/cca3TaT1.s 			page 59


 2302      6A7000
 2303              	.LASF33:
 2304 05fe 705F6E61 		.ascii	"p_name\000"
 2304      6D6500
 2305              	.LASF44:
 2306 0605 74687265 		.ascii	"threads_list_t\000"
 2306      6164735F 
 2306      6C697374 
 2306      5F7400
 2307              	.LASF119:
 2308 0614 61627374 		.ascii	"abstime\000"
 2308      696D6500 
 2309              	.LASF35:
 2310 061c 705F666C 		.ascii	"p_flags\000"
 2310      61677300 
 2311              	.LASF113:
 2312 0624 73745F6C 		.ascii	"st_lld_set_alarm\000"
 2312      6C645F73 
 2312      65745F61 
 2312      6C61726D 
 2312      00
 2313              	.LASF107:
 2314 0635 6D5F6F77 		.ascii	"m_owner\000"
 2314      6E657200 
 2315              	.LASF30:
 2316 063d 705F6374 		.ascii	"p_ctx\000"
 2316      7800
 2317              	.LASF63:
 2318 0643 76745F66 		.ascii	"vt_func\000"
 2318      756E6300 
 2319              		.comm	__gnu_lto_v1,1,1
 2320              		.ident	"GCC: (GNU Tools for ARM Embedded Processors) 4.8.4 20140526 (release) [ARM/embedded-4_8-br
ARM GAS  /tmp/cca3TaT1.s 			page 60


DEFINED SYMBOLS
                            *ABS*:00000000 st.c
     /tmp/cca3TaT1.s:249    .text.stInit:00000000 $t
     /tmp/cca3TaT1.s:255    .text.stInit:00000000 stInit
     /tmp/cca3TaT1.s:270    .text.stStartAlarm:00000000 $t
     /tmp/cca3TaT1.s:276    .text.stStartAlarm:00000000 stStartAlarm
     /tmp/cca3TaT1.s:307    .text.stStopAlarm:00000000 $t
     /tmp/cca3TaT1.s:313    .text.stStopAlarm:00000000 stStopAlarm
     /tmp/cca3TaT1.s:333    .text.stSetAlarm:00000000 $t
     /tmp/cca3TaT1.s:339    .text.stSetAlarm:00000000 stSetAlarm
     /tmp/cca3TaT1.s:360    .text.stGetAlarm:00000000 $t
     /tmp/cca3TaT1.s:366    .text.stGetAlarm:00000000 stGetAlarm
                            *COM*:00000001 __gnu_lto_v1
                     .debug_frame:00000010 $d

UNDEFINED SYMBOLS
st_lld_init
