ARM GAS  /tmp/ccMIUx5X.s 			page 1


   1              		.syntax unified
   2              		.cpu cortex-m4
   3              		.fpu softvfp
   4              		.eabi_attribute 20, 1
   5              		.eabi_attribute 21, 1
   6              		.eabi_attribute 23, 3
   7              		.eabi_attribute 24, 1
   8              		.eabi_attribute 25, 1
   9              		.eabi_attribute 26, 1
  10              		.eabi_attribute 30, 2
  11              		.eabi_attribute 34, 1
  12              		.eabi_attribute 18, 4
  13              		.thumb
  14              		.file	"testpools.c"
  15              		.text
  16              	.Ltext0:
  17              		.section	.gnu.lto_.jmpfuncs.16b3f409eaff06ab,"",%progbits
  18 0000 789C6362 		.ascii	"x\234cb`b\300\006t\031!4\013\003\003#\0033S5\303\257"
  18      6062C006 
  18      74192134 
  18      0B030323 
  18      03335335 
  19 0016 868E0681 		.ascii	"\206\216\006\201LF\206\\\210\004S\004c&#\343\011&(\013"
  19      4C46865C 
  19      88045304 
  19      632623E3 
  19      0926280B 
  20 002a 64083303 		.ascii	"d\0103\003\023\246:\240v,\232!\272\231\361K\263\200"
  20      13A63AA0 
  20      762C9A21 
  20      BA99F14B 
  20      B380
  21 003c D8B8AC66 		.ascii	"\330\270\254f\026\0002\340R,\311\214\004\354b\005\261"
  21      160032E0 
  21      522CC98C 
  21      04EC6205 
  21      B1
  22 004d 59E15C26 		.ascii	"Y\341\\&\374\252\031qHcq\015\314= \013\000\310\225/"
  22      FCAA1971 
  22      4863710D 
  22      CC3D200B 
  22      00C8952F 
  23 0061 43       		.ascii	"C"
  24              		.text
  25              		.section	.gnu.lto_.inline.16b3f409eaff06ab,"",%progbits
  26 0000 789C6362 		.ascii	"x\234cb`b\300\006\366@i\026\006\006f&F\260\"\266\005"
  26      6062C006 
  26      F6406916 
  26      06066626 
  26      46B022B6 
  27 0015 F260B58C 		.ascii	"\362`\265\214\014\354\374\250\",\274@U\014 \254\363"
  27      0CECFCA8 
  27      222CBC40 
  27      550C20AC 
  27      F3
  28 0026 9D112825 		.ascii	"\235\021(%\3230\203\015.\311\314\003R<\301\017D3\002"
  28      D330830D 
ARM GAS  /tmp/ccMIUx5X.s 			page 2


  28      2EC9CC03 
  28      523CC10F 
  28      443302
  29 0039 95C2780C 		.ascii	"\225\302x\014`\036\003\230\0077\000,\012\"A\242\254"
  29      601E0398 
  29      0737002C 
  29      0A2241A2 
  29      AC
  30 004a 0C0A6B40 		.ascii	"\014\012k@\306\211\264\235fF\330\316\005\265\020\331"
  30      C689B49D 
  30      6646D8CE 
  30      05B510D9 
  31 005a 14541B40 		.ascii	"\024T\033@fM\360c`\000\000\2755\017\300"
  31      664DF063 
  31      600000BD 
  31      350FC0
  32              		.text
  33              		.section	.gnu.lto_.pureconst.16b3f409eaff06ab,"",%progbits
  34 0000 789C6362 		.ascii	"x\234cb`b\340d\200\000\026\006\006F\011f\011V\011\000"
  34      6062E064 
  34      80001606 
  34      06460966 
  34      09560900 
  35 0014 02160063 		.ascii	"\002\026\000c"
  36              		.text
  37              		.section	.gnu.lto_null_provider.16b3f409eaff06ab,"",%progbits
  38 0000 789C6362 		.ascii	"x\234cb`b@\007\222@\034\005\304\212@\314\310\314\300"
  38      60624007 
  38      92401C05 
  38      C48A40CC 
  38      C8CCC0
  39 0013 C834E11C 		.ascii	"\3104\341\034\003C#\007\023##\210\301\300\310P\317\304"
  39      03432307 
  39      13232388 
  39      C1C0C850 
  39      CFC4
  40 0025 581FC908 		.ascii	"X\037\311\010V\273\236\351\300\203\377\377\327\375x"
  40      56BB9EE9 
  40      C083FFFF 
  40      D7FD78
  41 0034 FAA88351 		.ascii	"\372\250\203Q\020d\024+CKC\303\004\005\006\206d\260"
  41      1064142B 
  41      434B43C3 
  41      04050686 
  41      64B0
  42 0046 82102009 		.ascii	"\202\020 \011\322\025\312\310\004\242\231/24>\370\317"
  42      D215CAC8 
  42      04A2992F 
  42      32343EF8 
  42      CF
  43 0057 96C8B890 		.ascii	"\226\310\270\220\221\225!\2021\223\021ni\010##H\001"
  43      91952182 
  43      3193116E 
  43      69082323 
  43      4801
  44 0069 C808793D 		.ascii	"\310\010y==}\347\214\314\244L\377`\375\222\324\342\022"
  44      3D7DE78C 
ARM GAS  /tmp/ccMIUx5X.s 			page 3


  44      CCA44CFF 
  44      60FD92D4 
  44      E212
  45 007b FDA21230 		.ascii	"\375\242\0220]\220\237\237S\254\227\314\000\000\220"
  45      5D909F9F 
  45      53AC97CC 
  45      000090
  46 008a E7253B   		.ascii	"\347%;"
  47              		.text
  48              		.section	.gnu.lto_pools1_setup.16b3f409eaff06ab,"",%progbits
  49 0000 789C6362 		.ascii	"x\234cb`b@\007\222@<\027\210\025\201\230\221\231\201"
  49      60624007 
  49      92403C17 
  49      88158198 
  49      919981
  50 0013 9169C239 		.ascii	"\221i\3029\006\206F\016&FF\020\203\201\221\241\236\211"
  50      0686460E 
  50      26464610 
  50      838191A1 
  50      9E89
  51 0025 B13E9211 		.ascii	"\261>\222\021\254v=\323\201\007\377\377\257\233\322"
  51      AC763DD3 
  51      8107FFFF 
  51      AF9BD2
  52 0034 B6E40EE3 		.ascii	"\266\344\016\343\014&f\240\010+CKC\303\004\005\006\206"
  52      0C2666A0 
  52      082B434B 
  52      43C30405 
  52      0686
  53 0046 64B08A10 		.ascii	"d\260\212\020 \011\322\026\312\310\004\242\231\3173"
  53      2009D216 
  53      CAC804A2 
  53      99CF33
  54 0055 B43DE879 		.ascii	"\264=\350y\314\225\310\270\220\221\025(]\315\360\253"
  54      CC95C8B8 
  54      90911528 
  54      5DCDF0AB 
  55 0065 A1A34120 		.ascii	"\241\243A \223\021\250\034b\"H\204#\223\2211\227\221"
  55      9311A81C 
  55      62224884 
  55      23939131 
  55      9791
  56 0077 01AA2882 		.ascii	"\001\252(\2021\223\221\351\004\023\230\006\332\220\311"
  56      319391E9 
  56      04139806 
  56      DA90C9
  57 0086 C8C2C070 		.ascii	"\310\302\300p\221\241\361A\2572\314\024\010\010\001"
  57      91A1F141 
  57      AF32CC14 
  57      080801
  58 0095 9A00B402 		.ascii	"\232\000\264\002\344!y==}\347\214\314\244L\377`\375"
  58      E421793D 
  58      3D7DE78C 
  58      CCA44CFF 
  58      60FD
  59 00a7 92D4E212 		.ascii	"\222\324\342\022\375\242\0220]\220\237\237S\254\227"
  59      FDA21230 
ARM GAS  /tmp/ccMIUx5X.s 			page 4


  59      5D909F9F 
  59      53AC97
  60 00b6 CC0000E1 		.ascii	"\314\000\000\341:3x"
  60      3A3378
  61              		.text
  62              		.section	.gnu.lto_pools1_execute.part.0.16b3f409eaff06ab,"",%progbits
  63 0000 789C9D54 		.ascii	"x\234\235T=h\024Q\020\236yo\337\356\333\237\273\213"
  63      3D681451 
  63      109E796F 
  63      DFEEDB9F 
  63      BB8B
  64 0012 5A09A221 		.ascii	"Z\011\242!\326\336\201`maeea\016\264\214\213\\\026\014"
  64      D6DE8160 
  64      6D616565 
  64      610EB48C 
  64      8B5C160C 
  65 0026 1193CE22 		.ascii	"\021\223\316\"\233\273S\322\004\016m\202Z\030\322\012"
  65      9BBB53D2 
  65      040E6D82 
  65      5A18D20A 
  66 0036 56120958 		.ascii	"V\022\011X\234UNH\2164\222@\212\023%\026ZY\211\205\347"
  66      9C554E48 
  66      8E349240 
  66      8A132516 
  66      5A598985 
  67 004b CCDB9F78 		.ascii	"\314\333\237xw\271B\027\356\315\2337\363\315\314\367"
  67      77B94217 
  67      EECD9B37 
  67      F3CDCCF7 
  68 005b BDDD1320 		.ascii	"\275\335\023 `\370i\321\257c\001\\$\213\005\300\240"
  68      60F869D1 
  68      AF63015C 
  68      248B05C0 
  68      A0
  69 006c B54B9B00 		.ascii	"\265K\233\000\205\261\002-ceb\333\332\022r\265\015\020"
  69      85B1022D 
  69      636562DB 
  69      DA1272B5 
  69      0D10
  70 007e 7BAA5180 		.ascii	"{\252Q\2008P\250M\334\026\376{I\247\316\356\007\012"
  70      3850A84D 
  70      DC16FE7B 
  70      49A7CEEE 
  70      070A
  71 0090 064E72DC 		.ascii	"\006Nr\334\326Z\330I\272k\322]\341\177\254\220\347m"
  71      D65AD849 
  71      BA6BD25D 
  71      E17FAC90 
  71      E76D
  72 00a2 9D27CF43 		.ascii	"\235'\317C\237\263\226\265\217\310\033@X\012\204\264"
  72      9FB396B5 
  72      8FC81B40 
  72      580A84B4 
  73 00b2 94ED68D7 		.ascii	"\224\355h\327\363q\3516\362\2048\005\353q\334\352=:"
  73      F371E936 
  73      F2843805 
  73      EB71DCEA 
ARM GAS  /tmp/ccMIUx5X.s 			page 5


  73      3D3A
  74 00c4 7A7B367E 		.ascii	"z{6~Yo\305\277\373}\214\220\270L!\204\010\267\310\301"
  74      596FC5BF 
  74      FB7D8C90 
  74      B84C2184 
  74      08B7C8C1 
  75 00d8 49638435 		.ascii	"Ic\2045H\356\265\210{\375\376\301\017}\016a\006\327"
  75      48EEB588 
  75      7BFDFEC1 
  75      0F7D0E61 
  75      06D7
  76 00ea A9928008 		.ascii	"\251\222\200\010\245L\035\213\035E\213e\363\342\244"
  76      A54C1D8B 
  76      1D458B65 
  76      F3E2A4
  77 00f9 C73AB52E 		.ascii	"\307:\265.\207=\216\370\274\004\354\026xWL\023J\251"
  77      873D8EF8 
  77      BC04EC16 
  77      78574C13 
  77      4AA9
  78 010b A5474193 		.ascii	"\245GA\223f\234\314\374\320L>M+\361\236\306\200\214"
  78      669CCCFC 
  78      D04C3E4D 
  78      2BF19EC6 
  78      808C
  79 011d ACA26003 		.ascii	"\254\242`\003p\000E\036\226\022\202\3037\263\000U\224"
  79      7000451E 
  79      961282C3 
  79      37B30055 
  79      94
  80 012e 402AC91D 		.ascii	"@*\311\035\250\037\356\177\373\2113\270\201\012j(.\301"
  80      A81FEE7F 
  80      FB8933B8 
  80      810A6A28 
  80      2EC1
  81 0140 AB782242 		.ascii	"\253x\"B\365\034\236-\267xg?\204_\361\032\357\2349\323"
  81      F51C9E2D 
  81      B778673F 
  81      845FF11A 
  81      EF9C39D3 
  82 0154 81EB3886 		.ascii	"\201\3538\206j\0151\247\335\005\225\324\000`\300\012"
  82      6A0D31A7 
  82      DD0595D4 
  82      0060C00A 
  83 0164 03749826 		.ascii	"\003t\230&\360\211\216\320\235\303\264\021w\212\320"
  83      F0898ED0 
  83      9DC3B411 
  83      778AD0
  84 0173 03D881C6 		.ascii	"\003\330\201\306Jcs\365z\326_RM3(\003; \222\363\204"
  84      4A6373F5 
  84      7AD65F52 
  84      4D332803 
  84      3B2092F3 
  85 0188 2245935E 		.ascii	"\"E\223^U\264\200.Ov\240\256!\017\022b\033\232G\313"
  85      55B4802E 
  85      4F76A0AE 
  85      210F1262 
ARM GAS  /tmp/ccMIUx5X.s 			page 6


  85      1B9A47CB 
  86 019c 4E562B29 		.ascii	"NV+)t|=\007\2005,\012Z\244\\s\271\214\312\304)\245\342"
  86      747C3D07 
  86      80352C0A 
  86      5AA45C73 
  86      B98CCAC4 
  87 01b3 582F368D 		.ascii	"X/6\21586<\275\"\273\320\354mm\344\322X9/?D1\206WD\272"
  87      38363CBD 
  87      22BBD0EC 
  87      6D6DE4D2 
  87      58392F3F 
  88 01cd 33A97D99 		.ascii	"3\251}\231\301\024!\271\272\034P\251\226\350j\312\025"
  88      C11421B9 
  88      BA1C50A9 
  88      96E86ACA 
  88      15
  89 01de C29418A7 		.ascii	"\302\224\030\247\025%c\",\0316\337\363\3566\007\007"
  89      15256322 
  89      2C1936DF 
  89      F3EE3607 
  89      07
  90 01ef 5EB52ADD 		.ascii	"^\265*\335\302\247\313\322(\370\365XA]Cg\274\202:\303"
  90      C2A7CBD2 
  90      28F8F558 
  90      415D4367 
  90      BC823AC3 
  91 0203 6AF87275 		.ascii	"j\370ruH@gX@gD@\247\206%E\002j'\021\320\205=\317\350"
  91      48406758 
  91      40674440 
  91      A7862545 
  91      026A2711 
  92 021c F42ECC40 		.ascii	"\364.\314@\356\277\310\324\315e\362\010y\222L\376\030"
  92      EEBFC8D4 
  92      CD65F208 
  92      79924CFE 
  92      18
  93 022d 992CC68C 		.ascii	"\231,\306\214\312\344\237 \223\007O,\032\362qo\373\263"
  93      CAE49F20 
  93      93074F2C 
  93      1AF2716F 
  93      FBB3
  94 023f 37F28E4E 		.ascii	"7\362\216N\204i\372\350\220\\\352\324D\0268\035\242"
  94      8469FAE8 
  94      905CEAD4 
  94      4416381D 
  94      A2
  95 0250 CAA73FC3 		.ascii	"\312\247?\30336{\235\234u\360\177\254\013\204\034e\375"
  95      33367B9D 
  95      9C75F07F 
  95      AC0B841C 
  95      65FD
  96 0262 D77883A4 		.ascii	"\327x\203\244\015\304\220N\230\371\374\376\356\321\277"
  96      0DC4904E 
  96      98F9FCFE 
  96      EED1BF
  97 0271 D931DD69 		.ascii	"\3311\335i\372\016\032\005\236\340B\271\\\2716\033\335"
  97      FA0E1A05 
ARM GAS  /tmp/ccMIUx5X.s 			page 7


  97      9EE042B9 
  97      5CB9361B 
  97      DD
  98 0282 896EDCAC 		.ascii	"\211n\334\254,\336]X\254<X4\366\376\374\374\275\205"
  98      2CDE5D58 
  98      AC3C5834 
  98      F6FEFCFC 
  98      BD85
  99 0294 720818FD 		.ascii	"r\010\030\375\001/G\017\266"
  99      012F470F 
  99      B6
 100              		.text
 101              		.section	.gnu.lto_pools1_execute.16b3f409eaff06ab,"",%progbits
 102 0000 789C9553 		.ascii	"x\234\225S\277k\024Q\020\376\346\275\375\361\356\347"
 102      BF6B1451 
 102      10FEE6BD 
 102      FDF1EEE7 
 103 0010 E6C4C646 		.ascii	"\346\304\306FC\254\275\373\017l\254\254,\314\201\226"
 103      43ACBDFB 
 103      0F6CACAC 
 103      2CCC8196 
 104 0020 7109C982 		.ascii	"q\011\311\202!b\256\263\310\336\355\011\021\014\\%A"
 104      2162AEB3 
 104      C8DEED09 
 104      110C5C25 
 104      41
 105 0031 410D6982 		.ascii	"A\015i\202\010b!XX\030mL 9\005\013\205\024\207\305U"
 105      08622158 
 105      58186D4C 
 105      2039050B 
 105      851487C5 
 106 0046 FE017A8A 		.ascii	"\376\001z\212\347\314\376\270\344LR\270\260o\336\314"
 106      E7CCFEB8 
 106      E44C52B8 
 106      B06FDECC 
 107 0056 9BF9E69B 		.ascii	"\233\371\346\233o\337*(\374\373\314\362{O\003\347\331"
 107      6FDF2A28 
 107      FCFBCCF2 
 107      7B4F03E7 
 107      D9
 108 0067 520EA43A 		.ascii	"R\016\244:{@\323(\262\223\215V\346\235F\230\267\366"
 108      7B40D328 
 108      B2938D56 
 108      E69D4698 
 108      B7F6
 109 0079 7680B068 		.ascii	"v\200\260h%\361-c+\275\272\305\221\274\023\2258\356"
 109      25F12D63 
 109      2BBDBAC5 
 109      91BC1395 
 109      38EE
 110 008b 28F3E62C 		.ascii	"(\363\346,{\356\347\032{.\031\311\"C$\026\204e\245-"
 110      7BEEE71A 
 110      7B2E19C9 
 110      22432416 
 110      8465A52D 
 111 009f DB710D2D 		.ascii	"\333q\015-_'iKSX\017\303N\357n\377\365\231\360i\253"
 111      5F27694B 
ARM GAS  /tmp/ccMIUx5X.s 			page 8


 111      53580FC3 
 111      4EEF6EFF 
 111      F599F069 
 112 00b4 13FE190E 		.ascii	"\023\376\031\016) &8E\360\011\327\330\241\311\330(k"
 112      29202638 
 112      45F009D7 
 112      D8A1C9D8 
 112      286B
 113 00c6 9CF10BF5 		.ascii	"\234\361\013\365\2667\034\376~\271\371m\207*\247\011"
 113      B6371CFE 
 113      7EB9F96D 
 113      872AA709 
 114 00d6 33B4CE68 		.ascii	"3\264\316h\026\002\322N\352\030qr\274X\005Y\212i\270"
 114      1602D24E 
 114      EA187172 
 114      BC580559 
 114      8A69B8
 115 00e9 2C614F22 		.ascii	",aO\"\025Y\030\313F\233YL&\307\220\306\374L\363:\360"
 115      155918CB 
 115      469B594C 
 115      26C790C6 
 115      FC4CF33A 
 116 00fe 5027C546 		.ascii	"P'\305F\357\242\265\377\243\377Q\315\320\006\331\230"
 116      EFA2B5FF 
 116      A3FF51CD 
 116      D006D998 
 117 010e 23EB029E 		.ascii	"#\353\002\236\207\023\001\331\217\360\260\331\221\235"
 117      871301D9 
 117      8FF0B0D9 
 117      919D
 118 011c 73078370 		.ascii	"s\007\203pMv\356B\014 \254]d\273\303\334\273p\022\034"
 118      4D76EE42 
 118      0C20AC5D 
 118      64BBC3DC 
 118      BB70121C 
 119 0130 408A56A4 		.ascii	"@\212V\244\310\370\224\344H\304\004\224[ J\223\270\233"
 119      C8F894E4 
 119      48C40494 
 119      5B204A93 
 119      B89B
 120 0142 20E46DA6 		.ascii	" \344m\246[\000\266\321\352=~\237\"$\234\307\032\324"
 120      5B00B6D1 
 120      EA3D7E9F 
 120      22249CC7 
 120      1AD4
 121 0154 49833F8A 		.ascii	"I\203?\212\356\242\335{\262A\031c3jU\364I\235\320*\240"
 121      EEA2DD7B 
 121      B2411963 
 121      336A55F4 
 121      499DD02A 
 122 0169 12B08BE8 		.ascii	"\022\260\213\350\213\316\312r\\)\360:!ng\361\302\010"
 122      8BCECA72 
 122      5C29F03A 
 122      216E67F1 
 122      C208
 123 017b AEEC2787 		.ascii	"\256\354'\2071\013\217\244&\240\011\340\003\332\337"
 123      310B8FA4 
ARM GAS  /tmp/ccMIUx5X.s 			page 9


 123      26A009E0 
 123      03DADF
 124 018a 47DD0B72 		.ascii	"G\335\013r8\366\011\353\354>\270\310\302F+\321\257\373"
 124      38F609EB 
 124      EC3EB8C8 
 124      C2462BD1 
 124      AFFB
 125 019c 97B3C4E2 		.ascii	"\227\263\304\342\034Q<\216\014\264\015uxL>\315jm\360"
 125      1C513C8E 
 125      0CB40D75 
 125      784C3ECD 
 125      6A6DF0
 126 01af 95D22C85 		.ascii	"\225\322,\205\301\350\220\342\236\375\246\233a%@\007"
 126      C1E890E2 
 126      9EFDA69B 
 126      61254007 
 127 01bf 5DBF8252 		.ascii	"]\277\202R\245\324\246f0k-'X\016\242R\254\3263?\253"
 127      A5D4A666 
 127      306B2D27 
 127      580EA252 
 127      ACD6333F 
 128 01d4 2CFF8F58 		.ascii	",\377\217X\335\221X\036W\036'V\345\004\261\224\324\034"
 128      DD91581E 
 128      571E2756 
 128      E504B194 
 128      D41C
 129 01e6 15AB728C 		.ascii	"\025\253r\214X.~\272L22GnN\305Os\003:\225L\351\244S"
 129      582E7EBA 
 129      4C323247 
 129      6E4EC54F 
 129      73033A95 
 130 01fe 3AFBAFE6 		.ascii	":\373\257\346\245\326\310\015\376\304\277\361\001\340"
 130      A5D6C80D 
 130      FEC4BFF1 
 130      01E0
 131 020c 34AB35F0 		.ascii	"4\2535\360d\262s\325j\355\322|p#\270r\265\326\230]j"
 131      64B273D5 
 131      6AEDD27C 
 131      7023B872 
 131      B5D6985D 
 132 0221 D46E3762 		.ascii	"\324n7b{kq\361\346R\325\007\005\177\001\226\313\316"
 132      7B6B71F1 
 132      E652D507 
 132      057F0196 
 132      CBCE
 133 0233 CD       		.ascii	"\315"
 134              		.text
 135              		.section	.gnu.lto_.symbol_nodes.16b3f409eaff06ab,"",%progbits
 136 0000 789C4D8C 		.ascii	"x\234M\214QN\302`\020\204g\376\355\332\002\036\000\023"
 136      514EC260 
 136      108467FE 
 136      EDDA021E 
 136      0013
 137 0012 2EE749B6 		.ascii	".\347I\266I\223\242<q\000M \275\004\357\274a\302\031"
 137      4993A23C 
 137      71004D20 
 137      BD04EFBC 
ARM GAS  /tmp/ccMIUx5X.s 			page 10


 137      61C219
 138 0025 889E0068 		.ascii	"\210\236\000hUT\300\177\201P\366e\362\315\354L@@\237"
 138      5554C07F 
 138      8150F665 
 138      F2CDEC4C 
 138      40409F
 139 0038 385FD8D0 		.ascii	"8_\330\320\200\361\0220{y~\014[\032[\3245\221\230\204"
 139      80F11230 
 139      7B797E0C 
 139      5B1A5BD4 
 139      35919884 
 140 004c 3D2D5CDC 		.ascii	"=-\\\334\327'\352\027\011C\250ir\363\373\311\240\006"
 140      D727EA17 
 140      0943A869 
 140      72F3FBC9 
 140      A006
 141 005e 6D2851F8 		.ascii	"m(Q\370GK\316a\236\223\2774miG\273k\351\207\226\266"
 141      474BCE61 
 141      9E93BF34 
 141      6D6947BB 
 141      6BE98796 
 142 0073 F44DCBAE 		.ascii	"\364M\313\256$\314P\254\016\024\351\241z;$\"]|,\\3\314"
 142      24CC50AC 
 142      0E14E9A1 
 142      7A3B2422 
 142      5D7C2C5C 
 143 0089 4FDA4331 		.ascii	"O\332C1\252\007\356\317\207\256\221\313\332N<=\246\""
 143      AA07EECF 
 143      87AE91CB 
 143      DA4E3C3D 
 143      A622
 144 009b 1D54B3FA 		.ascii	"\035T\263\372A\364\036\225\357h\354O\242\257q\317s\347"
 144      41F41E95 
 144      EF68EC4F 
 144      A2AF71CF 
 144      73E7
 145 00ad 32F69CBD 		.ascii	"2\366\234\275\257\202\367a\223\342\037eSV:"
 145      AF82F761 
 145      93E21F65 
 145      53563A
 146              		.text
 147              		.section	.gnu.lto_.refs.16b3f409eaff06ab,"",%progbits
 148 0000 789C35C7 		.ascii	"x\2345\307\301\015\0000\010\303\300\304\2052K\367_\020"
 148      C10D0030 
 148      08C3C0C4 
 148      85324BF7 
 148      5F10
 149 0012 A48AF3CB 		.ascii	"\244\212\363\313\010=}6\324Q\260\004\221\373\276\324"
 149      083D7D36 
 149      D451B004 
 149      91FBBED4 
 150 0022 64520D10 		.ascii	"dR\015\020\271\000\224"
 150      B90094
 151              		.text
 152              		.section	.gnu.lto_.decls.16b3f409eaff06ab,"",%progbits
 153 0000 789C9D58 		.ascii	"x\234\235X[l\024U\030>gv\013-]\312E!\345\"]\214\220"
 153      5B6C1455 
ARM GAS  /tmp/ccMIUx5X.s 			page 11


 153      183E6776 
 153      0B2D5DCA 
 153      4521E522 
 154 0017 40EC2E25 		.ascii	"@\354.%5\341\211\202$\212F\205hH|[\247\273\007\266\246"
 154      35E18982 
 154      248A4685 
 154      68487C5B 
 154      A7BB07B6 
 155 002c DD2DB353 		.ascii	"\335-\263S\001}\360\224k%\210\245@h\205\222V.\202\017"
 155      017DF094 
 155      6B2588A5 
 155      40688592 
 155      562E820F 
 156 0040 0644EB43 		.ascii	"\006D\353C\003n\252\266+\006\202\200\"b\311F\340\001"
 156      036EAAB6 
 156      2B068280 
 156      2262C946 
 156      E001
 157 0052 042C2036 		.ascii	"\004, 6 \260\376\347\262\2733\323\231\245\365$\377\316"
 157      20B0FEE7 
 157      B2BB33D3 
 157      99A5F524 
 157      FFCE
 158 0064 9933FFE5 		.ascii	"\2313\377\345\373/\347\234\277U\220\202\256c\204R0\366"
 158      FB2FE79C 
 158      BF559082 
 158      AE638452 
 158      30F6
 159 0076 8C45A84E 		.ascii	"\214E\250NA(\017!4\027\211g\273|v\000\035\006\352Db"
 159      41280F21 
 159      34178967 
 159      BB7C7600 
 159      1D06EA44 
 160 008b 14001D05 		.ascii	"\024\000\035\005\352\002\352\006:\016t\002\350\014\320"
 160      EA02EA06 
 160      3A0E7402 
 160      E80CD0
 161 009a AF40BF03 		.ascii	"\257@\277\003]\006r\003]\003\272\001t\033h$F\246\301"
 161      5D067203 
 161      5D03BA01 
 161      741B6824 
 161      46A6C1
 162 00ad 74B0A50A 		.ascii	"t\260\245\012\371\216\345\232utI\034\305\330\214\351"
 162      F98EE59A 
 162      7574491C 
 162      C5D88CE9 
 163 00bd A4FCAE48 		.ascii	"\244\374\256H\236\023R\3075\213<\303\370\244\304S\004"
 163      9E1352C7 
 163      358B3CC3 
 163      F8A4C453 
 163      04
 164 00ce E491362F 		.ascii	"\344\2216/\002\375\005t\023h\002\010N\224\372\317\002"
 164      02FD0574 
 164      13680208 
 164      4E94FACF 
 164      02
 165 00df 4D82F979 		.ascii	"M\202\371yxN\306\302^\257\264\237\216C\332\3660\251"
ARM GAS  /tmp/ccMIUx5X.s 			page 12


 165      784EC6C2 
 165      5EAFB49F 
 165      8E43DAF6 
 165      30A9
 166 00f1 DFE8FB09 		.ascii	"\337\350\373\011\351\207\"}\267\342a\361zb\020x\236"
 166      E987227D 
 166      B7E261F1 
 166      7A621078 
 166      9E
 167 0102 927898CD 		.ascii	"\222x\230\315+\016\230\246\300\274G\352\315\223\272"
 167      2B0E98A6 
 167      C0BC47EA 
 167      CD93BA
 168 0111 2F1BB074 		.ascii	"/\033\260t\347\300Q\2106R\272\232\266\255\247\013\023"
 168      E7C05188 
 168      3652BA9A 
 168      B6ADA70B 
 168      13
 169 0122 4563D116 		.ascii	"Ec\321\026\012\303\233\000Dob\025\027\025\240\267\370"
 169      0AC39B00 
 169      446F6215 
 169      1715A0B7 
 169      F8
 170 0133 C453C001 		.ascii	"\304S\300\001NC{)mL~\177\251\230\272U\374\011\036\013"
 170      4E437B29 
 170      6D4C7E7F 
 170      A998BA55 
 170      FC091E0B 
 171 0147 6A676034 		.ascii	"jg`4\023\035\004\251FJ\377\23040q\350qJ\021R\361~P\245"
 171      131D04A9 
 171      464AFF98 
 171      343071E8 
 171      714A1152 
 172 015f E27D78A6 		.ascii	"\342}x\2460A\343[\272=\314\004[G\362\213\315\230\212"
 172      3041E35B 
 172      BA3DCC04 
 172      5B47F28B 
 172      CD988A
 173 0172 DA007C7C 		.ascii	"\332\000||\353\372\326\011\264\255\013\333\371\3226"
 173      EBFAD609 
 173      B4AD0BDB 
 173      F9D236
 174 0181 CC60D79B 		.ascii	"\314`\327\233\266\353\346\021\231\213A\365gV\323\267"
 174      B6EBE611 
 174      998B41F5 
 174      6756D3B7 
 175 0191 54AF587D 		.ascii	"T\257X}\274\341;W\177\300\264\311\243\342\203`[A/\247"
 175      BCE13B57 
 175      7FC0B4C9 
 175      A3E28360 
 175      5B412FA7 
 176 01a5 F5D99993 		.ascii	"\365\331\231\223S1$\203u\330\3111\024L\275\034\012z"
 176      53312483 
 176      75D8C931 
 176      144CBD1C 
 176      0A7A
 177 01b7 1DCB800D 		.ascii	"\035\313\200\015\321\212\304\274\275{\027\017V\001j"
ARM GAS  /tmp/ccMIUx5X.s 			page 13


 177      D18AC4BC 
 177      BD7B170F 
 177      56016A
 178 01c6 C806CBDE 		.ascii	"\310\006\313\336\264L\367\335\365\277\334\301\253)\205"
 178      B44CF7DD 
 178      F5BFDCC1 
 178      AB2985
 179 01d5 0F87414C 		.ascii	"\017\207ALA\275\030\233B\243\342<\223/\374=\315\300"
 179      41BD189B 
 179      42A3E23C 
 179      932FFC3D 
 179      CDC0
 180 01e7 F4F1CF72 		.ascii	"\364\361\317r\302\016\232Q\314\217\313x\250\216x\215"
 180      C20E9A51 
 180      CC8FCB78 
 180      A88E788D 
 181 01f7 8E24D75D 		.ascii	"\216$\327]J\270Zh|\255\313\224\366\361h;O\373z\300\253"
 181      4AB85A68 
 181      7CADCB94 
 181      F6F1683B 
 181      4FFB7AC0 
 182 020c ABB8A2D0 		.ascii	"\253\270\242\3201\250_\343\361|\346\342{\003\011\347"
 182      31A85FE3 
 182      F17CE6E2 
 182      7B0309E7 
 183 021c 54BCC495 		.ascii	"T\274\304\2253\0352&\347>\352\230Ai\276\212;x\346[\024"
 183      331D3226 
 183      E73EEA98 
 183      4169BE8A 
 183      3B78E65B 
 184 0231 73444C90 		.ascii	"sDL\220\204)'\030\235\240\300\276\316\006|S\320~e\020"
 184      84292718 
 184      9DA0C0BE 
 184      CE067C53 
 184      D07E6510 
 185 0245 31CBCF55 		.ascii	"1\313\317Ub&\375\331m\247\342O\3614\370=\200\247\302"
 185      6226FDD9 
 185      6DA7E24F 
 185      F134F83D 
 185      80A7C2
 186 0258 EF21FEFB 		.ascii	"\357!\376\373\025\374\346\214\005S\321\236-\315\022"
 186      15FCE68C 
 186      0553D19E 
 186      2DCD12
 187 0267 B49B9EEA 		.ascii	"\264\233\236\352K\376\274\365\330\024\226\027\232J\275"
 187      4BFEBCF5 
 187      D8149617 
 187      9A4ABD
 188 0276 2FC3ACA0 		.ascii	"/\303\254\240\323\226\000=\203\366P\332Dw\220\205\351"
 188      D396003D 
 188      83F650DA 
 188      44779085 
 188      E9
 189 0287 A24A728E 		.ascii	"\242Jr\216\243\270\304\326\224\340\2021\035\355c\221"
 189      A3B8C4D6 
 189      94E08231 
 189      1DED6391 
ARM GAS  /tmp/ccMIUx5X.s 			page 14


 190 0297 3D7A79F1 		.ascii	"=zy\361B\236]\224CHB<\206\025\243\333\014f\274\017\366"
 190      429E5D94 
 190      4348423C 
 190      8615A3DB 
 190      0C66BC0F 
 191 02ac C166D807 		.ascii	"\301f\330\007\253\343\251T\005\262\024\315\334q\216"
 191      ABE3A954 
 191      05B214CD 
 191      DC718E
 192 02bb EE7E2B8B 		.ascii	"\356~+\213&['\012\272b\361M\202\204q\200\272\2706\306"
 192      265B270A 
 192      BA62F14D 
 192      82847180 
 192      BAB836C6 
 193 02cf DF05204D 		.ascii	"\337\005 M\301\377\316\026\326\356\356M\371\215\365"
 193      C1FFCE16 
 193      D6EEEE4D 
 193      F98DF5
 194 02de C954AA64 		.ascii	"\311T\252d\360\240zl@\335\266\007\325h\006\325m\005"
 194      F0A07A6C 
 194      40DDB607 
 194      D56806D5 
 194      6D05
 195 02f0 95B00345 		.ascii	"\225\260\003E\277\240\264\000\322\231\242\212\210\200"
 195      BFA0B400 
 195      D299A28A 
 195      8880
 196 02fe 821A5C83 		.ascii	"\202\032\\\203\361\371\270U\375\217\003\325'\033\223"
 196      F1F9B855 
 196      FD8F03D5 
 196      271B93
 197 030d EBFAE3B8 		.ascii	"\353\372\343\270\205v\211\212\031\274\333'\255\033\230"
 197      8576898A 
 197      19BCDB27 
 197      AD1B98
 198 031c D5A26937 		.ascii	"\325\242i7\033?v\210B5mp\005\355\030\340\207`:m\007"
 198      1B3F7688 
 198      42356D70 
 198      05ED18E0 
 198      87603A6D 
 199 0331 347EBA67 		.ascii	"4~\272g\023\305C\315\316\331\2340+\354P\035p@u\316\026"
 199      13C543CD 
 199      CED99C30 
 199      2BEC501D 
 199      704075CE 
 200 0346 D5373D9B 		.ascii	"\3257=\233&\320v\333J\316q\374\235\267\203e\301q\304"
 200      26D076DB 
 200      4ACE71FC 
 200      9DB78365 
 200      C171C4
 201 0359 01C705DB 		.ascii	"\001\307\005\3334\246v\366\326\343-k\332\022\264\217"
 201      34A676F6 
 201      D6E32D6B 
 201      DA12B48F 
 202 0369 1DF12628 		.ascii	"\035\361&(\371h\003\333\266\311u\264\036/\317\234&\371"
 202      F96803DB 
 202      B6C975B4 
ARM GAS  /tmp/ccMIUx5X.s 			page 15


 202      1E2FCF9C 
 202      26F9
 203 037b 6950AC63 		.ascii	"iP\254c\023\327/\024(\024\331E\234\017\346\177sY\232"
 203      13D72F14 
 203      2814D945 
 203      9C0FE67F 
 203      73599A
 204 038e C52C02C6 		.ascii	"\305,\002\306\300\006\223\027\363\364\014;\237U\275"
 204      C0069317 
 204      F3F40C3B 
 204      9F55BD
 205 039d 5697E13A 		.ascii	"V\227\341:\312\314\245FK\004\222\016\021\270d\033\201"
 205      CACCA546 
 205      4B04920E 
 205      11B8641B 
 205      81
 206 03ae BDFD09DC 		.ascii	"\275\375\011\334\320D\037\244R\256!\324\361\225A\024"
 206      D0441FA4 
 206      52AE21D4 
 206      F1954114 
 207 03be 88B5AC2D 		.ascii	"\210\265\254-0o8\300\274j\206\3714j\247\361S\311\263"
 207      306F38C0 
 207      BC6A86F9 
 207      346AA7F1 
 207      53C9B3
 208 03d1 67BEC470 		.ascii	"g\276\304p\364Q\372(\225\302\351>\356aF\205S\223\366"
 208      F451FA28 
 208      95C2E93E 
 208      EE614685 
 208      5393F6
 209 03e4 A754568E 		.ascii	"\247TV\216\216\320\206\370,!(\256\014\306)\232\024q"
 209      8ED086F8 
 209      2C2128AE 
 209      0CC6299A 
 209      1471
 210 03f6 79C8BB3E 		.ascii	"y\310\273>\241\310k\204\275w\312\233\202\201\350\203"
 210      A1C86B84 
 210      BD77CA9B 
 210      8281E883 
 211 0406 6AB9707D 		.ascii	"j\271p}5\336J\241Z(T..\031\203\032e\233\230\271<\343"
 211      35DE4AA1 
 211      5A28542E 
 211      2E19831A 
 211      659B98B9 
 212 041c FCF2CC11 		.ascii	"\374\362\314\021\271\012\333\2533\253)\035=\311\336"
 212      B90ADBAB 
 212      33AB291D 
 212      3DC9DE
 213 042b 87C720FB 		.ascii	"\207\307 \373\241\240z\2675\202*\276\225\215\036\003"
 213      A1A07AB7 
 213      35822ABE 
 213      958D1E03 
 214 043b 7D280E77 		.ascii	"}(\016w\333\337?\341m\224Z@\267\315\263\240N7\237\220"
 214      DBDF3FE1 
 214      6D945A40 
 214      B7CDB3A0 
 214      4E379F90 
ARM GAS  /tmp/ccMIUx5X.s 			page 16


 215 044f 7B437345 		.ascii	"{CsEq\332\201\321\334\346Z\260i\323\035\233\331T\374"
 215      71DA81D1 
 215      DCE65AB0 
 215      69D31D9B 
 215      D954FC
 216 0462 0F6661EC 		.ascii	"\017fa\354\267\364\251\020\300\243\305\274\005\351\037"
 216      B7F4A910 
 216      C0A3C5BC 
 216      05E91F
 217 0471 54AF7AEF 		.ascii	"T\257z\357a\202\365\252\246\316D\366\200\311}\361\342"
 217      6182F5AA 
 217      A6CE44F6 
 217      80C97DF1 
 217      E2
 218 0482 E6A2C7ED 		.ascii	"\346\242\307\355\312\0143-.\266\347U\361\003\336D<\024"
 218      CA0C332D 
 218      2EB6E755 
 218      F103DE44 
 218      3C14
 219 0494 35CA3F89 		.ascii	"5\312?\211yz\226\302\314\357\017\335\216\373:\267\250"
 219      797A96C2 
 219      CCEF0FDD 
 219      8EFB3AB7 
 219      A8
 220 04a5 531DDC37 		.ascii	"S\035\3347\366\307M<\223\375\377\273A\376\367\352\300"
 220      F6C74D3C 
 220      93FDFFBB 
 220      41FEF7EA 
 220      C0
 221 04b6 40896BCF 		.ascii	"@\211k\317\311|\275b0\277c\310\346\275&\363\017Hb\226"
 221      C97CBD62 
 221      30BF63C8 
 221      E6BD26F3 
 221      0F486296 
 222 04ca 50A9A0D6 		.ascii	"P\251\240\326\301\350\262k\367\244\256G\006]\373\207"
 222      C1E8B26B 
 222      F7A4AE47 
 222      065DFB87 
 223 04da ACCB3B20 		.ascii	"\254\313; ;\242\302T|\217\367\207Ta\277k\370\357:\345"
 223      3BA2C254 
 223      7C8FF787 
 223      5461BF6B 
 223      F8EF3AE5 
 224 04ee B1BDA225 		.ascii	"\261\275\242%\240w\035\2200\375\033\262\0015\253\234"
 224      A0771D90 
 224      30FD1BB2 
 224      0135AB9C 
 225 04fe 67066AD8 		.ascii	"g\006j\330~B\310\236M\305\015\212\330\371\274\206i\006"
 225      7E42C89E 
 225      4DC50D8A 
 225      D8F9BC86 
 225      6906
 226 0510 03703841 		.ascii	"\003p8A\370@\311\026\242\247 ;1Vn\226\013\342\373\271"
 226      F840C916 
 226      A2A7203B 
 226      31566E96 
 226      0BE2FBB9 
ARM GAS  /tmp/ccMIUx5X.s 			page 17


 227 0524 DB727E0E 		.ascii	"\333r~\016\000\261Q1\236\237\360G\346\0358\2172y{\017"
 227      00B15131 
 227      9E9FF047 
 227      E61D388F 
 227      32797B0F 
 228 0538 DDA7CD14 		.ascii	"\335\247\315\024N\230\273e\302\027~N\236\212\267lh5"
 228      4E98BB65 
 228      C2177E4E 
 228      9E8AB76C 
 228      6835
 229 054a 1ED677F9 		.ascii	"\036\326w\371a\335i5f>3\230\265\315`m\012\352v\267\322"
 229      61DD6935 
 229      663E3398 
 229      B5CD606D 
 229      0AEA76B7 
 230 055f 7C83D579 		.ascii	"|\203\325yB\203H\2410\031\337\331c\376\3139}~6\027\211"
 230      428348A1 
 230      3019DFD9 
 230      63FECB39 
 230      7D7E3617 
 231 0574 9D274D24 		.ascii	"\235'M$3&&K\023[\207\034\325m\016QM\377\337\300I\256"
 231      3326264B 
 231      135B871C 
 231      D56D0E51 
 231      4DFFDFC0 
 232 058a 295B1053 		.ascii	")[\020S\320y\360\251y^\326\274\250D\346L\003\215\357"
 232      D079F0A9 
 232      795ED6BC 
 232      A844E64C 
 232      038DEF
 233 059d 1A2E0A3E 		.ascii	"\032.\012>\323p\213\012e\372\3046\025\265*\271\017e"
 233      D3708B0A 
 233      65FAC436 
 233      15B52AB9 
 233      0F65
 234 05af B88DADAA 		.ascii	"\270\215\255\252D!\374M\327\242\245|O\3468\017\232\263"
 234      4421FC4D 
 234      D7A2A57C 
 234      4FE6380F 
 234      9AB3
 235 05c1 682D5237 		.ascii	"h-R7\263\031\037 \325\342(u6\207\255\217\035\245\316"
 235      B3191F20 
 235      D5E22875 
 235      3687AD8F 
 235      1DA5CE
 236 05d4 E790DAE9 		.ascii	"\347\220\332\351(\325\233Cj\227\243\324\225\034R\255"
 236      28D59B43 
 236      6A97A3D4 
 236      951C52AD 
 237 05e4 8E523D39 		.ascii	"\216R=9\244v\033\216\200\351>\237\177A\270\252\262j"
 237      A4761B8E 
 237      80E93E9F 
 237      7F41B8AA 
 237      B26A
 238 05f6 D11BFE68 		.ascii	"\321\033\376h\314\257\351\376\252H\260\272.D\374\301"
 238      CCAFE9FE 
 238      AA48B0BA 
ARM GAS  /tmp/ccMIUx5X.s 			page 18


 238      2E44FCC1 
 239 0606 700DA9A9 		.ascii	"p\015\251\251\215F\253c\2760\032\011\363\250\266*\300"
 239      8D46AB63 
 239      BE301A09 
 239      F3A8B62A 
 239      C0
 240 0617 DE03FAB0 		.ascii	"\336\003\372\260\027_[\342]\200\012\371[\230\250!\242"
 240      175F5BE2 
 240      5D800AF9 
 240      5B98A821 
 240      A2
 241 0628 0DAF0D07 		.ascii	"\015\257\015\007\"d\245>\274\246\226?\353\261?\2624"
 241      2264A53E 
 241      BCA6963F 
 241      EBB13FB2 
 241      34
 242 0639 C6E8397F 		.ascii	"\306\3509\1778ZC\374\032\211\021U\013\206\375aU\013"
 242      385A43FC 
 242      1A891155 
 242      0B86FD61 
 242      550B
 243 064b AD5035E2 		.ascii	"\255P5\342W\265\232\331\376e\301`)LJIM%\011\205H(\263"
 243      57B59AD9 
 243      FE65C160 
 243      294C4A49 
 243      4D250985 
 244 0662 10894648 		.ascii	"\020\211FH)Q+\253J\313\003sJg\317*+_>\333_]U\311\030"
 244      29512BAB 
 244      4ACB0373 
 244      4A67CF2A 
 244      2B5F3EDB 
 245 067b FC26067F 		.ascii	"\374&\006\177\271o\216\257<\203;\246\203\236\245\200"
 245      B96F8EAF 
 245      3C833BA6 
 245      839EA580 
 246 068b 7958ACEA 		.ascii	"yX\254\352]\022\320\213\000Q\264\362m\022\324\003la"
 246      5D12D08B 
 246      0051B4F2 
 246      6D12D403 
 246      6C61
 247 069d 5A6E8783 		.ascii	"Zn\207\203Q\215\200\254\007\246\313\210\276\264.\022"
 247      518D80AC 
 247      07A6CB88 
 247      BEB42E12 
 248 06ad 0CE885A0 		.ascii	"\014\350\205\240\241V\213\276S\005~\226\030\304u\022"
 248      A1568BBE 
 248      53057E96 
 248      18C47512 
 249 06bd D39902F6 		.ascii	"\323\231\002\366\024\201\012\242\221\221\272\352\352"
 249      14810AA2 
 249      9191BAEA 
 249      EA
 250 06ca 0CB79B59 		.ascii	"\014\267\233Y\364\360oe\201\030\321\353j\307\311\027"
 250      F4F06F65 
 250      8118D1EB 
 250      6AC7C917 
 251 06da B29204EB 		.ascii	"\262\222\004\353t\342\253U5\3357\253\310\274::\030^"
ARM GAS  /tmp/ccMIUx5X.s 			page 19


 251      74E2AB55 
 251      35DD37AB 
 251      C8BC3A3A 
 251      185E
 252 06ec 0C0B8B38 		.ascii	"\014\013\2138\352\227\"U\372\010\261\360\202FH\241\230"
 252      EA972255 
 252      FA08B1F0 
 252      824648A1 
 252      98
 253 06fd CEAFAE8E 		.ascii	"\316\257\256\216\006':\200\001\007\362\002\317\003\227"
 253      06273A80 
 253      0107F202 
 253      CF0397
 254 070c 27C05E03 		.ascii	"'\300^\003j,F4}\224\220|%\252\206\346k\232\272\312U"
 254      6A2C4634 
 254      7D94907C 
 254      25AA86E6 
 254      6B9ABACA 
 255 0721 535BA6AC 		.ascii	"S[\246\254P\363\031KP\215\021w\020R\343\216\2505$\217"
 255      50F3194B 
 255      508D1177 
 255      1052E38E 
 255      A835248F 
 256 0735 43850F90 		.ascii	"C\205\017\220\252\350\212\310p\011\313S\253\352:\321"
 256      AAE88AC8 
 256      7009CB53 
 256      ABEA3AD1 
 257 0745 221CEC88 		.ascii	"\"\034\354\210\214\327ec}Z4\244\352\252/\2734\371U^"
 257      8CD76563 
 257      7D5A34A4 
 257      EAAA2FBB 
 257      34F9555E 
 258 0759 2F5E6630 		.ascii	"/^f0\366\254wy\035\251#\376\020\341O\364\037]\317{\221"
 258      F6AC7779 
 258      1DA923FE 
 258      10E14FF4 
 258      1F5DCF7B 
 259              		.text
 260              		.section	.gnu.lto_.symtab.16b3f409eaff06ab,"",%progbits
 261 0000 70617474 		.ascii	"patternpools\000\000\000\000\000\000\000\000\000\000"
 261      65726E70 
 261      6F6F6C73 
 261      00000000 
 261      00000000 
 262 0016 0000F200 		.ascii	"\000\000\362\000\000\000testpools1\000\000\000\000\000"
 262      00007465 
 262      7374706F 
 262      6F6C7331 
 262      00000000 
 263 002b 00000000 		.ascii	"\000\000\000\000\000\000\000\015\001\000\000wa\000\000"
 263      0000000D 
 263      01000077 
 263      610000
 264 003a 02000000 		.ascii	"\002\000\000\000\000\000\000\000\000\000\355\000\000"
 264      00000000 
 264      0000ED00 
 264      00
ARM GAS  /tmp/ccMIUx5X.s 			page 20


 265 0047 00636850 		.ascii	"\000chPoolObjectInit\000\000\002\000\000\000\000\000"
 265      6F6F6C4F 
 265      626A6563 
 265      74496E69 
 265      74000002 
 266 0060 00000000 		.ascii	"\000\000\000\000\315\000\000\000chPoolFree\000\000\002"
 266      CD000000 
 266      6368506F 
 266      6F6C4672 
 266      65650000 
 267 0075 00000000 		.ascii	"\000\000\000\000\000\000\000\000\000\323\000\000\000"
 267      00000000 
 267      00D30000 
 267      00
 268 0082 6368506F 		.ascii	"chPoolAlloc\000\000\002\000\000\000\000\000\000\000"
 268      6F6C416C 
 268      6C6F6300 
 268      00020000 
 268      00000000 
 269 0097 0000D800 		.ascii	"\000\000\330\000\000\000_test_assert\000\000\002\000"
 269      00005F74 
 269      6573745F 
 269      61737365 
 269      72740000 
 270 00ad 00000000 		.ascii	"\000\000\000\000\000\000\000\000\334\000\000\000chP"
 270      00000000 
 270      DC000000 
 270      636850
 271 00bc 6F6F6C4C 		.ascii	"oolLoadArray\000\000\002\000\000\000\000\000\000\000"
 271      6F616441 
 271      72726179 
 271      00000200 
 271      00000000 
 272 00d2 0000E400 		.ascii	"\000\000\344\000\000\000"
 272      0000
 273              		.text
 274              		.section	.gnu.lto_.opts,"",%progbits
 275 0000 272D6D63 		.ascii	"'-mcpu=cortex-m4' '-mno-thumb-interwork' '-mthumb' "
 275      70753D63 
 275      6F727465 
 275      782D6D34 
 275      2720272D 
 276 0033 272D6767 		.ascii	"'-ggdb' '-O2' '-fomit-frame-pointer' '-falign-funct"
 276      64622720 
 276      272D4F32 
 276      2720272D 
 276      666F6D69 
 277 0066 696F6E73 		.ascii	"ions=16' '-ffunction-sections' '-fdata-sections' '-"
 277      3D313627 
 277      20272D66 
 277      66756E63 
 277      74696F6E 
 278 0099 666E6F2D 		.ascii	"fno-common' '-flto'\000"
 278      636F6D6D 
 278      6F6E2720 
 278      272D666C 
 278      746F2700 
ARM GAS  /tmp/ccMIUx5X.s 			page 21


 279              		.text
 280              		.cfi_sections	.debug_frame
 281              		.section	.text.null_provider,"ax",%progbits
 282              		.align	2
 283              		.p2align 4,,15
 284              		.thumb
 285              		.thumb_func
 286              		.type	null_provider, %function
 287              	null_provider:
 288              	.LFB241:
 289              		.file 1 "../ChibiOS/test/rt/testpools.c"
 290              		.loc 1 60 0
 291              		.cfi_startproc
 292              		@ args = 0, pretend = 0, frame = 0
 293              		@ frame_needed = 0, uses_anonymous_args = 0
 294              		@ link register save eliminated.
 295              	.LVL0:
 296              		.loc 1 64 0
 297 0000 0020     		movs	r0, #0
 298              	.LVL1:
 299 0002 7047     		bx	lr
 300              		.cfi_endproc
 301              	.LFE241:
 302              		.size	null_provider, .-null_provider
 303 0004 AFF30080 		.section	.text.pools1_setup,"ax",%progbits
 303      AFF30080 
 303      AFF30080 
 304              		.align	2
 305              		.p2align 4,,15
 306              		.thumb
 307              		.thumb_func
 308              		.type	pools1_setup, %function
 309              	pools1_setup:
 310              	.LFB242:
 311              		.loc 1 66 0
 312              		.cfi_startproc
 313              		@ args = 0, pretend = 0, frame = 0
 314              		@ frame_needed = 0, uses_anonymous_args = 0
 315              		@ link register save eliminated.
 316              		.loc 1 68 0
 317 0000 0248     		ldr	r0, .L3
 318 0002 4FF4A471 		mov	r1, #328
 319 0006 0022     		movs	r2, #0
 320 0008 FFF7FEBF 		b	chPoolObjectInit
 321              	.LVL2:
 322              	.L4:
 323              		.align	2
 324              	.L3:
 325 000c 00000000 		.word	.LANCHOR0
 326              		.cfi_endproc
 327              	.LFE242:
 328              		.size	pools1_setup, .-pools1_setup
 329              		.section	.text.pools1_execute,"ax",%progbits
 330              		.align	2
 331              		.p2align 4,,15
 332              		.thumb
 333              		.thumb_func
ARM GAS  /tmp/ccMIUx5X.s 			page 22


 334              		.type	pools1_execute, %function
 335              	pools1_execute:
 336              	.LFB243:
 337              		.loc 1 71 0
 338              		.cfi_startproc
 339              		@ args = 0, pretend = 0, frame = 0
 340              		@ frame_needed = 0, uses_anonymous_args = 0
 341 0000 38B5     		push	{r3, r4, r5, lr}
 342              		.cfi_def_cfa_offset 16
 343              		.cfi_offset 3, -16
 344              		.cfi_offset 4, -12
 345              		.cfi_offset 5, -8
 346              		.cfi_offset 14, -4
 347              		.loc 1 75 0
 348 0002 2C4B     		ldr	r3, .L18
 349 0004 2C48     		ldr	r0, .L18+4
 350 0006 1D68     		ldr	r5, [r3]
 351 0008 0522     		movs	r2, #5
 352 000a 2946     		mov	r1, r5
 353 000c FFF7FEFF 		bl	chPoolLoadArray
 354              	.LVL3:
 355 0010 0524     		movs	r4, #5
 356              	.LVL4:
 357              	.L9:
 358              		.loc 1 79 0
 359 0012 2948     		ldr	r0, .L18+4
 360 0014 FFF7FEFF 		bl	chPoolAlloc
 361              	.LVL5:
 362 0018 011C     		adds	r1, r0, #0
 363 001a 18BF     		it	ne
 364 001c 0121     		movne	r1, #1
 365 001e 0120     		movs	r0, #1
 366 0020 FFF7FEFF 		bl	_test_assert
 367              	.LVL6:
 368 0024 A0BB     		cbnz	r0, .L5
 369              		.loc 1 78 0
 370 0026 013C     		subs	r4, r4, #1
 371              	.LVL7:
 372 0028 F3D1     		bne	.L9
 373              		.loc 1 82 0
 374 002a 2348     		ldr	r0, .L18+4
 375 002c FFF7FEFF 		bl	chPoolAlloc
 376              	.LVL8:
 377 0030 D0F10101 		rsbs	r1, r0, #1
 378 0034 38BF     		it	cc
 379 0036 0021     		movcc	r1, #0
 380 0038 0220     		movs	r0, #2
 381 003a FFF7FEFF 		bl	_test_assert
 382              	.LVL9:
 383 003e 38BB     		cbnz	r0, .L5
 384 0040 1C4C     		ldr	r4, .L18
 385              	.LVL10:
 386              	.LBB4:
 387              	.LBB5:
 388              		.loc 1 86 0
 389 0042 1D48     		ldr	r0, .L18+4
 390              	.LBE5:
ARM GAS  /tmp/ccMIUx5X.s 			page 23


 391              	.LBE4:
 392              		.loc 1 82 0
 393 0044 2946     		mov	r1, r5
 394 0046 04F11005 		add	r5, r4, #16
 395              	.LBB8:
 396              	.LBB6:
 397              		.loc 1 86 0
 398 004a FFF7FEFF 		bl	chPoolFree
 399              	.LVL11:
 400              		.loc 1 85 0
 401 004e AC42     		cmp	r4, r5
 402 0050 06D0     		beq	.L11
 403              	.L16:
 404 0052 54F8041F 		ldr	r1, [r4, #4]!
 405              		.loc 1 86 0
 406 0056 1848     		ldr	r0, .L18+4
 407 0058 FFF7FEFF 		bl	chPoolFree
 408              	.LVL12:
 409              		.loc 1 85 0
 410 005c AC42     		cmp	r4, r5
 411 005e F8D1     		bne	.L16
 412              	.L11:
 413 0060 0524     		movs	r4, #5
 414              	.L14:
 415              	.LVL13:
 416              		.loc 1 90 0
 417 0062 1548     		ldr	r0, .L18+4
 418 0064 FFF7FEFF 		bl	chPoolAlloc
 419              	.LVL14:
 420 0068 011C     		adds	r1, r0, #0
 421 006a 18BF     		it	ne
 422 006c 0121     		movne	r1, #1
 423 006e 0320     		movs	r0, #3
 424 0070 FFF7FEFF 		bl	_test_assert
 425              	.LVL15:
 426 0074 60B9     		cbnz	r0, .L5
 427              		.loc 1 89 0
 428 0076 013C     		subs	r4, r4, #1
 429              	.LVL16:
 430 0078 F3D1     		bne	.L14
 431              		.loc 1 93 0
 432 007a 0F48     		ldr	r0, .L18+4
 433 007c FFF7FEFF 		bl	chPoolAlloc
 434              	.LVL17:
 435 0080 D0F10101 		rsbs	r1, r0, #1
 436 0084 38BF     		it	cc
 437 0086 0021     		movcc	r1, #0
 438 0088 0420     		movs	r0, #4
 439 008a FFF7FEFF 		bl	_test_assert
 440              	.LVL18:
 441 008e 00B1     		cbz	r0, .L17
 442              	.LVL19:
 443              	.L5:
 444 0090 38BD     		pop	{r3, r4, r5, pc}
 445              	.LVL20:
 446              	.L17:
 447              		.loc 1 96 0
ARM GAS  /tmp/ccMIUx5X.s 			page 24


 448 0092 1021     		movs	r1, #16
 449 0094 0848     		ldr	r0, .L18+4
 450 0096 094A     		ldr	r2, .L18+8
 451 0098 FFF7FEFF 		bl	chPoolObjectInit
 452              	.LVL21:
 453              		.loc 1 97 0
 454 009c 0648     		ldr	r0, .L18+4
 455 009e FFF7FEFF 		bl	chPoolAlloc
 456              	.LVL22:
 457 00a2 D0F10101 		rsbs	r1, r0, #1
 458 00a6 38BF     		it	cc
 459 00a8 0021     		movcc	r1, #0
 460 00aa 0520     		movs	r0, #5
 461              	.LBE6:
 462              	.LBE8:
 463              		.loc 1 98 0
 464 00ac BDE83840 		pop	{r3, r4, r5, lr}
 465              	.LVL23:
 466              	.LBB9:
 467              	.LBB7:
 468              		.loc 1 97 0
 469 00b0 FFF7FEBF 		b	_test_assert
 470              	.LVL24:
 471              	.L19:
 472              		.align	2
 473              	.L18:
 474 00b4 00000000 		.word	wa
 475 00b8 00000000 		.word	.LANCHOR0
 476 00bc 00000000 		.word	null_provider
 477              	.LBE7:
 478              	.LBE9:
 479              		.cfi_endproc
 480              	.LFE243:
 481              		.size	pools1_execute, .-pools1_execute
 482              		.global	patternpools
 483              		.global	testpools1
 484              		.section	.rodata.str1.4,"aMS",%progbits,1
 485              		.align	2
 486              	.LC0:
 487 0000 4D656D6F 		.ascii	"Memory Pools, queue/dequeue\000"
 487      72792050 
 487      6F6F6C73 
 487      2C207175 
 487      6575652F 
 488              		.section	.rodata.patternpools,"a",%progbits
 489              		.align	2
 490              		.type	patternpools, %object
 491              		.size	patternpools, 8
 492              	patternpools:
 493 0000 00000000 		.word	testpools1
 494 0004 00000000 		.word	0
 495              		.section	.data.mp1,"aw",%progbits
 496              		.align	2
 497              		.set	.LANCHOR0,. + 0
 498              		.type	mp1, %object
 499              		.size	mp1, 12
 500              	mp1:
ARM GAS  /tmp/ccMIUx5X.s 			page 25


 501 0000 00000000 		.word	0
 502 0004 48010000 		.word	328
 503 0008 00000000 		.word	0
 504              		.section	.rodata.testpools1,"a",%progbits
 505              		.align	2
 506              		.type	testpools1, %object
 507              		.size	testpools1, 16
 508              	testpools1:
 509 0000 00000000 		.word	.LC0
 510 0004 00000000 		.word	pools1_setup
 511 0008 00000000 		.word	0
 512 000c 00000000 		.word	pools1_execute
 513              		.text
 514              	.Letext0:
 515              		.file 2 "/nfs/nfs5/home/research/hardware/arm2/gcc-arm-embedded/gcc-arm-none-eabi-4_8-2014q2/lib/g
 516              		.file 3 "/nfs/nfs5/home/research/hardware/arm2/gcc-arm-embedded/gcc-arm-none-eabi-4_8-2014q2/arm-n
 517              		.file 4 "/nfs/nfs5/home/research/hardware/arm2/gcc-arm-embedded/gcc-arm-none-eabi-4_8-2014q2/arm-n
 518              		.file 5 "../ChibiOS/os/rt/ports/ARMCMx/compilers/GCC/chtypes.h"
 519              		.file 6 "../ChibiOS/os/rt/include/chsystypes.h"
 520              		.file 7 "../ChibiOS/os/rt/include/chschd.h"
 521              		.file 8 "../ChibiOS/os/rt/ports/ARMCMx/chcore.h"
 522              		.file 9 "../ChibiOS/os/rt/ports/ARMCMx/chcore_v7m.h"
 523              		.file 10 "../ChibiOS/os/rt/include/chtm.h"
 524              		.file 11 "../ChibiOS/os/rt/include/chsem.h"
 525              		.file 12 "../ChibiOS/os/rt/include/chmtx.h"
 526              		.file 13 "../ChibiOS/os/rt/include/chmemcore.h"
 527              		.file 14 "../ChibiOS/os/rt/include/chmempools.h"
 528              		.file 15 "../ChibiOS/test/rt/test.h"
 529              		.file 16 "../ChibiOS/os/ext/CMSIS/include/core_cm4.h"