ARM GAS  /tmp/cc5URjbw.s 			page 1


   1              		.syntax unified
   2              		.cpu cortex-m4
   3              		.fpu softvfp
   4              		.eabi_attribute 20, 1
   5              		.eabi_attribute 21, 1
   6              		.eabi_attribute 23, 3
   7              		.eabi_attribute 24, 1
   8              		.eabi_attribute 25, 1
   9              		.eabi_attribute 26, 1
  10              		.eabi_attribute 30, 2
  11              		.eabi_attribute 34, 1
  12              		.eabi_attribute 18, 4
  13              		.thumb
  14              		.file	"board.c"
  15              		.text
  16              	.Ltext0:
  17              		.cfi_sections	.debug_frame
  18              		.section	.text.__early_init,"ax",%progbits
  19              		.align	2
  20              		.p2align 4,,15
  21              		.global	__early_init
  22              		.thumb
  23              		.thumb_func
  24              		.type	__early_init, %function
  25              	__early_init:
  26              	.LFB272:
  27              		.file 1 "../ChibiOS/os/hal/boards/ST_STM32F3_DISCOVERY/board.c"
  28              		.loc 1 70 0
  29              		.cfi_startproc
  30              		@ args = 0, pretend = 0, frame = 0
  31              		@ frame_needed = 0, uses_anonymous_args = 0
  32              		@ link register save eliminated.
  33              		.loc 1 72 0
  34 0000 FFF7FEBF 		b	stm32_clock_init
  35              	.LVL0:
  36              		.cfi_endproc
  37              	.LFE272:
  38              		.size	__early_init, .-__early_init
  39 0004 AFF30080 		.section	.text.mmc_lld_is_card_inserted,"ax",%progbits
  39      AFF30080 
  39      AFF30080 
  40              		.align	2
  41              		.p2align 4,,15
  42              		.global	mmc_lld_is_card_inserted
  43              		.thumb
  44              		.thumb_func
  45              		.type	mmc_lld_is_card_inserted, %function
  46              	mmc_lld_is_card_inserted:
  47              	.LFB273:
  48              		.loc 1 101 0
  49              		.cfi_startproc
  50              		@ args = 0, pretend = 0, frame = 0
  51              		@ frame_needed = 0, uses_anonymous_args = 0
  52              		@ link register save eliminated.
  53              	.LVL1:
  54              		.loc 1 106 0
  55 0000 0120     		movs	r0, #1
ARM GAS  /tmp/cc5URjbw.s 			page 2


  56              	.LVL2:
  57 0002 7047     		bx	lr
  58              		.cfi_endproc
  59              	.LFE273:
  60              		.size	mmc_lld_is_card_inserted, .-mmc_lld_is_card_inserted
  61 0004 AFF30080 		.section	.text.mmc_lld_is_write_protected,"ax",%progbits
  61      AFF30080 
  61      AFF30080 
  62              		.align	2
  63              		.p2align 4,,15
  64              		.global	mmc_lld_is_write_protected
  65              		.thumb
  66              		.thumb_func
  67              		.type	mmc_lld_is_write_protected, %function
  68              	mmc_lld_is_write_protected:
  69              	.LFB274:
  70              		.loc 1 111 0
  71              		.cfi_startproc
  72              		@ args = 0, pretend = 0, frame = 0
  73              		@ frame_needed = 0, uses_anonymous_args = 0
  74              		@ link register save eliminated.
  75              	.LVL3:
  76              		.loc 1 116 0
  77 0000 0020     		movs	r0, #0
  78              	.LVL4:
  79 0002 7047     		bx	lr
  80              		.cfi_endproc
  81              	.LFE274:
  82              		.size	mmc_lld_is_write_protected, .-mmc_lld_is_write_protected
  83 0004 AFF30080 		.section	.text.boardInit,"ax",%progbits
  83      AFF30080 
  83      AFF30080 
  84              		.align	2
  85              		.p2align 4,,15
  86              		.global	boardInit
  87              		.thumb
  88              		.thumb_func
  89              		.type	boardInit, %function
  90              	boardInit:
  91              	.LFB275:
  92              		.loc 1 123 0
  93              		.cfi_startproc
  94              		@ args = 0, pretend = 0, frame = 0
  95              		@ frame_needed = 0, uses_anonymous_args = 0
  96              		@ link register save eliminated.
  97 0000 7047     		bx	lr
  98              		.cfi_endproc
  99              	.LFE275:
 100              		.size	boardInit, .-boardInit
 101              		.global	pal_default_config
 102 0002 00BFAFF3 		.section	.rodata.pal_default_config,"a",%progbits
 102      0080AFF3 
 102      0080AFF3 
 102      0080
 103              		.align	2
 104              		.type	pal_default_config, %object
 105              		.size	pal_default_config, 168
ARM GAS  /tmp/cc5URjbw.s 			page 3


 106              	pal_default_config:
 107 0000 00A8802A 		.word	713074688
 108 0004 00000000 		.word	0
 109 0008 00FCC03C 		.word	1019280384
 110 000c 54111564 		.word	1679102292
 111 0010 FFFF0000 		.word	65535
 112 0014 00005055 		.word	1431306240
 113 0018 00E00E00 		.word	974848
 114 001c 80A00000 		.word	41088
 115 0020 C0000000 		.word	192
 116 0024 C0F00000 		.word	61632
 117 0028 15055555 		.word	1431635221
 118 002c FFFF0000 		.word	65535
 119 0030 00000044 		.word	1140850688
 120 0034 00000000 		.word	0
 121 0038 00000000 		.word	0
 122 003c 00000000 		.word	0
 123 0040 000000F0 		.word	-268435456
 124 0044 55555505 		.word	89478485
 125 0048 FFFF0000 		.word	65535
 126 004c 00000000 		.word	0
 127 0050 00000000 		.word	0
 128 0054 00000000 		.word	0
 129 0058 00000000 		.word	0
 130 005c 00000000 		.word	0
 131 0060 55555555 		.word	1431655765
 132 0064 FFFF0000 		.word	65535
 133 0068 00000000 		.word	0
 134 006c 00000000 		.word	0
 135 0070 40005555 		.word	1431633984
 136 0074 00000000 		.word	0
 137 0078 C000FFFF 		.word	-65344
 138 007c 15551501 		.word	18175253
 139 0080 FF000000 		.word	255
 140 0084 00000000 		.word	0
 141 0088 00000000 		.word	0
 142 008c 00000000 		.word	0
 143 0090 00000000 		.word	0
 144 0094 0F000000 		.word	15
 145 0098 50555555 		.word	1431655760
 146 009c FFFF0000 		.word	65535
 147 00a0 00000000 		.word	0
 148 00a4 00000000 		.word	0
 149              		.text
 150              	.Letext0:
 151              		.file 2 "/nfs/nfs5/home/research/hardware/arm2/gcc-arm-embedded/gcc-arm-none-eabi-4_8-2014q2/lib/g
 152              		.file 3 "/nfs/nfs5/home/research/hardware/arm2/gcc-arm-embedded/gcc-arm-none-eabi-4_8-2014q2/arm-n
 153              		.file 4 "/nfs/nfs5/home/research/hardware/arm2/gcc-arm-embedded/gcc-arm-none-eabi-4_8-2014q2/arm-n
 154              		.file 5 "../ChibiOS/os/rt/ports/ARMCMx/compilers/GCC/chtypes.h"
 155              		.file 6 "../ChibiOS/os/rt/include/chsystypes.h"
 156              		.file 7 "../ChibiOS/os/rt/include/chschd.h"
 157              		.file 8 "../ChibiOS/os/ext/CMSIS/ST/STM32F3xx/stm32f303xc.h"
 158              		.file 9 "../ChibiOS/os/rt/ports/ARMCMx/chcore.h"
 159              		.file 10 "../ChibiOS/os/rt/ports/ARMCMx/chcore_v7m.h"
 160              		.file 11 "../ChibiOS/os/rt/include/chtm.h"
 161              		.file 12 "../ChibiOS/os/rt/include/chsem.h"
 162              		.file 13 "../ChibiOS/os/rt/include/chmtx.h"
ARM GAS  /tmp/cc5URjbw.s 			page 4


 163              		.file 14 "../ChibiOS/os/hal/ports/STM32/LLD/DMAv1/stm32_dma.h"
 164              		.file 15 "../ChibiOS/os/hal/include/hal_ioblock.h"
 165              		.file 16 "../ChibiOS/os/hal/ports/STM32/LLD/GPIOv2/pal_lld.h"
 166              		.file 17 "../ChibiOS/os/hal/include/spi.h"
 167              		.file 18 "../ChibiOS/os/hal/ports/STM32/LLD/SPIv2/spi_lld.h"
 168              		.file 19 "../ChibiOS/os/hal/include/mmc_spi.h"
 169              		.file 20 "../ChibiOS/os/ext/CMSIS/include/core_cm4.h"
 170              		.file 21 "../ChibiOS/os/hal/ports/STM32/STM32F3xx/hal_lld.h"