ARM GAS  /tmp/ccOMgWpT.s 			page 1


   1              		.syntax unified
   2              		.cpu cortex-m4
   3              		.fpu softvfp
   4              		.eabi_attribute 20, 1
   5              		.eabi_attribute 21, 1
   6              		.eabi_attribute 23, 3
   7              		.eabi_attribute 24, 1
   8              		.eabi_attribute 25, 1
   9              		.eabi_attribute 26, 1
  10              		.eabi_attribute 30, 2
  11              		.eabi_attribute 34, 1
  12              		.eabi_attribute 18, 4
  13              		.thumb
  14              		.file	"chmempools.c"
  15              		.text
  16              	.Ltext0:
  17              		.cfi_sections	.debug_frame
  18              		.section	.text.chPoolObjectInit,"ax",%progbits
  19              		.align	2
  20              		.p2align 4,,15
  21              		.global	chPoolObjectInit
  22              		.thumb
  23              		.thumb_func
  24              		.type	chPoolObjectInit, %function
  25              	chPoolObjectInit:
  26              	.LFB241:
  27              		.file 1 "../ChibiOS/os/rt/src/chmempools.c"
  28              		.loc 1 75 0
  29              		.cfi_startproc
  30              		@ args = 0, pretend = 0, frame = 0
  31              		@ frame_needed = 0, uses_anonymous_args = 0
  32              		@ link register save eliminated.
  33              	.LVL0:
  34              		.loc 1 79 0
  35 0000 0023     		movs	r3, #0
  36              		.loc 1 80 0
  37 0002 4160     		str	r1, [r0, #4]
  38              		.loc 1 81 0
  39 0004 8260     		str	r2, [r0, #8]
  40              		.loc 1 79 0
  41 0006 0360     		str	r3, [r0]
  42 0008 7047     		bx	lr
  43              		.cfi_endproc
  44              	.LFE241:
  45              		.size	chPoolObjectInit, .-chPoolObjectInit
  46 000a 00BFAFF3 		.section	.text.chPoolLoadArray,"ax",%progbits
  46      0080
  47              		.align	2
  48              		.p2align 4,,15
  49              		.global	chPoolLoadArray
  50              		.thumb
  51              		.thumb_func
  52              		.type	chPoolLoadArray, %function
  53              	chPoolLoadArray:
  54              	.LFB242:
  55              		.loc 1 97 0
  56              		.cfi_startproc
ARM GAS  /tmp/ccOMgWpT.s 			page 2


  57              		@ args = 0, pretend = 0, frame = 0
  58              		@ frame_needed = 0, uses_anonymous_args = 0
  59              		@ link register save eliminated.
  60              	.LVL1:
  61 0000 30B4     		push	{r4, r5}
  62              		.cfi_def_cfa_offset 8
  63              		.cfi_offset 4, -8
  64              		.cfi_offset 5, -4
  65              		.loc 1 101 0
  66 0002 62B1     		cbz	r2, .L2
  67              	.LBB77:
  68              	.LBB78:
  69              	.LBB79:
  70              	.LBB80:
  71              	.LBB81:
  72              	.LBB82:
  73              		.file 2 "../ChibiOS/os/ext/CMSIS/include/core_cmFunc.h"
  74              		.loc 2 548 0
  75 0004 2025     		movs	r5, #32
  76              	.LBE82:
  77              	.LBE81:
  78              	.LBE80:
  79              	.LBE79:
  80              	.LBB86:
  81              	.LBB87:
  82              	.LBB88:
  83              	.LBB89:
  84              	.LBB90:
  85 0006 0024     		movs	r4, #0
  86              	.LVL2:
  87              	.L5:
  88              	.LBE90:
  89              	.LBE89:
  90              	.LBE88:
  91              	.LBE87:
  92              	.LBE86:
  93              	.LBB95:
  94              	.LBB85:
  95              	.LBB84:
  96              	.LBB83:
  97              	@ 548 "../ChibiOS/os/ext/CMSIS/include/core_cmFunc.h" 1
  98 0008 85F31188 		MSR basepri, r5
  99              	@ 0 "" 2
 100              	.LVL3:
 101              		.thumb
 102              	.LBE83:
 103              	.LBE84:
 104              	.LBE85:
 105              	.LBE95:
 106              	.LBB96:
 107              	.LBB97:
 108              		.loc 1 177 0
 109 000c 0368     		ldr	r3, [r0]
 110 000e 0B60     		str	r3, [r1]
 111              		.loc 1 178 0
 112 0010 0160     		str	r1, [r0]
 113              	.LVL4:
ARM GAS  /tmp/ccOMgWpT.s 			page 3


 114              	.LBE97:
 115              	.LBE96:
 116              	.LBB98:
 117              	.LBB94:
 118              	.LBB93:
 119              	.LBB92:
 120              	.LBB91:
 121              		.loc 2 548 0
 122              	@ 548 "../ChibiOS/os/ext/CMSIS/include/core_cmFunc.h" 1
 123 0012 84F31188 		MSR basepri, r4
 124              	@ 0 "" 2
 125              		.thumb
 126              	.LBE91:
 127              	.LBE92:
 128              	.LBE93:
 129              	.LBE94:
 130              	.LBE98:
 131              	.LBE78:
 132              	.LBE77:
 133              		.loc 1 104 0
 134 0016 4368     		ldr	r3, [r0, #4]
 135              		.loc 1 101 0
 136 0018 013A     		subs	r2, r2, #1
 137              	.LVL5:
 138              		.loc 1 104 0
 139 001a 1944     		add	r1, r1, r3
 140              	.LVL6:
 141              		.loc 1 101 0
 142 001c F4D1     		bne	.L5
 143              	.LVL7:
 144              	.L2:
 145              		.loc 1 108 0
 146 001e 30BC     		pop	{r4, r5}
 147 0020 7047     		bx	lr
 148              		.cfi_endproc
 149              	.LFE242:
 150              		.size	chPoolLoadArray, .-chPoolLoadArray
 151 0022 00BFAFF3 		.section	.text.chPoolAllocI,"ax",%progbits
 151      0080AFF3 
 151      0080AFF3 
 151      0080
 152              		.align	2
 153              		.p2align 4,,15
 154              		.global	chPoolAllocI
 155              		.thumb
 156              		.thumb_func
 157              		.type	chPoolAllocI, %function
 158              	chPoolAllocI:
 159              	.LFB243:
 160              		.loc 1 120 0
 161              		.cfi_startproc
 162              		@ args = 0, pretend = 0, frame = 0
 163              		@ frame_needed = 0, uses_anonymous_args = 0
 164              	.LVL8:
 165 0000 08B5     		push	{r3, lr}
 166              		.cfi_def_cfa_offset 8
 167              		.cfi_offset 3, -8
ARM GAS  /tmp/ccOMgWpT.s 			page 4


 168              		.cfi_offset 14, -4
 169              		.loc 1 120 0
 170 0002 0346     		mov	r3, r0
 171              		.loc 1 126 0
 172 0004 0068     		ldr	r0, [r0]
 173              	.LVL9:
 174              		.loc 1 128 0
 175 0006 10B1     		cbz	r0, .L12
 176              		.loc 1 129 0
 177 0008 0268     		ldr	r2, [r0]
 178 000a 1A60     		str	r2, [r3]
 179 000c 08BD     		pop	{r3, pc}
 180              	.LVL10:
 181              	.L12:
 182              		.loc 1 131 0
 183 000e 9A68     		ldr	r2, [r3, #8]
 184 0010 0AB1     		cbz	r2, .L13
 185              		.loc 1 132 0
 186 0012 5868     		ldr	r0, [r3, #4]
 187              	.LVL11:
 188 0014 9047     		blx	r2
 189              	.LVL12:
 190              	.L13:
 191              		.loc 1 137 0
 192 0016 08BD     		pop	{r3, pc}
 193              		.cfi_endproc
 194              	.LFE243:
 195              		.size	chPoolAllocI, .-chPoolAllocI
 196 0018 AFF30080 		.section	.text.chPoolAlloc,"ax",%progbits
 196      AFF30080 
 197              		.align	2
 198              		.p2align 4,,15
 199              		.global	chPoolAlloc
 200              		.thumb
 201              		.thumb_func
 202              		.type	chPoolAlloc, %function
 203              	chPoolAlloc:
 204              	.LFB244:
 205              		.loc 1 149 0
 206              		.cfi_startproc
 207              		@ args = 0, pretend = 0, frame = 0
 208              		@ frame_needed = 0, uses_anonymous_args = 0
 209              	.LVL13:
 210 0000 08B5     		push	{r3, lr}
 211              		.cfi_def_cfa_offset 8
 212              		.cfi_offset 3, -8
 213              		.cfi_offset 14, -4
 214              	.LBB99:
 215              	.LBB100:
 216              	.LBB101:
 217              	.LBB102:
 218              		.loc 2 548 0
 219 0002 2022     		movs	r2, #32
 220              	.LBE102:
 221              	.LBE101:
 222              	.LBE100:
 223              	.LBE99:
ARM GAS  /tmp/ccOMgWpT.s 			page 5


 224              		.loc 1 149 0
 225 0004 0346     		mov	r3, r0
 226              	.LBB106:
 227              	.LBB105:
 228              	.LBB104:
 229              	.LBB103:
 230              		.loc 2 548 0
 231              	@ 548 "../ChibiOS/os/ext/CMSIS/include/core_cmFunc.h" 1
 232 0006 82F31188 		MSR basepri, r2
 233              	@ 0 "" 2
 234              	.LVL14:
 235              		.thumb
 236              	.LBE103:
 237              	.LBE104:
 238              	.LBE105:
 239              	.LBE106:
 240              	.LBB107:
 241              	.LBB108:
 242              		.loc 1 126 0
 243 000a 0068     		ldr	r0, [r0]
 244              	.LVL15:
 245              		.loc 1 128 0
 246 000c 28B1     		cbz	r0, .L18
 247              		.loc 1 129 0
 248 000e 0268     		ldr	r2, [r0]
 249 0010 1A60     		str	r2, [r3]
 250              	.L19:
 251              	.LVL16:
 252              	.LBE108:
 253              	.LBE107:
 254              	.LBB110:
 255              	.LBB111:
 256              	.LBB112:
 257              	.LBB113:
 258              	.LBB114:
 259              		.loc 2 548 0
 260 0012 0023     		movs	r3, #0
 261              	.LVL17:
 262              	@ 548 "../ChibiOS/os/ext/CMSIS/include/core_cmFunc.h" 1
 263 0014 83F31188 		MSR basepri, r3
 264              	@ 0 "" 2
 265              		.thumb
 266              	.LBE114:
 267              	.LBE113:
 268              	.LBE112:
 269              	.LBE111:
 270              	.LBE110:
 271              		.loc 1 157 0
 272 0018 08BD     		pop	{r3, pc}
 273              	.LVL18:
 274              	.L18:
 275              	.LBB119:
 276              	.LBB109:
 277              		.loc 1 131 0
 278 001a 9A68     		ldr	r2, [r3, #8]
 279 001c 002A     		cmp	r2, #0
 280 001e F8D0     		beq	.L19
ARM GAS  /tmp/ccOMgWpT.s 			page 6


 281              		.loc 1 132 0
 282 0020 5868     		ldr	r0, [r3, #4]
 283              	.LVL19:
 284 0022 9047     		blx	r2
 285              	.LVL20:
 286              	.LBE109:
 287              	.LBE119:
 288              	.LBB120:
 289              	.LBB118:
 290              	.LBB117:
 291              	.LBB116:
 292              	.LBB115:
 293              		.loc 2 548 0
 294 0024 0023     		movs	r3, #0
 295              	@ 548 "../ChibiOS/os/ext/CMSIS/include/core_cmFunc.h" 1
 296 0026 83F31188 		MSR basepri, r3
 297              	@ 0 "" 2
 298              		.thumb
 299              	.LBE115:
 300              	.LBE116:
 301              	.LBE117:
 302              	.LBE118:
 303              	.LBE120:
 304              		.loc 1 157 0
 305 002a 08BD     		pop	{r3, pc}
 306              		.cfi_endproc
 307              	.LFE244:
 308              		.size	chPoolAlloc, .-chPoolAlloc
 309 002c AFF30080 		.section	.text.chPoolFreeI,"ax",%progbits
 310              		.align	2
 311              		.p2align 4,,15
 312              		.global	chPoolFreeI
 313              		.thumb
 314              		.thumb_func
 315              		.type	chPoolFreeI, %function
 316              	chPoolFreeI:
 317              	.LFB245:
 318              		.loc 1 171 0
 319              		.cfi_startproc
 320              		@ args = 0, pretend = 0, frame = 0
 321              		@ frame_needed = 0, uses_anonymous_args = 0
 322              		@ link register save eliminated.
 323              	.LVL21:
 324              		.loc 1 177 0
 325 0000 0368     		ldr	r3, [r0]
 326 0002 0B60     		str	r3, [r1]
 327              		.loc 1 178 0
 328 0004 0160     		str	r1, [r0]
 329 0006 7047     		bx	lr
 330              		.cfi_endproc
 331              	.LFE245:
 332              		.size	chPoolFreeI, .-chPoolFreeI
 333 0008 AFF30080 		.section	.text.chPoolFree,"ax",%progbits
 333      AFF30080 
 334              		.align	2
 335              		.p2align 4,,15
 336              		.global	chPoolFree
ARM GAS  /tmp/ccOMgWpT.s 			page 7


 337              		.thumb
 338              		.thumb_func
 339              		.type	chPoolFree, %function
 340              	chPoolFree:
 341              	.LFB246:
 342              		.loc 1 193 0
 343              		.cfi_startproc
 344              		@ args = 0, pretend = 0, frame = 0
 345              		@ frame_needed = 0, uses_anonymous_args = 0
 346              		@ link register save eliminated.
 347              	.LVL22:
 348              	.LBB121:
 349              	.LBB122:
 350              	.LBB123:
 351              	.LBB124:
 352              		.loc 2 548 0
 353 0000 2023     		movs	r3, #32
 354              	@ 548 "../ChibiOS/os/ext/CMSIS/include/core_cmFunc.h" 1
 355 0002 83F31188 		MSR basepri, r3
 356              	@ 0 "" 2
 357              	.LVL23:
 358              		.thumb
 359              	.LBE124:
 360              	.LBE123:
 361              	.LBE122:
 362              	.LBE121:
 363              	.LBB125:
 364              	.LBB126:
 365              		.loc 1 177 0
 366 0006 0368     		ldr	r3, [r0]
 367 0008 0B60     		str	r3, [r1]
 368              	.LBE126:
 369              	.LBE125:
 370              	.LBB128:
 371              	.LBB129:
 372              	.LBB130:
 373              	.LBB131:
 374              	.LBB132:
 375              		.loc 2 548 0
 376 000a 0023     		movs	r3, #0
 377              	.LBE132:
 378              	.LBE131:
 379              	.LBE130:
 380              	.LBE129:
 381              	.LBE128:
 382              	.LBB137:
 383              	.LBB127:
 384              		.loc 1 178 0
 385 000c 0160     		str	r1, [r0]
 386              	.LVL24:
 387              	.LBE127:
 388              	.LBE137:
 389              	.LBB138:
 390              	.LBB136:
 391              	.LBB135:
 392              	.LBB134:
 393              	.LBB133:
ARM GAS  /tmp/ccOMgWpT.s 			page 8


 394              		.loc 2 548 0
 395              	@ 548 "../ChibiOS/os/ext/CMSIS/include/core_cmFunc.h" 1
 396 000e 83F31188 		MSR basepri, r3
 397              	@ 0 "" 2
 398              		.thumb
 399 0012 7047     		bx	lr
 400              	.LBE133:
 401              	.LBE134:
 402              	.LBE135:
 403              	.LBE136:
 404              	.LBE138:
 405              		.cfi_endproc
 406              	.LFE246:
 407              		.size	chPoolFree, .-chPoolFree
 408 0014 AFF30080 		.text
 408      AFF30080 
 408      AFF30080 
 409              	.Letext0:
 410              		.file 3 "/nfs/nfs5/home/research/hardware/arm2/gcc-arm-embedded/gcc-arm-none-eabi-4_8-2014q2/lib/g
 411              		.file 4 "/nfs/nfs5/home/research/hardware/arm2/gcc-arm-embedded/gcc-arm-none-eabi-4_8-2014q2/arm-n
 412              		.file 5 "/nfs/nfs5/home/research/hardware/arm2/gcc-arm-embedded/gcc-arm-none-eabi-4_8-2014q2/arm-n
 413              		.file 6 "../ChibiOS/os/rt/ports/ARMCMx/compilers/GCC/chtypes.h"
 414              		.file 7 "../ChibiOS/os/rt/include/chsystypes.h"
 415              		.file 8 "../ChibiOS/os/rt/include/chschd.h"
 416              		.file 9 "../ChibiOS/os/rt/ports/ARMCMx/chcore.h"
 417              		.file 10 "../ChibiOS/os/rt/ports/ARMCMx/chcore_v7m.h"
 418              		.file 11 "../ChibiOS/os/rt/include/chtm.h"
 419              		.file 12 "../ChibiOS/os/rt/include/chsem.h"
 420              		.file 13 "../ChibiOS/os/rt/include/chmtx.h"
 421              		.file 14 "../ChibiOS/os/rt/include/chmemcore.h"
 422              		.file 15 "../ChibiOS/os/rt/include/chmempools.h"
 423              		.file 16 "../ChibiOS/os/rt/include/chsys.h"
 424              		.file 17 "../ChibiOS/os/ext/CMSIS/include/core_cm4.h"
 425              		.section	.debug_info,"",%progbits
 426              	.Ldebug_info0:
 427 0000 B70B0000 		.4byte	0xbb7
 428 0004 0400     		.2byte	0x4
 429 0006 00000000 		.4byte	.Ldebug_abbrev0
 430 000a 04       		.byte	0x4
 431 000b 01       		.uleb128 0x1
 432 000c 68040000 		.4byte	.LASF126
 433 0010 01       		.byte	0x1
 434 0011 09020000 		.4byte	.LASF127
 435 0015 1A010000 		.4byte	.LASF128
 436 0019 A8000000 		.4byte	.Ldebug_ranges0+0xa8
 437 001d 00000000 		.4byte	0
 438 0021 00000000 		.4byte	.Ldebug_line0
 439 0025 02       		.uleb128 0x2
 440 0026 04       		.byte	0x4
 441 0027 05       		.byte	0x5
 442 0028 696E7400 		.ascii	"int\000"
 443 002c 03       		.uleb128 0x3
 444 002d 0D000000 		.4byte	.LASF2
 445 0031 03       		.byte	0x3
 446 0032 D4       		.byte	0xd4
 447 0033 37000000 		.4byte	0x37
 448 0037 04       		.uleb128 0x4
ARM GAS  /tmp/ccOMgWpT.s 			page 9


 449 0038 04       		.byte	0x4
 450 0039 07       		.byte	0x7
 451 003a CE010000 		.4byte	.LASF0
 452 003e 04       		.uleb128 0x4
 453 003f 01       		.byte	0x1
 454 0040 06       		.byte	0x6
 455 0041 E5000000 		.4byte	.LASF1
 456 0045 03       		.uleb128 0x3
 457 0046 24000000 		.4byte	.LASF3
 458 004a 04       		.byte	0x4
 459 004b 1C       		.byte	0x1c
 460 004c 50000000 		.4byte	0x50
 461 0050 04       		.uleb128 0x4
 462 0051 01       		.byte	0x1
 463 0052 08       		.byte	0x8
 464 0053 8D030000 		.4byte	.LASF4
 465 0057 04       		.uleb128 0x4
 466 0058 02       		.byte	0x2
 467 0059 05       		.byte	0x5
 468 005a A5030000 		.4byte	.LASF5
 469 005e 04       		.uleb128 0x4
 470 005f 02       		.byte	0x2
 471 0060 07       		.byte	0x7
 472 0061 73010000 		.4byte	.LASF6
 473 0065 03       		.uleb128 0x3
 474 0066 84020000 		.4byte	.LASF7
 475 006a 04       		.byte	0x4
 476 006b 37       		.byte	0x37
 477 006c 70000000 		.4byte	0x70
 478 0070 04       		.uleb128 0x4
 479 0071 04       		.byte	0x4
 480 0072 05       		.byte	0x5
 481 0073 49010000 		.4byte	.LASF8
 482 0077 03       		.uleb128 0x3
 483 0078 67050000 		.4byte	.LASF9
 484 007c 04       		.byte	0x4
 485 007d 38       		.byte	0x38
 486 007e 82000000 		.4byte	0x82
 487 0082 04       		.uleb128 0x4
 488 0083 04       		.byte	0x4
 489 0084 07       		.byte	0x7
 490 0085 48040000 		.4byte	.LASF10
 491 0089 04       		.uleb128 0x4
 492 008a 08       		.byte	0x8
 493 008b 05       		.byte	0x5
 494 008c D7000000 		.4byte	.LASF11
 495 0090 03       		.uleb128 0x3
 496 0091 3B030000 		.4byte	.LASF12
 497 0095 04       		.byte	0x4
 498 0096 4E       		.byte	0x4e
 499 0097 9B000000 		.4byte	0x9b
 500 009b 04       		.uleb128 0x4
 501 009c 08       		.byte	0x8
 502 009d 07       		.byte	0x7
 503 009e 69000000 		.4byte	.LASF13
 504 00a2 03       		.uleb128 0x3
 505 00a3 DA050000 		.4byte	.LASF14
ARM GAS  /tmp/ccOMgWpT.s 			page 10


 506 00a7 05       		.byte	0x5
 507 00a8 2A       		.byte	0x2a
 508 00a9 45000000 		.4byte	0x45
 509 00ad 03       		.uleb128 0x3
 510 00ae 85030000 		.4byte	.LASF15
 511 00b2 05       		.byte	0x5
 512 00b3 41       		.byte	0x41
 513 00b4 65000000 		.4byte	0x65
 514 00b8 03       		.uleb128 0x3
 515 00b9 17040000 		.4byte	.LASF16
 516 00bd 05       		.byte	0x5
 517 00be 42       		.byte	0x42
 518 00bf 77000000 		.4byte	0x77
 519 00c3 03       		.uleb128 0x3
 520 00c4 1B000000 		.4byte	.LASF17
 521 00c8 05       		.byte	0x5
 522 00c9 4E       		.byte	0x4e
 523 00ca 90000000 		.4byte	0x90
 524 00ce 03       		.uleb128 0x3
 525 00cf A2050000 		.4byte	.LASF18
 526 00d3 06       		.byte	0x6
 527 00d4 39       		.byte	0x39
 528 00d5 B8000000 		.4byte	0xb8
 529 00d9 03       		.uleb128 0x3
 530 00da 51020000 		.4byte	.LASF19
 531 00de 06       		.byte	0x6
 532 00df 3C       		.byte	0x3c
 533 00e0 A2000000 		.4byte	0xa2
 534 00e4 03       		.uleb128 0x3
 535 00e5 52010000 		.4byte	.LASF20
 536 00e9 06       		.byte	0x6
 537 00ea 3D       		.byte	0x3d
 538 00eb A2000000 		.4byte	0xa2
 539 00ef 03       		.uleb128 0x3
 540 00f0 4E030000 		.4byte	.LASF21
 541 00f4 06       		.byte	0x6
 542 00f5 3E       		.byte	0x3e
 543 00f6 A2000000 		.4byte	0xa2
 544 00fa 03       		.uleb128 0x3
 545 00fb 6D030000 		.4byte	.LASF22
 546 00ff 06       		.byte	0x6
 547 0100 40       		.byte	0x40
 548 0101 B8000000 		.4byte	0xb8
 549 0105 03       		.uleb128 0x3
 550 0106 35020000 		.4byte	.LASF23
 551 010a 06       		.byte	0x6
 552 010b 41       		.byte	0x41
 553 010c AD000000 		.4byte	0xad
 554 0110 03       		.uleb128 0x3
 555 0111 78020000 		.4byte	.LASF24
 556 0115 06       		.byte	0x6
 557 0116 43       		.byte	0x43
 558 0117 B8000000 		.4byte	0xb8
 559 011b 03       		.uleb128 0x3
 560 011c C8010000 		.4byte	.LASF25
 561 0120 06       		.byte	0x6
 562 0121 45       		.byte	0x45
ARM GAS  /tmp/ccOMgWpT.s 			page 11


 563 0122 AD000000 		.4byte	0xad
 564 0126 03       		.uleb128 0x3
 565 0127 49050000 		.4byte	.LASF26
 566 012b 07       		.byte	0x7
 567 012c 33       		.byte	0x33
 568 012d B8000000 		.4byte	0xb8
 569 0131 03       		.uleb128 0x3
 570 0132 5F040000 		.4byte	.LASF27
 571 0136 07       		.byte	0x7
 572 0137 3F       		.byte	0x3f
 573 0138 3C010000 		.4byte	0x13c
 574 013c 05       		.uleb128 0x5
 575 013d 2B020000 		.4byte	.LASF46
 576 0141 40       		.byte	0x40
 577 0142 08       		.byte	0x8
 578 0143 C2       		.byte	0xc2
 579 0144 1C020000 		.4byte	0x21c
 580 0148 06       		.uleb128 0x6
 581 0149 C5030000 		.4byte	.LASF28
 582 014d 08       		.byte	0x8
 583 014e C3       		.byte	0xc3
 584 014f 27020000 		.4byte	0x227
 585 0153 00       		.byte	0
 586 0154 06       		.uleb128 0x6
 587 0155 66030000 		.4byte	.LASF29
 588 0159 08       		.byte	0x8
 589 015a C5       		.byte	0xc5
 590 015b 27020000 		.4byte	0x227
 591 015f 04       		.byte	0x4
 592 0160 06       		.uleb128 0x6
 593 0161 D0000000 		.4byte	.LASF30
 594 0165 08       		.byte	0x8
 595 0166 C7       		.byte	0xc7
 596 0167 FA000000 		.4byte	0xfa
 597 016b 08       		.byte	0x8
 598 016c 06       		.uleb128 0x6
 599 016d 47060000 		.4byte	.LASF31
 600 0171 08       		.byte	0x8
 601 0172 C8       		.byte	0xc8
 602 0173 57040000 		.4byte	0x457
 603 0177 0C       		.byte	0xc
 604 0178 06       		.uleb128 0x6
 605 0179 63010000 		.4byte	.LASF32
 606 017d 08       		.byte	0x8
 607 017e CA       		.byte	0xca
 608 017f 27020000 		.4byte	0x227
 609 0183 10       		.byte	0x10
 610 0184 06       		.uleb128 0x6
 611 0185 FB020000 		.4byte	.LASF33
 612 0189 08       		.byte	0x8
 613 018a CB       		.byte	0xcb
 614 018b 27020000 		.4byte	0x227
 615 018f 14       		.byte	0x14
 616 0190 06       		.uleb128 0x6
 617 0191 00060000 		.4byte	.LASF34
 618 0195 08       		.byte	0x8
 619 0196 D2       		.byte	0xd2
ARM GAS  /tmp/ccOMgWpT.s 			page 12


 620 0197 E2050000 		.4byte	0x5e2
 621 019b 18       		.byte	0x18
 622 019c 06       		.uleb128 0x6
 623 019d AF030000 		.4byte	.LASF35
 624 01a1 08       		.byte	0x8
 625 01a2 DD       		.byte	0xdd
 626 01a3 E4000000 		.4byte	0xe4
 627 01a7 1C       		.byte	0x1c
 628 01a8 06       		.uleb128 0x6
 629 01a9 1B060000 		.4byte	.LASF36
 630 01ad 08       		.byte	0x8
 631 01ae E1       		.byte	0xe1
 632 01af D9000000 		.4byte	0xd9
 633 01b3 1D       		.byte	0x1d
 634 01b4 06       		.uleb128 0x6
 635 01b5 CD050000 		.4byte	.LASF37
 636 01b9 08       		.byte	0x8
 637 01ba E6       		.byte	0xe6
 638 01bb EF000000 		.4byte	0xef
 639 01bf 1E       		.byte	0x1e
 640 01c0 07       		.uleb128 0x7
 641 01c1 705F7500 		.ascii	"p_u\000"
 642 01c5 08       		.byte	0x8
 643 01c6 3701     		.2byte	0x137
 644 01c8 11050000 		.4byte	0x511
 645 01cc 20       		.byte	0x20
 646 01cd 08       		.uleb128 0x8
 647 01ce 99020000 		.4byte	.LASF38
 648 01d2 08       		.byte	0x8
 649 01d3 3C01     		.2byte	0x13c
 650 01d5 2D020000 		.4byte	0x22d
 651 01d9 24       		.byte	0x24
 652 01da 08       		.uleb128 0x8
 653 01db EA010000 		.4byte	.LASF39
 654 01df 08       		.byte	0x8
 655 01e0 4201     		.2byte	0x142
 656 01e2 51020000 		.4byte	0x251
 657 01e6 28       		.byte	0x28
 658 01e7 08       		.uleb128 0x8
 659 01e8 0C040000 		.4byte	.LASF40
 660 01ec 08       		.byte	0x8
 661 01ed 4801     		.2byte	0x148
 662 01ef 10010000 		.4byte	0x110
 663 01f3 30       		.byte	0x30
 664 01f4 08       		.uleb128 0x8
 665 01f5 9B030000 		.4byte	.LASF41
 666 01f9 08       		.byte	0x8
 667 01fa 4F01     		.2byte	0x14f
 668 01fc DC050000 		.4byte	0x5dc
 669 0200 34       		.byte	0x34
 670 0201 08       		.uleb128 0x8
 671 0202 53050000 		.4byte	.LASF42
 672 0206 08       		.byte	0x8
 673 0207 5301     		.2byte	0x153
 674 0209 FA000000 		.4byte	0xfa
 675 020d 38       		.byte	0x38
 676 020e 08       		.uleb128 0x8
ARM GAS  /tmp/ccOMgWpT.s 			page 13


 677 020f F1000000 		.4byte	.LASF43
 678 0213 08       		.byte	0x8
 679 0214 5A01     		.2byte	0x15a
 680 0216 04030000 		.4byte	0x304
 681 021a 3C       		.byte	0x3c
 682 021b 00       		.byte	0
 683 021c 03       		.uleb128 0x3
 684 021d AC020000 		.4byte	.LASF44
 685 0221 07       		.byte	0x7
 686 0222 44       		.byte	0x44
 687 0223 27020000 		.4byte	0x227
 688 0227 09       		.uleb128 0x9
 689 0228 04       		.byte	0x4
 690 0229 31010000 		.4byte	0x131
 691 022d 03       		.uleb128 0x3
 692 022e 0C060000 		.4byte	.LASF45
 693 0232 07       		.byte	0x7
 694 0233 49       		.byte	0x49
 695 0234 38020000 		.4byte	0x238
 696 0238 05       		.uleb128 0x5
 697 0239 38040000 		.4byte	.LASF47
 698 023d 04       		.byte	0x4
 699 023e 08       		.byte	0x8
 700 023f B0       		.byte	0xb0
 701 0240 51020000 		.4byte	0x251
 702 0244 06       		.uleb128 0x6
 703 0245 C5030000 		.4byte	.LASF28
 704 0249 08       		.byte	0x8
 705 024a B1       		.byte	0xb1
 706 024b 27020000 		.4byte	0x227
 707 024f 00       		.byte	0
 708 0250 00       		.byte	0
 709 0251 03       		.uleb128 0x3
 710 0252 B1050000 		.4byte	.LASF48
 711 0256 07       		.byte	0x7
 712 0257 50       		.byte	0x50
 713 0258 5C020000 		.4byte	0x25c
 714 025c 05       		.uleb128 0x5
 715 025d BF000000 		.4byte	.LASF49
 716 0261 08       		.byte	0x8
 717 0262 08       		.byte	0x8
 718 0263 B7       		.byte	0xb7
 719 0264 81020000 		.4byte	0x281
 720 0268 06       		.uleb128 0x6
 721 0269 C5030000 		.4byte	.LASF28
 722 026d 08       		.byte	0x8
 723 026e B8       		.byte	0xb8
 724 026f 27020000 		.4byte	0x227
 725 0273 00       		.byte	0
 726 0274 06       		.uleb128 0x6
 727 0275 66030000 		.4byte	.LASF29
 728 0279 08       		.byte	0x8
 729 027a B9       		.byte	0xb9
 730 027b 27020000 		.4byte	0x227
 731 027f 04       		.byte	0x4
 732 0280 00       		.byte	0
 733 0281 03       		.uleb128 0x3
ARM GAS  /tmp/ccOMgWpT.s 			page 14


 734 0282 00000000 		.4byte	.LASF50
 735 0286 07       		.byte	0x7
 736 0287 57       		.byte	0x57
 737 0288 8C020000 		.4byte	0x28c
 738 028c 0A       		.uleb128 0xa
 739 028d 6A020000 		.4byte	.LASF51
 740 0291 1C       		.byte	0x1c
 741 0292 08       		.byte	0x8
 742 0293 9201     		.2byte	0x192
 743 0295 E8020000 		.4byte	0x2e8
 744 0299 08       		.uleb128 0x8
 745 029a 27040000 		.4byte	.LASF52
 746 029e 08       		.byte	0x8
 747 029f 9301     		.2byte	0x193
 748 02a1 51020000 		.4byte	0x251
 749 02a5 00       		.byte	0
 750 02a6 08       		.uleb128 0x8
 751 02a7 B7030000 		.4byte	.LASF53
 752 02ab 08       		.byte	0x8
 753 02ac 9401     		.2byte	0x194
 754 02ae FA000000 		.4byte	0xfa
 755 02b2 08       		.byte	0x8
 756 02b3 08       		.uleb128 0x8
 757 02b4 03030000 		.4byte	.LASF54
 758 02b8 08       		.byte	0x8
 759 02b9 9601     		.2byte	0x196
 760 02bb 57040000 		.4byte	0x457
 761 02bf 0C       		.byte	0xc
 762 02c0 08       		.uleb128 0x8
 763 02c1 86010000 		.4byte	.LASF55
 764 02c5 08       		.byte	0x8
 765 02c6 9901     		.2byte	0x199
 766 02c8 27020000 		.4byte	0x227
 767 02cc 10       		.byte	0x10
 768 02cd 08       		.uleb128 0x8
 769 02ce 33030000 		.4byte	.LASF56
 770 02d2 08       		.byte	0x8
 771 02d3 9A01     		.2byte	0x19a
 772 02d5 27020000 		.4byte	0x227
 773 02d9 14       		.byte	0x14
 774 02da 08       		.uleb128 0x8
 775 02db 29030000 		.4byte	.LASF57
 776 02df 08       		.byte	0x8
 777 02e0 9D01     		.2byte	0x19d
 778 02e2 27020000 		.4byte	0x227
 779 02e6 18       		.byte	0x18
 780 02e7 00       		.byte	0
 781 02e8 03       		.uleb128 0x3
 782 02e9 5E050000 		.4byte	.LASF58
 783 02ed 07       		.byte	0x7
 784 02ee 5C       		.byte	0x5c
 785 02ef F3020000 		.4byte	0x2f3
 786 02f3 09       		.uleb128 0x9
 787 02f4 04       		.byte	0x4
 788 02f5 F9020000 		.4byte	0x2f9
 789 02f9 0B       		.uleb128 0xb
 790 02fa 04030000 		.4byte	0x304
ARM GAS  /tmp/ccOMgWpT.s 			page 15


 791 02fe 0C       		.uleb128 0xc
 792 02ff 04030000 		.4byte	0x304
 793 0303 00       		.byte	0
 794 0304 0D       		.uleb128 0xd
 795 0305 04       		.byte	0x4
 796 0306 03       		.uleb128 0x3
 797 0307 56030000 		.4byte	.LASF59
 798 030b 07       		.byte	0x7
 799 030c 61       		.byte	0x61
 800 030d 11030000 		.4byte	0x311
 801 0311 0A       		.uleb128 0xa
 802 0312 EE030000 		.4byte	.LASF60
 803 0316 14       		.byte	0x14
 804 0317 08       		.byte	0x8
 805 0318 6D01     		.2byte	0x16d
 806 031a 60030000 		.4byte	0x360
 807 031e 08       		.uleb128 0x8
 808 031f DB010000 		.4byte	.LASF61
 809 0323 08       		.byte	0x8
 810 0324 6E01     		.2byte	0x16e
 811 0326 F4050000 		.4byte	0x5f4
 812 032a 00       		.byte	0
 813 032b 08       		.uleb128 0x8
 814 032c A3010000 		.4byte	.LASF62
 815 0330 08       		.byte	0x8
 816 0331 6F01     		.2byte	0x16f
 817 0333 F4050000 		.4byte	0x5f4
 818 0337 04       		.byte	0x4
 819 0338 08       		.uleb128 0x8
 820 0339 2F040000 		.4byte	.LASF63
 821 033d 08       		.byte	0x8
 822 033e 7001     		.2byte	0x170
 823 0340 26010000 		.4byte	0x126
 824 0344 08       		.byte	0x8
 825 0345 08       		.uleb128 0x8
 826 0346 4D060000 		.4byte	.LASF64
 827 034a 08       		.byte	0x8
 828 034b 7101     		.2byte	0x171
 829 034d E8020000 		.4byte	0x2e8
 830 0351 0C       		.byte	0xc
 831 0352 08       		.uleb128 0x8
 832 0353 AA050000 		.4byte	.LASF65
 833 0357 08       		.byte	0x8
 834 0358 7301     		.2byte	0x173
 835 035a 04030000 		.4byte	0x304
 836 035e 10       		.byte	0x10
 837 035f 00       		.byte	0
 838 0360 03       		.uleb128 0x3
 839 0361 9C000000 		.4byte	.LASF66
 840 0365 07       		.byte	0x7
 841 0366 66       		.byte	0x66
 842 0367 6B030000 		.4byte	0x36b
 843 036b 0A       		.uleb128 0xa
 844 036c BF020000 		.4byte	.LASF67
 845 0370 10       		.byte	0x10
 846 0371 08       		.byte	0x8
 847 0372 7D01     		.2byte	0x17d
ARM GAS  /tmp/ccOMgWpT.s 			page 16


 848 0374 AD030000 		.4byte	0x3ad
 849 0378 08       		.uleb128 0x8
 850 0379 DB010000 		.4byte	.LASF61
 851 037d 08       		.byte	0x8
 852 037e 7E01     		.2byte	0x17e
 853 0380 F4050000 		.4byte	0x5f4
 854 0384 00       		.byte	0
 855 0385 08       		.uleb128 0x8
 856 0386 A3010000 		.4byte	.LASF62
 857 038a 08       		.byte	0x8
 858 038b 8001     		.2byte	0x180
 859 038d F4050000 		.4byte	0x5f4
 860 0391 04       		.byte	0x4
 861 0392 08       		.uleb128 0x8
 862 0393 2F040000 		.4byte	.LASF63
 863 0397 08       		.byte	0x8
 864 0398 8201     		.2byte	0x182
 865 039a 26010000 		.4byte	0x126
 866 039e 08       		.byte	0x8
 867 039f 08       		.uleb128 0x8
 868 03a0 EF020000 		.4byte	.LASF68
 869 03a4 08       		.byte	0x8
 870 03a5 8A01     		.2byte	0x18a
 871 03a7 26010000 		.4byte	0x126
 872 03ab 0C       		.byte	0xc
 873 03ac 00       		.byte	0
 874 03ad 03       		.uleb128 0x3
 875 03ae 3A000000 		.4byte	.LASF69
 876 03b2 07       		.byte	0x7
 877 03b3 6B       		.byte	0x6b
 878 03b4 B8030000 		.4byte	0x3b8
 879 03b8 0A       		.uleb128 0xa
 880 03b9 75030000 		.4byte	.LASF70
 881 03bd 04       		.byte	0x4
 882 03be 08       		.byte	0x8
 883 03bf A401     		.2byte	0x1a4
 884 03c1 D3030000 		.4byte	0x3d3
 885 03c5 08       		.uleb128 0x8
 886 03c6 80050000 		.4byte	.LASF71
 887 03ca 08       		.byte	0x8
 888 03cb AC01     		.2byte	0x1ac
 889 03cd FA050000 		.4byte	0x5fa
 890 03d1 00       		.byte	0
 891 03d2 00       		.byte	0
 892 03d3 03       		.uleb128 0x3
 893 03d4 3B020000 		.4byte	.LASF72
 894 03d8 07       		.byte	0x7
 895 03d9 70       		.byte	0x70
 896 03da DE030000 		.4byte	0x3de
 897 03de 0E       		.uleb128 0xe
 898 03df DF030000 		.4byte	.LASF73
 899 03e3 5001     		.2byte	0x150
 900 03e5 08       		.byte	0x8
 901 03e6 C401     		.2byte	0x1c4
 902 03e8 3A040000 		.4byte	0x43a
 903 03ec 08       		.uleb128 0x8
 904 03ed D4050000 		.4byte	.LASF74
ARM GAS  /tmp/ccOMgWpT.s 			page 17


 905 03f1 08       		.byte	0x8
 906 03f2 C801     		.2byte	0x1c8
 907 03f4 81020000 		.4byte	0x281
 908 03f8 00       		.byte	0
 909 03f9 08       		.uleb128 0x8
 910 03fa 01010000 		.4byte	.LASF75
 911 03fe 08       		.byte	0x8
 912 03ff CC01     		.2byte	0x1cc
 913 0401 60030000 		.4byte	0x360
 914 0405 1C       		.byte	0x1c
 915 0406 07       		.uleb128 0x7
 916 0407 64626700 		.ascii	"dbg\000"
 917 040b 08       		.byte	0x8
 918 040c D001     		.2byte	0x1d0
 919 040e AD030000 		.4byte	0x3ad
 920 0412 2C       		.byte	0x2c
 921 0413 08       		.uleb128 0x8
 922 0414 89000000 		.4byte	.LASF76
 923 0418 08       		.byte	0x8
 924 0419 D401     		.2byte	0x1d4
 925 041b 31010000 		.4byte	0x131
 926 041f 30       		.byte	0x30
 927 0420 07       		.uleb128 0x7
 928 0421 746D00   		.ascii	"tm\000"
 929 0424 08       		.byte	0x8
 930 0425 D901     		.2byte	0x1d9
 931 0427 06050000 		.4byte	0x506
 932 042b 70       		.byte	0x70
 933 042c 08       		.uleb128 0x8
 934 042d B9010000 		.4byte	.LASF77
 935 0431 08       		.byte	0x8
 936 0432 E501     		.2byte	0x1e5
 937 0434 FF050000 		.4byte	0x5ff
 938 0438 78       		.byte	0x78
 939 0439 00       		.byte	0
 940 043a 04       		.uleb128 0x4
 941 043b 04       		.byte	0x4
 942 043c 07       		.byte	0x7
 943 043d A3020000 		.4byte	.LASF78
 944 0441 03       		.uleb128 0x3
 945 0442 9A010000 		.4byte	.LASF79
 946 0446 09       		.byte	0x9
 947 0447 65       		.byte	0x65
 948 0448 04030000 		.4byte	0x304
 949 044c 03       		.uleb128 0x3
 950 044d 8E020000 		.4byte	.LASF80
 951 0451 09       		.byte	0x9
 952 0452 6D       		.byte	0x6d
 953 0453 C3000000 		.4byte	0xc3
 954 0457 05       		.uleb128 0x5
 955 0458 9A050000 		.4byte	.LASF81
 956 045c 04       		.byte	0x4
 957 045d 09       		.byte	0x9
 958 045e 89       		.byte	0x89
 959 045f 70040000 		.4byte	0x470
 960 0463 0F       		.uleb128 0xf
 961 0464 72313300 		.ascii	"r13\000"
ARM GAS  /tmp/ccOMgWpT.s 			page 18


 962 0468 09       		.byte	0x9
 963 0469 8A       		.byte	0x8a
 964 046a EB040000 		.4byte	0x4eb
 965 046e 00       		.byte	0
 966 046f 00       		.byte	0
 967 0470 05       		.uleb128 0x5
 968 0471 2E000000 		.4byte	.LASF82
 969 0475 24       		.byte	0x24
 970 0476 0A       		.byte	0xa
 971 0477 FD       		.byte	0xfd
 972 0478 EB040000 		.4byte	0x4eb
 973 047c 07       		.uleb128 0x7
 974 047d 723400   		.ascii	"r4\000"
 975 0480 0A       		.byte	0xa
 976 0481 1001     		.2byte	0x110
 977 0483 41040000 		.4byte	0x441
 978 0487 00       		.byte	0
 979 0488 07       		.uleb128 0x7
 980 0489 723500   		.ascii	"r5\000"
 981 048c 0A       		.byte	0xa
 982 048d 1101     		.2byte	0x111
 983 048f 41040000 		.4byte	0x441
 984 0493 04       		.byte	0x4
 985 0494 07       		.uleb128 0x7
 986 0495 723600   		.ascii	"r6\000"
 987 0498 0A       		.byte	0xa
 988 0499 1201     		.2byte	0x112
 989 049b 41040000 		.4byte	0x441
 990 049f 08       		.byte	0x8
 991 04a0 07       		.uleb128 0x7
 992 04a1 723700   		.ascii	"r7\000"
 993 04a4 0A       		.byte	0xa
 994 04a5 1301     		.2byte	0x113
 995 04a7 41040000 		.4byte	0x441
 996 04ab 0C       		.byte	0xc
 997 04ac 07       		.uleb128 0x7
 998 04ad 723800   		.ascii	"r8\000"
 999 04b0 0A       		.byte	0xa
 1000 04b1 1401     		.2byte	0x114
 1001 04b3 41040000 		.4byte	0x441
 1002 04b7 10       		.byte	0x10
 1003 04b8 07       		.uleb128 0x7
 1004 04b9 723900   		.ascii	"r9\000"
 1005 04bc 0A       		.byte	0xa
 1006 04bd 1501     		.2byte	0x115
 1007 04bf 41040000 		.4byte	0x441
 1008 04c3 14       		.byte	0x14
 1009 04c4 07       		.uleb128 0x7
 1010 04c5 72313000 		.ascii	"r10\000"
 1011 04c9 0A       		.byte	0xa
 1012 04ca 1601     		.2byte	0x116
 1013 04cc 41040000 		.4byte	0x441
 1014 04d0 18       		.byte	0x18
 1015 04d1 07       		.uleb128 0x7
 1016 04d2 72313100 		.ascii	"r11\000"
 1017 04d6 0A       		.byte	0xa
 1018 04d7 1701     		.2byte	0x117
ARM GAS  /tmp/ccOMgWpT.s 			page 19


 1019 04d9 41040000 		.4byte	0x441
 1020 04dd 1C       		.byte	0x1c
 1021 04de 07       		.uleb128 0x7
 1022 04df 6C7200   		.ascii	"lr\000"
 1023 04e2 0A       		.byte	0xa
 1024 04e3 1801     		.2byte	0x118
 1025 04e5 41040000 		.4byte	0x441
 1026 04e9 20       		.byte	0x20
 1027 04ea 00       		.byte	0
 1028 04eb 09       		.uleb128 0x9
 1029 04ec 04       		.byte	0x4
 1030 04ed 70040000 		.4byte	0x470
 1031 04f1 10       		.uleb128 0x10
 1032 04f2 04       		.byte	0x4
 1033 04f3 0B       		.byte	0xb
 1034 04f4 38       		.byte	0x38
 1035 04f5 06050000 		.4byte	0x506
 1036 04f9 06       		.uleb128 0x6
 1037 04fa 8A050000 		.4byte	.LASF83
 1038 04fe 0B       		.byte	0xb
 1039 04ff 3C       		.byte	0x3c
 1040 0500 CE000000 		.4byte	0xce
 1041 0504 00       		.byte	0
 1042 0505 00       		.byte	0
 1043 0506 03       		.uleb128 0x3
 1044 0507 18030000 		.4byte	.LASF84
 1045 050b 0B       		.byte	0xb
 1046 050c 3D       		.byte	0x3d
 1047 050d F1040000 		.4byte	0x4f1
 1048 0511 11       		.uleb128 0x11
 1049 0512 04       		.byte	0x4
 1050 0513 08       		.byte	0x8
 1051 0514 FA       		.byte	0xfa
 1052 0515 7A050000 		.4byte	0x57a
 1053 0519 12       		.uleb128 0x12
 1054 051a 14000000 		.4byte	.LASF85
 1055 051e 08       		.byte	0x8
 1056 051f 0101     		.2byte	0x101
 1057 0521 05010000 		.4byte	0x105
 1058 0525 12       		.uleb128 0x12
 1059 0526 80000000 		.4byte	.LASF86
 1060 052a 08       		.byte	0x8
 1061 052b 0801     		.2byte	0x108
 1062 052d 05010000 		.4byte	0x105
 1063 0531 12       		.uleb128 0x12
 1064 0532 F9050000 		.4byte	.LASF87
 1065 0536 08       		.byte	0x8
 1066 0537 0F01     		.2byte	0x10f
 1067 0539 04030000 		.4byte	0x304
 1068 053d 12       		.uleb128 0x12
 1069 053e 14010000 		.4byte	.LASF88
 1070 0542 08       		.byte	0x8
 1071 0543 1601     		.2byte	0x116
 1072 0545 7A050000 		.4byte	0x57a
 1073 0549 12       		.uleb128 0x12
 1074 054a 94000000 		.4byte	.LASF89
 1075 054e 08       		.byte	0x8
ARM GAS  /tmp/ccOMgWpT.s 			page 20


 1076 054f 1B01     		.2byte	0x11b
 1077 0551 05010000 		.4byte	0x105
 1078 0555 12       		.uleb128 0x12
 1079 0556 E3010000 		.4byte	.LASF90
 1080 055a 08       		.byte	0x8
 1081 055b 2401     		.2byte	0x124
 1082 055d A5050000 		.4byte	0x5a5
 1083 0561 12       		.uleb128 0x12
 1084 0562 20040000 		.4byte	.LASF91
 1085 0566 08       		.byte	0x8
 1086 0567 2D01     		.2byte	0x12d
 1087 0569 DC050000 		.4byte	0x5dc
 1088 056d 12       		.uleb128 0x12
 1089 056e BE030000 		.4byte	.LASF92
 1090 0572 08       		.byte	0x8
 1091 0573 3501     		.2byte	0x135
 1092 0575 10010000 		.4byte	0x110
 1093 0579 00       		.byte	0
 1094 057a 09       		.uleb128 0x9
 1095 057b 04       		.byte	0x4
 1096 057c 1C020000 		.4byte	0x21c
 1097 0580 05       		.uleb128 0x5
 1098 0581 FF030000 		.4byte	.LASF93
 1099 0585 0C       		.byte	0xc
 1100 0586 0C       		.byte	0xc
 1101 0587 34       		.byte	0x34
 1102 0588 A5050000 		.4byte	0x5a5
 1103 058c 06       		.uleb128 0x6
 1104 058d 6B010000 		.4byte	.LASF94
 1105 0591 0C       		.byte	0xc
 1106 0592 35       		.byte	0x35
 1107 0593 51020000 		.4byte	0x251
 1108 0597 00       		.byte	0
 1109 0598 06       		.uleb128 0x6
 1110 0599 03020000 		.4byte	.LASF95
 1111 059d 0C       		.byte	0xc
 1112 059e 37       		.byte	0x37
 1113 059f 1B010000 		.4byte	0x11b
 1114 05a3 08       		.byte	0x8
 1115 05a4 00       		.byte	0
 1116 05a5 09       		.uleb128 0x9
 1117 05a6 04       		.byte	0x4
 1118 05a7 80050000 		.4byte	0x580
 1119 05ab 05       		.uleb128 0x5
 1120 05ac 91050000 		.4byte	.LASF96
 1121 05b0 10       		.byte	0x10
 1122 05b1 0D       		.byte	0xd
 1123 05b2 39       		.byte	0x39
 1124 05b3 DC050000 		.4byte	0x5dc
 1125 05b7 06       		.uleb128 0x6
 1126 05b8 F9000000 		.4byte	.LASF97
 1127 05bc 0D       		.byte	0xd
 1128 05bd 3A       		.byte	0x3a
 1129 05be 51020000 		.4byte	0x251
 1130 05c2 00       		.byte	0
 1131 05c3 06       		.uleb128 0x6
 1132 05c4 3F060000 		.4byte	.LASF98
ARM GAS  /tmp/ccOMgWpT.s 			page 21


 1133 05c8 0D       		.byte	0xd
 1134 05c9 3C       		.byte	0x3c
 1135 05ca 27020000 		.4byte	0x227
 1136 05ce 08       		.byte	0x8
 1137 05cf 06       		.uleb128 0x6
 1138 05d0 42050000 		.4byte	.LASF99
 1139 05d4 0D       		.byte	0xd
 1140 05d5 3E       		.byte	0x3e
 1141 05d6 1A060000 		.4byte	0x61a
 1142 05da 0C       		.byte	0xc
 1143 05db 00       		.byte	0
 1144 05dc 09       		.uleb128 0x9
 1145 05dd 04       		.byte	0x4
 1146 05de AB050000 		.4byte	0x5ab
 1147 05e2 09       		.uleb128 0x9
 1148 05e3 04       		.byte	0x4
 1149 05e4 E8050000 		.4byte	0x5e8
 1150 05e8 13       		.uleb128 0x13
 1151 05e9 ED050000 		.4byte	0x5ed
 1152 05ed 04       		.uleb128 0x4
 1153 05ee 01       		.byte	0x1
 1154 05ef 08       		.byte	0x8
 1155 05f0 5A040000 		.4byte	.LASF100
 1156 05f4 09       		.uleb128 0x9
 1157 05f5 04       		.byte	0x4
 1158 05f6 06030000 		.4byte	0x306
 1159 05fa 14       		.uleb128 0x14
 1160 05fb E2050000 		.4byte	0x5e2
 1161 05ff 15       		.uleb128 0x15
 1162 0600 4C040000 		.4byte	0x44c
 1163 0604 0F060000 		.4byte	0x60f
 1164 0608 16       		.uleb128 0x16
 1165 0609 3A040000 		.4byte	0x43a
 1166 060d 1A       		.byte	0x1a
 1167 060e 00       		.byte	0
 1168 060f 03       		.uleb128 0x3
 1169 0610 AB010000 		.4byte	.LASF101
 1170 0614 0D       		.byte	0xd
 1171 0615 34       		.byte	0x34
 1172 0616 AB050000 		.4byte	0x5ab
 1173 061a 09       		.uleb128 0x9
 1174 061b 04       		.byte	0x4
 1175 061c 0F060000 		.4byte	0x60f
 1176 0620 03       		.uleb128 0x3
 1177 0621 5C000000 		.4byte	.LASF102
 1178 0625 0E       		.byte	0xe
 1179 0626 36       		.byte	0x36
 1180 0627 2B060000 		.4byte	0x62b
 1181 062b 09       		.uleb128 0x9
 1182 062c 04       		.byte	0x4
 1183 062d 31060000 		.4byte	0x631
 1184 0631 17       		.uleb128 0x17
 1185 0632 04030000 		.4byte	0x304
 1186 0636 40060000 		.4byte	0x640
 1187 063a 0C       		.uleb128 0xc
 1188 063b 2C000000 		.4byte	0x2c
 1189 063f 00       		.byte	0
ARM GAS  /tmp/ccOMgWpT.s 			page 22


 1190 0640 05       		.uleb128 0x5
 1191 0641 C1050000 		.4byte	.LASF103
 1192 0645 04       		.byte	0x4
 1193 0646 0F       		.byte	0xf
 1194 0647 38       		.byte	0x38
 1195 0648 59060000 		.4byte	0x659
 1196 064c 06       		.uleb128 0x6
 1197 064d 46030000 		.4byte	.LASF104
 1198 0651 0F       		.byte	0xf
 1199 0652 39       		.byte	0x39
 1200 0653 59060000 		.4byte	0x659
 1201 0657 00       		.byte	0
 1202 0658 00       		.byte	0
 1203 0659 09       		.uleb128 0x9
 1204 065a 04       		.byte	0x4
 1205 065b 40060000 		.4byte	0x640
 1206 065f 10       		.uleb128 0x10
 1207 0660 0C       		.byte	0xc
 1208 0661 0F       		.byte	0xf
 1209 0662 40       		.byte	0x40
 1210 0663 8C060000 		.4byte	0x68c
 1211 0667 06       		.uleb128 0x6
 1212 0668 5B010000 		.4byte	.LASF105
 1213 066c 0F       		.byte	0xf
 1214 066d 41       		.byte	0x41
 1215 066e 59060000 		.4byte	0x659
 1216 0672 00       		.byte	0
 1217 0673 06       		.uleb128 0x6
 1218 0674 09030000 		.4byte	.LASF106
 1219 0678 0F       		.byte	0xf
 1220 0679 42       		.byte	0x42
 1221 067a 2C000000 		.4byte	0x2c
 1222 067e 04       		.byte	0x4
 1223 067f 06       		.uleb128 0x6
 1224 0680 8E010000 		.4byte	.LASF107
 1225 0684 0F       		.byte	0xf
 1226 0685 44       		.byte	0x44
 1227 0686 20060000 		.4byte	0x620
 1228 068a 08       		.byte	0x8
 1229 068b 00       		.byte	0
 1230 068c 03       		.uleb128 0x3
 1231 068d F5010000 		.4byte	.LASF108
 1232 0691 0F       		.byte	0xf
 1233 0692 46       		.byte	0x46
 1234 0693 5F060000 		.4byte	0x65f
 1235 0697 18       		.uleb128 0x18
 1236 0698 72050000 		.4byte	.LASF115
 1237 069c 02       		.byte	0x2
 1238 069d 2202     		.2byte	0x222
 1239 069f 03       		.byte	0x3
 1240 06a0 B1060000 		.4byte	0x6b1
 1241 06a4 19       		.uleb128 0x19
 1242 06a5 B3010000 		.4byte	.LASF112
 1243 06a9 02       		.byte	0x2
 1244 06aa 2202     		.2byte	0x222
 1245 06ac B8000000 		.4byte	0xb8
 1246 06b0 00       		.byte	0
ARM GAS  /tmp/ccOMgWpT.s 			page 23


 1247 06b1 1A       		.uleb128 0x1a
 1248 06b2 52000000 		.4byte	.LASF109
 1249 06b6 0A       		.byte	0xa
 1250 06b7 C801     		.2byte	0x1c8
 1251 06b9 03       		.byte	0x3
 1252 06ba 1A       		.uleb128 0x1a
 1253 06bb 08010000 		.4byte	.LASF110
 1254 06bf 0A       		.byte	0xa
 1255 06c0 E001     		.2byte	0x1e0
 1256 06c2 03       		.byte	0x3
 1257 06c3 1A       		.uleb128 0x1a
 1258 06c4 D5030000 		.4byte	.LASF111
 1259 06c8 10       		.byte	0x10
 1260 06c9 5A01     		.2byte	0x15a
 1261 06cb 03       		.byte	0x3
 1262 06cc 1B       		.uleb128 0x1b
 1263 06cd D6020000 		.4byte	.LASF117
 1264 06d1 01       		.byte	0x1
 1265 06d2 78       		.byte	0x78
 1266 06d3 04030000 		.4byte	0x304
 1267 06d7 01       		.byte	0x1
 1268 06d8 FF060000 		.4byte	0x6ff
 1269 06dc 1C       		.uleb128 0x1c
 1270 06dd 6D7000   		.ascii	"mp\000"
 1271 06e0 01       		.byte	0x1
 1272 06e1 78       		.byte	0x78
 1273 06e2 FF060000 		.4byte	0x6ff
 1274 06e6 1D       		.uleb128 0x1d
 1275 06e7 E9030000 		.4byte	.LASF113
 1276 06eb 01       		.byte	0x1
 1277 06ec 79       		.byte	0x79
 1278 06ed 04030000 		.4byte	0x304
 1279 06f1 1E       		.uleb128 0x1e
 1280 06f2 CC030000 		.4byte	.LASF114
 1281 06f6 15070000 		.4byte	0x715
 1282 06fa D6020000 		.4byte	.LASF117
 1283 06fe 00       		.byte	0
 1284 06ff 09       		.uleb128 0x9
 1285 0700 04       		.byte	0x4
 1286 0701 8C060000 		.4byte	0x68c
 1287 0705 15       		.uleb128 0x15
 1288 0706 ED050000 		.4byte	0x5ed
 1289 070a 15070000 		.4byte	0x715
 1290 070e 16       		.uleb128 0x16
 1291 070f 3A040000 		.4byte	0x43a
 1292 0713 0C       		.byte	0xc
 1293 0714 00       		.byte	0
 1294 0715 13       		.uleb128 0x13
 1295 0716 05070000 		.4byte	0x705
 1296 071a 18       		.uleb128 0x18
 1297 071b 23060000 		.4byte	.LASF116
 1298 071f 10       		.byte	0x10
 1299 0720 6601     		.2byte	0x166
 1300 0722 03       		.byte	0x3
 1301 0723 35070000 		.4byte	0x735
 1302 0727 1E       		.uleb128 0x1e
 1303 0728 CC030000 		.4byte	.LASF114
ARM GAS  /tmp/ccOMgWpT.s 			page 24


 1304 072c 45070000 		.4byte	0x745
 1305 0730 23060000 		.4byte	.LASF116
 1306 0734 00       		.byte	0
 1307 0735 15       		.uleb128 0x15
 1308 0736 ED050000 		.4byte	0x5ed
 1309 073a 45070000 		.4byte	0x745
 1310 073e 16       		.uleb128 0x16
 1311 073f 3A040000 		.4byte	0x43a
 1312 0743 0B       		.byte	0xb
 1313 0744 00       		.byte	0
 1314 0745 13       		.uleb128 0x13
 1315 0746 35070000 		.4byte	0x735
 1316 074a 1F       		.uleb128 0x1f
 1317 074b E3020000 		.4byte	.LASF118
 1318 074f 01       		.byte	0x1
 1319 0750 AB       		.byte	0xab
 1320 0751 01       		.byte	0x1
 1321 0752 84070000 		.4byte	0x784
 1322 0756 1C       		.uleb128 0x1c
 1323 0757 6D7000   		.ascii	"mp\000"
 1324 075a 01       		.byte	0x1
 1325 075b AB       		.byte	0xab
 1326 075c FF060000 		.4byte	0x6ff
 1327 0760 20       		.uleb128 0x20
 1328 0761 E9030000 		.4byte	.LASF113
 1329 0765 01       		.byte	0x1
 1330 0766 AB       		.byte	0xab
 1331 0767 04030000 		.4byte	0x304
 1332 076b 21       		.uleb128 0x21
 1333 076c 70687000 		.ascii	"php\000"
 1334 0770 01       		.byte	0x1
 1335 0771 AC       		.byte	0xac
 1336 0772 59060000 		.4byte	0x659
 1337 0776 1E       		.uleb128 0x1e
 1338 0777 CC030000 		.4byte	.LASF114
 1339 077b 84070000 		.4byte	0x784
 1340 077f E3020000 		.4byte	.LASF118
 1341 0783 00       		.byte	0
 1342 0784 13       		.uleb128 0x13
 1343 0785 35070000 		.4byte	0x735
 1344 0789 1F       		.uleb128 0x1f
 1345 078a EE050000 		.4byte	.LASF119
 1346 078e 01       		.byte	0x1
 1347 078f C1       		.byte	0xc1
 1348 0790 01       		.byte	0x1
 1349 0791 AB070000 		.4byte	0x7ab
 1350 0795 1C       		.uleb128 0x1c
 1351 0796 6D7000   		.ascii	"mp\000"
 1352 0799 01       		.byte	0x1
 1353 079a C1       		.byte	0xc1
 1354 079b FF060000 		.4byte	0x6ff
 1355 079f 20       		.uleb128 0x20
 1356 07a0 E9030000 		.4byte	.LASF113
 1357 07a4 01       		.byte	0x1
 1358 07a5 C1       		.byte	0xc1
 1359 07a6 04030000 		.4byte	0x304
 1360 07aa 00       		.byte	0
ARM GAS  /tmp/ccOMgWpT.s 			page 25


 1361 07ab 22       		.uleb128 0x22
 1362 07ac 47020000 		.4byte	.LASF120
 1363 07b0 0F       		.byte	0xf
 1364 07b1 89       		.byte	0x89
 1365 07b2 03       		.byte	0x3
 1366 07b3 CD070000 		.4byte	0x7cd
 1367 07b7 1C       		.uleb128 0x1c
 1368 07b8 6D7000   		.ascii	"mp\000"
 1369 07bb 0F       		.byte	0xf
 1370 07bc 89       		.byte	0x89
 1371 07bd FF060000 		.4byte	0x6ff
 1372 07c1 20       		.uleb128 0x20
 1373 07c2 E9030000 		.4byte	.LASF113
 1374 07c6 0F       		.byte	0xf
 1375 07c7 89       		.byte	0x89
 1376 07c8 04030000 		.4byte	0x304
 1377 07cc 00       		.byte	0
 1378 07cd 23       		.uleb128 0x23
 1379 07ce 59020000 		.4byte	.LASF123
 1380 07d2 01       		.byte	0x1
 1381 07d3 4B       		.byte	0x4b
 1382 07d4 00000000 		.4byte	.LFB241
 1383 07d8 0A000000 		.4byte	.LFE241-.LFB241
 1384 07dc 01       		.uleb128 0x1
 1385 07dd 9C       		.byte	0x9c
 1386 07de 12080000 		.4byte	0x812
 1387 07e2 24       		.uleb128 0x24
 1388 07e3 6D7000   		.ascii	"mp\000"
 1389 07e6 01       		.byte	0x1
 1390 07e7 4B       		.byte	0x4b
 1391 07e8 FF060000 		.4byte	0x6ff
 1392 07ec 01       		.uleb128 0x1
 1393 07ed 50       		.byte	0x50
 1394 07ee 25       		.uleb128 0x25
 1395 07ef 07060000 		.4byte	.LASF121
 1396 07f3 01       		.byte	0x1
 1397 07f4 4B       		.byte	0x4b
 1398 07f5 2C000000 		.4byte	0x2c
 1399 07f9 01       		.uleb128 0x1
 1400 07fa 51       		.byte	0x51
 1401 07fb 25       		.uleb128 0x25
 1402 07fc 49000000 		.4byte	.LASF122
 1403 0800 01       		.byte	0x1
 1404 0801 4B       		.byte	0x4b
 1405 0802 20060000 		.4byte	0x620
 1406 0806 01       		.uleb128 0x1
 1407 0807 52       		.byte	0x52
 1408 0808 26       		.uleb128 0x26
 1409 0809 CC030000 		.4byte	.LASF114
 1410 080d 22080000 		.4byte	0x822
 1411 0811 00       		.byte	0
 1412 0812 15       		.uleb128 0x15
 1413 0813 ED050000 		.4byte	0x5ed
 1414 0817 22080000 		.4byte	0x822
 1415 081b 16       		.uleb128 0x16
 1416 081c 3A040000 		.4byte	0x43a
 1417 0820 10       		.byte	0x10
ARM GAS  /tmp/ccOMgWpT.s 			page 26


 1418 0821 00       		.byte	0
 1419 0822 13       		.uleb128 0x13
 1420 0823 12080000 		.4byte	0x812
 1421 0827 23       		.uleb128 0x23
 1422 0828 2F060000 		.4byte	.LASF124
 1423 082c 01       		.byte	0x1
 1424 082d 61       		.byte	0x61
 1425 082e 00000000 		.4byte	.LFB242
 1426 0832 22000000 		.4byte	.LFE242-.LFB242
 1427 0836 01       		.uleb128 0x1
 1428 0837 9C       		.byte	0x9c
 1429 0838 73090000 		.4byte	0x973
 1430 083c 24       		.uleb128 0x24
 1431 083d 6D7000   		.ascii	"mp\000"
 1432 0840 01       		.byte	0x1
 1433 0841 61       		.byte	0x61
 1434 0842 FF060000 		.4byte	0x6ff
 1435 0846 01       		.uleb128 0x1
 1436 0847 50       		.byte	0x50
 1437 0848 27       		.uleb128 0x27
 1438 0849 7000     		.ascii	"p\000"
 1439 084b 01       		.byte	0x1
 1440 084c 61       		.byte	0x61
 1441 084d 04030000 		.4byte	0x304
 1442 0851 00000000 		.4byte	.LLST0
 1443 0855 27       		.uleb128 0x27
 1444 0856 6E00     		.ascii	"n\000"
 1445 0858 01       		.byte	0x1
 1446 0859 61       		.byte	0x61
 1447 085a 2C000000 		.4byte	0x2c
 1448 085e 1E000000 		.4byte	.LLST1
 1449 0862 26       		.uleb128 0x26
 1450 0863 CC030000 		.4byte	.LASF114
 1451 0867 83090000 		.4byte	0x983
 1452 086b 28       		.uleb128 0x28
 1453 086c AB070000 		.4byte	0x7ab
 1454 0870 04000000 		.4byte	.LBB77
 1455 0874 12000000 		.4byte	.LBE77-.LBB77
 1456 0878 01       		.byte	0x1
 1457 0879 66       		.byte	0x66
 1458 087a 29       		.uleb128 0x29
 1459 087b B7070000 		.4byte	0x7b7
 1460 087f 49000000 		.4byte	.LLST2
 1461 0883 29       		.uleb128 0x29
 1462 0884 C1070000 		.4byte	0x7c1
 1463 0888 5C000000 		.4byte	.LLST3
 1464 088c 28       		.uleb128 0x28
 1465 088d 89070000 		.4byte	0x789
 1466 0891 04000000 		.4byte	.LBB78
 1467 0895 12000000 		.4byte	.LBE78-.LBB78
 1468 0899 0F       		.byte	0xf
 1469 089a 8B       		.byte	0x8b
 1470 089b 29       		.uleb128 0x29
 1471 089c 9F070000 		.4byte	0x79f
 1472 08a0 5C000000 		.4byte	.LLST3
 1473 08a4 29       		.uleb128 0x29
 1474 08a5 95070000 		.4byte	0x795
ARM GAS  /tmp/ccOMgWpT.s 			page 27


 1475 08a9 49000000 		.4byte	.LLST2
 1476 08ad 2A       		.uleb128 0x2a
 1477 08ae C3060000 		.4byte	0x6c3
 1478 08b2 04000000 		.4byte	.LBB79
 1479 08b6 00000000 		.4byte	.Ldebug_ranges0+0
 1480 08ba 01       		.byte	0x1
 1481 08bb C3       		.byte	0xc3
 1482 08bc EC080000 		.4byte	0x8ec
 1483 08c0 2B       		.uleb128 0x2b
 1484 08c1 B1060000 		.4byte	0x6b1
 1485 08c5 04000000 		.4byte	.LBB80
 1486 08c9 00000000 		.4byte	.Ldebug_ranges0+0
 1487 08cd 10       		.byte	0x10
 1488 08ce 5C01     		.2byte	0x15c
 1489 08d0 2B       		.uleb128 0x2b
 1490 08d1 97060000 		.4byte	0x697
 1491 08d5 04000000 		.4byte	.LBB81
 1492 08d9 00000000 		.4byte	.Ldebug_ranges0+0
 1493 08dd 0A       		.byte	0xa
 1494 08de D001     		.2byte	0x1d0
 1495 08e0 29       		.uleb128 0x29
 1496 08e1 A4060000 		.4byte	0x6a4
 1497 08e5 7B000000 		.4byte	.LLST6
 1498 08e9 00       		.byte	0
 1499 08ea 00       		.byte	0
 1500 08eb 00       		.byte	0
 1501 08ec 2A       		.uleb128 0x2a
 1502 08ed 1A070000 		.4byte	0x71a
 1503 08f1 06000000 		.4byte	.LBB86
 1504 08f5 18000000 		.4byte	.Ldebug_ranges0+0x18
 1505 08f9 01       		.byte	0x1
 1506 08fa C5       		.byte	0xc5
 1507 08fb 36090000 		.4byte	0x936
 1508 08ff 2C       		.uleb128 0x2c
 1509 0900 18000000 		.4byte	.Ldebug_ranges0+0x18
 1510 0904 2D       		.uleb128 0x2d
 1511 0905 27070000 		.4byte	0x727
 1512 0909 2B       		.uleb128 0x2b
 1513 090a BA060000 		.4byte	0x6ba
 1514 090e 06000000 		.4byte	.LBB88
 1515 0912 18000000 		.4byte	.Ldebug_ranges0+0x18
 1516 0916 10       		.byte	0x10
 1517 0917 7301     		.2byte	0x173
 1518 0919 2B       		.uleb128 0x2b
 1519 091a 97060000 		.4byte	0x697
 1520 091e 06000000 		.4byte	.LBB89
 1521 0922 18000000 		.4byte	.Ldebug_ranges0+0x18
 1522 0926 0A       		.byte	0xa
 1523 0927 E301     		.2byte	0x1e3
 1524 0929 29       		.uleb128 0x29
 1525 092a A4060000 		.4byte	0x6a4
 1526 092e 90000000 		.4byte	.LLST7
 1527 0932 00       		.byte	0
 1528 0933 00       		.byte	0
 1529 0934 00       		.byte	0
 1530 0935 00       		.byte	0
 1531 0936 28       		.uleb128 0x28
ARM GAS  /tmp/ccOMgWpT.s 			page 28


 1532 0937 4A070000 		.4byte	0x74a
 1533 093b 0C000000 		.4byte	.LBB96
 1534 093f 06000000 		.4byte	.LBE96-.LBB96
 1535 0943 01       		.byte	0x1
 1536 0944 C4       		.byte	0xc4
 1537 0945 29       		.uleb128 0x29
 1538 0946 60070000 		.4byte	0x760
 1539 094a A4000000 		.4byte	.LLST8
 1540 094e 29       		.uleb128 0x29
 1541 094f 56070000 		.4byte	0x756
 1542 0953 C3000000 		.4byte	.LLST9
 1543 0957 2E       		.uleb128 0x2e
 1544 0958 0C000000 		.4byte	.LBB97
 1545 095c 06000000 		.4byte	.LBE97-.LBB97
 1546 0960 2F       		.uleb128 0x2f
 1547 0961 6B070000 		.4byte	0x76b
 1548 0965 A4000000 		.4byte	.LLST8
 1549 0969 2D       		.uleb128 0x2d
 1550 096a 76070000 		.4byte	0x776
 1551 096e 00       		.byte	0
 1552 096f 00       		.byte	0
 1553 0970 00       		.byte	0
 1554 0971 00       		.byte	0
 1555 0972 00       		.byte	0
 1556 0973 15       		.uleb128 0x15
 1557 0974 ED050000 		.4byte	0x5ed
 1558 0978 83090000 		.4byte	0x983
 1559 097c 16       		.uleb128 0x16
 1560 097d 3A040000 		.4byte	0x43a
 1561 0981 0F       		.byte	0xf
 1562 0982 00       		.byte	0
 1563 0983 13       		.uleb128 0x13
 1564 0984 73090000 		.4byte	0x973
 1565 0988 30       		.uleb128 0x30
 1566 0989 CC060000 		.4byte	0x6cc
 1567 098d 00000000 		.4byte	.LFB243
 1568 0991 18000000 		.4byte	.LFE243-.LFB243
 1569 0995 01       		.uleb128 0x1
 1570 0996 9C       		.byte	0x9c
 1571 0997 B3090000 		.4byte	0x9b3
 1572 099b 29       		.uleb128 0x29
 1573 099c DC060000 		.4byte	0x6dc
 1574 09a0 D6000000 		.4byte	.LLST11
 1575 09a4 2F       		.uleb128 0x2f
 1576 09a5 E6060000 		.4byte	0x6e6
 1577 09a9 02010000 		.4byte	.LLST12
 1578 09ad 2D       		.uleb128 0x2d
 1579 09ae F1060000 		.4byte	0x6f1
 1580 09b2 00       		.byte	0
 1581 09b3 31       		.uleb128 0x31
 1582 09b4 E2050000 		.4byte	.LASF129
 1583 09b8 01       		.byte	0x1
 1584 09b9 95       		.byte	0x95
 1585 09ba 04030000 		.4byte	0x304
 1586 09be 00000000 		.4byte	.LFB244
 1587 09c2 2C000000 		.4byte	.LFE244-.LFB244
 1588 09c6 01       		.uleb128 0x1
ARM GAS  /tmp/ccOMgWpT.s 			page 29


 1589 09c7 9C       		.byte	0x9c
 1590 09c8 9B0A0000 		.4byte	0xa9b
 1591 09cc 27       		.uleb128 0x27
 1592 09cd 6D7000   		.ascii	"mp\000"
 1593 09d0 01       		.byte	0x1
 1594 09d1 95       		.byte	0x95
 1595 09d2 FF060000 		.4byte	0x6ff
 1596 09d6 2C010000 		.4byte	.LLST13
 1597 09da 32       		.uleb128 0x32
 1598 09db E9030000 		.4byte	.LASF113
 1599 09df 01       		.byte	0x1
 1600 09e0 96       		.byte	0x96
 1601 09e1 04030000 		.4byte	0x304
 1602 09e5 01       		.uleb128 0x1
 1603 09e6 50       		.byte	0x50
 1604 09e7 2A       		.uleb128 0x2a
 1605 09e8 C3060000 		.4byte	0x6c3
 1606 09ec 02000000 		.4byte	.LBB99
 1607 09f0 30000000 		.4byte	.Ldebug_ranges0+0x30
 1608 09f4 01       		.byte	0x1
 1609 09f5 98       		.byte	0x98
 1610 09f6 230A0000 		.4byte	0xa23
 1611 09fa 2B       		.uleb128 0x2b
 1612 09fb B1060000 		.4byte	0x6b1
 1613 09ff 02000000 		.4byte	.LBB100
 1614 0a03 30000000 		.4byte	.Ldebug_ranges0+0x30
 1615 0a07 10       		.byte	0x10
 1616 0a08 5C01     		.2byte	0x15c
 1617 0a0a 2B       		.uleb128 0x2b
 1618 0a0b 97060000 		.4byte	0x697
 1619 0a0f 02000000 		.4byte	.LBB101
 1620 0a13 30000000 		.4byte	.Ldebug_ranges0+0x30
 1621 0a17 0A       		.byte	0xa
 1622 0a18 D001     		.2byte	0x1d0
 1623 0a1a 33       		.uleb128 0x33
 1624 0a1b A4060000 		.4byte	0x6a4
 1625 0a1f 20       		.byte	0x20
 1626 0a20 00       		.byte	0
 1627 0a21 00       		.byte	0
 1628 0a22 00       		.byte	0
 1629 0a23 2A       		.uleb128 0x2a
 1630 0a24 CC060000 		.4byte	0x6cc
 1631 0a28 0A000000 		.4byte	.LBB107
 1632 0a2c 48000000 		.4byte	.Ldebug_ranges0+0x48
 1633 0a30 01       		.byte	0x1
 1634 0a31 99       		.byte	0x99
 1635 0a32 540A0000 		.4byte	0xa54
 1636 0a36 29       		.uleb128 0x29
 1637 0a37 DC060000 		.4byte	0x6dc
 1638 0a3b 71010000 		.4byte	.LLST14
 1639 0a3f 2C       		.uleb128 0x2c
 1640 0a40 48000000 		.4byte	.Ldebug_ranges0+0x48
 1641 0a44 2F       		.uleb128 0x2f
 1642 0a45 E6060000 		.4byte	0x6e6
 1643 0a49 B6010000 		.4byte	.LLST15
 1644 0a4d 2D       		.uleb128 0x2d
 1645 0a4e F1060000 		.4byte	0x6f1
ARM GAS  /tmp/ccOMgWpT.s 			page 30


 1646 0a52 00       		.byte	0
 1647 0a53 00       		.byte	0
 1648 0a54 34       		.uleb128 0x34
 1649 0a55 1A070000 		.4byte	0x71a
 1650 0a59 12000000 		.4byte	.LBB110
 1651 0a5d 60000000 		.4byte	.Ldebug_ranges0+0x60
 1652 0a61 01       		.byte	0x1
 1653 0a62 9A       		.byte	0x9a
 1654 0a63 2C       		.uleb128 0x2c
 1655 0a64 60000000 		.4byte	.Ldebug_ranges0+0x60
 1656 0a68 2D       		.uleb128 0x2d
 1657 0a69 27070000 		.4byte	0x727
 1658 0a6d 2B       		.uleb128 0x2b
 1659 0a6e BA060000 		.4byte	0x6ba
 1660 0a72 12000000 		.4byte	.LBB112
 1661 0a76 60000000 		.4byte	.Ldebug_ranges0+0x60
 1662 0a7a 10       		.byte	0x10
 1663 0a7b 7301     		.2byte	0x173
 1664 0a7d 2B       		.uleb128 0x2b
 1665 0a7e 97060000 		.4byte	0x697
 1666 0a82 12000000 		.4byte	.LBB113
 1667 0a86 60000000 		.4byte	.Ldebug_ranges0+0x60
 1668 0a8a 0A       		.byte	0xa
 1669 0a8b E301     		.2byte	0x1e3
 1670 0a8d 29       		.uleb128 0x29
 1671 0a8e A4060000 		.4byte	0x6a4
 1672 0a92 E0010000 		.4byte	.LLST16
 1673 0a96 00       		.byte	0
 1674 0a97 00       		.byte	0
 1675 0a98 00       		.byte	0
 1676 0a99 00       		.byte	0
 1677 0a9a 00       		.byte	0
 1678 0a9b 35       		.uleb128 0x35
 1679 0a9c 4A070000 		.4byte	0x74a
 1680 0aa0 00000000 		.4byte	.LFB245
 1681 0aa4 08000000 		.4byte	.LFE245-.LFB245
 1682 0aa8 01       		.uleb128 0x1
 1683 0aa9 9C       		.byte	0x9c
 1684 0aaa C90A0000 		.4byte	0xac9
 1685 0aae 36       		.uleb128 0x36
 1686 0aaf 56070000 		.4byte	0x756
 1687 0ab3 01       		.uleb128 0x1
 1688 0ab4 50       		.byte	0x50
 1689 0ab5 36       		.uleb128 0x36
 1690 0ab6 60070000 		.4byte	0x760
 1691 0aba 01       		.uleb128 0x1
 1692 0abb 51       		.byte	0x51
 1693 0abc 37       		.uleb128 0x37
 1694 0abd 6B070000 		.4byte	0x76b
 1695 0ac1 01       		.uleb128 0x1
 1696 0ac2 51       		.byte	0x51
 1697 0ac3 2D       		.uleb128 0x2d
 1698 0ac4 76070000 		.4byte	0x776
 1699 0ac8 00       		.byte	0
 1700 0ac9 35       		.uleb128 0x35
 1701 0aca 89070000 		.4byte	0x789
 1702 0ace 00000000 		.4byte	.LFB246
ARM GAS  /tmp/ccOMgWpT.s 			page 31


 1703 0ad2 14000000 		.4byte	.LFE246-.LFB246
 1704 0ad6 01       		.uleb128 0x1
 1705 0ad7 9C       		.byte	0x9c
 1706 0ad8 9E0B0000 		.4byte	0xb9e
 1707 0adc 36       		.uleb128 0x36
 1708 0add 95070000 		.4byte	0x795
 1709 0ae1 01       		.uleb128 0x1
 1710 0ae2 50       		.byte	0x50
 1711 0ae3 36       		.uleb128 0x36
 1712 0ae4 9F070000 		.4byte	0x79f
 1713 0ae8 01       		.uleb128 0x1
 1714 0ae9 51       		.byte	0x51
 1715 0aea 38       		.uleb128 0x38
 1716 0aeb C3060000 		.4byte	0x6c3
 1717 0aef 00000000 		.4byte	.LBB121
 1718 0af3 06000000 		.4byte	.LBE121-.LBB121
 1719 0af7 01       		.byte	0x1
 1720 0af8 C3       		.byte	0xc3
 1721 0af9 260B0000 		.4byte	0xb26
 1722 0afd 39       		.uleb128 0x39
 1723 0afe B1060000 		.4byte	0x6b1
 1724 0b02 00000000 		.4byte	.LBB122
 1725 0b06 06000000 		.4byte	.LBE122-.LBB122
 1726 0b0a 10       		.byte	0x10
 1727 0b0b 5C01     		.2byte	0x15c
 1728 0b0d 39       		.uleb128 0x39
 1729 0b0e 97060000 		.4byte	0x697
 1730 0b12 00000000 		.4byte	.LBB123
 1731 0b16 06000000 		.4byte	.LBE123-.LBB123
 1732 0b1a 0A       		.byte	0xa
 1733 0b1b D001     		.2byte	0x1d0
 1734 0b1d 33       		.uleb128 0x33
 1735 0b1e A4060000 		.4byte	0x6a4
 1736 0b22 20       		.byte	0x20
 1737 0b23 00       		.byte	0
 1738 0b24 00       		.byte	0
 1739 0b25 00       		.byte	0
 1740 0b26 2A       		.uleb128 0x2a
 1741 0b27 4A070000 		.4byte	0x74a
 1742 0b2b 06000000 		.4byte	.LBB125
 1743 0b2f 78000000 		.4byte	.Ldebug_ranges0+0x78
 1744 0b33 01       		.byte	0x1
 1745 0b34 C4       		.byte	0xc4
 1746 0b35 5A0B0000 		.4byte	0xb5a
 1747 0b39 36       		.uleb128 0x36
 1748 0b3a 60070000 		.4byte	0x760
 1749 0b3e 01       		.uleb128 0x1
 1750 0b3f 51       		.byte	0x51
 1751 0b40 36       		.uleb128 0x36
 1752 0b41 56070000 		.4byte	0x756
 1753 0b45 01       		.uleb128 0x1
 1754 0b46 50       		.byte	0x50
 1755 0b47 2C       		.uleb128 0x2c
 1756 0b48 78000000 		.4byte	.Ldebug_ranges0+0x78
 1757 0b4c 37       		.uleb128 0x37
 1758 0b4d 6B070000 		.4byte	0x76b
 1759 0b51 01       		.uleb128 0x1
ARM GAS  /tmp/ccOMgWpT.s 			page 32


 1760 0b52 51       		.byte	0x51
 1761 0b53 2D       		.uleb128 0x2d
 1762 0b54 76070000 		.4byte	0x776
 1763 0b58 00       		.byte	0
 1764 0b59 00       		.byte	0
 1765 0b5a 34       		.uleb128 0x34
 1766 0b5b 1A070000 		.4byte	0x71a
 1767 0b5f 0A000000 		.4byte	.LBB128
 1768 0b63 90000000 		.4byte	.Ldebug_ranges0+0x90
 1769 0b67 01       		.byte	0x1
 1770 0b68 C5       		.byte	0xc5
 1771 0b69 2C       		.uleb128 0x2c
 1772 0b6a 90000000 		.4byte	.Ldebug_ranges0+0x90
 1773 0b6e 2D       		.uleb128 0x2d
 1774 0b6f 27070000 		.4byte	0x727
 1775 0b73 2B       		.uleb128 0x2b
 1776 0b74 BA060000 		.4byte	0x6ba
 1777 0b78 0A000000 		.4byte	.LBB130
 1778 0b7c 90000000 		.4byte	.Ldebug_ranges0+0x90
 1779 0b80 10       		.byte	0x10
 1780 0b81 7301     		.2byte	0x173
 1781 0b83 2B       		.uleb128 0x2b
 1782 0b84 97060000 		.4byte	0x697
 1783 0b88 0A000000 		.4byte	.LBB131
 1784 0b8c 90000000 		.4byte	.Ldebug_ranges0+0x90
 1785 0b90 0A       		.byte	0xa
 1786 0b91 E301     		.2byte	0x1e3
 1787 0b93 33       		.uleb128 0x33
 1788 0b94 A4060000 		.4byte	0x6a4
 1789 0b98 00       		.byte	0
 1790 0b99 00       		.byte	0
 1791 0b9a 00       		.byte	0
 1792 0b9b 00       		.byte	0
 1793 0b9c 00       		.byte	0
 1794 0b9d 00       		.byte	0
 1795 0b9e 3A       		.uleb128 0x3a
 1796 0b9f B2000000 		.4byte	.LASF125
 1797 0ba3 11       		.byte	0x11
 1798 0ba4 FA06     		.2byte	0x6fa
 1799 0ba6 AA0B0000 		.4byte	0xbaa
 1800 0baa 14       		.uleb128 0x14
 1801 0bab AD000000 		.4byte	0xad
 1802 0baf 3B       		.uleb128 0x3b
 1803 0bb0 636800   		.ascii	"ch\000"
 1804 0bb3 08       		.byte	0x8
 1805 0bb4 0B02     		.2byte	0x20b
 1806 0bb6 D3030000 		.4byte	0x3d3
 1807 0bba 00       		.byte	0
 1808              		.section	.debug_abbrev,"",%progbits
 1809              	.Ldebug_abbrev0:
 1810 0000 01       		.uleb128 0x1
 1811 0001 11       		.uleb128 0x11
 1812 0002 01       		.byte	0x1
 1813 0003 25       		.uleb128 0x25
 1814 0004 0E       		.uleb128 0xe
 1815 0005 13       		.uleb128 0x13
 1816 0006 0B       		.uleb128 0xb
ARM GAS  /tmp/ccOMgWpT.s 			page 33


 1817 0007 03       		.uleb128 0x3
 1818 0008 0E       		.uleb128 0xe
 1819 0009 1B       		.uleb128 0x1b
 1820 000a 0E       		.uleb128 0xe
 1821 000b 55       		.uleb128 0x55
 1822 000c 17       		.uleb128 0x17
 1823 000d 11       		.uleb128 0x11
 1824 000e 01       		.uleb128 0x1
 1825 000f 10       		.uleb128 0x10
 1826 0010 17       		.uleb128 0x17
 1827 0011 00       		.byte	0
 1828 0012 00       		.byte	0
 1829 0013 02       		.uleb128 0x2
 1830 0014 24       		.uleb128 0x24
 1831 0015 00       		.byte	0
 1832 0016 0B       		.uleb128 0xb
 1833 0017 0B       		.uleb128 0xb
 1834 0018 3E       		.uleb128 0x3e
 1835 0019 0B       		.uleb128 0xb
 1836 001a 03       		.uleb128 0x3
 1837 001b 08       		.uleb128 0x8
 1838 001c 00       		.byte	0
 1839 001d 00       		.byte	0
 1840 001e 03       		.uleb128 0x3
 1841 001f 16       		.uleb128 0x16
 1842 0020 00       		.byte	0
 1843 0021 03       		.uleb128 0x3
 1844 0022 0E       		.uleb128 0xe
 1845 0023 3A       		.uleb128 0x3a
 1846 0024 0B       		.uleb128 0xb
 1847 0025 3B       		.uleb128 0x3b
 1848 0026 0B       		.uleb128 0xb
 1849 0027 49       		.uleb128 0x49
 1850 0028 13       		.uleb128 0x13
 1851 0029 00       		.byte	0
 1852 002a 00       		.byte	0
 1853 002b 04       		.uleb128 0x4
 1854 002c 24       		.uleb128 0x24
 1855 002d 00       		.byte	0
 1856 002e 0B       		.uleb128 0xb
 1857 002f 0B       		.uleb128 0xb
 1858 0030 3E       		.uleb128 0x3e
 1859 0031 0B       		.uleb128 0xb
 1860 0032 03       		.uleb128 0x3
 1861 0033 0E       		.uleb128 0xe
 1862 0034 00       		.byte	0
 1863 0035 00       		.byte	0
 1864 0036 05       		.uleb128 0x5
 1865 0037 13       		.uleb128 0x13
 1866 0038 01       		.byte	0x1
 1867 0039 03       		.uleb128 0x3
 1868 003a 0E       		.uleb128 0xe
 1869 003b 0B       		.uleb128 0xb
 1870 003c 0B       		.uleb128 0xb
 1871 003d 3A       		.uleb128 0x3a
 1872 003e 0B       		.uleb128 0xb
 1873 003f 3B       		.uleb128 0x3b
ARM GAS  /tmp/ccOMgWpT.s 			page 34


 1874 0040 0B       		.uleb128 0xb
 1875 0041 01       		.uleb128 0x1
 1876 0042 13       		.uleb128 0x13
 1877 0043 00       		.byte	0
 1878 0044 00       		.byte	0
 1879 0045 06       		.uleb128 0x6
 1880 0046 0D       		.uleb128 0xd
 1881 0047 00       		.byte	0
 1882 0048 03       		.uleb128 0x3
 1883 0049 0E       		.uleb128 0xe
 1884 004a 3A       		.uleb128 0x3a
 1885 004b 0B       		.uleb128 0xb
 1886 004c 3B       		.uleb128 0x3b
 1887 004d 0B       		.uleb128 0xb
 1888 004e 49       		.uleb128 0x49
 1889 004f 13       		.uleb128 0x13
 1890 0050 38       		.uleb128 0x38
 1891 0051 0B       		.uleb128 0xb
 1892 0052 00       		.byte	0
 1893 0053 00       		.byte	0
 1894 0054 07       		.uleb128 0x7
 1895 0055 0D       		.uleb128 0xd
 1896 0056 00       		.byte	0
 1897 0057 03       		.uleb128 0x3
 1898 0058 08       		.uleb128 0x8
 1899 0059 3A       		.uleb128 0x3a
 1900 005a 0B       		.uleb128 0xb
 1901 005b 3B       		.uleb128 0x3b
 1902 005c 05       		.uleb128 0x5
 1903 005d 49       		.uleb128 0x49
 1904 005e 13       		.uleb128 0x13
 1905 005f 38       		.uleb128 0x38
 1906 0060 0B       		.uleb128 0xb
 1907 0061 00       		.byte	0
 1908 0062 00       		.byte	0
 1909 0063 08       		.uleb128 0x8
 1910 0064 0D       		.uleb128 0xd
 1911 0065 00       		.byte	0
 1912 0066 03       		.uleb128 0x3
 1913 0067 0E       		.uleb128 0xe
 1914 0068 3A       		.uleb128 0x3a
 1915 0069 0B       		.uleb128 0xb
 1916 006a 3B       		.uleb128 0x3b
 1917 006b 05       		.uleb128 0x5
 1918 006c 49       		.uleb128 0x49
 1919 006d 13       		.uleb128 0x13
 1920 006e 38       		.uleb128 0x38
 1921 006f 0B       		.uleb128 0xb
 1922 0070 00       		.byte	0
 1923 0071 00       		.byte	0
 1924 0072 09       		.uleb128 0x9
 1925 0073 0F       		.uleb128 0xf
 1926 0074 00       		.byte	0
 1927 0075 0B       		.uleb128 0xb
 1928 0076 0B       		.uleb128 0xb
 1929 0077 49       		.uleb128 0x49
 1930 0078 13       		.uleb128 0x13
ARM GAS  /tmp/ccOMgWpT.s 			page 35


 1931 0079 00       		.byte	0
 1932 007a 00       		.byte	0
 1933 007b 0A       		.uleb128 0xa
 1934 007c 13       		.uleb128 0x13
 1935 007d 01       		.byte	0x1
 1936 007e 03       		.uleb128 0x3
 1937 007f 0E       		.uleb128 0xe
 1938 0080 0B       		.uleb128 0xb
 1939 0081 0B       		.uleb128 0xb
 1940 0082 3A       		.uleb128 0x3a
 1941 0083 0B       		.uleb128 0xb
 1942 0084 3B       		.uleb128 0x3b
 1943 0085 05       		.uleb128 0x5
 1944 0086 01       		.uleb128 0x1
 1945 0087 13       		.uleb128 0x13
 1946 0088 00       		.byte	0
 1947 0089 00       		.byte	0
 1948 008a 0B       		.uleb128 0xb
 1949 008b 15       		.uleb128 0x15
 1950 008c 01       		.byte	0x1
 1951 008d 27       		.uleb128 0x27
 1952 008e 19       		.uleb128 0x19
 1953 008f 01       		.uleb128 0x1
 1954 0090 13       		.uleb128 0x13
 1955 0091 00       		.byte	0
 1956 0092 00       		.byte	0
 1957 0093 0C       		.uleb128 0xc
 1958 0094 05       		.uleb128 0x5
 1959 0095 00       		.byte	0
 1960 0096 49       		.uleb128 0x49
 1961 0097 13       		.uleb128 0x13
 1962 0098 00       		.byte	0
 1963 0099 00       		.byte	0
 1964 009a 0D       		.uleb128 0xd
 1965 009b 0F       		.uleb128 0xf
 1966 009c 00       		.byte	0
 1967 009d 0B       		.uleb128 0xb
 1968 009e 0B       		.uleb128 0xb
 1969 009f 00       		.byte	0
 1970 00a0 00       		.byte	0
 1971 00a1 0E       		.uleb128 0xe
 1972 00a2 13       		.uleb128 0x13
 1973 00a3 01       		.byte	0x1
 1974 00a4 03       		.uleb128 0x3
 1975 00a5 0E       		.uleb128 0xe
 1976 00a6 0B       		.uleb128 0xb
 1977 00a7 05       		.uleb128 0x5
 1978 00a8 3A       		.uleb128 0x3a
 1979 00a9 0B       		.uleb128 0xb
 1980 00aa 3B       		.uleb128 0x3b
 1981 00ab 05       		.uleb128 0x5
 1982 00ac 01       		.uleb128 0x1
 1983 00ad 13       		.uleb128 0x13
 1984 00ae 00       		.byte	0
 1985 00af 00       		.byte	0
 1986 00b0 0F       		.uleb128 0xf
 1987 00b1 0D       		.uleb128 0xd
ARM GAS  /tmp/ccOMgWpT.s 			page 36


 1988 00b2 00       		.byte	0
 1989 00b3 03       		.uleb128 0x3
 1990 00b4 08       		.uleb128 0x8
 1991 00b5 3A       		.uleb128 0x3a
 1992 00b6 0B       		.uleb128 0xb
 1993 00b7 3B       		.uleb128 0x3b
 1994 00b8 0B       		.uleb128 0xb
 1995 00b9 49       		.uleb128 0x49
 1996 00ba 13       		.uleb128 0x13
 1997 00bb 38       		.uleb128 0x38
 1998 00bc 0B       		.uleb128 0xb
 1999 00bd 00       		.byte	0
 2000 00be 00       		.byte	0
 2001 00bf 10       		.uleb128 0x10
 2002 00c0 13       		.uleb128 0x13
 2003 00c1 01       		.byte	0x1
 2004 00c2 0B       		.uleb128 0xb
 2005 00c3 0B       		.uleb128 0xb
 2006 00c4 3A       		.uleb128 0x3a
 2007 00c5 0B       		.uleb128 0xb
 2008 00c6 3B       		.uleb128 0x3b
 2009 00c7 0B       		.uleb128 0xb
 2010 00c8 01       		.uleb128 0x1
 2011 00c9 13       		.uleb128 0x13
 2012 00ca 00       		.byte	0
 2013 00cb 00       		.byte	0
 2014 00cc 11       		.uleb128 0x11
 2015 00cd 17       		.uleb128 0x17
 2016 00ce 01       		.byte	0x1
 2017 00cf 0B       		.uleb128 0xb
 2018 00d0 0B       		.uleb128 0xb
 2019 00d1 3A       		.uleb128 0x3a
 2020 00d2 0B       		.uleb128 0xb
 2021 00d3 3B       		.uleb128 0x3b
 2022 00d4 0B       		.uleb128 0xb
 2023 00d5 01       		.uleb128 0x1
 2024 00d6 13       		.uleb128 0x13
 2025 00d7 00       		.byte	0
 2026 00d8 00       		.byte	0
 2027 00d9 12       		.uleb128 0x12
 2028 00da 0D       		.uleb128 0xd
 2029 00db 00       		.byte	0
 2030 00dc 03       		.uleb128 0x3
 2031 00dd 0E       		.uleb128 0xe
 2032 00de 3A       		.uleb128 0x3a
 2033 00df 0B       		.uleb128 0xb
 2034 00e0 3B       		.uleb128 0x3b
 2035 00e1 05       		.uleb128 0x5
 2036 00e2 49       		.uleb128 0x49
 2037 00e3 13       		.uleb128 0x13
 2038 00e4 00       		.byte	0
 2039 00e5 00       		.byte	0
 2040 00e6 13       		.uleb128 0x13
 2041 00e7 26       		.uleb128 0x26
 2042 00e8 00       		.byte	0
 2043 00e9 49       		.uleb128 0x49
 2044 00ea 13       		.uleb128 0x13
ARM GAS  /tmp/ccOMgWpT.s 			page 37


 2045 00eb 00       		.byte	0
 2046 00ec 00       		.byte	0
 2047 00ed 14       		.uleb128 0x14
 2048 00ee 35       		.uleb128 0x35
 2049 00ef 00       		.byte	0
 2050 00f0 49       		.uleb128 0x49
 2051 00f1 13       		.uleb128 0x13
 2052 00f2 00       		.byte	0
 2053 00f3 00       		.byte	0
 2054 00f4 15       		.uleb128 0x15
 2055 00f5 01       		.uleb128 0x1
 2056 00f6 01       		.byte	0x1
 2057 00f7 49       		.uleb128 0x49
 2058 00f8 13       		.uleb128 0x13
 2059 00f9 01       		.uleb128 0x1
 2060 00fa 13       		.uleb128 0x13
 2061 00fb 00       		.byte	0
 2062 00fc 00       		.byte	0
 2063 00fd 16       		.uleb128 0x16
 2064 00fe 21       		.uleb128 0x21
 2065 00ff 00       		.byte	0
 2066 0100 49       		.uleb128 0x49
 2067 0101 13       		.uleb128 0x13
 2068 0102 2F       		.uleb128 0x2f
 2069 0103 0B       		.uleb128 0xb
 2070 0104 00       		.byte	0
 2071 0105 00       		.byte	0
 2072 0106 17       		.uleb128 0x17
 2073 0107 15       		.uleb128 0x15
 2074 0108 01       		.byte	0x1
 2075 0109 27       		.uleb128 0x27
 2076 010a 19       		.uleb128 0x19
 2077 010b 49       		.uleb128 0x49
 2078 010c 13       		.uleb128 0x13
 2079 010d 01       		.uleb128 0x1
 2080 010e 13       		.uleb128 0x13
 2081 010f 00       		.byte	0
 2082 0110 00       		.byte	0
 2083 0111 18       		.uleb128 0x18
 2084 0112 2E       		.uleb128 0x2e
 2085 0113 01       		.byte	0x1
 2086 0114 03       		.uleb128 0x3
 2087 0115 0E       		.uleb128 0xe
 2088 0116 3A       		.uleb128 0x3a
 2089 0117 0B       		.uleb128 0xb
 2090 0118 3B       		.uleb128 0x3b
 2091 0119 05       		.uleb128 0x5
 2092 011a 27       		.uleb128 0x27
 2093 011b 19       		.uleb128 0x19
 2094 011c 20       		.uleb128 0x20
 2095 011d 0B       		.uleb128 0xb
 2096 011e 01       		.uleb128 0x1
 2097 011f 13       		.uleb128 0x13
 2098 0120 00       		.byte	0
 2099 0121 00       		.byte	0
 2100 0122 19       		.uleb128 0x19
 2101 0123 05       		.uleb128 0x5
ARM GAS  /tmp/ccOMgWpT.s 			page 38


 2102 0124 00       		.byte	0
 2103 0125 03       		.uleb128 0x3
 2104 0126 0E       		.uleb128 0xe
 2105 0127 3A       		.uleb128 0x3a
 2106 0128 0B       		.uleb128 0xb
 2107 0129 3B       		.uleb128 0x3b
 2108 012a 05       		.uleb128 0x5
 2109 012b 49       		.uleb128 0x49
 2110 012c 13       		.uleb128 0x13
 2111 012d 00       		.byte	0
 2112 012e 00       		.byte	0
 2113 012f 1A       		.uleb128 0x1a
 2114 0130 2E       		.uleb128 0x2e
 2115 0131 00       		.byte	0
 2116 0132 03       		.uleb128 0x3
 2117 0133 0E       		.uleb128 0xe
 2118 0134 3A       		.uleb128 0x3a
 2119 0135 0B       		.uleb128 0xb
 2120 0136 3B       		.uleb128 0x3b
 2121 0137 05       		.uleb128 0x5
 2122 0138 27       		.uleb128 0x27
 2123 0139 19       		.uleb128 0x19
 2124 013a 20       		.uleb128 0x20
 2125 013b 0B       		.uleb128 0xb
 2126 013c 00       		.byte	0
 2127 013d 00       		.byte	0
 2128 013e 1B       		.uleb128 0x1b
 2129 013f 2E       		.uleb128 0x2e
 2130 0140 01       		.byte	0x1
 2131 0141 3F       		.uleb128 0x3f
 2132 0142 19       		.uleb128 0x19
 2133 0143 03       		.uleb128 0x3
 2134 0144 0E       		.uleb128 0xe
 2135 0145 3A       		.uleb128 0x3a
 2136 0146 0B       		.uleb128 0xb
 2137 0147 3B       		.uleb128 0x3b
 2138 0148 0B       		.uleb128 0xb
 2139 0149 27       		.uleb128 0x27
 2140 014a 19       		.uleb128 0x19
 2141 014b 49       		.uleb128 0x49
 2142 014c 13       		.uleb128 0x13
 2143 014d 20       		.uleb128 0x20
 2144 014e 0B       		.uleb128 0xb
 2145 014f 01       		.uleb128 0x1
 2146 0150 13       		.uleb128 0x13
 2147 0151 00       		.byte	0
 2148 0152 00       		.byte	0
 2149 0153 1C       		.uleb128 0x1c
 2150 0154 05       		.uleb128 0x5
 2151 0155 00       		.byte	0
 2152 0156 03       		.uleb128 0x3
 2153 0157 08       		.uleb128 0x8
 2154 0158 3A       		.uleb128 0x3a
 2155 0159 0B       		.uleb128 0xb
 2156 015a 3B       		.uleb128 0x3b
 2157 015b 0B       		.uleb128 0xb
 2158 015c 49       		.uleb128 0x49
ARM GAS  /tmp/ccOMgWpT.s 			page 39


 2159 015d 13       		.uleb128 0x13
 2160 015e 00       		.byte	0
 2161 015f 00       		.byte	0
 2162 0160 1D       		.uleb128 0x1d
 2163 0161 34       		.uleb128 0x34
 2164 0162 00       		.byte	0
 2165 0163 03       		.uleb128 0x3
 2166 0164 0E       		.uleb128 0xe
 2167 0165 3A       		.uleb128 0x3a
 2168 0166 0B       		.uleb128 0xb
 2169 0167 3B       		.uleb128 0x3b
 2170 0168 0B       		.uleb128 0xb
 2171 0169 49       		.uleb128 0x49
 2172 016a 13       		.uleb128 0x13
 2173 016b 00       		.byte	0
 2174 016c 00       		.byte	0
 2175 016d 1E       		.uleb128 0x1e
 2176 016e 34       		.uleb128 0x34
 2177 016f 00       		.byte	0
 2178 0170 03       		.uleb128 0x3
 2179 0171 0E       		.uleb128 0xe
 2180 0172 49       		.uleb128 0x49
 2181 0173 13       		.uleb128 0x13
 2182 0174 34       		.uleb128 0x34
 2183 0175 19       		.uleb128 0x19
 2184 0176 1C       		.uleb128 0x1c
 2185 0177 0E       		.uleb128 0xe
 2186 0178 00       		.byte	0
 2187 0179 00       		.byte	0
 2188 017a 1F       		.uleb128 0x1f
 2189 017b 2E       		.uleb128 0x2e
 2190 017c 01       		.byte	0x1
 2191 017d 3F       		.uleb128 0x3f
 2192 017e 19       		.uleb128 0x19
 2193 017f 03       		.uleb128 0x3
 2194 0180 0E       		.uleb128 0xe
 2195 0181 3A       		.uleb128 0x3a
 2196 0182 0B       		.uleb128 0xb
 2197 0183 3B       		.uleb128 0x3b
 2198 0184 0B       		.uleb128 0xb
 2199 0185 27       		.uleb128 0x27
 2200 0186 19       		.uleb128 0x19
 2201 0187 20       		.uleb128 0x20
 2202 0188 0B       		.uleb128 0xb
 2203 0189 01       		.uleb128 0x1
 2204 018a 13       		.uleb128 0x13
 2205 018b 00       		.byte	0
 2206 018c 00       		.byte	0
 2207 018d 20       		.uleb128 0x20
 2208 018e 05       		.uleb128 0x5
 2209 018f 00       		.byte	0
 2210 0190 03       		.uleb128 0x3
 2211 0191 0E       		.uleb128 0xe
 2212 0192 3A       		.uleb128 0x3a
 2213 0193 0B       		.uleb128 0xb
 2214 0194 3B       		.uleb128 0x3b
 2215 0195 0B       		.uleb128 0xb
ARM GAS  /tmp/ccOMgWpT.s 			page 40


 2216 0196 49       		.uleb128 0x49
 2217 0197 13       		.uleb128 0x13
 2218 0198 00       		.byte	0
 2219 0199 00       		.byte	0
 2220 019a 21       		.uleb128 0x21
 2221 019b 34       		.uleb128 0x34
 2222 019c 00       		.byte	0
 2223 019d 03       		.uleb128 0x3
 2224 019e 08       		.uleb128 0x8
 2225 019f 3A       		.uleb128 0x3a
 2226 01a0 0B       		.uleb128 0xb
 2227 01a1 3B       		.uleb128 0x3b
 2228 01a2 0B       		.uleb128 0xb
 2229 01a3 49       		.uleb128 0x49
 2230 01a4 13       		.uleb128 0x13
 2231 01a5 00       		.byte	0
 2232 01a6 00       		.byte	0
 2233 01a7 22       		.uleb128 0x22
 2234 01a8 2E       		.uleb128 0x2e
 2235 01a9 01       		.byte	0x1
 2236 01aa 03       		.uleb128 0x3
 2237 01ab 0E       		.uleb128 0xe
 2238 01ac 3A       		.uleb128 0x3a
 2239 01ad 0B       		.uleb128 0xb
 2240 01ae 3B       		.uleb128 0x3b
 2241 01af 0B       		.uleb128 0xb
 2242 01b0 27       		.uleb128 0x27
 2243 01b1 19       		.uleb128 0x19
 2244 01b2 20       		.uleb128 0x20
 2245 01b3 0B       		.uleb128 0xb
 2246 01b4 01       		.uleb128 0x1
 2247 01b5 13       		.uleb128 0x13
 2248 01b6 00       		.byte	0
 2249 01b7 00       		.byte	0
 2250 01b8 23       		.uleb128 0x23
 2251 01b9 2E       		.uleb128 0x2e
 2252 01ba 01       		.byte	0x1
 2253 01bb 3F       		.uleb128 0x3f
 2254 01bc 19       		.uleb128 0x19
 2255 01bd 03       		.uleb128 0x3
 2256 01be 0E       		.uleb128 0xe
 2257 01bf 3A       		.uleb128 0x3a
 2258 01c0 0B       		.uleb128 0xb
 2259 01c1 3B       		.uleb128 0x3b
 2260 01c2 0B       		.uleb128 0xb
 2261 01c3 27       		.uleb128 0x27
 2262 01c4 19       		.uleb128 0x19
 2263 01c5 11       		.uleb128 0x11
 2264 01c6 01       		.uleb128 0x1
 2265 01c7 12       		.uleb128 0x12
 2266 01c8 06       		.uleb128 0x6
 2267 01c9 40       		.uleb128 0x40
 2268 01ca 18       		.uleb128 0x18
 2269 01cb 9742     		.uleb128 0x2117
 2270 01cd 19       		.uleb128 0x19
 2271 01ce 01       		.uleb128 0x1
 2272 01cf 13       		.uleb128 0x13
ARM GAS  /tmp/ccOMgWpT.s 			page 41


 2273 01d0 00       		.byte	0
 2274 01d1 00       		.byte	0
 2275 01d2 24       		.uleb128 0x24
 2276 01d3 05       		.uleb128 0x5
 2277 01d4 00       		.byte	0
 2278 01d5 03       		.uleb128 0x3
 2279 01d6 08       		.uleb128 0x8
 2280 01d7 3A       		.uleb128 0x3a
 2281 01d8 0B       		.uleb128 0xb
 2282 01d9 3B       		.uleb128 0x3b
 2283 01da 0B       		.uleb128 0xb
 2284 01db 49       		.uleb128 0x49
 2285 01dc 13       		.uleb128 0x13
 2286 01dd 02       		.uleb128 0x2
 2287 01de 18       		.uleb128 0x18
 2288 01df 00       		.byte	0
 2289 01e0 00       		.byte	0
 2290 01e1 25       		.uleb128 0x25
 2291 01e2 05       		.uleb128 0x5
 2292 01e3 00       		.byte	0
 2293 01e4 03       		.uleb128 0x3
 2294 01e5 0E       		.uleb128 0xe
 2295 01e6 3A       		.uleb128 0x3a
 2296 01e7 0B       		.uleb128 0xb
 2297 01e8 3B       		.uleb128 0x3b
 2298 01e9 0B       		.uleb128 0xb
 2299 01ea 49       		.uleb128 0x49
 2300 01eb 13       		.uleb128 0x13
 2301 01ec 02       		.uleb128 0x2
 2302 01ed 18       		.uleb128 0x18
 2303 01ee 00       		.byte	0
 2304 01ef 00       		.byte	0
 2305 01f0 26       		.uleb128 0x26
 2306 01f1 34       		.uleb128 0x34
 2307 01f2 00       		.byte	0
 2308 01f3 03       		.uleb128 0x3
 2309 01f4 0E       		.uleb128 0xe
 2310 01f5 49       		.uleb128 0x49
 2311 01f6 13       		.uleb128 0x13
 2312 01f7 34       		.uleb128 0x34
 2313 01f8 19       		.uleb128 0x19
 2314 01f9 00       		.byte	0
 2315 01fa 00       		.byte	0
 2316 01fb 27       		.uleb128 0x27
 2317 01fc 05       		.uleb128 0x5
 2318 01fd 00       		.byte	0
 2319 01fe 03       		.uleb128 0x3
 2320 01ff 08       		.uleb128 0x8
 2321 0200 3A       		.uleb128 0x3a
 2322 0201 0B       		.uleb128 0xb
 2323 0202 3B       		.uleb128 0x3b
 2324 0203 0B       		.uleb128 0xb
 2325 0204 49       		.uleb128 0x49
 2326 0205 13       		.uleb128 0x13
 2327 0206 02       		.uleb128 0x2
 2328 0207 17       		.uleb128 0x17
 2329 0208 00       		.byte	0
ARM GAS  /tmp/ccOMgWpT.s 			page 42


 2330 0209 00       		.byte	0
 2331 020a 28       		.uleb128 0x28
 2332 020b 1D       		.uleb128 0x1d
 2333 020c 01       		.byte	0x1
 2334 020d 31       		.uleb128 0x31
 2335 020e 13       		.uleb128 0x13
 2336 020f 11       		.uleb128 0x11
 2337 0210 01       		.uleb128 0x1
 2338 0211 12       		.uleb128 0x12
 2339 0212 06       		.uleb128 0x6
 2340 0213 58       		.uleb128 0x58
 2341 0214 0B       		.uleb128 0xb
 2342 0215 59       		.uleb128 0x59
 2343 0216 0B       		.uleb128 0xb
 2344 0217 00       		.byte	0
 2345 0218 00       		.byte	0
 2346 0219 29       		.uleb128 0x29
 2347 021a 05       		.uleb128 0x5
 2348 021b 00       		.byte	0
 2349 021c 31       		.uleb128 0x31
 2350 021d 13       		.uleb128 0x13
 2351 021e 02       		.uleb128 0x2
 2352 021f 17       		.uleb128 0x17
 2353 0220 00       		.byte	0
 2354 0221 00       		.byte	0
 2355 0222 2A       		.uleb128 0x2a
 2356 0223 1D       		.uleb128 0x1d
 2357 0224 01       		.byte	0x1
 2358 0225 31       		.uleb128 0x31
 2359 0226 13       		.uleb128 0x13
 2360 0227 52       		.uleb128 0x52
 2361 0228 01       		.uleb128 0x1
 2362 0229 55       		.uleb128 0x55
 2363 022a 17       		.uleb128 0x17
 2364 022b 58       		.uleb128 0x58
 2365 022c 0B       		.uleb128 0xb
 2366 022d 59       		.uleb128 0x59
 2367 022e 0B       		.uleb128 0xb
 2368 022f 01       		.uleb128 0x1
 2369 0230 13       		.uleb128 0x13
 2370 0231 00       		.byte	0
 2371 0232 00       		.byte	0
 2372 0233 2B       		.uleb128 0x2b
 2373 0234 1D       		.uleb128 0x1d
 2374 0235 01       		.byte	0x1
 2375 0236 31       		.uleb128 0x31
 2376 0237 13       		.uleb128 0x13
 2377 0238 52       		.uleb128 0x52
 2378 0239 01       		.uleb128 0x1
 2379 023a 55       		.uleb128 0x55
 2380 023b 17       		.uleb128 0x17
 2381 023c 58       		.uleb128 0x58
 2382 023d 0B       		.uleb128 0xb
 2383 023e 59       		.uleb128 0x59
 2384 023f 05       		.uleb128 0x5
 2385 0240 00       		.byte	0
 2386 0241 00       		.byte	0
ARM GAS  /tmp/ccOMgWpT.s 			page 43


 2387 0242 2C       		.uleb128 0x2c
 2388 0243 0B       		.uleb128 0xb
 2389 0244 01       		.byte	0x1
 2390 0245 55       		.uleb128 0x55
 2391 0246 17       		.uleb128 0x17
 2392 0247 00       		.byte	0
 2393 0248 00       		.byte	0
 2394 0249 2D       		.uleb128 0x2d
 2395 024a 34       		.uleb128 0x34
 2396 024b 00       		.byte	0
 2397 024c 31       		.uleb128 0x31
 2398 024d 13       		.uleb128 0x13
 2399 024e 00       		.byte	0
 2400 024f 00       		.byte	0
 2401 0250 2E       		.uleb128 0x2e
 2402 0251 0B       		.uleb128 0xb
 2403 0252 01       		.byte	0x1
 2404 0253 11       		.uleb128 0x11
 2405 0254 01       		.uleb128 0x1
 2406 0255 12       		.uleb128 0x12
 2407 0256 06       		.uleb128 0x6
 2408 0257 00       		.byte	0
 2409 0258 00       		.byte	0
 2410 0259 2F       		.uleb128 0x2f
 2411 025a 34       		.uleb128 0x34
 2412 025b 00       		.byte	0
 2413 025c 31       		.uleb128 0x31
 2414 025d 13       		.uleb128 0x13
 2415 025e 02       		.uleb128 0x2
 2416 025f 17       		.uleb128 0x17
 2417 0260 00       		.byte	0
 2418 0261 00       		.byte	0
 2419 0262 30       		.uleb128 0x30
 2420 0263 2E       		.uleb128 0x2e
 2421 0264 01       		.byte	0x1
 2422 0265 31       		.uleb128 0x31
 2423 0266 13       		.uleb128 0x13
 2424 0267 11       		.uleb128 0x11
 2425 0268 01       		.uleb128 0x1
 2426 0269 12       		.uleb128 0x12
 2427 026a 06       		.uleb128 0x6
 2428 026b 40       		.uleb128 0x40
 2429 026c 18       		.uleb128 0x18
 2430 026d 9642     		.uleb128 0x2116
 2431 026f 19       		.uleb128 0x19
 2432 0270 01       		.uleb128 0x1
 2433 0271 13       		.uleb128 0x13
 2434 0272 00       		.byte	0
 2435 0273 00       		.byte	0
 2436 0274 31       		.uleb128 0x31
 2437 0275 2E       		.uleb128 0x2e
 2438 0276 01       		.byte	0x1
 2439 0277 3F       		.uleb128 0x3f
 2440 0278 19       		.uleb128 0x19
 2441 0279 03       		.uleb128 0x3
 2442 027a 0E       		.uleb128 0xe
 2443 027b 3A       		.uleb128 0x3a
ARM GAS  /tmp/ccOMgWpT.s 			page 44


 2444 027c 0B       		.uleb128 0xb
 2445 027d 3B       		.uleb128 0x3b
 2446 027e 0B       		.uleb128 0xb
 2447 027f 27       		.uleb128 0x27
 2448 0280 19       		.uleb128 0x19
 2449 0281 49       		.uleb128 0x49
 2450 0282 13       		.uleb128 0x13
 2451 0283 11       		.uleb128 0x11
 2452 0284 01       		.uleb128 0x1
 2453 0285 12       		.uleb128 0x12
 2454 0286 06       		.uleb128 0x6
 2455 0287 40       		.uleb128 0x40
 2456 0288 18       		.uleb128 0x18
 2457 0289 9642     		.uleb128 0x2116
 2458 028b 19       		.uleb128 0x19
 2459 028c 01       		.uleb128 0x1
 2460 028d 13       		.uleb128 0x13
 2461 028e 00       		.byte	0
 2462 028f 00       		.byte	0
 2463 0290 32       		.uleb128 0x32
 2464 0291 34       		.uleb128 0x34
 2465 0292 00       		.byte	0
 2466 0293 03       		.uleb128 0x3
 2467 0294 0E       		.uleb128 0xe
 2468 0295 3A       		.uleb128 0x3a
 2469 0296 0B       		.uleb128 0xb
 2470 0297 3B       		.uleb128 0x3b
 2471 0298 0B       		.uleb128 0xb
 2472 0299 49       		.uleb128 0x49
 2473 029a 13       		.uleb128 0x13
 2474 029b 02       		.uleb128 0x2
 2475 029c 18       		.uleb128 0x18
 2476 029d 00       		.byte	0
 2477 029e 00       		.byte	0
 2478 029f 33       		.uleb128 0x33
 2479 02a0 05       		.uleb128 0x5
 2480 02a1 00       		.byte	0
 2481 02a2 31       		.uleb128 0x31
 2482 02a3 13       		.uleb128 0x13
 2483 02a4 1C       		.uleb128 0x1c
 2484 02a5 0B       		.uleb128 0xb
 2485 02a6 00       		.byte	0
 2486 02a7 00       		.byte	0
 2487 02a8 34       		.uleb128 0x34
 2488 02a9 1D       		.uleb128 0x1d
 2489 02aa 01       		.byte	0x1
 2490 02ab 31       		.uleb128 0x31
 2491 02ac 13       		.uleb128 0x13
 2492 02ad 52       		.uleb128 0x52
 2493 02ae 01       		.uleb128 0x1
 2494 02af 55       		.uleb128 0x55
 2495 02b0 17       		.uleb128 0x17
 2496 02b1 58       		.uleb128 0x58
 2497 02b2 0B       		.uleb128 0xb
 2498 02b3 59       		.uleb128 0x59
 2499 02b4 0B       		.uleb128 0xb
 2500 02b5 00       		.byte	0
ARM GAS  /tmp/ccOMgWpT.s 			page 45


 2501 02b6 00       		.byte	0
 2502 02b7 35       		.uleb128 0x35
 2503 02b8 2E       		.uleb128 0x2e
 2504 02b9 01       		.byte	0x1
 2505 02ba 31       		.uleb128 0x31
 2506 02bb 13       		.uleb128 0x13
 2507 02bc 11       		.uleb128 0x11
 2508 02bd 01       		.uleb128 0x1
 2509 02be 12       		.uleb128 0x12
 2510 02bf 06       		.uleb128 0x6
 2511 02c0 40       		.uleb128 0x40
 2512 02c1 18       		.uleb128 0x18
 2513 02c2 9742     		.uleb128 0x2117
 2514 02c4 19       		.uleb128 0x19
 2515 02c5 01       		.uleb128 0x1
 2516 02c6 13       		.uleb128 0x13
 2517 02c7 00       		.byte	0
 2518 02c8 00       		.byte	0
 2519 02c9 36       		.uleb128 0x36
 2520 02ca 05       		.uleb128 0x5
 2521 02cb 00       		.byte	0
 2522 02cc 31       		.uleb128 0x31
 2523 02cd 13       		.uleb128 0x13
 2524 02ce 02       		.uleb128 0x2
 2525 02cf 18       		.uleb128 0x18
 2526 02d0 00       		.byte	0
 2527 02d1 00       		.byte	0
 2528 02d2 37       		.uleb128 0x37
 2529 02d3 34       		.uleb128 0x34
 2530 02d4 00       		.byte	0
 2531 02d5 31       		.uleb128 0x31
 2532 02d6 13       		.uleb128 0x13
 2533 02d7 02       		.uleb128 0x2
 2534 02d8 18       		.uleb128 0x18
 2535 02d9 00       		.byte	0
 2536 02da 00       		.byte	0
 2537 02db 38       		.uleb128 0x38
 2538 02dc 1D       		.uleb128 0x1d
 2539 02dd 01       		.byte	0x1
 2540 02de 31       		.uleb128 0x31
 2541 02df 13       		.uleb128 0x13
 2542 02e0 11       		.uleb128 0x11
 2543 02e1 01       		.uleb128 0x1
 2544 02e2 12       		.uleb128 0x12
 2545 02e3 06       		.uleb128 0x6
 2546 02e4 58       		.uleb128 0x58
 2547 02e5 0B       		.uleb128 0xb
 2548 02e6 59       		.uleb128 0x59
 2549 02e7 0B       		.uleb128 0xb
 2550 02e8 01       		.uleb128 0x1
 2551 02e9 13       		.uleb128 0x13
 2552 02ea 00       		.byte	0
 2553 02eb 00       		.byte	0
 2554 02ec 39       		.uleb128 0x39
 2555 02ed 1D       		.uleb128 0x1d
 2556 02ee 01       		.byte	0x1
 2557 02ef 31       		.uleb128 0x31
ARM GAS  /tmp/ccOMgWpT.s 			page 46


 2558 02f0 13       		.uleb128 0x13
 2559 02f1 11       		.uleb128 0x11
 2560 02f2 01       		.uleb128 0x1
 2561 02f3 12       		.uleb128 0x12
 2562 02f4 06       		.uleb128 0x6
 2563 02f5 58       		.uleb128 0x58
 2564 02f6 0B       		.uleb128 0xb
 2565 02f7 59       		.uleb128 0x59
 2566 02f8 05       		.uleb128 0x5
 2567 02f9 00       		.byte	0
 2568 02fa 00       		.byte	0
 2569 02fb 3A       		.uleb128 0x3a
 2570 02fc 34       		.uleb128 0x34
 2571 02fd 00       		.byte	0
 2572 02fe 03       		.uleb128 0x3
 2573 02ff 0E       		.uleb128 0xe
 2574 0300 3A       		.uleb128 0x3a
 2575 0301 0B       		.uleb128 0xb
 2576 0302 3B       		.uleb128 0x3b
 2577 0303 05       		.uleb128 0x5
 2578 0304 49       		.uleb128 0x49
 2579 0305 13       		.uleb128 0x13
 2580 0306 3F       		.uleb128 0x3f
 2581 0307 19       		.uleb128 0x19
 2582 0308 3C       		.uleb128 0x3c
 2583 0309 19       		.uleb128 0x19
 2584 030a 00       		.byte	0
 2585 030b 00       		.byte	0
 2586 030c 3B       		.uleb128 0x3b
 2587 030d 34       		.uleb128 0x34
 2588 030e 00       		.byte	0
 2589 030f 03       		.uleb128 0x3
 2590 0310 08       		.uleb128 0x8
 2591 0311 3A       		.uleb128 0x3a
 2592 0312 0B       		.uleb128 0xb
 2593 0313 3B       		.uleb128 0x3b
 2594 0314 05       		.uleb128 0x5
 2595 0315 49       		.uleb128 0x49
 2596 0316 13       		.uleb128 0x13
 2597 0317 3F       		.uleb128 0x3f
 2598 0318 19       		.uleb128 0x19
 2599 0319 3C       		.uleb128 0x3c
 2600 031a 19       		.uleb128 0x19
 2601 031b 00       		.byte	0
 2602 031c 00       		.byte	0
 2603 031d 00       		.byte	0
 2604              		.section	.debug_loc,"",%progbits
 2605              	.Ldebug_loc0:
 2606              	.LLST0:
 2607 0000 00000000 		.4byte	.LVL1
 2608 0004 1C000000 		.4byte	.LVL6
 2609 0008 0100     		.2byte	0x1
 2610 000a 51       		.byte	0x51
 2611 000b 1C000000 		.4byte	.LVL6
 2612 000f 22000000 		.4byte	.LFE242
 2613 0013 0100     		.2byte	0x1
 2614 0015 51       		.byte	0x51
ARM GAS  /tmp/ccOMgWpT.s 			page 47


 2615 0016 00000000 		.4byte	0
 2616 001a 00000000 		.4byte	0
 2617              	.LLST1:
 2618 001e 00000000 		.4byte	.LVL1
 2619 0022 08000000 		.4byte	.LVL2
 2620 0026 0100     		.2byte	0x1
 2621 0028 52       		.byte	0x52
 2622 0029 08000000 		.4byte	.LVL2
 2623 002d 1A000000 		.4byte	.LVL5
 2624 0031 0100     		.2byte	0x1
 2625 0033 52       		.byte	0x52
 2626 0034 1A000000 		.4byte	.LVL5
 2627 0038 1C000000 		.4byte	.LVL6
 2628 003c 0300     		.2byte	0x3
 2629 003e 72       		.byte	0x72
 2630 003f 01       		.sleb128 1
 2631 0040 9F       		.byte	0x9f
 2632 0041 00000000 		.4byte	0
 2633 0045 00000000 		.4byte	0
 2634              	.LLST2:
 2635 0049 08000000 		.4byte	.LVL2
 2636 004d 1E000000 		.4byte	.LVL7
 2637 0051 0100     		.2byte	0x1
 2638 0053 50       		.byte	0x50
 2639 0054 00000000 		.4byte	0
 2640 0058 00000000 		.4byte	0
 2641              	.LLST3:
 2642 005c 08000000 		.4byte	.LVL2
 2643 0060 1C000000 		.4byte	.LVL6
 2644 0064 0100     		.2byte	0x1
 2645 0066 51       		.byte	0x51
 2646 0067 1C000000 		.4byte	.LVL6
 2647 006b 1E000000 		.4byte	.LVL7
 2648 006f 0200     		.2byte	0x2
 2649 0071 70       		.byte	0x70
 2650 0072 00       		.sleb128 0
 2651 0073 00000000 		.4byte	0
 2652 0077 00000000 		.4byte	0
 2653              	.LLST6:
 2654 007b 08000000 		.4byte	.LVL2
 2655 007f 1E000000 		.4byte	.LVL7
 2656 0083 0300     		.2byte	0x3
 2657 0085 08       		.byte	0x8
 2658 0086 20       		.byte	0x20
 2659 0087 9F       		.byte	0x9f
 2660 0088 00000000 		.4byte	0
 2661 008c 00000000 		.4byte	0
 2662              	.LLST7:
 2663 0090 12000000 		.4byte	.LVL4
 2664 0094 1E000000 		.4byte	.LVL7
 2665 0098 0200     		.2byte	0x2
 2666 009a 30       		.byte	0x30
 2667 009b 9F       		.byte	0x9f
 2668 009c 00000000 		.4byte	0
 2669 00a0 00000000 		.4byte	0
 2670              	.LLST8:
 2671 00a4 0C000000 		.4byte	.LVL3
ARM GAS  /tmp/ccOMgWpT.s 			page 48


 2672 00a8 1C000000 		.4byte	.LVL6
 2673 00ac 0100     		.2byte	0x1
 2674 00ae 51       		.byte	0x51
 2675 00af 1C000000 		.4byte	.LVL6
 2676 00b3 1E000000 		.4byte	.LVL7
 2677 00b7 0200     		.2byte	0x2
 2678 00b9 70       		.byte	0x70
 2679 00ba 00       		.sleb128 0
 2680 00bb 00000000 		.4byte	0
 2681 00bf 00000000 		.4byte	0
 2682              	.LLST9:
 2683 00c3 0C000000 		.4byte	.LVL3
 2684 00c7 1E000000 		.4byte	.LVL7
 2685 00cb 0100     		.2byte	0x1
 2686 00cd 50       		.byte	0x50
 2687 00ce 00000000 		.4byte	0
 2688 00d2 00000000 		.4byte	0
 2689              	.LLST11:
 2690 00d6 00000000 		.4byte	.LVL8
 2691 00da 06000000 		.4byte	.LVL9
 2692 00de 0100     		.2byte	0x1
 2693 00e0 50       		.byte	0x50
 2694 00e1 06000000 		.4byte	.LVL9
 2695 00e5 15000000 		.4byte	.LVL12-1
 2696 00e9 0100     		.2byte	0x1
 2697 00eb 53       		.byte	0x53
 2698 00ec 15000000 		.4byte	.LVL12-1
 2699 00f0 18000000 		.4byte	.LFE243
 2700 00f4 0400     		.2byte	0x4
 2701 00f6 F3       		.byte	0xf3
 2702 00f7 01       		.uleb128 0x1
 2703 00f8 50       		.byte	0x50
 2704 00f9 9F       		.byte	0x9f
 2705 00fa 00000000 		.4byte	0
 2706 00fe 00000000 		.4byte	0
 2707              	.LLST12:
 2708 0102 06000000 		.4byte	.LVL9
 2709 0106 14000000 		.4byte	.LVL11
 2710 010a 0100     		.2byte	0x1
 2711 010c 50       		.byte	0x50
 2712 010d 14000000 		.4byte	.LVL11
 2713 0111 15000000 		.4byte	.LVL12-1
 2714 0115 0200     		.2byte	0x2
 2715 0117 73       		.byte	0x73
 2716 0118 00       		.sleb128 0
 2717 0119 16000000 		.4byte	.LVL12
 2718 011d 18000000 		.4byte	.LFE243
 2719 0121 0100     		.2byte	0x1
 2720 0123 50       		.byte	0x50
 2721 0124 00000000 		.4byte	0
 2722 0128 00000000 		.4byte	0
 2723              	.LLST13:
 2724 012c 00000000 		.4byte	.LVL13
 2725 0130 0C000000 		.4byte	.LVL15
 2726 0134 0100     		.2byte	0x1
 2727 0136 50       		.byte	0x50
 2728 0137 0C000000 		.4byte	.LVL15
ARM GAS  /tmp/ccOMgWpT.s 			page 49


 2729 013b 14000000 		.4byte	.LVL17
 2730 013f 0100     		.2byte	0x1
 2731 0141 53       		.byte	0x53
 2732 0142 14000000 		.4byte	.LVL17
 2733 0146 1A000000 		.4byte	.LVL18
 2734 014a 0400     		.2byte	0x4
 2735 014c F3       		.byte	0xf3
 2736 014d 01       		.uleb128 0x1
 2737 014e 50       		.byte	0x50
 2738 014f 9F       		.byte	0x9f
 2739 0150 1A000000 		.4byte	.LVL18
 2740 0154 23000000 		.4byte	.LVL20-1
 2741 0158 0100     		.2byte	0x1
 2742 015a 53       		.byte	0x53
 2743 015b 23000000 		.4byte	.LVL20-1
 2744 015f 2C000000 		.4byte	.LFE244
 2745 0163 0400     		.2byte	0x4
 2746 0165 F3       		.byte	0xf3
 2747 0166 01       		.uleb128 0x1
 2748 0167 50       		.byte	0x50
 2749 0168 9F       		.byte	0x9f
 2750 0169 00000000 		.4byte	0
 2751 016d 00000000 		.4byte	0
 2752              	.LLST14:
 2753 0171 0A000000 		.4byte	.LVL14
 2754 0175 0C000000 		.4byte	.LVL15
 2755 0179 0100     		.2byte	0x1
 2756 017b 50       		.byte	0x50
 2757 017c 0C000000 		.4byte	.LVL15
 2758 0180 14000000 		.4byte	.LVL17
 2759 0184 0100     		.2byte	0x1
 2760 0186 53       		.byte	0x53
 2761 0187 14000000 		.4byte	.LVL17
 2762 018b 1A000000 		.4byte	.LVL18
 2763 018f 0400     		.2byte	0x4
 2764 0191 F3       		.byte	0xf3
 2765 0192 01       		.uleb128 0x1
 2766 0193 50       		.byte	0x50
 2767 0194 9F       		.byte	0x9f
 2768 0195 1A000000 		.4byte	.LVL18
 2769 0199 23000000 		.4byte	.LVL20-1
 2770 019d 0100     		.2byte	0x1
 2771 019f 53       		.byte	0x53
 2772 01a0 23000000 		.4byte	.LVL20-1
 2773 01a4 2C000000 		.4byte	.LFE244
 2774 01a8 0400     		.2byte	0x4
 2775 01aa F3       		.byte	0xf3
 2776 01ab 01       		.uleb128 0x1
 2777 01ac 50       		.byte	0x50
 2778 01ad 9F       		.byte	0x9f
 2779 01ae 00000000 		.4byte	0
 2780 01b2 00000000 		.4byte	0
 2781              	.LLST15:
 2782 01b6 0C000000 		.4byte	.LVL15
 2783 01ba 22000000 		.4byte	.LVL19
 2784 01be 0100     		.2byte	0x1
 2785 01c0 50       		.byte	0x50
ARM GAS  /tmp/ccOMgWpT.s 			page 50


 2786 01c1 22000000 		.4byte	.LVL19
 2787 01c5 23000000 		.4byte	.LVL20-1
 2788 01c9 0200     		.2byte	0x2
 2789 01cb 73       		.byte	0x73
 2790 01cc 00       		.sleb128 0
 2791 01cd 24000000 		.4byte	.LVL20
 2792 01d1 2C000000 		.4byte	.LFE244
 2793 01d5 0100     		.2byte	0x1
 2794 01d7 50       		.byte	0x50
 2795 01d8 00000000 		.4byte	0
 2796 01dc 00000000 		.4byte	0
 2797              	.LLST16:
 2798 01e0 12000000 		.4byte	.LVL16
 2799 01e4 1A000000 		.4byte	.LVL18
 2800 01e8 0200     		.2byte	0x2
 2801 01ea 30       		.byte	0x30
 2802 01eb 9F       		.byte	0x9f
 2803 01ec 24000000 		.4byte	.LVL20
 2804 01f0 2C000000 		.4byte	.LFE244
 2805 01f4 0200     		.2byte	0x2
 2806 01f6 30       		.byte	0x30
 2807 01f7 9F       		.byte	0x9f
 2808 01f8 00000000 		.4byte	0
 2809 01fc 00000000 		.4byte	0
 2810              		.section	.debug_aranges,"",%progbits
 2811 0000 44000000 		.4byte	0x44
 2812 0004 0200     		.2byte	0x2
 2813 0006 00000000 		.4byte	.Ldebug_info0
 2814 000a 04       		.byte	0x4
 2815 000b 00       		.byte	0
 2816 000c 0000     		.2byte	0
 2817 000e 0000     		.2byte	0
 2818 0010 00000000 		.4byte	.LFB241
 2819 0014 0A000000 		.4byte	.LFE241-.LFB241
 2820 0018 00000000 		.4byte	.LFB242
 2821 001c 22000000 		.4byte	.LFE242-.LFB242
 2822 0020 00000000 		.4byte	.LFB243
 2823 0024 18000000 		.4byte	.LFE243-.LFB243
 2824 0028 00000000 		.4byte	.LFB244
 2825 002c 2C000000 		.4byte	.LFE244-.LFB244
 2826 0030 00000000 		.4byte	.LFB245
 2827 0034 08000000 		.4byte	.LFE245-.LFB245
 2828 0038 00000000 		.4byte	.LFB246
 2829 003c 14000000 		.4byte	.LFE246-.LFB246
 2830 0040 00000000 		.4byte	0
 2831 0044 00000000 		.4byte	0
 2832              		.section	.debug_ranges,"",%progbits
 2833              	.Ldebug_ranges0:
 2834 0000 04000000 		.4byte	.LBB79
 2835 0004 06000000 		.4byte	.LBE79
 2836 0008 08000000 		.4byte	.LBB95
 2837 000c 0C000000 		.4byte	.LBE95
 2838 0010 00000000 		.4byte	0
 2839 0014 00000000 		.4byte	0
 2840 0018 06000000 		.4byte	.LBB86
 2841 001c 08000000 		.4byte	.LBE86
 2842 0020 12000000 		.4byte	.LBB98
ARM GAS  /tmp/ccOMgWpT.s 			page 51


 2843 0024 16000000 		.4byte	.LBE98
 2844 0028 00000000 		.4byte	0
 2845 002c 00000000 		.4byte	0
 2846 0030 02000000 		.4byte	.LBB99
 2847 0034 04000000 		.4byte	.LBE99
 2848 0038 06000000 		.4byte	.LBB106
 2849 003c 0A000000 		.4byte	.LBE106
 2850 0040 00000000 		.4byte	0
 2851 0044 00000000 		.4byte	0
 2852 0048 0A000000 		.4byte	.LBB107
 2853 004c 12000000 		.4byte	.LBE107
 2854 0050 1A000000 		.4byte	.LBB119
 2855 0054 24000000 		.4byte	.LBE119
 2856 0058 00000000 		.4byte	0
 2857 005c 00000000 		.4byte	0
 2858 0060 12000000 		.4byte	.LBB110
 2859 0064 18000000 		.4byte	.LBE110
 2860 0068 24000000 		.4byte	.LBB120
 2861 006c 2A000000 		.4byte	.LBE120
 2862 0070 00000000 		.4byte	0
 2863 0074 00000000 		.4byte	0
 2864 0078 06000000 		.4byte	.LBB125
 2865 007c 0A000000 		.4byte	.LBE125
 2866 0080 0C000000 		.4byte	.LBB137
 2867 0084 0E000000 		.4byte	.LBE137
 2868 0088 00000000 		.4byte	0
 2869 008c 00000000 		.4byte	0
 2870 0090 0A000000 		.4byte	.LBB128
 2871 0094 0C000000 		.4byte	.LBE128
 2872 0098 0E000000 		.4byte	.LBB138
 2873 009c 14000000 		.4byte	.LBE138
 2874 00a0 00000000 		.4byte	0
 2875 00a4 00000000 		.4byte	0
 2876 00a8 00000000 		.4byte	.LFB241
 2877 00ac 0A000000 		.4byte	.LFE241
 2878 00b0 00000000 		.4byte	.LFB242
 2879 00b4 22000000 		.4byte	.LFE242
 2880 00b8 00000000 		.4byte	.LFB243
 2881 00bc 18000000 		.4byte	.LFE243
 2882 00c0 00000000 		.4byte	.LFB244
 2883 00c4 2C000000 		.4byte	.LFE244
 2884 00c8 00000000 		.4byte	.LFB245
 2885 00cc 08000000 		.4byte	.LFE245
 2886 00d0 00000000 		.4byte	.LFB246
 2887 00d4 14000000 		.4byte	.LFE246
 2888 00d8 00000000 		.4byte	0
 2889 00dc 00000000 		.4byte	0
 2890              		.section	.debug_line,"",%progbits
 2891              	.Ldebug_line0:
 2892 0000 CE030000 		.section	.debug_str,"MS",%progbits,1
 2892      0200E902 
 2892      00000201 
 2892      FB0E0D00 
 2892      01010101 
 2893              	.LASF50:
 2894 0000 72656164 		.ascii	"ready_list_t\000"
 2894      795F6C69 
ARM GAS  /tmp/ccOMgWpT.s 			page 52


 2894      73745F74 
 2894      00
 2895              	.LASF2:
 2896 000d 73697A65 		.ascii	"size_t\000"
 2896      5F7400
 2897              	.LASF85:
 2898 0014 7264796D 		.ascii	"rdymsg\000"
 2898      736700
 2899              	.LASF17:
 2900 001b 75696E74 		.ascii	"uint64_t\000"
 2900      36345F74 
 2900      00
 2901              	.LASF3:
 2902 0024 5F5F7569 		.ascii	"__uint8_t\000"
 2902      6E74385F 
 2902      7400
 2903              	.LASF82:
 2904 002e 706F7274 		.ascii	"port_intctx\000"
 2904      5F696E74 
 2904      63747800 
 2905              	.LASF69:
 2906 003a 73797374 		.ascii	"system_debug_t\000"
 2906      656D5F64 
 2906      65627567 
 2906      5F7400
 2907              	.LASF122:
 2908 0049 70726F76 		.ascii	"provider\000"
 2908      69646572 
 2908      00
 2909              	.LASF109:
 2910 0052 706F7274 		.ascii	"port_lock\000"
 2910      5F6C6F63 
 2910      6B00
 2911              	.LASF102:
 2912 005c 6D656D67 		.ascii	"memgetfunc_t\000"
 2912      65746675 
 2912      6E635F74 
 2912      00
 2913              	.LASF13:
 2914 0069 6C6F6E67 		.ascii	"long long unsigned int\000"
 2914      206C6F6E 
 2914      6720756E 
 2914      7369676E 
 2914      65642069 
 2915              	.LASF86:
 2916 0080 65786974 		.ascii	"exitcode\000"
 2916      636F6465 
 2916      00
 2917              	.LASF76:
 2918 0089 6D61696E 		.ascii	"mainthread\000"
 2918      74687265 
 2918      616400
 2919              	.LASF89:
 2920 0094 73656E74 		.ascii	"sentmsg\000"
 2920      6D736700 
 2921              	.LASF66:
 2922 009c 76697274 		.ascii	"virtual_timers_list_t\000"
ARM GAS  /tmp/ccOMgWpT.s 			page 53


 2922      75616C5F 
 2922      74696D65 
 2922      72735F6C 
 2922      6973745F 
 2923              	.LASF125:
 2924 00b2 49544D5F 		.ascii	"ITM_RxBuffer\000"
 2924      52784275 
 2924      66666572 
 2924      00
 2925              	.LASF49:
 2926 00bf 63685F74 		.ascii	"ch_threads_queue\000"
 2926      68726561 
 2926      64735F71 
 2926      75657565 
 2926      00
 2927              	.LASF30:
 2928 00d0 705F7072 		.ascii	"p_prio\000"
 2928      696F00
 2929              	.LASF11:
 2930 00d7 6C6F6E67 		.ascii	"long long int\000"
 2930      206C6F6E 
 2930      6720696E 
 2930      7400
 2931              	.LASF1:
 2932 00e5 7369676E 		.ascii	"signed char\000"
 2932      65642063 
 2932      68617200 
 2933              	.LASF43:
 2934 00f1 705F6D70 		.ascii	"p_mpool\000"
 2934      6F6F6C00 
 2935              	.LASF97:
 2936 00f9 6D5F7175 		.ascii	"m_queue\000"
 2936      65756500 
 2937              	.LASF75:
 2938 0101 76746C69 		.ascii	"vtlist\000"
 2938      737400
 2939              	.LASF110:
 2940 0108 706F7274 		.ascii	"port_unlock\000"
 2940      5F756E6C 
 2940      6F636B00 
 2941              	.LASF88:
 2942 0114 77747472 		.ascii	"wttrp\000"
 2942      7000
 2943              	.LASF128:
 2944 011a 2F6E6673 		.ascii	"/nfs/nfs4/home/cojthack/442FinalProject/sensor\000"
 2944      2F6E6673 
 2944      342F686F 
 2944      6D652F63 
 2944      6F6A7468 
 2945              	.LASF8:
 2946 0149 6C6F6E67 		.ascii	"long int\000"
 2946      20696E74 
 2946      00
 2947              	.LASF20:
 2948 0152 74737461 		.ascii	"tstate_t\000"
 2948      74655F74 
 2948      00
ARM GAS  /tmp/ccOMgWpT.s 			page 54


 2949              	.LASF105:
 2950 015b 6D705F6E 		.ascii	"mp_next\000"
 2950      65787400 
 2951              	.LASF32:
 2952 0163 705F6E65 		.ascii	"p_newer\000"
 2952      77657200 
 2953              	.LASF94:
 2954 016b 735F7175 		.ascii	"s_queue\000"
 2954      65756500 
 2955              	.LASF6:
 2956 0173 73686F72 		.ascii	"short unsigned int\000"
 2956      7420756E 
 2956      7369676E 
 2956      65642069 
 2956      6E7400
 2957              	.LASF55:
 2958 0186 725F6E65 		.ascii	"r_newer\000"
 2958      77657200 
 2959              	.LASF107:
 2960 018e 6D705F70 		.ascii	"mp_provider\000"
 2960      726F7669 
 2960      64657200 
 2961              	.LASF79:
 2962 019a 72656761 		.ascii	"regarm_t\000"
 2962      726D5F74 
 2962      00
 2963              	.LASF62:
 2964 01a3 76745F70 		.ascii	"vt_prev\000"
 2964      72657600 
 2965              	.LASF101:
 2966 01ab 6D757465 		.ascii	"mutex_t\000"
 2966      785F7400 
 2967              	.LASF112:
 2968 01b3 76616C75 		.ascii	"value\000"
 2968      6500
 2969              	.LASF77:
 2970 01b9 69646C65 		.ascii	"idle_thread_wa\000"
 2970      5F746872 
 2970      6561645F 
 2970      776100
 2971              	.LASF25:
 2972 01c8 636E745F 		.ascii	"cnt_t\000"
 2972      7400
 2973              	.LASF0:
 2974 01ce 756E7369 		.ascii	"unsigned int\000"
 2974      676E6564 
 2974      20696E74 
 2974      00
 2975              	.LASF61:
 2976 01db 76745F6E 		.ascii	"vt_next\000"
 2976      65787400 
 2977              	.LASF90:
 2978 01e3 77747365 		.ascii	"wtsemp\000"
 2978      6D7000
 2979              	.LASF39:
 2980 01ea 705F6D73 		.ascii	"p_msgqueue\000"
 2980      67717565 
ARM GAS  /tmp/ccOMgWpT.s 			page 55


 2980      756500
 2981              	.LASF108:
 2982 01f5 6D656D6F 		.ascii	"memory_pool_t\000"
 2982      72795F70 
 2982      6F6F6C5F 
 2982      7400
 2983              	.LASF95:
 2984 0203 735F636E 		.ascii	"s_cnt\000"
 2984      7400
 2985              	.LASF127:
 2986 0209 2E2E2F43 		.ascii	"../ChibiOS/os/rt/src/chmempools.c\000"
 2986      68696269 
 2986      4F532F6F 
 2986      732F7274 
 2986      2F737263 
 2987              	.LASF46:
 2988 022b 63685F74 		.ascii	"ch_thread\000"
 2988      68726561 
 2988      6400
 2989              	.LASF23:
 2990 0235 6D73675F 		.ascii	"msg_t\000"
 2990      7400
 2991              	.LASF72:
 2992 023b 63685F73 		.ascii	"ch_system_t\000"
 2992      79737465 
 2992      6D5F7400 
 2993              	.LASF120:
 2994 0247 6368506F 		.ascii	"chPoolAdd\000"
 2994      6F6C4164 
 2994      6400
 2995              	.LASF19:
 2996 0251 746D6F64 		.ascii	"tmode_t\000"
 2996      655F7400 
 2997              	.LASF123:
 2998 0259 6368506F 		.ascii	"chPoolObjectInit\000"
 2998      6F6C4F62 
 2998      6A656374 
 2998      496E6974 
 2998      00
 2999              	.LASF51:
 3000 026a 63685F72 		.ascii	"ch_ready_list\000"
 3000      65616479 
 3000      5F6C6973 
 3000      7400
 3001              	.LASF24:
 3002 0278 6576656E 		.ascii	"eventmask_t\000"
 3002      746D6173 
 3002      6B5F7400 
 3003              	.LASF7:
 3004 0284 5F5F696E 		.ascii	"__int32_t\000"
 3004      7433325F 
 3004      7400
 3005              	.LASF80:
 3006 028e 73746B61 		.ascii	"stkalign_t\000"
 3006      6C69676E 
 3006      5F7400
 3007              	.LASF38:
ARM GAS  /tmp/ccOMgWpT.s 			page 56


 3008 0299 705F7761 		.ascii	"p_waiting\000"
 3008      6974696E 
 3008      6700
 3009              	.LASF78:
 3010 02a3 73697A65 		.ascii	"sizetype\000"
 3010      74797065 
 3010      00
 3011              	.LASF44:
 3012 02ac 74687265 		.ascii	"thread_reference_t\000"
 3012      61645F72 
 3012      65666572 
 3012      656E6365 
 3012      5F7400
 3013              	.LASF67:
 3014 02bf 63685F76 		.ascii	"ch_virtual_timers_list\000"
 3014      69727475 
 3014      616C5F74 
 3014      696D6572 
 3014      735F6C69 
 3015              	.LASF117:
 3016 02d6 6368506F 		.ascii	"chPoolAllocI\000"
 3016      6F6C416C 
 3016      6C6F6349 
 3016      00
 3017              	.LASF118:
 3018 02e3 6368506F 		.ascii	"chPoolFreeI\000"
 3018      6F6C4672 
 3018      65654900 
 3019              	.LASF68:
 3020 02ef 76745F6C 		.ascii	"vt_lasttime\000"
 3020      61737474 
 3020      696D6500 
 3021              	.LASF33:
 3022 02fb 705F6F6C 		.ascii	"p_older\000"
 3022      64657200 
 3023              	.LASF54:
 3024 0303 725F6374 		.ascii	"r_ctx\000"
 3024      7800
 3025              	.LASF106:
 3026 0309 6D705F6F 		.ascii	"mp_object_size\000"
 3026      626A6563 
 3026      745F7369 
 3026      7A6500
 3027              	.LASF84:
 3028 0318 746D5F63 		.ascii	"tm_calibration_t\000"
 3028      616C6962 
 3028      72617469 
 3028      6F6E5F74 
 3028      00
 3029              	.LASF57:
 3030 0329 725F6375 		.ascii	"r_current\000"
 3030      7272656E 
 3030      7400
 3031              	.LASF56:
 3032 0333 725F6F6C 		.ascii	"r_older\000"
 3032      64657200 
 3033              	.LASF12:
ARM GAS  /tmp/ccOMgWpT.s 			page 57


 3034 033b 5F5F7569 		.ascii	"__uint64_t\000"
 3034      6E743634 
 3034      5F7400
 3035              	.LASF104:
 3036 0346 70685F6E 		.ascii	"ph_next\000"
 3036      65787400 
 3037              	.LASF21:
 3038 034e 74726566 		.ascii	"trefs_t\000"
 3038      735F7400 
 3039              	.LASF59:
 3040 0356 76697274 		.ascii	"virtual_timer_t\000"
 3040      75616C5F 
 3040      74696D65 
 3040      725F7400 
 3041              	.LASF29:
 3042 0366 705F7072 		.ascii	"p_prev\000"
 3042      657600
 3043              	.LASF22:
 3044 036d 74707269 		.ascii	"tprio_t\000"
 3044      6F5F7400 
 3045              	.LASF70:
 3046 0375 63685F73 		.ascii	"ch_system_debug\000"
 3046      79737465 
 3046      6D5F6465 
 3046      62756700 
 3047              	.LASF15:
 3048 0385 696E7433 		.ascii	"int32_t\000"
 3048      325F7400 
 3049              	.LASF4:
 3050 038d 756E7369 		.ascii	"unsigned char\000"
 3050      676E6564 
 3050      20636861 
 3050      7200
 3051              	.LASF41:
 3052 039b 705F6D74 		.ascii	"p_mtxlist\000"
 3052      786C6973 
 3052      7400
 3053              	.LASF5:
 3054 03a5 73686F72 		.ascii	"short int\000"
 3054      7420696E 
 3054      7400
 3055              	.LASF35:
 3056 03af 705F7374 		.ascii	"p_state\000"
 3056      61746500 
 3057              	.LASF53:
 3058 03b7 725F7072 		.ascii	"r_prio\000"
 3058      696F00
 3059              	.LASF92:
 3060 03be 65776D61 		.ascii	"ewmask\000"
 3060      736B00
 3061              	.LASF28:
 3062 03c5 705F6E65 		.ascii	"p_next\000"
 3062      787400
 3063              	.LASF114:
 3064 03cc 5F5F6675 		.ascii	"__func__\000"
 3064      6E635F5F 
 3064      00
ARM GAS  /tmp/ccOMgWpT.s 			page 58


 3065              	.LASF111:
 3066 03d5 63685379 		.ascii	"chSysLock\000"
 3066      734C6F63 
 3066      6B00
 3067              	.LASF73:
 3068 03df 63685F73 		.ascii	"ch_system\000"
 3068      79737465 
 3068      6D00
 3069              	.LASF113:
 3070 03e9 6F626A70 		.ascii	"objp\000"
 3070      00
 3071              	.LASF60:
 3072 03ee 63685F76 		.ascii	"ch_virtual_timer\000"
 3072      69727475 
 3072      616C5F74 
 3072      696D6572 
 3072      00
 3073              	.LASF93:
 3074 03ff 63685F73 		.ascii	"ch_semaphore\000"
 3074      656D6170 
 3074      686F7265 
 3074      00
 3075              	.LASF40:
 3076 040c 705F6570 		.ascii	"p_epending\000"
 3076      656E6469 
 3076      6E6700
 3077              	.LASF16:
 3078 0417 75696E74 		.ascii	"uint32_t\000"
 3078      33325F74 
 3078      00
 3079              	.LASF91:
 3080 0420 77746D74 		.ascii	"wtmtxp\000"
 3080      787000
 3081              	.LASF52:
 3082 0427 725F7175 		.ascii	"r_queue\000"
 3082      65756500 
 3083              	.LASF63:
 3084 042f 76745F64 		.ascii	"vt_delta\000"
 3084      656C7461 
 3084      00
 3085              	.LASF47:
 3086 0438 63685F74 		.ascii	"ch_threads_list\000"
 3086      68726561 
 3086      64735F6C 
 3086      69737400 
 3087              	.LASF10:
 3088 0448 6C6F6E67 		.ascii	"long unsigned int\000"
 3088      20756E73 
 3088      69676E65 
 3088      6420696E 
 3088      7400
 3089              	.LASF100:
 3090 045a 63686172 		.ascii	"char\000"
 3090      00
 3091              	.LASF27:
 3092 045f 74687265 		.ascii	"thread_t\000"
 3092      61645F74 
ARM GAS  /tmp/ccOMgWpT.s 			page 59


 3092      00
 3093              	.LASF126:
 3094 0468 474E5520 		.ascii	"GNU C 4.8.4 20140526 (release) [ARM/embedded-4_8-br"
 3094      4320342E 
 3094      382E3420 
 3094      32303134 
 3094      30353236 
 3095 049b 616E6368 		.ascii	"anch revision 211358] -mcpu=cortex-m4 -mno-thumb-in"
 3095      20726576 
 3095      6973696F 
 3095      6E203231 
 3095      31333538 
 3096 04ce 74657277 		.ascii	"terwork -mthumb -ggdb -O2 -fomit-frame-pointer -fal"
 3096      6F726B20 
 3096      2D6D7468 
 3096      756D6220 
 3096      2D676764 
 3097 0501 69676E2D 		.ascii	"ign-functions=16 -ffunction-sections -fdata-section"
 3097      66756E63 
 3097      74696F6E 
 3097      733D3136 
 3097      202D6666 
 3098 0534 73202D66 		.ascii	"s -fno-common\000"
 3098      6E6F2D63 
 3098      6F6D6D6F 
 3098      6E00
 3099              	.LASF99:
 3100 0542 6D5F6E65 		.ascii	"m_next\000"
 3100      787400
 3101              	.LASF26:
 3102 0549 73797374 		.ascii	"systime_t\000"
 3102      696D655F 
 3102      7400
 3103              	.LASF42:
 3104 0553 705F7265 		.ascii	"p_realprio\000"
 3104      616C7072 
 3104      696F00
 3105              	.LASF58:
 3106 055e 76746675 		.ascii	"vtfunc_t\000"
 3106      6E635F74 
 3106      00
 3107              	.LASF9:
 3108 0567 5F5F7569 		.ascii	"__uint32_t\000"
 3108      6E743332 
 3108      5F7400
 3109              	.LASF115:
 3110 0572 5F5F7365 		.ascii	"__set_BASEPRI\000"
 3110      745F4241 
 3110      53455052 
 3110      4900
 3111              	.LASF71:
 3112 0580 70616E69 		.ascii	"panic_msg\000"
 3112      635F6D73 
 3112      6700
 3113              	.LASF83:
 3114 058a 6F666673 		.ascii	"offset\000"
 3114      657400
ARM GAS  /tmp/ccOMgWpT.s 			page 60


 3115              	.LASF96:
 3116 0591 63685F6D 		.ascii	"ch_mutex\000"
 3116      75746578 
 3116      00
 3117              	.LASF81:
 3118 059a 636F6E74 		.ascii	"context\000"
 3118      65787400 
 3119              	.LASF18:
 3120 05a2 7274636E 		.ascii	"rtcnt_t\000"
 3120      745F7400 
 3121              	.LASF65:
 3122 05aa 76745F70 		.ascii	"vt_par\000"
 3122      617200
 3123              	.LASF48:
 3124 05b1 74687265 		.ascii	"threads_queue_t\000"
 3124      6164735F 
 3124      71756575 
 3124      655F7400 
 3125              	.LASF103:
 3126 05c1 706F6F6C 		.ascii	"pool_header\000"
 3126      5F686561 
 3126      64657200 
 3127              	.LASF37:
 3128 05cd 705F7265 		.ascii	"p_refs\000"
 3128      667300
 3129              	.LASF74:
 3130 05d4 726C6973 		.ascii	"rlist\000"
 3130      7400
 3131              	.LASF14:
 3132 05da 75696E74 		.ascii	"uint8_t\000"
 3132      385F7400 
 3133              	.LASF129:
 3134 05e2 6368506F 		.ascii	"chPoolAlloc\000"
 3134      6F6C416C 
 3134      6C6F6300 
 3135              	.LASF119:
 3136 05ee 6368506F 		.ascii	"chPoolFree\000"
 3136      6F6C4672 
 3136      656500
 3137              	.LASF87:
 3138 05f9 77746F62 		.ascii	"wtobjp\000"
 3138      6A7000
 3139              	.LASF34:
 3140 0600 705F6E61 		.ascii	"p_name\000"
 3140      6D6500
 3141              	.LASF121:
 3142 0607 73697A65 		.ascii	"size\000"
 3142      00
 3143              	.LASF45:
 3144 060c 74687265 		.ascii	"threads_list_t\000"
 3144      6164735F 
 3144      6C697374 
 3144      5F7400
 3145              	.LASF36:
 3146 061b 705F666C 		.ascii	"p_flags\000"
 3146      61677300 
 3147              	.LASF116:
ARM GAS  /tmp/ccOMgWpT.s 			page 61


 3148 0623 63685379 		.ascii	"chSysUnlock\000"
 3148      73556E6C 
 3148      6F636B00 
 3149              	.LASF124:
 3150 062f 6368506F 		.ascii	"chPoolLoadArray\000"
 3150      6F6C4C6F 
 3150      61644172 
 3150      72617900 
 3151              	.LASF98:
 3152 063f 6D5F6F77 		.ascii	"m_owner\000"
 3152      6E657200 
 3153              	.LASF31:
 3154 0647 705F6374 		.ascii	"p_ctx\000"
 3154      7800
 3155              	.LASF64:
 3156 064d 76745F66 		.ascii	"vt_func\000"
 3156      756E6300 
 3157              		.ident	"GCC: (GNU Tools for ARM Embedded Processors) 4.8.4 20140526 (release) [ARM/embedded-4_8-br
ARM GAS  /tmp/ccOMgWpT.s 			page 62


DEFINED SYMBOLS
                            *ABS*:00000000 chmempools.c
     /tmp/ccOMgWpT.s:19     .text.chPoolObjectInit:00000000 $t
     /tmp/ccOMgWpT.s:25     .text.chPoolObjectInit:00000000 chPoolObjectInit
     /tmp/ccOMgWpT.s:47     .text.chPoolLoadArray:00000000 $t
     /tmp/ccOMgWpT.s:53     .text.chPoolLoadArray:00000000 chPoolLoadArray
     /tmp/ccOMgWpT.s:152    .text.chPoolAllocI:00000000 $t
     /tmp/ccOMgWpT.s:158    .text.chPoolAllocI:00000000 chPoolAllocI
     /tmp/ccOMgWpT.s:197    .text.chPoolAlloc:00000000 $t
     /tmp/ccOMgWpT.s:203    .text.chPoolAlloc:00000000 chPoolAlloc
     /tmp/ccOMgWpT.s:310    .text.chPoolFreeI:00000000 $t
     /tmp/ccOMgWpT.s:316    .text.chPoolFreeI:00000000 chPoolFreeI
     /tmp/ccOMgWpT.s:334    .text.chPoolFree:00000000 $t
     /tmp/ccOMgWpT.s:340    .text.chPoolFree:00000000 chPoolFree
                     .debug_frame:00000010 $d

NO UNDEFINED SYMBOLS
