ARM GAS  /tmp/ccOMgWpT.s 			page 1


   1              		.syntax unified
   2              		.cpu cortex-m4
   3              		.fpu softvfp
   4              		.eabi_attribute 20, 1
   5              		.eabi_attribute 21, 1
   6              		.eabi_attribute 23, 3
   7              		.eabi_attribute 24, 1
   8              		.eabi_attribute 25, 1
   9              		.eabi_attribute 26, 1
  10              		.eabi_attribute 30, 2
  11              		.eabi_attribute 34, 1
  12              		.eabi_attribute 18, 4
  13              		.thumb
  14              		.file	"chmempools.c"
  15              		.text
  16              	.Ltext0:
  17              		.cfi_sections	.debug_frame
  18              		.section	.text.chPoolObjectInit,"ax",%progbits
  19              		.align	2
  20              		.p2align 4,,15
  21              		.global	chPoolObjectInit
  22              		.thumb
  23              		.thumb_func
  24              		.type	chPoolObjectInit, %function
  25              	chPoolObjectInit:
  26              	.LFB241:
  27              		.file 1 "../ChibiOS/os/rt/src/chmempools.c"
  28              		.loc 1 75 0
  29              		.cfi_startproc
  30              		@ args = 0, pretend = 0, frame = 0
  31              		@ frame_needed = 0, uses_anonymous_args = 0
  32              		@ link register save eliminated.
  33              	.LVL0:
  34              		.loc 1 79 0
  35 0000 0023     		movs	r3, #0
  36              		.loc 1 80 0
  37 0002 4160     		str	r1, [r0, #4]
  38              		.loc 1 81 0
  39 0004 8260     		str	r2, [r0, #8]
  40              		.loc 1 79 0
  41 0006 0360     		str	r3, [r0]
  42 0008 7047     		bx	lr
  43              		.cfi_endproc
  44              	.LFE241:
  45              		.size	chPoolObjectInit, .-chPoolObjectInit
  46 000a 00BFAFF3 		.section	.text.chPoolLoadArray,"ax",%progbits
  46      0080
  47              		.align	2
  48              		.p2align 4,,15
  49              		.global	chPoolLoadArray
  50              		.thumb
  51              		.thumb_func
  52              		.type	chPoolLoadArray, %function
  53              	chPoolLoadArray:
  54              	.LFB242:
  55              		.loc 1 97 0
  56              		.cfi_startproc
ARM GAS  /tmp/ccOMgWpT.s 			page 2


  57              		@ args = 0, pretend = 0, frame = 0
  58              		@ frame_needed = 0, uses_anonymous_args = 0
  59              		@ link register save eliminated.
  60              	.LVL1:
  61 0000 30B4     		push	{r4, r5}
  62              		.cfi_def_cfa_offset 8
  63              		.cfi_offset 4, -8
  64              		.cfi_offset 5, -4
  65              		.loc 1 101 0
  66 0002 62B1     		cbz	r2, .L2
  67              	.LBB77:
  68              	.LBB78:
  69              	.LBB79:
  70              	.LBB80:
  71              	.LBB81:
  72              	.LBB82:
  73              		.file 2 "../ChibiOS/os/ext/CMSIS/include/core_cmFunc.h"
  74              		.loc 2 548 0
  75 0004 2025     		movs	r5, #32
  76              	.LBE82:
  77              	.LBE81:
  78              	.LBE80:
  79              	.LBE79:
  80              	.LBB86:
  81              	.LBB87:
  82              	.LBB88:
  83              	.LBB89:
  84              	.LBB90:
  85 0006 0024     		movs	r4, #0
  86              	.LVL2:
  87              	.L5:
  88              	.LBE90:
  89              	.LBE89:
  90              	.LBE88:
  91              	.LBE87:
  92              	.LBE86:
  93              	.LBB95:
  94              	.LBB85:
  95              	.LBB84:
  96              	.LBB83:
  97              	@ 548 "../ChibiOS/os/ext/CMSIS/include/core_cmFunc.h" 1
  98 0008 85F31188 		MSR basepri, r5
  99              	@ 0 "" 2
 100              	.LVL3:
 101              		.thumb
 102              	.LBE83:
 103              	.LBE84:
 104              	.LBE85:
 105              	.LBE95:
 106              	.LBB96:
 107              	.LBB97:
 108              		.loc 1 177 0
 109 000c 0368     		ldr	r3, [r0]
 110 000e 0B60     		str	r3, [r1]
 111              		.loc 1 178 0
 112 0010 0160     		str	r1, [r0]
 113              	.LVL4:
ARM GAS  /tmp/ccOMgWpT.s 			page 3


 114              	.LBE97:
 115              	.LBE96:
 116              	.LBB98:
 117              	.LBB94:
 118              	.LBB93:
 119              	.LBB92:
 120              	.LBB91:
 121              		.loc 2 548 0
 122              	@ 548 "../ChibiOS/os/ext/CMSIS/include/core_cmFunc.h" 1
 123 0012 84F31188 		MSR basepri, r4
 124              	@ 0 "" 2
 125              		.thumb
 126              	.LBE91:
 127              	.LBE92:
 128              	.LBE93:
 129              	.LBE94:
 130              	.LBE98:
 131              	.LBE78:
 132              	.LBE77:
 133              		.loc 1 104 0
 134 0016 4368     		ldr	r3, [r0, #4]
 135              		.loc 1 101 0
 136 0018 013A     		subs	r2, r2, #1
 137              	.LVL5:
 138              		.loc 1 104 0
 139 001a 1944     		add	r1, r1, r3
 140              	.LVL6:
 141              		.loc 1 101 0
 142 001c F4D1     		bne	.L5
 143              	.LVL7:
 144              	.L2:
 145              		.loc 1 108 0
 146 001e 30BC     		pop	{r4, r5}
 147 0020 7047     		bx	lr
 148              		.cfi_endproc
 149              	.LFE242:
 150              		.size	chPoolLoadArray, .-chPoolLoadArray
 151 0022 00BFAFF3 		.section	.text.chPoolAllocI,"ax",%progbits
 151      0080AFF3 
 151      0080AFF3 
 151      0080
 152              		.align	2
 153              		.p2align 4,,15
 154              		.global	chPoolAllocI
 155              		.thumb
 156              		.thumb_func
 157              		.type	chPoolAllocI, %function
 158              	chPoolAllocI:
 159              	.LFB243:
 160              		.loc 1 120 0
 161              		.cfi_startproc
 162              		@ args = 0, pretend = 0, frame = 0
 163              		@ frame_needed = 0, uses_anonymous_args = 0
 164              	.LVL8:
 165 0000 08B5     		push	{r3, lr}
 166              		.cfi_def_cfa_offset 8
 167              		.cfi_offset 3, -8
ARM GAS  /tmp/ccOMgWpT.s 			page 4


 168              		.cfi_offset 14, -4
 169              		.loc 1 120 0
 170 0002 0346     		mov	r3, r0
 171              		.loc 1 126 0
 172 0004 0068     		ldr	r0, [r0]
 173              	.LVL9:
 174              		.loc 1 128 0
 175 0006 10B1     		cbz	r0, .L12
 176              		.loc 1 129 0
 177 0008 0268     		ldr	r2, [r0]
 178 000a 1A60     		str	r2, [r3]
 179 000c 08BD     		pop	{r3, pc}
 180              	.LVL10:
 181              	.L12:
 182              		.loc 1 131 0
 183 000e 9A68     		ldr	r2, [r3, #8]
 184 0010 0AB1     		cbz	r2, .L13
 185              		.loc 1 132 0
 186 0012 5868     		ldr	r0, [r3, #4]
 187              	.LVL11:
 188 0014 9047     		blx	r2
 189              	.LVL12:
 190              	.L13:
 191              		.loc 1 137 0
 192 0016 08BD     		pop	{r3, pc}
 193              		.cfi_endproc
 194              	.LFE243:
 195              		.size	chPoolAllocI, .-chPoolAllocI
 196 0018 AFF30080 		.section	.text.chPoolAlloc,"ax",%progbits
 196      AFF30080 
 197              		.align	2
 198              		.p2align 4,,15
 199              		.global	chPoolAlloc
 200              		.thumb
 201              		.thumb_func
 202              		.type	chPoolAlloc, %function
 203              	chPoolAlloc:
 204              	.LFB244:
 205              		.loc 1 149 0
 206              		.cfi_startproc
 207              		@ args = 0, pretend = 0, frame = 0
 208              		@ frame_needed = 0, uses_anonymous_args = 0
 209              	.LVL13:
 210 0000 08B5     		push	{r3, lr}
 211              		.cfi_def_cfa_offset 8
 212              		.cfi_offset 3, -8
 213              		.cfi_offset 14, -4
 214              	.LBB99:
 215              	.LBB100:
 216              	.LBB101:
 217              	.LBB102:
 218              		.loc 2 548 0
 219 0002 2022     		movs	r2, #32
 220              	.LBE102:
 221              	.LBE101:
 222              	.LBE100:
 223              	.LBE99:
ARM GAS  /tmp/ccOMgWpT.s 			page 5


 224              		.loc 1 149 0
 225 0004 0346     		mov	r3, r0
 226              	.LBB106:
 227              	.LBB105:
 228              	.LBB104:
 229              	.LBB103:
 230              		.loc 2 548 0
 231              	@ 548 "../ChibiOS/os/ext/CMSIS/include/core_cmFunc.h" 1
 232 0006 82F31188 		MSR basepri, r2
 233              	@ 0 "" 2
 234              	.LVL14:
 235              		.thumb
 236              	.LBE103:
 237              	.LBE104:
 238              	.LBE105:
 239              	.LBE106:
 240              	.LBB107:
 241              	.LBB108:
 242              		.loc 1 126 0
 243 000a 0068     		ldr	r0, [r0]
 244              	.LVL15:
 245              		.loc 1 128 0
 246 000c 28B1     		cbz	r0, .L18
 247              		.loc 1 129 0
 248 000e 0268     		ldr	r2, [r0]
 249 0010 1A60     		str	r2, [r3]
 250              	.L19:
 251              	.LVL16:
 252              	.LBE108:
 253              	.LBE107:
 254              	.LBB110:
 255              	.LBB111:
 256              	.LBB112:
 257              	.LBB113:
 258              	.LBB114:
 259              		.loc 2 548 0
 260 0012 0023     		movs	r3, #0
 261              	.LVL17:
 262              	@ 548 "../ChibiOS/os/ext/CMSIS/include/core_cmFunc.h" 1
 263 0014 83F31188 		MSR basepri, r3
 264              	@ 0 "" 2
 265              		.thumb
 266              	.LBE114:
 267              	.LBE113:
 268              	.LBE112:
 269              	.LBE111:
 270              	.LBE110:
 271              		.loc 1 157 0
 272 0018 08BD     		pop	{r3, pc}
 273              	.LVL18:
 274              	.L18:
 275              	.LBB119:
 276              	.LBB109:
 277              		.loc 1 131 0
 278 001a 9A68     		ldr	r2, [r3, #8]
 279 001c 002A     		cmp	r2, #0
 280 001e F8D0     		beq	.L19
ARM GAS  /tmp/ccOMgWpT.s 			page 6


 281              		.loc 1 132 0
 282 0020 5868     		ldr	r0, [r3, #4]
 283              	.LVL19:
 284 0022 9047     		blx	r2
 285              	.LVL20:
 286              	.LBE109:
 287              	.LBE119:
 288              	.LBB120:
 289              	.LBB118:
 290              	.LBB117:
 291              	.LBB116:
 292              	.LBB115:
 293              		.loc 2 548 0
 294 0024 0023     		movs	r3, #0
 295              	@ 548 "../ChibiOS/os/ext/CMSIS/include/core_cmFunc.h" 1
 296 0026 83F31188 		MSR basepri, r3
 297              	@ 0 "" 2
 298              		.thumb
 299              	.LBE115:
 300              	.LBE116:
 301              	.LBE117:
 302              	.LBE118:
 303              	.LBE120:
 304              		.loc 1 157 0
 305 002a 08BD     		pop	{r3, pc}
 306              		.cfi_endproc
 307              	.LFE244:
 308              		.size	chPoolAlloc, .-chPoolAlloc
 309 002c AFF30080 		.section	.text.chPoolFreeI,"ax",%progbits
 310              		.align	2
 311              		.p2align 4,,15
 312              		.global	chPoolFreeI
 313              		.thumb
 314              		.thumb_func
 315              		.type	chPoolFreeI, %function
 316              	chPoolFreeI:
 317              	.LFB245:
 318              		.loc 1 171 0
 319              		.cfi_startproc
 320              		@ args = 0, pretend = 0, frame = 0
 321              		@ frame_needed = 0, uses_anonymous_args = 0
 322              		@ link register save eliminated.
 323              	.LVL21:
 324              		.loc 1 177 0
 325 0000 0368     		ldr	r3, [r0]
 326 0002 0B60     		str	r3, [r1]
 327              		.loc 1 178 0
 328 0004 0160     		str	r1, [r0]
 329 0006 7047     		bx	lr
 330              		.cfi_endproc
 331              	.LFE245:
 332              		.size	chPoolFreeI, .-chPoolFreeI
 333 0008 AFF30080 		.section	.text.chPoolFree,"ax",%progbits
 333      AFF30080 
 334              		.align	2
 335              		.p2align 4,,15
 336              		.global	chPoolFree
ARM GAS  /tmp/ccOMgWpT.s 			page 7


 337              		.thumb
 338              		.thumb_func
 339              		.type	chPoolFree, %function
 340              	chPoolFree:
 341              	.LFB246:
 342              		.loc 1 193 0
 343              		.cfi_startproc
 344              		@ args = 0, pretend = 0, frame = 0
 345              		@ frame_needed = 0, uses_anonymous_args = 0
 346              		@ link register save eliminated.
 347              	.LVL22:
 348              	.LBB121:
 349              	.LBB122:
 350              	.LBB123:
 351              	.LBB124:
 352              		.loc 2 548 0
 353 0000 2023     		movs	r3, #32
 354              	@ 548 "../ChibiOS/os/ext/CMSIS/include/core_cmFunc.h" 1
 355 0002 83F31188 		MSR basepri, r3
 356              	@ 0 "" 2
 357              	.LVL23:
 358              		.thumb
 359              	.LBE124:
 360              	.LBE123:
 361              	.LBE122:
 362              	.LBE121:
 363              	.LBB125:
 364              	.LBB126:
 365              		.loc 1 177 0
 366 0006 0368     		ldr	r3, [r0]
 367 0008 0B60     		str	r3, [r1]
 368              	.LBE126:
 369              	.LBE125:
 370              	.LBB128:
 371              	.LBB129:
 372              	.LBB130:
 373              	.LBB131:
 374              	.LBB132:
 375              		.loc 2 548 0
 376 000a 0023     		movs	r3, #0
 377              	.LBE132:
 378              	.LBE131:
 379              	.LBE130:
 380              	.LBE129:
 381              	.LBE128:
 382              	.LBB137:
 383              	.LBB127:
 384              		.loc 1 178 0
 385 000c 0160     		str	r1, [r0]
 386              	.LVL24:
 387              	.LBE127:
 388              	.LBE137:
 389              	.LBB138:
 390              	.LBB136:
 391              	.LBB135:
 392              	.LBB134:
 393              	.LBB133:
ARM GAS  /tmp/ccOMgWpT.s 			page 8


 394              		.loc 2 548 0
 395              	@ 548 "../ChibiOS/os/ext/CMSIS/include/core_cmFunc.h" 1
 396 000e 83F31188 		MSR basepri, r3
 397              	@ 0 "" 2
 398              		.thumb
 399 0012 7047     		bx	lr
 400              	.LBE133:
 401              	.LBE134:
 402              	.LBE135:
 403              	.LBE136:
 404              	.LBE138:
 405              		.cfi_endproc
 406              	.LFE246:
 407              		.size	chPoolFree, .-chPoolFree
 408 0014 AFF30080 		.text
 408      AFF30080 
 408      AFF30080 
 409              	.Letext0:
 410              		.file 3 "/nfs/nfs5/home/research/hardware/arm2/gcc-arm-embedded/gcc-arm-none-eabi-4_8-2014q2/lib/g
 411              		.file 4 "/nfs/nfs5/home/research/hardware/arm2/gcc-arm-embedded/gcc-arm-none-eabi-4_8-2014q2/arm-n
 412              		.file 5 "/nfs/nfs5/home/research/hardware/arm2/gcc-arm-embedded/gcc-arm-none-eabi-4_8-2014q2/arm-n
 413              		.file 6 "../ChibiOS/os/rt/ports/ARMCMx/compilers/GCC/chtypes.h"
 414              		.file 7 "../ChibiOS/os/rt/include/chsystypes.h"
 415              		.file 8 "../ChibiOS/os/rt/include/chschd.h"
 416              		.file 9 "../ChibiOS/os/rt/ports/ARMCMx/chcore.h"
 417              		.file 10 "../ChibiOS/os/rt/ports/ARMCMx/chcore_v7m.h"
 418              		.file 11 "../ChibiOS/os/rt/include/chtm.h"
 419              		.file 12 "../ChibiOS/os/rt/include/chsem.h"
 420              		.file 13 "../ChibiOS/os/rt/include/chmtx.h"
 421              		.file 14 "../ChibiOS/os/rt/include/chmemcore.h"
 422              		.file 15 "../ChibiOS/os/rt/include/chmempools.h"
 423              		.file 16 "../ChibiOS/os/rt/include/chsys.h"
 424              		.file 17 "../ChibiOS/os/ext/CMSIS/include/core_cm4.h"