ARM GAS  /tmp/ccicrD5g.s 			page 1


   1              		.syntax unified
   2              		.cpu cortex-m4
   3              		.fpu softvfp
   4              		.eabi_attribute 20, 1
   5              		.eabi_attribute 21, 1
   6              		.eabi_attribute 23, 3
   7              		.eabi_attribute 24, 1
   8              		.eabi_attribute 25, 1
   9              		.eabi_attribute 26, 1
  10              		.eabi_attribute 30, 2
  11              		.eabi_attribute 34, 1
  12              		.eabi_attribute 18, 4
  13              		.thumb
  14              		.file	"chschd.c"
  15              		.text
  16              	.Ltext0:
  17              		.cfi_sections	.debug_frame
  18              		.section	.text.wakeup,"ax",%progbits
  19              		.align	2
  20              		.p2align 4,,15
  21              		.thumb
  22              		.thumb_func
  23              		.type	wakeup, %function
  24              	wakeup:
  25              	.LFB244:
  26              		.file 1 "../ChibiOS/os/rt/src/chschd.c"
  27              		.loc 1 275 0
  28              		.cfi_startproc
  29              		@ args = 0, pretend = 0, frame = 0
  30              		@ frame_needed = 0, uses_anonymous_args = 0
  31              		@ link register save eliminated.
  32              	.LVL0:
  33 0000 10B4     		push	{r4}
  34              		.cfi_def_cfa_offset 4
  35              		.cfi_offset 4, -4
  36              	.LBB68:
  37              	.LBB69:
  38              	.LBB70:
  39              	.LBB71:
  40              	.LBB72:
  41              		.file 2 "../ChibiOS/os/ext/CMSIS/include/core_cmFunc.h"
  42              		.loc 2 548 0
  43 0002 2023     		movs	r3, #32
  44              	@ 548 "../ChibiOS/os/ext/CMSIS/include/core_cmFunc.h" 1
  45 0004 83F31188 		MSR basepri, r3
  46              	@ 0 "" 2
  47              		.thumb
  48              	.LBE72:
  49              	.LBE71:
  50              	.LBE70:
  51              	.LBE69:
  52              	.LBE68:
  53              		.loc 1 279 0
  54 0008 037F     		ldrb	r3, [r0, #28]	@ zero_extendqisi2
  55 000a 072B     		cmp	r3, #7
  56 000c 0ED8     		bhi	.L2
  57 000e DFE803F0 		tbb	[pc, r3]
ARM GAS  /tmp/ccicrD5g.s 			page 2


  58              	.L4:
  59 0012 27       		.byte	(.L3-.L4)/2
  60 0013 0D       		.byte	(.L2-.L4)/2
  61 0014 0D       		.byte	(.L2-.L4)/2
  62 0015 23       		.byte	(.L5-.L4)/2
  63 0016 08       		.byte	(.L6-.L4)/2
  64 0017 04       		.byte	(.L7-.L4)/2
  65 0018 0D       		.byte	(.L2-.L4)/2
  66 0019 08       		.byte	(.L6-.L4)/2
  67              		.p2align 1
  68              	.L7:
  69              		.loc 1 290 0
  70 001a 036A     		ldr	r3, [r0, #32]
  71              	.LVL1:
  72              	.LBB73:
  73              	.LBB74:
  74              		.file 3 "../ChibiOS/os/rt/include/chsem.h"
  75              		.loc 3 138 0
  76 001c 9A68     		ldr	r2, [r3, #8]
  77 001e 0132     		adds	r2, r2, #1
  78 0020 9A60     		str	r2, [r3, #8]
  79              	.LVL2:
  80              	.L6:
  81              	.LBE74:
  82              	.LBE73:
  83              	.LBB75:
  84              	.LBB76:
  85              		.file 4 "../ChibiOS/os/rt/include/chschd.h"
  86              		.loc 4 693 0
  87 0022 90E80C00 		ldmia	r0, {r2, r3}
  88 0026 1A60     		str	r2, [r3]
  89              		.loc 4 694 0
  90 0028 0268     		ldr	r2, [r0]
  91 002a 5360     		str	r3, [r2, #4]
  92              	.LVL3:
  93              	.L2:
  94              	.LBE76:
  95              	.LBE75:
  96              		.loc 1 304 0
  97 002c 4FF0FF34 		mov	r4, #-1
  98              	.LBB77:
  99              	.LBB78:
 100              		.loc 1 227 0
 101 0030 0022     		movs	r2, #0
 102 0032 8168     		ldr	r1, [r0, #8]
 103              		.loc 1 228 0
 104 0034 0D4B     		ldr	r3, .L12
 105              	.LBE78:
 106              	.LBE77:
 107              		.loc 1 304 0
 108 0036 0462     		str	r4, [r0, #32]
 109              	.LVL4:
 110              	.LBB81:
 111              	.LBB79:
 112              		.loc 1 227 0
 113 0038 0277     		strb	r2, [r0, #28]
 114              	.LVL5:
ARM GAS  /tmp/ccicrD5g.s 			page 3


 115              	.L10:
 116              		.loc 1 230 0
 117 003a 1B68     		ldr	r3, [r3]
 118              	.LVL6:
 119              		.loc 1 231 0
 120 003c 9A68     		ldr	r2, [r3, #8]
 121 003e 8A42     		cmp	r2, r1
 122 0040 FBD2     		bcs	.L10
 123              		.loc 1 234 0
 124 0042 5A68     		ldr	r2, [r3, #4]
 125 0044 4260     		str	r2, [r0, #4]
 126              		.loc 1 233 0
 127 0046 0360     		str	r3, [r0]
 128              	.LBE79:
 129              	.LBE81:
 130              	.LBB82:
 131              	.LBB83:
 132              	.LBB84:
 133              	.LBB85:
 134              	.LBB86:
 135              		.loc 2 548 0
 136 0048 0021     		movs	r1, #0
 137              	.LBE86:
 138              	.LBE85:
 139              	.LBE84:
 140              	.LBE83:
 141              	.LBE82:
 142              	.LBB91:
 143              	.LBB80:
 144              		.loc 1 235 0
 145 004a 1060     		str	r0, [r2]
 146              		.loc 1 236 0
 147 004c 5860     		str	r0, [r3, #4]
 148              	.LVL7:
 149              	.LBE80:
 150              	.LBE91:
 151              	.LBB92:
 152              	.LBB90:
 153              	.LBB89:
 154              	.LBB88:
 155              	.LBB87:
 156              		.loc 2 548 0
 157              	@ 548 "../ChibiOS/os/ext/CMSIS/include/core_cmFunc.h" 1
 158 004e 81F31188 		MSR basepri, r1
 159              	@ 0 "" 2
 160              		.thumb
 161              	.LBE87:
 162              	.LBE88:
 163              	.LBE89:
 164              	.LBE90:
 165              	.LBE92:
 166              		.loc 1 307 0
 167 0052 5DF8044B 		ldr	r4, [sp], #4
 168 0056 7047     		bx	lr
 169              	.LVL8:
 170              	.L5:
 171              		.loc 1 286 0
ARM GAS  /tmp/ccicrD5g.s 			page 4


 172 0058 036A     		ldr	r3, [r0, #32]
 173 005a 0022     		movs	r2, #0
 174 005c 1A60     		str	r2, [r3]
 175              		.loc 1 287 0
 176 005e E5E7     		b	.L2
 177              	.L3:
 178              	.LVL9:
 179              	.LBB93:
 180              	.LBB94:
 181              	.LBB95:
 182              	.LBB96:
 183              	.LBB97:
 184              		.loc 2 548 0
 185 0060 0023     		movs	r3, #0
 186              	@ 548 "../ChibiOS/os/ext/CMSIS/include/core_cmFunc.h" 1
 187 0062 83F31188 		MSR basepri, r3
 188              	@ 0 "" 2
 189              		.thumb
 190              	.LBE97:
 191              	.LBE96:
 192              	.LBE95:
 193              	.LBE94:
 194              	.LBE93:
 195              		.loc 1 307 0
 196 0066 5DF8044B 		ldr	r4, [sp], #4
 197 006a 7047     		bx	lr
 198              	.L13:
 199              		.align	2
 200              	.L12:
 201 006c 00000000 		.word	.LANCHOR0
 202              		.cfi_endproc
 203              	.LFE244:
 204              		.size	wakeup, .-wakeup
 205              		.section	.text._scheduler_init,"ax",%progbits
 206              		.align	2
 207              		.p2align 4,,15
 208              		.global	_scheduler_init
 209              		.thumb
 210              		.thumb_func
 211              		.type	_scheduler_init, %function
 212              	_scheduler_init:
 213              	.LFB241:
 214              		.loc 1 65 0
 215              		.cfi_startproc
 216              		@ args = 0, pretend = 0, frame = 0
 217              		@ frame_needed = 0, uses_anonymous_args = 0
 218              		@ link register save eliminated.
 219              	.LVL10:
 220              	.LBB98:
 221              	.LBB99:
 222              		.loc 4 606 0
 223 0000 034B     		ldr	r3, .L15
 224              	.LBE99:
 225              	.LBE98:
 226              		.loc 1 68 0
 227 0002 0022     		movs	r2, #0
 228              	.LBB101:
ARM GAS  /tmp/ccicrD5g.s 			page 5


 229              	.LBB100:
 230              		.loc 4 606 0
 231 0004 1B60     		str	r3, [r3]
 232              		.loc 4 607 0
 233 0006 5B60     		str	r3, [r3, #4]
 234              	.LBE100:
 235              	.LBE101:
 236              		.loc 1 70 0
 237 0008 1B61     		str	r3, [r3, #16]
 238              		.loc 1 71 0
 239 000a 5B61     		str	r3, [r3, #20]
 240              		.loc 1 68 0
 241 000c 9A60     		str	r2, [r3, #8]
 242 000e 7047     		bx	lr
 243              	.L16:
 244              		.align	2
 245              	.L15:
 246 0010 00000000 		.word	.LANCHOR0
 247              		.cfi_endproc
 248              	.LFE241:
 249              		.size	_scheduler_init, .-_scheduler_init
 250 0014 AFF30080 		.section	.text.chSchReadyI,"ax",%progbits
 250      AFF30080 
 250      AFF30080 
 251              		.align	2
 252              		.p2align 4,,15
 253              		.global	chSchReadyI
 254              		.thumb
 255              		.thumb_func
 256              		.type	chSchReadyI, %function
 257              	chSchReadyI:
 258              	.LFB242:
 259              		.loc 1 218 0
 260              		.cfi_startproc
 261              		@ args = 0, pretend = 0, frame = 0
 262              		@ frame_needed = 0, uses_anonymous_args = 0
 263              		@ link register save eliminated.
 264              	.LVL11:
 265              		.loc 1 227 0
 266 0000 0022     		movs	r2, #0
 267 0002 8168     		ldr	r1, [r0, #8]
 268              		.loc 1 228 0
 269 0004 084B     		ldr	r3, .L20
 270              		.loc 1 218 0
 271 0006 10B4     		push	{r4}
 272              		.cfi_def_cfa_offset 4
 273              		.cfi_offset 4, -4
 274              		.loc 1 218 0
 275 0008 0446     		mov	r4, r0
 276              		.loc 1 227 0
 277 000a 0277     		strb	r2, [r0, #28]
 278              	.LVL12:
 279              	.L19:
 280              		.loc 1 230 0 discriminator 1
 281 000c 1B68     		ldr	r3, [r3]
 282              	.LVL13:
 283              		.loc 1 231 0 discriminator 1
ARM GAS  /tmp/ccicrD5g.s 			page 6


 284 000e 9A68     		ldr	r2, [r3, #8]
 285 0010 8A42     		cmp	r2, r1
 286 0012 FBD2     		bcs	.L19
 287              		.loc 1 234 0
 288 0014 5A68     		ldr	r2, [r3, #4]
 289 0016 6260     		str	r2, [r4, #4]
 290              		.loc 1 233 0
 291 0018 2360     		str	r3, [r4]
 292              		.loc 1 239 0
 293 001a 2046     		mov	r0, r4
 294              	.LVL14:
 295              		.loc 1 235 0
 296 001c 1460     		str	r4, [r2]
 297              		.loc 1 236 0
 298 001e 5C60     		str	r4, [r3, #4]
 299              		.loc 1 239 0
 300 0020 5DF8044B 		ldr	r4, [sp], #4
 301              	.LVL15:
 302 0024 7047     		bx	lr
 303              	.L21:
 304 0026 00BF     		.align	2
 305              	.L20:
 306 0028 00000000 		.word	.LANCHOR0
 307              		.cfi_endproc
 308              	.LFE242:
 309              		.size	chSchReadyI, .-chSchReadyI
 310 002c AFF30080 		.section	.text.chSchGoSleepS,"ax",%progbits
 311              		.align	2
 312              		.p2align 4,,15
 313              		.global	chSchGoSleepS
 314              		.thumb
 315              		.thumb_func
 316              		.type	chSchGoSleepS, %function
 317              	chSchGoSleepS:
 318              	.LFB243:
 319              		.loc 1 250 0
 320              		.cfi_startproc
 321              		@ args = 0, pretend = 0, frame = 0
 322              		@ frame_needed = 0, uses_anonymous_args = 0
 323              		@ link register save eliminated.
 324              	.LVL16:
 325              		.loc 1 255 0
 326 0000 074B     		ldr	r3, .L23
 327              		.loc 1 250 0
 328 0002 30B4     		push	{r4, r5}
 329              		.cfi_def_cfa_offset 8
 330              		.cfi_offset 4, -8
 331              		.cfi_offset 5, -4
 332              	.LBB102:
 333              	.LBB103:
 334              		.loc 4 674 0
 335 0004 1A68     		ldr	r2, [r3]
 336              	.LBE103:
 337              	.LBE102:
 338              		.loc 1 255 0
 339 0006 9969     		ldr	r1, [r3, #24]
 340              	.LVL17:
ARM GAS  /tmp/ccicrD5g.s 			page 7


 341              	.LBB107:
 342              	.LBB104:
 343              		.loc 4 676 0
 344 0008 1468     		ldr	r4, [r2]
 345              	.LBE104:
 346              	.LBE107:
 347              		.loc 1 256 0
 348 000a 0877     		strb	r0, [r1, #28]
 349              	.LVL18:
 350              		.loc 1 268 0
 351 000c 0125     		movs	r5, #1
 352              	.LBB108:
 353              	.LBB105:
 354              		.loc 4 677 0
 355 000e 6360     		str	r3, [r4, #4]
 356              	.LBE105:
 357              	.LBE108:
 358              		.loc 1 268 0
 359 0010 1577     		strb	r5, [r2, #28]
 360              	.LBB109:
 361              	.LBB106:
 362              		.loc 4 676 0
 363 0012 1C60     		str	r4, [r3]
 364              	.LBE106:
 365              	.LBE109:
 366              		.loc 1 269 0
 367 0014 1046     		mov	r0, r2
 368              	.LVL19:
 369              		.loc 1 270 0
 370 0016 30BC     		pop	{r4, r5}
 371              		.loc 1 262 0
 372 0018 9A61     		str	r2, [r3, #24]
 373              		.loc 1 269 0
 374 001a FFF7FEBF 		b	_port_switch
 375              	.LVL20:
 376              	.L24:
 377 001e 00BF     		.align	2
 378              	.L23:
 379 0020 00000000 		.word	.LANCHOR0
 380              		.cfi_endproc
 381              	.LFE243:
 382              		.size	chSchGoSleepS, .-chSchGoSleepS
 383 0024 AFF30080 		.section	.text.chSchGoSleepTimeoutS,"ax",%progbits
 383      AFF30080 
 383      AFF30080 
 384              		.align	2
 385              		.p2align 4,,15
 386              		.global	chSchGoSleepTimeoutS
 387              		.thumb
 388              		.thumb_func
 389              		.type	chSchGoSleepTimeoutS, %function
 390              	chSchGoSleepTimeoutS:
 391              	.LFB245:
 392              		.loc 1 330 0
 393              		.cfi_startproc
 394              		@ args = 0, pretend = 0, frame = 24
 395              		@ frame_needed = 0, uses_anonymous_args = 0
ARM GAS  /tmp/ccicrD5g.s 			page 8


 396              	.LVL21:
 397 0000 30B5     		push	{r4, r5, lr}
 398              		.cfi_def_cfa_offset 12
 399              		.cfi_offset 4, -12
 400              		.cfi_offset 5, -8
 401              		.cfi_offset 14, -4
 402              		.loc 1 334 0
 403 0002 4B1C     		adds	r3, r1, #1
 404              		.loc 1 330 0
 405 0004 87B0     		sub	sp, sp, #28
 406              		.cfi_def_cfa_offset 40
 407              		.loc 1 330 0
 408 0006 0546     		mov	r5, r0
 409              		.loc 1 334 0
 410 0008 11D0     		beq	.L26
 411              	.LBB110:
 412              		.loc 1 337 0
 413 000a 0C4C     		ldr	r4, .L32
 414 000c 0C4A     		ldr	r2, .L32+4
 415 000e A369     		ldr	r3, [r4, #24]
 416 0010 01A8     		add	r0, sp, #4
 417              	.LVL22:
 418 0012 FFF7FEFF 		bl	chVTDoSetI
 419              	.LVL23:
 420              		.loc 1 338 0
 421 0016 2846     		mov	r0, r5
 422 0018 FFF7FEFF 		bl	chSchGoSleepS
 423              	.LVL24:
 424              		.loc 1 339 0
 425 001c 049B     		ldr	r3, [sp, #16]
 426 001e 13B1     		cbz	r3, .L28
 427              		.loc 1 340 0
 428 0020 01A8     		add	r0, sp, #4
 429              	.LVL25:
 430 0022 FFF7FEFF 		bl	chVTDoResetI
 431              	.LVL26:
 432              	.L28:
 433              	.LBE110:
 434              		.loc 1 347 0
 435 0026 A369     		ldr	r3, [r4, #24]
 436              		.loc 1 348 0
 437 0028 186A     		ldr	r0, [r3, #32]
 438 002a 07B0     		add	sp, sp, #28
 439              		@ sp needed
 440 002c 30BD     		pop	{r4, r5, pc}
 441              	.LVL27:
 442              	.L26:
 443 002e 034C     		ldr	r4, .L32
 444              		.loc 1 344 0
 445 0030 FFF7FEFF 		bl	chSchGoSleepS
 446              	.LVL28:
 447              		.loc 1 347 0
 448 0034 A369     		ldr	r3, [r4, #24]
 449              		.loc 1 348 0
 450 0036 186A     		ldr	r0, [r3, #32]
 451 0038 07B0     		add	sp, sp, #28
 452              		@ sp needed
ARM GAS  /tmp/ccicrD5g.s 			page 9


 453 003a 30BD     		pop	{r4, r5, pc}
 454              	.L33:
 455              		.align	2
 456              	.L32:
 457 003c 00000000 		.word	.LANCHOR0
 458 0040 00000000 		.word	wakeup
 459              		.cfi_endproc
 460              	.LFE245:
 461              		.size	chSchGoSleepTimeoutS, .-chSchGoSleepTimeoutS
 462 0044 AFF30080 		.section	.text.chSchWakeupS,"ax",%progbits
 462      AFF30080 
 462      AFF30080 
 463              		.align	2
 464              		.p2align 4,,15
 465              		.global	chSchWakeupS
 466              		.thumb
 467              		.thumb_func
 468              		.type	chSchWakeupS, %function
 469              	chSchWakeupS:
 470              	.LFB246:
 471              		.loc 1 367 0
 472              		.cfi_startproc
 473              		@ args = 0, pretend = 0, frame = 0
 474              		@ frame_needed = 0, uses_anonymous_args = 0
 475              		@ link register save eliminated.
 476              	.LVL29:
 477              		.loc 1 383 0
 478 0000 DFF858C0 		ldr	ip, .L42
 479              		.loc 1 367 0
 480 0004 F0B4     		push	{r4, r5, r6, r7}
 481              		.cfi_def_cfa_offset 16
 482              		.cfi_offset 4, -16
 483              		.cfi_offset 5, -12
 484              		.cfi_offset 6, -8
 485              		.cfi_offset 7, -4
 486              		.loc 1 383 0
 487 0006 DCF81870 		ldr	r7, [ip, #24]
 488 000a 8568     		ldr	r5, [r0, #8]
 489 000c BC68     		ldr	r4, [r7, #8]
 490              		.loc 1 377 0
 491 000e 0162     		str	r1, [r0, #32]
 492              		.loc 1 383 0
 493 0010 A542     		cmp	r5, r4
 494              		.loc 1 367 0
 495 0012 0646     		mov	r6, r0
 496              		.loc 1 383 0
 497 0014 0DD8     		bhi	.L35
 498              	.LVL30:
 499              	.LBB111:
 500              	.LBB112:
 501              		.loc 1 227 0
 502 0016 0022     		movs	r2, #0
 503              		.loc 1 228 0
 504 0018 6346     		mov	r3, ip
 505              		.loc 1 227 0
 506 001a 0277     		strb	r2, [r0, #28]
 507              	.LVL31:
ARM GAS  /tmp/ccicrD5g.s 			page 10


 508              	.L37:
 509              		.loc 1 230 0
 510 001c 1B68     		ldr	r3, [r3]
 511              	.LVL32:
 512              		.loc 1 231 0
 513 001e 9A68     		ldr	r2, [r3, #8]
 514 0020 9542     		cmp	r5, r2
 515 0022 FBD9     		bls	.L37
 516              		.loc 1 234 0
 517 0024 5A68     		ldr	r2, [r3, #4]
 518 0026 7260     		str	r2, [r6, #4]
 519              		.loc 1 233 0
 520 0028 3360     		str	r3, [r6]
 521              		.loc 1 235 0
 522 002a 1660     		str	r6, [r2]
 523              		.loc 1 236 0
 524 002c 5E60     		str	r6, [r3, #4]
 525              	.LBE112:
 526              	.LBE111:
 527              		.loc 1 397 0
 528 002e F0BC     		pop	{r4, r5, r6, r7}
 529 0030 7047     		bx	lr
 530              	.LVL33:
 531              	.L35:
 532              	.LBB113:
 533              	.LBB114:
 534              	.LBB115:
 535              		.loc 1 227 0
 536 0032 0023     		movs	r3, #0
 537 0034 3B77     		strb	r3, [r7, #28]
 538              	.LVL34:
 539              		.loc 1 228 0
 540 0036 6346     		mov	r3, ip
 541              	.LVL35:
 542              	.L40:
 543              		.loc 1 230 0
 544 0038 1B68     		ldr	r3, [r3]
 545              	.LVL36:
 546              		.loc 1 231 0
 547 003a 9A68     		ldr	r2, [r3, #8]
 548 003c 9442     		cmp	r4, r2
 549 003e FBD9     		bls	.L40
 550              		.loc 1 234 0
 551 0040 5A68     		ldr	r2, [r3, #4]
 552 0042 7A60     		str	r2, [r7, #4]
 553              	.LBE115:
 554              	.LBE114:
 555              		.loc 1 394 0
 556 0044 0124     		movs	r4, #1
 557              	.LBB117:
 558              	.LBB116:
 559              		.loc 1 233 0
 560 0046 3B60     		str	r3, [r7]
 561              		.loc 1 235 0
 562 0048 1760     		str	r7, [r2]
 563              		.loc 1 236 0
 564 004a 5F60     		str	r7, [r3, #4]
ARM GAS  /tmp/ccicrD5g.s 			page 11


 565              	.LBE116:
 566              	.LBE117:
 567              		.loc 1 394 0
 568 004c 3477     		strb	r4, [r6, #28]
 569              		.loc 1 395 0
 570 004e 3946     		mov	r1, r7
 571              	.LVL37:
 572 0050 3046     		mov	r0, r6
 573              	.LVL38:
 574              		.loc 1 388 0
 575 0052 CCF81860 		str	r6, [ip, #24]
 576              	.LBE113:
 577              		.loc 1 397 0
 578 0056 F0BC     		pop	{r4, r5, r6, r7}
 579              	.LVL39:
 580              	.LBB118:
 581              		.loc 1 395 0
 582 0058 FFF7FEBF 		b	_port_switch
 583              	.LVL40:
 584              	.L43:
 585              		.align	2
 586              	.L42:
 587 005c 00000000 		.word	.LANCHOR0
 588              	.LBE118:
 589              		.cfi_endproc
 590              	.LFE246:
 591              		.size	chSchWakeupS, .-chSchWakeupS
 592              		.section	.text.chSchIsPreemptionRequired,"ax",%progbits
 593              		.align	2
 594              		.p2align 4,,15
 595              		.global	chSchIsPreemptionRequired
 596              		.thumb
 597              		.thumb_func
 598              		.type	chSchIsPreemptionRequired, %function
 599              	chSchIsPreemptionRequired:
 600              	.LFB248:
 601              		.loc 1 428 0
 602              		.cfi_startproc
 603              		@ args = 0, pretend = 0, frame = 0
 604              		@ frame_needed = 0, uses_anonymous_args = 0
 605              		@ link register save eliminated.
 606              	.LVL41:
 607              		.loc 1 429 0
 608 0000 044B     		ldr	r3, .L45
 609 0002 1A68     		ldr	r2, [r3]
 610              		.loc 1 430 0
 611 0004 9B69     		ldr	r3, [r3, #24]
 612              		.loc 1 441 0
 613 0006 9068     		ldr	r0, [r2, #8]
 614 0008 9B68     		ldr	r3, [r3, #8]
 615              		.loc 1 443 0
 616 000a 9842     		cmp	r0, r3
 617 000c 94BF     		ite	ls
 618 000e 0020     		movls	r0, #0
 619 0010 0120     		movhi	r0, #1
 620 0012 7047     		bx	lr
 621              	.L46:
ARM GAS  /tmp/ccicrD5g.s 			page 12


 622              		.align	2
 623              	.L45:
 624 0014 00000000 		.word	.LANCHOR0
 625              		.cfi_endproc
 626              	.LFE248:
 627              		.size	chSchIsPreemptionRequired, .-chSchIsPreemptionRequired
 628 0018 AFF30080 		.section	.text.chSchDoRescheduleBehind,"ax",%progbits
 628      AFF30080 
 629              		.align	2
 630              		.p2align 4,,15
 631              		.global	chSchDoRescheduleBehind
 632              		.thumb
 633              		.thumb_func
 634              		.type	chSchDoRescheduleBehind, %function
 635              	chSchDoRescheduleBehind:
 636              	.LFB249:
 637              		.loc 1 455 0
 638              		.cfi_startproc
 639              		@ args = 0, pretend = 0, frame = 0
 640              		@ frame_needed = 0, uses_anonymous_args = 0
 641              		@ link register save eliminated.
 642              		.loc 1 458 0
 643 0000 0D4A     		ldr	r2, .L51
 644              	.LBB119:
 645              	.LBB120:
 646              		.loc 4 674 0
 647 0002 1068     		ldr	r0, [r2]
 648              	.LBE120:
 649              	.LBE119:
 650              		.loc 1 455 0
 651 0004 70B4     		push	{r4, r5, r6}
 652              		.cfi_def_cfa_offset 12
 653              		.cfi_offset 4, -12
 654              		.cfi_offset 5, -8
 655              		.cfi_offset 6, -4
 656              	.LBB124:
 657              	.LBB121:
 658              		.loc 4 676 0
 659 0006 0368     		ldr	r3, [r0]
 660              	.LBE121:
 661              	.LBE124:
 662              		.loc 1 458 0
 663 0008 9569     		ldr	r5, [r2, #24]
 664              	.LVL42:
 665              	.LBB125:
 666              	.LBB122:
 667              		.loc 4 676 0
 668 000a 1360     		str	r3, [r2]
 669              	.LBE122:
 670              	.LBE125:
 671              		.loc 1 466 0
 672 000c 0126     		movs	r6, #1
 673              	.LBB126:
 674              	.LBB127:
 675              		.loc 1 227 0
 676 000e 0021     		movs	r1, #0
 677 0010 AC68     		ldr	r4, [r5, #8]
ARM GAS  /tmp/ccicrD5g.s 			page 13


 678              	.LBE127:
 679              	.LBE126:
 680              	.LBB130:
 681              	.LBB123:
 682              		.loc 4 677 0
 683 0012 5A60     		str	r2, [r3, #4]
 684              	.LBE123:
 685              	.LBE130:
 686              		.loc 1 466 0
 687 0014 0677     		strb	r6, [r0, #28]
 688              	.LVL43:
 689              		.loc 1 460 0
 690 0016 9061     		str	r0, [r2, #24]
 691              	.LBB131:
 692              	.LBB128:
 693              		.loc 1 227 0
 694 0018 2977     		strb	r1, [r5, #28]
 695              	.LVL44:
 696 001a 00E0     		b	.L49
 697              	.LVL45:
 698              	.L50:
 699 001c 1B68     		ldr	r3, [r3]
 700              	.LVL46:
 701              	.L49:
 702              		.loc 1 231 0
 703 001e 9A68     		ldr	r2, [r3, #8]
 704 0020 A242     		cmp	r2, r4
 705 0022 FBD2     		bcs	.L50
 706              		.loc 1 234 0
 707 0024 5A68     		ldr	r2, [r3, #4]
 708 0026 6A60     		str	r2, [r5, #4]
 709              		.loc 1 233 0
 710 0028 2B60     		str	r3, [r5]
 711              	.LBE128:
 712              	.LBE131:
 713              		.loc 1 471 0
 714 002a 2946     		mov	r1, r5
 715              	.LBB132:
 716              	.LBB129:
 717              		.loc 1 235 0
 718 002c 1560     		str	r5, [r2]
 719              		.loc 1 236 0
 720 002e 5D60     		str	r5, [r3, #4]
 721              	.LBE129:
 722              	.LBE132:
 723              		.loc 1 472 0
 724 0030 70BC     		pop	{r4, r5, r6}
 725              	.LVL47:
 726              		.loc 1 471 0
 727 0032 FFF7FEBF 		b	_port_switch
 728              	.LVL48:
 729              	.L52:
 730 0036 00BF     		.align	2
 731              	.L51:
 732 0038 00000000 		.word	.LANCHOR0
 733              		.cfi_endproc
 734              	.LFE249:
ARM GAS  /tmp/ccicrD5g.s 			page 14


 735              		.size	chSchDoRescheduleBehind, .-chSchDoRescheduleBehind
 736 003c AFF30080 		.section	.text.chSchDoRescheduleAhead,"ax",%progbits
 737              		.align	2
 738              		.p2align 4,,15
 739              		.global	chSchDoRescheduleAhead
 740              		.thumb
 741              		.thumb_func
 742              		.type	chSchDoRescheduleAhead, %function
 743              	chSchDoRescheduleAhead:
 744              	.LFB250:
 745              		.loc 1 483 0
 746              		.cfi_startproc
 747              		@ args = 0, pretend = 0, frame = 0
 748              		@ frame_needed = 0, uses_anonymous_args = 0
 749              		@ link register save eliminated.
 750              		.loc 1 486 0
 751 0000 0D4A     		ldr	r2, .L57
 752              	.LBB133:
 753              	.LBB134:
 754              		.loc 4 674 0
 755 0002 1068     		ldr	r0, [r2]
 756              	.LBE134:
 757              	.LBE133:
 758              		.loc 1 483 0
 759 0004 70B4     		push	{r4, r5, r6}
 760              		.cfi_def_cfa_offset 12
 761              		.cfi_offset 4, -12
 762              		.cfi_offset 5, -8
 763              		.cfi_offset 6, -4
 764              	.LBB138:
 765              	.LBB135:
 766              		.loc 4 676 0
 767 0006 0368     		ldr	r3, [r0]
 768              	.LBE135:
 769              	.LBE138:
 770              		.loc 1 486 0
 771 0008 9569     		ldr	r5, [r2, #24]
 772              	.LVL49:
 773              	.LBB139:
 774              	.LBB136:
 775              		.loc 4 676 0
 776 000a 1360     		str	r3, [r2]
 777              	.LBE136:
 778              	.LBE139:
 779              		.loc 1 494 0
 780 000c 0126     		movs	r6, #1
 781              		.loc 1 496 0
 782 000e 0021     		movs	r1, #0
 783 0010 AC68     		ldr	r4, [r5, #8]
 784              	.LBB140:
 785              	.LBB137:
 786              		.loc 4 677 0
 787 0012 5A60     		str	r2, [r3, #4]
 788              	.LBE137:
 789              	.LBE140:
 790              		.loc 1 494 0
 791 0014 0677     		strb	r6, [r0, #28]
ARM GAS  /tmp/ccicrD5g.s 			page 15


 792              		.loc 1 488 0
 793 0016 9061     		str	r0, [r2, #24]
 794              		.loc 1 496 0
 795 0018 2977     		strb	r1, [r5, #28]
 796              	.LVL50:
 797 001a 00E0     		b	.L55
 798              	.LVL51:
 799              	.L56:
 800 001c 1B68     		ldr	r3, [r3]
 801              	.LVL52:
 802              	.L55:
 803              		.loc 1 500 0 discriminator 1
 804 001e 9A68     		ldr	r2, [r3, #8]
 805 0020 A242     		cmp	r2, r4
 806 0022 FBD8     		bhi	.L56
 807              		.loc 1 503 0
 808 0024 5A68     		ldr	r2, [r3, #4]
 809 0026 6A60     		str	r2, [r5, #4]
 810              		.loc 1 502 0
 811 0028 2B60     		str	r3, [r5]
 812              		.loc 1 507 0
 813 002a 2946     		mov	r1, r5
 814              		.loc 1 504 0
 815 002c 1560     		str	r5, [r2]
 816              		.loc 1 505 0
 817 002e 5D60     		str	r5, [r3, #4]
 818              		.loc 1 508 0
 819 0030 70BC     		pop	{r4, r5, r6}
 820              	.LVL53:
 821              		.loc 1 507 0
 822 0032 FFF7FEBF 		b	_port_switch
 823              	.LVL54:
 824              	.L58:
 825 0036 00BF     		.align	2
 826              	.L57:
 827 0038 00000000 		.word	.LANCHOR0
 828              		.cfi_endproc
 829              	.LFE250:
 830              		.size	chSchDoRescheduleAhead, .-chSchDoRescheduleAhead
 831 003c AFF30080 		.section	.text.chSchRescheduleS,"ax",%progbits
 832              		.align	2
 833              		.p2align 4,,15
 834              		.global	chSchRescheduleS
 835              		.thumb
 836              		.thumb_func
 837              		.type	chSchRescheduleS, %function
 838              	chSchRescheduleS:
 839              	.LFB247:
 840              		.loc 1 406 0
 841              		.cfi_startproc
 842              		@ args = 0, pretend = 0, frame = 0
 843              		@ frame_needed = 0, uses_anonymous_args = 0
 844              		@ link register save eliminated.
 845              	.LBB141:
 846              	.LBB142:
 847              		.loc 4 715 0
 848 0000 044B     		ldr	r3, .L62
ARM GAS  /tmp/ccicrD5g.s 			page 16


 849 0002 1A68     		ldr	r2, [r3]
 850 0004 9B69     		ldr	r3, [r3, #24]
 851              	.LBE142:
 852              	.LBE141:
 853              		.loc 1 410 0
 854 0006 9268     		ldr	r2, [r2, #8]
 855 0008 9B68     		ldr	r3, [r3, #8]
 856 000a 9A42     		cmp	r2, r3
 857 000c 00D8     		bhi	.L61
 858 000e 7047     		bx	lr
 859              	.L61:
 860              		.loc 1 411 0
 861 0010 FFF7FEBF 		b	chSchDoRescheduleAhead
 862              	.LVL55:
 863              	.L63:
 864              		.align	2
 865              	.L62:
 866 0014 00000000 		.word	.LANCHOR0
 867              		.cfi_endproc
 868              	.LFE247:
 869              		.size	chSchRescheduleS, .-chSchRescheduleS
 870 0018 AFF30080 		.section	.text.chSchDoReschedule,"ax",%progbits
 870      AFF30080 
 871              		.align	2
 872              		.p2align 4,,15
 873              		.global	chSchDoReschedule
 874              		.thumb
 875              		.thumb_func
 876              		.type	chSchDoReschedule, %function
 877              	chSchDoReschedule:
 878              	.LFB251:
 879              		.loc 1 520 0
 880              		.cfi_startproc
 881              		@ args = 0, pretend = 0, frame = 0
 882              		@ frame_needed = 0, uses_anonymous_args = 0
 883              		@ link register save eliminated.
 884              		.loc 1 538 0
 885 0000 FFF7FEBF 		b	chSchDoRescheduleAhead
 886              	.LVL56:
 887              		.cfi_endproc
 888              	.LFE251:
 889              		.size	chSchDoReschedule, .-chSchDoReschedule
 890              		.global	ch
 891 0004 AFF30080 		.section	.bss.ch,"aw",%nobits
 891      AFF30080 
 891      AFF30080 
 892              		.align	3
 893              		.set	.LANCHOR0,. + 0
 894              		.type	ch, %object
 895              		.size	ch, 336
 896              	ch:
 897 0000 00000000 		.space	336
 897      00000000 
 897      00000000 
 897      00000000 
 897      00000000 
 898              		.text
ARM GAS  /tmp/ccicrD5g.s 			page 17


 899              	.Letext0:
 900              		.file 5 "/nfs/nfs5/home/research/hardware/arm2/gcc-arm-embedded/gcc-arm-none-eabi-4_8-2014q2/lib/g
 901              		.file 6 "/nfs/nfs5/home/research/hardware/arm2/gcc-arm-embedded/gcc-arm-none-eabi-4_8-2014q2/arm-n
 902              		.file 7 "/nfs/nfs5/home/research/hardware/arm2/gcc-arm-embedded/gcc-arm-none-eabi-4_8-2014q2/arm-n
 903              		.file 8 "../ChibiOS/os/rt/ports/ARMCMx/compilers/GCC/chtypes.h"
 904              		.file 9 "../ChibiOS/os/rt/include/chsystypes.h"
 905              		.file 10 "../ChibiOS/os/rt/ports/ARMCMx/chcore.h"
 906              		.file 11 "../ChibiOS/os/rt/ports/ARMCMx/chcore_v7m.h"
 907              		.file 12 "../ChibiOS/os/rt/include/chtm.h"
 908              		.file 13 "../ChibiOS/os/rt/include/chmtx.h"
 909              		.file 14 "../ChibiOS/os/rt/include/chvt.h"
 910              		.file 15 "../ChibiOS/os/rt/include/chsys.h"
 911              		.file 16 "../ChibiOS/os/ext/CMSIS/include/core_cm4.h"
 912              		.section	.debug_info,"",%progbits
 913              	.Ldebug_info0:
 914 0000 440D0000 		.4byte	0xd44
 915 0004 0400     		.2byte	0x4
 916 0006 00000000 		.4byte	.Ldebug_abbrev0
 917 000a 04       		.byte	0x4
 918 000b 01       		.uleb128 0x1
 919 000c 36050000 		.4byte	.LASF132
 920 0010 01       		.byte	0x1
 921 0011 62040000 		.4byte	.LASF133
 922 0015 4F010000 		.4byte	.LASF134
 923 0019 18010000 		.4byte	.Ldebug_ranges0+0x118
 924 001d 00000000 		.4byte	0
 925 0021 00000000 		.4byte	.Ldebug_line0
 926 0025 02       		.uleb128 0x2
 927 0026 04       		.byte	0x4
 928 0027 05       		.byte	0x5
 929 0028 696E7400 		.ascii	"int\000"
 930 002c 03       		.uleb128 0x3
 931 002d 0D000000 		.4byte	.LASF2
 932 0031 05       		.byte	0x5
 933 0032 D4       		.byte	0xd4
 934 0033 37000000 		.4byte	0x37
 935 0037 04       		.uleb128 0x4
 936 0038 04       		.byte	0x4
 937 0039 07       		.byte	0x7
 938 003a 27020000 		.4byte	.LASF0
 939 003e 04       		.uleb128 0x4
 940 003f 01       		.byte	0x1
 941 0040 06       		.byte	0x6
 942 0041 1A010000 		.4byte	.LASF1
 943 0045 03       		.uleb128 0x3
 944 0046 47000000 		.4byte	.LASF3
 945 004a 06       		.byte	0x6
 946 004b 1C       		.byte	0x1c
 947 004c 50000000 		.4byte	0x50
 948 0050 04       		.uleb128 0x4
 949 0051 01       		.byte	0x1
 950 0052 08       		.byte	0x8
 951 0053 EA030000 		.4byte	.LASF4
 952 0057 04       		.uleb128 0x4
 953 0058 02       		.byte	0x2
 954 0059 05       		.byte	0x5
 955 005a 01040000 		.4byte	.LASF5
ARM GAS  /tmp/ccicrD5g.s 			page 18


 956 005e 04       		.uleb128 0x4
 957 005f 02       		.byte	0x2
 958 0060 07       		.byte	0x7
 959 0061 7F020000 		.4byte	.LASF6
 960 0065 03       		.uleb128 0x3
 961 0066 0E050000 		.4byte	.LASF7
 962 006a 06       		.byte	0x6
 963 006b 37       		.byte	0x37
 964 006c 70000000 		.4byte	0x70
 965 0070 04       		.uleb128 0x4
 966 0071 04       		.byte	0x4
 967 0072 05       		.byte	0x5
 968 0073 7E010000 		.4byte	.LASF8
 969 0077 03       		.uleb128 0x3
 970 0078 40060000 		.4byte	.LASF9
 971 007c 06       		.byte	0x6
 972 007d 38       		.byte	0x38
 973 007e 82000000 		.4byte	0x82
 974 0082 04       		.uleb128 0x4
 975 0083 04       		.byte	0x4
 976 0084 07       		.byte	0x7
 977 0085 F7040000 		.4byte	.LASF10
 978 0089 04       		.uleb128 0x4
 979 008a 08       		.byte	0x8
 980 008b 05       		.byte	0x5
 981 008c 0C010000 		.4byte	.LASF11
 982 0090 03       		.uleb128 0x3
 983 0091 87030000 		.4byte	.LASF12
 984 0095 06       		.byte	0x6
 985 0096 4E       		.byte	0x4e
 986 0097 9B000000 		.4byte	0x9b
 987 009b 04       		.uleb128 0x4
 988 009c 08       		.byte	0x8
 989 009d 07       		.byte	0x7
 990 009e 81000000 		.4byte	.LASF13
 991 00a2 03       		.uleb128 0x3
 992 00a3 BA060000 		.4byte	.LASF14
 993 00a7 07       		.byte	0x7
 994 00a8 2A       		.byte	0x2a
 995 00a9 45000000 		.4byte	0x45
 996 00ad 03       		.uleb128 0x3
 997 00ae E2030000 		.4byte	.LASF15
 998 00b2 07       		.byte	0x7
 999 00b3 41       		.byte	0x41
 1000 00b4 65000000 		.4byte	0x65
 1001 00b8 03       		.uleb128 0x3
 1002 00b9 C3040000 		.4byte	.LASF16
 1003 00bd 07       		.byte	0x7
 1004 00be 42       		.byte	0x42
 1005 00bf 77000000 		.4byte	0x77
 1006 00c3 03       		.uleb128 0x3
 1007 00c4 1B000000 		.4byte	.LASF17
 1008 00c8 07       		.byte	0x7
 1009 00c9 4E       		.byte	0x4e
 1010 00ca 90000000 		.4byte	0x90
 1011 00ce 03       		.uleb128 0x3
 1012 00cf 72060000 		.4byte	.LASF18
ARM GAS  /tmp/ccicrD5g.s 			page 19


 1013 00d3 08       		.byte	0x8
 1014 00d4 39       		.byte	0x39
 1015 00d5 B8000000 		.4byte	0xb8
 1016 00d9 03       		.uleb128 0x3
 1017 00da 32040000 		.4byte	.LASF19
 1018 00de 08       		.byte	0x8
 1019 00df 3C       		.byte	0x3c
 1020 00e0 A2000000 		.4byte	0xa2
 1021 00e4 03       		.uleb128 0x3
 1022 00e5 95010000 		.4byte	.LASF20
 1023 00e9 08       		.byte	0x8
 1024 00ea 3D       		.byte	0x3d
 1025 00eb A2000000 		.4byte	0xa2
 1026 00ef 03       		.uleb128 0x3
 1027 00f0 92030000 		.4byte	.LASF21
 1028 00f4 08       		.byte	0x8
 1029 00f5 3E       		.byte	0x3e
 1030 00f6 A2000000 		.4byte	0xa2
 1031 00fa 03       		.uleb128 0x3
 1032 00fb B1030000 		.4byte	.LASF22
 1033 00ff 08       		.byte	0x8
 1034 0100 40       		.byte	0x40
 1035 0101 B8000000 		.4byte	0xb8
 1036 0105 03       		.uleb128 0x3
 1037 0106 A9020000 		.4byte	.LASF23
 1038 010a 08       		.byte	0x8
 1039 010b 41       		.byte	0x41
 1040 010c AD000000 		.4byte	0xad
 1041 0110 03       		.uleb128 0x3
 1042 0111 3B000000 		.4byte	.LASF24
 1043 0115 08       		.byte	0x8
 1044 0116 43       		.byte	0x43
 1045 0117 B8000000 		.4byte	0xb8
 1046 011b 03       		.uleb128 0x3
 1047 011c 21020000 		.4byte	.LASF25
 1048 0120 08       		.byte	0x8
 1049 0121 45       		.byte	0x45
 1050 0122 AD000000 		.4byte	0xad
 1051 0126 03       		.uleb128 0x3
 1052 0127 22060000 		.4byte	.LASF26
 1053 012b 09       		.byte	0x9
 1054 012c 33       		.byte	0x33
 1055 012d B8000000 		.4byte	0xb8
 1056 0131 03       		.uleb128 0x3
 1057 0132 2D050000 		.4byte	.LASF27
 1058 0136 09       		.byte	0x9
 1059 0137 3F       		.byte	0x3f
 1060 0138 3C010000 		.4byte	0x13c
 1061 013c 05       		.uleb128 0x5
 1062 013d 92020000 		.4byte	.LASF46
 1063 0141 40       		.byte	0x40
 1064 0142 04       		.byte	0x4
 1065 0143 C2       		.byte	0xc2
 1066 0144 1C020000 		.4byte	0x21c
 1067 0148 06       		.uleb128 0x6
 1068 0149 2B040000 		.4byte	.LASF28
 1069 014d 04       		.byte	0x4
ARM GAS  /tmp/ccicrD5g.s 			page 20


 1070 014e C3       		.byte	0xc3
 1071 014f 27020000 		.4byte	0x227
 1072 0153 00       		.byte	0
 1073 0154 06       		.uleb128 0x6
 1074 0155 AA030000 		.4byte	.LASF29
 1075 0159 04       		.byte	0x4
 1076 015a C5       		.byte	0xc5
 1077 015b 27020000 		.4byte	0x227
 1078 015f 04       		.byte	0x4
 1079 0160 06       		.uleb128 0x6
 1080 0161 F5000000 		.4byte	.LASF30
 1081 0165 04       		.byte	0x4
 1082 0166 C7       		.byte	0xc7
 1083 0167 FA000000 		.4byte	0xfa
 1084 016b 08       		.byte	0x8
 1085 016c 06       		.uleb128 0x6
 1086 016d 1B070000 		.4byte	.LASF31
 1087 0171 04       		.byte	0x4
 1088 0172 C8       		.byte	0xc8
 1089 0173 57040000 		.4byte	0x457
 1090 0177 0C       		.byte	0xc
 1091 0178 06       		.uleb128 0x6
 1092 0179 B8010000 		.4byte	.LASF32
 1093 017d 04       		.byte	0x4
 1094 017e CA       		.byte	0xca
 1095 017f 27020000 		.4byte	0x227
 1096 0183 10       		.byte	0x10
 1097 0184 06       		.uleb128 0x6
 1098 0185 4A030000 		.4byte	.LASF33
 1099 0189 04       		.byte	0x4
 1100 018a CB       		.byte	0xcb
 1101 018b 27020000 		.4byte	0x227
 1102 018f 14       		.byte	0x14
 1103 0190 06       		.uleb128 0x6
 1104 0191 D3060000 		.4byte	.LASF34
 1105 0195 04       		.byte	0x4
 1106 0196 D2       		.byte	0xd2
 1107 0197 E2050000 		.4byte	0x5e2
 1108 019b 18       		.byte	0x18
 1109 019c 06       		.uleb128 0x6
 1110 019d 0B040000 		.4byte	.LASF35
 1111 01a1 04       		.byte	0x4
 1112 01a2 DD       		.byte	0xdd
 1113 01a3 E4000000 		.4byte	0xe4
 1114 01a7 1C       		.byte	0x1c
 1115 01a8 06       		.uleb128 0x6
 1116 01a9 3A040000 		.4byte	.LASF36
 1117 01ad 04       		.byte	0x4
 1118 01ae E1       		.byte	0xe1
 1119 01af D9000000 		.4byte	0xd9
 1120 01b3 1D       		.byte	0x1d
 1121 01b4 06       		.uleb128 0x6
 1122 01b5 AD060000 		.4byte	.LASF37
 1123 01b9 04       		.byte	0x4
 1124 01ba E6       		.byte	0xe6
 1125 01bb EF000000 		.4byte	0xef
 1126 01bf 1E       		.byte	0x1e
ARM GAS  /tmp/ccicrD5g.s 			page 21


 1127 01c0 07       		.uleb128 0x7
 1128 01c1 705F7500 		.ascii	"p_u\000"
 1129 01c5 04       		.byte	0x4
 1130 01c6 3701     		.2byte	0x137
 1131 01c8 11050000 		.4byte	0x511
 1132 01cc 20       		.byte	0x20
 1133 01cd 08       		.uleb128 0x8
 1134 01ce E9020000 		.4byte	.LASF38
 1135 01d2 04       		.byte	0x4
 1136 01d3 3C01     		.2byte	0x13c
 1137 01d5 2D020000 		.4byte	0x22d
 1138 01d9 24       		.byte	0x24
 1139 01da 08       		.uleb128 0x8
 1140 01db 60020000 		.4byte	.LASF39
 1141 01df 04       		.byte	0x4
 1142 01e0 4201     		.2byte	0x142
 1143 01e2 51020000 		.4byte	0x251
 1144 01e6 28       		.byte	0x28
 1145 01e7 08       		.uleb128 0x8
 1146 01e8 B8040000 		.4byte	.LASF40
 1147 01ec 04       		.byte	0x4
 1148 01ed 4801     		.2byte	0x148
 1149 01ef 10010000 		.4byte	0x110
 1150 01f3 30       		.byte	0x30
 1151 01f4 08       		.uleb128 0x8
 1152 01f5 C2020000 		.4byte	.LASF41
 1153 01f9 04       		.byte	0x4
 1154 01fa 4F01     		.2byte	0x14f
 1155 01fc DC050000 		.4byte	0x5dc
 1156 0200 34       		.byte	0x34
 1157 0201 08       		.uleb128 0x8
 1158 0202 2C060000 		.4byte	.LASF42
 1159 0206 04       		.byte	0x4
 1160 0207 5301     		.2byte	0x153
 1161 0209 FA000000 		.4byte	0xfa
 1162 020d 38       		.byte	0x38
 1163 020e 08       		.uleb128 0x8
 1164 020f 26010000 		.4byte	.LASF43
 1165 0213 04       		.byte	0x4
 1166 0214 5A01     		.2byte	0x15a
 1167 0216 04030000 		.4byte	0x304
 1168 021a 3C       		.byte	0x3c
 1169 021b 00       		.byte	0
 1170 021c 03       		.uleb128 0x3
 1171 021d FC020000 		.4byte	.LASF44
 1172 0221 09       		.byte	0x9
 1173 0222 44       		.byte	0x44
 1174 0223 27020000 		.4byte	0x227
 1175 0227 09       		.uleb128 0x9
 1176 0228 04       		.byte	0x4
 1177 0229 31010000 		.4byte	0x131
 1178 022d 03       		.uleb128 0x3
 1179 022e DA060000 		.4byte	.LASF45
 1180 0232 09       		.byte	0x9
 1181 0233 49       		.byte	0x49
 1182 0234 38020000 		.4byte	0x238
 1183 0238 05       		.uleb128 0x5
ARM GAS  /tmp/ccicrD5g.s 			page 22


 1184 0239 E7040000 		.4byte	.LASF47
 1185 023d 04       		.byte	0x4
 1186 023e 04       		.byte	0x4
 1187 023f B0       		.byte	0xb0
 1188 0240 51020000 		.4byte	0x251
 1189 0244 06       		.uleb128 0x6
 1190 0245 2B040000 		.4byte	.LASF28
 1191 0249 04       		.byte	0x4
 1192 024a B1       		.byte	0xb1
 1193 024b 27020000 		.4byte	0x227
 1194 024f 00       		.byte	0
 1195 0250 00       		.byte	0
 1196 0251 03       		.uleb128 0x3
 1197 0252 94060000 		.4byte	.LASF48
 1198 0256 09       		.byte	0x9
 1199 0257 50       		.byte	0x50
 1200 0258 5C020000 		.4byte	0x25c
 1201 025c 05       		.uleb128 0x5
 1202 025d E4000000 		.4byte	.LASF49
 1203 0261 08       		.byte	0x8
 1204 0262 04       		.byte	0x4
 1205 0263 B7       		.byte	0xb7
 1206 0264 81020000 		.4byte	0x281
 1207 0268 06       		.uleb128 0x6
 1208 0269 2B040000 		.4byte	.LASF28
 1209 026d 04       		.byte	0x4
 1210 026e B8       		.byte	0xb8
 1211 026f 27020000 		.4byte	0x227
 1212 0273 00       		.byte	0
 1213 0274 06       		.uleb128 0x6
 1214 0275 AA030000 		.4byte	.LASF29
 1215 0279 04       		.byte	0x4
 1216 027a B9       		.byte	0xb9
 1217 027b 27020000 		.4byte	0x227
 1218 027f 04       		.byte	0x4
 1219 0280 00       		.byte	0
 1220 0281 03       		.uleb128 0x3
 1221 0282 00000000 		.4byte	.LASF50
 1222 0286 09       		.byte	0x9
 1223 0287 57       		.byte	0x57
 1224 0288 8C020000 		.4byte	0x28c
 1225 028c 0A       		.uleb128 0xa
 1226 028d 6B020000 		.4byte	.LASF51
 1227 0291 1C       		.byte	0x1c
 1228 0292 04       		.byte	0x4
 1229 0293 9201     		.2byte	0x192
 1230 0295 E8020000 		.4byte	0x2e8
 1231 0299 08       		.uleb128 0x8
 1232 029a D3040000 		.4byte	.LASF52
 1233 029e 04       		.byte	0x4
 1234 029f 9301     		.2byte	0x193
 1235 02a1 51020000 		.4byte	0x251
 1236 02a5 00       		.byte	0
 1237 02a6 08       		.uleb128 0x8
 1238 02a7 E2020000 		.4byte	.LASF53
 1239 02ab 04       		.byte	0x4
 1240 02ac 9401     		.2byte	0x194
ARM GAS  /tmp/ccicrD5g.s 			page 23


 1241 02ae FA000000 		.4byte	0xfa
 1242 02b2 08       		.byte	0x8
 1243 02b3 08       		.uleb128 0x8
 1244 02b4 52030000 		.4byte	.LASF54
 1245 02b8 04       		.byte	0x4
 1246 02b9 9601     		.2byte	0x196
 1247 02bb 57040000 		.4byte	0x457
 1248 02bf 0C       		.byte	0xc
 1249 02c0 08       		.uleb128 0x8
 1250 02c1 D9010000 		.4byte	.LASF55
 1251 02c5 04       		.byte	0x4
 1252 02c6 9901     		.2byte	0x199
 1253 02c8 27020000 		.4byte	0x227
 1254 02cc 10       		.byte	0x10
 1255 02cd 08       		.uleb128 0x8
 1256 02ce 7F030000 		.4byte	.LASF56
 1257 02d2 04       		.byte	0x4
 1258 02d3 9A01     		.2byte	0x19a
 1259 02d5 27020000 		.4byte	0x227
 1260 02d9 14       		.byte	0x14
 1261 02da 08       		.uleb128 0x8
 1262 02db 75030000 		.4byte	.LASF57
 1263 02df 04       		.byte	0x4
 1264 02e0 9D01     		.2byte	0x19d
 1265 02e2 27020000 		.4byte	0x227
 1266 02e6 18       		.byte	0x18
 1267 02e7 00       		.byte	0
 1268 02e8 03       		.uleb128 0x3
 1269 02e9 37060000 		.4byte	.LASF58
 1270 02ed 09       		.byte	0x9
 1271 02ee 5C       		.byte	0x5c
 1272 02ef F3020000 		.4byte	0x2f3
 1273 02f3 09       		.uleb128 0x9
 1274 02f4 04       		.byte	0x4
 1275 02f5 F9020000 		.4byte	0x2f9
 1276 02f9 0B       		.uleb128 0xb
 1277 02fa 04030000 		.4byte	0x304
 1278 02fe 0C       		.uleb128 0xc
 1279 02ff 04030000 		.4byte	0x304
 1280 0303 00       		.byte	0
 1281 0304 0D       		.uleb128 0xd
 1282 0305 04       		.byte	0x4
 1283 0306 03       		.uleb128 0x3
 1284 0307 9A030000 		.4byte	.LASF59
 1285 030b 09       		.byte	0x9
 1286 030c 61       		.byte	0x61
 1287 030d 11030000 		.4byte	0x311
 1288 0311 0A       		.uleb128 0xa
 1289 0312 8C040000 		.4byte	.LASF60
 1290 0316 14       		.byte	0x14
 1291 0317 04       		.byte	0x4
 1292 0318 6D01     		.2byte	0x16d
 1293 031a 60030000 		.4byte	0x360
 1294 031e 08       		.uleb128 0x8
 1295 031f 3B020000 		.4byte	.LASF61
 1296 0323 04       		.byte	0x4
 1297 0324 6E01     		.2byte	0x16e
ARM GAS  /tmp/ccicrD5g.s 			page 24


 1298 0326 F4050000 		.4byte	0x5f4
 1299 032a 00       		.byte	0
 1300 032b 08       		.uleb128 0x8
 1301 032c FC010000 		.4byte	.LASF62
 1302 0330 04       		.byte	0x4
 1303 0331 6F01     		.2byte	0x16f
 1304 0333 F4050000 		.4byte	0x5f4
 1305 0337 04       		.byte	0x4
 1306 0338 08       		.uleb128 0x8
 1307 0339 57020000 		.4byte	.LASF63
 1308 033d 04       		.byte	0x4
 1309 033e 7001     		.2byte	0x170
 1310 0340 26010000 		.4byte	0x126
 1311 0344 08       		.byte	0x8
 1312 0345 08       		.uleb128 0x8
 1313 0346 21070000 		.4byte	.LASF64
 1314 034a 04       		.byte	0x4
 1315 034b 7101     		.2byte	0x171
 1316 034d E8020000 		.4byte	0x2e8
 1317 0351 0C       		.byte	0xc
 1318 0352 08       		.uleb128 0x8
 1319 0353 8D060000 		.4byte	.LASF65
 1320 0357 04       		.byte	0x4
 1321 0358 7301     		.2byte	0x173
 1322 035a 04030000 		.4byte	0x304
 1323 035e 10       		.byte	0x10
 1324 035f 00       		.byte	0
 1325 0360 03       		.uleb128 0x3
 1326 0361 C1000000 		.4byte	.LASF66
 1327 0365 09       		.byte	0x9
 1328 0366 66       		.byte	0x66
 1329 0367 6B030000 		.4byte	0x36b
 1330 036b 0A       		.uleb128 0xa
 1331 036c 0F030000 		.4byte	.LASF67
 1332 0370 10       		.byte	0x10
 1333 0371 04       		.byte	0x4
 1334 0372 7D01     		.2byte	0x17d
 1335 0374 AD030000 		.4byte	0x3ad
 1336 0378 08       		.uleb128 0x8
 1337 0379 3B020000 		.4byte	.LASF61
 1338 037d 04       		.byte	0x4
 1339 037e 7E01     		.2byte	0x17e
 1340 0380 F4050000 		.4byte	0x5f4
 1341 0384 00       		.byte	0
 1342 0385 08       		.uleb128 0x8
 1343 0386 FC010000 		.4byte	.LASF62
 1344 038a 04       		.byte	0x4
 1345 038b 8001     		.2byte	0x180
 1346 038d F4050000 		.4byte	0x5f4
 1347 0391 04       		.byte	0x4
 1348 0392 08       		.uleb128 0x8
 1349 0393 57020000 		.4byte	.LASF63
 1350 0397 04       		.byte	0x4
 1351 0398 8201     		.2byte	0x182
 1352 039a 26010000 		.4byte	0x126
 1353 039e 08       		.byte	0x8
 1354 039f 08       		.uleb128 0x8
ARM GAS  /tmp/ccicrD5g.s 			page 25


 1355 03a0 3E030000 		.4byte	.LASF68
 1356 03a4 04       		.byte	0x4
 1357 03a5 8A01     		.2byte	0x18a
 1358 03a7 26010000 		.4byte	0x126
 1359 03ab 0C       		.byte	0xc
 1360 03ac 00       		.byte	0
 1361 03ad 03       		.uleb128 0x3
 1362 03ae 5D000000 		.4byte	.LASF69
 1363 03b2 09       		.byte	0x9
 1364 03b3 6B       		.byte	0x6b
 1365 03b4 B8030000 		.4byte	0x3b8
 1366 03b8 0A       		.uleb128 0xa
 1367 03b9 CC030000 		.4byte	.LASF70
 1368 03bd 04       		.byte	0x4
 1369 03be 04       		.byte	0x4
 1370 03bf A401     		.2byte	0x1a4
 1371 03c1 D3030000 		.4byte	0x3d3
 1372 03c5 08       		.uleb128 0x8
 1373 03c6 59060000 		.4byte	.LASF71
 1374 03ca 04       		.byte	0x4
 1375 03cb AC01     		.2byte	0x1ac
 1376 03cd FA050000 		.4byte	0x5fa
 1377 03d1 00       		.byte	0
 1378 03d2 00       		.byte	0
 1379 03d3 03       		.uleb128 0x3
 1380 03d4 AF020000 		.4byte	.LASF72
 1381 03d8 09       		.byte	0x9
 1382 03d9 70       		.byte	0x70
 1383 03da DE030000 		.4byte	0x3de
 1384 03de 0E       		.uleb128 0xe
 1385 03df 4B040000 		.4byte	.LASF73
 1386 03e3 5001     		.2byte	0x150
 1387 03e5 04       		.byte	0x4
 1388 03e6 C401     		.2byte	0x1c4
 1389 03e8 3A040000 		.4byte	0x43a
 1390 03ec 08       		.uleb128 0x8
 1391 03ed B4060000 		.4byte	.LASF74
 1392 03f1 04       		.byte	0x4
 1393 03f2 C801     		.2byte	0x1c8
 1394 03f4 81020000 		.4byte	0x281
 1395 03f8 00       		.byte	0
 1396 03f9 08       		.uleb128 0x8
 1397 03fa 36010000 		.4byte	.LASF75
 1398 03fe 04       		.byte	0x4
 1399 03ff CC01     		.2byte	0x1cc
 1400 0401 60030000 		.4byte	0x360
 1401 0405 1C       		.byte	0x1c
 1402 0406 07       		.uleb128 0x7
 1403 0407 64626700 		.ascii	"dbg\000"
 1404 040b 04       		.byte	0x4
 1405 040c D001     		.2byte	0x1d0
 1406 040e AD030000 		.4byte	0x3ad
 1407 0412 2C       		.byte	0x2c
 1408 0413 08       		.uleb128 0x8
 1409 0414 AE000000 		.4byte	.LASF76
 1410 0418 04       		.byte	0x4
 1411 0419 D401     		.2byte	0x1d4
ARM GAS  /tmp/ccicrD5g.s 			page 26


 1412 041b 31010000 		.4byte	0x131
 1413 041f 30       		.byte	0x30
 1414 0420 07       		.uleb128 0x7
 1415 0421 746D00   		.ascii	"tm\000"
 1416 0424 04       		.byte	0x4
 1417 0425 D901     		.2byte	0x1d9
 1418 0427 06050000 		.4byte	0x506
 1419 042b 70       		.byte	0x70
 1420 042c 08       		.uleb128 0x8
 1421 042d 12020000 		.4byte	.LASF77
 1422 0431 04       		.byte	0x4
 1423 0432 E501     		.2byte	0x1e5
 1424 0434 FF050000 		.4byte	0x5ff
 1425 0438 78       		.byte	0x78
 1426 0439 00       		.byte	0
 1427 043a 04       		.uleb128 0x4
 1428 043b 04       		.byte	0x4
 1429 043c 07       		.byte	0x7
 1430 043d F3020000 		.4byte	.LASF78
 1431 0441 03       		.uleb128 0x3
 1432 0442 E1010000 		.4byte	.LASF79
 1433 0446 0A       		.byte	0xa
 1434 0447 65       		.byte	0x65
 1435 0448 04030000 		.4byte	0x304
 1436 044c 03       		.uleb128 0x3
 1437 044d D7020000 		.4byte	.LASF80
 1438 0451 0A       		.byte	0xa
 1439 0452 6D       		.byte	0x6d
 1440 0453 C3000000 		.4byte	0xc3
 1441 0457 05       		.uleb128 0x5
 1442 0458 6A060000 		.4byte	.LASF81
 1443 045c 04       		.byte	0x4
 1444 045d 0A       		.byte	0xa
 1445 045e 89       		.byte	0x89
 1446 045f 70040000 		.4byte	0x470
 1447 0463 0F       		.uleb128 0xf
 1448 0464 72313300 		.ascii	"r13\000"
 1449 0468 0A       		.byte	0xa
 1450 0469 8A       		.byte	0x8a
 1451 046a EB040000 		.4byte	0x4eb
 1452 046e 00       		.byte	0
 1453 046f 00       		.byte	0
 1454 0470 05       		.uleb128 0x5
 1455 0471 51000000 		.4byte	.LASF82
 1456 0475 24       		.byte	0x24
 1457 0476 0B       		.byte	0xb
 1458 0477 FD       		.byte	0xfd
 1459 0478 EB040000 		.4byte	0x4eb
 1460 047c 07       		.uleb128 0x7
 1461 047d 723400   		.ascii	"r4\000"
 1462 0480 0B       		.byte	0xb
 1463 0481 1001     		.2byte	0x110
 1464 0483 41040000 		.4byte	0x441
 1465 0487 00       		.byte	0
 1466 0488 07       		.uleb128 0x7
 1467 0489 723500   		.ascii	"r5\000"
 1468 048c 0B       		.byte	0xb
ARM GAS  /tmp/ccicrD5g.s 			page 27


 1469 048d 1101     		.2byte	0x111
 1470 048f 41040000 		.4byte	0x441
 1471 0493 04       		.byte	0x4
 1472 0494 07       		.uleb128 0x7
 1473 0495 723600   		.ascii	"r6\000"
 1474 0498 0B       		.byte	0xb
 1475 0499 1201     		.2byte	0x112
 1476 049b 41040000 		.4byte	0x441
 1477 049f 08       		.byte	0x8
 1478 04a0 07       		.uleb128 0x7
 1479 04a1 723700   		.ascii	"r7\000"
 1480 04a4 0B       		.byte	0xb
 1481 04a5 1301     		.2byte	0x113
 1482 04a7 41040000 		.4byte	0x441
 1483 04ab 0C       		.byte	0xc
 1484 04ac 07       		.uleb128 0x7
 1485 04ad 723800   		.ascii	"r8\000"
 1486 04b0 0B       		.byte	0xb
 1487 04b1 1401     		.2byte	0x114
 1488 04b3 41040000 		.4byte	0x441
 1489 04b7 10       		.byte	0x10
 1490 04b8 07       		.uleb128 0x7
 1491 04b9 723900   		.ascii	"r9\000"
 1492 04bc 0B       		.byte	0xb
 1493 04bd 1501     		.2byte	0x115
 1494 04bf 41040000 		.4byte	0x441
 1495 04c3 14       		.byte	0x14
 1496 04c4 07       		.uleb128 0x7
 1497 04c5 72313000 		.ascii	"r10\000"
 1498 04c9 0B       		.byte	0xb
 1499 04ca 1601     		.2byte	0x116
 1500 04cc 41040000 		.4byte	0x441
 1501 04d0 18       		.byte	0x18
 1502 04d1 07       		.uleb128 0x7
 1503 04d2 72313100 		.ascii	"r11\000"
 1504 04d6 0B       		.byte	0xb
 1505 04d7 1701     		.2byte	0x117
 1506 04d9 41040000 		.4byte	0x441
 1507 04dd 1C       		.byte	0x1c
 1508 04de 07       		.uleb128 0x7
 1509 04df 6C7200   		.ascii	"lr\000"
 1510 04e2 0B       		.byte	0xb
 1511 04e3 1801     		.2byte	0x118
 1512 04e5 41040000 		.4byte	0x441
 1513 04e9 20       		.byte	0x20
 1514 04ea 00       		.byte	0
 1515 04eb 09       		.uleb128 0x9
 1516 04ec 04       		.byte	0x4
 1517 04ed 70040000 		.4byte	0x470
 1518 04f1 10       		.uleb128 0x10
 1519 04f2 04       		.byte	0x4
 1520 04f3 0C       		.byte	0xc
 1521 04f4 38       		.byte	0x38
 1522 04f5 06050000 		.4byte	0x506
 1523 04f9 06       		.uleb128 0x6
 1524 04fa 63060000 		.4byte	.LASF83
 1525 04fe 0C       		.byte	0xc
ARM GAS  /tmp/ccicrD5g.s 			page 28


 1526 04ff 3C       		.byte	0x3c
 1527 0500 CE000000 		.4byte	0xce
 1528 0504 00       		.byte	0
 1529 0505 00       		.byte	0
 1530 0506 03       		.uleb128 0x3
 1531 0507 58030000 		.4byte	.LASF84
 1532 050b 0C       		.byte	0xc
 1533 050c 3D       		.byte	0x3d
 1534 050d F1040000 		.4byte	0x4f1
 1535 0511 11       		.uleb128 0x11
 1536 0512 04       		.byte	0x4
 1537 0513 04       		.byte	0x4
 1538 0514 FA       		.byte	0xfa
 1539 0515 7A050000 		.4byte	0x57a
 1540 0519 12       		.uleb128 0x12
 1541 051a 14000000 		.4byte	.LASF85
 1542 051e 04       		.byte	0x4
 1543 051f 0101     		.2byte	0x101
 1544 0521 05010000 		.4byte	0x105
 1545 0525 12       		.uleb128 0x12
 1546 0526 A5000000 		.4byte	.LASF86
 1547 052a 04       		.byte	0x4
 1548 052b 0801     		.2byte	0x108
 1549 052d 05010000 		.4byte	0x105
 1550 0531 12       		.uleb128 0x12
 1551 0532 BB020000 		.4byte	.LASF87
 1552 0536 04       		.byte	0x4
 1553 0537 0F01     		.2byte	0x10f
 1554 0539 04030000 		.4byte	0x304
 1555 053d 12       		.uleb128 0x12
 1556 053e 49010000 		.4byte	.LASF88
 1557 0542 04       		.byte	0x4
 1558 0543 1601     		.2byte	0x116
 1559 0545 7A050000 		.4byte	0x57a
 1560 0549 12       		.uleb128 0x12
 1561 054a B9000000 		.4byte	.LASF89
 1562 054e 04       		.byte	0x4
 1563 054f 1B01     		.2byte	0x11b
 1564 0551 05010000 		.4byte	0x105
 1565 0555 12       		.uleb128 0x12
 1566 0556 43020000 		.4byte	.LASF90
 1567 055a 04       		.byte	0x4
 1568 055b 2401     		.2byte	0x124
 1569 055d A5050000 		.4byte	0x5a5
 1570 0561 12       		.uleb128 0x12
 1571 0562 CC040000 		.4byte	.LASF91
 1572 0566 04       		.byte	0x4
 1573 0567 2D01     		.2byte	0x12d
 1574 0569 DC050000 		.4byte	0x5dc
 1575 056d 12       		.uleb128 0x12
 1576 056e 24040000 		.4byte	.LASF92
 1577 0572 04       		.byte	0x4
 1578 0573 3501     		.2byte	0x135
 1579 0575 10010000 		.4byte	0x110
 1580 0579 00       		.byte	0
 1581 057a 09       		.uleb128 0x9
 1582 057b 04       		.byte	0x4
ARM GAS  /tmp/ccicrD5g.s 			page 29


 1583 057c 1C020000 		.4byte	0x21c
 1584 0580 05       		.uleb128 0x5
 1585 0581 9D040000 		.4byte	.LASF93
 1586 0585 0C       		.byte	0xc
 1587 0586 03       		.byte	0x3
 1588 0587 34       		.byte	0x34
 1589 0588 A5050000 		.4byte	0x5a5
 1590 058c 06       		.uleb128 0x6
 1591 058d C0010000 		.4byte	.LASF94
 1592 0591 03       		.byte	0x3
 1593 0592 35       		.byte	0x35
 1594 0593 51020000 		.4byte	0x251
 1595 0597 00       		.byte	0
 1596 0598 06       		.uleb128 0x6
 1597 0599 79020000 		.4byte	.LASF95
 1598 059d 03       		.byte	0x3
 1599 059e 37       		.byte	0x37
 1600 059f 1B010000 		.4byte	0x11b
 1601 05a3 08       		.byte	0x8
 1602 05a4 00       		.byte	0
 1603 05a5 09       		.uleb128 0x9
 1604 05a6 04       		.byte	0x4
 1605 05a7 80050000 		.4byte	0x580
 1606 05ab 05       		.uleb128 0x5
 1607 05ac A4060000 		.4byte	.LASF96
 1608 05b0 10       		.byte	0x10
 1609 05b1 0D       		.byte	0xd
 1610 05b2 39       		.byte	0x39
 1611 05b3 DC050000 		.4byte	0x5dc
 1612 05b7 06       		.uleb128 0x6
 1613 05b8 2E010000 		.4byte	.LASF97
 1614 05bc 0D       		.byte	0xd
 1615 05bd 3A       		.byte	0x3a
 1616 05be 51020000 		.4byte	0x251
 1617 05c2 00       		.byte	0
 1618 05c3 06       		.uleb128 0x6
 1619 05c4 13070000 		.4byte	.LASF98
 1620 05c8 0D       		.byte	0xd
 1621 05c9 3C       		.byte	0x3c
 1622 05ca 27020000 		.4byte	0x227
 1623 05ce 08       		.byte	0x8
 1624 05cf 06       		.uleb128 0x6
 1625 05d0 69030000 		.4byte	.LASF99
 1626 05d4 0D       		.byte	0xd
 1627 05d5 3E       		.byte	0x3e
 1628 05d6 25060000 		.4byte	0x625
 1629 05da 0C       		.byte	0xc
 1630 05db 00       		.byte	0
 1631 05dc 09       		.uleb128 0x9
 1632 05dd 04       		.byte	0x4
 1633 05de AB050000 		.4byte	0x5ab
 1634 05e2 09       		.uleb128 0x9
 1635 05e3 04       		.byte	0x4
 1636 05e4 E8050000 		.4byte	0x5e8
 1637 05e8 13       		.uleb128 0x13
 1638 05e9 ED050000 		.4byte	0x5ed
 1639 05ed 04       		.uleb128 0x4
ARM GAS  /tmp/ccicrD5g.s 			page 30


 1640 05ee 01       		.byte	0x1
 1641 05ef 08       		.byte	0x8
 1642 05f0 09050000 		.4byte	.LASF100
 1643 05f4 09       		.uleb128 0x9
 1644 05f5 04       		.byte	0x4
 1645 05f6 06030000 		.4byte	0x306
 1646 05fa 14       		.uleb128 0x14
 1647 05fb E2050000 		.4byte	0x5e2
 1648 05ff 15       		.uleb128 0x15
 1649 0600 4C040000 		.4byte	0x44c
 1650 0604 0F060000 		.4byte	0x60f
 1651 0608 16       		.uleb128 0x16
 1652 0609 3A040000 		.4byte	0x43a
 1653 060d 1A       		.byte	0x1a
 1654 060e 00       		.byte	0
 1655 060f 03       		.uleb128 0x3
 1656 0610 80040000 		.4byte	.LASF101
 1657 0614 03       		.byte	0x3
 1658 0615 38       		.byte	0x38
 1659 0616 80050000 		.4byte	0x580
 1660 061a 03       		.uleb128 0x3
 1661 061b 04020000 		.4byte	.LASF102
 1662 061f 0D       		.byte	0xd
 1663 0620 34       		.byte	0x34
 1664 0621 AB050000 		.4byte	0x5ab
 1665 0625 09       		.uleb128 0x9
 1666 0626 04       		.byte	0x4
 1667 0627 1A060000 		.4byte	0x61a
 1668 062b 17       		.uleb128 0x17
 1669 062c 4B060000 		.4byte	.LASF109
 1670 0630 02       		.byte	0x2
 1671 0631 2202     		.2byte	0x222
 1672 0633 03       		.byte	0x3
 1673 0634 45060000 		.4byte	0x645
 1674 0638 18       		.uleb128 0x18
 1675 0639 0C020000 		.4byte	.LASF107
 1676 063d 02       		.byte	0x2
 1677 063e 2202     		.2byte	0x222
 1678 0640 B8000000 		.4byte	0xb8
 1679 0644 00       		.byte	0
 1680 0645 19       		.uleb128 0x19
 1681 0646 77000000 		.4byte	.LASF103
 1682 064a 0B       		.byte	0xb
 1683 064b C801     		.2byte	0x1c8
 1684 064d 03       		.byte	0x3
 1685 064e 19       		.uleb128 0x19
 1686 064f 3D010000 		.4byte	.LASF104
 1687 0653 0B       		.byte	0xb
 1688 0654 E001     		.2byte	0x1e0
 1689 0656 03       		.byte	0x3
 1690 0657 19       		.uleb128 0x19
 1691 0658 7A060000 		.4byte	.LASF105
 1692 065c 0B       		.byte	0xb
 1693 065d EF01     		.2byte	0x1ef
 1694 065f 03       		.byte	0x3
 1695 0660 19       		.uleb128 0x19
 1696 0661 18050000 		.4byte	.LASF106
ARM GAS  /tmp/ccicrD5g.s 			page 31


 1697 0665 0B       		.byte	0xb
 1698 0666 FA01     		.2byte	0x1fa
 1699 0668 03       		.byte	0x3
 1700 0669 1A       		.uleb128 0x1a
 1701 066a 55040000 		.4byte	.LASF114
 1702 066e 0E       		.byte	0xe
 1703 066f 7501     		.2byte	0x175
 1704 0671 87060000 		.4byte	0x687
 1705 0675 03       		.byte	0x3
 1706 0676 87060000 		.4byte	0x687
 1707 067a 1B       		.uleb128 0x1b
 1708 067b 76747000 		.ascii	"vtp\000"
 1709 067f 0E       		.byte	0xe
 1710 0680 7501     		.2byte	0x175
 1711 0682 F4050000 		.4byte	0x5f4
 1712 0686 00       		.byte	0
 1713 0687 04       		.uleb128 0x4
 1714 0688 01       		.byte	0x1
 1715 0689 02       		.byte	0x2
 1716 068a DC030000 		.4byte	.LASF108
 1717 068e 1C       		.uleb128 0x1c
 1718 068f 13040000 		.4byte	.LASF110
 1719 0693 03       		.byte	0x3
 1720 0694 86       		.byte	0x86
 1721 0695 03       		.byte	0x3
 1722 0696 A5060000 		.4byte	0x6a5
 1723 069a 1D       		.uleb128 0x1d
 1724 069b 737000   		.ascii	"sp\000"
 1725 069e 03       		.byte	0x3
 1726 069f 86       		.byte	0x86
 1727 06a0 A5060000 		.4byte	0x6a5
 1728 06a4 00       		.byte	0
 1729 06a5 09       		.uleb128 0x9
 1730 06a6 04       		.byte	0x4
 1731 06a7 0F060000 		.4byte	0x60f
 1732 06ab 17       		.uleb128 0x17
 1733 06ac 6C000000 		.4byte	.LASF111
 1734 06b0 04       		.byte	0x4
 1735 06b1 5C02     		.2byte	0x25c
 1736 06b3 03       		.byte	0x3
 1737 06b4 C5060000 		.4byte	0x6c5
 1738 06b8 1B       		.uleb128 0x1b
 1739 06b9 74717000 		.ascii	"tqp\000"
 1740 06bd 04       		.byte	0x4
 1741 06be 5C02     		.2byte	0x25c
 1742 06c0 C5060000 		.4byte	0x6c5
 1743 06c4 00       		.byte	0
 1744 06c5 09       		.uleb128 0x9
 1745 06c6 04       		.byte	0x4
 1746 06c7 51020000 		.4byte	0x251
 1747 06cb 19       		.uleb128 0x19
 1748 06cc C2060000 		.4byte	.LASF112
 1749 06d0 0F       		.byte	0xf
 1750 06d1 8201     		.2byte	0x182
 1751 06d3 03       		.byte	0x3
 1752 06d4 19       		.uleb128 0x19
 1753 06d5 B9030000 		.4byte	.LASF113
ARM GAS  /tmp/ccicrD5g.s 			page 32


 1754 06d9 0F       		.byte	0xf
 1755 06da 9601     		.2byte	0x196
 1756 06dc 03       		.byte	0x3
 1757 06dd 1A       		.uleb128 0x1a
 1758 06de 87010000 		.4byte	.LASF115
 1759 06e2 04       		.byte	0x4
 1760 06e3 B302     		.2byte	0x2b3
 1761 06e5 27020000 		.4byte	0x227
 1762 06e9 03       		.byte	0x3
 1763 06ea FA060000 		.4byte	0x6fa
 1764 06ee 1B       		.uleb128 0x1b
 1765 06ef 747000   		.ascii	"tp\000"
 1766 06f2 04       		.byte	0x4
 1767 06f3 B302     		.2byte	0x2b3
 1768 06f5 27020000 		.4byte	0x227
 1769 06f9 00       		.byte	0
 1770 06fa 1E       		.uleb128 0x1e
 1771 06fb DB040000 		.4byte	.LASF135
 1772 06ff 01       		.byte	0x1
 1773 0700 DA       		.byte	0xda
 1774 0701 27020000 		.4byte	0x227
 1775 0705 01       		.byte	0x1
 1776 0706 2C070000 		.4byte	0x72c
 1777 070a 1D       		.uleb128 0x1d
 1778 070b 747000   		.ascii	"tp\000"
 1779 070e 01       		.byte	0x1
 1780 070f DA       		.byte	0xda
 1781 0710 27020000 		.4byte	0x227
 1782 0714 1F       		.uleb128 0x1f
 1783 0715 637000   		.ascii	"cp\000"
 1784 0718 01       		.byte	0x1
 1785 0719 DB       		.byte	0xdb
 1786 071a 27020000 		.4byte	0x227
 1787 071e 20       		.uleb128 0x20
 1788 071f 42040000 		.4byte	.LASF116
 1789 0723 3C070000 		.4byte	0x73c
 1790 0727 DB040000 		.4byte	.LASF135
 1791 072b 00       		.byte	0
 1792 072c 15       		.uleb128 0x15
 1793 072d ED050000 		.4byte	0x5ed
 1794 0731 3C070000 		.4byte	0x73c
 1795 0735 16       		.uleb128 0x16
 1796 0736 3A040000 		.4byte	0x43a
 1797 073a 0B       		.byte	0xb
 1798 073b 00       		.byte	0
 1799 073c 13       		.uleb128 0x13
 1800 073d 2C070000 		.4byte	0x72c
 1801 0741 1A       		.uleb128 0x1a
 1802 0742 10060000 		.4byte	.LASF117
 1803 0746 04       		.byte	0x4
 1804 0747 A102     		.2byte	0x2a1
 1805 0749 27020000 		.4byte	0x227
 1806 074d 03       		.byte	0x3
 1807 074e 6A070000 		.4byte	0x76a
 1808 0752 1B       		.uleb128 0x1b
 1809 0753 74717000 		.ascii	"tqp\000"
 1810 0757 04       		.byte	0x4
ARM GAS  /tmp/ccicrD5g.s 			page 33


 1811 0758 A102     		.2byte	0x2a1
 1812 075a C5060000 		.4byte	0x6c5
 1813 075e 21       		.uleb128 0x21
 1814 075f 747000   		.ascii	"tp\000"
 1815 0762 04       		.byte	0x4
 1816 0763 A202     		.2byte	0x2a2
 1817 0765 27020000 		.4byte	0x227
 1818 0769 00       		.byte	0
 1819 076a 22       		.uleb128 0x22
 1820 076b FE060000 		.4byte	.LASF136
 1821 076f 04       		.byte	0x4
 1822 0770 C702     		.2byte	0x2c7
 1823 0772 87060000 		.4byte	0x687
 1824 0776 03       		.byte	0x3
 1825 0777 23       		.uleb128 0x23
 1826 0778 34020000 		.4byte	.LASF137
 1827 077c 01       		.byte	0x1
 1828 077d 1301     		.2byte	0x113
 1829 077f 00000000 		.4byte	.LFB244
 1830 0783 70000000 		.4byte	.LFE244-.LFB244
 1831 0787 01       		.uleb128 0x1
 1832 0788 9C       		.byte	0x9c
 1833 0789 FE080000 		.4byte	0x8fe
 1834 078d 24       		.uleb128 0x24
 1835 078e 7000     		.ascii	"p\000"
 1836 0790 01       		.byte	0x1
 1837 0791 1301     		.2byte	0x113
 1838 0793 04030000 		.4byte	0x304
 1839 0797 01       		.uleb128 0x1
 1840 0798 50       		.byte	0x50
 1841 0799 25       		.uleb128 0x25
 1842 079a 747000   		.ascii	"tp\000"
 1843 079d 01       		.byte	0x1
 1844 079e 1401     		.2byte	0x114
 1845 07a0 27020000 		.4byte	0x227
 1846 07a4 01       		.uleb128 0x1
 1847 07a5 50       		.byte	0x50
 1848 07a6 26       		.uleb128 0x26
 1849 07a7 CB060000 		.4byte	0x6cb
 1850 07ab 02000000 		.4byte	.LBB68
 1851 07af 06000000 		.4byte	.LBE68-.LBB68
 1852 07b3 01       		.byte	0x1
 1853 07b4 1601     		.2byte	0x116
 1854 07b6 F4070000 		.4byte	0x7f4
 1855 07ba 27       		.uleb128 0x27
 1856 07bb 57060000 		.4byte	0x657
 1857 07bf 02000000 		.4byte	.LBB69
 1858 07c3 06000000 		.4byte	.LBE69-.LBB69
 1859 07c7 0F       		.byte	0xf
 1860 07c8 8401     		.2byte	0x184
 1861 07ca 27       		.uleb128 0x27
 1862 07cb 45060000 		.4byte	0x645
 1863 07cf 02000000 		.4byte	.LBB70
 1864 07d3 06000000 		.4byte	.LBE70-.LBB70
 1865 07d7 0B       		.byte	0xb
 1866 07d8 F101     		.2byte	0x1f1
 1867 07da 27       		.uleb128 0x27
ARM GAS  /tmp/ccicrD5g.s 			page 34


 1868 07db 2B060000 		.4byte	0x62b
 1869 07df 02000000 		.4byte	.LBB71
 1870 07e3 06000000 		.4byte	.LBE71-.LBB71
 1871 07e7 0B       		.byte	0xb
 1872 07e8 D001     		.2byte	0x1d0
 1873 07ea 28       		.uleb128 0x28
 1874 07eb 38060000 		.4byte	0x638
 1875 07ef 20       		.byte	0x20
 1876 07f0 00       		.byte	0
 1877 07f1 00       		.byte	0
 1878 07f2 00       		.byte	0
 1879 07f3 00       		.byte	0
 1880 07f4 26       		.uleb128 0x26
 1881 07f5 8E060000 		.4byte	0x68e
 1882 07f9 1C000000 		.4byte	.LBB73
 1883 07fd 06000000 		.4byte	.LBE73-.LBB73
 1884 0801 01       		.byte	0x1
 1885 0802 2201     		.2byte	0x122
 1886 0804 12080000 		.4byte	0x812
 1887 0808 29       		.uleb128 0x29
 1888 0809 9A060000 		.4byte	0x69a
 1889 080d 00000000 		.4byte	.LLST0
 1890 0811 00       		.byte	0
 1891 0812 26       		.uleb128 0x26
 1892 0813 DD060000 		.4byte	0x6dd
 1893 0817 22000000 		.4byte	.LBB75
 1894 081b 0A000000 		.4byte	.LBE75-.LBB75
 1895 081f 01       		.byte	0x1
 1896 0820 2A01     		.2byte	0x12a
 1897 0822 30080000 		.4byte	0x830
 1898 0826 29       		.uleb128 0x29
 1899 0827 EE060000 		.4byte	0x6ee
 1900 082b 13000000 		.4byte	.LLST1
 1901 082f 00       		.byte	0
 1902 0830 2A       		.uleb128 0x2a
 1903 0831 FA060000 		.4byte	0x6fa
 1904 0835 30000000 		.4byte	.LBB77
 1905 0839 00000000 		.4byte	.Ldebug_ranges0+0
 1906 083d 01       		.byte	0x1
 1907 083e 3101     		.2byte	0x131
 1908 0840 62080000 		.4byte	0x862
 1909 0844 29       		.uleb128 0x29
 1910 0845 0A070000 		.4byte	0x70a
 1911 0849 26000000 		.4byte	.LLST2
 1912 084d 2B       		.uleb128 0x2b
 1913 084e 00000000 		.4byte	.Ldebug_ranges0+0
 1914 0852 2C       		.uleb128 0x2c
 1915 0853 14070000 		.4byte	0x714
 1916 0857 39000000 		.4byte	.LLST3
 1917 085b 2D       		.uleb128 0x2d
 1918 085c 1E070000 		.4byte	0x71e
 1919 0860 00       		.byte	0
 1920 0861 00       		.byte	0
 1921 0862 2A       		.uleb128 0x2a
 1922 0863 D4060000 		.4byte	0x6d4
 1923 0867 48000000 		.4byte	.LBB82
 1924 086b 20000000 		.4byte	.Ldebug_ranges0+0x20
ARM GAS  /tmp/ccicrD5g.s 			page 35


 1925 086f 01       		.byte	0x1
 1926 0870 3201     		.2byte	0x132
 1927 0872 B3080000 		.4byte	0x8b3
 1928 0876 2E       		.uleb128 0x2e
 1929 0877 60060000 		.4byte	0x660
 1930 087b 48000000 		.4byte	.LBB83
 1931 087f 20000000 		.4byte	.Ldebug_ranges0+0x20
 1932 0883 0F       		.byte	0xf
 1933 0884 9A01     		.2byte	0x19a
 1934 0886 2E       		.uleb128 0x2e
 1935 0887 4E060000 		.4byte	0x64e
 1936 088b 48000000 		.4byte	.LBB84
 1937 088f 20000000 		.4byte	.Ldebug_ranges0+0x20
 1938 0893 0B       		.byte	0xb
 1939 0894 FC01     		.2byte	0x1fc
 1940 0896 2E       		.uleb128 0x2e
 1941 0897 2B060000 		.4byte	0x62b
 1942 089b 48000000 		.4byte	.LBB85
 1943 089f 20000000 		.4byte	.Ldebug_ranges0+0x20
 1944 08a3 0B       		.byte	0xb
 1945 08a4 E301     		.2byte	0x1e3
 1946 08a6 29       		.uleb128 0x29
 1947 08a7 38060000 		.4byte	0x638
 1948 08ab 4C000000 		.4byte	.LLST4
 1949 08af 00       		.byte	0
 1950 08b0 00       		.byte	0
 1951 08b1 00       		.byte	0
 1952 08b2 00       		.byte	0
 1953 08b3 27       		.uleb128 0x27
 1954 08b4 D4060000 		.4byte	0x6d4
 1955 08b8 60000000 		.4byte	.LBB93
 1956 08bc 06000000 		.4byte	.LBE93-.LBB93
 1957 08c0 01       		.byte	0x1
 1958 08c1 1B01     		.2byte	0x11b
 1959 08c3 27       		.uleb128 0x27
 1960 08c4 60060000 		.4byte	0x660
 1961 08c8 60000000 		.4byte	.LBB94
 1962 08cc 06000000 		.4byte	.LBE94-.LBB94
 1963 08d0 0F       		.byte	0xf
 1964 08d1 9A01     		.2byte	0x19a
 1965 08d3 27       		.uleb128 0x27
 1966 08d4 4E060000 		.4byte	0x64e
 1967 08d8 60000000 		.4byte	.LBB95
 1968 08dc 06000000 		.4byte	.LBE95-.LBB95
 1969 08e0 0B       		.byte	0xb
 1970 08e1 FC01     		.2byte	0x1fc
 1971 08e3 27       		.uleb128 0x27
 1972 08e4 2B060000 		.4byte	0x62b
 1973 08e8 60000000 		.4byte	.LBB96
 1974 08ec 06000000 		.4byte	.LBE96-.LBB96
 1975 08f0 0B       		.byte	0xb
 1976 08f1 E301     		.2byte	0x1e3
 1977 08f3 28       		.uleb128 0x28
 1978 08f4 38060000 		.4byte	0x638
 1979 08f8 00       		.byte	0
 1980 08f9 00       		.byte	0
 1981 08fa 00       		.byte	0
ARM GAS  /tmp/ccicrD5g.s 			page 36


 1982 08fb 00       		.byte	0
 1983 08fc 00       		.byte	0
 1984 08fd 00       		.byte	0
 1985 08fe 2F       		.uleb128 0x2f
 1986 08ff FC000000 		.4byte	.LASF118
 1987 0903 01       		.byte	0x1
 1988 0904 41       		.byte	0x41
 1989 0905 00000000 		.4byte	.LFB241
 1990 0909 14000000 		.4byte	.LFE241-.LFB241
 1991 090d 01       		.uleb128 0x1
 1992 090e 9C       		.byte	0x9c
 1993 090f 30090000 		.4byte	0x930
 1994 0913 30       		.uleb128 0x30
 1995 0914 AB060000 		.4byte	0x6ab
 1996 0918 00000000 		.4byte	.LBB98
 1997 091c 38000000 		.4byte	.Ldebug_ranges0+0x38
 1998 0920 01       		.byte	0x1
 1999 0921 43       		.byte	0x43
 2000 0922 31       		.uleb128 0x31
 2001 0923 B8060000 		.4byte	0x6b8
 2002 0927 06       		.uleb128 0x6
 2003 0928 03       		.byte	0x3
 2004 0929 00000000 		.4byte	ch
 2005 092d 9F       		.byte	0x9f
 2006 092e 00       		.byte	0
 2007 092f 00       		.byte	0
 2008 0930 32       		.uleb128 0x32
 2009 0931 FA060000 		.4byte	0x6fa
 2010 0935 00000000 		.4byte	.LFB242
 2011 0939 2C000000 		.4byte	.LFE242-.LFB242
 2012 093d 01       		.uleb128 0x1
 2013 093e 9C       		.byte	0x9c
 2014 093f 59090000 		.4byte	0x959
 2015 0943 29       		.uleb128 0x29
 2016 0944 0A070000 		.4byte	0x70a
 2017 0948 60000000 		.4byte	.LLST5
 2018 094c 33       		.uleb128 0x33
 2019 094d 14070000 		.4byte	0x714
 2020 0951 01       		.uleb128 0x1
 2021 0952 53       		.byte	0x53
 2022 0953 2D       		.uleb128 0x2d
 2023 0954 1E070000 		.4byte	0x71e
 2024 0958 00       		.byte	0
 2025 0959 2F       		.uleb128 0x2f
 2026 095a AA040000 		.4byte	.LASF119
 2027 095e 01       		.byte	0x1
 2028 095f FA       		.byte	0xfa
 2029 0960 00000000 		.4byte	.LFB243
 2030 0964 24000000 		.4byte	.LFE243-.LFB243
 2031 0968 01       		.uleb128 0x1
 2032 0969 9C       		.byte	0x9c
 2033 096a C6090000 		.4byte	0x9c6
 2034 096e 34       		.uleb128 0x34
 2035 096f F8030000 		.4byte	.LASF120
 2036 0973 01       		.byte	0x1
 2037 0974 FA       		.byte	0xfa
 2038 0975 E4000000 		.4byte	0xe4
ARM GAS  /tmp/ccicrD5g.s 			page 37


 2039 0979 89000000 		.4byte	.LLST6
 2040 097d 35       		.uleb128 0x35
 2041 097e 6F747000 		.ascii	"otp\000"
 2042 0982 01       		.byte	0x1
 2043 0983 FB       		.byte	0xfb
 2044 0984 27020000 		.4byte	0x227
 2045 0988 AA000000 		.4byte	.LLST7
 2046 098c 2A       		.uleb128 0x2a
 2047 098d 41070000 		.4byte	0x741
 2048 0991 04000000 		.4byte	.LBB102
 2049 0995 50000000 		.4byte	.Ldebug_ranges0+0x50
 2050 0999 01       		.byte	0x1
 2051 099a 0601     		.2byte	0x106
 2052 099c BC090000 		.4byte	0x9bc
 2053 09a0 31       		.uleb128 0x31
 2054 09a1 52070000 		.4byte	0x752
 2055 09a5 06       		.uleb128 0x6
 2056 09a6 03       		.byte	0x3
 2057 09a7 00000000 		.4byte	ch
 2058 09ab 9F       		.byte	0x9f
 2059 09ac 2B       		.uleb128 0x2b
 2060 09ad 50000000 		.4byte	.Ldebug_ranges0+0x50
 2061 09b1 2C       		.uleb128 0x2c
 2062 09b2 5E070000 		.4byte	0x75e
 2063 09b6 BD000000 		.4byte	.LLST8
 2064 09ba 00       		.byte	0
 2065 09bb 00       		.byte	0
 2066 09bc 36       		.uleb128 0x36
 2067 09bd 1E000000 		.4byte	.LVL20
 2068 09c1 030D0000 		.4byte	0xd03
 2069 09c5 00       		.byte	0
 2070 09c6 37       		.uleb128 0x37
 2071 09c7 E9060000 		.4byte	.LASF123
 2072 09cb 01       		.byte	0x1
 2073 09cc 4A01     		.2byte	0x14a
 2074 09ce 05010000 		.4byte	0x105
 2075 09d2 00000000 		.4byte	.LFB245
 2076 09d6 44000000 		.4byte	.LFE245-.LFB245
 2077 09da 01       		.uleb128 0x1
 2078 09db 9C       		.byte	0x9c
 2079 09dc 6E0A0000 		.4byte	0xa6e
 2080 09e0 38       		.uleb128 0x38
 2081 09e1 F8030000 		.4byte	.LASF120
 2082 09e5 01       		.byte	0x1
 2083 09e6 4A01     		.2byte	0x14a
 2084 09e8 E4000000 		.4byte	0xe4
 2085 09ec D0000000 		.4byte	.LLST9
 2086 09f0 38       		.uleb128 0x38
 2087 09f1 70030000 		.4byte	.LASF121
 2088 09f5 01       		.byte	0x1
 2089 09f6 4A01     		.2byte	0x14a
 2090 09f8 26010000 		.4byte	0x126
 2091 09fc 0A010000 		.4byte	.LLST10
 2092 0a00 39       		.uleb128 0x39
 2093 0a01 0A000000 		.4byte	.LBB110
 2094 0a05 1C000000 		.4byte	.LBE110-.LBB110
 2095 0a09 640A0000 		.4byte	0xa64
ARM GAS  /tmp/ccicrD5g.s 			page 38


 2096 0a0d 25       		.uleb128 0x25
 2097 0a0e 767400   		.ascii	"vt\000"
 2098 0a11 01       		.byte	0x1
 2099 0a12 4F01     		.2byte	0x14f
 2100 0a14 06030000 		.4byte	0x306
 2101 0a18 02       		.uleb128 0x2
 2102 0a19 91       		.byte	0x91
 2103 0a1a 5C       		.sleb128 -36
 2104 0a1b 3A       		.uleb128 0x3a
 2105 0a1c 16000000 		.4byte	.LVL23
 2106 0a20 1A0D0000 		.4byte	0xd1a
 2107 0a24 3F0A0000 		.4byte	0xa3f
 2108 0a28 3B       		.uleb128 0x3b
 2109 0a29 01       		.uleb128 0x1
 2110 0a2a 52       		.byte	0x52
 2111 0a2b 05       		.uleb128 0x5
 2112 0a2c 03       		.byte	0x3
 2113 0a2d 00000000 		.4byte	wakeup
 2114 0a31 3B       		.uleb128 0x3b
 2115 0a32 01       		.uleb128 0x1
 2116 0a33 51       		.byte	0x51
 2117 0a34 03       		.uleb128 0x3
 2118 0a35 F3       		.byte	0xf3
 2119 0a36 01       		.uleb128 0x1
 2120 0a37 51       		.byte	0x51
 2121 0a38 3B       		.uleb128 0x3b
 2122 0a39 01       		.uleb128 0x1
 2123 0a3a 50       		.byte	0x50
 2124 0a3b 02       		.uleb128 0x2
 2125 0a3c 91       		.byte	0x91
 2126 0a3d 5C       		.sleb128 -36
 2127 0a3e 00       		.byte	0
 2128 0a3f 3A       		.uleb128 0x3a
 2129 0a40 1C000000 		.4byte	.LVL24
 2130 0a44 59090000 		.4byte	0x959
 2131 0a48 530A0000 		.4byte	0xa53
 2132 0a4c 3B       		.uleb128 0x3b
 2133 0a4d 01       		.uleb128 0x1
 2134 0a4e 50       		.byte	0x50
 2135 0a4f 02       		.uleb128 0x2
 2136 0a50 75       		.byte	0x75
 2137 0a51 00       		.sleb128 0
 2138 0a52 00       		.byte	0
 2139 0a53 3C       		.uleb128 0x3c
 2140 0a54 26000000 		.4byte	.LVL26
 2141 0a58 3A0D0000 		.4byte	0xd3a
 2142 0a5c 3B       		.uleb128 0x3b
 2143 0a5d 01       		.uleb128 0x1
 2144 0a5e 50       		.byte	0x50
 2145 0a5f 02       		.uleb128 0x2
 2146 0a60 91       		.byte	0x91
 2147 0a61 5C       		.sleb128 -36
 2148 0a62 00       		.byte	0
 2149 0a63 00       		.byte	0
 2150 0a64 3D       		.uleb128 0x3d
 2151 0a65 34000000 		.4byte	.LVL28
 2152 0a69 59090000 		.4byte	0x959
ARM GAS  /tmp/ccicrD5g.s 			page 39


 2153 0a6d 00       		.byte	0
 2154 0a6e 3E       		.uleb128 0x3e
 2155 0a6f 9C020000 		.4byte	.LASF122
 2156 0a73 01       		.byte	0x1
 2157 0a74 6F01     		.2byte	0x16f
 2158 0a76 00000000 		.4byte	.LFB246
 2159 0a7a 60000000 		.4byte	.LFE246-.LFB246
 2160 0a7e 01       		.uleb128 0x1
 2161 0a7f 9C       		.byte	0x9c
 2162 0a80 390B0000 		.4byte	0xb39
 2163 0a84 3F       		.uleb128 0x3f
 2164 0a85 6E747000 		.ascii	"ntp\000"
 2165 0a89 01       		.byte	0x1
 2166 0a8a 6F01     		.2byte	0x16f
 2167 0a8c 27020000 		.4byte	0x227
 2168 0a90 44010000 		.4byte	.LLST11
 2169 0a94 3F       		.uleb128 0x3f
 2170 0a95 6D736700 		.ascii	"msg\000"
 2171 0a99 01       		.byte	0x1
 2172 0a9a 6F01     		.2byte	0x16f
 2173 0a9c 05010000 		.4byte	0x105
 2174 0aa0 7B010000 		.4byte	.LLST12
 2175 0aa4 40       		.uleb128 0x40
 2176 0aa5 42040000 		.4byte	.LASF116
 2177 0aa9 490B0000 		.4byte	0xb49
 2178 0aad 26       		.uleb128 0x26
 2179 0aae FA060000 		.4byte	0x6fa
 2180 0ab2 16000000 		.4byte	.LBB111
 2181 0ab6 18000000 		.4byte	.LBE111-.LBB111
 2182 0aba 01       		.byte	0x1
 2183 0abb 8001     		.2byte	0x180
 2184 0abd E30A0000 		.4byte	0xae3
 2185 0ac1 29       		.uleb128 0x29
 2186 0ac2 0A070000 		.4byte	0x70a
 2187 0ac6 C0010000 		.4byte	.LLST13
 2188 0aca 41       		.uleb128 0x41
 2189 0acb 16000000 		.4byte	.LBB112
 2190 0acf 18000000 		.4byte	.LBE112-.LBB112
 2191 0ad3 2C       		.uleb128 0x2c
 2192 0ad4 14070000 		.4byte	0x714
 2193 0ad8 D3010000 		.4byte	.LLST14
 2194 0adc 2D       		.uleb128 0x2d
 2195 0add 1E070000 		.4byte	0x71e
 2196 0ae1 00       		.byte	0
 2197 0ae2 00       		.byte	0
 2198 0ae3 2B       		.uleb128 0x2b
 2199 0ae4 78000000 		.4byte	.Ldebug_ranges0+0x78
 2200 0ae8 21       		.uleb128 0x21
 2201 0ae9 6F747000 		.ascii	"otp\000"
 2202 0aed 01       		.byte	0x1
 2203 0aee 8301     		.2byte	0x183
 2204 0af0 27020000 		.4byte	0x227
 2205 0af4 2A       		.uleb128 0x2a
 2206 0af5 FA060000 		.4byte	0x6fa
 2207 0af9 32000000 		.4byte	.LBB114
 2208 0afd 90000000 		.4byte	.Ldebug_ranges0+0x90
 2209 0b01 01       		.byte	0x1
ARM GAS  /tmp/ccicrD5g.s 			page 40


 2210 0b02 8301     		.2byte	0x183
 2211 0b04 260B0000 		.4byte	0xb26
 2212 0b08 29       		.uleb128 0x29
 2213 0b09 0A070000 		.4byte	0x70a
 2214 0b0d E6010000 		.4byte	.LLST15
 2215 0b11 2B       		.uleb128 0x2b
 2216 0b12 90000000 		.4byte	.Ldebug_ranges0+0x90
 2217 0b16 2C       		.uleb128 0x2c
 2218 0b17 14070000 		.4byte	0x714
 2219 0b1b 04020000 		.4byte	.LLST16
 2220 0b1f 2D       		.uleb128 0x2d
 2221 0b20 1E070000 		.4byte	0x71e
 2222 0b24 00       		.byte	0
 2223 0b25 00       		.byte	0
 2224 0b26 42       		.uleb128 0x42
 2225 0b27 5C000000 		.4byte	.LVL40
 2226 0b2b 030D0000 		.4byte	0xd03
 2227 0b2f 3B       		.uleb128 0x3b
 2228 0b30 01       		.uleb128 0x1
 2229 0b31 50       		.byte	0x50
 2230 0b32 03       		.uleb128 0x3
 2231 0b33 F3       		.byte	0xf3
 2232 0b34 01       		.uleb128 0x1
 2233 0b35 50       		.byte	0x50
 2234 0b36 00       		.byte	0
 2235 0b37 00       		.byte	0
 2236 0b38 00       		.byte	0
 2237 0b39 15       		.uleb128 0x15
 2238 0b3a ED050000 		.4byte	0x5ed
 2239 0b3e 490B0000 		.4byte	0xb49
 2240 0b42 16       		.uleb128 0x16
 2241 0b43 3A040000 		.4byte	0x43a
 2242 0b47 0C       		.byte	0xc
 2243 0b48 00       		.byte	0
 2244 0b49 13       		.uleb128 0x13
 2245 0b4a 390B0000 		.4byte	0xb39
 2246 0b4e 37       		.uleb128 0x37
 2247 0b4f 9E010000 		.4byte	.LASF124
 2248 0b53 01       		.byte	0x1
 2249 0b54 AC01     		.2byte	0x1ac
 2250 0b56 87060000 		.4byte	0x687
 2251 0b5a 00000000 		.4byte	.LFB248
 2252 0b5e 18000000 		.4byte	.LFE248-.LFB248
 2253 0b62 01       		.uleb128 0x1
 2254 0b63 9C       		.byte	0x9c
 2255 0b64 910B0000 		.4byte	0xb91
 2256 0b68 25       		.uleb128 0x25
 2257 0b69 703100   		.ascii	"p1\000"
 2258 0b6c 01       		.byte	0x1
 2259 0b6d AD01     		.2byte	0x1ad
 2260 0b6f FA000000 		.4byte	0xfa
 2261 0b73 08       		.uleb128 0x8
 2262 0b74 03       		.byte	0x3
 2263 0b75 00000000 		.4byte	ch
 2264 0b79 06       		.byte	0x6
 2265 0b7a 23       		.byte	0x23
 2266 0b7b 08       		.uleb128 0x8
ARM GAS  /tmp/ccicrD5g.s 			page 41


 2267 0b7c 25       		.uleb128 0x25
 2268 0b7d 703200   		.ascii	"p2\000"
 2269 0b80 01       		.byte	0x1
 2270 0b81 AE01     		.2byte	0x1ae
 2271 0b83 FA000000 		.4byte	0xfa
 2272 0b87 08       		.uleb128 0x8
 2273 0b88 03       		.byte	0x3
 2274 0b89 18000000 		.4byte	ch+24
 2275 0b8d 06       		.byte	0x6
 2276 0b8e 23       		.byte	0x23
 2277 0b8f 08       		.uleb128 0x8
 2278 0b90 00       		.byte	0
 2279 0b91 3E       		.uleb128 0x3e
 2280 0b92 26030000 		.4byte	.LASF125
 2281 0b96 01       		.byte	0x1
 2282 0b97 C701     		.2byte	0x1c7
 2283 0b99 00000000 		.4byte	.LFB249
 2284 0b9d 3C000000 		.4byte	.LFE249-.LFB249
 2285 0ba1 01       		.uleb128 0x1
 2286 0ba2 9C       		.byte	0x9c
 2287 0ba3 230C0000 		.4byte	0xc23
 2288 0ba7 43       		.uleb128 0x43
 2289 0ba8 6F747000 		.ascii	"otp\000"
 2290 0bac 01       		.byte	0x1
 2291 0bad C801     		.2byte	0x1c8
 2292 0baf 27020000 		.4byte	0x227
 2293 0bb3 27020000 		.4byte	.LLST17
 2294 0bb7 2A       		.uleb128 0x2a
 2295 0bb8 41070000 		.4byte	0x741
 2296 0bbc 02000000 		.4byte	.LBB119
 2297 0bc0 A8000000 		.4byte	.Ldebug_ranges0+0xa8
 2298 0bc4 01       		.byte	0x1
 2299 0bc5 CC01     		.2byte	0x1cc
 2300 0bc7 E70B0000 		.4byte	0xbe7
 2301 0bcb 31       		.uleb128 0x31
 2302 0bcc 52070000 		.4byte	0x752
 2303 0bd0 06       		.uleb128 0x6
 2304 0bd1 03       		.byte	0x3
 2305 0bd2 00000000 		.4byte	ch
 2306 0bd6 9F       		.byte	0x9f
 2307 0bd7 2B       		.uleb128 0x2b
 2308 0bd8 A8000000 		.4byte	.Ldebug_ranges0+0xa8
 2309 0bdc 2C       		.uleb128 0x2c
 2310 0bdd 5E070000 		.4byte	0x75e
 2311 0be1 45020000 		.4byte	.LLST18
 2312 0be5 00       		.byte	0
 2313 0be6 00       		.byte	0
 2314 0be7 2A       		.uleb128 0x2a
 2315 0be8 FA060000 		.4byte	0x6fa
 2316 0bec 0E000000 		.4byte	.LBB126
 2317 0bf0 D0000000 		.4byte	.Ldebug_ranges0+0xd0
 2318 0bf4 01       		.byte	0x1
 2319 0bf5 D601     		.2byte	0x1d6
 2320 0bf7 190C0000 		.4byte	0xc19
 2321 0bfb 29       		.uleb128 0x29
 2322 0bfc 0A070000 		.4byte	0x70a
 2323 0c00 58020000 		.4byte	.LLST19
ARM GAS  /tmp/ccicrD5g.s 			page 42


 2324 0c04 2B       		.uleb128 0x2b
 2325 0c05 D0000000 		.4byte	.Ldebug_ranges0+0xd0
 2326 0c09 2C       		.uleb128 0x2c
 2327 0c0a 14070000 		.4byte	0x714
 2328 0c0e 76020000 		.4byte	.LLST20
 2329 0c12 2D       		.uleb128 0x2d
 2330 0c13 1E070000 		.4byte	0x71e
 2331 0c17 00       		.byte	0
 2332 0c18 00       		.byte	0
 2333 0c19 36       		.uleb128 0x36
 2334 0c1a 36000000 		.4byte	.LVL48
 2335 0c1e 030D0000 		.4byte	0xd03
 2336 0c22 00       		.byte	0
 2337 0c23 3E       		.uleb128 0x3e
 2338 0c24 24000000 		.4byte	.LASF126
 2339 0c28 01       		.byte	0x1
 2340 0c29 E301     		.2byte	0x1e3
 2341 0c2b 00000000 		.4byte	.LFB250
 2342 0c2f 3C000000 		.4byte	.LFE250-.LFB250
 2343 0c33 01       		.uleb128 0x1
 2344 0c34 9C       		.byte	0x9c
 2345 0c35 920C0000 		.4byte	0xc92
 2346 0c39 43       		.uleb128 0x43
 2347 0c3a 6F747000 		.ascii	"otp\000"
 2348 0c3e 01       		.byte	0x1
 2349 0c3f E401     		.2byte	0x1e4
 2350 0c41 27020000 		.4byte	0x227
 2351 0c45 99020000 		.4byte	.LLST21
 2352 0c49 43       		.uleb128 0x43
 2353 0c4a 637000   		.ascii	"cp\000"
 2354 0c4d 01       		.byte	0x1
 2355 0c4e E401     		.2byte	0x1e4
 2356 0c50 27020000 		.4byte	0x227
 2357 0c54 B7020000 		.4byte	.LLST22
 2358 0c58 2A       		.uleb128 0x2a
 2359 0c59 41070000 		.4byte	0x741
 2360 0c5d 02000000 		.4byte	.LBB133
 2361 0c61 F0000000 		.4byte	.Ldebug_ranges0+0xf0
 2362 0c65 01       		.byte	0x1
 2363 0c66 E801     		.2byte	0x1e8
 2364 0c68 880C0000 		.4byte	0xc88
 2365 0c6c 31       		.uleb128 0x31
 2366 0c6d 52070000 		.4byte	0x752
 2367 0c71 06       		.uleb128 0x6
 2368 0c72 03       		.byte	0x3
 2369 0c73 00000000 		.4byte	ch
 2370 0c77 9F       		.byte	0x9f
 2371 0c78 2B       		.uleb128 0x2b
 2372 0c79 F0000000 		.4byte	.Ldebug_ranges0+0xf0
 2373 0c7d 2C       		.uleb128 0x2c
 2374 0c7e 5E070000 		.4byte	0x75e
 2375 0c82 DA020000 		.4byte	.LLST23
 2376 0c86 00       		.byte	0
 2377 0c87 00       		.byte	0
 2378 0c88 36       		.uleb128 0x36
 2379 0c89 36000000 		.4byte	.LVL54
 2380 0c8d 030D0000 		.4byte	0xd03
ARM GAS  /tmp/ccicrD5g.s 			page 43


 2381 0c91 00       		.byte	0
 2382 0c92 3E       		.uleb128 0x3e
 2383 0c93 C8010000 		.4byte	.LASF127
 2384 0c97 01       		.byte	0x1
 2385 0c98 9601     		.2byte	0x196
 2386 0c9a 00000000 		.4byte	.LFB247
 2387 0c9e 18000000 		.4byte	.LFE247-.LFB247
 2388 0ca2 01       		.uleb128 0x1
 2389 0ca3 9C       		.byte	0x9c
 2390 0ca4 C20C0000 		.4byte	0xcc2
 2391 0ca8 44       		.uleb128 0x44
 2392 0ca9 6A070000 		.4byte	0x76a
 2393 0cad 00000000 		.4byte	.LBB141
 2394 0cb1 06000000 		.4byte	.LBE141-.LBB141
 2395 0cb5 01       		.byte	0x1
 2396 0cb6 9A01     		.2byte	0x19a
 2397 0cb8 36       		.uleb128 0x36
 2398 0cb9 14000000 		.4byte	.LVL55
 2399 0cbd 230C0000 		.4byte	0xc23
 2400 0cc1 00       		.byte	0
 2401 0cc2 3E       		.uleb128 0x3e
 2402 0cc3 EA010000 		.4byte	.LASF128
 2403 0cc7 01       		.byte	0x1
 2404 0cc8 0802     		.2byte	0x208
 2405 0cca 00000000 		.4byte	.LFB251
 2406 0cce 04000000 		.4byte	.LFE251-.LFB251
 2407 0cd2 01       		.uleb128 0x1
 2408 0cd3 9C       		.byte	0x9c
 2409 0cd4 E20C0000 		.4byte	0xce2
 2410 0cd8 36       		.uleb128 0x36
 2411 0cd9 04000000 		.4byte	.LVL56
 2412 0cdd 230C0000 		.4byte	0xc23
 2413 0ce1 00       		.byte	0
 2414 0ce2 45       		.uleb128 0x45
 2415 0ce3 D7000000 		.4byte	.LASF129
 2416 0ce7 10       		.byte	0x10
 2417 0ce8 FA06     		.2byte	0x6fa
 2418 0cea EE0C0000 		.4byte	0xcee
 2419 0cee 14       		.uleb128 0x14
 2420 0cef AD000000 		.4byte	0xad
 2421 0cf3 46       		.uleb128 0x46
 2422 0cf4 636800   		.ascii	"ch\000"
 2423 0cf7 01       		.byte	0x1
 2424 0cf8 2A       		.byte	0x2a
 2425 0cf9 D3030000 		.4byte	0x3d3
 2426 0cfd 05       		.uleb128 0x5
 2427 0cfe 03       		.byte	0x3
 2428 0cff 00000000 		.4byte	ch
 2429 0d03 47       		.uleb128 0x47
 2430 0d04 4A020000 		.4byte	.LASF130
 2431 0d08 0B       		.byte	0xb
 2432 0d09 7001     		.2byte	0x170
 2433 0d0b 1A0D0000 		.4byte	0xd1a
 2434 0d0f 0C       		.uleb128 0xc
 2435 0d10 27020000 		.4byte	0x227
 2436 0d14 0C       		.uleb128 0xc
 2437 0d15 27020000 		.4byte	0x227
ARM GAS  /tmp/ccicrD5g.s 			page 44


 2438 0d19 00       		.byte	0
 2439 0d1a 48       		.uleb128 0x48
 2440 0d1b CC020000 		.4byte	.LASF131
 2441 0d1f 0E       		.byte	0xe
 2442 0d20 BC       		.byte	0xbc
 2443 0d21 3A0D0000 		.4byte	0xd3a
 2444 0d25 0C       		.uleb128 0xc
 2445 0d26 F4050000 		.4byte	0x5f4
 2446 0d2a 0C       		.uleb128 0xc
 2447 0d2b 26010000 		.4byte	0x126
 2448 0d2f 0C       		.uleb128 0xc
 2449 0d30 E8020000 		.4byte	0x2e8
 2450 0d34 0C       		.uleb128 0xc
 2451 0d35 04030000 		.4byte	0x304
 2452 0d39 00       		.byte	0
 2453 0d3a 49       		.uleb128 0x49
 2454 0d3b 98000000 		.4byte	.LASF138
 2455 0d3f 0E       		.byte	0xe
 2456 0d40 BE       		.byte	0xbe
 2457 0d41 0C       		.uleb128 0xc
 2458 0d42 F4050000 		.4byte	0x5f4
 2459 0d46 00       		.byte	0
 2460 0d47 00       		.byte	0
 2461              		.section	.debug_abbrev,"",%progbits
 2462              	.Ldebug_abbrev0:
 2463 0000 01       		.uleb128 0x1
 2464 0001 11       		.uleb128 0x11
 2465 0002 01       		.byte	0x1
 2466 0003 25       		.uleb128 0x25
 2467 0004 0E       		.uleb128 0xe
 2468 0005 13       		.uleb128 0x13
 2469 0006 0B       		.uleb128 0xb
 2470 0007 03       		.uleb128 0x3
 2471 0008 0E       		.uleb128 0xe
 2472 0009 1B       		.uleb128 0x1b
 2473 000a 0E       		.uleb128 0xe
 2474 000b 55       		.uleb128 0x55
 2475 000c 17       		.uleb128 0x17
 2476 000d 11       		.uleb128 0x11
 2477 000e 01       		.uleb128 0x1
 2478 000f 10       		.uleb128 0x10
 2479 0010 17       		.uleb128 0x17
 2480 0011 00       		.byte	0
 2481 0012 00       		.byte	0
 2482 0013 02       		.uleb128 0x2
 2483 0014 24       		.uleb128 0x24
 2484 0015 00       		.byte	0
 2485 0016 0B       		.uleb128 0xb
 2486 0017 0B       		.uleb128 0xb
 2487 0018 3E       		.uleb128 0x3e
 2488 0019 0B       		.uleb128 0xb
 2489 001a 03       		.uleb128 0x3
 2490 001b 08       		.uleb128 0x8
 2491 001c 00       		.byte	0
 2492 001d 00       		.byte	0
 2493 001e 03       		.uleb128 0x3
 2494 001f 16       		.uleb128 0x16
ARM GAS  /tmp/ccicrD5g.s 			page 45


 2495 0020 00       		.byte	0
 2496 0021 03       		.uleb128 0x3
 2497 0022 0E       		.uleb128 0xe
 2498 0023 3A       		.uleb128 0x3a
 2499 0024 0B       		.uleb128 0xb
 2500 0025 3B       		.uleb128 0x3b
 2501 0026 0B       		.uleb128 0xb
 2502 0027 49       		.uleb128 0x49
 2503 0028 13       		.uleb128 0x13
 2504 0029 00       		.byte	0
 2505 002a 00       		.byte	0
 2506 002b 04       		.uleb128 0x4
 2507 002c 24       		.uleb128 0x24
 2508 002d 00       		.byte	0
 2509 002e 0B       		.uleb128 0xb
 2510 002f 0B       		.uleb128 0xb
 2511 0030 3E       		.uleb128 0x3e
 2512 0031 0B       		.uleb128 0xb
 2513 0032 03       		.uleb128 0x3
 2514 0033 0E       		.uleb128 0xe
 2515 0034 00       		.byte	0
 2516 0035 00       		.byte	0
 2517 0036 05       		.uleb128 0x5
 2518 0037 13       		.uleb128 0x13
 2519 0038 01       		.byte	0x1
 2520 0039 03       		.uleb128 0x3
 2521 003a 0E       		.uleb128 0xe
 2522 003b 0B       		.uleb128 0xb
 2523 003c 0B       		.uleb128 0xb
 2524 003d 3A       		.uleb128 0x3a
 2525 003e 0B       		.uleb128 0xb
 2526 003f 3B       		.uleb128 0x3b
 2527 0040 0B       		.uleb128 0xb
 2528 0041 01       		.uleb128 0x1
 2529 0042 13       		.uleb128 0x13
 2530 0043 00       		.byte	0
 2531 0044 00       		.byte	0
 2532 0045 06       		.uleb128 0x6
 2533 0046 0D       		.uleb128 0xd
 2534 0047 00       		.byte	0
 2535 0048 03       		.uleb128 0x3
 2536 0049 0E       		.uleb128 0xe
 2537 004a 3A       		.uleb128 0x3a
 2538 004b 0B       		.uleb128 0xb
 2539 004c 3B       		.uleb128 0x3b
 2540 004d 0B       		.uleb128 0xb
 2541 004e 49       		.uleb128 0x49
 2542 004f 13       		.uleb128 0x13
 2543 0050 38       		.uleb128 0x38
 2544 0051 0B       		.uleb128 0xb
 2545 0052 00       		.byte	0
 2546 0053 00       		.byte	0
 2547 0054 07       		.uleb128 0x7
 2548 0055 0D       		.uleb128 0xd
 2549 0056 00       		.byte	0
 2550 0057 03       		.uleb128 0x3
 2551 0058 08       		.uleb128 0x8
ARM GAS  /tmp/ccicrD5g.s 			page 46


 2552 0059 3A       		.uleb128 0x3a
 2553 005a 0B       		.uleb128 0xb
 2554 005b 3B       		.uleb128 0x3b
 2555 005c 05       		.uleb128 0x5
 2556 005d 49       		.uleb128 0x49
 2557 005e 13       		.uleb128 0x13
 2558 005f 38       		.uleb128 0x38
 2559 0060 0B       		.uleb128 0xb
 2560 0061 00       		.byte	0
 2561 0062 00       		.byte	0
 2562 0063 08       		.uleb128 0x8
 2563 0064 0D       		.uleb128 0xd
 2564 0065 00       		.byte	0
 2565 0066 03       		.uleb128 0x3
 2566 0067 0E       		.uleb128 0xe
 2567 0068 3A       		.uleb128 0x3a
 2568 0069 0B       		.uleb128 0xb
 2569 006a 3B       		.uleb128 0x3b
 2570 006b 05       		.uleb128 0x5
 2571 006c 49       		.uleb128 0x49
 2572 006d 13       		.uleb128 0x13
 2573 006e 38       		.uleb128 0x38
 2574 006f 0B       		.uleb128 0xb
 2575 0070 00       		.byte	0
 2576 0071 00       		.byte	0
 2577 0072 09       		.uleb128 0x9
 2578 0073 0F       		.uleb128 0xf
 2579 0074 00       		.byte	0
 2580 0075 0B       		.uleb128 0xb
 2581 0076 0B       		.uleb128 0xb
 2582 0077 49       		.uleb128 0x49
 2583 0078 13       		.uleb128 0x13
 2584 0079 00       		.byte	0
 2585 007a 00       		.byte	0
 2586 007b 0A       		.uleb128 0xa
 2587 007c 13       		.uleb128 0x13
 2588 007d 01       		.byte	0x1
 2589 007e 03       		.uleb128 0x3
 2590 007f 0E       		.uleb128 0xe
 2591 0080 0B       		.uleb128 0xb
 2592 0081 0B       		.uleb128 0xb
 2593 0082 3A       		.uleb128 0x3a
 2594 0083 0B       		.uleb128 0xb
 2595 0084 3B       		.uleb128 0x3b
 2596 0085 05       		.uleb128 0x5
 2597 0086 01       		.uleb128 0x1
 2598 0087 13       		.uleb128 0x13
 2599 0088 00       		.byte	0
 2600 0089 00       		.byte	0
 2601 008a 0B       		.uleb128 0xb
 2602 008b 15       		.uleb128 0x15
 2603 008c 01       		.byte	0x1
 2604 008d 27       		.uleb128 0x27
 2605 008e 19       		.uleb128 0x19
 2606 008f 01       		.uleb128 0x1
 2607 0090 13       		.uleb128 0x13
 2608 0091 00       		.byte	0
ARM GAS  /tmp/ccicrD5g.s 			page 47


 2609 0092 00       		.byte	0
 2610 0093 0C       		.uleb128 0xc
 2611 0094 05       		.uleb128 0x5
 2612 0095 00       		.byte	0
 2613 0096 49       		.uleb128 0x49
 2614 0097 13       		.uleb128 0x13
 2615 0098 00       		.byte	0
 2616 0099 00       		.byte	0
 2617 009a 0D       		.uleb128 0xd
 2618 009b 0F       		.uleb128 0xf
 2619 009c 00       		.byte	0
 2620 009d 0B       		.uleb128 0xb
 2621 009e 0B       		.uleb128 0xb
 2622 009f 00       		.byte	0
 2623 00a0 00       		.byte	0
 2624 00a1 0E       		.uleb128 0xe
 2625 00a2 13       		.uleb128 0x13
 2626 00a3 01       		.byte	0x1
 2627 00a4 03       		.uleb128 0x3
 2628 00a5 0E       		.uleb128 0xe
 2629 00a6 0B       		.uleb128 0xb
 2630 00a7 05       		.uleb128 0x5
 2631 00a8 3A       		.uleb128 0x3a
 2632 00a9 0B       		.uleb128 0xb
 2633 00aa 3B       		.uleb128 0x3b
 2634 00ab 05       		.uleb128 0x5
 2635 00ac 01       		.uleb128 0x1
 2636 00ad 13       		.uleb128 0x13
 2637 00ae 00       		.byte	0
 2638 00af 00       		.byte	0
 2639 00b0 0F       		.uleb128 0xf
 2640 00b1 0D       		.uleb128 0xd
 2641 00b2 00       		.byte	0
 2642 00b3 03       		.uleb128 0x3
 2643 00b4 08       		.uleb128 0x8
 2644 00b5 3A       		.uleb128 0x3a
 2645 00b6 0B       		.uleb128 0xb
 2646 00b7 3B       		.uleb128 0x3b
 2647 00b8 0B       		.uleb128 0xb
 2648 00b9 49       		.uleb128 0x49
 2649 00ba 13       		.uleb128 0x13
 2650 00bb 38       		.uleb128 0x38
 2651 00bc 0B       		.uleb128 0xb
 2652 00bd 00       		.byte	0
 2653 00be 00       		.byte	0
 2654 00bf 10       		.uleb128 0x10
 2655 00c0 13       		.uleb128 0x13
 2656 00c1 01       		.byte	0x1
 2657 00c2 0B       		.uleb128 0xb
 2658 00c3 0B       		.uleb128 0xb
 2659 00c4 3A       		.uleb128 0x3a
 2660 00c5 0B       		.uleb128 0xb
 2661 00c6 3B       		.uleb128 0x3b
 2662 00c7 0B       		.uleb128 0xb
 2663 00c8 01       		.uleb128 0x1
 2664 00c9 13       		.uleb128 0x13
 2665 00ca 00       		.byte	0
ARM GAS  /tmp/ccicrD5g.s 			page 48


 2666 00cb 00       		.byte	0
 2667 00cc 11       		.uleb128 0x11
 2668 00cd 17       		.uleb128 0x17
 2669 00ce 01       		.byte	0x1
 2670 00cf 0B       		.uleb128 0xb
 2671 00d0 0B       		.uleb128 0xb
 2672 00d1 3A       		.uleb128 0x3a
 2673 00d2 0B       		.uleb128 0xb
 2674 00d3 3B       		.uleb128 0x3b
 2675 00d4 0B       		.uleb128 0xb
 2676 00d5 01       		.uleb128 0x1
 2677 00d6 13       		.uleb128 0x13
 2678 00d7 00       		.byte	0
 2679 00d8 00       		.byte	0
 2680 00d9 12       		.uleb128 0x12
 2681 00da 0D       		.uleb128 0xd
 2682 00db 00       		.byte	0
 2683 00dc 03       		.uleb128 0x3
 2684 00dd 0E       		.uleb128 0xe
 2685 00de 3A       		.uleb128 0x3a
 2686 00df 0B       		.uleb128 0xb
 2687 00e0 3B       		.uleb128 0x3b
 2688 00e1 05       		.uleb128 0x5
 2689 00e2 49       		.uleb128 0x49
 2690 00e3 13       		.uleb128 0x13
 2691 00e4 00       		.byte	0
 2692 00e5 00       		.byte	0
 2693 00e6 13       		.uleb128 0x13
 2694 00e7 26       		.uleb128 0x26
 2695 00e8 00       		.byte	0
 2696 00e9 49       		.uleb128 0x49
 2697 00ea 13       		.uleb128 0x13
 2698 00eb 00       		.byte	0
 2699 00ec 00       		.byte	0
 2700 00ed 14       		.uleb128 0x14
 2701 00ee 35       		.uleb128 0x35
 2702 00ef 00       		.byte	0
 2703 00f0 49       		.uleb128 0x49
 2704 00f1 13       		.uleb128 0x13
 2705 00f2 00       		.byte	0
 2706 00f3 00       		.byte	0
 2707 00f4 15       		.uleb128 0x15
 2708 00f5 01       		.uleb128 0x1
 2709 00f6 01       		.byte	0x1
 2710 00f7 49       		.uleb128 0x49
 2711 00f8 13       		.uleb128 0x13
 2712 00f9 01       		.uleb128 0x1
 2713 00fa 13       		.uleb128 0x13
 2714 00fb 00       		.byte	0
 2715 00fc 00       		.byte	0
 2716 00fd 16       		.uleb128 0x16
 2717 00fe 21       		.uleb128 0x21
 2718 00ff 00       		.byte	0
 2719 0100 49       		.uleb128 0x49
 2720 0101 13       		.uleb128 0x13
 2721 0102 2F       		.uleb128 0x2f
 2722 0103 0B       		.uleb128 0xb
ARM GAS  /tmp/ccicrD5g.s 			page 49


 2723 0104 00       		.byte	0
 2724 0105 00       		.byte	0
 2725 0106 17       		.uleb128 0x17
 2726 0107 2E       		.uleb128 0x2e
 2727 0108 01       		.byte	0x1
 2728 0109 03       		.uleb128 0x3
 2729 010a 0E       		.uleb128 0xe
 2730 010b 3A       		.uleb128 0x3a
 2731 010c 0B       		.uleb128 0xb
 2732 010d 3B       		.uleb128 0x3b
 2733 010e 05       		.uleb128 0x5
 2734 010f 27       		.uleb128 0x27
 2735 0110 19       		.uleb128 0x19
 2736 0111 20       		.uleb128 0x20
 2737 0112 0B       		.uleb128 0xb
 2738 0113 01       		.uleb128 0x1
 2739 0114 13       		.uleb128 0x13
 2740 0115 00       		.byte	0
 2741 0116 00       		.byte	0
 2742 0117 18       		.uleb128 0x18
 2743 0118 05       		.uleb128 0x5
 2744 0119 00       		.byte	0
 2745 011a 03       		.uleb128 0x3
 2746 011b 0E       		.uleb128 0xe
 2747 011c 3A       		.uleb128 0x3a
 2748 011d 0B       		.uleb128 0xb
 2749 011e 3B       		.uleb128 0x3b
 2750 011f 05       		.uleb128 0x5
 2751 0120 49       		.uleb128 0x49
 2752 0121 13       		.uleb128 0x13
 2753 0122 00       		.byte	0
 2754 0123 00       		.byte	0
 2755 0124 19       		.uleb128 0x19
 2756 0125 2E       		.uleb128 0x2e
 2757 0126 00       		.byte	0
 2758 0127 03       		.uleb128 0x3
 2759 0128 0E       		.uleb128 0xe
 2760 0129 3A       		.uleb128 0x3a
 2761 012a 0B       		.uleb128 0xb
 2762 012b 3B       		.uleb128 0x3b
 2763 012c 05       		.uleb128 0x5
 2764 012d 27       		.uleb128 0x27
 2765 012e 19       		.uleb128 0x19
 2766 012f 20       		.uleb128 0x20
 2767 0130 0B       		.uleb128 0xb
 2768 0131 00       		.byte	0
 2769 0132 00       		.byte	0
 2770 0133 1A       		.uleb128 0x1a
 2771 0134 2E       		.uleb128 0x2e
 2772 0135 01       		.byte	0x1
 2773 0136 03       		.uleb128 0x3
 2774 0137 0E       		.uleb128 0xe
 2775 0138 3A       		.uleb128 0x3a
 2776 0139 0B       		.uleb128 0xb
 2777 013a 3B       		.uleb128 0x3b
 2778 013b 05       		.uleb128 0x5
 2779 013c 27       		.uleb128 0x27
ARM GAS  /tmp/ccicrD5g.s 			page 50


 2780 013d 19       		.uleb128 0x19
 2781 013e 49       		.uleb128 0x49
 2782 013f 13       		.uleb128 0x13
 2783 0140 20       		.uleb128 0x20
 2784 0141 0B       		.uleb128 0xb
 2785 0142 01       		.uleb128 0x1
 2786 0143 13       		.uleb128 0x13
 2787 0144 00       		.byte	0
 2788 0145 00       		.byte	0
 2789 0146 1B       		.uleb128 0x1b
 2790 0147 05       		.uleb128 0x5
 2791 0148 00       		.byte	0
 2792 0149 03       		.uleb128 0x3
 2793 014a 08       		.uleb128 0x8
 2794 014b 3A       		.uleb128 0x3a
 2795 014c 0B       		.uleb128 0xb
 2796 014d 3B       		.uleb128 0x3b
 2797 014e 05       		.uleb128 0x5
 2798 014f 49       		.uleb128 0x49
 2799 0150 13       		.uleb128 0x13
 2800 0151 00       		.byte	0
 2801 0152 00       		.byte	0
 2802 0153 1C       		.uleb128 0x1c
 2803 0154 2E       		.uleb128 0x2e
 2804 0155 01       		.byte	0x1
 2805 0156 03       		.uleb128 0x3
 2806 0157 0E       		.uleb128 0xe
 2807 0158 3A       		.uleb128 0x3a
 2808 0159 0B       		.uleb128 0xb
 2809 015a 3B       		.uleb128 0x3b
 2810 015b 0B       		.uleb128 0xb
 2811 015c 27       		.uleb128 0x27
 2812 015d 19       		.uleb128 0x19
 2813 015e 20       		.uleb128 0x20
 2814 015f 0B       		.uleb128 0xb
 2815 0160 01       		.uleb128 0x1
 2816 0161 13       		.uleb128 0x13
 2817 0162 00       		.byte	0
 2818 0163 00       		.byte	0
 2819 0164 1D       		.uleb128 0x1d
 2820 0165 05       		.uleb128 0x5
 2821 0166 00       		.byte	0
 2822 0167 03       		.uleb128 0x3
 2823 0168 08       		.uleb128 0x8
 2824 0169 3A       		.uleb128 0x3a
 2825 016a 0B       		.uleb128 0xb
 2826 016b 3B       		.uleb128 0x3b
 2827 016c 0B       		.uleb128 0xb
 2828 016d 49       		.uleb128 0x49
 2829 016e 13       		.uleb128 0x13
 2830 016f 00       		.byte	0
 2831 0170 00       		.byte	0
 2832 0171 1E       		.uleb128 0x1e
 2833 0172 2E       		.uleb128 0x2e
 2834 0173 01       		.byte	0x1
 2835 0174 3F       		.uleb128 0x3f
 2836 0175 19       		.uleb128 0x19
ARM GAS  /tmp/ccicrD5g.s 			page 51


 2837 0176 03       		.uleb128 0x3
 2838 0177 0E       		.uleb128 0xe
 2839 0178 3A       		.uleb128 0x3a
 2840 0179 0B       		.uleb128 0xb
 2841 017a 3B       		.uleb128 0x3b
 2842 017b 0B       		.uleb128 0xb
 2843 017c 27       		.uleb128 0x27
 2844 017d 19       		.uleb128 0x19
 2845 017e 49       		.uleb128 0x49
 2846 017f 13       		.uleb128 0x13
 2847 0180 20       		.uleb128 0x20
 2848 0181 0B       		.uleb128 0xb
 2849 0182 01       		.uleb128 0x1
 2850 0183 13       		.uleb128 0x13
 2851 0184 00       		.byte	0
 2852 0185 00       		.byte	0
 2853 0186 1F       		.uleb128 0x1f
 2854 0187 34       		.uleb128 0x34
 2855 0188 00       		.byte	0
 2856 0189 03       		.uleb128 0x3
 2857 018a 08       		.uleb128 0x8
 2858 018b 3A       		.uleb128 0x3a
 2859 018c 0B       		.uleb128 0xb
 2860 018d 3B       		.uleb128 0x3b
 2861 018e 0B       		.uleb128 0xb
 2862 018f 49       		.uleb128 0x49
 2863 0190 13       		.uleb128 0x13
 2864 0191 00       		.byte	0
 2865 0192 00       		.byte	0
 2866 0193 20       		.uleb128 0x20
 2867 0194 34       		.uleb128 0x34
 2868 0195 00       		.byte	0
 2869 0196 03       		.uleb128 0x3
 2870 0197 0E       		.uleb128 0xe
 2871 0198 49       		.uleb128 0x49
 2872 0199 13       		.uleb128 0x13
 2873 019a 34       		.uleb128 0x34
 2874 019b 19       		.uleb128 0x19
 2875 019c 1C       		.uleb128 0x1c
 2876 019d 0E       		.uleb128 0xe
 2877 019e 00       		.byte	0
 2878 019f 00       		.byte	0
 2879 01a0 21       		.uleb128 0x21
 2880 01a1 34       		.uleb128 0x34
 2881 01a2 00       		.byte	0
 2882 01a3 03       		.uleb128 0x3
 2883 01a4 08       		.uleb128 0x8
 2884 01a5 3A       		.uleb128 0x3a
 2885 01a6 0B       		.uleb128 0xb
 2886 01a7 3B       		.uleb128 0x3b
 2887 01a8 05       		.uleb128 0x5
 2888 01a9 49       		.uleb128 0x49
 2889 01aa 13       		.uleb128 0x13
 2890 01ab 00       		.byte	0
 2891 01ac 00       		.byte	0
 2892 01ad 22       		.uleb128 0x22
 2893 01ae 2E       		.uleb128 0x2e
ARM GAS  /tmp/ccicrD5g.s 			page 52


 2894 01af 00       		.byte	0
 2895 01b0 03       		.uleb128 0x3
 2896 01b1 0E       		.uleb128 0xe
 2897 01b2 3A       		.uleb128 0x3a
 2898 01b3 0B       		.uleb128 0xb
 2899 01b4 3B       		.uleb128 0x3b
 2900 01b5 05       		.uleb128 0x5
 2901 01b6 27       		.uleb128 0x27
 2902 01b7 19       		.uleb128 0x19
 2903 01b8 49       		.uleb128 0x49
 2904 01b9 13       		.uleb128 0x13
 2905 01ba 20       		.uleb128 0x20
 2906 01bb 0B       		.uleb128 0xb
 2907 01bc 00       		.byte	0
 2908 01bd 00       		.byte	0
 2909 01be 23       		.uleb128 0x23
 2910 01bf 2E       		.uleb128 0x2e
 2911 01c0 01       		.byte	0x1
 2912 01c1 03       		.uleb128 0x3
 2913 01c2 0E       		.uleb128 0xe
 2914 01c3 3A       		.uleb128 0x3a
 2915 01c4 0B       		.uleb128 0xb
 2916 01c5 3B       		.uleb128 0x3b
 2917 01c6 05       		.uleb128 0x5
 2918 01c7 27       		.uleb128 0x27
 2919 01c8 19       		.uleb128 0x19
 2920 01c9 11       		.uleb128 0x11
 2921 01ca 01       		.uleb128 0x1
 2922 01cb 12       		.uleb128 0x12
 2923 01cc 06       		.uleb128 0x6
 2924 01cd 40       		.uleb128 0x40
 2925 01ce 18       		.uleb128 0x18
 2926 01cf 9742     		.uleb128 0x2117
 2927 01d1 19       		.uleb128 0x19
 2928 01d2 01       		.uleb128 0x1
 2929 01d3 13       		.uleb128 0x13
 2930 01d4 00       		.byte	0
 2931 01d5 00       		.byte	0
 2932 01d6 24       		.uleb128 0x24
 2933 01d7 05       		.uleb128 0x5
 2934 01d8 00       		.byte	0
 2935 01d9 03       		.uleb128 0x3
 2936 01da 08       		.uleb128 0x8
 2937 01db 3A       		.uleb128 0x3a
 2938 01dc 0B       		.uleb128 0xb
 2939 01dd 3B       		.uleb128 0x3b
 2940 01de 05       		.uleb128 0x5
 2941 01df 49       		.uleb128 0x49
 2942 01e0 13       		.uleb128 0x13
 2943 01e1 02       		.uleb128 0x2
 2944 01e2 18       		.uleb128 0x18
 2945 01e3 00       		.byte	0
 2946 01e4 00       		.byte	0
 2947 01e5 25       		.uleb128 0x25
 2948 01e6 34       		.uleb128 0x34
 2949 01e7 00       		.byte	0
 2950 01e8 03       		.uleb128 0x3
ARM GAS  /tmp/ccicrD5g.s 			page 53


 2951 01e9 08       		.uleb128 0x8
 2952 01ea 3A       		.uleb128 0x3a
 2953 01eb 0B       		.uleb128 0xb
 2954 01ec 3B       		.uleb128 0x3b
 2955 01ed 05       		.uleb128 0x5
 2956 01ee 49       		.uleb128 0x49
 2957 01ef 13       		.uleb128 0x13
 2958 01f0 02       		.uleb128 0x2
 2959 01f1 18       		.uleb128 0x18
 2960 01f2 00       		.byte	0
 2961 01f3 00       		.byte	0
 2962 01f4 26       		.uleb128 0x26
 2963 01f5 1D       		.uleb128 0x1d
 2964 01f6 01       		.byte	0x1
 2965 01f7 31       		.uleb128 0x31
 2966 01f8 13       		.uleb128 0x13
 2967 01f9 11       		.uleb128 0x11
 2968 01fa 01       		.uleb128 0x1
 2969 01fb 12       		.uleb128 0x12
 2970 01fc 06       		.uleb128 0x6
 2971 01fd 58       		.uleb128 0x58
 2972 01fe 0B       		.uleb128 0xb
 2973 01ff 59       		.uleb128 0x59
 2974 0200 05       		.uleb128 0x5
 2975 0201 01       		.uleb128 0x1
 2976 0202 13       		.uleb128 0x13
 2977 0203 00       		.byte	0
 2978 0204 00       		.byte	0
 2979 0205 27       		.uleb128 0x27
 2980 0206 1D       		.uleb128 0x1d
 2981 0207 01       		.byte	0x1
 2982 0208 31       		.uleb128 0x31
 2983 0209 13       		.uleb128 0x13
 2984 020a 11       		.uleb128 0x11
 2985 020b 01       		.uleb128 0x1
 2986 020c 12       		.uleb128 0x12
 2987 020d 06       		.uleb128 0x6
 2988 020e 58       		.uleb128 0x58
 2989 020f 0B       		.uleb128 0xb
 2990 0210 59       		.uleb128 0x59
 2991 0211 05       		.uleb128 0x5
 2992 0212 00       		.byte	0
 2993 0213 00       		.byte	0
 2994 0214 28       		.uleb128 0x28
 2995 0215 05       		.uleb128 0x5
 2996 0216 00       		.byte	0
 2997 0217 31       		.uleb128 0x31
 2998 0218 13       		.uleb128 0x13
 2999 0219 1C       		.uleb128 0x1c
 3000 021a 0B       		.uleb128 0xb
 3001 021b 00       		.byte	0
 3002 021c 00       		.byte	0
 3003 021d 29       		.uleb128 0x29
 3004 021e 05       		.uleb128 0x5
 3005 021f 00       		.byte	0
 3006 0220 31       		.uleb128 0x31
 3007 0221 13       		.uleb128 0x13
ARM GAS  /tmp/ccicrD5g.s 			page 54


 3008 0222 02       		.uleb128 0x2
 3009 0223 17       		.uleb128 0x17
 3010 0224 00       		.byte	0
 3011 0225 00       		.byte	0
 3012 0226 2A       		.uleb128 0x2a
 3013 0227 1D       		.uleb128 0x1d
 3014 0228 01       		.byte	0x1
 3015 0229 31       		.uleb128 0x31
 3016 022a 13       		.uleb128 0x13
 3017 022b 52       		.uleb128 0x52
 3018 022c 01       		.uleb128 0x1
 3019 022d 55       		.uleb128 0x55
 3020 022e 17       		.uleb128 0x17
 3021 022f 58       		.uleb128 0x58
 3022 0230 0B       		.uleb128 0xb
 3023 0231 59       		.uleb128 0x59
 3024 0232 05       		.uleb128 0x5
 3025 0233 01       		.uleb128 0x1
 3026 0234 13       		.uleb128 0x13
 3027 0235 00       		.byte	0
 3028 0236 00       		.byte	0
 3029 0237 2B       		.uleb128 0x2b
 3030 0238 0B       		.uleb128 0xb
 3031 0239 01       		.byte	0x1
 3032 023a 55       		.uleb128 0x55
 3033 023b 17       		.uleb128 0x17
 3034 023c 00       		.byte	0
 3035 023d 00       		.byte	0
 3036 023e 2C       		.uleb128 0x2c
 3037 023f 34       		.uleb128 0x34
 3038 0240 00       		.byte	0
 3039 0241 31       		.uleb128 0x31
 3040 0242 13       		.uleb128 0x13
 3041 0243 02       		.uleb128 0x2
 3042 0244 17       		.uleb128 0x17
 3043 0245 00       		.byte	0
 3044 0246 00       		.byte	0
 3045 0247 2D       		.uleb128 0x2d
 3046 0248 34       		.uleb128 0x34
 3047 0249 00       		.byte	0
 3048 024a 31       		.uleb128 0x31
 3049 024b 13       		.uleb128 0x13
 3050 024c 00       		.byte	0
 3051 024d 00       		.byte	0
 3052 024e 2E       		.uleb128 0x2e
 3053 024f 1D       		.uleb128 0x1d
 3054 0250 01       		.byte	0x1
 3055 0251 31       		.uleb128 0x31
 3056 0252 13       		.uleb128 0x13
 3057 0253 52       		.uleb128 0x52
 3058 0254 01       		.uleb128 0x1
 3059 0255 55       		.uleb128 0x55
 3060 0256 17       		.uleb128 0x17
 3061 0257 58       		.uleb128 0x58
 3062 0258 0B       		.uleb128 0xb
 3063 0259 59       		.uleb128 0x59
 3064 025a 05       		.uleb128 0x5
ARM GAS  /tmp/ccicrD5g.s 			page 55


 3065 025b 00       		.byte	0
 3066 025c 00       		.byte	0
 3067 025d 2F       		.uleb128 0x2f
 3068 025e 2E       		.uleb128 0x2e
 3069 025f 01       		.byte	0x1
 3070 0260 3F       		.uleb128 0x3f
 3071 0261 19       		.uleb128 0x19
 3072 0262 03       		.uleb128 0x3
 3073 0263 0E       		.uleb128 0xe
 3074 0264 3A       		.uleb128 0x3a
 3075 0265 0B       		.uleb128 0xb
 3076 0266 3B       		.uleb128 0x3b
 3077 0267 0B       		.uleb128 0xb
 3078 0268 27       		.uleb128 0x27
 3079 0269 19       		.uleb128 0x19
 3080 026a 11       		.uleb128 0x11
 3081 026b 01       		.uleb128 0x1
 3082 026c 12       		.uleb128 0x12
 3083 026d 06       		.uleb128 0x6
 3084 026e 40       		.uleb128 0x40
 3085 026f 18       		.uleb128 0x18
 3086 0270 9742     		.uleb128 0x2117
 3087 0272 19       		.uleb128 0x19
 3088 0273 01       		.uleb128 0x1
 3089 0274 13       		.uleb128 0x13
 3090 0275 00       		.byte	0
 3091 0276 00       		.byte	0
 3092 0277 30       		.uleb128 0x30
 3093 0278 1D       		.uleb128 0x1d
 3094 0279 01       		.byte	0x1
 3095 027a 31       		.uleb128 0x31
 3096 027b 13       		.uleb128 0x13
 3097 027c 52       		.uleb128 0x52
 3098 027d 01       		.uleb128 0x1
 3099 027e 55       		.uleb128 0x55
 3100 027f 17       		.uleb128 0x17
 3101 0280 58       		.uleb128 0x58
 3102 0281 0B       		.uleb128 0xb
 3103 0282 59       		.uleb128 0x59
 3104 0283 0B       		.uleb128 0xb
 3105 0284 00       		.byte	0
 3106 0285 00       		.byte	0
 3107 0286 31       		.uleb128 0x31
 3108 0287 05       		.uleb128 0x5
 3109 0288 00       		.byte	0
 3110 0289 31       		.uleb128 0x31
 3111 028a 13       		.uleb128 0x13
 3112 028b 02       		.uleb128 0x2
 3113 028c 18       		.uleb128 0x18
 3114 028d 00       		.byte	0
 3115 028e 00       		.byte	0
 3116 028f 32       		.uleb128 0x32
 3117 0290 2E       		.uleb128 0x2e
 3118 0291 01       		.byte	0x1
 3119 0292 31       		.uleb128 0x31
 3120 0293 13       		.uleb128 0x13
 3121 0294 11       		.uleb128 0x11
ARM GAS  /tmp/ccicrD5g.s 			page 56


 3122 0295 01       		.uleb128 0x1
 3123 0296 12       		.uleb128 0x12
 3124 0297 06       		.uleb128 0x6
 3125 0298 40       		.uleb128 0x40
 3126 0299 18       		.uleb128 0x18
 3127 029a 9742     		.uleb128 0x2117
 3128 029c 19       		.uleb128 0x19
 3129 029d 01       		.uleb128 0x1
 3130 029e 13       		.uleb128 0x13
 3131 029f 00       		.byte	0
 3132 02a0 00       		.byte	0
 3133 02a1 33       		.uleb128 0x33
 3134 02a2 34       		.uleb128 0x34
 3135 02a3 00       		.byte	0
 3136 02a4 31       		.uleb128 0x31
 3137 02a5 13       		.uleb128 0x13
 3138 02a6 02       		.uleb128 0x2
 3139 02a7 18       		.uleb128 0x18
 3140 02a8 00       		.byte	0
 3141 02a9 00       		.byte	0
 3142 02aa 34       		.uleb128 0x34
 3143 02ab 05       		.uleb128 0x5
 3144 02ac 00       		.byte	0
 3145 02ad 03       		.uleb128 0x3
 3146 02ae 0E       		.uleb128 0xe
 3147 02af 3A       		.uleb128 0x3a
 3148 02b0 0B       		.uleb128 0xb
 3149 02b1 3B       		.uleb128 0x3b
 3150 02b2 0B       		.uleb128 0xb
 3151 02b3 49       		.uleb128 0x49
 3152 02b4 13       		.uleb128 0x13
 3153 02b5 02       		.uleb128 0x2
 3154 02b6 17       		.uleb128 0x17
 3155 02b7 00       		.byte	0
 3156 02b8 00       		.byte	0
 3157 02b9 35       		.uleb128 0x35
 3158 02ba 34       		.uleb128 0x34
 3159 02bb 00       		.byte	0
 3160 02bc 03       		.uleb128 0x3
 3161 02bd 08       		.uleb128 0x8
 3162 02be 3A       		.uleb128 0x3a
 3163 02bf 0B       		.uleb128 0xb
 3164 02c0 3B       		.uleb128 0x3b
 3165 02c1 0B       		.uleb128 0xb
 3166 02c2 49       		.uleb128 0x49
 3167 02c3 13       		.uleb128 0x13
 3168 02c4 02       		.uleb128 0x2
 3169 02c5 17       		.uleb128 0x17
 3170 02c6 00       		.byte	0
 3171 02c7 00       		.byte	0
 3172 02c8 36       		.uleb128 0x36
 3173 02c9 898201   		.uleb128 0x4109
 3174 02cc 00       		.byte	0
 3175 02cd 11       		.uleb128 0x11
 3176 02ce 01       		.uleb128 0x1
 3177 02cf 9542     		.uleb128 0x2115
 3178 02d1 19       		.uleb128 0x19
ARM GAS  /tmp/ccicrD5g.s 			page 57


 3179 02d2 31       		.uleb128 0x31
 3180 02d3 13       		.uleb128 0x13
 3181 02d4 00       		.byte	0
 3182 02d5 00       		.byte	0
 3183 02d6 37       		.uleb128 0x37
 3184 02d7 2E       		.uleb128 0x2e
 3185 02d8 01       		.byte	0x1
 3186 02d9 3F       		.uleb128 0x3f
 3187 02da 19       		.uleb128 0x19
 3188 02db 03       		.uleb128 0x3
 3189 02dc 0E       		.uleb128 0xe
 3190 02dd 3A       		.uleb128 0x3a
 3191 02de 0B       		.uleb128 0xb
 3192 02df 3B       		.uleb128 0x3b
 3193 02e0 05       		.uleb128 0x5
 3194 02e1 27       		.uleb128 0x27
 3195 02e2 19       		.uleb128 0x19
 3196 02e3 49       		.uleb128 0x49
 3197 02e4 13       		.uleb128 0x13
 3198 02e5 11       		.uleb128 0x11
 3199 02e6 01       		.uleb128 0x1
 3200 02e7 12       		.uleb128 0x12
 3201 02e8 06       		.uleb128 0x6
 3202 02e9 40       		.uleb128 0x40
 3203 02ea 18       		.uleb128 0x18
 3204 02eb 9742     		.uleb128 0x2117
 3205 02ed 19       		.uleb128 0x19
 3206 02ee 01       		.uleb128 0x1
 3207 02ef 13       		.uleb128 0x13
 3208 02f0 00       		.byte	0
 3209 02f1 00       		.byte	0
 3210 02f2 38       		.uleb128 0x38
 3211 02f3 05       		.uleb128 0x5
 3212 02f4 00       		.byte	0
 3213 02f5 03       		.uleb128 0x3
 3214 02f6 0E       		.uleb128 0xe
 3215 02f7 3A       		.uleb128 0x3a
 3216 02f8 0B       		.uleb128 0xb
 3217 02f9 3B       		.uleb128 0x3b
 3218 02fa 05       		.uleb128 0x5
 3219 02fb 49       		.uleb128 0x49
 3220 02fc 13       		.uleb128 0x13
 3221 02fd 02       		.uleb128 0x2
 3222 02fe 17       		.uleb128 0x17
 3223 02ff 00       		.byte	0
 3224 0300 00       		.byte	0
 3225 0301 39       		.uleb128 0x39
 3226 0302 0B       		.uleb128 0xb
 3227 0303 01       		.byte	0x1
 3228 0304 11       		.uleb128 0x11
 3229 0305 01       		.uleb128 0x1
 3230 0306 12       		.uleb128 0x12
 3231 0307 06       		.uleb128 0x6
 3232 0308 01       		.uleb128 0x1
 3233 0309 13       		.uleb128 0x13
 3234 030a 00       		.byte	0
 3235 030b 00       		.byte	0
ARM GAS  /tmp/ccicrD5g.s 			page 58


 3236 030c 3A       		.uleb128 0x3a
 3237 030d 898201   		.uleb128 0x4109
 3238 0310 01       		.byte	0x1
 3239 0311 11       		.uleb128 0x11
 3240 0312 01       		.uleb128 0x1
 3241 0313 31       		.uleb128 0x31
 3242 0314 13       		.uleb128 0x13
 3243 0315 01       		.uleb128 0x1
 3244 0316 13       		.uleb128 0x13
 3245 0317 00       		.byte	0
 3246 0318 00       		.byte	0
 3247 0319 3B       		.uleb128 0x3b
 3248 031a 8A8201   		.uleb128 0x410a
 3249 031d 00       		.byte	0
 3250 031e 02       		.uleb128 0x2
 3251 031f 18       		.uleb128 0x18
 3252 0320 9142     		.uleb128 0x2111
 3253 0322 18       		.uleb128 0x18
 3254 0323 00       		.byte	0
 3255 0324 00       		.byte	0
 3256 0325 3C       		.uleb128 0x3c
 3257 0326 898201   		.uleb128 0x4109
 3258 0329 01       		.byte	0x1
 3259 032a 11       		.uleb128 0x11
 3260 032b 01       		.uleb128 0x1
 3261 032c 31       		.uleb128 0x31
 3262 032d 13       		.uleb128 0x13
 3263 032e 00       		.byte	0
 3264 032f 00       		.byte	0
 3265 0330 3D       		.uleb128 0x3d
 3266 0331 898201   		.uleb128 0x4109
 3267 0334 00       		.byte	0
 3268 0335 11       		.uleb128 0x11
 3269 0336 01       		.uleb128 0x1
 3270 0337 31       		.uleb128 0x31
 3271 0338 13       		.uleb128 0x13
 3272 0339 00       		.byte	0
 3273 033a 00       		.byte	0
 3274 033b 3E       		.uleb128 0x3e
 3275 033c 2E       		.uleb128 0x2e
 3276 033d 01       		.byte	0x1
 3277 033e 3F       		.uleb128 0x3f
 3278 033f 19       		.uleb128 0x19
 3279 0340 03       		.uleb128 0x3
 3280 0341 0E       		.uleb128 0xe
 3281 0342 3A       		.uleb128 0x3a
 3282 0343 0B       		.uleb128 0xb
 3283 0344 3B       		.uleb128 0x3b
 3284 0345 05       		.uleb128 0x5
 3285 0346 27       		.uleb128 0x27
 3286 0347 19       		.uleb128 0x19
 3287 0348 11       		.uleb128 0x11
 3288 0349 01       		.uleb128 0x1
 3289 034a 12       		.uleb128 0x12
 3290 034b 06       		.uleb128 0x6
 3291 034c 40       		.uleb128 0x40
 3292 034d 18       		.uleb128 0x18
ARM GAS  /tmp/ccicrD5g.s 			page 59


 3293 034e 9742     		.uleb128 0x2117
 3294 0350 19       		.uleb128 0x19
 3295 0351 01       		.uleb128 0x1
 3296 0352 13       		.uleb128 0x13
 3297 0353 00       		.byte	0
 3298 0354 00       		.byte	0
 3299 0355 3F       		.uleb128 0x3f
 3300 0356 05       		.uleb128 0x5
 3301 0357 00       		.byte	0
 3302 0358 03       		.uleb128 0x3
 3303 0359 08       		.uleb128 0x8
 3304 035a 3A       		.uleb128 0x3a
 3305 035b 0B       		.uleb128 0xb
 3306 035c 3B       		.uleb128 0x3b
 3307 035d 05       		.uleb128 0x5
 3308 035e 49       		.uleb128 0x49
 3309 035f 13       		.uleb128 0x13
 3310 0360 02       		.uleb128 0x2
 3311 0361 17       		.uleb128 0x17
 3312 0362 00       		.byte	0
 3313 0363 00       		.byte	0
 3314 0364 40       		.uleb128 0x40
 3315 0365 34       		.uleb128 0x34
 3316 0366 00       		.byte	0
 3317 0367 03       		.uleb128 0x3
 3318 0368 0E       		.uleb128 0xe
 3319 0369 49       		.uleb128 0x49
 3320 036a 13       		.uleb128 0x13
 3321 036b 34       		.uleb128 0x34
 3322 036c 19       		.uleb128 0x19
 3323 036d 00       		.byte	0
 3324 036e 00       		.byte	0
 3325 036f 41       		.uleb128 0x41
 3326 0370 0B       		.uleb128 0xb
 3327 0371 01       		.byte	0x1
 3328 0372 11       		.uleb128 0x11
 3329 0373 01       		.uleb128 0x1
 3330 0374 12       		.uleb128 0x12
 3331 0375 06       		.uleb128 0x6
 3332 0376 00       		.byte	0
 3333 0377 00       		.byte	0
 3334 0378 42       		.uleb128 0x42
 3335 0379 898201   		.uleb128 0x4109
 3336 037c 01       		.byte	0x1
 3337 037d 11       		.uleb128 0x11
 3338 037e 01       		.uleb128 0x1
 3339 037f 9542     		.uleb128 0x2115
 3340 0381 19       		.uleb128 0x19
 3341 0382 31       		.uleb128 0x31
 3342 0383 13       		.uleb128 0x13
 3343 0384 00       		.byte	0
 3344 0385 00       		.byte	0
 3345 0386 43       		.uleb128 0x43
 3346 0387 34       		.uleb128 0x34
 3347 0388 00       		.byte	0
 3348 0389 03       		.uleb128 0x3
 3349 038a 08       		.uleb128 0x8
ARM GAS  /tmp/ccicrD5g.s 			page 60


 3350 038b 3A       		.uleb128 0x3a
 3351 038c 0B       		.uleb128 0xb
 3352 038d 3B       		.uleb128 0x3b
 3353 038e 05       		.uleb128 0x5
 3354 038f 49       		.uleb128 0x49
 3355 0390 13       		.uleb128 0x13
 3356 0391 02       		.uleb128 0x2
 3357 0392 17       		.uleb128 0x17
 3358 0393 00       		.byte	0
 3359 0394 00       		.byte	0
 3360 0395 44       		.uleb128 0x44
 3361 0396 1D       		.uleb128 0x1d
 3362 0397 00       		.byte	0
 3363 0398 31       		.uleb128 0x31
 3364 0399 13       		.uleb128 0x13
 3365 039a 11       		.uleb128 0x11
 3366 039b 01       		.uleb128 0x1
 3367 039c 12       		.uleb128 0x12
 3368 039d 06       		.uleb128 0x6
 3369 039e 58       		.uleb128 0x58
 3370 039f 0B       		.uleb128 0xb
 3371 03a0 59       		.uleb128 0x59
 3372 03a1 05       		.uleb128 0x5
 3373 03a2 00       		.byte	0
 3374 03a3 00       		.byte	0
 3375 03a4 45       		.uleb128 0x45
 3376 03a5 34       		.uleb128 0x34
 3377 03a6 00       		.byte	0
 3378 03a7 03       		.uleb128 0x3
 3379 03a8 0E       		.uleb128 0xe
 3380 03a9 3A       		.uleb128 0x3a
 3381 03aa 0B       		.uleb128 0xb
 3382 03ab 3B       		.uleb128 0x3b
 3383 03ac 05       		.uleb128 0x5
 3384 03ad 49       		.uleb128 0x49
 3385 03ae 13       		.uleb128 0x13
 3386 03af 3F       		.uleb128 0x3f
 3387 03b0 19       		.uleb128 0x19
 3388 03b1 3C       		.uleb128 0x3c
 3389 03b2 19       		.uleb128 0x19
 3390 03b3 00       		.byte	0
 3391 03b4 00       		.byte	0
 3392 03b5 46       		.uleb128 0x46
 3393 03b6 34       		.uleb128 0x34
 3394 03b7 00       		.byte	0
 3395 03b8 03       		.uleb128 0x3
 3396 03b9 08       		.uleb128 0x8
 3397 03ba 3A       		.uleb128 0x3a
 3398 03bb 0B       		.uleb128 0xb
 3399 03bc 3B       		.uleb128 0x3b
 3400 03bd 0B       		.uleb128 0xb
 3401 03be 49       		.uleb128 0x49
 3402 03bf 13       		.uleb128 0x13
 3403 03c0 3F       		.uleb128 0x3f
 3404 03c1 19       		.uleb128 0x19
 3405 03c2 02       		.uleb128 0x2
 3406 03c3 18       		.uleb128 0x18
ARM GAS  /tmp/ccicrD5g.s 			page 61


 3407 03c4 00       		.byte	0
 3408 03c5 00       		.byte	0
 3409 03c6 47       		.uleb128 0x47
 3410 03c7 2E       		.uleb128 0x2e
 3411 03c8 01       		.byte	0x1
 3412 03c9 3F       		.uleb128 0x3f
 3413 03ca 19       		.uleb128 0x19
 3414 03cb 03       		.uleb128 0x3
 3415 03cc 0E       		.uleb128 0xe
 3416 03cd 3A       		.uleb128 0x3a
 3417 03ce 0B       		.uleb128 0xb
 3418 03cf 3B       		.uleb128 0x3b
 3419 03d0 05       		.uleb128 0x5
 3420 03d1 27       		.uleb128 0x27
 3421 03d2 19       		.uleb128 0x19
 3422 03d3 3C       		.uleb128 0x3c
 3423 03d4 19       		.uleb128 0x19
 3424 03d5 01       		.uleb128 0x1
 3425 03d6 13       		.uleb128 0x13
 3426 03d7 00       		.byte	0
 3427 03d8 00       		.byte	0
 3428 03d9 48       		.uleb128 0x48
 3429 03da 2E       		.uleb128 0x2e
 3430 03db 01       		.byte	0x1
 3431 03dc 3F       		.uleb128 0x3f
 3432 03dd 19       		.uleb128 0x19
 3433 03de 03       		.uleb128 0x3
 3434 03df 0E       		.uleb128 0xe
 3435 03e0 3A       		.uleb128 0x3a
 3436 03e1 0B       		.uleb128 0xb
 3437 03e2 3B       		.uleb128 0x3b
 3438 03e3 0B       		.uleb128 0xb
 3439 03e4 27       		.uleb128 0x27
 3440 03e5 19       		.uleb128 0x19
 3441 03e6 3C       		.uleb128 0x3c
 3442 03e7 19       		.uleb128 0x19
 3443 03e8 01       		.uleb128 0x1
 3444 03e9 13       		.uleb128 0x13
 3445 03ea 00       		.byte	0
 3446 03eb 00       		.byte	0
 3447 03ec 49       		.uleb128 0x49
 3448 03ed 2E       		.uleb128 0x2e
 3449 03ee 01       		.byte	0x1
 3450 03ef 3F       		.uleb128 0x3f
 3451 03f0 19       		.uleb128 0x19
 3452 03f1 03       		.uleb128 0x3
 3453 03f2 0E       		.uleb128 0xe
 3454 03f3 3A       		.uleb128 0x3a
 3455 03f4 0B       		.uleb128 0xb
 3456 03f5 3B       		.uleb128 0x3b
 3457 03f6 0B       		.uleb128 0xb
 3458 03f7 27       		.uleb128 0x27
 3459 03f8 19       		.uleb128 0x19
 3460 03f9 3C       		.uleb128 0x3c
 3461 03fa 19       		.uleb128 0x19
 3462 03fb 00       		.byte	0
 3463 03fc 00       		.byte	0
ARM GAS  /tmp/ccicrD5g.s 			page 62


 3464 03fd 00       		.byte	0
 3465              		.section	.debug_loc,"",%progbits
 3466              	.Ldebug_loc0:
 3467              	.LLST0:
 3468 0000 1C000000 		.4byte	.LVL1
 3469 0004 22000000 		.4byte	.LVL2
 3470 0008 0100     		.2byte	0x1
 3471 000a 53       		.byte	0x53
 3472 000b 00000000 		.4byte	0
 3473 000f 00000000 		.4byte	0
 3474              	.LLST1:
 3475 0013 22000000 		.4byte	.LVL2
 3476 0017 2C000000 		.4byte	.LVL3
 3477 001b 0100     		.2byte	0x1
 3478 001d 50       		.byte	0x50
 3479 001e 00000000 		.4byte	0
 3480 0022 00000000 		.4byte	0
 3481              	.LLST2:
 3482 0026 38000000 		.4byte	.LVL4
 3483 002a 58000000 		.4byte	.LVL8
 3484 002e 0100     		.2byte	0x1
 3485 0030 50       		.byte	0x50
 3486 0031 00000000 		.4byte	0
 3487 0035 00000000 		.4byte	0
 3488              	.LLST3:
 3489 0039 3A000000 		.4byte	.LVL5
 3490 003d 58000000 		.4byte	.LVL8
 3491 0041 0100     		.2byte	0x1
 3492 0043 53       		.byte	0x53
 3493 0044 00000000 		.4byte	0
 3494 0048 00000000 		.4byte	0
 3495              	.LLST4:
 3496 004c 4E000000 		.4byte	.LVL7
 3497 0050 58000000 		.4byte	.LVL8
 3498 0054 0200     		.2byte	0x2
 3499 0056 30       		.byte	0x30
 3500 0057 9F       		.byte	0x9f
 3501 0058 00000000 		.4byte	0
 3502 005c 00000000 		.4byte	0
 3503              	.LLST5:
 3504 0060 00000000 		.4byte	.LVL11
 3505 0064 1C000000 		.4byte	.LVL14
 3506 0068 0100     		.2byte	0x1
 3507 006a 50       		.byte	0x50
 3508 006b 1C000000 		.4byte	.LVL14
 3509 006f 24000000 		.4byte	.LVL15
 3510 0073 0100     		.2byte	0x1
 3511 0075 54       		.byte	0x54
 3512 0076 24000000 		.4byte	.LVL15
 3513 007a 2C000000 		.4byte	.LFE242
 3514 007e 0100     		.2byte	0x1
 3515 0080 50       		.byte	0x50
 3516 0081 00000000 		.4byte	0
 3517 0085 00000000 		.4byte	0
 3518              	.LLST6:
 3519 0089 00000000 		.4byte	.LVL16
 3520 008d 16000000 		.4byte	.LVL19
ARM GAS  /tmp/ccicrD5g.s 			page 63


 3521 0091 0100     		.2byte	0x1
 3522 0093 50       		.byte	0x50
 3523 0094 16000000 		.4byte	.LVL19
 3524 0098 24000000 		.4byte	.LFE243
 3525 009c 0400     		.2byte	0x4
 3526 009e F3       		.byte	0xf3
 3527 009f 01       		.uleb128 0x1
 3528 00a0 50       		.byte	0x50
 3529 00a1 9F       		.byte	0x9f
 3530 00a2 00000000 		.4byte	0
 3531 00a6 00000000 		.4byte	0
 3532              	.LLST7:
 3533 00aa 08000000 		.4byte	.LVL17
 3534 00ae 1D000000 		.4byte	.LVL20-1
 3535 00b2 0100     		.2byte	0x1
 3536 00b4 51       		.byte	0x51
 3537 00b5 00000000 		.4byte	0
 3538 00b9 00000000 		.4byte	0
 3539              	.LLST8:
 3540 00bd 0C000000 		.4byte	.LVL18
 3541 00c1 1D000000 		.4byte	.LVL20-1
 3542 00c5 0100     		.2byte	0x1
 3543 00c7 52       		.byte	0x52
 3544 00c8 00000000 		.4byte	0
 3545 00cc 00000000 		.4byte	0
 3546              	.LLST9:
 3547 00d0 00000000 		.4byte	.LVL21
 3548 00d4 12000000 		.4byte	.LVL22
 3549 00d8 0100     		.2byte	0x1
 3550 00da 50       		.byte	0x50
 3551 00db 12000000 		.4byte	.LVL22
 3552 00df 2E000000 		.4byte	.LVL27
 3553 00e3 0400     		.2byte	0x4
 3554 00e5 F3       		.byte	0xf3
 3555 00e6 01       		.uleb128 0x1
 3556 00e7 50       		.byte	0x50
 3557 00e8 9F       		.byte	0x9f
 3558 00e9 2E000000 		.4byte	.LVL27
 3559 00ed 33000000 		.4byte	.LVL28-1
 3560 00f1 0100     		.2byte	0x1
 3561 00f3 50       		.byte	0x50
 3562 00f4 33000000 		.4byte	.LVL28-1
 3563 00f8 44000000 		.4byte	.LFE245
 3564 00fc 0400     		.2byte	0x4
 3565 00fe F3       		.byte	0xf3
 3566 00ff 01       		.uleb128 0x1
 3567 0100 50       		.byte	0x50
 3568 0101 9F       		.byte	0x9f
 3569 0102 00000000 		.4byte	0
 3570 0106 00000000 		.4byte	0
 3571              	.LLST10:
 3572 010a 00000000 		.4byte	.LVL21
 3573 010e 15000000 		.4byte	.LVL23-1
 3574 0112 0100     		.2byte	0x1
 3575 0114 51       		.byte	0x51
 3576 0115 15000000 		.4byte	.LVL23-1
 3577 0119 2E000000 		.4byte	.LVL27
ARM GAS  /tmp/ccicrD5g.s 			page 64


 3578 011d 0400     		.2byte	0x4
 3579 011f F3       		.byte	0xf3
 3580 0120 01       		.uleb128 0x1
 3581 0121 51       		.byte	0x51
 3582 0122 9F       		.byte	0x9f
 3583 0123 2E000000 		.4byte	.LVL27
 3584 0127 33000000 		.4byte	.LVL28-1
 3585 012b 0100     		.2byte	0x1
 3586 012d 51       		.byte	0x51
 3587 012e 33000000 		.4byte	.LVL28-1
 3588 0132 44000000 		.4byte	.LFE245
 3589 0136 0400     		.2byte	0x4
 3590 0138 F3       		.byte	0xf3
 3591 0139 01       		.uleb128 0x1
 3592 013a 51       		.byte	0x51
 3593 013b 9F       		.byte	0x9f
 3594 013c 00000000 		.4byte	0
 3595 0140 00000000 		.4byte	0
 3596              	.LLST11:
 3597 0144 00000000 		.4byte	.LVL29
 3598 0148 52000000 		.4byte	.LVL38
 3599 014c 0100     		.2byte	0x1
 3600 014e 50       		.byte	0x50
 3601 014f 52000000 		.4byte	.LVL38
 3602 0153 58000000 		.4byte	.LVL39
 3603 0157 0100     		.2byte	0x1
 3604 0159 56       		.byte	0x56
 3605 015a 58000000 		.4byte	.LVL39
 3606 015e 5B000000 		.4byte	.LVL40-1
 3607 0162 0100     		.2byte	0x1
 3608 0164 50       		.byte	0x50
 3609 0165 5B000000 		.4byte	.LVL40-1
 3610 0169 60000000 		.4byte	.LFE246
 3611 016d 0400     		.2byte	0x4
 3612 016f F3       		.byte	0xf3
 3613 0170 01       		.uleb128 0x1
 3614 0171 50       		.byte	0x50
 3615 0172 9F       		.byte	0x9f
 3616 0173 00000000 		.4byte	0
 3617 0177 00000000 		.4byte	0
 3618              	.LLST12:
 3619 017b 00000000 		.4byte	.LVL29
 3620 017f 50000000 		.4byte	.LVL37
 3621 0183 0100     		.2byte	0x1
 3622 0185 51       		.byte	0x51
 3623 0186 50000000 		.4byte	.LVL37
 3624 018a 52000000 		.4byte	.LVL38
 3625 018e 0200     		.2byte	0x2
 3626 0190 70       		.byte	0x70
 3627 0191 20       		.sleb128 32
 3628 0192 52000000 		.4byte	.LVL38
 3629 0196 58000000 		.4byte	.LVL39
 3630 019a 0200     		.2byte	0x2
 3631 019c 76       		.byte	0x76
 3632 019d 20       		.sleb128 32
 3633 019e 58000000 		.4byte	.LVL39
 3634 01a2 5B000000 		.4byte	.LVL40-1
ARM GAS  /tmp/ccicrD5g.s 			page 65


 3635 01a6 0200     		.2byte	0x2
 3636 01a8 70       		.byte	0x70
 3637 01a9 20       		.sleb128 32
 3638 01aa 5B000000 		.4byte	.LVL40-1
 3639 01ae 60000000 		.4byte	.LFE246
 3640 01b2 0400     		.2byte	0x4
 3641 01b4 F3       		.byte	0xf3
 3642 01b5 01       		.uleb128 0x1
 3643 01b6 51       		.byte	0x51
 3644 01b7 9F       		.byte	0x9f
 3645 01b8 00000000 		.4byte	0
 3646 01bc 00000000 		.4byte	0
 3647              	.LLST13:
 3648 01c0 16000000 		.4byte	.LVL30
 3649 01c4 32000000 		.4byte	.LVL33
 3650 01c8 0100     		.2byte	0x1
 3651 01ca 50       		.byte	0x50
 3652 01cb 00000000 		.4byte	0
 3653 01cf 00000000 		.4byte	0
 3654              	.LLST14:
 3655 01d3 1C000000 		.4byte	.LVL31
 3656 01d7 32000000 		.4byte	.LVL33
 3657 01db 0100     		.2byte	0x1
 3658 01dd 53       		.byte	0x53
 3659 01de 00000000 		.4byte	0
 3660 01e2 00000000 		.4byte	0
 3661              	.LLST15:
 3662 01e6 32000000 		.4byte	.LVL33
 3663 01ea 58000000 		.4byte	.LVL39
 3664 01ee 0100     		.2byte	0x1
 3665 01f0 57       		.byte	0x57
 3666 01f1 58000000 		.4byte	.LVL39
 3667 01f5 5B000000 		.4byte	.LVL40-1
 3668 01f9 0100     		.2byte	0x1
 3669 01fb 51       		.byte	0x51
 3670 01fc 00000000 		.4byte	0
 3671 0200 00000000 		.4byte	0
 3672              	.LLST16:
 3673 0204 36000000 		.4byte	.LVL34
 3674 0208 38000000 		.4byte	.LVL35
 3675 020c 0600     		.2byte	0x6
 3676 020e 03       		.byte	0x3
 3677 020f 00000000 		.4byte	ch
 3678 0213 9F       		.byte	0x9f
 3679 0214 38000000 		.4byte	.LVL35
 3680 0218 5B000000 		.4byte	.LVL40-1
 3681 021c 0100     		.2byte	0x1
 3682 021e 53       		.byte	0x53
 3683 021f 00000000 		.4byte	0
 3684 0223 00000000 		.4byte	0
 3685              	.LLST17:
 3686 0227 0A000000 		.4byte	.LVL42
 3687 022b 32000000 		.4byte	.LVL47
 3688 022f 0100     		.2byte	0x1
 3689 0231 55       		.byte	0x55
 3690 0232 32000000 		.4byte	.LVL47
 3691 0236 35000000 		.4byte	.LVL48-1
ARM GAS  /tmp/ccicrD5g.s 			page 66


 3692 023a 0100     		.2byte	0x1
 3693 023c 51       		.byte	0x51
 3694 023d 00000000 		.4byte	0
 3695 0241 00000000 		.4byte	0
 3696              	.LLST18:
 3697 0245 0A000000 		.4byte	.LVL42
 3698 0249 35000000 		.4byte	.LVL48-1
 3699 024d 0100     		.2byte	0x1
 3700 024f 50       		.byte	0x50
 3701 0250 00000000 		.4byte	0
 3702 0254 00000000 		.4byte	0
 3703              	.LLST19:
 3704 0258 16000000 		.4byte	.LVL43
 3705 025c 32000000 		.4byte	.LVL47
 3706 0260 0100     		.2byte	0x1
 3707 0262 55       		.byte	0x55
 3708 0263 32000000 		.4byte	.LVL47
 3709 0267 35000000 		.4byte	.LVL48-1
 3710 026b 0100     		.2byte	0x1
 3711 026d 51       		.byte	0x51
 3712 026e 00000000 		.4byte	0
 3713 0272 00000000 		.4byte	0
 3714              	.LLST20:
 3715 0276 1A000000 		.4byte	.LVL44
 3716 027a 1C000000 		.4byte	.LVL45
 3717 027e 0600     		.2byte	0x6
 3718 0280 03       		.byte	0x3
 3719 0281 00000000 		.4byte	ch
 3720 0285 9F       		.byte	0x9f
 3721 0286 1C000000 		.4byte	.LVL45
 3722 028a 35000000 		.4byte	.LVL48-1
 3723 028e 0100     		.2byte	0x1
 3724 0290 53       		.byte	0x53
 3725 0291 00000000 		.4byte	0
 3726 0295 00000000 		.4byte	0
 3727              	.LLST21:
 3728 0299 0A000000 		.4byte	.LVL49
 3729 029d 32000000 		.4byte	.LVL53
 3730 02a1 0100     		.2byte	0x1
 3731 02a3 55       		.byte	0x55
 3732 02a4 32000000 		.4byte	.LVL53
 3733 02a8 35000000 		.4byte	.LVL54-1
 3734 02ac 0100     		.2byte	0x1
 3735 02ae 51       		.byte	0x51
 3736 02af 00000000 		.4byte	0
 3737 02b3 00000000 		.4byte	0
 3738              	.LLST22:
 3739 02b7 1A000000 		.4byte	.LVL50
 3740 02bb 1C000000 		.4byte	.LVL51
 3741 02bf 0600     		.2byte	0x6
 3742 02c1 03       		.byte	0x3
 3743 02c2 00000000 		.4byte	ch
 3744 02c6 9F       		.byte	0x9f
 3745 02c7 1C000000 		.4byte	.LVL51
 3746 02cb 35000000 		.4byte	.LVL54-1
 3747 02cf 0100     		.2byte	0x1
 3748 02d1 53       		.byte	0x53
ARM GAS  /tmp/ccicrD5g.s 			page 67


 3749 02d2 00000000 		.4byte	0
 3750 02d6 00000000 		.4byte	0
 3751              	.LLST23:
 3752 02da 0A000000 		.4byte	.LVL49
 3753 02de 35000000 		.4byte	.LVL54-1
 3754 02e2 0100     		.2byte	0x1
 3755 02e4 50       		.byte	0x50
 3756 02e5 00000000 		.4byte	0
 3757 02e9 00000000 		.4byte	0
 3758              		.section	.debug_aranges,"",%progbits
 3759 0000 6C000000 		.4byte	0x6c
 3760 0004 0200     		.2byte	0x2
 3761 0006 00000000 		.4byte	.Ldebug_info0
 3762 000a 04       		.byte	0x4
 3763 000b 00       		.byte	0
 3764 000c 0000     		.2byte	0
 3765 000e 0000     		.2byte	0
 3766 0010 00000000 		.4byte	.LFB244
 3767 0014 70000000 		.4byte	.LFE244-.LFB244
 3768 0018 00000000 		.4byte	.LFB241
 3769 001c 14000000 		.4byte	.LFE241-.LFB241
 3770 0020 00000000 		.4byte	.LFB242
 3771 0024 2C000000 		.4byte	.LFE242-.LFB242
 3772 0028 00000000 		.4byte	.LFB243
 3773 002c 24000000 		.4byte	.LFE243-.LFB243
 3774 0030 00000000 		.4byte	.LFB245
 3775 0034 44000000 		.4byte	.LFE245-.LFB245
 3776 0038 00000000 		.4byte	.LFB246
 3777 003c 60000000 		.4byte	.LFE246-.LFB246
 3778 0040 00000000 		.4byte	.LFB248
 3779 0044 18000000 		.4byte	.LFE248-.LFB248
 3780 0048 00000000 		.4byte	.LFB249
 3781 004c 3C000000 		.4byte	.LFE249-.LFB249
 3782 0050 00000000 		.4byte	.LFB250
 3783 0054 3C000000 		.4byte	.LFE250-.LFB250
 3784 0058 00000000 		.4byte	.LFB247
 3785 005c 18000000 		.4byte	.LFE247-.LFB247
 3786 0060 00000000 		.4byte	.LFB251
 3787 0064 04000000 		.4byte	.LFE251-.LFB251
 3788 0068 00000000 		.4byte	0
 3789 006c 00000000 		.4byte	0
 3790              		.section	.debug_ranges,"",%progbits
 3791              	.Ldebug_ranges0:
 3792 0000 30000000 		.4byte	.LBB77
 3793 0004 36000000 		.4byte	.LBE77
 3794 0008 38000000 		.4byte	.LBB81
 3795 000c 48000000 		.4byte	.LBE81
 3796 0010 4A000000 		.4byte	.LBB91
 3797 0014 4E000000 		.4byte	.LBE91
 3798 0018 00000000 		.4byte	0
 3799 001c 00000000 		.4byte	0
 3800 0020 48000000 		.4byte	.LBB82
 3801 0024 4A000000 		.4byte	.LBE82
 3802 0028 4E000000 		.4byte	.LBB92
 3803 002c 52000000 		.4byte	.LBE92
 3804 0030 00000000 		.4byte	0
 3805 0034 00000000 		.4byte	0
ARM GAS  /tmp/ccicrD5g.s 			page 68


 3806 0038 00000000 		.4byte	.LBB98
 3807 003c 02000000 		.4byte	.LBE98
 3808 0040 04000000 		.4byte	.LBB101
 3809 0044 08000000 		.4byte	.LBE101
 3810 0048 00000000 		.4byte	0
 3811 004c 00000000 		.4byte	0
 3812 0050 04000000 		.4byte	.LBB102
 3813 0054 06000000 		.4byte	.LBE102
 3814 0058 08000000 		.4byte	.LBB107
 3815 005c 0A000000 		.4byte	.LBE107
 3816 0060 0E000000 		.4byte	.LBB108
 3817 0064 10000000 		.4byte	.LBE108
 3818 0068 12000000 		.4byte	.LBB109
 3819 006c 14000000 		.4byte	.LBE109
 3820 0070 00000000 		.4byte	0
 3821 0074 00000000 		.4byte	0
 3822 0078 32000000 		.4byte	.LBB113
 3823 007c 56000000 		.4byte	.LBE113
 3824 0080 58000000 		.4byte	.LBB118
 3825 0084 60000000 		.4byte	.LBE118
 3826 0088 00000000 		.4byte	0
 3827 008c 00000000 		.4byte	0
 3828 0090 32000000 		.4byte	.LBB114
 3829 0094 44000000 		.4byte	.LBE114
 3830 0098 46000000 		.4byte	.LBB117
 3831 009c 4C000000 		.4byte	.LBE117
 3832 00a0 00000000 		.4byte	0
 3833 00a4 00000000 		.4byte	0
 3834 00a8 02000000 		.4byte	.LBB119
 3835 00ac 04000000 		.4byte	.LBE119
 3836 00b0 06000000 		.4byte	.LBB124
 3837 00b4 08000000 		.4byte	.LBE124
 3838 00b8 0A000000 		.4byte	.LBB125
 3839 00bc 0C000000 		.4byte	.LBE125
 3840 00c0 12000000 		.4byte	.LBB130
 3841 00c4 14000000 		.4byte	.LBE130
 3842 00c8 00000000 		.4byte	0
 3843 00cc 00000000 		.4byte	0
 3844 00d0 0E000000 		.4byte	.LBB126
 3845 00d4 12000000 		.4byte	.LBE126
 3846 00d8 18000000 		.4byte	.LBB131
 3847 00dc 2A000000 		.4byte	.LBE131
 3848 00e0 2C000000 		.4byte	.LBB132
 3849 00e4 30000000 		.4byte	.LBE132
 3850 00e8 00000000 		.4byte	0
 3851 00ec 00000000 		.4byte	0
 3852 00f0 02000000 		.4byte	.LBB133
 3853 00f4 04000000 		.4byte	.LBE133
 3854 00f8 06000000 		.4byte	.LBB138
 3855 00fc 08000000 		.4byte	.LBE138
 3856 0100 0A000000 		.4byte	.LBB139
 3857 0104 0C000000 		.4byte	.LBE139
 3858 0108 12000000 		.4byte	.LBB140
 3859 010c 14000000 		.4byte	.LBE140
 3860 0110 00000000 		.4byte	0
 3861 0114 00000000 		.4byte	0
 3862 0118 00000000 		.4byte	.LFB244
ARM GAS  /tmp/ccicrD5g.s 			page 69


 3863 011c 70000000 		.4byte	.LFE244
 3864 0120 00000000 		.4byte	.LFB241
 3865 0124 14000000 		.4byte	.LFE241
 3866 0128 00000000 		.4byte	.LFB242
 3867 012c 2C000000 		.4byte	.LFE242
 3868 0130 00000000 		.4byte	.LFB243
 3869 0134 24000000 		.4byte	.LFE243
 3870 0138 00000000 		.4byte	.LFB245
 3871 013c 44000000 		.4byte	.LFE245
 3872 0140 00000000 		.4byte	.LFB246
 3873 0144 60000000 		.4byte	.LFE246
 3874 0148 00000000 		.4byte	.LFB248
 3875 014c 18000000 		.4byte	.LFE248
 3876 0150 00000000 		.4byte	.LFB249
 3877 0154 3C000000 		.4byte	.LFE249
 3878 0158 00000000 		.4byte	.LFB250
 3879 015c 3C000000 		.4byte	.LFE250
 3880 0160 00000000 		.4byte	.LFB247
 3881 0164 18000000 		.4byte	.LFE247
 3882 0168 00000000 		.4byte	.LFB251
 3883 016c 04000000 		.4byte	.LFE251
 3884 0170 00000000 		.4byte	0
 3885 0174 00000000 		.4byte	0
 3886              		.section	.debug_line,"",%progbits
 3887              	.Ldebug_line0:
 3888 0000 45050000 		.section	.debug_str,"MS",%progbits,1
 3888      0200D002 
 3888      00000201 
 3888      FB0E0D00 
 3888      01010101 
 3889              	.LASF50:
 3890 0000 72656164 		.ascii	"ready_list_t\000"
 3890      795F6C69 
 3890      73745F74 
 3890      00
 3891              	.LASF2:
 3892 000d 73697A65 		.ascii	"size_t\000"
 3892      5F7400
 3893              	.LASF85:
 3894 0014 7264796D 		.ascii	"rdymsg\000"
 3894      736700
 3895              	.LASF17:
 3896 001b 75696E74 		.ascii	"uint64_t\000"
 3896      36345F74 
 3896      00
 3897              	.LASF126:
 3898 0024 63685363 		.ascii	"chSchDoRescheduleAhead\000"
 3898      68446F52 
 3898      65736368 
 3898      6564756C 
 3898      65416865 
 3899              	.LASF24:
 3900 003b 6576656E 		.ascii	"eventmask_t\000"
 3900      746D6173 
 3900      6B5F7400 
 3901              	.LASF3:
 3902 0047 5F5F7569 		.ascii	"__uint8_t\000"
ARM GAS  /tmp/ccicrD5g.s 			page 70


 3902      6E74385F 
 3902      7400
 3903              	.LASF82:
 3904 0051 706F7274 		.ascii	"port_intctx\000"
 3904      5F696E74 
 3904      63747800 
 3905              	.LASF69:
 3906 005d 73797374 		.ascii	"system_debug_t\000"
 3906      656D5F64 
 3906      65627567 
 3906      5F7400
 3907              	.LASF111:
 3908 006c 71756575 		.ascii	"queue_init\000"
 3908      655F696E 
 3908      697400
 3909              	.LASF103:
 3910 0077 706F7274 		.ascii	"port_lock\000"
 3910      5F6C6F63 
 3910      6B00
 3911              	.LASF13:
 3912 0081 6C6F6E67 		.ascii	"long long unsigned int\000"
 3912      206C6F6E 
 3912      6720756E 
 3912      7369676E 
 3912      65642069 
 3913              	.LASF138:
 3914 0098 63685654 		.ascii	"chVTDoResetI\000"
 3914      446F5265 
 3914      73657449 
 3914      00
 3915              	.LASF86:
 3916 00a5 65786974 		.ascii	"exitcode\000"
 3916      636F6465 
 3916      00
 3917              	.LASF76:
 3918 00ae 6D61696E 		.ascii	"mainthread\000"
 3918      74687265 
 3918      616400
 3919              	.LASF89:
 3920 00b9 73656E74 		.ascii	"sentmsg\000"
 3920      6D736700 
 3921              	.LASF66:
 3922 00c1 76697274 		.ascii	"virtual_timers_list_t\000"
 3922      75616C5F 
 3922      74696D65 
 3922      72735F6C 
 3922      6973745F 
 3923              	.LASF129:
 3924 00d7 49544D5F 		.ascii	"ITM_RxBuffer\000"
 3924      52784275 
 3924      66666572 
 3924      00
 3925              	.LASF49:
 3926 00e4 63685F74 		.ascii	"ch_threads_queue\000"
 3926      68726561 
 3926      64735F71 
 3926      75657565 
ARM GAS  /tmp/ccicrD5g.s 			page 71


 3926      00
 3927              	.LASF30:
 3928 00f5 705F7072 		.ascii	"p_prio\000"
 3928      696F00
 3929              	.LASF118:
 3930 00fc 5F736368 		.ascii	"_scheduler_init\000"
 3930      6564756C 
 3930      65725F69 
 3930      6E697400 
 3931              	.LASF11:
 3932 010c 6C6F6E67 		.ascii	"long long int\000"
 3932      206C6F6E 
 3932      6720696E 
 3932      7400
 3933              	.LASF1:
 3934 011a 7369676E 		.ascii	"signed char\000"
 3934      65642063 
 3934      68617200 
 3935              	.LASF43:
 3936 0126 705F6D70 		.ascii	"p_mpool\000"
 3936      6F6F6C00 
 3937              	.LASF97:
 3938 012e 6D5F7175 		.ascii	"m_queue\000"
 3938      65756500 
 3939              	.LASF75:
 3940 0136 76746C69 		.ascii	"vtlist\000"
 3940      737400
 3941              	.LASF104:
 3942 013d 706F7274 		.ascii	"port_unlock\000"
 3942      5F756E6C 
 3942      6F636B00 
 3943              	.LASF88:
 3944 0149 77747472 		.ascii	"wttrp\000"
 3944      7000
 3945              	.LASF134:
 3946 014f 2F6E6673 		.ascii	"/nfs/nfs4/home/cojthack/442FinalProject/sensor\000"
 3946      2F6E6673 
 3946      342F686F 
 3946      6D652F63 
 3946      6F6A7468 
 3947              	.LASF8:
 3948 017e 6C6F6E67 		.ascii	"long int\000"
 3948      20696E74 
 3948      00
 3949              	.LASF115:
 3950 0187 71756575 		.ascii	"queue_dequeue\000"
 3950      655F6465 
 3950      71756575 
 3950      6500
 3951              	.LASF20:
 3952 0195 74737461 		.ascii	"tstate_t\000"
 3952      74655F74 
 3952      00
 3953              	.LASF124:
 3954 019e 63685363 		.ascii	"chSchIsPreemptionRequired\000"
 3954      68497350 
 3954      7265656D 
ARM GAS  /tmp/ccicrD5g.s 			page 72


 3954      7074696F 
 3954      6E526571 
 3955              	.LASF32:
 3956 01b8 705F6E65 		.ascii	"p_newer\000"
 3956      77657200 
 3957              	.LASF94:
 3958 01c0 735F7175 		.ascii	"s_queue\000"
 3958      65756500 
 3959              	.LASF127:
 3960 01c8 63685363 		.ascii	"chSchRescheduleS\000"
 3960      68526573 
 3960      63686564 
 3960      756C6553 
 3960      00
 3961              	.LASF55:
 3962 01d9 725F6E65 		.ascii	"r_newer\000"
 3962      77657200 
 3963              	.LASF79:
 3964 01e1 72656761 		.ascii	"regarm_t\000"
 3964      726D5F74 
 3964      00
 3965              	.LASF128:
 3966 01ea 63685363 		.ascii	"chSchDoReschedule\000"
 3966      68446F52 
 3966      65736368 
 3966      6564756C 
 3966      6500
 3967              	.LASF62:
 3968 01fc 76745F70 		.ascii	"vt_prev\000"
 3968      72657600 
 3969              	.LASF102:
 3970 0204 6D757465 		.ascii	"mutex_t\000"
 3970      785F7400 
 3971              	.LASF107:
 3972 020c 76616C75 		.ascii	"value\000"
 3972      6500
 3973              	.LASF77:
 3974 0212 69646C65 		.ascii	"idle_thread_wa\000"
 3974      5F746872 
 3974      6561645F 
 3974      776100
 3975              	.LASF25:
 3976 0221 636E745F 		.ascii	"cnt_t\000"
 3976      7400
 3977              	.LASF0:
 3978 0227 756E7369 		.ascii	"unsigned int\000"
 3978      676E6564 
 3978      20696E74 
 3978      00
 3979              	.LASF137:
 3980 0234 77616B65 		.ascii	"wakeup\000"
 3980      757000
 3981              	.LASF61:
 3982 023b 76745F6E 		.ascii	"vt_next\000"
 3982      65787400 
 3983              	.LASF90:
 3984 0243 77747365 		.ascii	"wtsemp\000"
ARM GAS  /tmp/ccicrD5g.s 			page 73


 3984      6D7000
 3985              	.LASF130:
 3986 024a 5F706F72 		.ascii	"_port_switch\000"
 3986      745F7377 
 3986      69746368 
 3986      00
 3987              	.LASF63:
 3988 0257 76745F64 		.ascii	"vt_delta\000"
 3988      656C7461 
 3988      00
 3989              	.LASF39:
 3990 0260 705F6D73 		.ascii	"p_msgqueue\000"
 3990      67717565 
 3990      756500
 3991              	.LASF51:
 3992 026b 63685F72 		.ascii	"ch_ready_list\000"
 3992      65616479 
 3992      5F6C6973 
 3992      7400
 3993              	.LASF95:
 3994 0279 735F636E 		.ascii	"s_cnt\000"
 3994      7400
 3995              	.LASF6:
 3996 027f 73686F72 		.ascii	"short unsigned int\000"
 3996      7420756E 
 3996      7369676E 
 3996      65642069 
 3996      6E7400
 3997              	.LASF46:
 3998 0292 63685F74 		.ascii	"ch_thread\000"
 3998      68726561 
 3998      6400
 3999              	.LASF122:
 4000 029c 63685363 		.ascii	"chSchWakeupS\000"
 4000      6857616B 
 4000      65757053 
 4000      00
 4001              	.LASF23:
 4002 02a9 6D73675F 		.ascii	"msg_t\000"
 4002      7400
 4003              	.LASF72:
 4004 02af 63685F73 		.ascii	"ch_system_t\000"
 4004      79737465 
 4004      6D5F7400 
 4005              	.LASF87:
 4006 02bb 77746F62 		.ascii	"wtobjp\000"
 4006      6A7000
 4007              	.LASF41:
 4008 02c2 705F6D74 		.ascii	"p_mtxlist\000"
 4008      786C6973 
 4008      7400
 4009              	.LASF131:
 4010 02cc 63685654 		.ascii	"chVTDoSetI\000"
 4010      446F5365 
 4010      744900
 4011              	.LASF80:
 4012 02d7 73746B61 		.ascii	"stkalign_t\000"
ARM GAS  /tmp/ccicrD5g.s 			page 74


 4012      6C69676E 
 4012      5F7400
 4013              	.LASF53:
 4014 02e2 725F7072 		.ascii	"r_prio\000"
 4014      696F00
 4015              	.LASF38:
 4016 02e9 705F7761 		.ascii	"p_waiting\000"
 4016      6974696E 
 4016      6700
 4017              	.LASF78:
 4018 02f3 73697A65 		.ascii	"sizetype\000"
 4018      74797065 
 4018      00
 4019              	.LASF44:
 4020 02fc 74687265 		.ascii	"thread_reference_t\000"
 4020      61645F72 
 4020      65666572 
 4020      656E6365 
 4020      5F7400
 4021              	.LASF67:
 4022 030f 63685F76 		.ascii	"ch_virtual_timers_list\000"
 4022      69727475 
 4022      616C5F74 
 4022      696D6572 
 4022      735F6C69 
 4023              	.LASF125:
 4024 0326 63685363 		.ascii	"chSchDoRescheduleBehind\000"
 4024      68446F52 
 4024      65736368 
 4024      6564756C 
 4024      65426568 
 4025              	.LASF68:
 4026 033e 76745F6C 		.ascii	"vt_lasttime\000"
 4026      61737474 
 4026      696D6500 
 4027              	.LASF33:
 4028 034a 705F6F6C 		.ascii	"p_older\000"
 4028      64657200 
 4029              	.LASF54:
 4030 0352 725F6374 		.ascii	"r_ctx\000"
 4030      7800
 4031              	.LASF84:
 4032 0358 746D5F63 		.ascii	"tm_calibration_t\000"
 4032      616C6962 
 4032      72617469 
 4032      6F6E5F74 
 4032      00
 4033              	.LASF99:
 4034 0369 6D5F6E65 		.ascii	"m_next\000"
 4034      787400
 4035              	.LASF121:
 4036 0370 74696D65 		.ascii	"time\000"
 4036      00
 4037              	.LASF57:
 4038 0375 725F6375 		.ascii	"r_current\000"
 4038      7272656E 
 4038      7400
ARM GAS  /tmp/ccicrD5g.s 			page 75


 4039              	.LASF56:
 4040 037f 725F6F6C 		.ascii	"r_older\000"
 4040      64657200 
 4041              	.LASF12:
 4042 0387 5F5F7569 		.ascii	"__uint64_t\000"
 4042      6E743634 
 4042      5F7400
 4043              	.LASF21:
 4044 0392 74726566 		.ascii	"trefs_t\000"
 4044      735F7400 
 4045              	.LASF59:
 4046 039a 76697274 		.ascii	"virtual_timer_t\000"
 4046      75616C5F 
 4046      74696D65 
 4046      725F7400 
 4047              	.LASF29:
 4048 03aa 705F7072 		.ascii	"p_prev\000"
 4048      657600
 4049              	.LASF22:
 4050 03b1 74707269 		.ascii	"tprio_t\000"
 4050      6F5F7400 
 4051              	.LASF113:
 4052 03b9 63685379 		.ascii	"chSysUnlockFromISR\000"
 4052      73556E6C 
 4052      6F636B46 
 4052      726F6D49 
 4052      535200
 4053              	.LASF70:
 4054 03cc 63685F73 		.ascii	"ch_system_debug\000"
 4054      79737465 
 4054      6D5F6465 
 4054      62756700 
 4055              	.LASF108:
 4056 03dc 5F426F6F 		.ascii	"_Bool\000"
 4056      6C00
 4057              	.LASF15:
 4058 03e2 696E7433 		.ascii	"int32_t\000"
 4058      325F7400 
 4059              	.LASF4:
 4060 03ea 756E7369 		.ascii	"unsigned char\000"
 4060      676E6564 
 4060      20636861 
 4060      7200
 4061              	.LASF120:
 4062 03f8 6E657773 		.ascii	"newstate\000"
 4062      74617465 
 4062      00
 4063              	.LASF5:
 4064 0401 73686F72 		.ascii	"short int\000"
 4064      7420696E 
 4064      7400
 4065              	.LASF35:
 4066 040b 705F7374 		.ascii	"p_state\000"
 4066      61746500 
 4067              	.LASF110:
 4068 0413 63685365 		.ascii	"chSemFastSignalI\000"
 4068      6D466173 
ARM GAS  /tmp/ccicrD5g.s 			page 76


 4068      74536967 
 4068      6E616C49 
 4068      00
 4069              	.LASF92:
 4070 0424 65776D61 		.ascii	"ewmask\000"
 4070      736B00
 4071              	.LASF28:
 4072 042b 705F6E65 		.ascii	"p_next\000"
 4072      787400
 4073              	.LASF19:
 4074 0432 746D6F64 		.ascii	"tmode_t\000"
 4074      655F7400 
 4075              	.LASF36:
 4076 043a 705F666C 		.ascii	"p_flags\000"
 4076      61677300 
 4077              	.LASF116:
 4078 0442 5F5F6675 		.ascii	"__func__\000"
 4078      6E635F5F 
 4078      00
 4079              	.LASF73:
 4080 044b 63685F73 		.ascii	"ch_system\000"
 4080      79737465 
 4080      6D00
 4081              	.LASF114:
 4082 0455 63685654 		.ascii	"chVTIsArmedI\000"
 4082      49734172 
 4082      6D656449 
 4082      00
 4083              	.LASF133:
 4084 0462 2E2E2F43 		.ascii	"../ChibiOS/os/rt/src/chschd.c\000"
 4084      68696269 
 4084      4F532F6F 
 4084      732F7274 
 4084      2F737263 
 4085              	.LASF101:
 4086 0480 73656D61 		.ascii	"semaphore_t\000"
 4086      70686F72 
 4086      655F7400 
 4087              	.LASF60:
 4088 048c 63685F76 		.ascii	"ch_virtual_timer\000"
 4088      69727475 
 4088      616C5F74 
 4088      696D6572 
 4088      00
 4089              	.LASF93:
 4090 049d 63685F73 		.ascii	"ch_semaphore\000"
 4090      656D6170 
 4090      686F7265 
 4090      00
 4091              	.LASF119:
 4092 04aa 63685363 		.ascii	"chSchGoSleepS\000"
 4092      68476F53 
 4092      6C656570 
 4092      5300
 4093              	.LASF40:
 4094 04b8 705F6570 		.ascii	"p_epending\000"
 4094      656E6469 
ARM GAS  /tmp/ccicrD5g.s 			page 77


 4094      6E6700
 4095              	.LASF16:
 4096 04c3 75696E74 		.ascii	"uint32_t\000"
 4096      33325F74 
 4096      00
 4097              	.LASF91:
 4098 04cc 77746D74 		.ascii	"wtmtxp\000"
 4098      787000
 4099              	.LASF52:
 4100 04d3 725F7175 		.ascii	"r_queue\000"
 4100      65756500 
 4101              	.LASF135:
 4102 04db 63685363 		.ascii	"chSchReadyI\000"
 4102      68526561 
 4102      64794900 
 4103              	.LASF47:
 4104 04e7 63685F74 		.ascii	"ch_threads_list\000"
 4104      68726561 
 4104      64735F6C 
 4104      69737400 
 4105              	.LASF10:
 4106 04f7 6C6F6E67 		.ascii	"long unsigned int\000"
 4106      20756E73 
 4106      69676E65 
 4106      6420696E 
 4106      7400
 4107              	.LASF100:
 4108 0509 63686172 		.ascii	"char\000"
 4108      00
 4109              	.LASF7:
 4110 050e 5F5F696E 		.ascii	"__int32_t\000"
 4110      7433325F 
 4110      7400
 4111              	.LASF106:
 4112 0518 706F7274 		.ascii	"port_unlock_from_isr\000"
 4112      5F756E6C 
 4112      6F636B5F 
 4112      66726F6D 
 4112      5F697372 
 4113              	.LASF27:
 4114 052d 74687265 		.ascii	"thread_t\000"
 4114      61645F74 
 4114      00
 4115              	.LASF132:
 4116 0536 474E5520 		.ascii	"GNU C 4.8.4 20140526 (release) [ARM/embedded-4_8-br"
 4116      4320342E 
 4116      382E3420 
 4116      32303134 
 4116      30353236 
 4117 0569 616E6368 		.ascii	"anch revision 211358] -mcpu=cortex-m4 -mno-thumb-in"
 4117      20726576 
 4117      6973696F 
 4117      6E203231 
 4117      31333538 
 4118 059c 74657277 		.ascii	"terwork -mthumb -ggdb -O2 -fomit-frame-pointer -fal"
 4118      6F726B20 
 4118      2D6D7468 
ARM GAS  /tmp/ccicrD5g.s 			page 78


 4118      756D6220 
 4118      2D676764 
 4119 05cf 69676E2D 		.ascii	"ign-functions=16 -ffunction-sections -fdata-section"
 4119      66756E63 
 4119      74696F6E 
 4119      733D3136 
 4119      202D6666 
 4120 0602 73202D66 		.ascii	"s -fno-common\000"
 4120      6E6F2D63 
 4120      6F6D6D6F 
 4120      6E00
 4121              	.LASF117:
 4122 0610 71756575 		.ascii	"queue_fifo_remove\000"
 4122      655F6669 
 4122      666F5F72 
 4122      656D6F76 
 4122      6500
 4123              	.LASF26:
 4124 0622 73797374 		.ascii	"systime_t\000"
 4124      696D655F 
 4124      7400
 4125              	.LASF42:
 4126 062c 705F7265 		.ascii	"p_realprio\000"
 4126      616C7072 
 4126      696F00
 4127              	.LASF58:
 4128 0637 76746675 		.ascii	"vtfunc_t\000"
 4128      6E635F74 
 4128      00
 4129              	.LASF9:
 4130 0640 5F5F7569 		.ascii	"__uint32_t\000"
 4130      6E743332 
 4130      5F7400
 4131              	.LASF109:
 4132 064b 5F5F7365 		.ascii	"__set_BASEPRI\000"
 4132      745F4241 
 4132      53455052 
 4132      4900
 4133              	.LASF71:
 4134 0659 70616E69 		.ascii	"panic_msg\000"
 4134      635F6D73 
 4134      6700
 4135              	.LASF83:
 4136 0663 6F666673 		.ascii	"offset\000"
 4136      657400
 4137              	.LASF81:
 4138 066a 636F6E74 		.ascii	"context\000"
 4138      65787400 
 4139              	.LASF18:
 4140 0672 7274636E 		.ascii	"rtcnt_t\000"
 4140      745F7400 
 4141              	.LASF105:
 4142 067a 706F7274 		.ascii	"port_lock_from_isr\000"
 4142      5F6C6F63 
 4142      6B5F6672 
 4142      6F6D5F69 
 4142      737200
ARM GAS  /tmp/ccicrD5g.s 			page 79


 4143              	.LASF65:
 4144 068d 76745F70 		.ascii	"vt_par\000"
 4144      617200
 4145              	.LASF48:
 4146 0694 74687265 		.ascii	"threads_queue_t\000"
 4146      6164735F 
 4146      71756575 
 4146      655F7400 
 4147              	.LASF96:
 4148 06a4 63685F6D 		.ascii	"ch_mutex\000"
 4148      75746578 
 4148      00
 4149              	.LASF37:
 4150 06ad 705F7265 		.ascii	"p_refs\000"
 4150      667300
 4151              	.LASF74:
 4152 06b4 726C6973 		.ascii	"rlist\000"
 4152      7400
 4153              	.LASF14:
 4154 06ba 75696E74 		.ascii	"uint8_t\000"
 4154      385F7400 
 4155              	.LASF112:
 4156 06c2 63685379 		.ascii	"chSysLockFromISR\000"
 4156      734C6F63 
 4156      6B46726F 
 4156      6D495352 
 4156      00
 4157              	.LASF34:
 4158 06d3 705F6E61 		.ascii	"p_name\000"
 4158      6D6500
 4159              	.LASF45:
 4160 06da 74687265 		.ascii	"threads_list_t\000"
 4160      6164735F 
 4160      6C697374 
 4160      5F7400
 4161              	.LASF123:
 4162 06e9 63685363 		.ascii	"chSchGoSleepTimeoutS\000"
 4162      68476F53 
 4162      6C656570 
 4162      54696D65 
 4162      6F757453 
 4163              	.LASF136:
 4164 06fe 63685363 		.ascii	"chSchIsRescRequiredI\000"
 4164      68497352 
 4164      65736352 
 4164      65717569 
 4164      72656449 
 4165              	.LASF98:
 4166 0713 6D5F6F77 		.ascii	"m_owner\000"
 4166      6E657200 
 4167              	.LASF31:
 4168 071b 705F6374 		.ascii	"p_ctx\000"
 4168      7800
 4169              	.LASF64:
 4170 0721 76745F66 		.ascii	"vt_func\000"
 4170      756E6300 
 4171              		.ident	"GCC: (GNU Tools for ARM Embedded Processors) 4.8.4 20140526 (release) [ARM/embedded-4_8-br
ARM GAS  /tmp/ccicrD5g.s 			page 80


ARM GAS  /tmp/ccicrD5g.s 			page 81


DEFINED SYMBOLS
                            *ABS*:00000000 chschd.c
     /tmp/ccicrD5g.s:19     .text.wakeup:00000000 $t
     /tmp/ccicrD5g.s:24     .text.wakeup:00000000 wakeup
     /tmp/ccicrD5g.s:59     .text.wakeup:00000012 $d
     /tmp/ccicrD5g.s:67     .text.wakeup:0000001a $t
     /tmp/ccicrD5g.s:201    .text.wakeup:0000006c $d
     /tmp/ccicrD5g.s:206    .text._scheduler_init:00000000 $t
     /tmp/ccicrD5g.s:212    .text._scheduler_init:00000000 _scheduler_init
     /tmp/ccicrD5g.s:246    .text._scheduler_init:00000010 $d
     /tmp/ccicrD5g.s:251    .text.chSchReadyI:00000000 $t
     /tmp/ccicrD5g.s:257    .text.chSchReadyI:00000000 chSchReadyI
     /tmp/ccicrD5g.s:306    .text.chSchReadyI:00000028 $d
     /tmp/ccicrD5g.s:311    .text.chSchGoSleepS:00000000 $t
     /tmp/ccicrD5g.s:317    .text.chSchGoSleepS:00000000 chSchGoSleepS
     /tmp/ccicrD5g.s:379    .text.chSchGoSleepS:00000020 $d
     /tmp/ccicrD5g.s:384    .text.chSchGoSleepTimeoutS:00000000 $t
     /tmp/ccicrD5g.s:390    .text.chSchGoSleepTimeoutS:00000000 chSchGoSleepTimeoutS
     /tmp/ccicrD5g.s:457    .text.chSchGoSleepTimeoutS:0000003c $d
     /tmp/ccicrD5g.s:463    .text.chSchWakeupS:00000000 $t
     /tmp/ccicrD5g.s:469    .text.chSchWakeupS:00000000 chSchWakeupS
     /tmp/ccicrD5g.s:587    .text.chSchWakeupS:0000005c $d
     /tmp/ccicrD5g.s:593    .text.chSchIsPreemptionRequired:00000000 $t
     /tmp/ccicrD5g.s:599    .text.chSchIsPreemptionRequired:00000000 chSchIsPreemptionRequired
     /tmp/ccicrD5g.s:624    .text.chSchIsPreemptionRequired:00000014 $d
     /tmp/ccicrD5g.s:629    .text.chSchDoRescheduleBehind:00000000 $t
     /tmp/ccicrD5g.s:635    .text.chSchDoRescheduleBehind:00000000 chSchDoRescheduleBehind
     /tmp/ccicrD5g.s:732    .text.chSchDoRescheduleBehind:00000038 $d
     /tmp/ccicrD5g.s:737    .text.chSchDoRescheduleAhead:00000000 $t
     /tmp/ccicrD5g.s:743    .text.chSchDoRescheduleAhead:00000000 chSchDoRescheduleAhead
     /tmp/ccicrD5g.s:827    .text.chSchDoRescheduleAhead:00000038 $d
     /tmp/ccicrD5g.s:832    .text.chSchRescheduleS:00000000 $t
     /tmp/ccicrD5g.s:838    .text.chSchRescheduleS:00000000 chSchRescheduleS
     /tmp/ccicrD5g.s:866    .text.chSchRescheduleS:00000014 $d
     /tmp/ccicrD5g.s:871    .text.chSchDoReschedule:00000000 $t
     /tmp/ccicrD5g.s:877    .text.chSchDoReschedule:00000000 chSchDoReschedule
     /tmp/ccicrD5g.s:896    .bss.ch:00000000 ch
     /tmp/ccicrD5g.s:892    .bss.ch:00000000 $d
                     .debug_frame:00000010 $d
     /tmp/ccicrD5g.s:250    .text._scheduler_init:00000014 $t
     /tmp/ccicrD5g.s:310    .text.chSchReadyI:0000002c $t
     /tmp/ccicrD5g.s:383    .text.chSchGoSleepS:00000024 $t
     /tmp/ccicrD5g.s:462    .text.chSchGoSleepTimeoutS:00000044 $t
     /tmp/ccicrD5g.s:628    .text.chSchIsPreemptionRequired:00000018 $t
     /tmp/ccicrD5g.s:736    .text.chSchDoRescheduleBehind:0000003c $t
     /tmp/ccicrD5g.s:831    .text.chSchDoRescheduleAhead:0000003c $t
     /tmp/ccicrD5g.s:870    .text.chSchRescheduleS:00000018 $t

UNDEFINED SYMBOLS
_port_switch
chVTDoSetI
chVTDoResetI
