ARM GAS  /tmp/ccicrD5g.s 			page 1


   1              		.syntax unified
   2              		.cpu cortex-m4
   3              		.fpu softvfp
   4              		.eabi_attribute 20, 1
   5              		.eabi_attribute 21, 1
   6              		.eabi_attribute 23, 3
   7              		.eabi_attribute 24, 1
   8              		.eabi_attribute 25, 1
   9              		.eabi_attribute 26, 1
  10              		.eabi_attribute 30, 2
  11              		.eabi_attribute 34, 1
  12              		.eabi_attribute 18, 4
  13              		.thumb
  14              		.file	"chschd.c"
  15              		.text
  16              	.Ltext0:
  17              		.cfi_sections	.debug_frame
  18              		.section	.text.wakeup,"ax",%progbits
  19              		.align	2
  20              		.p2align 4,,15
  21              		.thumb
  22              		.thumb_func
  23              		.type	wakeup, %function
  24              	wakeup:
  25              	.LFB244:
  26              		.file 1 "../ChibiOS/os/rt/src/chschd.c"
  27              		.loc 1 275 0
  28              		.cfi_startproc
  29              		@ args = 0, pretend = 0, frame = 0
  30              		@ frame_needed = 0, uses_anonymous_args = 0
  31              		@ link register save eliminated.
  32              	.LVL0:
  33 0000 10B4     		push	{r4}
  34              		.cfi_def_cfa_offset 4
  35              		.cfi_offset 4, -4
  36              	.LBB68:
  37              	.LBB69:
  38              	.LBB70:
  39              	.LBB71:
  40              	.LBB72:
  41              		.file 2 "../ChibiOS/os/ext/CMSIS/include/core_cmFunc.h"
  42              		.loc 2 548 0
  43 0002 2023     		movs	r3, #32
  44              	@ 548 "../ChibiOS/os/ext/CMSIS/include/core_cmFunc.h" 1
  45 0004 83F31188 		MSR basepri, r3
  46              	@ 0 "" 2
  47              		.thumb
  48              	.LBE72:
  49              	.LBE71:
  50              	.LBE70:
  51              	.LBE69:
  52              	.LBE68:
  53              		.loc 1 279 0
  54 0008 037F     		ldrb	r3, [r0, #28]	@ zero_extendqisi2
  55 000a 072B     		cmp	r3, #7
  56 000c 0ED8     		bhi	.L2
  57 000e DFE803F0 		tbb	[pc, r3]
ARM GAS  /tmp/ccicrD5g.s 			page 2


  58              	.L4:
  59 0012 27       		.byte	(.L3-.L4)/2
  60 0013 0D       		.byte	(.L2-.L4)/2
  61 0014 0D       		.byte	(.L2-.L4)/2
  62 0015 23       		.byte	(.L5-.L4)/2
  63 0016 08       		.byte	(.L6-.L4)/2
  64 0017 04       		.byte	(.L7-.L4)/2
  65 0018 0D       		.byte	(.L2-.L4)/2
  66 0019 08       		.byte	(.L6-.L4)/2
  67              		.p2align 1
  68              	.L7:
  69              		.loc 1 290 0
  70 001a 036A     		ldr	r3, [r0, #32]
  71              	.LVL1:
  72              	.LBB73:
  73              	.LBB74:
  74              		.file 3 "../ChibiOS/os/rt/include/chsem.h"
  75              		.loc 3 138 0
  76 001c 9A68     		ldr	r2, [r3, #8]
  77 001e 0132     		adds	r2, r2, #1
  78 0020 9A60     		str	r2, [r3, #8]
  79              	.LVL2:
  80              	.L6:
  81              	.LBE74:
  82              	.LBE73:
  83              	.LBB75:
  84              	.LBB76:
  85              		.file 4 "../ChibiOS/os/rt/include/chschd.h"
  86              		.loc 4 693 0
  87 0022 90E80C00 		ldmia	r0, {r2, r3}
  88 0026 1A60     		str	r2, [r3]
  89              		.loc 4 694 0
  90 0028 0268     		ldr	r2, [r0]
  91 002a 5360     		str	r3, [r2, #4]
  92              	.LVL3:
  93              	.L2:
  94              	.LBE76:
  95              	.LBE75:
  96              		.loc 1 304 0
  97 002c 4FF0FF34 		mov	r4, #-1
  98              	.LBB77:
  99              	.LBB78:
 100              		.loc 1 227 0
 101 0030 0022     		movs	r2, #0
 102 0032 8168     		ldr	r1, [r0, #8]
 103              		.loc 1 228 0
 104 0034 0D4B     		ldr	r3, .L12
 105              	.LBE78:
 106              	.LBE77:
 107              		.loc 1 304 0
 108 0036 0462     		str	r4, [r0, #32]
 109              	.LVL4:
 110              	.LBB81:
 111              	.LBB79:
 112              		.loc 1 227 0
 113 0038 0277     		strb	r2, [r0, #28]
 114              	.LVL5:
ARM GAS  /tmp/ccicrD5g.s 			page 3


 115              	.L10:
 116              		.loc 1 230 0
 117 003a 1B68     		ldr	r3, [r3]
 118              	.LVL6:
 119              		.loc 1 231 0
 120 003c 9A68     		ldr	r2, [r3, #8]
 121 003e 8A42     		cmp	r2, r1
 122 0040 FBD2     		bcs	.L10
 123              		.loc 1 234 0
 124 0042 5A68     		ldr	r2, [r3, #4]
 125 0044 4260     		str	r2, [r0, #4]
 126              		.loc 1 233 0
 127 0046 0360     		str	r3, [r0]
 128              	.LBE79:
 129              	.LBE81:
 130              	.LBB82:
 131              	.LBB83:
 132              	.LBB84:
 133              	.LBB85:
 134              	.LBB86:
 135              		.loc 2 548 0
 136 0048 0021     		movs	r1, #0
 137              	.LBE86:
 138              	.LBE85:
 139              	.LBE84:
 140              	.LBE83:
 141              	.LBE82:
 142              	.LBB91:
 143              	.LBB80:
 144              		.loc 1 235 0
 145 004a 1060     		str	r0, [r2]
 146              		.loc 1 236 0
 147 004c 5860     		str	r0, [r3, #4]
 148              	.LVL7:
 149              	.LBE80:
 150              	.LBE91:
 151              	.LBB92:
 152              	.LBB90:
 153              	.LBB89:
 154              	.LBB88:
 155              	.LBB87:
 156              		.loc 2 548 0
 157              	@ 548 "../ChibiOS/os/ext/CMSIS/include/core_cmFunc.h" 1
 158 004e 81F31188 		MSR basepri, r1
 159              	@ 0 "" 2
 160              		.thumb
 161              	.LBE87:
 162              	.LBE88:
 163              	.LBE89:
 164              	.LBE90:
 165              	.LBE92:
 166              		.loc 1 307 0
 167 0052 5DF8044B 		ldr	r4, [sp], #4
 168 0056 7047     		bx	lr
 169              	.LVL8:
 170              	.L5:
 171              		.loc 1 286 0
ARM GAS  /tmp/ccicrD5g.s 			page 4


 172 0058 036A     		ldr	r3, [r0, #32]
 173 005a 0022     		movs	r2, #0
 174 005c 1A60     		str	r2, [r3]
 175              		.loc 1 287 0
 176 005e E5E7     		b	.L2
 177              	.L3:
 178              	.LVL9:
 179              	.LBB93:
 180              	.LBB94:
 181              	.LBB95:
 182              	.LBB96:
 183              	.LBB97:
 184              		.loc 2 548 0
 185 0060 0023     		movs	r3, #0
 186              	@ 548 "../ChibiOS/os/ext/CMSIS/include/core_cmFunc.h" 1
 187 0062 83F31188 		MSR basepri, r3
 188              	@ 0 "" 2
 189              		.thumb
 190              	.LBE97:
 191              	.LBE96:
 192              	.LBE95:
 193              	.LBE94:
 194              	.LBE93:
 195              		.loc 1 307 0
 196 0066 5DF8044B 		ldr	r4, [sp], #4
 197 006a 7047     		bx	lr
 198              	.L13:
 199              		.align	2
 200              	.L12:
 201 006c 00000000 		.word	.LANCHOR0
 202              		.cfi_endproc
 203              	.LFE244:
 204              		.size	wakeup, .-wakeup
 205              		.section	.text._scheduler_init,"ax",%progbits
 206              		.align	2
 207              		.p2align 4,,15
 208              		.global	_scheduler_init
 209              		.thumb
 210              		.thumb_func
 211              		.type	_scheduler_init, %function
 212              	_scheduler_init:
 213              	.LFB241:
 214              		.loc 1 65 0
 215              		.cfi_startproc
 216              		@ args = 0, pretend = 0, frame = 0
 217              		@ frame_needed = 0, uses_anonymous_args = 0
 218              		@ link register save eliminated.
 219              	.LVL10:
 220              	.LBB98:
 221              	.LBB99:
 222              		.loc 4 606 0
 223 0000 034B     		ldr	r3, .L15
 224              	.LBE99:
 225              	.LBE98:
 226              		.loc 1 68 0
 227 0002 0022     		movs	r2, #0
 228              	.LBB101:
ARM GAS  /tmp/ccicrD5g.s 			page 5


 229              	.LBB100:
 230              		.loc 4 606 0
 231 0004 1B60     		str	r3, [r3]
 232              		.loc 4 607 0
 233 0006 5B60     		str	r3, [r3, #4]
 234              	.LBE100:
 235              	.LBE101:
 236              		.loc 1 70 0
 237 0008 1B61     		str	r3, [r3, #16]
 238              		.loc 1 71 0
 239 000a 5B61     		str	r3, [r3, #20]
 240              		.loc 1 68 0
 241 000c 9A60     		str	r2, [r3, #8]
 242 000e 7047     		bx	lr
 243              	.L16:
 244              		.align	2
 245              	.L15:
 246 0010 00000000 		.word	.LANCHOR0
 247              		.cfi_endproc
 248              	.LFE241:
 249              		.size	_scheduler_init, .-_scheduler_init
 250 0014 AFF30080 		.section	.text.chSchReadyI,"ax",%progbits
 250      AFF30080 
 250      AFF30080 
 251              		.align	2
 252              		.p2align 4,,15
 253              		.global	chSchReadyI
 254              		.thumb
 255              		.thumb_func
 256              		.type	chSchReadyI, %function
 257              	chSchReadyI:
 258              	.LFB242:
 259              		.loc 1 218 0
 260              		.cfi_startproc
 261              		@ args = 0, pretend = 0, frame = 0
 262              		@ frame_needed = 0, uses_anonymous_args = 0
 263              		@ link register save eliminated.
 264              	.LVL11:
 265              		.loc 1 227 0
 266 0000 0022     		movs	r2, #0
 267 0002 8168     		ldr	r1, [r0, #8]
 268              		.loc 1 228 0
 269 0004 084B     		ldr	r3, .L20
 270              		.loc 1 218 0
 271 0006 10B4     		push	{r4}
 272              		.cfi_def_cfa_offset 4
 273              		.cfi_offset 4, -4
 274              		.loc 1 218 0
 275 0008 0446     		mov	r4, r0
 276              		.loc 1 227 0
 277 000a 0277     		strb	r2, [r0, #28]
 278              	.LVL12:
 279              	.L19:
 280              		.loc 1 230 0 discriminator 1
 281 000c 1B68     		ldr	r3, [r3]
 282              	.LVL13:
 283              		.loc 1 231 0 discriminator 1
ARM GAS  /tmp/ccicrD5g.s 			page 6


 284 000e 9A68     		ldr	r2, [r3, #8]
 285 0010 8A42     		cmp	r2, r1
 286 0012 FBD2     		bcs	.L19
 287              		.loc 1 234 0
 288 0014 5A68     		ldr	r2, [r3, #4]
 289 0016 6260     		str	r2, [r4, #4]
 290              		.loc 1 233 0
 291 0018 2360     		str	r3, [r4]
 292              		.loc 1 239 0
 293 001a 2046     		mov	r0, r4
 294              	.LVL14:
 295              		.loc 1 235 0
 296 001c 1460     		str	r4, [r2]
 297              		.loc 1 236 0
 298 001e 5C60     		str	r4, [r3, #4]
 299              		.loc 1 239 0
 300 0020 5DF8044B 		ldr	r4, [sp], #4
 301              	.LVL15:
 302 0024 7047     		bx	lr
 303              	.L21:
 304 0026 00BF     		.align	2
 305              	.L20:
 306 0028 00000000 		.word	.LANCHOR0
 307              		.cfi_endproc
 308              	.LFE242:
 309              		.size	chSchReadyI, .-chSchReadyI
 310 002c AFF30080 		.section	.text.chSchGoSleepS,"ax",%progbits
 311              		.align	2
 312              		.p2align 4,,15
 313              		.global	chSchGoSleepS
 314              		.thumb
 315              		.thumb_func
 316              		.type	chSchGoSleepS, %function
 317              	chSchGoSleepS:
 318              	.LFB243:
 319              		.loc 1 250 0
 320              		.cfi_startproc
 321              		@ args = 0, pretend = 0, frame = 0
 322              		@ frame_needed = 0, uses_anonymous_args = 0
 323              		@ link register save eliminated.
 324              	.LVL16:
 325              		.loc 1 255 0
 326 0000 074B     		ldr	r3, .L23
 327              		.loc 1 250 0
 328 0002 30B4     		push	{r4, r5}
 329              		.cfi_def_cfa_offset 8
 330              		.cfi_offset 4, -8
 331              		.cfi_offset 5, -4
 332              	.LBB102:
 333              	.LBB103:
 334              		.loc 4 674 0
 335 0004 1A68     		ldr	r2, [r3]
 336              	.LBE103:
 337              	.LBE102:
 338              		.loc 1 255 0
 339 0006 9969     		ldr	r1, [r3, #24]
 340              	.LVL17:
ARM GAS  /tmp/ccicrD5g.s 			page 7


 341              	.LBB107:
 342              	.LBB104:
 343              		.loc 4 676 0
 344 0008 1468     		ldr	r4, [r2]
 345              	.LBE104:
 346              	.LBE107:
 347              		.loc 1 256 0
 348 000a 0877     		strb	r0, [r1, #28]
 349              	.LVL18:
 350              		.loc 1 268 0
 351 000c 0125     		movs	r5, #1
 352              	.LBB108:
 353              	.LBB105:
 354              		.loc 4 677 0
 355 000e 6360     		str	r3, [r4, #4]
 356              	.LBE105:
 357              	.LBE108:
 358              		.loc 1 268 0
 359 0010 1577     		strb	r5, [r2, #28]
 360              	.LBB109:
 361              	.LBB106:
 362              		.loc 4 676 0
 363 0012 1C60     		str	r4, [r3]
 364              	.LBE106:
 365              	.LBE109:
 366              		.loc 1 269 0
 367 0014 1046     		mov	r0, r2
 368              	.LVL19:
 369              		.loc 1 270 0
 370 0016 30BC     		pop	{r4, r5}
 371              		.loc 1 262 0
 372 0018 9A61     		str	r2, [r3, #24]
 373              		.loc 1 269 0
 374 001a FFF7FEBF 		b	_port_switch
 375              	.LVL20:
 376              	.L24:
 377 001e 00BF     		.align	2
 378              	.L23:
 379 0020 00000000 		.word	.LANCHOR0
 380              		.cfi_endproc
 381              	.LFE243:
 382              		.size	chSchGoSleepS, .-chSchGoSleepS
 383 0024 AFF30080 		.section	.text.chSchGoSleepTimeoutS,"ax",%progbits
 383      AFF30080 
 383      AFF30080 
 384              		.align	2
 385              		.p2align 4,,15
 386              		.global	chSchGoSleepTimeoutS
 387              		.thumb
 388              		.thumb_func
 389              		.type	chSchGoSleepTimeoutS, %function
 390              	chSchGoSleepTimeoutS:
 391              	.LFB245:
 392              		.loc 1 330 0
 393              		.cfi_startproc
 394              		@ args = 0, pretend = 0, frame = 24
 395              		@ frame_needed = 0, uses_anonymous_args = 0
ARM GAS  /tmp/ccicrD5g.s 			page 8


 396              	.LVL21:
 397 0000 30B5     		push	{r4, r5, lr}
 398              		.cfi_def_cfa_offset 12
 399              		.cfi_offset 4, -12
 400              		.cfi_offset 5, -8
 401              		.cfi_offset 14, -4
 402              		.loc 1 334 0
 403 0002 4B1C     		adds	r3, r1, #1
 404              		.loc 1 330 0
 405 0004 87B0     		sub	sp, sp, #28
 406              		.cfi_def_cfa_offset 40
 407              		.loc 1 330 0
 408 0006 0546     		mov	r5, r0
 409              		.loc 1 334 0
 410 0008 11D0     		beq	.L26
 411              	.LBB110:
 412              		.loc 1 337 0
 413 000a 0C4C     		ldr	r4, .L32
 414 000c 0C4A     		ldr	r2, .L32+4
 415 000e A369     		ldr	r3, [r4, #24]
 416 0010 01A8     		add	r0, sp, #4
 417              	.LVL22:
 418 0012 FFF7FEFF 		bl	chVTDoSetI
 419              	.LVL23:
 420              		.loc 1 338 0
 421 0016 2846     		mov	r0, r5
 422 0018 FFF7FEFF 		bl	chSchGoSleepS
 423              	.LVL24:
 424              		.loc 1 339 0
 425 001c 049B     		ldr	r3, [sp, #16]
 426 001e 13B1     		cbz	r3, .L28
 427              		.loc 1 340 0
 428 0020 01A8     		add	r0, sp, #4
 429              	.LVL25:
 430 0022 FFF7FEFF 		bl	chVTDoResetI
 431              	.LVL26:
 432              	.L28:
 433              	.LBE110:
 434              		.loc 1 347 0
 435 0026 A369     		ldr	r3, [r4, #24]
 436              		.loc 1 348 0
 437 0028 186A     		ldr	r0, [r3, #32]
 438 002a 07B0     		add	sp, sp, #28
 439              		@ sp needed
 440 002c 30BD     		pop	{r4, r5, pc}
 441              	.LVL27:
 442              	.L26:
 443 002e 034C     		ldr	r4, .L32
 444              		.loc 1 344 0
 445 0030 FFF7FEFF 		bl	chSchGoSleepS
 446              	.LVL28:
 447              		.loc 1 347 0
 448 0034 A369     		ldr	r3, [r4, #24]
 449              		.loc 1 348 0
 450 0036 186A     		ldr	r0, [r3, #32]
 451 0038 07B0     		add	sp, sp, #28
 452              		@ sp needed
ARM GAS  /tmp/ccicrD5g.s 			page 9


 453 003a 30BD     		pop	{r4, r5, pc}
 454              	.L33:
 455              		.align	2
 456              	.L32:
 457 003c 00000000 		.word	.LANCHOR0
 458 0040 00000000 		.word	wakeup
 459              		.cfi_endproc
 460              	.LFE245:
 461              		.size	chSchGoSleepTimeoutS, .-chSchGoSleepTimeoutS
 462 0044 AFF30080 		.section	.text.chSchWakeupS,"ax",%progbits
 462      AFF30080 
 462      AFF30080 
 463              		.align	2
 464              		.p2align 4,,15
 465              		.global	chSchWakeupS
 466              		.thumb
 467              		.thumb_func
 468              		.type	chSchWakeupS, %function
 469              	chSchWakeupS:
 470              	.LFB246:
 471              		.loc 1 367 0
 472              		.cfi_startproc
 473              		@ args = 0, pretend = 0, frame = 0
 474              		@ frame_needed = 0, uses_anonymous_args = 0
 475              		@ link register save eliminated.
 476              	.LVL29:
 477              		.loc 1 383 0
 478 0000 DFF858C0 		ldr	ip, .L42
 479              		.loc 1 367 0
 480 0004 F0B4     		push	{r4, r5, r6, r7}
 481              		.cfi_def_cfa_offset 16
 482              		.cfi_offset 4, -16
 483              		.cfi_offset 5, -12
 484              		.cfi_offset 6, -8
 485              		.cfi_offset 7, -4
 486              		.loc 1 383 0
 487 0006 DCF81870 		ldr	r7, [ip, #24]
 488 000a 8568     		ldr	r5, [r0, #8]
 489 000c BC68     		ldr	r4, [r7, #8]
 490              		.loc 1 377 0
 491 000e 0162     		str	r1, [r0, #32]
 492              		.loc 1 383 0
 493 0010 A542     		cmp	r5, r4
 494              		.loc 1 367 0
 495 0012 0646     		mov	r6, r0
 496              		.loc 1 383 0
 497 0014 0DD8     		bhi	.L35
 498              	.LVL30:
 499              	.LBB111:
 500              	.LBB112:
 501              		.loc 1 227 0
 502 0016 0022     		movs	r2, #0
 503              		.loc 1 228 0
 504 0018 6346     		mov	r3, ip
 505              		.loc 1 227 0
 506 001a 0277     		strb	r2, [r0, #28]
 507              	.LVL31:
ARM GAS  /tmp/ccicrD5g.s 			page 10


 508              	.L37:
 509              		.loc 1 230 0
 510 001c 1B68     		ldr	r3, [r3]
 511              	.LVL32:
 512              		.loc 1 231 0
 513 001e 9A68     		ldr	r2, [r3, #8]
 514 0020 9542     		cmp	r5, r2
 515 0022 FBD9     		bls	.L37
 516              		.loc 1 234 0
 517 0024 5A68     		ldr	r2, [r3, #4]
 518 0026 7260     		str	r2, [r6, #4]
 519              		.loc 1 233 0
 520 0028 3360     		str	r3, [r6]
 521              		.loc 1 235 0
 522 002a 1660     		str	r6, [r2]
 523              		.loc 1 236 0
 524 002c 5E60     		str	r6, [r3, #4]
 525              	.LBE112:
 526              	.LBE111:
 527              		.loc 1 397 0
 528 002e F0BC     		pop	{r4, r5, r6, r7}
 529 0030 7047     		bx	lr
 530              	.LVL33:
 531              	.L35:
 532              	.LBB113:
 533              	.LBB114:
 534              	.LBB115:
 535              		.loc 1 227 0
 536 0032 0023     		movs	r3, #0
 537 0034 3B77     		strb	r3, [r7, #28]
 538              	.LVL34:
 539              		.loc 1 228 0
 540 0036 6346     		mov	r3, ip
 541              	.LVL35:
 542              	.L40:
 543              		.loc 1 230 0
 544 0038 1B68     		ldr	r3, [r3]
 545              	.LVL36:
 546              		.loc 1 231 0
 547 003a 9A68     		ldr	r2, [r3, #8]
 548 003c 9442     		cmp	r4, r2
 549 003e FBD9     		bls	.L40
 550              		.loc 1 234 0
 551 0040 5A68     		ldr	r2, [r3, #4]
 552 0042 7A60     		str	r2, [r7, #4]
 553              	.LBE115:
 554              	.LBE114:
 555              		.loc 1 394 0
 556 0044 0124     		movs	r4, #1
 557              	.LBB117:
 558              	.LBB116:
 559              		.loc 1 233 0
 560 0046 3B60     		str	r3, [r7]
 561              		.loc 1 235 0
 562 0048 1760     		str	r7, [r2]
 563              		.loc 1 236 0
 564 004a 5F60     		str	r7, [r3, #4]
ARM GAS  /tmp/ccicrD5g.s 			page 11


 565              	.LBE116:
 566              	.LBE117:
 567              		.loc 1 394 0
 568 004c 3477     		strb	r4, [r6, #28]
 569              		.loc 1 395 0
 570 004e 3946     		mov	r1, r7
 571              	.LVL37:
 572 0050 3046     		mov	r0, r6
 573              	.LVL38:
 574              		.loc 1 388 0
 575 0052 CCF81860 		str	r6, [ip, #24]
 576              	.LBE113:
 577              		.loc 1 397 0
 578 0056 F0BC     		pop	{r4, r5, r6, r7}
 579              	.LVL39:
 580              	.LBB118:
 581              		.loc 1 395 0
 582 0058 FFF7FEBF 		b	_port_switch
 583              	.LVL40:
 584              	.L43:
 585              		.align	2
 586              	.L42:
 587 005c 00000000 		.word	.LANCHOR0
 588              	.LBE118:
 589              		.cfi_endproc
 590              	.LFE246:
 591              		.size	chSchWakeupS, .-chSchWakeupS
 592              		.section	.text.chSchIsPreemptionRequired,"ax",%progbits
 593              		.align	2
 594              		.p2align 4,,15
 595              		.global	chSchIsPreemptionRequired
 596              		.thumb
 597              		.thumb_func
 598              		.type	chSchIsPreemptionRequired, %function
 599              	chSchIsPreemptionRequired:
 600              	.LFB248:
 601              		.loc 1 428 0
 602              		.cfi_startproc
 603              		@ args = 0, pretend = 0, frame = 0
 604              		@ frame_needed = 0, uses_anonymous_args = 0
 605              		@ link register save eliminated.
 606              	.LVL41:
 607              		.loc 1 429 0
 608 0000 044B     		ldr	r3, .L45
 609 0002 1A68     		ldr	r2, [r3]
 610              		.loc 1 430 0
 611 0004 9B69     		ldr	r3, [r3, #24]
 612              		.loc 1 441 0
 613 0006 9068     		ldr	r0, [r2, #8]
 614 0008 9B68     		ldr	r3, [r3, #8]
 615              		.loc 1 443 0
 616 000a 9842     		cmp	r0, r3
 617 000c 94BF     		ite	ls
 618 000e 0020     		movls	r0, #0
 619 0010 0120     		movhi	r0, #1
 620 0012 7047     		bx	lr
 621              	.L46:
ARM GAS  /tmp/ccicrD5g.s 			page 12


 622              		.align	2
 623              	.L45:
 624 0014 00000000 		.word	.LANCHOR0
 625              		.cfi_endproc
 626              	.LFE248:
 627              		.size	chSchIsPreemptionRequired, .-chSchIsPreemptionRequired
 628 0018 AFF30080 		.section	.text.chSchDoRescheduleBehind,"ax",%progbits
 628      AFF30080 
 629              		.align	2
 630              		.p2align 4,,15
 631              		.global	chSchDoRescheduleBehind
 632              		.thumb
 633              		.thumb_func
 634              		.type	chSchDoRescheduleBehind, %function
 635              	chSchDoRescheduleBehind:
 636              	.LFB249:
 637              		.loc 1 455 0
 638              		.cfi_startproc
 639              		@ args = 0, pretend = 0, frame = 0
 640              		@ frame_needed = 0, uses_anonymous_args = 0
 641              		@ link register save eliminated.
 642              		.loc 1 458 0
 643 0000 0D4A     		ldr	r2, .L51
 644              	.LBB119:
 645              	.LBB120:
 646              		.loc 4 674 0
 647 0002 1068     		ldr	r0, [r2]
 648              	.LBE120:
 649              	.LBE119:
 650              		.loc 1 455 0
 651 0004 70B4     		push	{r4, r5, r6}
 652              		.cfi_def_cfa_offset 12
 653              		.cfi_offset 4, -12
 654              		.cfi_offset 5, -8
 655              		.cfi_offset 6, -4
 656              	.LBB124:
 657              	.LBB121:
 658              		.loc 4 676 0
 659 0006 0368     		ldr	r3, [r0]
 660              	.LBE121:
 661              	.LBE124:
 662              		.loc 1 458 0
 663 0008 9569     		ldr	r5, [r2, #24]
 664              	.LVL42:
 665              	.LBB125:
 666              	.LBB122:
 667              		.loc 4 676 0
 668 000a 1360     		str	r3, [r2]
 669              	.LBE122:
 670              	.LBE125:
 671              		.loc 1 466 0
 672 000c 0126     		movs	r6, #1
 673              	.LBB126:
 674              	.LBB127:
 675              		.loc 1 227 0
 676 000e 0021     		movs	r1, #0
 677 0010 AC68     		ldr	r4, [r5, #8]
ARM GAS  /tmp/ccicrD5g.s 			page 13


 678              	.LBE127:
 679              	.LBE126:
 680              	.LBB130:
 681              	.LBB123:
 682              		.loc 4 677 0
 683 0012 5A60     		str	r2, [r3, #4]
 684              	.LBE123:
 685              	.LBE130:
 686              		.loc 1 466 0
 687 0014 0677     		strb	r6, [r0, #28]
 688              	.LVL43:
 689              		.loc 1 460 0
 690 0016 9061     		str	r0, [r2, #24]
 691              	.LBB131:
 692              	.LBB128:
 693              		.loc 1 227 0
 694 0018 2977     		strb	r1, [r5, #28]
 695              	.LVL44:
 696 001a 00E0     		b	.L49
 697              	.LVL45:
 698              	.L50:
 699 001c 1B68     		ldr	r3, [r3]
 700              	.LVL46:
 701              	.L49:
 702              		.loc 1 231 0
 703 001e 9A68     		ldr	r2, [r3, #8]
 704 0020 A242     		cmp	r2, r4
 705 0022 FBD2     		bcs	.L50
 706              		.loc 1 234 0
 707 0024 5A68     		ldr	r2, [r3, #4]
 708 0026 6A60     		str	r2, [r5, #4]
 709              		.loc 1 233 0
 710 0028 2B60     		str	r3, [r5]
 711              	.LBE128:
 712              	.LBE131:
 713              		.loc 1 471 0
 714 002a 2946     		mov	r1, r5
 715              	.LBB132:
 716              	.LBB129:
 717              		.loc 1 235 0
 718 002c 1560     		str	r5, [r2]
 719              		.loc 1 236 0
 720 002e 5D60     		str	r5, [r3, #4]
 721              	.LBE129:
 722              	.LBE132:
 723              		.loc 1 472 0
 724 0030 70BC     		pop	{r4, r5, r6}
 725              	.LVL47:
 726              		.loc 1 471 0
 727 0032 FFF7FEBF 		b	_port_switch
 728              	.LVL48:
 729              	.L52:
 730 0036 00BF     		.align	2
 731              	.L51:
 732 0038 00000000 		.word	.LANCHOR0
 733              		.cfi_endproc
 734              	.LFE249:
ARM GAS  /tmp/ccicrD5g.s 			page 14


 735              		.size	chSchDoRescheduleBehind, .-chSchDoRescheduleBehind
 736 003c AFF30080 		.section	.text.chSchDoRescheduleAhead,"ax",%progbits
 737              		.align	2
 738              		.p2align 4,,15
 739              		.global	chSchDoRescheduleAhead
 740              		.thumb
 741              		.thumb_func
 742              		.type	chSchDoRescheduleAhead, %function
 743              	chSchDoRescheduleAhead:
 744              	.LFB250:
 745              		.loc 1 483 0
 746              		.cfi_startproc
 747              		@ args = 0, pretend = 0, frame = 0
 748              		@ frame_needed = 0, uses_anonymous_args = 0
 749              		@ link register save eliminated.
 750              		.loc 1 486 0
 751 0000 0D4A     		ldr	r2, .L57
 752              	.LBB133:
 753              	.LBB134:
 754              		.loc 4 674 0
 755 0002 1068     		ldr	r0, [r2]
 756              	.LBE134:
 757              	.LBE133:
 758              		.loc 1 483 0
 759 0004 70B4     		push	{r4, r5, r6}
 760              		.cfi_def_cfa_offset 12
 761              		.cfi_offset 4, -12
 762              		.cfi_offset 5, -8
 763              		.cfi_offset 6, -4
 764              	.LBB138:
 765              	.LBB135:
 766              		.loc 4 676 0
 767 0006 0368     		ldr	r3, [r0]
 768              	.LBE135:
 769              	.LBE138:
 770              		.loc 1 486 0
 771 0008 9569     		ldr	r5, [r2, #24]
 772              	.LVL49:
 773              	.LBB139:
 774              	.LBB136:
 775              		.loc 4 676 0
 776 000a 1360     		str	r3, [r2]
 777              	.LBE136:
 778              	.LBE139:
 779              		.loc 1 494 0
 780 000c 0126     		movs	r6, #1
 781              		.loc 1 496 0
 782 000e 0021     		movs	r1, #0
 783 0010 AC68     		ldr	r4, [r5, #8]
 784              	.LBB140:
 785              	.LBB137:
 786              		.loc 4 677 0
 787 0012 5A60     		str	r2, [r3, #4]
 788              	.LBE137:
 789              	.LBE140:
 790              		.loc 1 494 0
 791 0014 0677     		strb	r6, [r0, #28]
ARM GAS  /tmp/ccicrD5g.s 			page 15


 792              		.loc 1 488 0
 793 0016 9061     		str	r0, [r2, #24]
 794              		.loc 1 496 0
 795 0018 2977     		strb	r1, [r5, #28]
 796              	.LVL50:
 797 001a 00E0     		b	.L55
 798              	.LVL51:
 799              	.L56:
 800 001c 1B68     		ldr	r3, [r3]
 801              	.LVL52:
 802              	.L55:
 803              		.loc 1 500 0 discriminator 1
 804 001e 9A68     		ldr	r2, [r3, #8]
 805 0020 A242     		cmp	r2, r4
 806 0022 FBD8     		bhi	.L56
 807              		.loc 1 503 0
 808 0024 5A68     		ldr	r2, [r3, #4]
 809 0026 6A60     		str	r2, [r5, #4]
 810              		.loc 1 502 0
 811 0028 2B60     		str	r3, [r5]
 812              		.loc 1 507 0
 813 002a 2946     		mov	r1, r5
 814              		.loc 1 504 0
 815 002c 1560     		str	r5, [r2]
 816              		.loc 1 505 0
 817 002e 5D60     		str	r5, [r3, #4]
 818              		.loc 1 508 0
 819 0030 70BC     		pop	{r4, r5, r6}
 820              	.LVL53:
 821              		.loc 1 507 0
 822 0032 FFF7FEBF 		b	_port_switch
 823              	.LVL54:
 824              	.L58:
 825 0036 00BF     		.align	2
 826              	.L57:
 827 0038 00000000 		.word	.LANCHOR0
 828              		.cfi_endproc
 829              	.LFE250:
 830              		.size	chSchDoRescheduleAhead, .-chSchDoRescheduleAhead
 831 003c AFF30080 		.section	.text.chSchRescheduleS,"ax",%progbits
 832              		.align	2
 833              		.p2align 4,,15
 834              		.global	chSchRescheduleS
 835              		.thumb
 836              		.thumb_func
 837              		.type	chSchRescheduleS, %function
 838              	chSchRescheduleS:
 839              	.LFB247:
 840              		.loc 1 406 0
 841              		.cfi_startproc
 842              		@ args = 0, pretend = 0, frame = 0
 843              		@ frame_needed = 0, uses_anonymous_args = 0
 844              		@ link register save eliminated.
 845              	.LBB141:
 846              	.LBB142:
 847              		.loc 4 715 0
 848 0000 044B     		ldr	r3, .L62
ARM GAS  /tmp/ccicrD5g.s 			page 16


 849 0002 1A68     		ldr	r2, [r3]
 850 0004 9B69     		ldr	r3, [r3, #24]
 851              	.LBE142:
 852              	.LBE141:
 853              		.loc 1 410 0
 854 0006 9268     		ldr	r2, [r2, #8]
 855 0008 9B68     		ldr	r3, [r3, #8]
 856 000a 9A42     		cmp	r2, r3
 857 000c 00D8     		bhi	.L61
 858 000e 7047     		bx	lr
 859              	.L61:
 860              		.loc 1 411 0
 861 0010 FFF7FEBF 		b	chSchDoRescheduleAhead
 862              	.LVL55:
 863              	.L63:
 864              		.align	2
 865              	.L62:
 866 0014 00000000 		.word	.LANCHOR0
 867              		.cfi_endproc
 868              	.LFE247:
 869              		.size	chSchRescheduleS, .-chSchRescheduleS
 870 0018 AFF30080 		.section	.text.chSchDoReschedule,"ax",%progbits
 870      AFF30080 
 871              		.align	2
 872              		.p2align 4,,15
 873              		.global	chSchDoReschedule
 874              		.thumb
 875              		.thumb_func
 876              		.type	chSchDoReschedule, %function
 877              	chSchDoReschedule:
 878              	.LFB251:
 879              		.loc 1 520 0
 880              		.cfi_startproc
 881              		@ args = 0, pretend = 0, frame = 0
 882              		@ frame_needed = 0, uses_anonymous_args = 0
 883              		@ link register save eliminated.
 884              		.loc 1 538 0
 885 0000 FFF7FEBF 		b	chSchDoRescheduleAhead
 886              	.LVL56:
 887              		.cfi_endproc
 888              	.LFE251:
 889              		.size	chSchDoReschedule, .-chSchDoReschedule
 890              		.global	ch
 891 0004 AFF30080 		.section	.bss.ch,"aw",%nobits
 891      AFF30080 
 891      AFF30080 
 892              		.align	3
 893              		.set	.LANCHOR0,. + 0
 894              		.type	ch, %object
 895              		.size	ch, 336
 896              	ch:
 897 0000 00000000 		.space	336
 897      00000000 
 897      00000000 
 897      00000000 
 897      00000000 
 898              		.text
ARM GAS  /tmp/ccicrD5g.s 			page 17


 899              	.Letext0:
 900              		.file 5 "/nfs/nfs5/home/research/hardware/arm2/gcc-arm-embedded/gcc-arm-none-eabi-4_8-2014q2/lib/g
 901              		.file 6 "/nfs/nfs5/home/research/hardware/arm2/gcc-arm-embedded/gcc-arm-none-eabi-4_8-2014q2/arm-n
 902              		.file 7 "/nfs/nfs5/home/research/hardware/arm2/gcc-arm-embedded/gcc-arm-none-eabi-4_8-2014q2/arm-n
 903              		.file 8 "../ChibiOS/os/rt/ports/ARMCMx/compilers/GCC/chtypes.h"
 904              		.file 9 "../ChibiOS/os/rt/include/chsystypes.h"
 905              		.file 10 "../ChibiOS/os/rt/ports/ARMCMx/chcore.h"
 906              		.file 11 "../ChibiOS/os/rt/ports/ARMCMx/chcore_v7m.h"
 907              		.file 12 "../ChibiOS/os/rt/include/chtm.h"
 908              		.file 13 "../ChibiOS/os/rt/include/chmtx.h"
 909              		.file 14 "../ChibiOS/os/rt/include/chvt.h"
 910              		.file 15 "../ChibiOS/os/rt/include/chsys.h"
 911              		.file 16 "../ChibiOS/os/ext/CMSIS/include/core_cm4.h"