ARM GAS  /tmp/ccArzl32.s 			page 1


   1              		.syntax unified
   2              		.cpu cortex-m4
   3              		.fpu softvfp
   4              		.eabi_attribute 20, 1
   5              		.eabi_attribute 21, 1
   6              		.eabi_attribute 23, 3
   7              		.eabi_attribute 24, 1
   8              		.eabi_attribute 25, 1
   9              		.eabi_attribute 26, 1
  10              		.eabi_attribute 30, 2
  11              		.eabi_attribute 34, 1
  12              		.eabi_attribute 18, 4
  13              		.thumb
  14              		.file	"chvt.c"
  15              		.text
  16              	.Ltext0:
  17              		.cfi_sections	.debug_frame
  18              		.section	.text._vt_init,"ax",%progbits
  19              		.align	2
  20              		.p2align 4,,15
  21              		.global	_vt_init
  22              		.thumb
  23              		.thumb_func
  24              		.type	_vt_init, %function
  25              	_vt_init:
  26              	.LFB241:
  27              		.file 1 "../ChibiOS/os/rt/src/chvt.c"
  28              		.loc 1 61 0
  29              		.cfi_startproc
  30              		@ args = 0, pretend = 0, frame = 0
  31              		@ frame_needed = 0, uses_anonymous_args = 0
  32              		@ link register save eliminated.
  33              		.loc 1 63 0
  34 0000 054B     		ldr	r3, .L2
  35              		.loc 1 65 0
  36 0002 4FF0FF30 		mov	r0, #-1
  37              		.loc 1 63 0
  38 0006 03F11C02 		add	r2, r3, #28
  39              		.loc 1 69 0
  40 000a 0021     		movs	r1, #0
  41              		.loc 1 65 0
  42 000c 5862     		str	r0, [r3, #36]
  43              		.loc 1 69 0
  44 000e 9962     		str	r1, [r3, #40]
  45              		.loc 1 63 0
  46 0010 DA61     		str	r2, [r3, #28]
  47              		.loc 1 64 0
  48 0012 1A62     		str	r2, [r3, #32]
  49 0014 7047     		bx	lr
  50              	.L3:
  51 0016 00BF     		.align	2
  52              	.L2:
  53 0018 00000000 		.word	ch
  54              		.cfi_endproc
  55              	.LFE241:
  56              		.size	_vt_init, .-_vt_init
  57 001c AFF30080 		.section	.text.chVTDoSetI,"ax",%progbits
ARM GAS  /tmp/ccArzl32.s 			page 2


  58              		.align	2
  59              		.p2align 4,,15
  60              		.global	chVTDoSetI
  61              		.thumb
  62              		.thumb_func
  63              		.type	chVTDoSetI, %function
  64              	chVTDoSetI:
  65              	.LFB242:
  66              		.loc 1 96 0
  67              		.cfi_startproc
  68              		@ args = 0, pretend = 0, frame = 0
  69              		@ frame_needed = 0, uses_anonymous_args = 0
  70              	.LVL0:
  71 0000 F8B5     		push	{r3, r4, r5, r6, r7, lr}
  72              		.cfi_def_cfa_offset 24
  73              		.cfi_offset 3, -24
  74              		.cfi_offset 4, -20
  75              		.cfi_offset 5, -16
  76              		.cfi_offset 6, -12
  77              		.cfi_offset 7, -8
  78              		.cfi_offset 14, -4
  79              	.LBB27:
  80              		.loc 1 117 0
  81 0002 1C4E     		ldr	r6, .L14
  82 0004 3446     		mov	r4, r6
  83              		.loc 1 113 0
  84 0006 0129     		cmp	r1, #1
  85 0008 98BF     		it	ls
  86 000a 0221     		movls	r1, #2
  87              	.LVL1:
  88              		.loc 1 117 0
  89 000c 54F81C7F 		ldr	r7, [r4, #28]!
  90              	.LBE27:
  91              		.loc 1 103 0
  92 0010 0361     		str	r3, [r0, #16]
  93              	.LBB42:
  94              	.LBB28:
  95              	.LBB29:
  96              	.LBB30:
  97              	.LBB31:
  98              		.file 2 "../ChibiOS/os/hal/ports/STM32/LLD/TIMv1/st_lld.h"
  99              		.loc 2 141 0
 100 0012 4FF08043 		mov	r3, #1073741824
 101              	.LVL2:
 102              	.LBE31:
 103              	.LBE30:
 104              	.LBE29:
 105              	.LBE28:
 106              		.loc 1 117 0
 107 0016 A742     		cmp	r7, r4
 108              	.LBE42:
 109              		.loc 1 96 0
 110 0018 0546     		mov	r5, r0
 111              		.loc 1 104 0
 112 001a C260     		str	r2, [r0, #12]
 113              	.LBB43:
 114              	.LBB35:
ARM GAS  /tmp/ccArzl32.s 			page 3


 115              	.LBB34:
 116              	.LBB33:
 117              	.LBB32:
 118              		.loc 2 141 0
 119 001c 586A     		ldr	r0, [r3, #36]
 120              	.LVL3:
 121              	.LBE32:
 122              	.LBE33:
 123              	.LBE34:
 124              	.LBE35:
 125              		.loc 1 117 0
 126 001e 1ED0     		beq	.L12
 127              		.loc 1 136 0
 128 0020 B46A     		ldr	r4, [r6, #40]
 129              		.loc 1 137 0
 130 0022 BB68     		ldr	r3, [r7, #8]
 131              		.loc 1 136 0
 132 0024 0844     		add	r0, r0, r1
 133 0026 041B     		subs	r4, r0, r4
 134              	.LVL4:
 135              		.loc 1 137 0
 136 0028 9C42     		cmp	r4, r3
 137 002a 15D3     		bcc	.L13
 138              	.LVL5:
 139              	.L7:
 140              	.LBE43:
 141              		.loc 1 150 0
 142 002c F369     		ldr	r3, [r6, #28]
 143              	.LVL6:
 144              		.loc 1 151 0
 145 002e 9A68     		ldr	r2, [r3, #8]
 146 0030 9442     		cmp	r4, r2
 147 0032 04D9     		bls	.L8
 148              	.L9:
 149              		.loc 1 153 0
 150 0034 1B68     		ldr	r3, [r3]
 151              	.LVL7:
 152              		.loc 1 152 0
 153 0036 A41A     		subs	r4, r4, r2
 154              	.LVL8:
 155              		.loc 1 151 0
 156 0038 9A68     		ldr	r2, [r3, #8]
 157 003a A242     		cmp	r2, r4
 158 003c FAD3     		bcc	.L9
 159              	.L8:
 160              		.loc 1 158 0
 161 003e 5A68     		ldr	r2, [r3, #4]
 162 0040 6A60     		str	r2, [r5, #4]
 163              		.loc 1 157 0
 164 0042 2B60     		str	r3, [r5]
 165              		.loc 1 159 0
 166 0044 1560     		str	r5, [r2]
 167              		.loc 1 160 0
 168 0046 5D60     		str	r5, [r3, #4]
 169              		.loc 1 161 0
 170 0048 AC60     		str	r4, [r5, #8]
 171              		.loc 1 165 0
ARM GAS  /tmp/ccArzl32.s 			page 4


 172 004a 9A68     		ldr	r2, [r3, #8]
 173              		.loc 1 166 0
 174 004c 4FF0FF31 		mov	r1, #-1
 175              		.loc 1 165 0
 176 0050 141B     		subs	r4, r2, r4
 177              	.LVL9:
 178 0052 9C60     		str	r4, [r3, #8]
 179              	.LVL10:
 180              		.loc 1 166 0
 181 0054 7162     		str	r1, [r6, #36]
 182 0056 F8BD     		pop	{r3, r4, r5, r6, r7, pc}
 183              	.LVL11:
 184              	.L13:
 185              	.LBB44:
 186              	.LBB36:
 187              	.LBB37:
 188              		.file 3 "../ChibiOS/os/rt/ports/ARMCMx/chcore_timer.h"
 189              		.loc 3 95 0
 190 0058 FFF7FEFF 		bl	stSetAlarm
 191              	.LVL12:
 192 005c E6E7     		b	.L7
 193              	.LVL13:
 194              	.L12:
 195              	.LBE37:
 196              	.LBE36:
 197              		.loc 1 121 0
 198 005e B062     		str	r0, [r6, #40]
 199              		.loc 1 122 0
 200 0060 F561     		str	r5, [r6, #28]
 201              		.loc 1 123 0
 202 0062 3562     		str	r5, [r6, #32]
 203              	.LBB38:
 204              	.LBB39:
 205              		.loc 3 73 0
 206 0064 0844     		add	r0, r0, r1
 207              	.LBE39:
 208              	.LBE38:
 209              		.loc 1 124 0
 210 0066 2F60     		str	r7, [r5]
 211              		.loc 1 125 0
 212 0068 6F60     		str	r7, [r5, #4]
 213              		.loc 1 126 0
 214 006a A960     		str	r1, [r5, #8]
 215              	.LVL14:
 216              	.LBE44:
 217              		.loc 1 167 0
 218 006c BDE8F840 		pop	{r3, r4, r5, r6, r7, lr}
 219              	.LVL15:
 220              	.LBB45:
 221              	.LBB41:
 222              	.LBB40:
 223              		.loc 3 73 0
 224 0070 FFF7FEBF 		b	stStartAlarm
 225              	.LVL16:
 226              	.L15:
 227              		.align	2
 228              	.L14:
ARM GAS  /tmp/ccArzl32.s 			page 5


 229 0074 00000000 		.word	ch
 230              	.LBE40:
 231              	.LBE41:
 232              	.LBE45:
 233              		.cfi_endproc
 234              	.LFE242:
 235              		.size	chVTDoSetI, .-chVTDoSetI
 236 0078 AFF30080 		.section	.text.chVTDoResetI,"ax",%progbits
 236      AFF30080 
 237              		.align	2
 238              		.p2align 4,,15
 239              		.global	chVTDoResetI
 240              		.thumb
 241              		.thumb_func
 242              		.type	chVTDoResetI, %function
 243              	chVTDoResetI:
 244              	.LFB243:
 245              		.loc 1 177 0
 246              		.cfi_startproc
 247              		@ args = 0, pretend = 0, frame = 0
 248              		@ frame_needed = 0, uses_anonymous_args = 0
 249              		@ link register save eliminated.
 250              	.LVL17:
 251              		.loc 1 201 0
 252 0000 1B4A     		ldr	r2, .L25
 253 0002 D369     		ldr	r3, [r2, #28]
 254 0004 8342     		cmp	r3, r0
 255              		.loc 1 177 0
 256 0006 10B4     		push	{r4}
 257              		.cfi_def_cfa_offset 4
 258              		.cfi_offset 4, -4
 259              		.loc 1 201 0
 260 0008 10D0     		beq	.L17
 261              		.loc 1 203 0
 262 000a 4168     		ldr	r1, [r0, #4]
 263 000c 0368     		ldr	r3, [r0]
 264 000e 0B60     		str	r3, [r1]
 265              		.loc 1 204 0
 266 0010 0368     		ldr	r3, [r0]
 267              		.loc 1 208 0
 268 0012 1C32     		adds	r2, r2, #28
 269              		.loc 1 205 0
 270 0014 0024     		movs	r4, #0
 271              		.loc 1 208 0
 272 0016 9342     		cmp	r3, r2
 273              		.loc 1 204 0
 274 0018 5960     		str	r1, [r3, #4]
 275              		.loc 1 205 0
 276 001a C460     		str	r4, [r0, #12]
 277              		.loc 1 208 0
 278 001c 03D0     		beq	.L16
 279              		.loc 1 209 0
 280 001e 8168     		ldr	r1, [r0, #8]
 281 0020 9A68     		ldr	r2, [r3, #8]
 282 0022 0A44     		add	r2, r2, r1
 283 0024 9A60     		str	r2, [r3, #8]
 284              	.LVL18:
ARM GAS  /tmp/ccArzl32.s 			page 6


 285              	.L16:
 286              		.loc 1 255 0
 287 0026 5DF8044B 		ldr	r4, [sp], #4
 288 002a 7047     		bx	lr
 289              	.LVL19:
 290              	.L17:
 291              		.loc 1 215 0
 292 002c 1046     		mov	r0, r2
 293              	.LVL20:
 294 002e 1968     		ldr	r1, [r3]
 295 0030 40F81C1F 		str	r1, [r0, #28]!
 296              		.loc 1 217 0
 297 0034 0024     		movs	r4, #0
 298              		.loc 1 220 0
 299 0036 8142     		cmp	r1, r0
 300              		.loc 1 216 0
 301 0038 4860     		str	r0, [r1, #4]
 302              		.loc 1 217 0
 303 003a DC60     		str	r4, [r3, #12]
 304              		.loc 1 220 0
 305 003c 13D0     		beq	.L24
 306              		.loc 1 227 0
 307 003e 8868     		ldr	r0, [r1, #8]
 308 0040 9B68     		ldr	r3, [r3, #8]
 309              		.loc 1 236 0
 310 0042 926A     		ldr	r2, [r2, #40]
 311              		.loc 1 227 0
 312 0044 0344     		add	r3, r3, r0
 313              	.LBB46:
 314              	.LBB47:
 315              	.LBB48:
 316              	.LBB49:
 317              		.loc 2 141 0
 318 0046 4FF08040 		mov	r0, #1073741824
 319              	.LBE49:
 320              	.LBE48:
 321              	.LBE47:
 322              	.LBE46:
 323              		.loc 1 227 0
 324 004a 8B60     		str	r3, [r1, #8]
 325              	.LBB53:
 326              	.LBB52:
 327              	.LBB51:
 328              	.LBB50:
 329              		.loc 2 141 0
 330 004c 406A     		ldr	r0, [r0, #36]
 331              	.LBE50:
 332              	.LBE51:
 333              	.LBE52:
 334              	.LBE53:
 335              		.loc 1 236 0
 336 004e 821A     		subs	r2, r0, r2
 337              	.LVL21:
 338              		.loc 1 240 0
 339 0050 9342     		cmp	r3, r2
 340 0052 E8D9     		bls	.L16
 341              		.loc 1 245 0
ARM GAS  /tmp/ccArzl32.s 			page 7


 342 0054 9B1A     		subs	r3, r3, r2
 343              	.LVL22:
 344              		.loc 1 249 0
 345 0056 012B     		cmp	r3, #1
 346              		.loc 1 250 0
 347 0058 98BF     		it	ls
 348 005a 0223     		movls	r3, #2
 349              	.LVL23:
 350              	.LBB54:
 351              	.LBB55:
 352              		.loc 3 95 0
 353 005c 1844     		add	r0, r0, r3
 354              	.LVL24:
 355              	.LBE55:
 356              	.LBE54:
 357              		.loc 1 255 0
 358 005e 5DF8044B 		ldr	r4, [sp], #4
 359              	.LBB57:
 360              	.LBB56:
 361              		.loc 3 95 0
 362 0062 FFF7FEBF 		b	stSetAlarm
 363              	.LVL25:
 364              	.L24:
 365              	.LBE56:
 366              	.LBE57:
 367              		.loc 1 255 0
 368 0066 5DF8044B 		ldr	r4, [sp], #4
 369              	.LBB58:
 370              	.LBB59:
 371              		.loc 3 83 0
 372 006a FFF7FEBF 		b	stStopAlarm
 373              	.LVL26:
 374              	.L26:
 375 006e 00BF     		.align	2
 376              	.L25:
 377 0070 00000000 		.word	ch
 378              	.LBE59:
 379              	.LBE58:
 380              		.cfi_endproc
 381              	.LFE243:
 382              		.size	chVTDoResetI, .-chVTDoResetI
 383 0074 AFF30080 		.text
 383      AFF30080 
 383      AFF30080 
 384              	.Letext0:
 385              		.file 4 "/nfs/nfs5/home/research/hardware/arm2/gcc-arm-embedded/gcc-arm-none-eabi-4_8-2014q2/arm-n
 386              		.file 5 "/nfs/nfs5/home/research/hardware/arm2/gcc-arm-embedded/gcc-arm-none-eabi-4_8-2014q2/arm-n
 387              		.file 6 "../ChibiOS/os/rt/ports/ARMCMx/compilers/GCC/chtypes.h"
 388              		.file 7 "../ChibiOS/os/rt/include/chsystypes.h"
 389              		.file 8 "../ChibiOS/os/rt/include/chschd.h"
 390              		.file 9 "../ChibiOS/os/rt/ports/ARMCMx/chcore.h"
 391              		.file 10 "../ChibiOS/os/rt/ports/ARMCMx/chcore_v7m.h"
 392              		.file 11 "../ChibiOS/os/hal/ports/STM32/LLD/TIMv1/stm32_tim.h"
 393              		.file 12 "../ChibiOS/os/rt/include/chtm.h"
 394              		.file 13 "../ChibiOS/os/rt/include/chsem.h"
 395              		.file 14 "../ChibiOS/os/rt/include/chmtx.h"
 396              		.file 15 "../ChibiOS/os/rt/include/chvt.h"
ARM GAS  /tmp/ccArzl32.s 			page 8


 397              		.file 16 "../ChibiOS/os/hal/include/st.h"
 398              		.file 17 "../ChibiOS/os/ext/CMSIS/include/core_cm4.h"