ARM GAS  /tmp/ccYsdjDM.s 			page 1


   1              		.syntax unified
   2              		.cpu cortex-m4
   3              		.fpu softvfp
   4              		.eabi_attribute 20, 1
   5              		.eabi_attribute 21, 1
   6              		.eabi_attribute 23, 3
   7              		.eabi_attribute 24, 1
   8              		.eabi_attribute 25, 1
   9              		.eabi_attribute 26, 1
  10              		.eabi_attribute 30, 2
  11              		.eabi_attribute 34, 1
  12              		.eabi_attribute 18, 4
  13              		.thumb
  14              		.file	"hal_mmcsd.c"
  15              		.text
  16              	.Ltext0:
  17              		.cfi_sections	.debug_frame
  18              		.section	.text._mmcsd_get_slice,"ax",%progbits
  19              		.align	2
  20              		.p2align 4,,15
  21              		.global	_mmcsd_get_slice
  22              		.thumb
  23              		.thumb_func
  24              		.type	_mmcsd_get_slice, %function
  25              	_mmcsd_get_slice:
  26              	.LFB272:
  27              		.file 1 "../ChibiOS/os/hal/src/hal_mmcsd.c"
  28              		.loc 1 63 0
  29              		.cfi_startproc
  30              		@ args = 0, pretend = 0, frame = 0
  31              		@ frame_needed = 0, uses_anonymous_args = 0
  32              		@ link register save eliminated.
  33              	.LVL0:
  34              		.loc 1 72 0
  35 0000 01F01F03 		and	r3, r1, #31
  36 0004 0133     		adds	r3, r3, #1
  37              		.loc 1 63 0
  38 0006 10B4     		push	{r4}
  39              		.cfi_def_cfa_offset 4
  40              		.cfi_offset 4, -4
  41              		.loc 1 72 0
  42 0008 0124     		movs	r4, #1
  43 000a 9C40     		lsls	r4, r4, r3
  44              		.loc 1 71 0
  45 000c 4909     		lsrs	r1, r1, #5
  46              	.LVL1:
  47              		.loc 1 69 0
  48 000e 5309     		lsrs	r3, r2, #5
  49              	.LVL2:
  50              		.loc 1 75 0
  51 0010 8B42     		cmp	r3, r1
  52              		.loc 1 72 0
  53 0012 04F1FF34 		add	r4, r4, #-1
  54              		.loc 1 70 0
  55 0016 02F01F02 		and	r2, r2, #31
  56              	.LVL3:
  57              		.loc 1 75 0
ARM GAS  /tmp/ccYsdjDM.s 			page 2


  58 001a 07D3     		bcc	.L5
  59              		.loc 1 79 0
  60 001c 50F82300 		ldr	r0, [r0, r3, lsl #2]
  61              	.LVL4:
  62 0020 0440     		ands	r4, r4, r0
  63              	.LVL5:
  64 0022 24FA02F0 		lsr	r0, r4, r2
  65              		.loc 1 80 0
  66 0026 5DF8044B 		ldr	r4, [sp], #4
  67 002a 7047     		bx	lr
  68              	.LVL6:
  69              	.L5:
  70              		.loc 1 77 0
  71 002c 50F82110 		ldr	r1, [r0, r1, lsl #2]
  72              	.LVL7:
  73              		.loc 1 76 0
  74 0030 50F82330 		ldr	r3, [r0, r3, lsl #2]
  75              	.LVL8:
  76              		.loc 1 77 0
  77 0034 0C40     		ands	r4, r4, r1
  78              	.LVL9:
  79 0036 C2F12001 		rsb	r1, r2, #32
  80 003a 04FA01F0 		lsl	r0, r4, r1
  81              	.LVL10:
  82              		.loc 1 76 0
  83 003e 23FA02F2 		lsr	r2, r3, r2
  84              	.LVL11:
  85 0042 1043     		orrs	r0, r0, r2
  86              		.loc 1 80 0
  87 0044 5DF8044B 		ldr	r4, [sp], #4
  88 0048 7047     		bx	lr
  89              		.cfi_endproc
  90              	.LFE272:
  91              		.size	_mmcsd_get_slice, .-_mmcsd_get_slice
  92 004a 00BFAFF3 		.section	.text._mmcsd_get_capacity,"ax",%progbits
  92      0080
  93              		.align	2
  94              		.p2align 4,,15
  95              		.global	_mmcsd_get_capacity
  96              		.thumb
  97              		.thumb_func
  98              		.type	_mmcsd_get_capacity, %function
  99              	_mmcsd_get_capacity:
 100              	.LFB273:
 101              		.loc 1 93 0
 102              		.cfi_startproc
 103              		@ args = 0, pretend = 0, frame = 0
 104              		@ frame_needed = 0, uses_anonymous_args = 0
 105              	.LVL12:
 106 0000 70B5     		push	{r4, r5, r6, lr}
 107              		.cfi_def_cfa_offset 16
 108              		.cfi_offset 4, -16
 109              		.cfi_offset 5, -12
 110              		.cfi_offset 6, -8
 111              		.cfi_offset 14, -4
 112              		.loc 1 98 0
 113 0002 7F21     		movs	r1, #127
ARM GAS  /tmp/ccYsdjDM.s 			page 3


 114 0004 7E22     		movs	r2, #126
 115              		.loc 1 93 0
 116 0006 0446     		mov	r4, r0
 117              		.loc 1 98 0
 118 0008 FFF7FEFF 		bl	_mmcsd_get_slice
 119              	.LVL13:
 120 000c 58B1     		cbz	r0, .L8
 121 000e 0128     		cmp	r0, #1
 122 0010 07D1     		bne	.L12
 123              		.loc 1 107 0
 124 0012 2046     		mov	r0, r4
 125 0014 4521     		movs	r1, #69
 126 0016 3022     		movs	r2, #48
 127 0018 FFF7FEFF 		bl	_mmcsd_get_slice
 128              	.LVL14:
 129 001c 0130     		adds	r0, r0, #1
 130 001e 8002     		lsls	r0, r0, #10
 131 0020 70BD     		pop	{r4, r5, r6, pc}
 132              	.LVL15:
 133              	.L12:
 134              		.loc 1 112 0
 135 0022 0020     		movs	r0, #0
 136              		.loc 1 113 0
 137 0024 70BD     		pop	{r4, r5, r6, pc}
 138              	.LVL16:
 139              	.L8:
 140              		.loc 1 101 0
 141 0026 2046     		mov	r0, r4
 142 0028 4921     		movs	r1, #73
 143 002a 3E22     		movs	r2, #62
 144 002c FFF7FEFF 		bl	_mmcsd_get_slice
 145              	.LVL17:
 146              		.loc 1 102 0
 147 0030 3121     		movs	r1, #49
 148              		.loc 1 101 0
 149 0032 0646     		mov	r6, r0
 150              	.LVL18:
 151              		.loc 1 102 0
 152 0034 2F22     		movs	r2, #47
 153 0036 2046     		mov	r0, r4
 154              	.LVL19:
 155 0038 FFF7FEFF 		bl	_mmcsd_get_slice
 156              	.LVL20:
 157              		.loc 1 103 0
 158 003c 5321     		movs	r1, #83
 159              		.loc 1 102 0
 160 003e 0546     		mov	r5, r0
 161              	.LVL21:
 162              		.loc 1 103 0
 163 0040 5022     		movs	r2, #80
 164 0042 2046     		mov	r0, r4
 165              	.LVL22:
 166 0044 FFF7FEFF 		bl	_mmcsd_get_slice
 167              	.LVL23:
 168              		.loc 1 104 0
 169 0048 0136     		adds	r6, r6, #1
 170              	.LVL24:
ARM GAS  /tmp/ccYsdjDM.s 			page 4


 171 004a 0235     		adds	r5, r5, #2
 172              	.LVL25:
 173 004c 06FA05F5 		lsl	r5, r6, r5
 174              	.LVL26:
 175 0050 0938     		subs	r0, r0, #9
 176              	.LVL27:
 177 0052 05FA00F0 		lsl	r0, r5, r0
 178              	.LVL28:
 179 0056 70BD     		pop	{r4, r5, r6, pc}
 180              		.cfi_endproc
 181              	.LFE273:
 182              		.size	_mmcsd_get_capacity, .-_mmcsd_get_capacity
 183 0058 AFF30080 		.section	.text._mmcsd_get_capacity_ext,"ax",%progbits
 183      AFF30080 
 184              		.align	2
 185              		.p2align 4,,15
 186              		.global	_mmcsd_get_capacity_ext
 187              		.thumb
 188              		.thumb_func
 189              		.type	_mmcsd_get_capacity_ext, %function
 190              	_mmcsd_get_capacity_ext:
 191              	.LFB274:
 192              		.loc 1 125 0
 193              		.cfi_startproc
 194              		@ args = 0, pretend = 0, frame = 0
 195              		@ frame_needed = 0, uses_anonymous_args = 0
 196              		@ link register save eliminated.
 197              	.LVL29:
 198              		.loc 1 130 0
 199 0000 90F8D630 		ldrb	r3, [r0, #214]	@ zero_extendqisi2
 200              		.loc 1 129 0
 201 0004 90F8D710 		ldrb	r1, [r0, #215]	@ zero_extendqisi2
 202              		.loc 1 132 0
 203 0008 90F8D420 		ldrb	r2, [r0, #212]	@ zero_extendqisi2
 204              		.loc 1 131 0
 205 000c 90F8D500 		ldrb	r0, [r0, #213]	@ zero_extendqisi2
 206              	.LVL30:
 207              		.loc 1 130 0
 208 0010 1B04     		lsls	r3, r3, #16
 209              		.loc 1 129 0
 210 0012 03EB0163 		add	r3, r3, r1, lsl #24
 211              		.loc 1 130 0
 212 0016 1344     		add	r3, r3, r2
 213              		.loc 1 133 0
 214 0018 03EB0020 		add	r0, r3, r0, lsl #8
 215 001c 7047     		bx	lr
 216              		.cfi_endproc
 217              	.LFE274:
 218              		.size	_mmcsd_get_capacity_ext, .-_mmcsd_get_capacity_ext
 219 001e 00BF     		.section	.text._mmcsd_unpack_sdc_cid,"ax",%progbits
 220              		.align	2
 221              		.p2align 4,,15
 222              		.global	_mmcsd_unpack_sdc_cid
 223              		.thumb
 224              		.thumb_func
 225              		.type	_mmcsd_unpack_sdc_cid, %function
 226              	_mmcsd_unpack_sdc_cid:
ARM GAS  /tmp/ccYsdjDM.s 			page 5


 227              	.LFB275:
 228              		.loc 1 144 0
 229              		.cfi_startproc
 230              		@ args = 0, pretend = 0, frame = 0
 231              		@ frame_needed = 0, uses_anonymous_args = 0
 232              	.LVL31:
 233 0000 38B5     		push	{r3, r4, r5, lr}
 234              		.cfi_def_cfa_offset 16
 235              		.cfi_offset 3, -16
 236              		.cfi_offset 4, -12
 237              		.cfi_offset 5, -8
 238              		.cfi_offset 14, -4
 239              		.loc 1 149 0
 240 0002 00F10805 		add	r5, r0, #8
 241              	.LVL32:
 242              		.loc 1 144 0
 243 0006 0C46     		mov	r4, r1
 244              		.loc 1 150 0
 245 0008 0122     		movs	r2, #1
 246 000a 0721     		movs	r1, #7
 247              	.LVL33:
 248 000c 2846     		mov	r0, r5
 249              	.LVL34:
 250 000e FFF7FEFF 		bl	_mmcsd_get_slice
 251              	.LVL35:
 252              		.loc 1 151 0
 253 0012 1321     		movs	r1, #19
 254              		.loc 1 150 0
 255 0014 2075     		strb	r0, [r4, #20]
 256              		.loc 1 151 0
 257 0016 0C22     		movs	r2, #12
 258 0018 2846     		mov	r0, r5
 259 001a FFF7FEFF 		bl	_mmcsd_get_slice
 260              	.LVL36:
 261 001e 00F5FA60 		add	r0, r0, #2000
 262 0022 6082     		strh	r0, [r4, #18]	@ movhi
 263              		.loc 1 153 0
 264 0024 0B21     		movs	r1, #11
 265 0026 0822     		movs	r2, #8
 266 0028 2846     		mov	r0, r5
 267 002a FFF7FEFF 		bl	_mmcsd_get_slice
 268              	.LVL37:
 269              		.loc 1 154 0
 270 002e 7F21     		movs	r1, #127
 271              		.loc 1 153 0
 272 0030 2074     		strb	r0, [r4, #16]
 273              		.loc 1 154 0
 274 0032 7822     		movs	r2, #120
 275 0034 2846     		mov	r0, r5
 276 0036 FFF7FEFF 		bl	_mmcsd_get_slice
 277              	.LVL38:
 278              		.loc 1 155 0
 279 003a 7721     		movs	r1, #119
 280              		.loc 1 154 0
 281 003c 2070     		strb	r0, [r4]
 282              		.loc 1 155 0
 283 003e 6822     		movs	r2, #104
ARM GAS  /tmp/ccYsdjDM.s 			page 6


 284 0040 2846     		mov	r0, r5
 285 0042 FFF7FEFF 		bl	_mmcsd_get_slice
 286              	.LVL39:
 287              		.loc 1 156 0
 288 0046 4721     		movs	r1, #71
 289              		.loc 1 155 0
 290 0048 6080     		strh	r0, [r4, #2]	@ movhi
 291              		.loc 1 156 0
 292 004a 4022     		movs	r2, #64
 293 004c 2846     		mov	r0, r5
 294 004e FFF7FEFF 		bl	_mmcsd_get_slice
 295              	.LVL40:
 296              		.loc 1 157 0
 297 0052 4F21     		movs	r1, #79
 298              		.loc 1 156 0
 299 0054 2072     		strb	r0, [r4, #8]
 300              		.loc 1 157 0
 301 0056 4822     		movs	r2, #72
 302 0058 2846     		mov	r0, r5
 303 005a FFF7FEFF 		bl	_mmcsd_get_slice
 304              	.LVL41:
 305              		.loc 1 158 0
 306 005e 5721     		movs	r1, #87
 307              		.loc 1 157 0
 308 0060 E071     		strb	r0, [r4, #7]
 309              		.loc 1 158 0
 310 0062 5022     		movs	r2, #80
 311 0064 2846     		mov	r0, r5
 312 0066 FFF7FEFF 		bl	_mmcsd_get_slice
 313              	.LVL42:
 314              		.loc 1 159 0
 315 006a 5F21     		movs	r1, #95
 316              		.loc 1 158 0
 317 006c A071     		strb	r0, [r4, #6]
 318              		.loc 1 159 0
 319 006e 5822     		movs	r2, #88
 320 0070 2846     		mov	r0, r5
 321 0072 FFF7FEFF 		bl	_mmcsd_get_slice
 322              	.LVL43:
 323              		.loc 1 160 0
 324 0076 6721     		movs	r1, #103
 325              		.loc 1 159 0
 326 0078 6071     		strb	r0, [r4, #5]
 327              		.loc 1 160 0
 328 007a 6022     		movs	r2, #96
 329 007c 2846     		mov	r0, r5
 330 007e FFF7FEFF 		bl	_mmcsd_get_slice
 331              	.LVL44:
 332              		.loc 1 161 0
 333 0082 3F21     		movs	r1, #63
 334              		.loc 1 160 0
 335 0084 2071     		strb	r0, [r4, #4]
 336              		.loc 1 161 0
 337 0086 3C22     		movs	r2, #60
 338 0088 2846     		mov	r0, r5
 339 008a FFF7FEFF 		bl	_mmcsd_get_slice
 340              	.LVL45:
ARM GAS  /tmp/ccYsdjDM.s 			page 7


 341              		.loc 1 162 0
 342 008e 3B21     		movs	r1, #59
 343              		.loc 1 161 0
 344 0090 6072     		strb	r0, [r4, #9]
 345              		.loc 1 162 0
 346 0092 3822     		movs	r2, #56
 347 0094 2846     		mov	r0, r5
 348 0096 FFF7FEFF 		bl	_mmcsd_get_slice
 349              	.LVL46:
 350              		.loc 1 163 0
 351 009a 3721     		movs	r1, #55
 352              		.loc 1 162 0
 353 009c A072     		strb	r0, [r4, #10]
 354              		.loc 1 163 0
 355 009e 1822     		movs	r2, #24
 356 00a0 2846     		mov	r0, r5
 357 00a2 FFF7FEFF 		bl	_mmcsd_get_slice
 358              	.LVL47:
 359 00a6 E060     		str	r0, [r4, #12]
 360 00a8 38BD     		pop	{r3, r4, r5, pc}
 361              		.cfi_endproc
 362              	.LFE275:
 363              		.size	_mmcsd_unpack_sdc_cid, .-_mmcsd_unpack_sdc_cid
 364 00aa 00BFAFF3 		.section	.text._mmcsd_unpack_mmc_cid,"ax",%progbits
 364      0080
 365              		.align	2
 366              		.p2align 4,,15
 367              		.global	_mmcsd_unpack_mmc_cid
 368              		.thumb
 369              		.thumb_func
 370              		.type	_mmcsd_unpack_mmc_cid, %function
 371              	_mmcsd_unpack_mmc_cid:
 372              	.LFB276:
 373              		.loc 1 175 0
 374              		.cfi_startproc
 375              		@ args = 0, pretend = 0, frame = 0
 376              		@ frame_needed = 0, uses_anonymous_args = 0
 377              	.LVL48:
 378 0000 38B5     		push	{r3, r4, r5, lr}
 379              		.cfi_def_cfa_offset 16
 380              		.cfi_offset 3, -16
 381              		.cfi_offset 4, -12
 382              		.cfi_offset 5, -8
 383              		.cfi_offset 14, -4
 384              		.loc 1 180 0
 385 0002 00F10805 		add	r5, r0, #8
 386              	.LVL49:
 387              		.loc 1 175 0
 388 0006 0C46     		mov	r4, r1
 389              		.loc 1 181 0
 390 0008 0122     		movs	r2, #1
 391 000a 0721     		movs	r1, #7
 392              	.LVL50:
 393 000c 2846     		mov	r0, r5
 394              	.LVL51:
 395 000e FFF7FEFF 		bl	_mmcsd_get_slice
 396              	.LVL52:
ARM GAS  /tmp/ccYsdjDM.s 			page 8


 397              		.loc 1 182 0
 398 0012 0B21     		movs	r1, #11
 399              		.loc 1 181 0
 400 0014 2075     		strb	r0, [r4, #20]
 401              		.loc 1 182 0
 402 0016 0822     		movs	r2, #8
 403 0018 2846     		mov	r0, r5
 404 001a FFF7FEFF 		bl	_mmcsd_get_slice
 405              	.LVL53:
 406 001e 00F2CD70 		addw	r0, r0, #1997
 407 0022 6082     		strh	r0, [r4, #18]	@ movhi
 408              		.loc 1 184 0
 409 0024 0F21     		movs	r1, #15
 410 0026 0C22     		movs	r2, #12
 411 0028 2846     		mov	r0, r5
 412 002a FFF7FEFF 		bl	_mmcsd_get_slice
 413              	.LVL54:
 414              		.loc 1 185 0
 415 002e 7F21     		movs	r1, #127
 416              		.loc 1 184 0
 417 0030 2074     		strb	r0, [r4, #16]
 418              		.loc 1 185 0
 419 0032 7822     		movs	r2, #120
 420 0034 2846     		mov	r0, r5
 421 0036 FFF7FEFF 		bl	_mmcsd_get_slice
 422              	.LVL55:
 423              		.loc 1 186 0
 424 003a 7721     		movs	r1, #119
 425              		.loc 1 185 0
 426 003c 2070     		strb	r0, [r4]
 427              		.loc 1 186 0
 428 003e 6822     		movs	r2, #104
 429 0040 2846     		mov	r0, r5
 430 0042 FFF7FEFF 		bl	_mmcsd_get_slice
 431              	.LVL56:
 432              		.loc 1 187 0
 433 0046 3F21     		movs	r1, #63
 434              		.loc 1 186 0
 435 0048 6080     		strh	r0, [r4, #2]	@ movhi
 436              		.loc 1 187 0
 437 004a 3822     		movs	r2, #56
 438 004c 2846     		mov	r0, r5
 439 004e FFF7FEFF 		bl	_mmcsd_get_slice
 440              	.LVL57:
 441              		.loc 1 188 0
 442 0052 4721     		movs	r1, #71
 443              		.loc 1 187 0
 444 0054 6072     		strb	r0, [r4, #9]
 445              		.loc 1 188 0
 446 0056 4022     		movs	r2, #64
 447 0058 2846     		mov	r0, r5
 448 005a FFF7FEFF 		bl	_mmcsd_get_slice
 449              	.LVL58:
 450              		.loc 1 189 0
 451 005e 4F21     		movs	r1, #79
 452              		.loc 1 188 0
 453 0060 2072     		strb	r0, [r4, #8]
ARM GAS  /tmp/ccYsdjDM.s 			page 9


 454              		.loc 1 189 0
 455 0062 4822     		movs	r2, #72
 456 0064 2846     		mov	r0, r5
 457 0066 FFF7FEFF 		bl	_mmcsd_get_slice
 458              	.LVL59:
 459              		.loc 1 190 0
 460 006a 5721     		movs	r1, #87
 461              		.loc 1 189 0
 462 006c E071     		strb	r0, [r4, #7]
 463              		.loc 1 190 0
 464 006e 5022     		movs	r2, #80
 465 0070 2846     		mov	r0, r5
 466 0072 FFF7FEFF 		bl	_mmcsd_get_slice
 467              	.LVL60:
 468              		.loc 1 191 0
 469 0076 5F21     		movs	r1, #95
 470              		.loc 1 190 0
 471 0078 A071     		strb	r0, [r4, #6]
 472              		.loc 1 191 0
 473 007a 5822     		movs	r2, #88
 474 007c 2846     		mov	r0, r5
 475 007e FFF7FEFF 		bl	_mmcsd_get_slice
 476              	.LVL61:
 477              		.loc 1 192 0
 478 0082 6721     		movs	r1, #103
 479              		.loc 1 191 0
 480 0084 6071     		strb	r0, [r4, #5]
 481              		.loc 1 192 0
 482 0086 6022     		movs	r2, #96
 483 0088 2846     		mov	r0, r5
 484 008a FFF7FEFF 		bl	_mmcsd_get_slice
 485              	.LVL62:
 486              		.loc 1 193 0
 487 008e 3721     		movs	r1, #55
 488              		.loc 1 192 0
 489 0090 2071     		strb	r0, [r4, #4]
 490              		.loc 1 193 0
 491 0092 3422     		movs	r2, #52
 492 0094 2846     		mov	r0, r5
 493 0096 FFF7FEFF 		bl	_mmcsd_get_slice
 494              	.LVL63:
 495              		.loc 1 194 0
 496 009a 3321     		movs	r1, #51
 497              		.loc 1 193 0
 498 009c A072     		strb	r0, [r4, #10]
 499              		.loc 1 194 0
 500 009e 3022     		movs	r2, #48
 501 00a0 2846     		mov	r0, r5
 502 00a2 FFF7FEFF 		bl	_mmcsd_get_slice
 503              	.LVL64:
 504              		.loc 1 195 0
 505 00a6 2F21     		movs	r1, #47
 506              		.loc 1 194 0
 507 00a8 E072     		strb	r0, [r4, #11]
 508              		.loc 1 195 0
 509 00aa 1022     		movs	r2, #16
 510 00ac 2846     		mov	r0, r5
ARM GAS  /tmp/ccYsdjDM.s 			page 10


 511 00ae FFF7FEFF 		bl	_mmcsd_get_slice
 512              	.LVL65:
 513 00b2 E060     		str	r0, [r4, #12]
 514 00b4 38BD     		pop	{r3, r4, r5, pc}
 515              		.cfi_endproc
 516              	.LFE276:
 517              		.size	_mmcsd_unpack_mmc_cid, .-_mmcsd_unpack_mmc_cid
 518 00b6 00BFAFF3 		.section	.text._mmcsd_unpack_csd_mmc,"ax",%progbits
 518      0080AFF3 
 518      0080
 519              		.align	2
 520              		.p2align 4,,15
 521              		.global	_mmcsd_unpack_csd_mmc
 522              		.thumb
 523              		.thumb_func
 524              		.type	_mmcsd_unpack_csd_mmc, %function
 525              	_mmcsd_unpack_csd_mmc:
 526              	.LFB277:
 527              		.loc 1 207 0
 528              		.cfi_startproc
 529              		@ args = 0, pretend = 0, frame = 0
 530              		@ frame_needed = 0, uses_anonymous_args = 0
 531              	.LVL66:
 532 0000 38B5     		push	{r3, r4, r5, lr}
 533              		.cfi_def_cfa_offset 16
 534              		.cfi_offset 3, -16
 535              		.cfi_offset 4, -12
 536              		.cfi_offset 5, -8
 537              		.cfi_offset 14, -4
 538              		.loc 1 212 0
 539 0002 00F11805 		add	r5, r0, #24
 540              	.LVL67:
 541              		.loc 1 207 0
 542 0006 0C46     		mov	r4, r1
 543              		.loc 1 213 0
 544 0008 3E22     		movs	r2, #62
 545 000a 4921     		movs	r1, #73
 546              	.LVL68:
 547 000c 2846     		mov	r0, r5
 548              	.LVL69:
 549 000e FFF7FEFF 		bl	_mmcsd_get_slice
 550              	.LVL70:
 551              		.loc 1 214 0
 552 0012 3121     		movs	r1, #49
 553              		.loc 1 213 0
 554 0014 E081     		strh	r0, [r4, #14]	@ movhi
 555              		.loc 1 214 0
 556 0016 2F22     		movs	r2, #47
 557 0018 2846     		mov	r0, r5
 558 001a FFF7FEFF 		bl	_mmcsd_get_slice
 559              	.LVL71:
 560              		.loc 1 215 0
 561 001e 5F21     		movs	r1, #95
 562              		.loc 1 214 0
 563 0020 2075     		strb	r0, [r4, #20]
 564              		.loc 1 215 0
 565 0022 5422     		movs	r2, #84
ARM GAS  /tmp/ccYsdjDM.s 			page 11


 566 0024 2846     		mov	r0, r5
 567 0026 FFF7FEFF 		bl	_mmcsd_get_slice
 568              	.LVL72:
 569              		.loc 1 216 0
 570 002a 0E21     		movs	r1, #14
 571 002c 0A46     		mov	r2, r1
 572              		.loc 1 215 0
 573 002e E080     		strh	r0, [r4, #6]	@ movhi
 574              		.loc 1 216 0
 575 0030 2846     		mov	r0, r5
 576 0032 FFF7FEFF 		bl	_mmcsd_get_slice
 577              	.LVL73:
 578              		.loc 1 217 0
 579 0036 0721     		movs	r1, #7
 580              		.loc 1 216 0
 581 0038 E077     		strb	r0, [r4, #31]
 582              		.loc 1 217 0
 583 003a 0122     		movs	r2, #1
 584 003c 2846     		mov	r0, r5
 585 003e FFF7FEFF 		bl	_mmcsd_get_slice
 586              	.LVL74:
 587              		.loc 1 218 0
 588 0042 7F21     		movs	r1, #127
 589              		.loc 1 217 0
 590 0044 84F82400 		strb	r0, [r4, #36]
 591              		.loc 1 218 0
 592 0048 7E22     		movs	r2, #126
 593 004a 2846     		mov	r0, r5
 594 004c FFF7FEFF 		bl	_mmcsd_get_slice
 595              	.LVL75:
 596              		.loc 1 219 0
 597 0050 4C21     		movs	r1, #76
 598 0052 0A46     		mov	r2, r1
 599              		.loc 1 218 0
 600 0054 2070     		strb	r0, [r4]
 601              		.loc 1 219 0
 602 0056 2846     		mov	r0, r5
 603 0058 FFF7FEFF 		bl	_mmcsd_get_slice
 604              	.LVL76:
 605              		.loc 1 220 0
 606 005c 0921     		movs	r1, #9
 607              		.loc 1 219 0
 608 005e 2073     		strb	r0, [r4, #12]
 609              		.loc 1 220 0
 610 0060 0822     		movs	r2, #8
 611 0062 2846     		mov	r0, r5
 612 0064 FFF7FEFF 		bl	_mmcsd_get_slice
 613              	.LVL77:
 614              		.loc 1 221 0
 615 0068 2921     		movs	r1, #41
 616              		.loc 1 220 0
 617 006a 84F82300 		strb	r0, [r4, #35]
 618              		.loc 1 221 0
 619 006e 2522     		movs	r2, #37
 620 0070 2846     		mov	r0, r5
 621 0072 FFF7FEFF 		bl	_mmcsd_get_slice
 622              	.LVL78:
ARM GAS  /tmp/ccYsdjDM.s 			page 12


 623              		.loc 1 222 0
 624 0076 2E21     		movs	r1, #46
 625              		.loc 1 221 0
 626 0078 A075     		strb	r0, [r4, #22]
 627              		.loc 1 222 0
 628 007a 2A22     		movs	r2, #42
 629 007c 2846     		mov	r0, r5
 630 007e FFF7FEFF 		bl	_mmcsd_get_slice
 631              	.LVL79:
 632              		.loc 1 223 0
 633 0082 0B21     		movs	r1, #11
 634              		.loc 1 222 0
 635 0084 6075     		strb	r0, [r4, #21]
 636              		.loc 1 223 0
 637 0086 0A22     		movs	r2, #10
 638 0088 2846     		mov	r0, r5
 639 008a FFF7FEFF 		bl	_mmcsd_get_slice
 640              	.LVL80:
 641              		.loc 1 224 0
 642 008e 0F21     		movs	r1, #15
 643 0090 0A46     		mov	r2, r1
 644              		.loc 1 223 0
 645 0092 84F82200 		strb	r0, [r4, #34]
 646              		.loc 1 224 0
 647 0096 2846     		mov	r0, r5
 648 0098 FFF7FEFF 		bl	_mmcsd_get_slice
 649              	.LVL81:
 650              		.loc 1 225 0
 651 009c 6F21     		movs	r1, #111
 652              		.loc 1 224 0
 653 009e A077     		strb	r0, [r4, #30]
 654              		.loc 1 225 0
 655 00a0 6822     		movs	r2, #104
 656 00a2 2846     		mov	r0, r5
 657 00a4 FFF7FEFF 		bl	_mmcsd_get_slice
 658              	.LVL82:
 659              		.loc 1 226 0
 660 00a8 0D21     		movs	r1, #13
 661 00aa 0A46     		mov	r2, r1
 662              		.loc 1 225 0
 663 00ac E070     		strb	r0, [r4, #3]
 664              		.loc 1 226 0
 665 00ae 2846     		mov	r0, r5
 666 00b0 FFF7FEFF 		bl	_mmcsd_get_slice
 667              	.LVL83:
 668              		.loc 1 227 0
 669 00b4 1C21     		movs	r1, #28
 670              		.loc 1 226 0
 671 00b6 84F82000 		strb	r0, [r4, #32]
 672              		.loc 1 227 0
 673 00ba 1A22     		movs	r2, #26
 674 00bc 2846     		mov	r0, r5
 675 00be FFF7FEFF 		bl	_mmcsd_get_slice
 676              	.LVL84:
 677              		.loc 1 228 0
 678 00c2 5321     		movs	r1, #83
 679              		.loc 1 227 0
ARM GAS  /tmp/ccYsdjDM.s 			page 13


 680 00c4 A076     		strb	r0, [r4, #26]
 681              		.loc 1 228 0
 682 00c6 5022     		movs	r2, #80
 683 00c8 2846     		mov	r0, r5
 684 00ca FFF7FEFF 		bl	_mmcsd_get_slice
 685              	.LVL85:
 686              		.loc 1 229 0
 687 00ce 4F21     		movs	r1, #79
 688 00d0 0A46     		mov	r2, r1
 689              		.loc 1 228 0
 690 00d2 2072     		strb	r0, [r4, #8]
 691              		.loc 1 229 0
 692 00d4 2846     		mov	r0, r5
 693 00d6 FFF7FEFF 		bl	_mmcsd_get_slice
 694              	.LVL86:
 695              		.loc 1 230 0
 696 00da 4D21     		movs	r1, #77
 697 00dc 0A46     		mov	r2, r1
 698              		.loc 1 229 0
 699 00de 6072     		strb	r0, [r4, #9]
 700              		.loc 1 230 0
 701 00e0 2846     		mov	r0, r5
 702 00e2 FFF7FEFF 		bl	_mmcsd_get_slice
 703              	.LVL87:
 704              		.loc 1 231 0
 705 00e6 7D21     		movs	r1, #125
 706              		.loc 1 230 0
 707 00e8 E072     		strb	r0, [r4, #11]
 708              		.loc 1 231 0
 709 00ea 7A22     		movs	r2, #122
 710 00ec 2846     		mov	r0, r5
 711 00ee FFF7FEFF 		bl	_mmcsd_get_slice
 712              	.LVL88:
 713              		.loc 1 232 0
 714 00f2 7721     		movs	r1, #119
 715              		.loc 1 231 0
 716 00f4 6070     		strb	r0, [r4, #1]
 717              		.loc 1 232 0
 718 00f6 7022     		movs	r2, #112
 719 00f8 2846     		mov	r0, r5
 720 00fa FFF7FEFF 		bl	_mmcsd_get_slice
 721              	.LVL89:
 722              		.loc 1 233 0
 723 00fe 0C21     		movs	r1, #12
 724 0100 0A46     		mov	r2, r1
 725              		.loc 1 232 0
 726 0102 A070     		strb	r0, [r4, #2]
 727              		.loc 1 233 0
 728 0104 2846     		mov	r0, r5
 729 0106 FFF7FEFF 		bl	_mmcsd_get_slice
 730              	.LVL90:
 731              		.loc 1 234 0
 732 010a 6721     		movs	r1, #103
 733              		.loc 1 233 0
 734 010c 84F82100 		strb	r0, [r4, #33]
 735              		.loc 1 234 0
 736 0110 6022     		movs	r2, #96
ARM GAS  /tmp/ccYsdjDM.s 			page 14


 737 0112 2846     		mov	r0, r5
 738 0114 FFF7FEFF 		bl	_mmcsd_get_slice
 739              	.LVL91:
 740              		.loc 1 235 0
 741 0118 3A21     		movs	r1, #58
 742              		.loc 1 234 0
 743 011a 2071     		strb	r0, [r4, #4]
 744              		.loc 1 235 0
 745 011c 3822     		movs	r2, #56
 746 011e 2846     		mov	r0, r5
 747 0120 FFF7FEFF 		bl	_mmcsd_get_slice
 748              	.LVL92:
 749              		.loc 1 236 0
 750 0124 3D21     		movs	r1, #61
 751              		.loc 1 235 0
 752 0126 6074     		strb	r0, [r4, #17]
 753              		.loc 1 236 0
 754 0128 3B22     		movs	r2, #59
 755 012a 2846     		mov	r0, r5
 756 012c FFF7FEFF 		bl	_mmcsd_get_slice
 757              	.LVL93:
 758              		.loc 1 237 0
 759 0130 3421     		movs	r1, #52
 760              		.loc 1 236 0
 761 0132 2074     		strb	r0, [r4, #16]
 762              		.loc 1 237 0
 763 0134 3222     		movs	r2, #50
 764 0136 2846     		mov	r0, r5
 765 0138 FFF7FEFF 		bl	_mmcsd_get_slice
 766              	.LVL94:
 767              		.loc 1 238 0
 768 013c 3721     		movs	r1, #55
 769              		.loc 1 237 0
 770 013e E074     		strb	r0, [r4, #19]
 771              		.loc 1 238 0
 772 0140 3522     		movs	r2, #53
 773 0142 2846     		mov	r0, r5
 774 0144 FFF7FEFF 		bl	_mmcsd_get_slice
 775              	.LVL95:
 776              		.loc 1 239 0
 777 0148 1F21     		movs	r1, #31
 778 014a 0A46     		mov	r2, r1
 779              		.loc 1 238 0
 780 014c A074     		strb	r0, [r4, #18]
 781              		.loc 1 239 0
 782 014e 2846     		mov	r0, r5
 783 0150 FFF7FEFF 		bl	_mmcsd_get_slice
 784              	.LVL96:
 785              		.loc 1 240 0
 786 0154 2421     		movs	r1, #36
 787              		.loc 1 239 0
 788 0156 2076     		strb	r0, [r4, #24]
 789              		.loc 1 240 0
 790 0158 2022     		movs	r2, #32
 791 015a 2846     		mov	r0, r5
 792 015c FFF7FEFF 		bl	_mmcsd_get_slice
 793              	.LVL97:
ARM GAS  /tmp/ccYsdjDM.s 			page 15


 794              		.loc 1 241 0
 795 0160 1921     		movs	r1, #25
 796              		.loc 1 240 0
 797 0162 E075     		strb	r0, [r4, #23]
 798              		.loc 1 241 0
 799 0164 1622     		movs	r2, #22
 800 0166 2846     		mov	r0, r5
 801 0168 FFF7FEFF 		bl	_mmcsd_get_slice
 802              	.LVL98:
 803              		.loc 1 242 0
 804 016c 1521     		movs	r1, #21
 805 016e 0A46     		mov	r2, r1
 806              		.loc 1 241 0
 807 0170 E076     		strb	r0, [r4, #27]
 808              		.loc 1 242 0
 809 0172 2846     		mov	r0, r5
 810 0174 FFF7FEFF 		bl	_mmcsd_get_slice
 811              	.LVL99:
 812              		.loc 1 243 0
 813 0178 4E21     		movs	r1, #78
 814              		.loc 1 242 0
 815 017a 2077     		strb	r0, [r4, #28]
 816              		.loc 1 243 0
 817 017c 0A46     		mov	r2, r1
 818 017e 2846     		mov	r0, r5
 819 0180 FFF7FEFF 		bl	_mmcsd_get_slice
 820              	.LVL100:
 821 0184 A072     		strb	r0, [r4, #10]
 822 0186 38BD     		pop	{r3, r4, r5, pc}
 823              		.cfi_endproc
 824              	.LFE277:
 825              		.size	_mmcsd_unpack_csd_mmc, .-_mmcsd_unpack_csd_mmc
 826 0188 AFF30080 		.section	.text._mmcsd_unpack_csd_v10,"ax",%progbits
 826      AFF30080 
 827              		.align	2
 828              		.p2align 4,,15
 829              		.global	_mmcsd_unpack_csd_v10
 830              		.thumb
 831              		.thumb_func
 832              		.type	_mmcsd_unpack_csd_v10, %function
 833              	_mmcsd_unpack_csd_v10:
 834              	.LFB278:
 835              		.loc 1 255 0
 836              		.cfi_startproc
 837              		@ args = 0, pretend = 0, frame = 0
 838              		@ frame_needed = 0, uses_anonymous_args = 0
 839              	.LVL101:
 840 0000 38B5     		push	{r3, r4, r5, lr}
 841              		.cfi_def_cfa_offset 16
 842              		.cfi_offset 3, -16
 843              		.cfi_offset 4, -12
 844              		.cfi_offset 5, -8
 845              		.cfi_offset 14, -4
 846              		.loc 1 260 0
 847 0002 00F11805 		add	r5, r0, #24
 848              	.LVL102:
 849              		.loc 1 255 0
ARM GAS  /tmp/ccYsdjDM.s 			page 16


 850 0006 0C46     		mov	r4, r1
 851              		.loc 1 261 0
 852 0008 3E22     		movs	r2, #62
 853 000a 4921     		movs	r1, #73
 854              	.LVL103:
 855 000c 2846     		mov	r0, r5
 856              	.LVL104:
 857 000e FFF7FEFF 		bl	_mmcsd_get_slice
 858              	.LVL105:
 859              		.loc 1 262 0
 860 0012 3121     		movs	r1, #49
 861              		.loc 1 261 0
 862 0014 A081     		strh	r0, [r4, #12]	@ movhi
 863              		.loc 1 262 0
 864 0016 2F22     		movs	r2, #47
 865 0018 2846     		mov	r0, r5
 866 001a FFF7FEFF 		bl	_mmcsd_get_slice
 867              	.LVL106:
 868              		.loc 1 263 0
 869 001e 5F21     		movs	r1, #95
 870              		.loc 1 262 0
 871 0020 A074     		strb	r0, [r4, #18]
 872              		.loc 1 263 0
 873 0022 5422     		movs	r2, #84
 874 0024 2846     		mov	r0, r5
 875 0026 FFF7FEFF 		bl	_mmcsd_get_slice
 876              	.LVL107:
 877              		.loc 1 264 0
 878 002a 0E21     		movs	r1, #14
 879 002c 0A46     		mov	r2, r1
 880              		.loc 1 263 0
 881 002e A080     		strh	r0, [r4, #4]	@ movhi
 882              		.loc 1 264 0
 883 0030 2846     		mov	r0, r5
 884 0032 FFF7FEFF 		bl	_mmcsd_get_slice
 885              	.LVL108:
 886              		.loc 1 265 0
 887 0036 0721     		movs	r1, #7
 888              		.loc 1 264 0
 889 0038 E076     		strb	r0, [r4, #27]
 890              		.loc 1 265 0
 891 003a 0122     		movs	r2, #1
 892 003c 2846     		mov	r0, r5
 893 003e FFF7FEFF 		bl	_mmcsd_get_slice
 894              	.LVL109:
 895              		.loc 1 266 0
 896 0042 7F21     		movs	r1, #127
 897              		.loc 1 265 0
 898 0044 E077     		strb	r0, [r4, #31]
 899              		.loc 1 266 0
 900 0046 7E22     		movs	r2, #126
 901 0048 2846     		mov	r0, r5
 902 004a FFF7FEFF 		bl	_mmcsd_get_slice
 903              	.LVL110:
 904              		.loc 1 267 0
 905 004e 4C21     		movs	r1, #76
 906 0050 0A46     		mov	r2, r1
ARM GAS  /tmp/ccYsdjDM.s 			page 17


 907              		.loc 1 266 0
 908 0052 2070     		strb	r0, [r4]
 909              		.loc 1 267 0
 910 0054 2846     		mov	r0, r5
 911 0056 FFF7FEFF 		bl	_mmcsd_get_slice
 912              	.LVL111:
 913              		.loc 1 268 0
 914 005a 2E21     		movs	r1, #46
 915 005c 0A46     		mov	r2, r1
 916              		.loc 1 267 0
 917 005e A072     		strb	r0, [r4, #10]
 918              		.loc 1 268 0
 919 0060 2846     		mov	r0, r5
 920 0062 FFF7FEFF 		bl	_mmcsd_get_slice
 921              	.LVL112:
 922              		.loc 1 269 0
 923 0066 2D21     		movs	r1, #45
 924              		.loc 1 268 0
 925 0068 E074     		strb	r0, [r4, #19]
 926              		.loc 1 269 0
 927 006a 2722     		movs	r2, #39
 928 006c 2846     		mov	r0, r5
 929 006e FFF7FEFF 		bl	_mmcsd_get_slice
 930              	.LVL113:
 931              		.loc 1 270 0
 932 0072 0B21     		movs	r1, #11
 933              		.loc 1 269 0
 934 0074 2075     		strb	r0, [r4, #20]
 935              		.loc 1 270 0
 936 0076 0A22     		movs	r2, #10
 937 0078 2846     		mov	r0, r5
 938 007a FFF7FEFF 		bl	_mmcsd_get_slice
 939              	.LVL114:
 940              		.loc 1 271 0
 941 007e 0F21     		movs	r1, #15
 942 0080 0A46     		mov	r2, r1
 943              		.loc 1 270 0
 944 0082 A077     		strb	r0, [r4, #30]
 945              		.loc 1 271 0
 946 0084 2846     		mov	r0, r5
 947 0086 FFF7FEFF 		bl	_mmcsd_get_slice
 948              	.LVL115:
 949              		.loc 1 272 0
 950 008a 6F21     		movs	r1, #111
 951              		.loc 1 271 0
 952 008c A076     		strb	r0, [r4, #26]
 953              		.loc 1 272 0
 954 008e 6822     		movs	r2, #104
 955 0090 2846     		mov	r0, r5
 956 0092 FFF7FEFF 		bl	_mmcsd_get_slice
 957              	.LVL116:
 958              		.loc 1 273 0
 959 0096 0D21     		movs	r1, #13
 960 0098 0A46     		mov	r2, r1
 961              		.loc 1 272 0
 962 009a A070     		strb	r0, [r4, #2]
 963              		.loc 1 273 0
ARM GAS  /tmp/ccYsdjDM.s 			page 18


 964 009c 2846     		mov	r0, r5
 965 009e FFF7FEFF 		bl	_mmcsd_get_slice
 966              	.LVL117:
 967              		.loc 1 274 0
 968 00a2 1C21     		movs	r1, #28
 969              		.loc 1 273 0
 970 00a4 2077     		strb	r0, [r4, #28]
 971              		.loc 1 274 0
 972 00a6 1A22     		movs	r2, #26
 973 00a8 2846     		mov	r0, r5
 974 00aa FFF7FEFF 		bl	_mmcsd_get_slice
 975              	.LVL118:
 976              		.loc 1 275 0
 977 00ae 5321     		movs	r1, #83
 978              		.loc 1 274 0
 979 00b0 E075     		strb	r0, [r4, #23]
 980              		.loc 1 275 0
 981 00b2 5022     		movs	r2, #80
 982 00b4 2846     		mov	r0, r5
 983 00b6 FFF7FEFF 		bl	_mmcsd_get_slice
 984              	.LVL119:
 985              		.loc 1 276 0
 986 00ba 4F21     		movs	r1, #79
 987 00bc 0A46     		mov	r2, r1
 988              		.loc 1 275 0
 989 00be A071     		strb	r0, [r4, #6]
 990              		.loc 1 276 0
 991 00c0 2846     		mov	r0, r5
 992 00c2 FFF7FEFF 		bl	_mmcsd_get_slice
 993              	.LVL120:
 994              		.loc 1 277 0
 995 00c6 4D21     		movs	r1, #77
 996 00c8 0A46     		mov	r2, r1
 997              		.loc 1 276 0
 998 00ca E071     		strb	r0, [r4, #7]
 999              		.loc 1 277 0
 1000 00cc 2846     		mov	r0, r5
 1001 00ce FFF7FEFF 		bl	_mmcsd_get_slice
 1002              	.LVL121:
 1003              		.loc 1 278 0
 1004 00d2 7721     		movs	r1, #119
 1005              		.loc 1 277 0
 1006 00d4 6072     		strb	r0, [r4, #9]
 1007              		.loc 1 278 0
 1008 00d6 7022     		movs	r2, #112
 1009 00d8 2846     		mov	r0, r5
 1010 00da FFF7FEFF 		bl	_mmcsd_get_slice
 1011              	.LVL122:
 1012              		.loc 1 279 0
 1013 00de 0C21     		movs	r1, #12
 1014 00e0 0A46     		mov	r2, r1
 1015              		.loc 1 278 0
 1016 00e2 6070     		strb	r0, [r4, #1]
 1017              		.loc 1 279 0
 1018 00e4 2846     		mov	r0, r5
 1019 00e6 FFF7FEFF 		bl	_mmcsd_get_slice
 1020              	.LVL123:
ARM GAS  /tmp/ccYsdjDM.s 			page 19


 1021              		.loc 1 280 0
 1022 00ea 6721     		movs	r1, #103
 1023              		.loc 1 279 0
 1024 00ec 6077     		strb	r0, [r4, #29]
 1025              		.loc 1 280 0
 1026 00ee 6022     		movs	r2, #96
 1027 00f0 2846     		mov	r0, r5
 1028 00f2 FFF7FEFF 		bl	_mmcsd_get_slice
 1029              	.LVL124:
 1030              		.loc 1 281 0
 1031 00f6 1F21     		movs	r1, #31
 1032 00f8 0A46     		mov	r2, r1
 1033              		.loc 1 280 0
 1034 00fa E070     		strb	r0, [r4, #3]
 1035              		.loc 1 281 0
 1036 00fc 2846     		mov	r0, r5
 1037 00fe FFF7FEFF 		bl	_mmcsd_get_slice
 1038              	.LVL125:
 1039              		.loc 1 282 0
 1040 0102 2621     		movs	r1, #38
 1041              		.loc 1 281 0
 1042 0104 A075     		strb	r0, [r4, #22]
 1043              		.loc 1 282 0
 1044 0106 2022     		movs	r2, #32
 1045 0108 2846     		mov	r0, r5
 1046 010a FFF7FEFF 		bl	_mmcsd_get_slice
 1047              	.LVL126:
 1048              		.loc 1 283 0
 1049 010e 1921     		movs	r1, #25
 1050              		.loc 1 282 0
 1051 0110 6075     		strb	r0, [r4, #21]
 1052              		.loc 1 283 0
 1053 0112 0C22     		movs	r2, #12
 1054 0114 2846     		mov	r0, r5
 1055 0116 FFF7FEFF 		bl	_mmcsd_get_slice
 1056              	.LVL127:
 1057              		.loc 1 284 0
 1058 011a 1521     		movs	r1, #21
 1059 011c 0A46     		mov	r2, r1
 1060              		.loc 1 283 0
 1061 011e 2076     		strb	r0, [r4, #24]
 1062              		.loc 1 284 0
 1063 0120 2846     		mov	r0, r5
 1064 0122 FFF7FEFF 		bl	_mmcsd_get_slice
 1065              	.LVL128:
 1066              		.loc 1 285 0
 1067 0126 4E21     		movs	r1, #78
 1068              		.loc 1 284 0
 1069 0128 6076     		strb	r0, [r4, #25]
 1070              		.loc 1 285 0
 1071 012a 0A46     		mov	r2, r1
 1072 012c 2846     		mov	r0, r5
 1073 012e FFF7FEFF 		bl	_mmcsd_get_slice
 1074              	.LVL129:
 1075 0132 2072     		strb	r0, [r4, #8]
 1076 0134 38BD     		pop	{r3, r4, r5, pc}
 1077              		.cfi_endproc
ARM GAS  /tmp/ccYsdjDM.s 			page 20


 1078              	.LFE278:
 1079              		.size	_mmcsd_unpack_csd_v10, .-_mmcsd_unpack_csd_v10
 1080 0136 00BFAFF3 		.section	.text._mmcsd_unpack_csd_v20,"ax",%progbits
 1080      0080AFF3 
 1080      0080
 1081              		.align	2
 1082              		.p2align 4,,15
 1083              		.global	_mmcsd_unpack_csd_v20
 1084              		.thumb
 1085              		.thumb_func
 1086              		.type	_mmcsd_unpack_csd_v20, %function
 1087              	_mmcsd_unpack_csd_v20:
 1088              	.LFB279:
 1089              		.loc 1 297 0
 1090              		.cfi_startproc
 1091              		@ args = 0, pretend = 0, frame = 0
 1092              		@ frame_needed = 0, uses_anonymous_args = 0
 1093              	.LVL130:
 1094 0000 38B5     		push	{r3, r4, r5, lr}
 1095              		.cfi_def_cfa_offset 16
 1096              		.cfi_offset 3, -16
 1097              		.cfi_offset 4, -12
 1098              		.cfi_offset 5, -8
 1099              		.cfi_offset 14, -4
 1100              		.loc 1 302 0
 1101 0002 00F11805 		add	r5, r0, #24
 1102              	.LVL131:
 1103              		.loc 1 297 0
 1104 0006 0C46     		mov	r4, r1
 1105              		.loc 1 303 0
 1106 0008 3022     		movs	r2, #48
 1107 000a 4521     		movs	r1, #69
 1108              	.LVL132:
 1109 000c 2846     		mov	r0, r5
 1110              	.LVL133:
 1111 000e FFF7FEFF 		bl	_mmcsd_get_slice
 1112              	.LVL134:
 1113              		.loc 1 304 0
 1114 0012 0721     		movs	r1, #7
 1115              		.loc 1 303 0
 1116 0014 E060     		str	r0, [r4, #12]
 1117              		.loc 1 304 0
 1118 0016 0122     		movs	r2, #1
 1119 0018 2846     		mov	r0, r5
 1120 001a FFF7FEFF 		bl	_mmcsd_get_slice
 1121              	.LVL135:
 1122              		.loc 1 305 0
 1123 001e 5F21     		movs	r1, #95
 1124              		.loc 1 304 0
 1125 0020 2077     		strb	r0, [r4, #28]
 1126              		.loc 1 305 0
 1127 0022 5422     		movs	r2, #84
 1128 0024 2846     		mov	r0, r5
 1129 0026 FFF7FEFF 		bl	_mmcsd_get_slice
 1130              	.LVL136:
 1131              		.loc 1 306 0
 1132 002a 0E21     		movs	r1, #14
ARM GAS  /tmp/ccYsdjDM.s 			page 21


 1133 002c 0A46     		mov	r2, r1
 1134              		.loc 1 305 0
 1135 002e A080     		strh	r0, [r4, #4]	@ movhi
 1136              		.loc 1 306 0
 1137 0030 2846     		mov	r0, r5
 1138 0032 FFF7FEFF 		bl	_mmcsd_get_slice
 1139              	.LVL137:
 1140              		.loc 1 307 0
 1141 0036 7F21     		movs	r1, #127
 1142              		.loc 1 306 0
 1143 0038 2076     		strb	r0, [r4, #24]
 1144              		.loc 1 307 0
 1145 003a 7E22     		movs	r2, #126
 1146 003c 2846     		mov	r0, r5
 1147 003e FFF7FEFF 		bl	_mmcsd_get_slice
 1148              	.LVL138:
 1149              		.loc 1 308 0
 1150 0042 4C21     		movs	r1, #76
 1151 0044 0A46     		mov	r2, r1
 1152              		.loc 1 307 0
 1153 0046 2070     		strb	r0, [r4]
 1154              		.loc 1 308 0
 1155 0048 2846     		mov	r0, r5
 1156 004a FFF7FEFF 		bl	_mmcsd_get_slice
 1157              	.LVL139:
 1158              		.loc 1 309 0
 1159 004e 2E21     		movs	r1, #46
 1160 0050 0A46     		mov	r2, r1
 1161              		.loc 1 308 0
 1162 0052 A072     		strb	r0, [r4, #10]
 1163              		.loc 1 309 0
 1164 0054 2846     		mov	r0, r5
 1165 0056 FFF7FEFF 		bl	_mmcsd_get_slice
 1166              	.LVL140:
 1167              		.loc 1 310 0
 1168 005a 0B21     		movs	r1, #11
 1169              		.loc 1 309 0
 1170 005c 2074     		strb	r0, [r4, #16]
 1171              		.loc 1 310 0
 1172 005e 0A22     		movs	r2, #10
 1173 0060 2846     		mov	r0, r5
 1174 0062 FFF7FEFF 		bl	_mmcsd_get_slice
 1175              	.LVL141:
 1176              		.loc 1 311 0
 1177 0066 0F21     		movs	r1, #15
 1178 0068 0A46     		mov	r2, r1
 1179              		.loc 1 310 0
 1180 006a E076     		strb	r0, [r4, #27]
 1181              		.loc 1 311 0
 1182 006c 2846     		mov	r0, r5
 1183 006e FFF7FEFF 		bl	_mmcsd_get_slice
 1184              	.LVL142:
 1185              		.loc 1 312 0
 1186 0072 6F21     		movs	r1, #111
 1187              		.loc 1 311 0
 1188 0074 E075     		strb	r0, [r4, #23]
 1189              		.loc 1 312 0
ARM GAS  /tmp/ccYsdjDM.s 			page 22


 1190 0076 6822     		movs	r2, #104
 1191 0078 2846     		mov	r0, r5
 1192 007a FFF7FEFF 		bl	_mmcsd_get_slice
 1193              	.LVL143:
 1194              		.loc 1 313 0
 1195 007e 0D21     		movs	r1, #13
 1196 0080 0A46     		mov	r2, r1
 1197              		.loc 1 312 0
 1198 0082 A070     		strb	r0, [r4, #2]
 1199              		.loc 1 313 0
 1200 0084 2846     		mov	r0, r5
 1201 0086 FFF7FEFF 		bl	_mmcsd_get_slice
 1202              	.LVL144:
 1203              		.loc 1 314 0
 1204 008a 1C21     		movs	r1, #28
 1205              		.loc 1 313 0
 1206 008c 6076     		strb	r0, [r4, #25]
 1207              		.loc 1 314 0
 1208 008e 1A22     		movs	r2, #26
 1209 0090 2846     		mov	r0, r5
 1210 0092 FFF7FEFF 		bl	_mmcsd_get_slice
 1211              	.LVL145:
 1212              		.loc 1 315 0
 1213 0096 5321     		movs	r1, #83
 1214              		.loc 1 314 0
 1215 0098 2075     		strb	r0, [r4, #20]
 1216              		.loc 1 315 0
 1217 009a 5022     		movs	r2, #80
 1218 009c 2846     		mov	r0, r5
 1219 009e FFF7FEFF 		bl	_mmcsd_get_slice
 1220              	.LVL146:
 1221              		.loc 1 316 0
 1222 00a2 4F21     		movs	r1, #79
 1223 00a4 0A46     		mov	r2, r1
 1224              		.loc 1 315 0
 1225 00a6 A071     		strb	r0, [r4, #6]
 1226              		.loc 1 316 0
 1227 00a8 2846     		mov	r0, r5
 1228 00aa FFF7FEFF 		bl	_mmcsd_get_slice
 1229              	.LVL147:
 1230              		.loc 1 317 0
 1231 00ae 4D21     		movs	r1, #77
 1232 00b0 0A46     		mov	r2, r1
 1233              		.loc 1 316 0
 1234 00b2 E071     		strb	r0, [r4, #7]
 1235              		.loc 1 317 0
 1236 00b4 2846     		mov	r0, r5
 1237 00b6 FFF7FEFF 		bl	_mmcsd_get_slice
 1238              	.LVL148:
 1239              		.loc 1 318 0
 1240 00ba 2D21     		movs	r1, #45
 1241              		.loc 1 317 0
 1242 00bc 6072     		strb	r0, [r4, #9]
 1243              		.loc 1 318 0
 1244 00be 2722     		movs	r2, #39
 1245 00c0 2846     		mov	r0, r5
 1246 00c2 FFF7FEFF 		bl	_mmcsd_get_slice
ARM GAS  /tmp/ccYsdjDM.s 			page 23


 1247              	.LVL149:
 1248              		.loc 1 319 0
 1249 00c6 7721     		movs	r1, #119
 1250              		.loc 1 318 0
 1251 00c8 6074     		strb	r0, [r4, #17]
 1252              		.loc 1 319 0
 1253 00ca 7022     		movs	r2, #112
 1254 00cc 2846     		mov	r0, r5
 1255 00ce FFF7FEFF 		bl	_mmcsd_get_slice
 1256              	.LVL150:
 1257              		.loc 1 320 0
 1258 00d2 0C21     		movs	r1, #12
 1259 00d4 0A46     		mov	r2, r1
 1260              		.loc 1 319 0
 1261 00d6 6070     		strb	r0, [r4, #1]
 1262              		.loc 1 320 0
 1263 00d8 2846     		mov	r0, r5
 1264 00da FFF7FEFF 		bl	_mmcsd_get_slice
 1265              	.LVL151:
 1266              		.loc 1 321 0
 1267 00de 6721     		movs	r1, #103
 1268              		.loc 1 320 0
 1269 00e0 A076     		strb	r0, [r4, #26]
 1270              		.loc 1 321 0
 1271 00e2 6022     		movs	r2, #96
 1272 00e4 2846     		mov	r0, r5
 1273 00e6 FFF7FEFF 		bl	_mmcsd_get_slice
 1274              	.LVL152:
 1275              		.loc 1 322 0
 1276 00ea 1F21     		movs	r1, #31
 1277 00ec 0A46     		mov	r2, r1
 1278              		.loc 1 321 0
 1279 00ee E070     		strb	r0, [r4, #3]
 1280              		.loc 1 322 0
 1281 00f0 2846     		mov	r0, r5
 1282 00f2 FFF7FEFF 		bl	_mmcsd_get_slice
 1283              	.LVL153:
 1284              		.loc 1 323 0
 1285 00f6 2621     		movs	r1, #38
 1286              		.loc 1 322 0
 1287 00f8 E074     		strb	r0, [r4, #19]
 1288              		.loc 1 323 0
 1289 00fa 2022     		movs	r2, #32
 1290 00fc 2846     		mov	r0, r5
 1291 00fe FFF7FEFF 		bl	_mmcsd_get_slice
 1292              	.LVL154:
 1293              		.loc 1 324 0
 1294 0102 1921     		movs	r1, #25
 1295              		.loc 1 323 0
 1296 0104 A074     		strb	r0, [r4, #18]
 1297              		.loc 1 324 0
 1298 0106 0C22     		movs	r2, #12
 1299 0108 2846     		mov	r0, r5
 1300 010a FFF7FEFF 		bl	_mmcsd_get_slice
 1301              	.LVL155:
 1302              		.loc 1 325 0
 1303 010e 1521     		movs	r1, #21
ARM GAS  /tmp/ccYsdjDM.s 			page 24


 1304 0110 0A46     		mov	r2, r1
 1305              		.loc 1 324 0
 1306 0112 6075     		strb	r0, [r4, #21]
 1307              		.loc 1 325 0
 1308 0114 2846     		mov	r0, r5
 1309 0116 FFF7FEFF 		bl	_mmcsd_get_slice
 1310              	.LVL156:
 1311              		.loc 1 326 0
 1312 011a 4E21     		movs	r1, #78
 1313              		.loc 1 325 0
 1314 011c A075     		strb	r0, [r4, #22]
 1315              		.loc 1 326 0
 1316 011e 0A46     		mov	r2, r1
 1317 0120 2846     		mov	r0, r5
 1318 0122 FFF7FEFF 		bl	_mmcsd_get_slice
 1319              	.LVL157:
 1320 0126 2072     		strb	r0, [r4, #8]
 1321 0128 38BD     		pop	{r3, r4, r5, pc}
 1322              		.cfi_endproc
 1323              	.LFE279:
 1324              		.size	_mmcsd_unpack_csd_v20, .-_mmcsd_unpack_csd_v20
 1325 012a 00BFAFF3 		.text
 1325      0080
 1326              	.Letext0:
 1327              		.file 2 "/nfs/nfs5/home/research/hardware/arm2/gcc-arm-embedded/gcc-arm-none-eabi-4_8-2014q2/arm-n
 1328              		.file 3 "/nfs/nfs5/home/research/hardware/arm2/gcc-arm-embedded/gcc-arm-none-eabi-4_8-2014q2/arm-n
 1329              		.file 4 "../ChibiOS/os/rt/ports/ARMCMx/compilers/GCC/chtypes.h"
 1330              		.file 5 "../ChibiOS/os/rt/include/chsystypes.h"
 1331              		.file 6 "../ChibiOS/os/rt/include/chschd.h"
 1332              		.file 7 "../ChibiOS/os/rt/ports/ARMCMx/chcore.h"
 1333              		.file 8 "../ChibiOS/os/rt/ports/ARMCMx/chcore_v7m.h"
 1334              		.file 9 "../ChibiOS/os/rt/include/chtm.h"
 1335              		.file 10 "../ChibiOS/os/rt/include/chsem.h"
 1336              		.file 11 "../ChibiOS/os/rt/include/chmtx.h"
 1337              		.file 12 "../ChibiOS/os/hal/include/hal_ioblock.h"
 1338              		.file 13 "../ChibiOS/os/hal/include/hal_mmcsd.h"
 1339              		.file 14 "../ChibiOS/os/ext/CMSIS/include/core_cm4.h"