ARM GAS  /tmp/ccPLVGei.s 			page 1


   1              		.syntax unified
   2              		.cpu cortex-m4
   3              		.fpu softvfp
   4              		.eabi_attribute 20, 1
   5              		.eabi_attribute 21, 1
   6              		.eabi_attribute 23, 3
   7              		.eabi_attribute 24, 1
   8              		.eabi_attribute 25, 1
   9              		.eabi_attribute 26, 1
  10              		.eabi_attribute 30, 2
  11              		.eabi_attribute 34, 1
  12              		.eabi_attribute 18, 4
  13              		.thumb
  14              		.file	"hal_buffers.c"
  15              		.text
  16              	.Ltext0:
  17              		.cfi_sections	.debug_frame
  18              		.section	.text.ibqObjectInit,"ax",%progbits
  19              		.align	2
  20              		.p2align 4,,15
  21              		.global	ibqObjectInit
  22              		.thumb
  23              		.thumb_func
  24              		.type	ibqObjectInit, %function
  25              	ibqObjectInit:
  26              	.LFB272:
  27              		.file 1 "../ChibiOS/os/hal/src/hal_buffers.c"
  28              		.loc 1 77 0
  29              		.cfi_startproc
  30              		@ args = 8, pretend = 0, frame = 0
  31              		@ frame_needed = 0, uses_anonymous_args = 0
  32              		@ link register save eliminated.
  33              	.LVL0:
  34 0000 F0B4     		push	{r4, r5, r6, r7}
  35              		.cfi_def_cfa_offset 16
  36              		.cfi_offset 4, -16
  37              		.cfi_offset 5, -12
  38              		.cfi_offset 6, -8
  39              		.cfi_offset 7, -4
  40              		.loc 1 85 0
  41 0002 0432     		adds	r2, r2, #4
  42              	.LVL1:
  43              		.loc 1 82 0
  44 0004 0024     		movs	r4, #0
  45              		.loc 1 85 0
  46 0006 03FB0217 		mla	r7, r3, r2, r1
  47              		.loc 1 77 0
  48 000a 049E     		ldr	r6, [sp, #16]
  49 000c 059D     		ldr	r5, [sp, #20]
  50              		.loc 1 85 0
  51 000e 4761     		str	r7, [r0, #20]
  52              		.loc 1 91 0
  53 0010 C662     		str	r6, [r0, #44]
  54              		.loc 1 92 0
  55 0012 0563     		str	r5, [r0, #48]
  56              		.loc 1 82 0
  57 0014 8460     		str	r4, [r0, #8]
ARM GAS  /tmp/ccPLVGei.s 			page 2


  58              		.loc 1 89 0
  59 0016 4462     		str	r4, [r0, #36]
  60              		.loc 1 90 0
  61 0018 8462     		str	r4, [r0, #40]
  62              	.LBB287:
  63              	.LBB288:
  64              	.LBB289:
  65              	.LBB290:
  66              		.file 2 "../ChibiOS/os/rt/include/chschd.h"
  67              		.loc 2 606 0
  68 001a 0060     		str	r0, [r0]
  69              		.loc 2 607 0
  70 001c 4060     		str	r0, [r0, #4]
  71              	.LBE290:
  72              	.LBE289:
  73              	.LBE288:
  74              	.LBE287:
  75              		.loc 1 83 0
  76 001e 0161     		str	r1, [r0, #16]
  77              		.loc 1 84 0
  78 0020 C160     		str	r1, [r0, #12]
  79              		.loc 1 86 0
  80 0022 8261     		str	r2, [r0, #24]
  81              		.loc 1 87 0
  82 0024 C361     		str	r3, [r0, #28]
  83              		.loc 1 88 0
  84 0026 0162     		str	r1, [r0, #32]
  85              		.loc 1 93 0
  86 0028 F0BC     		pop	{r4, r5, r6, r7}
  87              	.LVL2:
  88 002a 7047     		bx	lr
  89              		.cfi_endproc
  90              	.LFE272:
  91              		.size	ibqObjectInit, .-ibqObjectInit
  92 002c AFF30080 		.section	.text.ibqResetI,"ax",%progbits
  93              		.align	2
  94              		.p2align 4,,15
  95              		.global	ibqResetI
  96              		.thumb
  97              		.thumb_func
  98              		.type	ibqResetI, %function
  99              	ibqResetI:
 100              	.LFB273:
 101              		.loc 1 106 0
 102              		.cfi_startproc
 103              		@ args = 0, pretend = 0, frame = 0
 104              		@ frame_needed = 0, uses_anonymous_args = 0
 105              		@ link register save eliminated.
 106              	.LVL3:
 107              		.loc 1 110 0
 108 0000 0022     		movs	r2, #0
 109              		.loc 1 111 0
 110 0002 016A     		ldr	r1, [r0, #32]
 111 0004 0161     		str	r1, [r0, #16]
 112              		.loc 1 112 0
 113 0006 C160     		str	r1, [r0, #12]
 114              		.loc 1 110 0
ARM GAS  /tmp/ccPLVGei.s 			page 3


 115 0008 8260     		str	r2, [r0, #8]
 116              		.loc 1 113 0
 117 000a 4262     		str	r2, [r0, #36]
 118              		.loc 1 114 0
 119 000c 8262     		str	r2, [r0, #40]
 120              	.LVL4:
 121              	.LBB291:
 122              	.LBB292:
 123              		.file 3 "../ChibiOS/os/hal/osal/rt/osal.h"
 124              		.loc 3 810 0
 125 000e 6FF00101 		mvn	r1, #1
 126 0012 FFF7FEBF 		b	chThdDequeueAllI
 127              	.LVL5:
 128              	.LBE292:
 129              	.LBE291:
 130              		.cfi_endproc
 131              	.LFE273:
 132              		.size	ibqResetI, .-ibqResetI
 133 0016 00BFAFF3 		.section	.text.ibqGetEmptyBufferI,"ax",%progbits
 133      0080AFF3 
 133      0080
 134              		.align	2
 135              		.p2align 4,,15
 136              		.global	ibqGetEmptyBufferI
 137              		.thumb
 138              		.thumb_func
 139              		.type	ibqGetEmptyBufferI, %function
 140              	ibqGetEmptyBufferI:
 141              	.LFB274:
 142              		.loc 1 128 0
 143              		.cfi_startproc
 144              		@ args = 0, pretend = 0, frame = 0
 145              		@ frame_needed = 0, uses_anonymous_args = 0
 146              		@ link register save eliminated.
 147              	.LVL6:
 148              		.loc 1 132 0
 149 0000 C368     		ldr	r3, [r0, #12]
 150 0002 0269     		ldr	r2, [r0, #16]
 151 0004 9342     		cmp	r3, r2
 152 0006 01D0     		beq	.L11
 153              	.L4:
 154              		.loc 1 136 0
 155 0008 181D     		adds	r0, r3, #4
 156              	.LVL7:
 157              		.loc 1 137 0
 158 000a 7047     		bx	lr
 159              	.LVL8:
 160              	.L11:
 161              		.loc 1 132 0 discriminator 1
 162 000c 8268     		ldr	r2, [r0, #8]
 163 000e 002A     		cmp	r2, #0
 164 0010 FAD0     		beq	.L4
 165              		.loc 1 133 0
 166 0012 0020     		movs	r0, #0
 167              	.LVL9:
 168 0014 7047     		bx	lr
 169              		.cfi_endproc
ARM GAS  /tmp/ccPLVGei.s 			page 4


 170              	.LFE274:
 171              		.size	ibqGetEmptyBufferI, .-ibqGetEmptyBufferI
 172 0016 00BFAFF3 		.section	.text.ibqPostFullBufferI,"ax",%progbits
 172      0080AFF3 
 172      0080
 173              		.align	2
 174              		.p2align 4,,15
 175              		.global	ibqPostFullBufferI
 176              		.thumb
 177              		.thumb_func
 178              		.type	ibqPostFullBufferI, %function
 179              	ibqPostFullBufferI:
 180              	.LFB275:
 181              		.loc 1 147 0
 182              		.cfi_startproc
 183              		@ args = 0, pretend = 0, frame = 0
 184              		@ frame_needed = 0, uses_anonymous_args = 0
 185              		@ link register save eliminated.
 186              	.LVL10:
 187              		.loc 1 155 0
 188 0000 C368     		ldr	r3, [r0, #12]
 189              		.loc 1 147 0
 190 0002 10B4     		push	{r4}
 191              		.cfi_def_cfa_offset 4
 192              		.cfi_offset 4, -4
 193              		.loc 1 160 0
 194 0004 4469     		ldr	r4, [r0, #20]
 195              		.loc 1 155 0
 196 0006 1960     		str	r1, [r3]
 197              		.loc 1 159 0
 198 0008 8269     		ldr	r2, [r0, #24]
 199              		.loc 1 158 0
 200 000a 8168     		ldr	r1, [r0, #8]
 201              	.LVL11:
 202              		.loc 1 159 0
 203 000c 1344     		add	r3, r3, r2
 204              	.LVL12:
 205              		.loc 1 160 0
 206 000e A342     		cmp	r3, r4
 207              		.loc 1 158 0
 208 0010 01F10101 		add	r1, r1, #1
 209              		.loc 1 159 0
 210 0014 C360     		str	r3, [r0, #12]
 211              	.LVL13:
 212              		.loc 1 161 0
 213 0016 28BF     		it	cs
 214 0018 036A     		ldrcs	r3, [r0, #32]
 215              		.loc 1 158 0
 216 001a 8160     		str	r1, [r0, #8]
 217              		.loc 1 161 0
 218 001c 28BF     		it	cs
 219 001e C360     		strcs	r3, [r0, #12]
 220              	.LVL14:
 221              	.LBB293:
 222              	.LBB294:
 223              		.loc 3 797 0
 224 0020 0021     		movs	r1, #0
ARM GAS  /tmp/ccPLVGei.s 			page 5


 225              	.LBE294:
 226              	.LBE293:
 227              		.loc 1 166 0
 228 0022 5DF8044B 		ldr	r4, [sp], #4
 229              	.LBB296:
 230              	.LBB295:
 231              		.loc 3 797 0
 232 0026 FFF7FEBF 		b	chThdDequeueNextI
 233              	.LVL15:
 234              	.LBE295:
 235              	.LBE296:
 236              		.cfi_endproc
 237              	.LFE275:
 238              		.size	ibqPostFullBufferI, .-ibqPostFullBufferI
 239 002a 00BFAFF3 		.section	.text.ibqGetFullBufferTimeoutS,"ax",%progbits
 239      0080
 240              		.align	2
 241              		.p2align 4,,15
 242              		.global	ibqGetFullBufferTimeoutS
 243              		.thumb
 244              		.thumb_func
 245              		.type	ibqGetFullBufferTimeoutS, %function
 246              	ibqGetFullBufferTimeoutS:
 247              	.LFB277:
 248              		.loc 1 220 0
 249              		.cfi_startproc
 250              		@ args = 0, pretend = 0, frame = 0
 251              		@ frame_needed = 0, uses_anonymous_args = 0
 252              	.LVL16:
 253 0000 38B5     		push	{r3, r4, r5, lr}
 254              		.cfi_def_cfa_offset 16
 255              		.cfi_offset 3, -16
 256              		.cfi_offset 4, -12
 257              		.cfi_offset 5, -8
 258              		.cfi_offset 14, -4
 259              		.loc 1 220 0
 260 0002 0446     		mov	r4, r0
 261 0004 0D46     		mov	r5, r1
 262              		.loc 1 224 0
 263 0006 03E0     		b	.L15
 264              	.LVL17:
 265              	.L17:
 266              	.LBB305:
 267              	.LBB306:
 268              	.LBB307:
 269              		.loc 3 784 0
 270 0008 FFF7FEFF 		bl	chThdEnqueueTimeoutS
 271              	.LVL18:
 272              	.LBE307:
 273              	.LBE306:
 274              		.loc 1 226 0
 275 000c 0028     		cmp	r0, #0
 276 000e 0BDB     		blt	.L16
 277              	.LVL19:
 278              	.L15:
 279              	.LBE305:
 280              		.loc 1 224 0 discriminator 1
ARM GAS  /tmp/ccPLVGei.s 			page 6


 281 0010 A368     		ldr	r3, [r4, #8]
 282              	.LBB310:
 283              	.LBB309:
 284              	.LBB308:
 285              		.loc 3 784 0 discriminator 1
 286 0012 2046     		mov	r0, r4
 287 0014 2946     		mov	r1, r5
 288              	.LBE308:
 289              	.LBE309:
 290              	.LBE310:
 291              		.loc 1 224 0 discriminator 1
 292 0016 002B     		cmp	r3, #0
 293 0018 F6D0     		beq	.L17
 294              	.LVL20:
 295              	.LBB311:
 296              	.LBB312:
 297              		.loc 1 234 0
 298 001a 2369     		ldr	r3, [r4, #16]
 299              		.loc 1 235 0
 300 001c 1A68     		ldr	r2, [r3]
 301              		.loc 1 234 0
 302 001e 0433     		adds	r3, r3, #4
 303              		.loc 1 235 0
 304 0020 1A44     		add	r2, r2, r3
 305 0022 A262     		str	r2, [r4, #40]
 306              		.loc 1 234 0
 307 0024 6362     		str	r3, [r4, #36]
 308              		.loc 1 235 0
 309 0026 0020     		movs	r0, #0
 310              	.LVL21:
 311              	.L16:
 312              	.LBE312:
 313              	.LBE311:
 314              		.loc 1 238 0
 315 0028 38BD     		pop	{r3, r4, r5, pc}
 316              		.cfi_endproc
 317              	.LFE277:
 318              		.size	ibqGetFullBufferTimeoutS, .-ibqGetFullBufferTimeoutS
 319 002a 00BFAFF3 		.section	.text.ibqGetFullBufferTimeout,"ax",%progbits
 319      0080
 320              		.align	2
 321              		.p2align 4,,15
 322              		.global	ibqGetFullBufferTimeout
 323              		.thumb
 324              		.thumb_func
 325              		.type	ibqGetFullBufferTimeout, %function
 326              	ibqGetFullBufferTimeout:
 327              	.LFB276:
 328              		.loc 1 189 0
 329              		.cfi_startproc
 330              		@ args = 0, pretend = 0, frame = 0
 331              		@ frame_needed = 0, uses_anonymous_args = 0
 332              	.LVL22:
 333 0000 08B5     		push	{r3, lr}
 334              		.cfi_def_cfa_offset 8
 335              		.cfi_offset 3, -8
 336              		.cfi_offset 14, -4
ARM GAS  /tmp/ccPLVGei.s 			page 7


 337              	.LBB313:
 338              	.LBB314:
 339              	.LBB315:
 340              	.LBB316:
 341              	.LBB317:
 342              		.file 4 "../ChibiOS/os/ext/CMSIS/include/core_cmFunc.h"
 343              		.loc 4 548 0
 344 0002 2023     		movs	r3, #32
 345              	@ 548 "../ChibiOS/os/ext/CMSIS/include/core_cmFunc.h" 1
 346 0004 83F31188 		MSR basepri, r3
 347              	@ 0 "" 2
 348              		.thumb
 349              	.LBE317:
 350              	.LBE316:
 351              	.LBE315:
 352              	.LBE314:
 353              	.LBE313:
 354              		.loc 1 193 0
 355 0008 FFF7FEFF 		bl	ibqGetFullBufferTimeoutS
 356              	.LVL23:
 357              	.LBB318:
 358              	.LBB319:
 359              	.LBB320:
 360              	.LBB321:
 361              	.LBB322:
 362              	.LBB323:
 363              		.loc 4 548 0
 364 000c 0023     		movs	r3, #0
 365              	@ 548 "../ChibiOS/os/ext/CMSIS/include/core_cmFunc.h" 1
 366 000e 83F31188 		MSR basepri, r3
 367              	@ 0 "" 2
 368              		.thumb
 369              	.LBE323:
 370              	.LBE322:
 371              	.LBE321:
 372              	.LBE320:
 373              	.LBE319:
 374              	.LBE318:
 375              		.loc 1 197 0
 376 0012 08BD     		pop	{r3, pc}
 377              		.cfi_endproc
 378              	.LFE276:
 379              		.size	ibqGetFullBufferTimeout, .-ibqGetFullBufferTimeout
 380 0014 AFF30080 		.section	.text.ibqReleaseEmptyBufferS,"ax",%progbits
 380      AFF30080 
 380      AFF30080 
 381              		.align	2
 382              		.p2align 4,,15
 383              		.global	ibqReleaseEmptyBufferS
 384              		.thumb
 385              		.thumb_func
 386              		.type	ibqReleaseEmptyBufferS, %function
 387              	ibqReleaseEmptyBufferS:
 388              	.LFB279:
 389              		.loc 1 263 0
 390              		.cfi_startproc
 391              		@ args = 0, pretend = 0, frame = 0
ARM GAS  /tmp/ccPLVGei.s 			page 8


 392              		@ frame_needed = 0, uses_anonymous_args = 0
 393              	.LVL24:
 394              		.loc 1 271 0
 395 0000 00F11001 		add	r1, r0, #16
 396 0004 0EC9     		ldmia	r1, {r1, r2, r3}
 397              		.loc 1 270 0
 398 0006 0B44     		add	r3, r3, r1
 399              		.loc 1 271 0
 400 0008 9342     		cmp	r3, r2
 401              		.loc 1 270 0
 402 000a 0361     		str	r3, [r0, #16]
 403              		.loc 1 263 0
 404 000c 10B5     		push	{r4, lr}
 405              		.cfi_def_cfa_offset 8
 406              		.cfi_offset 4, -8
 407              		.cfi_offset 14, -4
 408              		.loc 1 272 0
 409 000e 28BF     		it	cs
 410 0010 036A     		ldrcs	r3, [r0, #32]
 411              		.loc 1 269 0
 412 0012 8468     		ldr	r4, [r0, #8]
 413              		.loc 1 272 0
 414 0014 28BF     		it	cs
 415 0016 0361     		strcs	r3, [r0, #16]
 416              		.loc 1 279 0
 417 0018 C36A     		ldr	r3, [r0, #44]
 418              		.loc 1 269 0
 419 001a 013C     		subs	r4, r4, #1
 420              		.loc 1 276 0
 421 001c 0022     		movs	r2, #0
 422              		.loc 1 269 0
 423 001e 8460     		str	r4, [r0, #8]
 424              		.loc 1 276 0
 425 0020 4262     		str	r2, [r0, #36]
 426              		.loc 1 279 0
 427 0022 03B1     		cbz	r3, .L19
 428              		.loc 1 280 0
 429 0024 9847     		blx	r3
 430              	.LVL25:
 431              	.L19:
 432 0026 10BD     		pop	{r4, pc}
 433              		.cfi_endproc
 434              	.LFE279:
 435              		.size	ibqReleaseEmptyBufferS, .-ibqReleaseEmptyBufferS
 436 0028 AFF30080 		.section	.text.ibqReleaseEmptyBuffer,"ax",%progbits
 436      AFF30080 
 437              		.align	2
 438              		.p2align 4,,15
 439              		.global	ibqReleaseEmptyBuffer
 440              		.thumb
 441              		.thumb_func
 442              		.type	ibqReleaseEmptyBuffer, %function
 443              	ibqReleaseEmptyBuffer:
 444              	.LFB278:
 445              		.loc 1 248 0
 446              		.cfi_startproc
 447              		@ args = 0, pretend = 0, frame = 0
ARM GAS  /tmp/ccPLVGei.s 			page 9


 448              		@ frame_needed = 0, uses_anonymous_args = 0
 449              	.LVL26:
 450 0000 08B5     		push	{r3, lr}
 451              		.cfi_def_cfa_offset 8
 452              		.cfi_offset 3, -8
 453              		.cfi_offset 14, -4
 454              	.LBB324:
 455              	.LBB325:
 456              	.LBB326:
 457              	.LBB327:
 458              	.LBB328:
 459              		.loc 4 548 0
 460 0002 2023     		movs	r3, #32
 461              	@ 548 "../ChibiOS/os/ext/CMSIS/include/core_cmFunc.h" 1
 462 0004 83F31188 		MSR basepri, r3
 463              	@ 0 "" 2
 464              		.thumb
 465              	.LBE328:
 466              	.LBE327:
 467              	.LBE326:
 468              	.LBE325:
 469              	.LBE324:
 470              		.loc 1 251 0
 471 0008 FFF7FEFF 		bl	ibqReleaseEmptyBufferS
 472              	.LVL27:
 473              	.LBB329:
 474              	.LBB330:
 475              	.LBB331:
 476              	.LBB332:
 477              	.LBB333:
 478              	.LBB334:
 479              		.loc 4 548 0
 480 000c 0023     		movs	r3, #0
 481              	@ 548 "../ChibiOS/os/ext/CMSIS/include/core_cmFunc.h" 1
 482 000e 83F31188 		MSR basepri, r3
 483              	@ 0 "" 2
 484              		.thumb
 485 0012 08BD     		pop	{r3, pc}
 486              	.LBE334:
 487              	.LBE333:
 488              	.LBE332:
 489              	.LBE331:
 490              	.LBE330:
 491              	.LBE329:
 492              		.cfi_endproc
 493              	.LFE278:
 494              		.size	ibqReleaseEmptyBuffer, .-ibqReleaseEmptyBuffer
 495 0014 AFF30080 		.section	.text.ibqGetTimeout,"ax",%progbits
 495      AFF30080 
 495      AFF30080 
 496              		.align	2
 497              		.p2align 4,,15
 498              		.global	ibqGetTimeout
 499              		.thumb
 500              		.thumb_func
 501              		.type	ibqGetTimeout, %function
 502              	ibqGetTimeout:
ARM GAS  /tmp/ccPLVGei.s 			page 10


 503              	.LFB280:
 504              		.loc 1 302 0
 505              		.cfi_startproc
 506              		@ args = 0, pretend = 0, frame = 0
 507              		@ frame_needed = 0, uses_anonymous_args = 0
 508              	.LVL28:
 509 0000 38B5     		push	{r3, r4, r5, lr}
 510              		.cfi_def_cfa_offset 16
 511              		.cfi_offset 3, -16
 512              		.cfi_offset 4, -12
 513              		.cfi_offset 5, -8
 514              		.cfi_offset 14, -4
 515              		.loc 1 302 0
 516 0002 0446     		mov	r4, r0
 517              	.LBB335:
 518              	.LBB336:
 519              	.LBB337:
 520              	.LBB338:
 521              	.LBB339:
 522              		.loc 4 548 0
 523 0004 2023     		movs	r3, #32
 524              	@ 548 "../ChibiOS/os/ext/CMSIS/include/core_cmFunc.h" 1
 525 0006 83F31188 		MSR basepri, r3
 526              	@ 0 "" 2
 527              		.thumb
 528              	.LBE339:
 529              	.LBE338:
 530              	.LBE337:
 531              	.LBE336:
 532              	.LBE335:
 533              		.loc 1 308 0
 534 000a 456A     		ldr	r5, [r0, #36]
 535 000c 9DB1     		cbz	r5, .L31
 536              	.LVL29:
 537              	.L27:
 538              		.loc 1 317 0
 539 000e 2B46     		mov	r3, r5
 540              		.loc 1 322 0
 541 0010 A26A     		ldr	r2, [r4, #40]
 542              		.loc 1 317 0
 543 0012 13F8015B 		ldrb	r5, [r3], #1	@ zero_extendqisi2
 544              	.LVL30:
 545              		.loc 1 318 0
 546 0016 6362     		str	r3, [r4, #36]
 547              		.loc 1 322 0
 548 0018 9342     		cmp	r3, r2
 549 001a 04D2     		bcs	.L32
 550              	.LVL31:
 551              	.LBB340:
 552              	.LBB341:
 553              	.LBB342:
 554              	.LBB343:
 555              	.LBB344:
 556              	.LBB345:
 557              		.loc 4 548 0
 558 001c 0023     		movs	r3, #0
 559              	@ 548 "../ChibiOS/os/ext/CMSIS/include/core_cmFunc.h" 1
ARM GAS  /tmp/ccPLVGei.s 			page 11


 560 001e 83F31188 		MSR basepri, r3
 561              	@ 0 "" 2
 562              		.thumb
 563              	.LBE345:
 564              	.LBE344:
 565              	.LBE343:
 566              	.LBE342:
 567              	.LBE341:
 568              	.LBE340:
 569              		.loc 1 327 0
 570 0022 2846     		mov	r0, r5
 571              		.loc 1 328 0
 572 0024 38BD     		pop	{r3, r4, r5, pc}
 573              	.LVL32:
 574              	.L32:
 575              		.loc 1 323 0
 576 0026 2046     		mov	r0, r4
 577 0028 FFF7FEFF 		bl	ibqReleaseEmptyBufferS
 578              	.LVL33:
 579              	.LBB351:
 580              	.LBB350:
 581              	.LBB349:
 582              	.LBB348:
 583              	.LBB347:
 584              	.LBB346:
 585              		.loc 4 548 0
 586 002c 0023     		movs	r3, #0
 587              	@ 548 "../ChibiOS/os/ext/CMSIS/include/core_cmFunc.h" 1
 588 002e 83F31188 		MSR basepri, r3
 589              	@ 0 "" 2
 590              		.thumb
 591              	.LBE346:
 592              	.LBE347:
 593              	.LBE348:
 594              	.LBE349:
 595              	.LBE350:
 596              	.LBE351:
 597              		.loc 1 327 0
 598 0032 2846     		mov	r0, r5
 599              		.loc 1 328 0
 600 0034 38BD     		pop	{r3, r4, r5, pc}
 601              	.LVL34:
 602              	.L31:
 603              		.loc 1 309 0
 604 0036 FFF7FEFF 		bl	ibqGetFullBufferTimeoutS
 605              	.LVL35:
 606              		.loc 1 310 0
 607 003a 08B9     		cbnz	r0, .L28
 608 003c 656A     		ldr	r5, [r4, #36]
 609 003e E6E7     		b	.L27
 610              	.L28:
 611              	.LVL36:
 612              	.LBB352:
 613              	.LBB353:
 614              	.LBB354:
 615              	.LBB355:
 616              	.LBB356:
ARM GAS  /tmp/ccPLVGei.s 			page 12


 617              	.LBB357:
 618              		.loc 4 548 0
 619              	@ 548 "../ChibiOS/os/ext/CMSIS/include/core_cmFunc.h" 1
 620 0040 85F31188 		MSR basepri, r5
 621              	@ 0 "" 2
 622              		.thumb
 623              	.LBE357:
 624              	.LBE356:
 625              	.LBE355:
 626              	.LBE354:
 627              	.LBE353:
 628              	.LBE352:
 629              		.loc 1 312 0
 630 0044 38BD     		pop	{r3, r4, r5, pc}
 631              		.cfi_endproc
 632              	.LFE280:
 633              		.size	ibqGetTimeout, .-ibqGetTimeout
 634 0046 00BFAFF3 		.section	.text.ibqReadTimeout,"ax",%progbits
 634      0080AFF3 
 634      0080
 635              		.align	2
 636              		.p2align 4,,15
 637              		.global	ibqReadTimeout
 638              		.thumb
 639              		.thumb_func
 640              		.type	ibqReadTimeout, %function
 641              	ibqReadTimeout:
 642              	.LFB281:
 643              		.loc 1 352 0
 644              		.cfi_startproc
 645              		@ args = 0, pretend = 0, frame = 8
 646              		@ frame_needed = 0, uses_anonymous_args = 0
 647              	.LVL37:
 648 0000 2DE9F04F 		push	{r4, r5, r6, r7, r8, r9, r10, fp, lr}
 649              		.cfi_def_cfa_offset 36
 650              		.cfi_offset 4, -36
 651              		.cfi_offset 5, -32
 652              		.cfi_offset 6, -28
 653              		.cfi_offset 7, -24
 654              		.cfi_offset 8, -20
 655              		.cfi_offset 9, -16
 656              		.cfi_offset 10, -12
 657              		.cfi_offset 11, -8
 658              		.cfi_offset 14, -4
 659 0004 9B46     		mov	fp, r3
 660 0006 83B0     		sub	sp, sp, #12
 661              		.cfi_def_cfa_offset 48
 662              		.loc 1 352 0
 663 0008 0446     		mov	r4, r0
 664 000a 8846     		mov	r8, r1
 665 000c 9146     		mov	r9, r2
 666              	.LBB358:
 667              	.LBB359:
 668              	.LBB360:
 669              	.LBB361:
 670              	.LBB362:
 671              		.loc 4 548 0
ARM GAS  /tmp/ccPLVGei.s 			page 13


 672 000e 2023     		movs	r3, #32
 673              	.LVL38:
 674              	@ 548 "../ChibiOS/os/ext/CMSIS/include/core_cmFunc.h" 1
 675 0010 83F31188 		MSR basepri, r3
 676              	@ 0 "" 2
 677              		.thumb
 678              	.LBE362:
 679              	.LBE361:
 680              	.LBE360:
 681              	.LBE359:
 682              	.LBE358:
 683              	.LBB363:
 684              	.LBB364:
 685              	.LBB365:
 686              	.LBB366:
 687              	.LBB367:
 688              		.file 5 "../ChibiOS/os/hal/ports/STM32/LLD/TIMv1/st_lld.h"
 689              		.loc 5 141 0
 690 0014 4FF08043 		mov	r3, #1073741824
 691              	.LBE367:
 692              	.LBE366:
 693              	.LBE365:
 694              	.LBE364:
 695              	.LBE363:
 696              	.LBB372:
 697              		.loc 1 365 0
 698 0018 616A     		ldr	r1, [r4, #36]
 699              	.LVL39:
 700              	.LBE372:
 701              	.LBB425:
 702              	.LBB371:
 703              	.LBB370:
 704              	.LBB369:
 705              	.LBB368:
 706              		.loc 5 141 0
 707 001a 5A6A     		ldr	r2, [r3, #36]
 708              	.LVL40:
 709              	.LBE368:
 710              	.LBE369:
 711              	.LBE370:
 712              	.LBE371:
 713              	.LBE425:
 714              		.loc 1 353 0
 715 001c 0027     		movs	r7, #0
 716              		.loc 1 359 0
 717 001e 5A44     		add	r2, fp, r2
 718 0020 0192     		str	r2, [sp, #4]
 719              	.LVL41:
 720              	.LBB426:
 721              	.LBB373:
 722              	.LBB374:
 723              	.LBB375:
 724              	.LBB376:
 725              	.LBB377:
 726              	.LBB378:
 727              		.loc 4 548 0
 728 0022 BA46     		mov	r10, r7
ARM GAS  /tmp/ccPLVGei.s 			page 14


 729 0024 5D46     		mov	r5, fp
 730              	.LBE378:
 731              	.LBE377:
 732              	.LBE376:
 733              	.LBE375:
 734              	.LBE374:
 735              	.LBE373:
 736              		.loc 1 365 0
 737 0026 81B3     		cbz	r1, .L48
 738              	.LVL42:
 739              	.L34:
 740              		.loc 1 399 0
 741 0028 A36A     		ldr	r3, [r4, #40]
 742              		.loc 1 400 0
 743 002a C7EB0906 		rsb	r6, r7, r9
 744              		.loc 1 399 0
 745 002e 5B1A     		subs	r3, r3, r1
 746              	.LVL43:
 747 0030 B342     		cmp	r3, r6
 748 0032 38BF     		it	cc
 749 0034 1E46     		movcc	r6, r3
 750              	.LVL44:
 751              		.loc 1 406 0
 752 0036 402E     		cmp	r6, #64
 753 0038 39D9     		bls	.L41
 754              		.loc 1 408 0
 755 003a 01F14002 		add	r2, r1, #64
 756 003e 4346     		mov	r3, r8
 757              	.LVL45:
 758              	.L42:
 759 0040 D1F800C0 		ldr	ip, [r1]	@ unaligned
 760 0044 4E68     		ldr	r6, [r1, #4]	@ unaligned
 761 0046 8868     		ldr	r0, [r1, #8]	@ unaligned
 762 0048 D1F80CB0 		ldr	fp, [r1, #12]	@ unaligned
 763 004c C3F80CB0 		str	fp, [r3, #12]	@ unaligned
 764 0050 1031     		adds	r1, r1, #16
 765 0052 9142     		cmp	r1, r2
 766 0054 C3F800C0 		str	ip, [r3]	@ unaligned
 767 0058 5E60     		str	r6, [r3, #4]	@ unaligned
 768 005a 9860     		str	r0, [r3, #8]	@ unaligned
 769 005c 03F11003 		add	r3, r3, #16
 770 0060 EED1     		bne	.L42
 771              		.loc 1 410 0
 772 0062 636A     		ldr	r3, [r4, #36]
 773              		.loc 1 421 0
 774 0064 A26A     		ldr	r2, [r4, #40]
 775              		.loc 1 410 0
 776 0066 4033     		adds	r3, r3, #64
 777              		.loc 1 421 0
 778 0068 9A42     		cmp	r2, r3
 779              		.loc 1 409 0
 780 006a 08F14008 		add	r8, r8, #64
 781              	.LVL46:
 782              		.loc 1 411 0
 783 006e 07F14007 		add	r7, r7, #64
 784              	.LVL47:
 785              		.loc 1 410 0
ARM GAS  /tmp/ccPLVGei.s 			page 15


 786 0072 6362     		str	r3, [r4, #36]
 787              		.loc 1 421 0
 788 0074 27D9     		bls	.L49
 789              	.L44:
 790              	.LVL48:
 791              	.LBB389:
 792              	.LBB387:
 793              	.LBB385:
 794              	.LBB383:
 795              	.LBB381:
 796              	.LBB379:
 797              		.loc 4 548 0
 798              	@ 548 "../ChibiOS/os/ext/CMSIS/include/core_cmFunc.h" 1
 799 0076 8AF31188 		MSR basepri, r10
 800              	@ 0 "" 2
 801              		.thumb
 802              	.LBE379:
 803              	.LBE381:
 804              	.LBE383:
 805              	.LBE385:
 806              	.LBE387:
 807              	.LBE389:
 808              		.loc 1 427 0
 809 007a 4F45     		cmp	r7, r9
 810 007c 2AD2     		bcs	.L36
 811              	.L53:
 812              	.LVL49:
 813              	.LBB390:
 814              	.LBB391:
 815              	.LBB392:
 816              	.LBB393:
 817              	.LBB394:
 818              		.loc 4 548 0
 819 007e 2023     		movs	r3, #32
 820              	@ 548 "../ChibiOS/os/ext/CMSIS/include/core_cmFunc.h" 1
 821 0080 83F31188 		MSR basepri, r3
 822              	@ 0 "" 2
 823              		.thumb
 824              	.LBE394:
 825              	.LBE393:
 826              	.LBE392:
 827              	.LBE391:
 828              	.LBE390:
 829              		.loc 1 365 0
 830 0084 616A     		ldr	r1, [r4, #36]
 831 0086 0029     		cmp	r1, #0
 832 0088 CED1     		bne	.L34
 833              	.LVL50:
 834              	.L48:
 835              	.LBB395:
 836              		.loc 1 369 0
 837 008a 002D     		cmp	r5, #0
 838 008c 33D0     		beq	.L50
 839              		.loc 1 375 0
 840 008e 6B1C     		adds	r3, r5, #1
 841 0090 24D0     		beq	.L51
 842              	.LBB396:
ARM GAS  /tmp/ccPLVGei.s 			page 16


 843              	.LBB397:
 844              	.LBB398:
 845              	.LBB399:
 846              	.LBB400:
 847              	.LBB401:
 848              		.loc 5 141 0
 849 0092 4FF08042 		mov	r2, #1073741824
 850 0096 536A     		ldr	r3, [r2, #36]
 851              	.LBE401:
 852              	.LBE400:
 853              	.LBE399:
 854              	.LBE398:
 855              	.LBE397:
 856              		.loc 1 379 0
 857 0098 019A     		ldr	r2, [sp, #4]
 858 009a D31A     		subs	r3, r2, r3
 859              	.LVL51:
 860              		.loc 1 384 0
 861 009c 9D42     		cmp	r5, r3
 862 009e 30D3     		bcc	.L52
 863              		.loc 1 388 0
 864 00a0 1946     		mov	r1, r3
 865 00a2 2046     		mov	r0, r4
 866 00a4 FFF7FEFF 		bl	ibqGetFullBufferTimeoutS
 867              	.LVL52:
 868              	.LBE396:
 869              		.loc 1 392 0
 870 00a8 F0B9     		cbnz	r0, .L40
 871              	.L54:
 872 00aa 616A     		ldr	r1, [r4, #36]
 873 00ac BCE7     		b	.L34
 874              	.LVL53:
 875              	.L41:
 876              	.LBE395:
 877              		.loc 1 414 0
 878 00ae 4046     		mov	r0, r8
 879 00b0 3246     		mov	r2, r6
 880 00b2 FFF7FEFF 		bl	memcpy
 881              	.LVL54:
 882              		.loc 1 416 0
 883 00b6 636A     		ldr	r3, [r4, #36]
 884              		.loc 1 421 0
 885 00b8 A26A     		ldr	r2, [r4, #40]
 886              		.loc 1 416 0
 887 00ba 3344     		add	r3, r3, r6
 888              		.loc 1 421 0
 889 00bc 9A42     		cmp	r2, r3
 890              		.loc 1 417 0
 891 00be 3744     		add	r7, r7, r6
 892              	.LVL55:
 893              		.loc 1 415 0
 894 00c0 B044     		add	r8, r8, r6
 895              	.LVL56:
 896              		.loc 1 416 0
 897 00c2 6362     		str	r3, [r4, #36]
 898              		.loc 1 421 0
 899 00c4 D7D8     		bhi	.L44
ARM GAS  /tmp/ccPLVGei.s 			page 17


 900              	.LVL57:
 901              	.L49:
 902              		.loc 1 422 0
 903 00c6 2046     		mov	r0, r4
 904 00c8 FFF7FEFF 		bl	ibqReleaseEmptyBufferS
 905              	.LVL58:
 906              	.LBB421:
 907              	.LBB388:
 908              	.LBB386:
 909              	.LBB384:
 910              	.LBB382:
 911              	.LBB380:
 912              		.loc 4 548 0
 913              	@ 548 "../ChibiOS/os/ext/CMSIS/include/core_cmFunc.h" 1
 914 00cc 8AF31188 		MSR basepri, r10
 915              	@ 0 "" 2
 916              		.thumb
 917              	.LBE380:
 918              	.LBE382:
 919              	.LBE384:
 920              	.LBE386:
 921              	.LBE388:
 922              	.LBE421:
 923              		.loc 1 427 0
 924 00d0 4F45     		cmp	r7, r9
 925 00d2 D4D3     		bcc	.L53
 926              	.LVL59:
 927              	.L36:
 928              	.LBE426:
 929              		.loc 1 432 0
 930 00d4 3846     		mov	r0, r7
 931 00d6 03B0     		add	sp, sp, #12
 932              		@ sp needed
 933 00d8 BDE8F08F 		pop	{r4, r5, r6, r7, r8, r9, r10, fp, pc}
 934              	.LVL60:
 935              	.L51:
 936              	.LBB427:
 937              	.LBB422:
 938              		.loc 1 376 0
 939 00dc 2046     		mov	r0, r4
 940 00de 2946     		mov	r1, r5
 941 00e0 FFF7FEFF 		bl	ibqGetFullBufferTimeoutS
 942              	.LVL61:
 943              		.loc 1 392 0
 944 00e4 0028     		cmp	r0, #0
 945 00e6 E0D0     		beq	.L54
 946              	.L40:
 947              	.LVL62:
 948              	.LBB408:
 949              	.LBB409:
 950              	.LBB410:
 951              	.LBB411:
 952              	.LBB412:
 953              	.LBB413:
 954              		.loc 4 548 0
 955 00e8 0023     		movs	r3, #0
 956              	@ 548 "../ChibiOS/os/ext/CMSIS/include/core_cmFunc.h" 1
ARM GAS  /tmp/ccPLVGei.s 			page 18


 957 00ea 83F31188 		MSR basepri, r3
 958              	@ 0 "" 2
 959              		.thumb
 960              	.LBE413:
 961              	.LBE412:
 962              	.LBE411:
 963              	.LBE410:
 964              	.LBE409:
 965              	.LBE408:
 966              	.LBE422:
 967              	.LBE427:
 968              		.loc 1 432 0
 969 00ee 3846     		mov	r0, r7
 970              	.LVL63:
 971 00f0 03B0     		add	sp, sp, #12
 972              		@ sp needed
 973 00f2 BDE8F08F 		pop	{r4, r5, r6, r7, r8, r9, r10, fp, pc}
 974              	.LVL64:
 975              	.L50:
 976              	.LBB428:
 977              	.LBB423:
 978              	.LBB414:
 979              	.LBB415:
 980              	.LBB416:
 981              	.LBB417:
 982              	.LBB418:
 983              	.LBB419:
 984              		.loc 4 548 0
 985              	@ 548 "../ChibiOS/os/ext/CMSIS/include/core_cmFunc.h" 1
 986 00f6 85F31188 		MSR basepri, r5
 987              	@ 0 "" 2
 988              		.thumb
 989              	.LBE419:
 990              	.LBE418:
 991              	.LBE417:
 992              	.LBE416:
 993              	.LBE415:
 994              	.LBE414:
 995              	.LBE423:
 996              	.LBE428:
 997              		.loc 1 432 0
 998 00fa 3846     		mov	r0, r7
 999 00fc 03B0     		add	sp, sp, #12
 1000              		@ sp needed
 1001 00fe BDE8F08F 		pop	{r4, r5, r6, r7, r8, r9, r10, fp, pc}
 1002              	.LVL65:
 1003              	.L52:
 1004              	.LBB429:
 1005              	.LBB424:
 1006              	.LBB420:
 1007              	.LBB402:
 1008              	.LBB403:
 1009              	.LBB404:
 1010              	.LBB405:
 1011              	.LBB406:
 1012              	.LBB407:
 1013              		.loc 4 548 0
ARM GAS  /tmp/ccPLVGei.s 			page 19


 1014              	@ 548 "../ChibiOS/os/ext/CMSIS/include/core_cmFunc.h" 1
 1015 0102 81F31188 		MSR basepri, r1
 1016              	@ 0 "" 2
 1017              		.thumb
 1018              	.LBE407:
 1019              	.LBE406:
 1020              	.LBE405:
 1021              	.LBE404:
 1022              	.LBE403:
 1023              	.LBE402:
 1024              		.loc 1 386 0
 1025 0106 E5E7     		b	.L36
 1026              	.LBE420:
 1027              	.LBE424:
 1028              	.LBE429:
 1029              		.cfi_endproc
 1030              	.LFE281:
 1031              		.size	ibqReadTimeout, .-ibqReadTimeout
 1032 0108 AFF30080 		.section	.text.obqObjectInit,"ax",%progbits
 1032      AFF30080 
 1033              		.align	2
 1034              		.p2align 4,,15
 1035              		.global	obqObjectInit
 1036              		.thumb
 1037              		.thumb_func
 1038              		.type	obqObjectInit, %function
 1039              	obqObjectInit:
 1040              	.LFB282:
 1041              		.loc 1 448 0
 1042              		.cfi_startproc
 1043              		@ args = 8, pretend = 0, frame = 0
 1044              		@ frame_needed = 0, uses_anonymous_args = 0
 1045              		@ link register save eliminated.
 1046              	.LVL66:
 1047 0000 F0B4     		push	{r4, r5, r6, r7}
 1048              		.cfi_def_cfa_offset 16
 1049              		.cfi_offset 4, -16
 1050              		.cfi_offset 5, -12
 1051              		.cfi_offset 6, -8
 1052              		.cfi_offset 7, -4
 1053              		.loc 1 456 0
 1054 0002 0432     		adds	r2, r2, #4
 1055              	.LVL67:
 1056              		.loc 1 460 0
 1057 0004 0024     		movs	r4, #0
 1058              		.loc 1 456 0
 1059 0006 02FB0317 		mla	r7, r2, r3, r1
 1060              		.loc 1 448 0
 1061 000a 049E     		ldr	r6, [sp, #16]
 1062 000c 059D     		ldr	r5, [sp, #20]
 1063              		.loc 1 456 0
 1064 000e 4761     		str	r7, [r0, #20]
 1065              		.loc 1 462 0
 1066 0010 C662     		str	r6, [r0, #44]
 1067              		.loc 1 463 0
 1068 0012 0563     		str	r5, [r0, #48]
 1069              		.loc 1 460 0
ARM GAS  /tmp/ccPLVGei.s 			page 20


 1070 0014 4462     		str	r4, [r0, #36]
 1071              		.loc 1 461 0
 1072 0016 8462     		str	r4, [r0, #40]
 1073              	.LBB430:
 1074              	.LBB431:
 1075              	.LBB432:
 1076              	.LBB433:
 1077              		.loc 2 606 0
 1078 0018 0060     		str	r0, [r0]
 1079              		.loc 2 607 0
 1080 001a 4060     		str	r0, [r0, #4]
 1081              	.LBE433:
 1082              	.LBE432:
 1083              	.LBE431:
 1084              	.LBE430:
 1085              		.loc 1 453 0
 1086 001c 8360     		str	r3, [r0, #8]
 1087              		.loc 1 454 0
 1088 001e 0161     		str	r1, [r0, #16]
 1089              		.loc 1 455 0
 1090 0020 C160     		str	r1, [r0, #12]
 1091              		.loc 1 457 0
 1092 0022 8261     		str	r2, [r0, #24]
 1093              		.loc 1 458 0
 1094 0024 C361     		str	r3, [r0, #28]
 1095              		.loc 1 459 0
 1096 0026 0162     		str	r1, [r0, #32]
 1097              		.loc 1 464 0
 1098 0028 F0BC     		pop	{r4, r5, r6, r7}
 1099              	.LVL68:
 1100 002a 7047     		bx	lr
 1101              		.cfi_endproc
 1102              	.LFE282:
 1103              		.size	obqObjectInit, .-obqObjectInit
 1104 002c AFF30080 		.section	.text.obqResetI,"ax",%progbits
 1105              		.align	2
 1106              		.p2align 4,,15
 1107              		.global	obqResetI
 1108              		.thumb
 1109              		.thumb_func
 1110              		.type	obqResetI, %function
 1111              	obqResetI:
 1112              	.LFB283:
 1113              		.loc 1 477 0
 1114              		.cfi_startproc
 1115              		@ args = 0, pretend = 0, frame = 0
 1116              		@ frame_needed = 0, uses_anonymous_args = 0
 1117              		@ link register save eliminated.
 1118              	.LVL69:
 1119              		.loc 1 482 0
 1120 0000 016A     		ldr	r1, [r0, #32]
 1121 0002 0161     		str	r1, [r0, #16]
 1122              		.loc 1 477 0
 1123 0004 10B4     		push	{r4}
 1124              		.cfi_def_cfa_offset 4
 1125              		.cfi_offset 4, -4
 1126              		.loc 1 484 0
ARM GAS  /tmp/ccPLVGei.s 			page 21


 1127 0006 0022     		movs	r2, #0
 1128              		.loc 1 481 0
 1129 0008 C469     		ldr	r4, [r0, #28]
 1130 000a 8460     		str	r4, [r0, #8]
 1131              		.loc 1 483 0
 1132 000c C160     		str	r1, [r0, #12]
 1133              		.loc 1 484 0
 1134 000e 4262     		str	r2, [r0, #36]
 1135              		.loc 1 485 0
 1136 0010 8262     		str	r2, [r0, #40]
 1137              	.LVL70:
 1138              	.LBB434:
 1139              	.LBB435:
 1140              		.loc 3 810 0
 1141 0012 6FF00101 		mvn	r1, #1
 1142              	.LBE435:
 1143              	.LBE434:
 1144              		.loc 1 487 0
 1145 0016 5DF8044B 		ldr	r4, [sp], #4
 1146              	.LBB437:
 1147              	.LBB436:
 1148              		.loc 3 810 0
 1149 001a FFF7FEBF 		b	chThdDequeueAllI
 1150              	.LVL71:
 1151              	.LBE436:
 1152              	.LBE437:
 1153              		.cfi_endproc
 1154              	.LFE283:
 1155              		.size	obqResetI, .-obqResetI
 1156 001e 00BF     		.section	.text.obqGetFullBufferI,"ax",%progbits
 1157              		.align	2
 1158              		.p2align 4,,15
 1159              		.global	obqGetFullBufferI
 1160              		.thumb
 1161              		.thumb_func
 1162              		.type	obqGetFullBufferI, %function
 1163              	obqGetFullBufferI:
 1164              	.LFB284:
 1165              		.loc 1 501 0
 1166              		.cfi_startproc
 1167              		@ args = 0, pretend = 0, frame = 0
 1168              		@ frame_needed = 0, uses_anonymous_args = 0
 1169              		@ link register save eliminated.
 1170              	.LVL72:
 1171              		.loc 1 505 0
 1172 0000 0369     		ldr	r3, [r0, #16]
 1173 0002 C268     		ldr	r2, [r0, #12]
 1174 0004 9A42     		cmp	r2, r3
 1175 0006 04D0     		beq	.L64
 1176              	.L58:
 1177              		.loc 1 510 0
 1178 0008 1846     		mov	r0, r3
 1179              	.LVL73:
 1180 000a 50F8043B 		ldr	r3, [r0], #4
 1181 000e 0B60     		str	r3, [r1]
 1182              		.loc 1 513 0
 1183 0010 7047     		bx	lr
ARM GAS  /tmp/ccPLVGei.s 			page 22


 1184              	.LVL74:
 1185              	.L64:
 1186              		.loc 1 505 0 discriminator 1
 1187 0012 8268     		ldr	r2, [r0, #8]
 1188 0014 002A     		cmp	r2, #0
 1189 0016 F7D0     		beq	.L58
 1190              		.loc 1 506 0
 1191 0018 0020     		movs	r0, #0
 1192              	.LVL75:
 1193 001a 7047     		bx	lr
 1194              		.cfi_endproc
 1195              	.LFE284:
 1196              		.size	obqGetFullBufferI, .-obqGetFullBufferI
 1197 001c AFF30080 		.section	.text.obqReleaseEmptyBufferI,"ax",%progbits
 1198              		.align	2
 1199              		.p2align 4,,15
 1200              		.global	obqReleaseEmptyBufferI
 1201              		.thumb
 1202              		.thumb_func
 1203              		.type	obqReleaseEmptyBufferI, %function
 1204              	obqReleaseEmptyBufferI:
 1205              	.LFB285:
 1206              		.loc 1 522 0
 1207              		.cfi_startproc
 1208              		@ args = 0, pretend = 0, frame = 0
 1209              		@ frame_needed = 0, uses_anonymous_args = 0
 1210              		@ link register save eliminated.
 1211              	.LVL76:
 1212              		.loc 1 530 0
 1213 0000 00F11001 		add	r1, r0, #16
 1214 0004 0EC9     		ldmia	r1, {r1, r2, r3}
 1215              		.loc 1 522 0
 1216 0006 10B4     		push	{r4}
 1217              		.cfi_def_cfa_offset 4
 1218              		.cfi_offset 4, -4
 1219              		.loc 1 529 0
 1220 0008 0B44     		add	r3, r3, r1
 1221              		.loc 1 528 0
 1222 000a 8468     		ldr	r4, [r0, #8]
 1223              		.loc 1 529 0
 1224 000c 0361     		str	r3, [r0, #16]
 1225              		.loc 1 530 0
 1226 000e 9342     		cmp	r3, r2
 1227              		.loc 1 528 0
 1228 0010 04F10104 		add	r4, r4, #1
 1229              		.loc 1 531 0
 1230 0014 28BF     		it	cs
 1231 0016 036A     		ldrcs	r3, [r0, #32]
 1232              		.loc 1 528 0
 1233 0018 8460     		str	r4, [r0, #8]
 1234              		.loc 1 531 0
 1235 001a 28BF     		it	cs
 1236 001c 0361     		strcs	r3, [r0, #16]
 1237              	.LVL77:
 1238              	.LBB438:
 1239              	.LBB439:
 1240              		.loc 3 797 0
ARM GAS  /tmp/ccPLVGei.s 			page 23


 1241 001e 0021     		movs	r1, #0
 1242              	.LBE439:
 1243              	.LBE438:
 1244              		.loc 1 536 0
 1245 0020 5DF8044B 		ldr	r4, [sp], #4
 1246              	.LBB441:
 1247              	.LBB440:
 1248              		.loc 3 797 0
 1249 0024 FFF7FEBF 		b	chThdDequeueNextI
 1250              	.LVL78:
 1251              	.LBE440:
 1252              	.LBE441:
 1253              		.cfi_endproc
 1254              	.LFE285:
 1255              		.size	obqReleaseEmptyBufferI, .-obqReleaseEmptyBufferI
 1256 0028 AFF30080 		.section	.text.obqGetEmptyBufferTimeoutS,"ax",%progbits
 1256      AFF30080 
 1257              		.align	2
 1258              		.p2align 4,,15
 1259              		.global	obqGetEmptyBufferTimeoutS
 1260              		.thumb
 1261              		.thumb_func
 1262              		.type	obqGetEmptyBufferTimeoutS, %function
 1263              	obqGetEmptyBufferTimeoutS:
 1264              	.LFB287:
 1265              		.loc 1 590 0
 1266              		.cfi_startproc
 1267              		@ args = 0, pretend = 0, frame = 0
 1268              		@ frame_needed = 0, uses_anonymous_args = 0
 1269              	.LVL79:
 1270 0000 38B5     		push	{r3, r4, r5, lr}
 1271              		.cfi_def_cfa_offset 16
 1272              		.cfi_offset 3, -16
 1273              		.cfi_offset 4, -12
 1274              		.cfi_offset 5, -8
 1275              		.cfi_offset 14, -4
 1276              		.loc 1 590 0
 1277 0002 0446     		mov	r4, r0
 1278 0004 0D46     		mov	r5, r1
 1279              		.loc 1 594 0
 1280 0006 03E0     		b	.L68
 1281              	.LVL80:
 1282              	.L70:
 1283              	.LBB450:
 1284              	.LBB451:
 1285              	.LBB452:
 1286              		.loc 3 784 0
 1287 0008 FFF7FEFF 		bl	chThdEnqueueTimeoutS
 1288              	.LVL81:
 1289              	.LBE452:
 1290              	.LBE451:
 1291              		.loc 1 596 0
 1292 000c 0028     		cmp	r0, #0
 1293 000e 0BDB     		blt	.L69
 1294              	.LVL82:
 1295              	.L68:
 1296              	.LBE450:
ARM GAS  /tmp/ccPLVGei.s 			page 24


 1297              		.loc 1 594 0 discriminator 1
 1298 0010 A368     		ldr	r3, [r4, #8]
 1299              	.LBB455:
 1300              	.LBB454:
 1301              	.LBB453:
 1302              		.loc 3 784 0 discriminator 1
 1303 0012 2046     		mov	r0, r4
 1304 0014 2946     		mov	r1, r5
 1305              	.LBE453:
 1306              	.LBE454:
 1307              	.LBE455:
 1308              		.loc 1 594 0 discriminator 1
 1309 0016 002B     		cmp	r3, #0
 1310 0018 F6D0     		beq	.L70
 1311              	.LVL83:
 1312              	.LBB456:
 1313              	.LBB457:
 1314              		.loc 1 604 0
 1315 001a E368     		ldr	r3, [r4, #12]
 1316              		.loc 1 605 0
 1317 001c A269     		ldr	r2, [r4, #24]
 1318              		.loc 1 604 0
 1319 001e 191D     		adds	r1, r3, #4
 1320              	.LVL84:
 1321              		.loc 1 605 0
 1322 0020 1344     		add	r3, r3, r2
 1323              		.loc 1 604 0
 1324 0022 6162     		str	r1, [r4, #36]
 1325              		.loc 1 605 0
 1326 0024 A362     		str	r3, [r4, #40]
 1327 0026 0020     		movs	r0, #0
 1328              	.LVL85:
 1329              	.L69:
 1330              	.LBE457:
 1331              	.LBE456:
 1332              		.loc 1 608 0
 1333 0028 38BD     		pop	{r3, r4, r5, pc}
 1334              		.cfi_endproc
 1335              	.LFE287:
 1336              		.size	obqGetEmptyBufferTimeoutS, .-obqGetEmptyBufferTimeoutS
 1337 002a 00BFAFF3 		.section	.text.obqGetEmptyBufferTimeout,"ax",%progbits
 1337      0080
 1338              		.align	2
 1339              		.p2align 4,,15
 1340              		.global	obqGetEmptyBufferTimeout
 1341              		.thumb
 1342              		.thumb_func
 1343              		.type	obqGetEmptyBufferTimeout, %function
 1344              	obqGetEmptyBufferTimeout:
 1345              	.LFB286:
 1346              		.loc 1 559 0
 1347              		.cfi_startproc
 1348              		@ args = 0, pretend = 0, frame = 0
 1349              		@ frame_needed = 0, uses_anonymous_args = 0
 1350              	.LVL86:
 1351 0000 08B5     		push	{r3, lr}
 1352              		.cfi_def_cfa_offset 8
ARM GAS  /tmp/ccPLVGei.s 			page 25


 1353              		.cfi_offset 3, -8
 1354              		.cfi_offset 14, -4
 1355              	.LBB458:
 1356              	.LBB459:
 1357              	.LBB460:
 1358              	.LBB461:
 1359              	.LBB462:
 1360              		.loc 4 548 0
 1361 0002 2023     		movs	r3, #32
 1362              	@ 548 "../ChibiOS/os/ext/CMSIS/include/core_cmFunc.h" 1
 1363 0004 83F31188 		MSR basepri, r3
 1364              	@ 0 "" 2
 1365              		.thumb
 1366              	.LBE462:
 1367              	.LBE461:
 1368              	.LBE460:
 1369              	.LBE459:
 1370              	.LBE458:
 1371              		.loc 1 563 0
 1372 0008 FFF7FEFF 		bl	obqGetEmptyBufferTimeoutS
 1373              	.LVL87:
 1374              	.LBB463:
 1375              	.LBB464:
 1376              	.LBB465:
 1377              	.LBB466:
 1378              	.LBB467:
 1379              	.LBB468:
 1380              		.loc 4 548 0
 1381 000c 0023     		movs	r3, #0
 1382              	@ 548 "../ChibiOS/os/ext/CMSIS/include/core_cmFunc.h" 1
 1383 000e 83F31188 		MSR basepri, r3
 1384              	@ 0 "" 2
 1385              		.thumb
 1386              	.LBE468:
 1387              	.LBE467:
 1388              	.LBE466:
 1389              	.LBE465:
 1390              	.LBE464:
 1391              	.LBE463:
 1392              		.loc 1 567 0
 1393 0012 08BD     		pop	{r3, pc}
 1394              		.cfi_endproc
 1395              	.LFE286:
 1396              		.size	obqGetEmptyBufferTimeout, .-obqGetEmptyBufferTimeout
 1397 0014 AFF30080 		.section	.text.obqPostFullBufferS,"ax",%progbits
 1397      AFF30080 
 1397      AFF30080 
 1398              		.align	2
 1399              		.p2align 4,,15
 1400              		.global	obqPostFullBufferS
 1401              		.thumb
 1402              		.thumb_func
 1403              		.type	obqPostFullBufferS, %function
 1404              	obqPostFullBufferS:
 1405              	.LFB289:
 1406              		.loc 1 635 0
 1407              		.cfi_startproc
ARM GAS  /tmp/ccPLVGei.s 			page 26


 1408              		@ args = 0, pretend = 0, frame = 0
 1409              		@ frame_needed = 0, uses_anonymous_args = 0
 1410              	.LVL88:
 1411              		.loc 1 642 0
 1412 0000 C368     		ldr	r3, [r0, #12]
 1413              		.loc 1 635 0
 1414 0002 10B5     		push	{r4, lr}
 1415              		.cfi_def_cfa_offset 8
 1416              		.cfi_offset 4, -8
 1417              		.cfi_offset 14, -4
 1418              		.loc 1 647 0
 1419 0004 4469     		ldr	r4, [r0, #20]
 1420              		.loc 1 642 0
 1421 0006 1960     		str	r1, [r3]
 1422              		.loc 1 646 0
 1423 0008 8269     		ldr	r2, [r0, #24]
 1424              		.loc 1 645 0
 1425 000a 8168     		ldr	r1, [r0, #8]
 1426              	.LVL89:
 1427              		.loc 1 646 0
 1428 000c 1344     		add	r3, r3, r2
 1429              	.LVL90:
 1430              		.loc 1 647 0
 1431 000e A342     		cmp	r3, r4
 1432              		.loc 1 646 0
 1433 0010 C360     		str	r3, [r0, #12]
 1434              	.LVL91:
 1435              		.loc 1 648 0
 1436 0012 24BF     		itt	cs
 1437 0014 036A     		ldrcs	r3, [r0, #32]
 1438 0016 C360     		strcs	r3, [r0, #12]
 1439              		.loc 1 655 0
 1440 0018 C36A     		ldr	r3, [r0, #44]
 1441              		.loc 1 645 0
 1442 001a 0139     		subs	r1, r1, #1
 1443              		.loc 1 652 0
 1444 001c 0022     		movs	r2, #0
 1445              		.loc 1 645 0
 1446 001e 8160     		str	r1, [r0, #8]
 1447              		.loc 1 652 0
 1448 0020 4262     		str	r2, [r0, #36]
 1449              		.loc 1 655 0
 1450 0022 03B1     		cbz	r3, .L72
 1451              		.loc 1 656 0
 1452 0024 9847     		blx	r3
 1453              	.LVL92:
 1454              	.L72:
 1455 0026 10BD     		pop	{r4, pc}
 1456              		.cfi_endproc
 1457              	.LFE289:
 1458              		.size	obqPostFullBufferS, .-obqPostFullBufferS
 1459 0028 AFF30080 		.section	.text.obqPostFullBuffer,"ax",%progbits
 1459      AFF30080 
 1460              		.align	2
 1461              		.p2align 4,,15
 1462              		.global	obqPostFullBuffer
 1463              		.thumb
ARM GAS  /tmp/ccPLVGei.s 			page 27


 1464              		.thumb_func
 1465              		.type	obqPostFullBuffer, %function
 1466              	obqPostFullBuffer:
 1467              	.LFB288:
 1468              		.loc 1 619 0
 1469              		.cfi_startproc
 1470              		@ args = 0, pretend = 0, frame = 0
 1471              		@ frame_needed = 0, uses_anonymous_args = 0
 1472              	.LVL93:
 1473 0000 08B5     		push	{r3, lr}
 1474              		.cfi_def_cfa_offset 8
 1475              		.cfi_offset 3, -8
 1476              		.cfi_offset 14, -4
 1477              	.LBB469:
 1478              	.LBB470:
 1479              	.LBB471:
 1480              	.LBB472:
 1481              	.LBB473:
 1482              		.loc 4 548 0
 1483 0002 2023     		movs	r3, #32
 1484              	@ 548 "../ChibiOS/os/ext/CMSIS/include/core_cmFunc.h" 1
 1485 0004 83F31188 		MSR basepri, r3
 1486              	@ 0 "" 2
 1487              		.thumb
 1488              	.LBE473:
 1489              	.LBE472:
 1490              	.LBE471:
 1491              	.LBE470:
 1492              	.LBE469:
 1493              		.loc 1 622 0
 1494 0008 FFF7FEFF 		bl	obqPostFullBufferS
 1495              	.LVL94:
 1496              	.LBB474:
 1497              	.LBB475:
 1498              	.LBB476:
 1499              	.LBB477:
 1500              	.LBB478:
 1501              	.LBB479:
 1502              		.loc 4 548 0
 1503 000c 0023     		movs	r3, #0
 1504              	@ 548 "../ChibiOS/os/ext/CMSIS/include/core_cmFunc.h" 1
 1505 000e 83F31188 		MSR basepri, r3
 1506              	@ 0 "" 2
 1507              		.thumb
 1508 0012 08BD     		pop	{r3, pc}
 1509              	.LBE479:
 1510              	.LBE478:
 1511              	.LBE477:
 1512              	.LBE476:
 1513              	.LBE475:
 1514              	.LBE474:
 1515              		.cfi_endproc
 1516              	.LFE288:
 1517              		.size	obqPostFullBuffer, .-obqPostFullBuffer
 1518 0014 AFF30080 		.section	.text.obqPutTimeout,"ax",%progbits
 1518      AFF30080 
 1518      AFF30080 
ARM GAS  /tmp/ccPLVGei.s 			page 28


 1519              		.align	2
 1520              		.p2align 4,,15
 1521              		.global	obqPutTimeout
 1522              		.thumb
 1523              		.thumb_func
 1524              		.type	obqPutTimeout, %function
 1525              	obqPutTimeout:
 1526              	.LFB290:
 1527              		.loc 1 680 0
 1528              		.cfi_startproc
 1529              		@ args = 0, pretend = 0, frame = 0
 1530              		@ frame_needed = 0, uses_anonymous_args = 0
 1531              	.LVL95:
 1532 0000 70B5     		push	{r4, r5, r6, lr}
 1533              		.cfi_def_cfa_offset 16
 1534              		.cfi_offset 4, -16
 1535              		.cfi_offset 5, -12
 1536              		.cfi_offset 6, -8
 1537              		.cfi_offset 14, -4
 1538              	.LBB480:
 1539              	.LBB481:
 1540              	.LBB482:
 1541              	.LBB483:
 1542              	.LBB484:
 1543              		.loc 4 548 0
 1544 0002 2023     		movs	r3, #32
 1545              	.LBE484:
 1546              	.LBE483:
 1547              	.LBE482:
 1548              	.LBE481:
 1549              	.LBE480:
 1550              		.loc 1 680 0
 1551 0004 0E46     		mov	r6, r1
 1552 0006 0446     		mov	r4, r0
 1553              	.LBB489:
 1554              	.LBB488:
 1555              	.LBB487:
 1556              	.LBB486:
 1557              	.LBB485:
 1558              		.loc 4 548 0
 1559              	@ 548 "../ChibiOS/os/ext/CMSIS/include/core_cmFunc.h" 1
 1560 0008 83F31188 		MSR basepri, r3
 1561              	@ 0 "" 2
 1562              		.thumb
 1563              	.LBE485:
 1564              	.LBE486:
 1565              	.LBE487:
 1566              	.LBE488:
 1567              	.LBE489:
 1568              		.loc 1 686 0
 1569 000c 456A     		ldr	r5, [r0, #36]
 1570 000e 9DB1     		cbz	r5, .L84
 1571              	.LVL96:
 1572              	.L80:
 1573              		.loc 1 695 0
 1574 0010 2E70     		strb	r6, [r5]
 1575              		.loc 1 696 0
ARM GAS  /tmp/ccPLVGei.s 			page 29


 1576 0012 636A     		ldr	r3, [r4, #36]
 1577              		.loc 1 700 0
 1578 0014 A26A     		ldr	r2, [r4, #40]
 1579              		.loc 1 696 0
 1580 0016 0133     		adds	r3, r3, #1
 1581              		.loc 1 700 0
 1582 0018 9342     		cmp	r3, r2
 1583              		.loc 1 696 0
 1584 001a 6362     		str	r3, [r4, #36]
 1585              		.loc 1 700 0
 1586 001c 03D2     		bcs	.L85
 1587              	.LVL97:
 1588              	.LBB490:
 1589              	.LBB491:
 1590              	.LBB492:
 1591              	.LBB493:
 1592              	.LBB494:
 1593              	.LBB495:
 1594              		.loc 4 548 0
 1595 001e 0020     		movs	r0, #0
 1596              	@ 548 "../ChibiOS/os/ext/CMSIS/include/core_cmFunc.h" 1
 1597 0020 80F31188 		MSR basepri, r0
 1598              	@ 0 "" 2
 1599              		.thumb
 1600              	.LBE495:
 1601              	.LBE494:
 1602              	.LBE493:
 1603              	.LBE492:
 1604              	.LBE491:
 1605              	.LBE490:
 1606              		.loc 1 706 0
 1607 0024 70BD     		pop	{r4, r5, r6, pc}
 1608              	.LVL98:
 1609              	.L85:
 1610              		.loc 1 701 0
 1611 0026 A169     		ldr	r1, [r4, #24]
 1612 0028 2046     		mov	r0, r4
 1613 002a 0439     		subs	r1, r1, #4
 1614 002c FFF7FEFF 		bl	obqPostFullBufferS
 1615              	.LVL99:
 1616              	.LBB501:
 1617              	.LBB500:
 1618              	.LBB499:
 1619              	.LBB498:
 1620              	.LBB497:
 1621              	.LBB496:
 1622              		.loc 4 548 0
 1623 0030 0020     		movs	r0, #0
 1624              	@ 548 "../ChibiOS/os/ext/CMSIS/include/core_cmFunc.h" 1
 1625 0032 80F31188 		MSR basepri, r0
 1626              	@ 0 "" 2
 1627              		.thumb
 1628              	.LBE496:
 1629              	.LBE497:
 1630              	.LBE498:
 1631              	.LBE499:
 1632              	.LBE500:
ARM GAS  /tmp/ccPLVGei.s 			page 30


 1633              	.LBE501:
 1634              		.loc 1 706 0
 1635 0036 70BD     		pop	{r4, r5, r6, pc}
 1636              	.LVL100:
 1637              	.L84:
 1638              		.loc 1 687 0
 1639 0038 1146     		mov	r1, r2
 1640              	.LVL101:
 1641 003a FFF7FEFF 		bl	obqGetEmptyBufferTimeoutS
 1642              	.LVL102:
 1643              		.loc 1 688 0
 1644 003e 08B9     		cbnz	r0, .L81
 1645 0040 656A     		ldr	r5, [r4, #36]
 1646 0042 E5E7     		b	.L80
 1647              	.L81:
 1648              	.LVL103:
 1649              	.LBB502:
 1650              	.LBB503:
 1651              	.LBB504:
 1652              	.LBB505:
 1653              	.LBB506:
 1654              	.LBB507:
 1655              		.loc 4 548 0
 1656              	@ 548 "../ChibiOS/os/ext/CMSIS/include/core_cmFunc.h" 1
 1657 0044 85F31188 		MSR basepri, r5
 1658              	@ 0 "" 2
 1659              		.thumb
 1660              	.LBE507:
 1661              	.LBE506:
 1662              	.LBE505:
 1663              	.LBE504:
 1664              	.LBE503:
 1665              	.LBE502:
 1666              		.loc 1 690 0
 1667 0048 70BD     		pop	{r4, r5, r6, pc}
 1668              		.cfi_endproc
 1669              	.LFE290:
 1670              		.size	obqPutTimeout, .-obqPutTimeout
 1671 004a 00BFAFF3 		.section	.text.obqWriteTimeout,"ax",%progbits
 1671      0080
 1672              		.align	2
 1673              		.p2align 4,,15
 1674              		.global	obqWriteTimeout
 1675              		.thumb
 1676              		.thumb_func
 1677              		.type	obqWriteTimeout, %function
 1678              	obqWriteTimeout:
 1679              	.LFB291:
 1680              		.loc 1 730 0
 1681              		.cfi_startproc
 1682              		@ args = 0, pretend = 0, frame = 8
 1683              		@ frame_needed = 0, uses_anonymous_args = 0
 1684              	.LVL104:
 1685 0000 2DE9F04F 		push	{r4, r5, r6, r7, r8, r9, r10, fp, lr}
 1686              		.cfi_def_cfa_offset 36
 1687              		.cfi_offset 4, -36
 1688              		.cfi_offset 5, -32
ARM GAS  /tmp/ccPLVGei.s 			page 31


 1689              		.cfi_offset 6, -28
 1690              		.cfi_offset 7, -24
 1691              		.cfi_offset 8, -20
 1692              		.cfi_offset 9, -16
 1693              		.cfi_offset 10, -12
 1694              		.cfi_offset 11, -8
 1695              		.cfi_offset 14, -4
 1696 0004 9946     		mov	r9, r3
 1697 0006 83B0     		sub	sp, sp, #12
 1698              		.cfi_def_cfa_offset 48
 1699              		.loc 1 730 0
 1700 0008 0446     		mov	r4, r0
 1701 000a 1746     		mov	r7, r2
 1702              	.LBB508:
 1703              	.LBB509:
 1704              	.LBB510:
 1705              	.LBB511:
 1706              	.LBB512:
 1707              		.loc 4 548 0
 1708 000c 2023     		movs	r3, #32
 1709              	.LVL105:
 1710              	@ 548 "../ChibiOS/os/ext/CMSIS/include/core_cmFunc.h" 1
 1711 000e 83F31188 		MSR basepri, r3
 1712              	@ 0 "" 2
 1713              		.thumb
 1714              	.LBE512:
 1715              	.LBE511:
 1716              	.LBE510:
 1717              	.LBE509:
 1718              	.LBE508:
 1719              	.LBB513:
 1720              	.LBB514:
 1721              	.LBB515:
 1722              	.LBB516:
 1723              	.LBB517:
 1724              		.loc 5 141 0
 1725 0012 4FF0804A 		mov	r10, #1073741824
 1726              	.LBE517:
 1727              	.LBE516:
 1728              	.LBE515:
 1729              	.LBE514:
 1730              	.LBE513:
 1731              	.LBB522:
 1732              		.loc 1 743 0
 1733 0016 606A     		ldr	r0, [r4, #36]
 1734              	.LVL106:
 1735              	.LBE522:
 1736              	.LBB575:
 1737              	.LBB521:
 1738              	.LBB520:
 1739              	.LBB519:
 1740              	.LBB518:
 1741              		.loc 5 141 0
 1742 0018 DAF82430 		ldr	r3, [r10, #36]
 1743              	.LBE518:
 1744              	.LBE519:
 1745              	.LBE520:
ARM GAS  /tmp/ccPLVGei.s 			page 32


 1746              	.LBE521:
 1747              	.LBE575:
 1748              		.loc 1 731 0
 1749 001c 0026     		movs	r6, #0
 1750              		.loc 1 737 0
 1751 001e 4B44     		add	r3, r9, r3
 1752 0020 0193     		str	r3, [sp, #4]
 1753              	.LVL107:
 1754              	.LBB576:
 1755              	.LBB523:
 1756              	.LBB524:
 1757              	.LBB525:
 1758              	.LBB526:
 1759              	.LBB527:
 1760              	.LBB528:
 1761              		.loc 4 548 0
 1762 0022 B046     		mov	r8, r6
 1763 0024 8B46     		mov	fp, r1
 1764 0026 4D46     		mov	r5, r9
 1765              	.LBE528:
 1766              	.LBE527:
 1767              	.LBE526:
 1768              	.LBE525:
 1769              	.LBE524:
 1770              	.LBE523:
 1771              		.loc 1 743 0
 1772 0028 90B3     		cbz	r0, .L101
 1773              	.LVL108:
 1774              	.L87:
 1775              		.loc 1 777 0
 1776 002a A36A     		ldr	r3, [r4, #40]
 1777              		.loc 1 778 0
 1778 002c C6EB0709 		rsb	r9, r6, r7
 1779              		.loc 1 777 0
 1780 0030 1B1A     		subs	r3, r3, r0
 1781              	.LVL109:
 1782 0032 4B45     		cmp	r3, r9
 1783 0034 38BF     		it	cc
 1784 0036 9946     		movcc	r9, r3
 1785              	.LVL110:
 1786              		.loc 1 784 0
 1787 0038 B9F1400F 		cmp	r9, #64
 1788              		.loc 1 786 0
 1789 003c 5946     		mov	r1, fp
 1790              		.loc 1 784 0
 1791 003e 37D9     		bls	.L94
 1792              	.LVL111:
 1793              		.loc 1 786 0
 1794 0040 0BF14003 		add	r3, fp, #64
 1795              	.LVL112:
 1796              	.L95:
 1797 0044 D1F80090 		ldr	r9, [r1]	@ unaligned
 1798 0048 D1F804C0 		ldr	ip, [r1, #4]	@ unaligned
 1799 004c 8A68     		ldr	r2, [r1, #8]	@ unaligned
 1800 004e D1F80CB0 		ldr	fp, [r1, #12]	@ unaligned
 1801 0052 C0F80CB0 		str	fp, [r0, #12]	@ unaligned
 1802 0056 1031     		adds	r1, r1, #16
ARM GAS  /tmp/ccPLVGei.s 			page 33


 1803 0058 9942     		cmp	r1, r3
 1804 005a C0F80090 		str	r9, [r0]	@ unaligned
 1805 005e C0F804C0 		str	ip, [r0, #4]	@ unaligned
 1806 0062 8260     		str	r2, [r0, #8]	@ unaligned
 1807 0064 00F11000 		add	r0, r0, #16
 1808 0068 ECD1     		bne	.L95
 1809              		.loc 1 788 0
 1810 006a 636A     		ldr	r3, [r4, #36]
 1811              	.LVL113:
 1812              		.loc 1 799 0
 1813 006c A26A     		ldr	r2, [r4, #40]
 1814              		.loc 1 788 0
 1815 006e 4033     		adds	r3, r3, #64
 1816              		.loc 1 799 0
 1817 0070 9A42     		cmp	r2, r3
 1818              		.loc 1 787 0
 1819 0072 8B46     		mov	fp, r1
 1820              		.loc 1 789 0
 1821 0074 06F14006 		add	r6, r6, #64
 1822              	.LVL114:
 1823              		.loc 1 788 0
 1824 0078 6362     		str	r3, [r4, #36]
 1825              	.LVL115:
 1826              		.loc 1 799 0
 1827 007a 24D9     		bls	.L102
 1828              	.LVL116:
 1829              	.L97:
 1830              	.LBB539:
 1831              	.LBB537:
 1832              	.LBB535:
 1833              	.LBB533:
 1834              	.LBB531:
 1835              	.LBB529:
 1836              		.loc 4 548 0
 1837              	@ 548 "../ChibiOS/os/ext/CMSIS/include/core_cmFunc.h" 1
 1838 007c 88F31188 		MSR basepri, r8
 1839              	@ 0 "" 2
 1840              		.thumb
 1841              	.LBE529:
 1842              	.LBE531:
 1843              	.LBE533:
 1844              	.LBE535:
 1845              	.LBE537:
 1846              	.LBE539:
 1847              		.loc 1 805 0
 1848 0080 BE42     		cmp	r6, r7
 1849 0082 29D2     		bcs	.L89
 1850              	.L106:
 1851              	.LVL117:
 1852              	.LBB540:
 1853              	.LBB541:
 1854              	.LBB542:
 1855              	.LBB543:
 1856              	.LBB544:
 1857              		.loc 4 548 0
 1858 0084 2023     		movs	r3, #32
 1859              	@ 548 "../ChibiOS/os/ext/CMSIS/include/core_cmFunc.h" 1
ARM GAS  /tmp/ccPLVGei.s 			page 34


 1860 0086 83F31188 		MSR basepri, r3
 1861              	@ 0 "" 2
 1862              		.thumb
 1863              	.LBE544:
 1864              	.LBE543:
 1865              	.LBE542:
 1866              	.LBE541:
 1867              	.LBE540:
 1868              		.loc 1 743 0
 1869 008a 606A     		ldr	r0, [r4, #36]
 1870 008c 0028     		cmp	r0, #0
 1871 008e CCD1     		bne	.L87
 1872              	.LVL118:
 1873              	.L101:
 1874              	.LBB545:
 1875              		.loc 1 747 0
 1876 0090 002D     		cmp	r5, #0
 1877 0092 32D0     		beq	.L103
 1878              		.loc 1 753 0
 1879 0094 6B1C     		adds	r3, r5, #1
 1880 0096 23D0     		beq	.L104
 1881              	.LBB546:
 1882              	.LBB547:
 1883              	.LBB548:
 1884              	.LBB549:
 1885              	.LBB550:
 1886              	.LBB551:
 1887              		.loc 5 141 0
 1888 0098 DAF82410 		ldr	r1, [r10, #36]
 1889              	.LBE551:
 1890              	.LBE550:
 1891              	.LBE549:
 1892              	.LBE548:
 1893              	.LBE547:
 1894              		.loc 1 757 0
 1895 009c 019B     		ldr	r3, [sp, #4]
 1896 009e 591A     		subs	r1, r3, r1
 1897              	.LVL119:
 1898              		.loc 1 762 0
 1899 00a0 8D42     		cmp	r5, r1
 1900 00a2 30D3     		bcc	.L105
 1901              		.loc 1 766 0
 1902 00a4 2046     		mov	r0, r4
 1903 00a6 FFF7FEFF 		bl	obqGetEmptyBufferTimeoutS
 1904              	.LVL120:
 1905              	.LBE546:
 1906              		.loc 1 770 0
 1907 00aa F8B9     		cbnz	r0, .L93
 1908              	.L107:
 1909 00ac 606A     		ldr	r0, [r4, #36]
 1910              	.LVL121:
 1911 00ae BCE7     		b	.L87
 1912              	.LVL122:
 1913              	.L94:
 1914              	.LBE545:
 1915              		.loc 1 792 0
 1916 00b0 4A46     		mov	r2, r9
ARM GAS  /tmp/ccPLVGei.s 			page 35


 1917 00b2 FFF7FEFF 		bl	memcpy
 1918              	.LVL123:
 1919              		.loc 1 794 0
 1920 00b6 636A     		ldr	r3, [r4, #36]
 1921              		.loc 1 799 0
 1922 00b8 A26A     		ldr	r2, [r4, #40]
 1923              		.loc 1 794 0
 1924 00ba 4B44     		add	r3, r3, r9
 1925              		.loc 1 799 0
 1926 00bc 9A42     		cmp	r2, r3
 1927              		.loc 1 795 0
 1928 00be 4E44     		add	r6, r6, r9
 1929              	.LVL124:
 1930              		.loc 1 793 0
 1931 00c0 CB44     		add	fp, fp, r9
 1932              	.LVL125:
 1933              		.loc 1 794 0
 1934 00c2 6362     		str	r3, [r4, #36]
 1935              		.loc 1 799 0
 1936 00c4 DAD8     		bhi	.L97
 1937              	.LVL126:
 1938              	.L102:
 1939              		.loc 1 800 0
 1940 00c6 A169     		ldr	r1, [r4, #24]
 1941 00c8 2046     		mov	r0, r4
 1942 00ca 0439     		subs	r1, r1, #4
 1943 00cc FFF7FEFF 		bl	obqPostFullBufferS
 1944              	.LVL127:
 1945              	.LBB571:
 1946              	.LBB538:
 1947              	.LBB536:
 1948              	.LBB534:
 1949              	.LBB532:
 1950              	.LBB530:
 1951              		.loc 4 548 0
 1952              	@ 548 "../ChibiOS/os/ext/CMSIS/include/core_cmFunc.h" 1
 1953 00d0 88F31188 		MSR basepri, r8
 1954              	@ 0 "" 2
 1955              		.thumb
 1956              	.LBE530:
 1957              	.LBE532:
 1958              	.LBE534:
 1959              	.LBE536:
 1960              	.LBE538:
 1961              	.LBE571:
 1962              		.loc 1 805 0
 1963 00d4 BE42     		cmp	r6, r7
 1964 00d6 D5D3     		bcc	.L106
 1965              	.LVL128:
 1966              	.L89:
 1967              	.LBE576:
 1968              		.loc 1 810 0
 1969 00d8 3046     		mov	r0, r6
 1970 00da 03B0     		add	sp, sp, #12
 1971              		@ sp needed
 1972 00dc BDE8F08F 		pop	{r4, r5, r6, r7, r8, r9, r10, fp, pc}
 1973              	.LVL129:
ARM GAS  /tmp/ccPLVGei.s 			page 36


 1974              	.L104:
 1975              	.LBB577:
 1976              	.LBB572:
 1977              		.loc 1 754 0
 1978 00e0 2046     		mov	r0, r4
 1979 00e2 2946     		mov	r1, r5
 1980 00e4 FFF7FEFF 		bl	obqGetEmptyBufferTimeoutS
 1981              	.LVL130:
 1982              		.loc 1 770 0
 1983 00e8 0028     		cmp	r0, #0
 1984 00ea DFD0     		beq	.L107
 1985              	.L93:
 1986              	.LVL131:
 1987              	.LBB558:
 1988              	.LBB559:
 1989              	.LBB560:
 1990              	.LBB561:
 1991              	.LBB562:
 1992              	.LBB563:
 1993              		.loc 4 548 0
 1994 00ec 0023     		movs	r3, #0
 1995              	@ 548 "../ChibiOS/os/ext/CMSIS/include/core_cmFunc.h" 1
 1996 00ee 83F31188 		MSR basepri, r3
 1997              	@ 0 "" 2
 1998              		.thumb
 1999              	.LBE563:
 2000              	.LBE562:
 2001              	.LBE561:
 2002              	.LBE560:
 2003              	.LBE559:
 2004              	.LBE558:
 2005              	.LBE572:
 2006              	.LBE577:
 2007              		.loc 1 810 0
 2008 00f2 3046     		mov	r0, r6
 2009              	.LVL132:
 2010 00f4 03B0     		add	sp, sp, #12
 2011              		@ sp needed
 2012 00f6 BDE8F08F 		pop	{r4, r5, r6, r7, r8, r9, r10, fp, pc}
 2013              	.LVL133:
 2014              	.L103:
 2015              	.LBB578:
 2016              	.LBB573:
 2017              	.LBB564:
 2018              	.LBB565:
 2019              	.LBB566:
 2020              	.LBB567:
 2021              	.LBB568:
 2022              	.LBB569:
 2023              		.loc 4 548 0
 2024              	@ 548 "../ChibiOS/os/ext/CMSIS/include/core_cmFunc.h" 1
 2025 00fa 85F31188 		MSR basepri, r5
 2026              	@ 0 "" 2
 2027              		.thumb
 2028              	.LBE569:
 2029              	.LBE568:
 2030              	.LBE567:
ARM GAS  /tmp/ccPLVGei.s 			page 37


 2031              	.LBE566:
 2032              	.LBE565:
 2033              	.LBE564:
 2034              	.LBE573:
 2035              	.LBE578:
 2036              		.loc 1 810 0
 2037 00fe 3046     		mov	r0, r6
 2038 0100 03B0     		add	sp, sp, #12
 2039              		@ sp needed
 2040 0102 BDE8F08F 		pop	{r4, r5, r6, r7, r8, r9, r10, fp, pc}
 2041              	.LVL134:
 2042              	.L105:
 2043              	.LBB579:
 2044              	.LBB574:
 2045              	.LBB570:
 2046              	.LBB552:
 2047              	.LBB553:
 2048              	.LBB554:
 2049              	.LBB555:
 2050              	.LBB556:
 2051              	.LBB557:
 2052              		.loc 4 548 0
 2053              	@ 548 "../ChibiOS/os/ext/CMSIS/include/core_cmFunc.h" 1
 2054 0106 80F31188 		MSR basepri, r0
 2055              	@ 0 "" 2
 2056              		.thumb
 2057              	.LBE557:
 2058              	.LBE556:
 2059              	.LBE555:
 2060              	.LBE554:
 2061              	.LBE553:
 2062              	.LBE552:
 2063              		.loc 1 764 0
 2064 010a E5E7     		b	.L89
 2065              	.LBE570:
 2066              	.LBE574:
 2067              	.LBE579:
 2068              		.cfi_endproc
 2069              	.LFE291:
 2070              		.size	obqWriteTimeout, .-obqWriteTimeout
 2071 010c AFF30080 		.section	.text.obqTryFlushI,"ax",%progbits
 2072              		.align	2
 2073              		.p2align 4,,15
 2074              		.global	obqTryFlushI
 2075              		.thumb
 2076              		.thumb_func
 2077              		.type	obqTryFlushI, %function
 2078              	obqTryFlushI:
 2079              	.LFB292:
 2080              		.loc 1 825 0
 2081              		.cfi_startproc
 2082              		@ args = 0, pretend = 0, frame = 0
 2083              		@ frame_needed = 0, uses_anonymous_args = 0
 2084              		@ link register save eliminated.
 2085              	.LVL135:
 2086              		.loc 1 831 0
 2087 0000 C368     		ldr	r3, [r0, #12]
ARM GAS  /tmp/ccPLVGei.s 			page 38


 2088 0002 0269     		ldr	r2, [r0, #16]
 2089 0004 9342     		cmp	r3, r2
 2090              		.loc 1 825 0
 2091 0006 10B4     		push	{r4}
 2092              		.cfi_def_cfa_offset 4
 2093              		.cfi_offset 4, -4
 2094              		.loc 1 831 0
 2095 0008 03D0     		beq	.L117
 2096              	.L113:
 2097              		.loc 1 852 0
 2098 000a 0020     		movs	r0, #0
 2099              	.LVL136:
 2100              	.L115:
 2101              		.loc 1 853 0
 2102 000c 5DF8044B 		ldr	r4, [sp], #4
 2103 0010 7047     		bx	lr
 2104              	.LVL137:
 2105              	.L117:
 2106              		.loc 1 831 0 discriminator 1
 2107 0012 8268     		ldr	r2, [r0, #8]
 2108 0014 B2B1     		cbz	r2, .L116
 2109              		.loc 1 831 0 is_stmt 0
 2110 0016 426A     		ldr	r2, [r0, #36]
 2111 0018 A2B1     		cbz	r2, .L116
 2112              	.LBB580:
 2113              		.loc 1 832 0 is_stmt 1
 2114 001a 043A     		subs	r2, r2, #4
 2115              	.LVL138:
 2116              		.loc 1 834 0
 2117 001c D21A     		subs	r2, r2, r3
 2118              	.LVL139:
 2119 001e F4D0     		beq	.L113
 2120              		.loc 1 837 0
 2121 0020 1A60     		str	r2, [r3]
 2122              		.loc 1 841 0
 2123 0022 8169     		ldr	r1, [r0, #24]
 2124              		.loc 1 842 0
 2125 0024 4269     		ldr	r2, [r0, #20]
 2126              	.LVL140:
 2127              		.loc 1 840 0
 2128 0026 8468     		ldr	r4, [r0, #8]
 2129              		.loc 1 841 0
 2130 0028 0B44     		add	r3, r3, r1
 2131              	.LVL141:
 2132              		.loc 1 842 0
 2133 002a 9342     		cmp	r3, r2
 2134              		.loc 1 841 0
 2135 002c C360     		str	r3, [r0, #12]
 2136              	.LVL142:
 2137              		.loc 1 843 0
 2138 002e 24BF     		itt	cs
 2139 0030 036A     		ldrcs	r3, [r0, #32]
 2140 0032 C360     		strcs	r3, [r0, #12]
 2141              		.loc 1 840 0
 2142 0034 013C     		subs	r4, r4, #1
 2143              		.loc 1 847 0
 2144 0036 0023     		movs	r3, #0
ARM GAS  /tmp/ccPLVGei.s 			page 39


 2145              		.loc 1 840 0
 2146 0038 8460     		str	r4, [r0, #8]
 2147              		.loc 1 847 0
 2148 003a 4362     		str	r3, [r0, #36]
 2149              	.LBE580:
 2150              		.loc 1 853 0
 2151 003c 5DF8044B 		ldr	r4, [sp], #4
 2152              	.LBB581:
 2153              		.loc 1 849 0
 2154 0040 0120     		movs	r0, #1
 2155              	.LVL143:
 2156              	.LBE581:
 2157              		.loc 1 853 0
 2158 0042 7047     		bx	lr
 2159              	.LVL144:
 2160              	.L116:
 2161              		.loc 1 852 0
 2162 0044 1046     		mov	r0, r2
 2163              	.LVL145:
 2164 0046 E1E7     		b	.L115
 2165              		.cfi_endproc
 2166              	.LFE292:
 2167              		.size	obqTryFlushI, .-obqTryFlushI
 2168 0048 AFF30080 		.section	.text.obqFlush,"ax",%progbits
 2168      AFF30080 
 2169              		.align	2
 2170              		.p2align 4,,15
 2171              		.global	obqFlush
 2172              		.thumb
 2173              		.thumb_func
 2174              		.type	obqFlush, %function
 2175              	obqFlush:
 2176              	.LFB293:
 2177              		.loc 1 862 0
 2178              		.cfi_startproc
 2179              		@ args = 0, pretend = 0, frame = 0
 2180              		@ frame_needed = 0, uses_anonymous_args = 0
 2181              	.LVL146:
 2182 0000 08B5     		push	{r3, lr}
 2183              		.cfi_def_cfa_offset 8
 2184              		.cfi_offset 3, -8
 2185              		.cfi_offset 14, -4
 2186              	.LBB582:
 2187              	.LBB583:
 2188              	.LBB584:
 2189              	.LBB585:
 2190              	.LBB586:
 2191              		.loc 4 548 0
 2192 0002 2023     		movs	r3, #32
 2193              	@ 548 "../ChibiOS/os/ext/CMSIS/include/core_cmFunc.h" 1
 2194 0004 83F31188 		MSR basepri, r3
 2195              	@ 0 "" 2
 2196              		.thumb
 2197              	.LBE586:
 2198              	.LBE585:
 2199              	.LBE584:
 2200              	.LBE583:
ARM GAS  /tmp/ccPLVGei.s 			page 40


 2201              	.LBE582:
 2202              		.loc 1 867 0
 2203 0008 436A     		ldr	r3, [r0, #36]
 2204 000a 23B1     		cbz	r3, .L119
 2205              	.LBB587:
 2206              		.loc 1 868 0
 2207 000c C168     		ldr	r1, [r0, #12]
 2208              	.LVL147:
 2209              		.loc 1 870 0
 2210 000e 591A     		subs	r1, r3, r1
 2211              	.LVL148:
 2212 0010 01D0     		beq	.L119
 2213              		.loc 1 871 0
 2214 0012 FFF7FEFF 		bl	obqPostFullBufferS
 2215              	.LVL149:
 2216              	.L119:
 2217              	.LBE587:
 2218              	.LBB588:
 2219              	.LBB589:
 2220              	.LBB590:
 2221              	.LBB591:
 2222              	.LBB592:
 2223              	.LBB593:
 2224              		.loc 4 548 0
 2225 0016 0023     		movs	r3, #0
 2226              	@ 548 "../ChibiOS/os/ext/CMSIS/include/core_cmFunc.h" 1
 2227 0018 83F31188 		MSR basepri, r3
 2228              	@ 0 "" 2
 2229              		.thumb
 2230 001c 08BD     		pop	{r3, pc}
 2231              	.LBE593:
 2232              	.LBE592:
 2233              	.LBE591:
 2234              	.LBE590:
 2235              	.LBE589:
 2236              	.LBE588:
 2237              		.cfi_endproc
 2238              	.LFE293:
 2239              		.size	obqFlush, .-obqFlush
 2240 001e 00BF     		.text
 2241              	.Letext0:
 2242              		.file 6 "/nfs/nfs5/home/research/hardware/arm2/gcc-arm-embedded/gcc-arm-none-eabi-4_8-2014q2/lib/g
 2243              		.file 7 "/nfs/nfs5/home/research/hardware/arm2/gcc-arm-embedded/gcc-arm-none-eabi-4_8-2014q2/arm-n
 2244              		.file 8 "/nfs/nfs5/home/research/hardware/arm2/gcc-arm-embedded/gcc-arm-none-eabi-4_8-2014q2/arm-n
 2245              		.file 9 "../ChibiOS/os/rt/ports/ARMCMx/compilers/GCC/chtypes.h"
 2246              		.file 10 "../ChibiOS/os/rt/include/chsystypes.h"
 2247              		.file 11 "../ChibiOS/os/rt/ports/ARMCMx/chcore.h"
 2248              		.file 12 "../ChibiOS/os/rt/ports/ARMCMx/chcore_v7m.h"
 2249              		.file 13 "../ChibiOS/os/hal/ports/STM32/LLD/TIMv1/stm32_tim.h"
 2250              		.file 14 "../ChibiOS/os/rt/include/chtm.h"
 2251              		.file 15 "../ChibiOS/os/rt/include/chsem.h"
 2252              		.file 16 "../ChibiOS/os/rt/include/chmtx.h"
 2253              		.file 17 "../ChibiOS/os/hal/include/hal_buffers.h"
 2254              		.file 18 "../ChibiOS/os/rt/ports/ARMCMx/chcore_timer.h"
 2255              		.file 19 "../ChibiOS/os/rt/include/chsys.h"
 2256              		.file 20 "../ChibiOS/os/rt/include/chvt.h"
 2257              		.file 21 "../ChibiOS/os/rt/include/chthreads.h"
ARM GAS  /tmp/ccPLVGei.s 			page 41


 2258              		.file 22 "../ChibiOS/os/ext/CMSIS/include/core_cm4.h"