ARM GAS  /tmp/ccGArWSQ.s 			page 1


   1              		.syntax unified
   2              		.cpu cortex-m4
   3              		.fpu softvfp
   4              		.eabi_attribute 20, 1
   5              		.eabi_attribute 21, 1
   6              		.eabi_attribute 23, 3
   7              		.eabi_attribute 24, 1
   8              		.eabi_attribute 25, 1
   9              		.eabi_attribute 26, 1
  10              		.eabi_attribute 30, 2
  11              		.eabi_attribute 34, 1
  12              		.eabi_attribute 18, 4
  13              		.thumb
  14              		.file	"main.c"
  15              		.text
  16              	.Ltext0:
  17              		.cfi_sections	.debug_frame
  18              		.section	.text.cmd_myecho,"ax",%progbits
  19              		.align	2
  20              		.p2align 4,,15
  21              		.thumb
  22              		.thumb_func
  23              		.type	cmd_myecho, %function
  24              	cmd_myecho:
  25              	.LFB281:
  26              		.file 1 "main.c"
  27              		.loc 1 423 0
  28              		.cfi_startproc
  29              		@ args = 0, pretend = 0, frame = 0
  30              		@ frame_needed = 0, uses_anonymous_args = 0
  31              	.LVL0:
  32 0000 F8B5     		push	{r3, r4, r5, r6, r7, lr}
  33              		.cfi_def_cfa_offset 24
  34              		.cfi_offset 3, -24
  35              		.cfi_offset 4, -20
  36              		.cfi_offset 5, -16
  37              		.cfi_offset 6, -12
  38              		.cfi_offset 7, -8
  39              		.cfi_offset 14, -4
  40              		.loc 1 428 0
  41 0002 0F1E     		subs	r7, r1, #0
  42              		.loc 1 423 0
  43 0004 0646     		mov	r6, r0
  44              		.loc 1 428 0
  45 0006 0ADD     		ble	.L1
  46 0008 151F     		subs	r5, r2, #4
  47 000a 0024     		movs	r4, #0
  48              	.LVL1:
  49              	.L4:
  50              		.loc 1 428 0 is_stmt 0 discriminator 2
  51 000c 0134     		adds	r4, r4, #1
  52              	.LVL2:
  53              		.loc 1 429 0 is_stmt 1 discriminator 2
  54 000e 3046     		mov	r0, r6
  55 0010 0349     		ldr	r1, .L6
  56 0012 55F8042F 		ldr	r2, [r5, #4]!
  57 0016 FFF7FEFF 		bl	chprintf
ARM GAS  /tmp/ccGArWSQ.s 			page 2


  58              	.LVL3:
  59              		.loc 1 428 0 discriminator 2
  60 001a BC42     		cmp	r4, r7
  61 001c F6D1     		bne	.L4
  62              	.LVL4:
  63              	.L1:
  64 001e F8BD     		pop	{r3, r4, r5, r6, r7, pc}
  65              	.LVL5:
  66              	.L7:
  67              		.align	2
  68              	.L6:
  69 0020 00000000 		.word	.LC0
  70              		.cfi_endproc
  71              	.LFE281:
  72              		.size	cmd_myecho, .-cmd_myecho
  73 0024 AFF30080 		.section	.text.cmd_dataread,"ax",%progbits
  73      AFF30080 
  73      AFF30080 
  74              		.align	2
  75              		.p2align 4,,15
  76              		.thumb
  77              		.thumb_func
  78              		.type	cmd_dataread, %function
  79              	cmd_dataread:
  80              	.LFB283:
  81              		.loc 1 499 0
  82              		.cfi_startproc
  83              		@ args = 0, pretend = 0, frame = 0
  84              		@ frame_needed = 0, uses_anonymous_args = 0
  85              	.LVL6:
  86 0000 2DE9F041 		push	{r4, r5, r6, r7, r8, lr}
  87              		.cfi_def_cfa_offset 24
  88              		.cfi_offset 4, -24
  89              		.cfi_offset 5, -20
  90              		.cfi_offset 6, -16
  91              		.cfi_offset 7, -12
  92              		.cfi_offset 8, -8
  93              		.cfi_offset 14, -4
  94 0004 DFF84480 		ldr	r8, .L11+16
  95 0008 0C4F     		ldr	r7, .L11
  96 000a 0D4E     		ldr	r6, .L11+4
  97              		.loc 1 499 0
  98 000c 0546     		mov	r5, r0
  99 000e 0024     		movs	r4, #0
 100              	.LVL7:
 101              	.L10:
 102              		.loc 1 505 0 discriminator 2
 103 0010 38F90420 		ldrsh	r2, [r8, r4]
 104 0014 0B49     		ldr	r1, .L11+8
 105 0016 2846     		mov	r0, r5
 106 0018 FFF7FEFF 		bl	chprintf
 107              	.LVL8:
 108              		.loc 1 506 0 discriminator 2
 109 001c 3A5F     		ldrsh	r2, [r7, r4]
 110 001e 0949     		ldr	r1, .L11+8
 111 0020 2846     		mov	r0, r5
 112 0022 FFF7FEFF 		bl	chprintf
ARM GAS  /tmp/ccGArWSQ.s 			page 3


 113              	.LVL9:
 114              		.loc 1 507 0 discriminator 2
 115 0026 325F     		ldrsh	r2, [r6, r4]
 116 0028 0749     		ldr	r1, .L11+12
 117 002a 2846     		mov	r0, r5
 118 002c 0234     		adds	r4, r4, #2
 119 002e FFF7FEFF 		bl	chprintf
 120              	.LVL10:
 121              		.loc 1 504 0 discriminator 2
 122 0032 C82C     		cmp	r4, #200
 123 0034 ECD1     		bne	.L10
 124              		.loc 1 510 0
 125 0036 BDE8F081 		pop	{r4, r5, r6, r7, r8, pc}
 126              	.LVL11:
 127              	.L12:
 128 003a 00BF     		.align	2
 129              	.L11:
 130 003c 00000000 		.word	.LANCHOR1
 131 0040 00000000 		.word	.LANCHOR2
 132 0044 08000000 		.word	.LC1
 133 0048 0C000000 		.word	.LC2
 134 004c 00000000 		.word	.LANCHOR0
 135              		.cfi_endproc
 136              	.LFE283:
 137              		.size	cmd_dataread, .-cmd_dataread
 138              		.section	.text.cmd_writeSD,"ax",%progbits
 139              		.align	2
 140              		.p2align 4,,15
 141              		.thumb
 142              		.thumb_func
 143              		.type	cmd_writeSD, %function
 144              	cmd_writeSD:
 145              	.LFB284:
 146              		.loc 1 512 0
 147              		.cfi_startproc
 148              		@ args = 0, pretend = 0, frame = 0
 149              		@ frame_needed = 0, uses_anonymous_args = 0
 150              	.LVL12:
 151 0000 08B5     		push	{r3, lr}
 152              		.cfi_def_cfa_offset 8
 153              		.cfi_offset 3, -8
 154              		.cfi_offset 14, -4
 155              		.loc 1 520 0
 156 0002 0848     		ldr	r0, .L16
 157              	.LVL13:
 158 0004 0849     		ldr	r1, .L16+4
 159              	.LVL14:
 160 0006 0022     		movs	r2, #0
 161              	.LVL15:
 162 0008 FFF7FEFF 		bl	f_mount
 163              	.LVL16:
 164 000c 074B     		ldr	r3, .L16+8
 165 000e 1870     		strb	r0, [r3]
 166              		.loc 1 522 0
 167 0010 00B9     		cbnz	r0, .L15
 168 0012 08BD     		pop	{r3, pc}
 169              	.L15:
ARM GAS  /tmp/ccGArWSQ.s 			page 4


 170              	.LVL17:
 171              	.LBB24:
 172              	.LBB25:
 173              		.loc 1 345 0 discriminator 1
 174 0014 0246     		mov	r2, r0
 175 0016 0649     		ldr	r1, .L16+12
 176 0018 0648     		ldr	r0, .L16+16
 177              	.LVL18:
 178              	.LBE25:
 179              	.LBE24:
 180              		.loc 1 529 0 discriminator 1
 181 001a BDE80840 		pop	{r3, lr}
 182              	.LBB27:
 183              	.LBB26:
 184              		.loc 1 345 0 discriminator 1
 185 001e FFF7FEBF 		b	chprintf
 186              	.LVL19:
 187              	.L17:
 188 0022 00BF     		.align	2
 189              	.L16:
 190 0024 00000000 		.word	.LANCHOR3
 191 0028 14000000 		.word	.LC3
 192 002c 00000000 		.word	.LANCHOR4
 193 0030 18000000 		.word	.LC4
 194 0034 00000000 		.word	SD1
 195              	.LBE26:
 196              	.LBE27:
 197              		.cfi_endproc
 198              	.LFE284:
 199              		.size	cmd_writeSD, .-cmd_writeSD
 200 0038 AFF30080 		.section	.text.counterThread,"ax",%progbits
 200      AFF30080 
 201              		.align	2
 202              		.p2align 4,,15
 203              		.thumb
 204              		.thumb_func
 205              		.type	counterThread, %function
 206              	counterThread:
 207              	.LFB275:
 208              		.loc 1 176 0
 209              		.cfi_startproc
 210              		@ Volatile: function does not return.
 211              		@ args = 0, pretend = 0, frame = 0
 212              		@ frame_needed = 0, uses_anonymous_args = 0
 213              	.LVL20:
 214 0000 08B5     		push	{r3, lr}
 215              		.cfi_def_cfa_offset 8
 216              		.cfi_offset 3, -8
 217              		.cfi_offset 14, -4
 218              		.loc 1 179 0
 219 0002 4FF40075 		mov	r5, #512
 220 0006 064C     		ldr	r4, .L20
 221 0008 2E46     		mov	r6, r5	@ movhi
 222              	.LVL21:
 223              	.L19:
 224              		.loc 1 179 0 is_stmt 0 discriminator 1
 225 000a 2683     		strh	r6, [r4, #24]	@ movhi
ARM GAS  /tmp/ccGArWSQ.s 			page 5


 226              		.loc 1 180 0 is_stmt 1 discriminator 1
 227 000c 41F28830 		movw	r0, #5000
 228 0010 FFF7FEFF 		bl	chThdSleep
 229              	.LVL22:
 230              		.loc 1 181 0 discriminator 1
 231 0014 6583     		strh	r5, [r4, #26]	@ movhi
 232              		.loc 1 182 0 discriminator 1
 233 0016 41F28830 		movw	r0, #5000
 234 001a FFF7FEFF 		bl	chThdSleep
 235              	.LVL23:
 236 001e F4E7     		b	.L19
 237              	.L21:
 238              		.align	2
 239              	.L20:
 240 0020 00100048 		.word	1207963648
 241              		.cfi_endproc
 242              	.LFE275:
 243              		.size	counterThread, .-counterThread
 244 0024 AFF30080 		.section	.text.termination_handler,"ax",%progbits
 244      AFF30080 
 244      AFF30080 
 245              		.align	2
 246              		.p2align 4,,15
 247              		.thumb
 248              		.thumb_func
 249              		.type	termination_handler, %function
 250              	termination_handler:
 251              	.LFB286:
 252              		.loc 1 573 0
 253              		.cfi_startproc
 254              		@ args = 0, pretend = 0, frame = 0
 255              		@ frame_needed = 0, uses_anonymous_args = 0
 256              	.LVL24:
 257 0000 10B5     		push	{r4, lr}
 258              		.cfi_def_cfa_offset 8
 259              		.cfi_offset 4, -8
 260              		.cfi_offset 14, -4
 261              		.loc 1 578 0
 262 0002 0E4C     		ldr	r4, .L28
 263              		.loc 1 576 0
 264 0004 0E48     		ldr	r0, .L28+4
 265              	.LVL25:
 266 0006 0F49     		ldr	r1, .L28+8
 267 0008 FFF7FEFF 		bl	chprintf
 268              	.LVL26:
 269              		.loc 1 578 0
 270 000c 2068     		ldr	r0, [r4]
 271 000e 10B1     		cbz	r0, .L22
 272              	.LVL27:
 273              		.loc 1 578 0 is_stmt 0 discriminator 1
 274 0010 037F     		ldrb	r3, [r0, #28]	@ zero_extendqisi2
 275 0012 0F2B     		cmp	r3, #15
 276 0014 00D0     		beq	.L27
 277              	.LVL28:
 278              	.L22:
 279 0016 10BD     		pop	{r4, pc}
 280              	.LVL29:
ARM GAS  /tmp/ccGArWSQ.s 			page 6


 281              	.L27:
 282              		.loc 1 579 0 is_stmt 1
 283 0018 FFF7FEFF 		bl	chThdWait
 284              	.LVL30:
 285              		.loc 1 580 0
 286 001c 0A49     		ldr	r1, .L28+12
 287 001e 0848     		ldr	r0, .L28+4
 288 0020 FFF7FEFF 		bl	chprintf
 289              	.LVL31:
 290              		.loc 1 581 0
 291 0024 4FF47A70 		mov	r0, #1000
 292 0028 FFF7FEFF 		bl	chThdSleep
 293              	.LVL32:
 294              		.loc 1 582 0
 295 002c 0748     		ldr	r0, .L28+16
 296 002e 40F6C801 		movw	r1, #2248
 297 0032 4022     		movs	r2, #64
 298 0034 FFF7FEFF 		bl	shellCreate
 299              	.LVL33:
 300 0038 2060     		str	r0, [r4]
 301 003a 10BD     		pop	{r4, pc}
 302              	.L29:
 303              		.align	2
 304              	.L28:
 305 003c 00000000 		.word	.LANCHOR5
 306 0040 00000000 		.word	SD1
 307 0044 30000000 		.word	.LC5
 308 0048 40000000 		.word	.LC6
 309 004c 00000000 		.word	.LANCHOR6
 310              		.cfi_endproc
 311              	.LFE286:
 312              		.size	termination_handler, .-termination_handler
 313              		.section	.text.init_mmc,"ax",%progbits
 314              		.align	2
 315              		.p2align 4,,15
 316              		.global	init_mmc
 317              		.thumb
 318              		.thumb_func
 319              		.type	init_mmc, %function
 320              	init_mmc:
 321              	.LFB272:
 322              		.loc 1 125 0
 323              		.cfi_startproc
 324              		@ args = 0, pretend = 0, frame = 0
 325              		@ frame_needed = 0, uses_anonymous_args = 0
 326              	.LVL34:
 327 0000 F8B5     		push	{r3, r4, r5, r6, r7, lr}
 328              		.cfi_def_cfa_offset 24
 329              		.cfi_offset 3, -24
 330              		.cfi_offset 4, -20
 331              		.cfi_offset 5, -16
 332              		.cfi_offset 6, -12
 333              		.cfi_offset 7, -8
 334              		.cfi_offset 14, -4
 335              		.loc 1 126 0
 336 0002 1A4C     		ldr	r4, .L31
 337              		.loc 1 131 0
ARM GAS  /tmp/ccGArWSQ.s 			page 7


 338 0004 1A4F     		ldr	r7, .L31+4
 339              		.loc 1 135 0
 340 0006 1B4E     		ldr	r6, .L31+8
 341              		.loc 1 125 0
 342 0008 0546     		mov	r5, r0
 343              		.loc 1 126 0
 344 000a 4FF40051 		mov	r1, #8192
 345 000e 2046     		mov	r0, r4
 346              	.LVL35:
 347 0010 40F28222 		movw	r2, #642
 348 0014 FFF7FEFF 		bl	_pal_lld_setgroupmode
 349              	.LVL36:
 350              		.loc 1 127 0
 351 0018 2046     		mov	r0, r4
 352 001a 4FF48041 		mov	r1, #16384
 353 001e 40F28222 		movw	r2, #642
 354 0022 FFF7FEFF 		bl	_pal_lld_setgroupmode
 355              	.LVL37:
 356              		.loc 1 128 0
 357 0026 2046     		mov	r0, r4
 358 0028 4FF40041 		mov	r1, #32768
 359 002c 40F28222 		movw	r2, #642
 360 0030 FFF7FEFF 		bl	_pal_lld_setgroupmode
 361              	.LVL38:
 362              		.loc 1 131 0
 363 0034 0121     		movs	r1, #1
 364 0036 3846     		mov	r0, r7
 365 0038 0A46     		mov	r2, r1
 366 003a FFF7FEFF 		bl	_pal_lld_setgroupmode
 367              	.LVL39:
 368              		.loc 1 132 0
 369 003e 0123     		movs	r3, #1
 370 0040 3B83     		strh	r3, [r7, #24]	@ movhi
 371              		.loc 1 135 0
 372 0042 3046     		mov	r0, r6
 373 0044 4FF40071 		mov	r1, #512
 374 0048 2022     		movs	r2, #32
 375 004a FFF7FEFF 		bl	_pal_lld_setgroupmode
 376              	.LVL40:
 377              		.loc 1 136 0
 378 004e 4FF40073 		mov	r3, #512
 379 0052 7383     		strh	r3, [r6, #26]	@ movhi
 380              		.loc 1 139 0
 381 0054 2846     		mov	r0, r5
 382 0056 FFF7FEFF 		bl	mmcObjectInit
 383              	.LVL41:
 384              		.loc 1 140 0
 385 005a 2846     		mov	r0, r5
 386 005c 0649     		ldr	r1, .L31+12
 387 005e FFF7FEFF 		bl	mmcStart
 388              	.LVL42:
 389              		.loc 1 141 0
 390 0062 0648     		ldr	r0, .L31+16
 391              		.loc 1 142 0
 392 0064 BDE8F840 		pop	{r3, r4, r5, r6, r7, lr}
 393              	.LVL43:
 394              		.loc 1 141 0
ARM GAS  /tmp/ccGArWSQ.s 			page 8


 395 0068 FFF7FEBF 		b	chMtxObjectInit
 396              	.LVL44:
 397              	.L32:
 398              		.align	2
 399              	.L31:
 400 006c 00040048 		.word	1207960576
 401 0070 00080048 		.word	1207961600
 402 0074 000C0048 		.word	1207962624
 403 0078 00000000 		.word	.LANCHOR7
 404 007c 00000000 		.word	.LANCHOR8
 405              		.cfi_endproc
 406              	.LFE272:
 407              		.size	init_mmc, .-init_mmc
 408              		.section	.text.accel_read_register,"ax",%progbits
 409              		.align	2
 410              		.p2align 4,,15
 411              		.global	accel_read_register
 412              		.thumb
 413              		.thumb_func
 414              		.type	accel_read_register, %function
 415              	accel_read_register:
 416              	.LFB273:
 417              		.loc 1 146 0
 418              		.cfi_startproc
 419              		@ args = 0, pretend = 0, frame = 16
 420              		@ frame_needed = 0, uses_anonymous_args = 0
 421              	.LVL45:
 422 0000 30B5     		push	{r4, r5, lr}
 423              		.cfi_def_cfa_offset 12
 424              		.cfi_offset 4, -12
 425              		.cfi_offset 5, -8
 426              		.cfi_offset 14, -4
 427 0002 85B0     		sub	sp, sp, #20
 428              		.cfi_def_cfa_offset 32
 429              		.loc 1 151 0
 430 0004 124C     		ldr	r4, .L34
 431              		.loc 1 146 0
 432 0006 8DF80700 		strb	r0, [sp, #7]
 433              		.loc 1 148 0
 434 000a 04AD     		add	r5, sp, #16
 435 000c 0B23     		movs	r3, #11
 436 000e 05F8013D 		strb	r3, [r5, #-1]!
 437              		.loc 1 151 0
 438 0012 2046     		mov	r0, r4
 439              	.LVL46:
 440 0014 0F49     		ldr	r1, .L34+4
 441 0016 FFF7FEFF 		bl	spiStart
 442              	.LVL47:
 443              		.loc 1 152 0
 444 001a 2046     		mov	r0, r4
 445 001c FFF7FEFF 		bl	spiSelect
 446              	.LVL48:
 447              		.loc 1 153 0
 448 0020 2046     		mov	r0, r4
 449 0022 2A46     		mov	r2, r5
 450 0024 0121     		movs	r1, #1
 451 0026 FFF7FEFF 		bl	spiSend
ARM GAS  /tmp/ccGArWSQ.s 			page 9


 452              	.LVL49:
 453              		.loc 1 154 0
 454 002a 2046     		mov	r0, r4
 455 002c 0DF10702 		add	r2, sp, #7
 456              	.LVL50:
 457 0030 0121     		movs	r1, #1
 458 0032 FFF7FEFF 		bl	spiSend
 459              	.LVL51:
 460              		.loc 1 155 0
 461 0036 2046     		mov	r0, r4
 462 0038 0121     		movs	r1, #1
 463 003a 0DF10E02 		add	r2, sp, #14
 464 003e FFF7FEFF 		bl	spiReceive
 465              	.LVL52:
 466              		.loc 1 156 0
 467 0042 2046     		mov	r0, r4
 468 0044 FFF7FEFF 		bl	spiUnselect
 469              	.LVL53:
 470              		.loc 1 159 0
 471 0048 9DF80E00 		ldrb	r0, [sp, #14]	@ zero_extendqisi2
 472 004c 05B0     		add	sp, sp, #20
 473              		@ sp needed
 474 004e 30BD     		pop	{r4, r5, pc}
 475              	.LVL54:
 476              	.L35:
 477              		.align	2
 478              	.L34:
 479 0050 00000000 		.word	SPID1
 480 0054 00000000 		.word	.LANCHOR9
 481              		.cfi_endproc
 482              	.LFE273:
 483              		.size	accel_read_register, .-accel_read_register
 484 0058 AFF30080 		.section	.text.readThread,"ax",%progbits
 484      AFF30080 
 485              		.align	2
 486              		.p2align 4,,15
 487              		.thumb
 488              		.thumb_func
 489              		.type	readThread, %function
 490              	readThread:
 491              	.LFB276:
 492              		.loc 1 188 0
 493              		.cfi_startproc
 494              		@ args = 0, pretend = 0, frame = 0
 495              		@ frame_needed = 0, uses_anonymous_args = 0
 496              	.LVL55:
 497 0000 2DE9F84F 		push	{r3, r4, r5, r6, r7, r8, r9, r10, fp, lr}
 498              		.cfi_def_cfa_offset 40
 499              		.cfi_offset 3, -40
 500              		.cfi_offset 4, -36
 501              		.cfi_offset 5, -32
 502              		.cfi_offset 6, -28
 503              		.cfi_offset 7, -24
 504              		.cfi_offset 8, -20
 505              		.cfi_offset 9, -16
 506              		.cfi_offset 10, -12
 507              		.cfi_offset 11, -8
ARM GAS  /tmp/ccGArWSQ.s 			page 10


 508              		.cfi_offset 14, -4
 509              		.loc 1 193 0
 510 0004 8A4C     		ldr	r4, .L61
 511 0006 2368     		ldr	r3, [r4]
 512 0008 40F6C312 		movw	r2, #2499
 513 000c 9342     		cmp	r3, r2
 514 000e 6EDC     		bgt	.L36
 515              		.loc 1 191 0
 516 0010 0126     		movs	r6, #1
 517              		.loc 1 190 0
 518 0012 3546     		mov	r5, r6
 519 0014 07E0     		b	.L53
 520              	.LVL56:
 521              	.L38:
 522              		.loc 1 286 0
 523 0016 0A20     		movs	r0, #10
 524 0018 FFF7FEFF 		bl	chThdSleep
 525              	.LVL57:
 526              		.loc 1 193 0
 527 001c 2368     		ldr	r3, [r4]
 528 001e 40F6C312 		movw	r2, #2499
 529 0022 9342     		cmp	r3, r2
 530 0024 63DC     		bgt	.L36
 531              	.LVL58:
 532              	.L53:
 533              		.loc 1 195 0
 534 0026 0B20     		movs	r0, #11
 535 0028 FFF7FEFF 		bl	accel_read_register
 536              	.LVL59:
 537 002c 00F04100 		and	r0, r0, #65
 538 0030 4128     		cmp	r0, #65
 539 0032 F0D1     		bne	.L38
 540              	.LBB28:
 541              		.loc 1 197 0
 542 0034 0E20     		movs	r0, #14
 543 0036 FFF7FEFF 		bl	accel_read_register
 544              	.LVL60:
 545 003a 8146     		mov	r9, r0
 546              	.LVL61:
 547              		.loc 1 198 0
 548 003c 0F20     		movs	r0, #15
 549              	.LVL62:
 550 003e FFF7FEFF 		bl	accel_read_register
 551              	.LVL63:
 552 0042 8346     		mov	fp, r0
 553              	.LVL64:
 554              		.loc 1 199 0
 555 0044 1020     		movs	r0, #16
 556              	.LVL65:
 557 0046 FFF7FEFF 		bl	accel_read_register
 558              	.LVL66:
 559 004a 8046     		mov	r8, r0
 560              	.LVL67:
 561              		.loc 1 200 0
 562 004c 1120     		movs	r0, #17
 563              	.LVL68:
 564 004e FFF7FEFF 		bl	accel_read_register
ARM GAS  /tmp/ccGArWSQ.s 			page 11


 565              	.LVL69:
 566 0052 8246     		mov	r10, r0
 567              	.LVL70:
 568              		.loc 1 201 0
 569 0054 1220     		movs	r0, #18
 570              	.LVL71:
 571 0056 FFF7FEFF 		bl	accel_read_register
 572              	.LVL72:
 573 005a 0746     		mov	r7, r0
 574              	.LVL73:
 575              		.loc 1 202 0
 576 005c 1320     		movs	r0, #19
 577              	.LVL74:
 578 005e FFF7FEFF 		bl	accel_read_register
 579              	.LVL75:
 580              		.loc 1 205 0
 581 0062 744B     		ldr	r3, .L61+4
 582 0064 0222     		movs	r2, #2
 583              		.loc 1 204 0
 584 0066 002D     		cmp	r5, #0
 585 0068 00F08C80 		beq	.L39
 586              		.loc 1 205 0
 587 006c 1A83     		strh	r2, [r3, #24]	@ movhi
 588              	.L40:
 589              		.loc 1 226 0
 590 006e 4FF09043 		mov	r3, #1207959552
 591              		.loc 1 217 0
 592 0072 0202     		lsls	r2, r0, #8
 593              		.loc 1 215 0
 594 0074 4FEA0B2B 		lsl	fp, fp, #8
 595              	.LVL76:
 596              		.loc 1 216 0
 597 0078 4FEA0A2A 		lsl	r10, r10, #8
 598              	.LVL77:
 599              		.loc 1 226 0
 600 007c 1B69     		ldr	r3, [r3, #16]
 601              		.loc 1 215 0
 602 007e 1FFA8BFB 		uxth	fp, fp
 603              		.loc 1 216 0
 604 0082 1FFA8AFA 		uxth	r10, r10
 605              		.loc 1 217 0
 606 0086 92B2     		uxth	r2, r2
 607              		.loc 1 221 0
 608 0088 1743     		orrs	r7, r7, r2
 609              	.LVL78:
 610              		.loc 1 219 0
 611 008a 4BEA0909 		orr	r9, fp, r9
 612              	.LVL79:
 613              		.loc 1 220 0
 614 008e 4AEA0808 		orr	r8, r10, r8
 615              	.LVL80:
 616              		.loc 1 226 0
 617 0092 5B07     		lsls	r3, r3, #29
 618              		.loc 1 221 0
 619 0094 B8B2     		uxth	r0, r7
 620              	.LVL81:
 621              		.loc 1 219 0
ARM GAS  /tmp/ccGArWSQ.s 			page 12


 622 0096 1FFA89F9 		uxth	r9, r9
 623              		.loc 1 220 0
 624 009a 1FFA88F8 		uxth	r8, r8
 625              		.loc 1 209 0
 626 009e 85F00105 		eor	r5, r5, #1
 627              	.LVL82:
 628              		.loc 1 227 0
 629 00a2 654F     		ldr	r7, .L61+8
 630              	.LVL83:
 631              		.loc 1 226 0
 632 00a4 25D4     		bmi	.L41
 633              		.loc 1 228 0
 634 00a6 6549     		ldr	r1, .L61+12
 635              		.loc 1 234 0
 636 00a8 DFF8A8C1 		ldr	ip, .L61+36
 637              		.loc 1 227 0
 638 00ac 0122     		movs	r2, #1
 639              		.loc 1 228 0
 640 00ae 4FF48073 		mov	r3, #256
 641              		.loc 1 227 0
 642 00b2 3A60     		str	r2, [r7]
 643              		.loc 1 228 0
 644 00b4 0B83     		strh	r3, [r1, #24]	@ movhi
 645              		.loc 1 234 0
 646 00b6 DCF80030 		ldr	r3, [ip]
 647              		.loc 1 235 0
 648 00ba 614A     		ldr	r2, .L61+16
 649              		.loc 1 234 0
 650 00bc 012B     		cmp	r3, #1
 651 00be 25D0     		beq	.L55
 652              	.L43:
 653              		.loc 1 240 0
 654 00c0 022B     		cmp	r3, #2
 655 00c2 61D0     		beq	.L56
 656              		.loc 1 246 0
 657 00c4 032B     		cmp	r3, #3
 658 00c6 71D0     		beq	.L46
 659 00c8 1168     		ldr	r1, [r2]
 660              	.L44:
 661              		.loc 1 253 0
 662 00ca 0131     		adds	r1, r1, #1
 663              		.loc 1 255 0
 664 00cc 1929     		cmp	r1, #25
 665              		.loc 1 253 0
 666 00ce 1160     		str	r1, [r2]
 667              		.loc 1 255 0
 668 00d0 31D0     		beq	.L57
 669              	.LVL84:
 670              	.L47:
 671              		.loc 1 283 0
 672 00d2 2368     		ldr	r3, [r4]
 673              		.loc 1 284 0
 674 00d4 40F6C412 		movw	r2, #2500
 675              		.loc 1 283 0
 676 00d8 0133     		adds	r3, r3, #1
 677              		.loc 1 284 0
 678 00da 9342     		cmp	r3, r2
ARM GAS  /tmp/ccGArWSQ.s 			page 13


 679              		.loc 1 283 0
 680 00dc 2360     		str	r3, [r4]
 681              		.loc 1 284 0
 682 00de 9AD1     		bne	.L38
 683              		.loc 1 284 0 is_stmt 0 discriminator 1
 684 00e0 DFF858C1 		ldr	ip, .L61+12
 685 00e4 4FF48063 		mov	r3, #1024
 686 00e8 ACF81830 		strh	r3, [ip, #24]	@ movhi
 687 00ec 93E7     		b	.L38
 688              	.LVL85:
 689              	.L36:
 690 00ee BDE8F88F 		pop	{r3, r4, r5, r6, r7, r8, r9, r10, fp, pc}
 691              	.LVL86:
 692              	.L41:
 693              		.loc 1 230 0 is_stmt 1
 694 00f2 0022     		movs	r2, #0
 695 00f4 3A60     		str	r2, [r7]
 696              		.loc 1 231 0
 697 00f6 514A     		ldr	r2, .L61+12
 698              		.loc 1 234 0
 699 00f8 DFF858C1 		ldr	ip, .L61+36
 700              		.loc 1 231 0
 701 00fc 4FF48073 		mov	r3, #256
 702 0100 5383     		strh	r3, [r2, #26]	@ movhi
 703              		.loc 1 234 0
 704 0102 DCF80030 		ldr	r3, [ip]
 705              		.loc 1 235 0
 706 0106 4E4A     		ldr	r2, .L61+16
 707              		.loc 1 234 0
 708 0108 012B     		cmp	r3, #1
 709 010a D9D1     		bne	.L43
 710              	.L55:
 711              		.loc 1 235 0
 712 010c 1168     		ldr	r1, [r2]
 713              		.loc 1 238 0
 714 010e DFF850E1 		ldr	lr, .L61+48
 715 0112 3F68     		ldr	r7, [r7]
 716 0114 0EF80170 		strb	r7, [lr, r1]
 717              		.loc 1 235 0
 718 0118 DFF848C1 		ldr	ip, .L61+52
 719              		.loc 1 236 0
 720 011c DFF848E1 		ldr	lr, .L61+56
 721              		.loc 1 237 0
 722 0120 484F     		ldr	r7, .L61+20
 723              		.loc 1 235 0
 724 0122 2CF81190 		strh	r9, [ip, r1, lsl #1]	@ movhi
 725              		.loc 1 236 0
 726 0126 2EF81180 		strh	r8, [lr, r1, lsl #1]	@ movhi
 727              		.loc 1 237 0
 728 012a 27F81100 		strh	r0, [r7, r1, lsl #1]	@ movhi
 729              		.loc 1 253 0
 730 012e 0131     		adds	r1, r1, #1
 731              		.loc 1 255 0
 732 0130 1929     		cmp	r1, #25
 733              		.loc 1 253 0
 734 0132 1160     		str	r1, [r2]
 735              		.loc 1 255 0
ARM GAS  /tmp/ccGArWSQ.s 			page 14


 736 0134 CDD1     		bne	.L47
 737              	.L57:
 738              		.loc 1 258 0
 739 0136 3F49     		ldr	r1, .L61+4
 740 0138 0420     		movs	r0, #4
 741              	.LVL87:
 742              		.loc 1 257 0
 743 013a 002E     		cmp	r6, #0
 744 013c 48D1     		bne	.L58
 745              		.loc 1 260 0
 746 013e 4883     		strh	r0, [r1, #26]	@ movhi
 747              		.loc 1 265 0
 748 0140 012B     		cmp	r3, #1
 749              		.loc 1 263 0
 750 0142 4FF00001 		mov	r1, #0
 751              		.loc 1 262 0
 752 0146 86F00106 		eor	r6, r6, #1
 753              	.LVL88:
 754              		.loc 1 263 0
 755 014a 1160     		str	r1, [r2]
 756              		.loc 1 265 0
 757 014c 48D0     		beq	.L59
 758              	.L50:
 759              		.loc 1 270 0
 760 014e 022B     		cmp	r3, #2
 761 0150 5BD0     		beq	.L60
 762              		.loc 1 275 0
 763 0152 032B     		cmp	r3, #3
 764 0154 BDD1     		bne	.L47
 765              		.loc 1 277 0
 766 0156 DFF8F8C0 		ldr	ip, .L61+32
 767              		.loc 1 278 0
 768 015a 3B48     		ldr	r0, .L61+24
 769              		.loc 1 277 0
 770 015c DCF80010 		ldr	r1, [ip]
 771 0160 3A4F     		ldr	r7, .L61+28
 772              		.loc 1 278 0
 773 0162 4A1C     		adds	r2, r1, #1
 774 0164 80FB02CE 		smull	ip, lr, r0, r2
 775 0168 D017     		asrs	r0, r2, #31
 776 016a C0EBAE00 		rsb	r0, r0, lr, asr #2
 777              		.loc 1 277 0
 778 016e 7B54     		strb	r3, [r7, r1]
 779              		.loc 1 278 0
 780 0170 00EB8000 		add	r0, r0, r0, lsl #2
 781 0174 3649     		ldr	r1, .L61+32
 782 0176 A2EB4002 		sub	r2, r2, r0, lsl #1
 783 017a 0A60     		str	r2, [r1]
 784              		.loc 1 276 0
 785 017c 354A     		ldr	r2, .L61+36
 786 017e 0123     		movs	r3, #1
 787 0180 1360     		str	r3, [r2]
 788 0182 A6E7     		b	.L47
 789              	.LVL89:
 790              	.L39:
 791              		.loc 1 207 0
 792 0184 5A83     		strh	r2, [r3, #26]	@ movhi
ARM GAS  /tmp/ccGArWSQ.s 			page 15


 793 0186 72E7     		b	.L40
 794              	.LVL90:
 795              	.L56:
 796              		.loc 1 241 0
 797 0188 1168     		ldr	r1, [r2]
 798              		.loc 1 244 0
 799 018a DFF8E0E0 		ldr	lr, .L61+60
 800 018e 3F68     		ldr	r7, [r7]
 801 0190 0EF80170 		strb	r7, [lr, r1]
 802              		.loc 1 241 0
 803 0194 DFF8D8C0 		ldr	ip, .L61+64
 804              		.loc 1 242 0
 805 0198 DFF8D8E0 		ldr	lr, .L61+68
 806              		.loc 1 243 0
 807 019c 2E4F     		ldr	r7, .L61+40
 808              		.loc 1 241 0
 809 019e 2CF81190 		strh	r9, [ip, r1, lsl #1]	@ movhi
 810              		.loc 1 242 0
 811 01a2 2EF81180 		strh	r8, [lr, r1, lsl #1]	@ movhi
 812              		.loc 1 243 0
 813 01a6 27F81100 		strh	r0, [r7, r1, lsl #1]	@ movhi
 814 01aa 8EE7     		b	.L44
 815              	.L46:
 816              		.loc 1 247 0
 817 01ac 1168     		ldr	r1, [r2]
 818              		.loc 1 250 0
 819 01ae DFF8C8E0 		ldr	lr, .L61+72
 820 01b2 3F68     		ldr	r7, [r7]
 821 01b4 0EF80170 		strb	r7, [lr, r1]
 822              		.loc 1 247 0
 823 01b8 DFF8C0C0 		ldr	ip, .L61+76
 824              		.loc 1 248 0
 825 01bc DFF8C0E0 		ldr	lr, .L61+80
 826              		.loc 1 249 0
 827 01c0 264F     		ldr	r7, .L61+44
 828              		.loc 1 247 0
 829 01c2 2CF81190 		strh	r9, [ip, r1, lsl #1]	@ movhi
 830              		.loc 1 248 0
 831 01c6 2EF81180 		strh	r8, [lr, r1, lsl #1]	@ movhi
 832              		.loc 1 249 0
 833 01ca 27F81100 		strh	r0, [r7, r1, lsl #1]	@ movhi
 834 01ce 7CE7     		b	.L44
 835              	.LVL91:
 836              	.L58:
 837              		.loc 1 258 0
 838 01d0 0883     		strh	r0, [r1, #24]	@ movhi
 839              		.loc 1 265 0
 840 01d2 012B     		cmp	r3, #1
 841              		.loc 1 263 0
 842 01d4 4FF00001 		mov	r1, #0
 843              		.loc 1 262 0
 844 01d8 86F00106 		eor	r6, r6, #1
 845              	.LVL92:
 846              		.loc 1 263 0
 847 01dc 1160     		str	r1, [r2]
 848              		.loc 1 265 0
 849 01de B6D1     		bne	.L50
ARM GAS  /tmp/ccGArWSQ.s 			page 16


 850              	.L59:
 851              		.loc 1 267 0
 852 01e0 1B4A     		ldr	r2, .L61+32
 853              		.loc 1 268 0
 854 01e2 1948     		ldr	r0, .L61+24
 855              		.loc 1 267 0
 856 01e4 1168     		ldr	r1, [r2]
 857 01e6 194F     		ldr	r7, .L61+28
 858              		.loc 1 268 0
 859 01e8 4A1C     		adds	r2, r1, #1
 860 01ea 80FB02CE 		smull	ip, lr, r0, r2
 861 01ee D017     		asrs	r0, r2, #31
 862 01f0 C0EBAE00 		rsb	r0, r0, lr, asr #2
 863 01f4 00EB8000 		add	r0, r0, r0, lsl #2
 864 01f8 A2EB4002 		sub	r2, r2, r0, lsl #1
 865              		.loc 1 266 0
 866 01fc 0220     		movs	r0, #2
 867              	.L54:
 868              		.loc 1 272 0
 869 01fe 7B54     		strb	r3, [r7, r1]
 870              		.loc 1 273 0
 871 0200 1349     		ldr	r1, .L61+32
 872 0202 0A60     		str	r2, [r1]
 873              		.loc 1 271 0
 874 0204 134A     		ldr	r2, .L61+36
 875 0206 1060     		str	r0, [r2]
 876 0208 63E7     		b	.L47
 877              	.L60:
 878              		.loc 1 272 0
 879 020a DFF844C0 		ldr	ip, .L61+32
 880              		.loc 1 273 0
 881 020e 0E48     		ldr	r0, .L61+24
 882              		.loc 1 272 0
 883 0210 DCF80010 		ldr	r1, [ip]
 884 0214 0D4F     		ldr	r7, .L61+28
 885              		.loc 1 273 0
 886 0216 4A1C     		adds	r2, r1, #1
 887 0218 80FB02CE 		smull	ip, lr, r0, r2
 888 021c D017     		asrs	r0, r2, #31
 889 021e C0EBAE00 		rsb	r0, r0, lr, asr #2
 890 0222 00EB8000 		add	r0, r0, r0, lsl #2
 891 0226 A2EB4002 		sub	r2, r2, r0, lsl #1
 892              		.loc 1 271 0
 893 022a 0320     		movs	r0, #3
 894 022c E7E7     		b	.L54
 895              	.L62:
 896 022e 00BF     		.align	2
 897              	.L61:
 898 0230 00000000 		.word	.LANCHOR10
 899 0234 00040048 		.word	1207960576
 900 0238 00000000 		.word	.LANCHOR11
 901 023c 00100048 		.word	1207963648
 902 0240 00000000 		.word	.LANCHOR13
 903 0244 00000000 		.word	.LANCHOR2
 904 0248 67666666 		.word	1717986919
 905 024c 00000000 		.word	.LANCHOR24
 906 0250 00000000 		.word	.LANCHOR23
ARM GAS  /tmp/ccGArWSQ.s 			page 17


 907 0254 00000000 		.word	.LANCHOR12
 908 0258 00000000 		.word	.LANCHOR17
 909 025c 00000000 		.word	.LANCHOR21
 910 0260 00000000 		.word	.LANCHOR14
 911 0264 00000000 		.word	.LANCHOR0
 912 0268 00000000 		.word	.LANCHOR1
 913 026c 00000000 		.word	.LANCHOR18
 914 0270 00000000 		.word	.LANCHOR15
 915 0274 00000000 		.word	.LANCHOR16
 916 0278 00000000 		.word	.LANCHOR22
 917 027c 00000000 		.word	.LANCHOR19
 918 0280 00000000 		.word	.LANCHOR20
 919              	.LBE28:
 920              		.cfi_endproc
 921              	.LFE276:
 922              		.size	readThread, .-readThread
 923 0284 AFF30080 		.section	.text.accel_write_register,"ax",%progbits
 923      AFF30080 
 923      AFF30080 
 924              		.align	2
 925              		.p2align 4,,15
 926              		.global	accel_write_register
 927              		.thumb
 928              		.thumb_func
 929              		.type	accel_write_register, %function
 930              	accel_write_register:
 931              	.LFB274:
 932              		.loc 1 161 0
 933              		.cfi_startproc
 934              		@ args = 0, pretend = 0, frame = 16
 935              		@ frame_needed = 0, uses_anonymous_args = 0
 936              	.LVL93:
 937 0000 30B5     		push	{r4, r5, lr}
 938              		.cfi_def_cfa_offset 12
 939              		.cfi_offset 4, -12
 940              		.cfi_offset 5, -8
 941              		.cfi_offset 14, -4
 942 0002 85B0     		sub	sp, sp, #20
 943              		.cfi_def_cfa_offset 32
 944              		.loc 1 165 0
 945 0004 124C     		ldr	r4, .L64
 946              		.loc 1 161 0
 947 0006 8DF80700 		strb	r0, [sp, #7]
 948              		.loc 1 162 0
 949 000a 04AD     		add	r5, sp, #16
 950 000c 0A23     		movs	r3, #10
 951 000e 05F8013D 		strb	r3, [r5, #-1]!
 952              		.loc 1 161 0
 953 0012 8DF80610 		strb	r1, [sp, #6]
 954              		.loc 1 165 0
 955 0016 2046     		mov	r0, r4
 956              	.LVL94:
 957 0018 0E49     		ldr	r1, .L64+4
 958              	.LVL95:
 959 001a FFF7FEFF 		bl	spiStart
 960              	.LVL96:
 961              		.loc 1 166 0
ARM GAS  /tmp/ccGArWSQ.s 			page 18


 962 001e 2046     		mov	r0, r4
 963 0020 FFF7FEFF 		bl	spiSelect
 964              	.LVL97:
 965              		.loc 1 167 0
 966 0024 2046     		mov	r0, r4
 967 0026 2A46     		mov	r2, r5
 968 0028 0121     		movs	r1, #1
 969 002a FFF7FEFF 		bl	spiSend
 970              	.LVL98:
 971              		.loc 1 168 0
 972 002e 2046     		mov	r0, r4
 973 0030 0DF10702 		add	r2, sp, #7
 974              	.LVL99:
 975 0034 0121     		movs	r1, #1
 976 0036 FFF7FEFF 		bl	spiSend
 977              	.LVL100:
 978              		.loc 1 169 0
 979 003a 2046     		mov	r0, r4
 980 003c 0121     		movs	r1, #1
 981 003e 0DF10602 		add	r2, sp, #6
 982              	.LVL101:
 983 0042 FFF7FEFF 		bl	spiSend
 984              	.LVL102:
 985              		.loc 1 170 0
 986 0046 2046     		mov	r0, r4
 987 0048 FFF7FEFF 		bl	spiUnselect
 988              	.LVL103:
 989              		.loc 1 172 0
 990 004c 05B0     		add	sp, sp, #20
 991              		@ sp needed
 992 004e 30BD     		pop	{r4, r5, pc}
 993              	.LVL104:
 994              	.L65:
 995              		.align	2
 996              	.L64:
 997 0050 00000000 		.word	SPID1
 998 0054 00000000 		.word	.LANCHOR9
 999              		.cfi_endproc
 1000              	.LFE274:
 1001              		.size	accel_write_register, .-accel_write_register
 1002 0058 AFF30080 		.section	.text.die,"ax",%progbits
 1002      AFF30080 
 1003              		.align	2
 1004              		.p2align 4,,15
 1005              		.global	die
 1006              		.thumb
 1007              		.thumb_func
 1008              		.type	die, %function
 1009              	die:
 1010              	.LFB278:
 1011              		.loc 1 344 0
 1012              		.cfi_startproc
 1013              		@ args = 0, pretend = 0, frame = 0
 1014              		@ frame_needed = 0, uses_anonymous_args = 0
 1015              		@ link register save eliminated.
 1016              	.LVL105:
 1017              		.loc 1 344 0
ARM GAS  /tmp/ccGArWSQ.s 			page 19


 1018 0000 0246     		mov	r2, r0
 1019              		.loc 1 345 0
 1020 0002 0249     		ldr	r1, .L67
 1021 0004 0248     		ldr	r0, .L67+4
 1022              	.LVL106:
 1023 0006 FFF7FEBF 		b	chprintf
 1024              	.LVL107:
 1025              	.L68:
 1026 000a 00BF     		.align	2
 1027              	.L67:
 1028 000c 18000000 		.word	.LC4
 1029 0010 00000000 		.word	SD1
 1030              		.cfi_endproc
 1031              	.LFE278:
 1032              		.size	die, .-die
 1033 0014 AFF30080 		.section	.text.appendToCard,"ax",%progbits
 1033      AFF30080 
 1033      AFF30080 
 1034              		.align	2
 1035              		.p2align 4,,15
 1036              		.global	appendToCard
 1037              		.thumb
 1038              		.thumb_func
 1039              		.type	appendToCard, %function
 1040              	appendToCard:
 1041              	.LFB279:
 1042              		.loc 1 348 0
 1043              		.cfi_startproc
 1044              		@ args = 0, pretend = 0, frame = 8
 1045              		@ frame_needed = 0, uses_anonymous_args = 0
 1046              	.LVL108:
 1047 0000 F0B5     		push	{r4, r5, r6, r7, lr}
 1048              		.cfi_def_cfa_offset 20
 1049              		.cfi_offset 4, -20
 1050              		.cfi_offset 5, -16
 1051              		.cfi_offset 6, -12
 1052              		.cfi_offset 7, -8
 1053              		.cfi_offset 14, -4
 1054 0002 0D46     		mov	r5, r1
 1055 0004 83B0     		sub	sp, sp, #12
 1056              		.cfi_def_cfa_offset 32
 1057              		.loc 1 348 0
 1058 0006 0446     		mov	r4, r0
 1059              		.loc 1 354 0
 1060 0008 1F48     		ldr	r0, .L84
 1061              	.LVL109:
 1062              		.loc 1 348 0
 1063 000a 1746     		mov	r7, r2
 1064 000c 1E46     		mov	r6, r3
 1065              		.loc 1 354 0
 1066 000e FFF7FEFF 		bl	chMtxLock
 1067              	.LVL110:
 1068              		.loc 1 356 0
 1069 0012 2946     		mov	r1, r5
 1070 0014 2046     		mov	r0, r4
 1071 0016 1222     		movs	r2, #18
 1072 0018 FFF7FEFF 		bl	f_open
ARM GAS  /tmp/ccGArWSQ.s 			page 20


 1073              	.LVL111:
 1074              		.loc 1 358 0
 1075 001c 0546     		mov	r5, r0
 1076              	.LVL112:
 1077              		.loc 1 357 0
 1078 001e 0028     		cmp	r0, #0
 1079 0020 2BD1     		bne	.L82
 1080              	.LVL113:
 1081              	.L70:
 1082              		.loc 1 363 0
 1083 0022 2046     		mov	r0, r4
 1084 0024 E168     		ldr	r1, [r4, #12]
 1085 0026 FFF7FEFF 		bl	f_lseek
 1086              	.LVL114:
 1087              		.loc 1 364 0
 1088 002a F8B9     		cbnz	r0, .L83
 1089              	.LVL115:
 1090              	.L71:
 1091              		.loc 1 370 0
 1092 002c 3946     		mov	r1, r7
 1093 002e 3246     		mov	r2, r6
 1094 0030 2046     		mov	r0, r4
 1095 0032 01AB     		add	r3, sp, #4
 1096 0034 FFF7FEFF 		bl	f_write
 1097              	.LVL116:
 1098              		.loc 1 372 0
 1099 0038 88B9     		cbnz	r0, .L72
 1100              		.loc 1 372 0 is_stmt 0 discriminator 1
 1101 003a 019B     		ldr	r3, [sp, #4]
 1102 003c 7BB1     		cbz	r3, .L72
 1103              	.LVL117:
 1104              	.L73:
 1105              		.loc 1 377 0 is_stmt 1
 1106 003e 2046     		mov	r0, r4
 1107 0040 FFF7FEFF 		bl	f_close
 1108              	.LVL118:
 1109              		.loc 1 378 0
 1110 0044 28B1     		cbz	r0, .L74
 1111              		.loc 1 379 0
 1112 0046 0546     		mov	r5, r0
 1113              	.LVL119:
 1114              	.LBB29:
 1115              	.LBB30:
 1116              		.loc 1 345 0
 1117 0048 0246     		mov	r2, r0
 1118 004a 1049     		ldr	r1, .L84+4
 1119 004c 1048     		ldr	r0, .L84+8
 1120              	.LVL120:
 1121 004e FFF7FEFF 		bl	chprintf
 1122              	.LVL121:
 1123              	.L74:
 1124              	.LBE30:
 1125              	.LBE29:
 1126              		.loc 1 382 0
 1127 0052 0D48     		ldr	r0, .L84
 1128 0054 FFF7FEFF 		bl	chMtxUnlock
 1129              	.LVL122:
ARM GAS  /tmp/ccGArWSQ.s 			page 21


 1130              		.loc 1 384 0
 1131 0058 2846     		mov	r0, r5
 1132 005a 03B0     		add	sp, sp, #12
 1133              		@ sp needed
 1134 005c F0BD     		pop	{r4, r5, r6, r7, pc}
 1135              	.LVL123:
 1136              	.L72:
 1137              		.loc 1 373 0
 1138 005e 0546     		mov	r5, r0
 1139              	.LVL124:
 1140              	.LBB31:
 1141              	.LBB32:
 1142              		.loc 1 345 0
 1143 0060 0246     		mov	r2, r0
 1144 0062 0A49     		ldr	r1, .L84+4
 1145 0064 0A48     		ldr	r0, .L84+8
 1146              	.LVL125:
 1147 0066 FFF7FEFF 		bl	chprintf
 1148              	.LVL126:
 1149 006a E8E7     		b	.L73
 1150              	.LVL127:
 1151              	.L83:
 1152              	.LBE32:
 1153              	.LBE31:
 1154              		.loc 1 365 0
 1155 006c 0546     		mov	r5, r0
 1156              	.LVL128:
 1157              	.LBB33:
 1158              	.LBB34:
 1159              		.loc 1 345 0
 1160 006e 0246     		mov	r2, r0
 1161 0070 0649     		ldr	r1, .L84+4
 1162 0072 0748     		ldr	r0, .L84+8
 1163              	.LVL129:
 1164 0074 FFF7FEFF 		bl	chprintf
 1165              	.LVL130:
 1166 0078 D8E7     		b	.L71
 1167              	.LVL131:
 1168              	.L82:
 1169              	.LBE34:
 1170              	.LBE33:
 1171              	.LBB35:
 1172              	.LBB36:
 1173 007a 0246     		mov	r2, r0
 1174 007c 0349     		ldr	r1, .L84+4
 1175 007e 0448     		ldr	r0, .L84+8
 1176              	.LVL132:
 1177 0080 FFF7FEFF 		bl	chprintf
 1178              	.LVL133:
 1179 0084 CDE7     		b	.L70
 1180              	.L85:
 1181 0086 00BF     		.align	2
 1182              	.L84:
 1183 0088 00000000 		.word	.LANCHOR8
 1184 008c 18000000 		.word	.LC4
 1185 0090 00000000 		.word	SD1
 1186              	.LBE36:
ARM GAS  /tmp/ccGArWSQ.s 			page 22


 1187              	.LBE35:
 1188              		.cfi_endproc
 1189              	.LFE279:
 1190              		.size	appendToCard, .-appendToCard
 1191 0094 AFF30080 		.section	.text.writeThread,"ax",%progbits
 1191      AFF30080 
 1191      AFF30080 
 1192              		.align	2
 1193              		.p2align 4,,15
 1194              		.thumb
 1195              		.thumb_func
 1196              		.type	writeThread, %function
 1197              	writeThread:
 1198              	.LFB277:
 1199              		.loc 1 293 0
 1200              		.cfi_startproc
 1201              		@ args = 0, pretend = 0, frame = 8
 1202              		@ frame_needed = 0, uses_anonymous_args = 0
 1203              	.LVL134:
 1204 0000 2DE9F04F 		push	{r4, r5, r6, r7, r8, r9, r10, fp, lr}
 1205              		.cfi_def_cfa_offset 36
 1206              		.cfi_offset 4, -36
 1207              		.cfi_offset 5, -32
 1208              		.cfi_offset 6, -28
 1209              		.cfi_offset 7, -24
 1210              		.cfi_offset 8, -20
 1211              		.cfi_offset 9, -16
 1212              		.cfi_offset 10, -12
 1213              		.cfi_offset 11, -8
 1214              		.cfi_offset 14, -4
 1215              		.loc 1 294 0
 1216 0004 3148     		ldr	r0, .L95
 1217              	.LVL135:
 1218 0006 3249     		ldr	r1, .L95+4
 1219 0008 DFF80C91 		ldr	r9, .L95+76
 1220 000c DFF80CB1 		ldr	fp, .L95+80
 1221              		.loc 1 293 0
 1222 0010 85B0     		sub	sp, sp, #20
 1223              		.cfi_def_cfa_offset 56
 1224              		.loc 1 294 0
 1225 0012 0022     		movs	r2, #0
 1226 0014 FFF7FEFF 		bl	f_mount
 1227              	.LVL136:
 1228 0018 2E4B     		ldr	r3, .L95+8
 1229 001a 1870     		strb	r0, [r3]
 1230              	.LVL137:
 1231              	.L91:
 1232              		.loc 1 301 0
 1233 001c D9F80030 		ldr	r3, [r9]
 1234 0020 DBF80020 		ldr	r2, [fp]
 1235 0024 9A42     		cmp	r2, r3
 1236 0026 3ED0     		beq	.L87
 1237              	.LBB37:
 1238              		.loc 1 308 0
 1239 0028 2B4A     		ldr	r2, .L95+12
 1240 002a D35C     		ldrb	r3, [r2, r3]	@ zero_extendqisi2
 1241 002c 012B     		cmp	r3, #1
ARM GAS  /tmp/ccGArWSQ.s 			page 23


 1242 002e 45D0     		beq	.L92
 1243              		.loc 1 314 0
 1244 0030 022B     		cmp	r3, #2
 1245 0032 3CD0     		beq	.L93
 1246              		.loc 1 320 0
 1247 0034 032B     		cmp	r3, #3
 1248 0036 05D1     		bne	.L88
 1249              		.loc 1 324 0
 1250 0038 284B     		ldr	r3, .L95+16
 1251              		.loc 1 323 0
 1252 003a DFF8E480 		ldr	r8, .L95+84
 1253              	.LVL138:
 1254              		.loc 1 322 0
 1255 003e 284F     		ldr	r7, .L95+20
 1256              	.LVL139:
 1257              		.loc 1 321 0
 1258 0040 284E     		ldr	r6, .L95+24
 1259              	.LVL140:
 1260              		.loc 1 324 0
 1261 0042 0393     		str	r3, [sp, #12]
 1262              	.LVL141:
 1263              	.L88:
 1264 0044 039A     		ldr	r2, [sp, #12]
 1265              		.loc 1 327 0
 1266 0046 284D     		ldr	r5, .L95+28
 1267 0048 02F1FF3A 		add	r10, r2, #-1
 1268              		.loc 1 309 0
 1269 004c 0024     		movs	r4, #0
 1270              	.LVL142:
 1271              	.L90:
 1272              	.LBB38:
 1273              		.loc 1 330 0 discriminator 2
 1274 004e 38F90410 		ldrsh	r1, [r8, r4]
 1275 0052 325F     		ldrsh	r2, [r6, r4]
 1276 0054 3B5F     		ldrsh	r3, [r7, r4]
 1277 0056 0091     		str	r1, [sp]
 1278 0058 1AF9011F 		ldrsb	r1, [r10, #1]!
 1279 005c 0191     		str	r1, [sp, #4]
 1280 005e 2846     		mov	r0, r5
 1281 0060 2249     		ldr	r1, .L95+32
 1282 0062 FFF7FEFF 		bl	sprintf
 1283              	.LVL143:
 1284 0066 0234     		adds	r4, r4, #2
 1285              	.LBE38:
 1286              		.loc 1 329 0 discriminator 2
 1287 0068 322C     		cmp	r4, #50
 1288              	.LBB39:
 1289              		.loc 1 331 0 discriminator 2
 1290 006a 0544     		add	r5, r5, r0
 1291              	.LVL144:
 1292              	.LBE39:
 1293              		.loc 1 329 0 discriminator 2
 1294 006c EFD1     		bne	.L90
 1295              		.loc 1 335 0
 1296 006e 1E4A     		ldr	r2, .L95+28
 1297 0070 1F49     		ldr	r1, .L95+36
 1298 0072 2048     		ldr	r0, .L95+40
ARM GAS  /tmp/ccGArWSQ.s 			page 24


 1299              	.LVL145:
 1300 0074 AB1A     		subs	r3, r5, r2
 1301              		.loc 1 334 0
 1302 0076 204A     		ldr	r2, .L95+44
 1303 0078 4FF48064 		mov	r4, #1024
 1304 007c 1483     		strh	r4, [r2, #24]	@ movhi
 1305              	.LVL146:
 1306              		.loc 1 335 0
 1307 007e 1A4A     		ldr	r2, .L95+28
 1308 0080 FFF7FEFF 		bl	appendToCard
 1309              	.LVL147:
 1310              		.loc 1 337 0
 1311 0084 1C4B     		ldr	r3, .L95+44
 1312              		.loc 1 338 0
 1313 0086 1D49     		ldr	r1, .L95+48
 1314              		.loc 1 337 0
 1315 0088 5C83     		strh	r4, [r3, #26]	@ movhi
 1316              		.loc 1 338 0
 1317 008a D9F80030 		ldr	r3, [r9]
 1318 008e 0133     		adds	r3, r3, #1
 1319 0090 81FB0321 		smull	r2, r1, r1, r3
 1320 0094 DA17     		asrs	r2, r3, #31
 1321 0096 C2EBA102 		rsb	r2, r2, r1, asr #2
 1322 009a 02EB8202 		add	r2, r2, r2, lsl #2
 1323 009e A3EB4203 		sub	r3, r3, r2, lsl #1
 1324 00a2 C9F80030 		str	r3, [r9]
 1325              	.LVL148:
 1326              	.L87:
 1327              	.LBE37:
 1328              		.loc 1 340 0
 1329 00a6 0A20     		movs	r0, #10
 1330 00a8 FFF7FEFF 		bl	chThdSleep
 1331              	.LVL149:
 1332              		.loc 1 341 0
 1333 00ac B6E7     		b	.L91
 1334              	.L93:
 1335              	.LBB40:
 1336              		.loc 1 318 0
 1337 00ae 144A     		ldr	r2, .L95+52
 1338 00b0 0392     		str	r2, [sp, #12]
 1339              	.LVL150:
 1340              		.loc 1 317 0
 1341 00b2 DFF87080 		ldr	r8, .L95+88
 1342              	.LVL151:
 1343              		.loc 1 316 0
 1344 00b6 134F     		ldr	r7, .L95+56
 1345              	.LVL152:
 1346              		.loc 1 315 0
 1347 00b8 134E     		ldr	r6, .L95+60
 1348              	.LVL153:
 1349 00ba C3E7     		b	.L88
 1350              	.LVL154:
 1351              	.L92:
 1352              		.loc 1 312 0
 1353 00bc 134B     		ldr	r3, .L95+64
 1354 00be 0393     		str	r3, [sp, #12]
 1355              	.LVL155:
ARM GAS  /tmp/ccGArWSQ.s 			page 25


 1356              		.loc 1 311 0
 1357 00c0 DFF86480 		ldr	r8, .L95+92
 1358              	.LVL156:
 1359              		.loc 1 310 0
 1360 00c4 124F     		ldr	r7, .L95+68
 1361              	.LVL157:
 1362              		.loc 1 309 0
 1363 00c6 134E     		ldr	r6, .L95+72
 1364              	.LVL158:
 1365 00c8 BCE7     		b	.L88
 1366              	.L96:
 1367 00ca 00BF     		.align	2
 1368              	.L95:
 1369 00cc 00000000 		.word	.LANCHOR3
 1370 00d0 14000000 		.word	.LC3
 1371 00d4 00000000 		.word	.LANCHOR4
 1372 00d8 00000000 		.word	.LANCHOR24
 1373 00dc 00000000 		.word	.LANCHOR22
 1374 00e0 00000000 		.word	.LANCHOR20
 1375 00e4 00000000 		.word	.LANCHOR19
 1376 00e8 00000000 		.word	.LANCHOR25
 1377 00ec 68000000 		.word	.LC7
 1378 00f0 7C000000 		.word	.LC8
 1379 00f4 00000000 		.word	.LANCHOR27
 1380 00f8 00100048 		.word	1207963648
 1381 00fc 67666666 		.word	1717986919
 1382 0100 00000000 		.word	.LANCHOR18
 1383 0104 00000000 		.word	.LANCHOR16
 1384 0108 00000000 		.word	.LANCHOR15
 1385 010c 00000000 		.word	.LANCHOR14
 1386 0110 00000000 		.word	.LANCHOR1
 1387 0114 00000000 		.word	.LANCHOR0
 1388 0118 00000000 		.word	.LANCHOR26
 1389 011c 00000000 		.word	.LANCHOR23
 1390 0120 00000000 		.word	.LANCHOR21
 1391 0124 00000000 		.word	.LANCHOR17
 1392 0128 00000000 		.word	.LANCHOR2
 1393              	.LBE40:
 1394              		.cfi_endproc
 1395              	.LFE277:
 1396              		.size	writeThread, .-writeThread
 1397 012c AFF30080 		.section	.text.initSDcard,"ax",%progbits
 1398              		.align	2
 1399              		.p2align 4,,15
 1400              		.global	initSDcard
 1401              		.thumb
 1402              		.thumb_func
 1403              		.type	initSDcard, %function
 1404              	initSDcard:
 1405              	.LFB280:
 1406              		.loc 1 409 0
 1407              		.cfi_startproc
 1408              		@ args = 0, pretend = 0, frame = 0
 1409              		@ frame_needed = 0, uses_anonymous_args = 0
 1410 0000 08B5     		push	{r3, lr}
 1411              		.cfi_def_cfa_offset 8
 1412              		.cfi_offset 3, -8
ARM GAS  /tmp/ccGArWSQ.s 			page 26


 1413              		.cfi_offset 14, -4
 1414              		.loc 1 410 0
 1415 0002 0C48     		ldr	r0, .L100
 1416 0004 FFF7FEFF 		bl	init_mmc
 1417              	.LVL159:
 1418              		.loc 1 411 0
 1419 0008 0B48     		ldr	r0, .L100+4
 1420 000a 0C49     		ldr	r1, .L100+8
 1421 000c FFF7FEFF 		bl	chprintf
 1422              	.LVL160:
 1423              		.loc 1 413 0
 1424 0010 0B4B     		ldr	r3, .L100+12
 1425              		.loc 1 414 0
 1426 0012 0948     		ldr	r0, .L100+4
 1427              		.loc 1 413 0
 1428 0014 1B69     		ldr	r3, [r3, #16]
 1429 0016 9B05     		lsls	r3, r3, #22
 1430 0018 04D4     		bmi	.L99
 1431              		.loc 1 417 0
 1432 001a 0A49     		ldr	r1, .L100+16
 1433              		.loc 1 421 0
 1434 001c BDE80840 		pop	{r3, lr}
 1435              		.loc 1 417 0
 1436 0020 FFF7FEBF 		b	chprintf
 1437              	.LVL161:
 1438              	.L99:
 1439              		.loc 1 414 0
 1440 0024 0849     		ldr	r1, .L100+20
 1441 0026 FFF7FEFF 		bl	chprintf
 1442              	.LVL162:
 1443              		.loc 1 415 0
 1444 002a 0248     		ldr	r0, .L100
 1445              		.loc 1 421 0
 1446 002c BDE80840 		pop	{r3, lr}
 1447              		.loc 1 415 0
 1448 0030 FFF7FEBF 		b	mmcConnect
 1449              	.LVL163:
 1450              	.L101:
 1451              		.align	2
 1452              	.L100:
 1453 0034 00000000 		.word	.LANCHOR28
 1454 0038 00000000 		.word	SD1
 1455 003c 8C000000 		.word	.LC9
 1456 0040 000C0048 		.word	1207962624
 1457 0044 B8000000 		.word	.LC11
 1458 0048 A4000000 		.word	.LC10
 1459              		.cfi_endproc
 1460              	.LFE280:
 1461              		.size	initSDcard, .-initSDcard
 1462 004c AFF30080 		.section	.text.writeToSD,"ax",%progbits
 1463              		.align	2
 1464              		.p2align 4,,15
 1465              		.global	writeToSD
 1466              		.thumb
 1467              		.thumb_func
 1468              		.type	writeToSD, %function
 1469              	writeToSD:
ARM GAS  /tmp/ccGArWSQ.s 			page 27


 1470              	.LFB285:
 1471              		.loc 1 539 0
 1472              		.cfi_startproc
 1473              		@ args = 0, pretend = 0, frame = 32
 1474              		@ frame_needed = 0, uses_anonymous_args = 0
 1475              	.LVL164:
 1476 0000 2DE9F041 		push	{r4, r5, r6, r7, r8, lr}
 1477              		.cfi_def_cfa_offset 24
 1478              		.cfi_offset 4, -24
 1479              		.cfi_offset 5, -20
 1480              		.cfi_offset 6, -16
 1481              		.cfi_offset 7, -12
 1482              		.cfi_offset 8, -8
 1483              		.cfi_offset 14, -4
 1484              		.loc 1 545 0
 1485 0004 314B     		ldr	r3, .L123
 1486 0006 1B68     		ldr	r3, [r3]
 1487 0008 012B     		cmp	r3, #1
 1488              		.loc 1 539 0
 1489 000a 8AB0     		sub	sp, sp, #40
 1490              		.cfi_def_cfa_offset 64
 1491              		.loc 1 545 0
 1492 000c 2BD0     		beq	.L119
 1493              		.loc 1 556 0
 1494 000e 022B     		cmp	r3, #2
 1495 0010 02D0     		beq	.L120
 1496              		.loc 1 566 0
 1497 0012 0AB0     		add	sp, sp, #40
 1498              		@ sp needed
 1499 0014 BDE8F081 		pop	{r4, r5, r6, r7, r8, pc}
 1500              	.L120:
 1501              		.loc 1 557 0
 1502 0018 2D48     		ldr	r0, .L123+4
 1503 001a 2E49     		ldr	r1, .L123+8
 1504 001c 0022     		movs	r2, #0
 1505 001e FFF7FEFF 		bl	f_mount
 1506              	.LVL165:
 1507 0022 2D4B     		ldr	r3, .L123+12
 1508 0024 1870     		strb	r0, [r3]
 1509              		.loc 1 559 0
 1510 0026 0028     		cmp	r0, #0
 1511 0028 43D1     		bne	.L121
 1512              	.L108:
 1513 002a DFF8D480 		ldr	r8, .L123+52
 1514 002e 2B4F     		ldr	r7, .L123+16
 1515 0030 2B4E     		ldr	r6, .L123+20
 1516              		.loc 1 539 0 discriminator 1
 1517 0032 0024     		movs	r4, #0
 1518 0034 03AD     		add	r5, sp, #12
 1519              	.LVL166:
 1520              	.L109:
 1521              		.loc 1 562 0 discriminator 2
 1522 0036 315F     		ldrsh	r1, [r6, r4]
 1523 0038 38F90420 		ldrsh	r2, [r8, r4]
 1524 003c 3B5F     		ldrsh	r3, [r7, r4]
 1525 003e 0091     		str	r1, [sp]
 1526 0040 2846     		mov	r0, r5
ARM GAS  /tmp/ccGArWSQ.s 			page 28


 1527 0042 2849     		ldr	r1, .L123+24
 1528 0044 FFF7FEFF 		bl	sprintf
 1529              	.LVL167:
 1530              		.loc 1 563 0 discriminator 2
 1531 0048 2846     		mov	r0, r5
 1532 004a FFF7FEFF 		bl	strlen
 1533              	.LVL168:
 1534 004e 0234     		adds	r4, r4, #2
 1535 0050 0346     		mov	r3, r0
 1536 0052 2549     		ldr	r1, .L123+28
 1537 0054 2548     		ldr	r0, .L123+32
 1538 0056 2A46     		mov	r2, r5
 1539 0058 FFF7FEFF 		bl	appendToCard
 1540              	.LVL169:
 1541              		.loc 1 561 0 discriminator 2
 1542 005c 322C     		cmp	r4, #50
 1543 005e EAD1     		bne	.L109
 1544              		.loc 1 566 0
 1545 0060 0AB0     		add	sp, sp, #40
 1546              		@ sp needed
 1547 0062 BDE8F081 		pop	{r4, r5, r6, r7, r8, pc}
 1548              	.LVL170:
 1549              	.L119:
 1550              		.loc 1 547 0
 1551 0066 1A48     		ldr	r0, .L123+4
 1552 0068 1A49     		ldr	r1, .L123+8
 1553 006a 0022     		movs	r2, #0
 1554 006c FFF7FEFF 		bl	f_mount
 1555              	.LVL171:
 1556 0070 194B     		ldr	r3, .L123+12
 1557 0072 1870     		strb	r0, [r3]
 1558              		.loc 1 549 0
 1559 0074 18BB     		cbnz	r0, .L122
 1560              	.L104:
 1561 0076 DFF88C80 		ldr	r8, .L123+56
 1562 007a 1D4F     		ldr	r7, .L123+36
 1563 007c 1D4E     		ldr	r6, .L123+40
 1564              		.loc 1 539 0 discriminator 1
 1565 007e 0024     		movs	r4, #0
 1566 0080 03AD     		add	r5, sp, #12
 1567              	.LVL172:
 1568              	.L106:
 1569              		.loc 1 552 0 discriminator 2
 1570 0082 315F     		ldrsh	r1, [r6, r4]
 1571 0084 38F90420 		ldrsh	r2, [r8, r4]
 1572 0088 3B5F     		ldrsh	r3, [r7, r4]
 1573 008a 0091     		str	r1, [sp]
 1574 008c 2846     		mov	r0, r5
 1575 008e 1549     		ldr	r1, .L123+24
 1576 0090 FFF7FEFF 		bl	sprintf
 1577              	.LVL173:
 1578              		.loc 1 553 0 discriminator 2
 1579 0094 2846     		mov	r0, r5
 1580 0096 FFF7FEFF 		bl	strlen
 1581              	.LVL174:
 1582 009a 0234     		adds	r4, r4, #2
 1583 009c 0346     		mov	r3, r0
ARM GAS  /tmp/ccGArWSQ.s 			page 29


 1584 009e 1249     		ldr	r1, .L123+28
 1585 00a0 1248     		ldr	r0, .L123+32
 1586 00a2 2A46     		mov	r2, r5
 1587 00a4 FFF7FEFF 		bl	appendToCard
 1588              	.LVL175:
 1589              		.loc 1 551 0 discriminator 2
 1590 00a8 322C     		cmp	r4, #50
 1591 00aa EAD1     		bne	.L106
 1592              		.loc 1 566 0
 1593 00ac 0AB0     		add	sp, sp, #40
 1594              		@ sp needed
 1595 00ae BDE8F081 		pop	{r4, r5, r6, r7, r8, pc}
 1596              	.LVL176:
 1597              	.L121:
 1598              	.LBB41:
 1599              	.LBB42:
 1600              		.loc 1 345 0 discriminator 1
 1601 00b2 0246     		mov	r2, r0
 1602 00b4 1049     		ldr	r1, .L123+44
 1603 00b6 1148     		ldr	r0, .L123+48
 1604              	.LVL177:
 1605 00b8 FFF7FEFF 		bl	chprintf
 1606              	.LVL178:
 1607 00bc B5E7     		b	.L108
 1608              	.L122:
 1609              	.LVL179:
 1610              	.LBE42:
 1611              	.LBE41:
 1612              	.LBB43:
 1613              	.LBB44:
 1614 00be 0246     		mov	r2, r0
 1615 00c0 0D49     		ldr	r1, .L123+44
 1616 00c2 0E48     		ldr	r0, .L123+48
 1617              	.LVL180:
 1618 00c4 FFF7FEFF 		bl	chprintf
 1619              	.LVL181:
 1620 00c8 D5E7     		b	.L104
 1621              	.L124:
 1622 00ca 00BF     		.align	2
 1623              	.L123:
 1624 00cc 00000000 		.word	.LANCHOR29
 1625 00d0 00000000 		.word	.LANCHOR3
 1626 00d4 14000000 		.word	.LC3
 1627 00d8 00000000 		.word	.LANCHOR4
 1628 00dc 00000000 		.word	.LANCHOR16
 1629 00e0 00000000 		.word	.LANCHOR17
 1630 00e4 D0000000 		.word	.LC12
 1631 00e8 7C000000 		.word	.LC8
 1632 00ec 00000000 		.word	.LANCHOR27
 1633 00f0 00000000 		.word	.LANCHOR1
 1634 00f4 00000000 		.word	.LANCHOR2
 1635 00f8 18000000 		.word	.LC4
 1636 00fc 00000000 		.word	SD1
 1637 0100 00000000 		.word	.LANCHOR15
 1638 0104 00000000 		.word	.LANCHOR0
 1639              	.LBE44:
 1640              	.LBE43:
ARM GAS  /tmp/ccGArWSQ.s 			page 30


 1641              		.cfi_endproc
 1642              	.LFE285:
 1643              		.size	writeToSD, .-writeToSD
 1644 0108 AFF30080 		.section	.text.cmd_read,"ax",%progbits
 1644      AFF30080 
 1645              		.align	2
 1646              		.p2align 4,,15
 1647              		.thumb
 1648              		.thumb_func
 1649              		.type	cmd_read, %function
 1650              	cmd_read:
 1651              	.LFB282:
 1652              		.loc 1 433 0
 1653              		.cfi_startproc
 1654              		@ args = 0, pretend = 0, frame = 0
 1655              		@ frame_needed = 0, uses_anonymous_args = 0
 1656              	.LVL182:
 1657 0000 2DE9F04F 		push	{r4, r5, r6, r7, r8, r9, r10, fp, lr}
 1658              		.cfi_def_cfa_offset 36
 1659              		.cfi_offset 4, -36
 1660              		.cfi_offset 5, -32
 1661              		.cfi_offset 6, -28
 1662              		.cfi_offset 7, -24
 1663              		.cfi_offset 8, -20
 1664              		.cfi_offset 9, -16
 1665              		.cfi_offset 10, -12
 1666              		.cfi_offset 11, -8
 1667              		.cfi_offset 14, -4
 1668 0004 314F     		ldr	r7, .L135
 1669 0006 DFF8E8B0 		ldr	fp, .L135+36
 1670 000a 83B0     		sub	sp, sp, #12
 1671              		.cfi_def_cfa_offset 48
 1672              	.LVL183:
 1673              	.L132:
 1674              		.loc 1 433 0
 1675 000c 0024     		movs	r4, #0
 1676 000e 08E0     		b	.L129
 1677              	.LVL184:
 1678              	.L134:
 1679              	.LBB45:
 1680              		.loc 1 467 0
 1681 0010 2F49     		ldr	r1, .L135+4
 1682              		.loc 1 468 0
 1683 0012 304A     		ldr	r2, .L135+8
 1684              		.loc 1 466 0
 1685 0014 2BF80480 		strh	r8, [fp, r4]	@ movhi
 1686              		.loc 1 467 0
 1687 0018 0E53     		strh	r6, [r1, r4]	@ movhi
 1688              		.loc 1 468 0
 1689 001a 1553     		strh	r5, [r2, r4]	@ movhi
 1690 001c 0234     		adds	r4, r4, #2
 1691              		.loc 1 478 0
 1692 001e 322C     		cmp	r4, #50
 1693 0020 3DD0     		beq	.L133
 1694              	.LVL185:
 1695              	.L129:
 1696              		.loc 1 443 0
ARM GAS  /tmp/ccGArWSQ.s 			page 31


 1697 0022 0E20     		movs	r0, #14
 1698 0024 FFF7FEFF 		bl	accel_read_register
 1699              	.LVL186:
 1700 0028 8246     		mov	r10, r0
 1701              	.LVL187:
 1702              		.loc 1 444 0
 1703 002a 0F20     		movs	r0, #15
 1704              	.LVL188:
 1705 002c FFF7FEFF 		bl	accel_read_register
 1706              	.LVL189:
 1707 0030 8046     		mov	r8, r0
 1708              	.LVL190:
 1709              		.loc 1 445 0
 1710 0032 1020     		movs	r0, #16
 1711              	.LVL191:
 1712 0034 FFF7FEFF 		bl	accel_read_register
 1713              	.LVL192:
 1714 0038 8146     		mov	r9, r0
 1715              	.LVL193:
 1716              		.loc 1 446 0
 1717 003a 1120     		movs	r0, #17
 1718              	.LVL194:
 1719 003c FFF7FEFF 		bl	accel_read_register
 1720              	.LVL195:
 1721 0040 0646     		mov	r6, r0
 1722              	.LVL196:
 1723              		.loc 1 447 0
 1724 0042 1220     		movs	r0, #18
 1725              	.LVL197:
 1726 0044 FFF7FEFF 		bl	accel_read_register
 1727              	.LVL198:
 1728 0048 0546     		mov	r5, r0
 1729              	.LVL199:
 1730              		.loc 1 448 0
 1731 004a 1320     		movs	r0, #19
 1732              	.LVL200:
 1733 004c FFF7FEFF 		bl	accel_read_register
 1734              	.LVL201:
 1735              		.loc 1 455 0
 1736 0050 0002     		lsls	r0, r0, #8
 1737              	.LVL202:
 1738 0052 80B2     		uxth	r0, r0
 1739              		.loc 1 453 0
 1740 0054 4FEA0828 		lsl	r8, r8, #8
 1741              	.LVL203:
 1742              		.loc 1 454 0
 1743 0058 3602     		lsls	r6, r6, #8
 1744              	.LVL204:
 1745              		.loc 1 459 0
 1746 005a 0543     		orrs	r5, r5, r0
 1747              	.LVL205:
 1748              		.loc 1 453 0
 1749 005c 1FFA88F8 		uxth	r8, r8
 1750              	.LVL206:
 1751              		.loc 1 454 0
 1752 0060 B6B2     		uxth	r6, r6
 1753              	.LVL207:
ARM GAS  /tmp/ccGArWSQ.s 			page 32


 1754              		.loc 1 457 0
 1755 0062 48EA0A08 		orr	r8, r8, r10
 1756              	.LVL208:
 1757              		.loc 1 459 0
 1758 0066 ADB2     		uxth	r5, r5
 1759              		.loc 1 458 0
 1760 0068 46EA0906 		orr	r6, r6, r9
 1761              	.LVL209:
 1762              		.loc 1 462 0
 1763 006c 2BB2     		sxth	r3, r5
 1764              		.loc 1 457 0
 1765 006e 1FFA88F8 		uxth	r8, r8
 1766              	.LVL210:
 1767              		.loc 1 458 0
 1768 0072 B6B2     		uxth	r6, r6
 1769              	.LVL211:
 1770              		.loc 1 462 0
 1771 0074 0093     		str	r3, [sp]
 1772 0076 0FFA88F2 		sxth	r2, r8
 1773 007a 33B2     		sxth	r3, r6
 1774 007c 1648     		ldr	r0, .L135+12
 1775 007e 1749     		ldr	r1, .L135+16
 1776 0080 FFF7FEFF 		bl	chprintf
 1777              	.LVL212:
 1778              		.loc 1 465 0
 1779 0084 3B68     		ldr	r3, [r7]
 1780 0086 002B     		cmp	r3, #0
 1781 0088 C2D0     		beq	.L134
 1782              		.loc 1 471 0
 1783 008a 154B     		ldr	r3, .L135+20
 1784              		.loc 1 472 0
 1785 008c 1549     		ldr	r1, .L135+24
 1786              		.loc 1 473 0
 1787 008e 164A     		ldr	r2, .L135+28
 1788              		.loc 1 471 0
 1789 0090 23F80480 		strh	r8, [r3, r4]	@ movhi
 1790              		.loc 1 472 0
 1791 0094 0E53     		strh	r6, [r1, r4]	@ movhi
 1792              		.loc 1 473 0
 1793 0096 1553     		strh	r5, [r2, r4]	@ movhi
 1794 0098 0234     		adds	r4, r4, #2
 1795              		.loc 1 478 0
 1796 009a 322C     		cmp	r4, #50
 1797 009c C1D1     		bne	.L129
 1798              	.L133:
 1799              	.LVL213:
 1800              		.loc 1 480 0
 1801 009e 3B68     		ldr	r3, [r7]
 1802 00a0 5BB1     		cbz	r3, .L130
 1803              		.loc 1 481 0
 1804 00a2 0A49     		ldr	r1, .L135
 1805 00a4 0022     		movs	r2, #0
 1806 00a6 0A60     		str	r2, [r1]
 1807              		.loc 1 482 0
 1808 00a8 104A     		ldr	r2, .L135+32
 1809 00aa 0223     		movs	r3, #2
 1810 00ac 1360     		str	r3, [r2]
ARM GAS  /tmp/ccGArWSQ.s 			page 33


 1811              		.loc 1 483 0
 1812 00ae FFF7FEFF 		bl	writeToSD
 1813              	.LVL214:
 1814              	.L131:
 1815              		.loc 1 491 0
 1816 00b2 6420     		movs	r0, #100
 1817 00b4 FFF7FEFF 		bl	chThdSleep
 1818              	.LVL215:
 1819 00b8 A8E7     		b	.L132
 1820              	.L130:
 1821              		.loc 1 485 0
 1822 00ba 0449     		ldr	r1, .L135
 1823              		.loc 1 486 0
 1824 00bc 0B4A     		ldr	r2, .L135+32
 1825              		.loc 1 485 0
 1826 00be 0123     		movs	r3, #1
 1827 00c0 0B60     		str	r3, [r1]
 1828              		.loc 1 486 0
 1829 00c2 1360     		str	r3, [r2]
 1830              		.loc 1 487 0
 1831 00c4 FFF7FEFF 		bl	writeToSD
 1832              	.LVL216:
 1833 00c8 F3E7     		b	.L131
 1834              	.L136:
 1835 00ca 00BF     		.align	2
 1836              	.L135:
 1837 00cc 00000000 		.word	.LANCHOR12
 1838 00d0 00000000 		.word	.LANCHOR1
 1839 00d4 00000000 		.word	.LANCHOR2
 1840 00d8 00000000 		.word	SD1
 1841 00dc E0000000 		.word	.LC13
 1842 00e0 00000000 		.word	.LANCHOR15
 1843 00e4 00000000 		.word	.LANCHOR16
 1844 00e8 00000000 		.word	.LANCHOR17
 1845 00ec 00000000 		.word	.LANCHOR29
 1846 00f0 00000000 		.word	.LANCHOR0
 1847              	.LBE45:
 1848              		.cfi_endproc
 1849              	.LFE282:
 1850              		.size	cmd_read, .-cmd_read
 1851 00f4 AFF30080 		.section	.text.startup.main,"ax",%progbits
 1851      AFF30080 
 1851      AFF30080 
 1852              		.align	2
 1853              		.p2align 4,,15
 1854              		.global	main
 1855              		.thumb
 1856              		.thumb_func
 1857              		.type	main, %function
 1858              	main:
 1859              	.LFB287:
 1860              		.loc 1 594 0
 1861              		.cfi_startproc
 1862              		@ args = 0, pretend = 0, frame = 24
 1863              		@ frame_needed = 0, uses_anonymous_args = 0
 1864 0000 30B5     		push	{r4, r5, lr}
 1865              		.cfi_def_cfa_offset 12
ARM GAS  /tmp/ccGArWSQ.s 			page 34


 1866              		.cfi_offset 4, -12
 1867              		.cfi_offset 5, -8
 1868              		.cfi_offset 14, -4
 1869 0002 89B0     		sub	sp, sp, #36
 1870              		.cfi_def_cfa_offset 48
 1871              		.loc 1 603 0
 1872 0004 FFF7FEFF 		bl	halInit
 1873              	.LVL217:
 1874              		.loc 1 604 0
 1875 0008 FFF7FEFF 		bl	chSysInit
 1876              	.LVL218:
 1877              		.loc 1 610 0
 1878 000c 4B48     		ldr	r0, .L139
 1879              		.loc 1 627 0
 1880 000e 4C4C     		ldr	r4, .L139+4
 1881              		.loc 1 610 0
 1882 0010 0021     		movs	r1, #0
 1883 0012 FFF7FEFF 		bl	sdStart
 1884              	.LVL219:
 1885              		.loc 1 611 0
 1886 0016 4B48     		ldr	r0, .L139+8
 1887 0018 1021     		movs	r1, #16
 1888 001a 40F28232 		movw	r2, #898
 1889 001e FFF7FEFF 		bl	_pal_lld_setgroupmode
 1890              	.LVL220:
 1891              		.loc 1 612 0
 1892 0022 4848     		ldr	r0, .L139+8
 1893 0024 2021     		movs	r1, #32
 1894 0026 40F28232 		movw	r2, #898
 1895 002a FFF7FEFF 		bl	_pal_lld_setgroupmode
 1896              	.LVL221:
 1897              		.loc 1 619 0
 1898 002e 4FF09040 		mov	r0, #1207959552
 1899 0032 2021     		movs	r1, #32
 1900 0034 40F28222 		movw	r2, #642
 1901 0038 FFF7FEFF 		bl	_pal_lld_setgroupmode
 1902              	.LVL222:
 1903              		.loc 1 620 0
 1904 003c 4FF09040 		mov	r0, #1207959552
 1905 0040 4021     		movs	r1, #64
 1906 0042 40F28222 		movw	r2, #642
 1907 0046 FFF7FEFF 		bl	_pal_lld_setgroupmode
 1908              	.LVL223:
 1909              		.loc 1 621 0
 1910 004a 4FF09040 		mov	r0, #1207959552
 1911 004e 8021     		movs	r1, #128
 1912 0050 40F28222 		movw	r2, #642
 1913 0054 FFF7FEFF 		bl	_pal_lld_setgroupmode
 1914              	.LVL224:
 1915              		.loc 1 622 0
 1916 0058 4FF09040 		mov	r0, #1207959552
 1917 005c 4FF48071 		mov	r1, #256
 1918 0060 0122     		movs	r2, #1
 1919 0062 FFF7FEFF 		bl	_pal_lld_setgroupmode
 1920              	.LVL225:
 1921              		.loc 1 623 0
 1922 0066 4FF09040 		mov	r0, #1207959552
ARM GAS  /tmp/ccGArWSQ.s 			page 35


 1923 006a 4FF48073 		mov	r3, #256
 1924 006e 0383     		strh	r3, [r0, #24]	@ movhi
 1925              		.loc 1 625 0
 1926 0070 0421     		movs	r1, #4
 1927 0072 0022     		movs	r2, #0
 1928 0074 FFF7FEFF 		bl	_pal_lld_setgroupmode
 1929              	.LVL226:
 1930              		.loc 1 627 0
 1931 0078 0121     		movs	r1, #1
 1932 007a 2046     		mov	r0, r4
 1933 007c 0A46     		mov	r2, r1
 1934 007e FFF7FEFF 		bl	_pal_lld_setgroupmode
 1935              	.LVL227:
 1936              		.loc 1 628 0
 1937 0082 2046     		mov	r0, r4
 1938 0084 0221     		movs	r1, #2
 1939 0086 0122     		movs	r2, #1
 1940 0088 FFF7FEFF 		bl	_pal_lld_setgroupmode
 1941              	.LVL228:
 1942              		.loc 1 629 0
 1943 008c 2046     		mov	r0, r4
 1944 008e 0421     		movs	r1, #4
 1945 0090 0122     		movs	r2, #1
 1946 0092 FFF7FEFF 		bl	_pal_lld_setgroupmode
 1947              	.LVL229:
 1948              		.loc 1 631 0
 1949 0096 0125     		movs	r5, #1
 1950              		.loc 1 633 0
 1951 0098 0423     		movs	r3, #4
 1952              		.loc 1 632 0
 1953 009a 0222     		movs	r2, #2
 1954              		.loc 1 631 0
 1955 009c 6583     		strh	r5, [r4, #26]	@ movhi
 1956              		.loc 1 637 0
 1957 009e 0020     		movs	r0, #0
 1958              		.loc 1 632 0
 1959 00a0 6283     		strh	r2, [r4, #26]	@ movhi
 1960              		.loc 1 633 0
 1961 00a2 6383     		strh	r3, [r4, #26]	@ movhi
 1962              		.loc 1 637 0
 1963 00a4 FFF7FEFF 		bl	accel_read_register
 1964              	.LVL230:
 1965 00a8 2749     		ldr	r1, .L139+12
 1966 00aa 0246     		mov	r2, r0
 1967 00ac 2348     		ldr	r0, .L139
 1968 00ae FFF7FEFF 		bl	chprintf
 1969              	.LVL231:
 1970              		.loc 1 642 0
 1971 00b2 2C20     		movs	r0, #44
 1972 00b4 1321     		movs	r1, #19
 1973 00b6 FFF7FEFF 		bl	accel_write_register
 1974              	.LVL232:
 1975              		.loc 1 645 0
 1976 00ba 1221     		movs	r1, #18
 1977 00bc 2D20     		movs	r0, #45
 1978 00be FFF7FEFF 		bl	accel_write_register
 1979              	.LVL233:
ARM GAS  /tmp/ccGArWSQ.s 			page 36


 1980              		.loc 1 647 0
 1981 00c2 FFF7FEFF 		bl	initSDcard
 1982              	.LVL234:
 1983              		.loc 1 650 0
 1984 00c6 FFF7FEFF 		bl	shellInit
 1985              	.LVL235:
 1986              		.loc 1 651 0
 1987 00ca 4FF47A70 		mov	r0, #1000
 1988 00ce FFF7FEFF 		bl	chThdSleep
 1989              	.LVL236:
 1990              	.LBB46:
 1991              	.LBB47:
 1992              	.LBB48:
 1993              		.file 2 "../ChibiOS/os/rt/include/chevents.h"
 1994              		.loc 2 193 0
 1995 00d2 4FF0FF33 		mov	r3, #-1
 1996 00d6 2A46     		mov	r2, r5
 1997 00d8 1C48     		ldr	r0, .L139+16
 1998 00da 03A9     		add	r1, sp, #12
 1999              	.LVL237:
 2000 00dc FFF7FEFF 		bl	chEvtRegisterMaskWithFlags
 2001              	.LVL238:
 2002              	.LBE48:
 2003              	.LBE47:
 2004              	.LBE46:
 2005              		.loc 1 658 0
 2006 00e0 40F6C801 		movw	r1, #2248
 2007 00e4 4022     		movs	r2, #64
 2008 00e6 1A48     		ldr	r0, .L139+20
 2009 00e8 FFF7FEFF 		bl	shellCreate
 2010              	.LVL239:
 2011 00ec 194B     		ldr	r3, .L139+24
 2012              		.loc 1 660 0
 2013 00ee 0024     		movs	r4, #0
 2014              		.loc 1 658 0
 2015 00f0 1860     		str	r0, [r3]
 2016              		.loc 1 659 0
 2017 00f2 4FF47A70 		mov	r0, #1000
 2018 00f6 FFF7FEFF 		bl	chThdSleep
 2019              	.LVL240:
 2020              		.loc 1 660 0
 2021 00fa 174B     		ldr	r3, .L139+28
 2022 00fc 0094     		str	r4, [sp]
 2023 00fe 4FF4A471 		mov	r1, #328
 2024 0102 4122     		movs	r2, #65
 2025 0104 1548     		ldr	r0, .L139+32
 2026 0106 FFF7FEFF 		bl	chThdCreateStatic
 2027              	.LVL241:
 2028              		.loc 1 661 0
 2029 010a 154B     		ldr	r3, .L139+36
 2030 010c 0094     		str	r4, [sp]
 2031 010e 4FF4A471 		mov	r1, #328
 2032 0112 4122     		movs	r2, #65
 2033 0114 1348     		ldr	r0, .L139+40
 2034 0116 FFF7FEFF 		bl	chThdCreateStatic
 2035              	.LVL242:
 2036              		.loc 1 662 0
ARM GAS  /tmp/ccGArWSQ.s 			page 37


 2037 011a 0094     		str	r4, [sp]
 2038 011c 1248     		ldr	r0, .L139+44
 2039 011e 134B     		ldr	r3, .L139+48
 2040 0120 41F2C801 		movw	r1, #4296
 2041 0124 4122     		movs	r2, #65
 2042 0126 FFF7FEFF 		bl	chThdCreateStatic
 2043              	.LVL243:
 2044              	.L138:
 2045              		.loc 1 665 0 discriminator 1
 2046 012a 4FF0FF30 		mov	r0, #-1
 2047 012e FFF7FEFF 		bl	chEvtWaitOne
 2048              	.LVL244:
 2049 0132 0146     		mov	r1, r0
 2050 0134 0E48     		ldr	r0, .L139+52
 2051 0136 FFF7FEFF 		bl	chEvtDispatch
 2052              	.LVL245:
 2053 013a F6E7     		b	.L138
 2054              	.L140:
 2055              		.align	2
 2056              	.L139:
 2057 013c 00000000 		.word	SD1
 2058 0140 00040048 		.word	1207960576
 2059 0144 00080048 		.word	1207961600
 2060 0148 F0000000 		.word	.LC14
 2061 014c 00000000 		.word	shell_terminated
 2062 0150 00000000 		.word	.LANCHOR6
 2063 0154 00000000 		.word	.LANCHOR5
 2064 0158 00000000 		.word	counterThread
 2065 015c 00000000 		.word	.LANCHOR30
 2066 0160 00000000 		.word	readThread
 2067 0164 00000000 		.word	.LANCHOR31
 2068 0168 00000000 		.word	.LANCHOR32
 2069 016c 00000000 		.word	writeThread
 2070 0170 00000000 		.word	.LANCHOR33
 2071              		.cfi_endproc
 2072              	.LFE287:
 2073              		.size	main, .-main
 2074              		.global	MMCD1
 2075              		.global	br
 2076              		.global	bw
 2077              		.global	fno
 2078              		.global	dir
 2079              		.global	rc
 2080              		.global	fil
 2081              		.global	SDC_FS
 2082              		.global	button
 2083              		.global	tail
 2084              		.global	head
 2085              		.global	queue
 2086              		.global	stop
 2087              		.global	startWriting
 2088              		.global	count
 2089              		.global	final
 2090              		.global	tempxyzData
 2091              		.global	btnData3
 2092              		.global	btnData2
 2093              		.global	btnData1
ARM GAS  /tmp/ccGArWSQ.s 			page 38


 2094              		.global	zData3
 2095              		.global	yData3
 2096              		.global	xData3
 2097              		.global	zData2
 2098              		.global	yData2
 2099              		.global	xData2
 2100              		.global	zData1
 2101              		.global	yData1
 2102              		.global	xData1
 2103              		.global	currBuffer
 2104 0174 AFF30080 		.section	.bss.xData3,"aw",%nobits
 2104      AFF30080 
 2104      AFF30080 
 2105              		.align	2
 2106              		.set	.LANCHOR19,. + 0
 2107              		.type	xData3, %object
 2108              		.size	xData3, 50
 2109              	xData3:
 2110 0000 00000000 		.space	50
 2110      00000000 
 2110      00000000 
 2110      00000000 
 2110      00000000 
 2111 0032 0000     		.section	.bss.count,"aw",%nobits
 2112              		.align	2
 2113              		.set	.LANCHOR13,. + 0
 2114              		.type	count, %object
 2115              		.size	count, 4
 2116              	count:
 2117 0000 00000000 		.space	4
 2118              		.section	.bss.dir,"aw",%nobits
 2119              		.align	2
 2120              		.type	dir, %object
 2121              		.size	dir, 28
 2122              	dir:
 2123 0000 00000000 		.space	28
 2123      00000000 
 2123      00000000 
 2123      00000000 
 2123      00000000 
 2124              		.section	.data.fhandlers,"aw",%progbits
 2125              		.align	2
 2126              		.set	.LANCHOR33,. + 0
 2127              		.type	fhandlers, %object
 2128              		.size	fhandlers, 4
 2129              	fhandlers:
 2130 0000 00000000 		.word	termination_handler
 2131              		.section	.rodata.lowSdcSpiConfig,"a",%progbits
 2132              		.align	2
 2133              		.type	lowSdcSpiConfig, %object
 2134              		.size	lowSdcSpiConfig, 16
 2135              	lowSdcSpiConfig:
 2136 0000 00000000 		.word	0
 2137 0004 00080048 		.word	1207961600
 2138 0008 0000     		.short	0
 2139 000a 3000     		.short	48
 2140 000c 0000     		.short	0
ARM GAS  /tmp/ccGArWSQ.s 			page 39


 2141 000e 0000     		.space	2
 2142              		.section	.bss.fil,"aw",%nobits
 2143              		.align	2
 2144              		.set	.LANCHOR27,. + 0
 2145              		.type	fil, %object
 2146              		.size	fil, 548
 2147              	fil:
 2148 0000 00000000 		.space	548
 2148      00000000 
 2148      00000000 
 2148      00000000 
 2148      00000000 
 2149              		.section	.bss.MMCD1,"aw",%nobits
 2150              		.align	2
 2151              		.set	.LANCHOR28,. + 0
 2152              		.type	MMCD1, %object
 2153              		.size	MMCD1, 52
 2154              	MMCD1:
 2155 0000 00000000 		.space	52
 2155      00000000 
 2155      00000000 
 2155      00000000 
 2155      00000000 
 2156              		.section	.data.accel_cfg,"aw",%progbits
 2157              		.align	2
 2158              		.set	.LANCHOR9,. + 0
 2159              		.type	accel_cfg, %object
 2160              		.size	accel_cfg, 16
 2161              	accel_cfg:
 2162 0000 00000000 		.word	0
 2163 0004 00000048 		.word	1207959552
 2164 0008 0800     		.short	8
 2165 000a 3000     		.short	48
 2166 000c 0000     		.short	0
 2167 000e 0000     		.space	2
 2168              		.section	.data.currBuffer,"aw",%progbits
 2169              		.align	2
 2170              		.set	.LANCHOR12,. + 0
 2171              		.type	currBuffer, %object
 2172              		.size	currBuffer, 4
 2173              	currBuffer:
 2174 0000 01000000 		.word	1
 2175              		.section	.bss.head,"aw",%nobits
 2176              		.align	2
 2177              		.set	.LANCHOR23,. + 0
 2178              		.type	head, %object
 2179              		.size	head, 4
 2180              	head:
 2181 0000 00000000 		.space	4
 2182              		.section	.bss.tail,"aw",%nobits
 2183              		.align	2
 2184              		.set	.LANCHOR26,. + 0
 2185              		.type	tail, %object
 2186              		.size	tail, 4
 2187              	tail:
 2188 0000 00000000 		.space	4
 2189              		.section	.bss.fno,"aw",%nobits
ARM GAS  /tmp/ccGArWSQ.s 			page 40


 2190              		.align	2
 2191              		.type	fno, %object
 2192              		.size	fno, 24
 2193              	fno:
 2194 0000 00000000 		.space	24
 2194      00000000 
 2194      00000000 
 2194      00000000 
 2194      00000000 
 2195              		.section	.bss.tempxyzData,"aw",%nobits
 2196              		.align	2
 2197              		.type	tempxyzData, %object
 2198              		.size	tempxyzData, 20
 2199              	tempxyzData:
 2200 0000 00000000 		.space	20
 2200      00000000 
 2200      00000000 
 2200      00000000 
 2200      00000000 
 2201              		.section	.bss.yData1,"aw",%nobits
 2202              		.align	2
 2203              		.set	.LANCHOR1,. + 0
 2204              		.type	yData1, %object
 2205              		.size	yData1, 50
 2206              	yData1:
 2207 0000 00000000 		.space	50
 2207      00000000 
 2207      00000000 
 2207      00000000 
 2207      00000000 
 2208 0032 0000     		.section	.bss.yData2,"aw",%nobits
 2209              		.align	2
 2210              		.set	.LANCHOR16,. + 0
 2211              		.type	yData2, %object
 2212              		.size	yData2, 50
 2213              	yData2:
 2214 0000 00000000 		.space	50
 2214      00000000 
 2214      00000000 
 2214      00000000 
 2214      00000000 
 2215 0032 0000     		.section	.bss.yData3,"aw",%nobits
 2216              		.align	2
 2217              		.set	.LANCHOR20,. + 0
 2218              		.type	yData3, %object
 2219              		.size	yData3, 50
 2220              	yData3:
 2221 0000 00000000 		.space	50
 2221      00000000 
 2221      00000000 
 2221      00000000 
 2221      00000000 
 2222 0032 0000     		.section	.bss.btnData2,"aw",%nobits
 2223              		.align	2
 2224              		.set	.LANCHOR18,. + 0
 2225              		.type	btnData2, %object
 2226              		.size	btnData2, 25
ARM GAS  /tmp/ccGArWSQ.s 			page 41


 2227              	btnData2:
 2228 0000 00000000 		.space	25
 2228      00000000 
 2228      00000000 
 2228      00000000 
 2228      00000000 
 2229 0019 000000   		.section	.bss.br,"aw",%nobits
 2230              		.align	2
 2231              		.type	br, %object
 2232              		.size	br, 4
 2233              	br:
 2234 0000 00000000 		.space	4
 2235              		.section	.bss.final,"aw",%nobits
 2236              		.align	2
 2237              		.set	.LANCHOR25,. + 0
 2238              		.type	final, %object
 2239              		.size	final, 500
 2240              	final:
 2241 0000 00000000 		.space	500
 2241      00000000 
 2241      00000000 
 2241      00000000 
 2241      00000000 
 2242              		.section	.rodata.str1.4,"aMS",%progbits,1
 2243              		.align	2
 2244              	.LC0:
 2245 0000 25730A0D 		.ascii	"%s\012\015\000"
 2245      00
 2246 0005 000000   		.space	3
 2247              	.LC1:
 2248 0008 25642C00 		.ascii	"%d,\000"
 2249              	.LC2:
 2250 000c 25640A0D 		.ascii	"%d\012\015\000"
 2250      00
 2251 0011 000000   		.space	3
 2252              	.LC3:
 2253 0014 00       		.ascii	"\000"
 2254 0015 000000   		.space	3
 2255              	.LC4:
 2256 0018 6661696C 		.ascii	"failed with error: %d\012\015\000"
 2256      65642077 
 2256      69746820 
 2256      6572726F 
 2256      723A2025 
 2257              	.LC5:
 2258 0030 5368656C 		.ascii	"Shell Died\012\015\000"
 2258      6C204469 
 2258      65640A0D 
 2258      00
 2259 003d 000000   		.space	3
 2260              	.LC6:
 2261 0040 52657374 		.ascii	"Restarting from termination handler\012\015\000"
 2261      61727469 
 2261      6E672066 
 2261      726F6D20 
 2261      7465726D 
 2262 0066 0000     		.space	2
ARM GAS  /tmp/ccGArWSQ.s 			page 42


 2263              	.LC7:
 2264 0068 25303564 		.ascii	"%05d %05d %05d %d\012\000"
 2264      20253035 
 2264      64202530 
 2264      35642025 
 2264      640A00
 2265 007b 00       		.space	1
 2266              	.LC8:
 2267 007c 64617461 		.ascii	"dataTest.txt\000"
 2267      54657374 
 2267      2E747874 
 2267      00
 2268 0089 000000   		.space	3
 2269              	.LC9:
 2270 008c 496E6974 		.ascii	"Initialized SD card\012\015\000"
 2270      69616C69 
 2270      7A656420 
 2270      53442063 
 2270      6172640A 
 2271 00a2 0000     		.space	2
 2272              	.LC10:
 2273 00a4 41206361 		.ascii	"A card is there.\012\015\000"
 2273      72642069 
 2273      73207468 
 2273      6572652E 
 2273      0A0D00
 2274 00b7 00       		.space	1
 2275              	.LC11:
 2276 00b8 4E6F2063 		.ascii	"No card to be found.\012\015\000"
 2276      61726420 
 2276      746F2062 
 2276      6520666F 
 2276      756E642E 
 2277 00cf 00       		.space	1
 2278              	.LC12:
 2279 00d0 25303364 		.ascii	"%03d %03d %03d\012\000"
 2279      20253033 
 2279      64202530 
 2279      33640A00 
 2280              	.LC13:
 2281 00e0 25356420 		.ascii	"%5d %5d %5d\012\015\000"
 2281      25356420 
 2281      2535640A 
 2281      0D00
 2282 00ee 0000     		.space	2
 2283              	.LC14:
 2284 00f0 41636365 		.ascii	"Accel Whoami Byte = 0x%02x\012\015\000"
 2284      6C205768 
 2284      6F616D69 
 2284      20427974 
 2284      65203D20 
 2285 010d 000000   		.space	3
 2286              	.LC15:
 2287 0110 64617461 		.ascii	"dataread\000"
 2287      72656164 
 2287      00
 2288 0119 000000   		.space	3
ARM GAS  /tmp/ccGArWSQ.s 			page 43


 2289              	.LC16:
 2290 011c 6D796563 		.ascii	"myecho\000"
 2290      686F00
 2291 0123 00       		.space	1
 2292              	.LC17:
 2293 0124 72656164 		.ascii	"read\000"
 2293      00
 2294 0129 000000   		.space	3
 2295              	.LC18:
 2296 012c 77726974 		.ascii	"writeSD\000"
 2296      65534400 
 2297              		.section	.bss.waWriteThread,"aw",%nobits
 2298              		.align	3
 2299              		.set	.LANCHOR32,. + 0
 2300              		.type	waWriteThread, %object
 2301              		.size	waWriteThread, 4296
 2302              	waWriteThread:
 2303 0000 00000000 		.space	4296
 2303      00000000 
 2303      00000000 
 2303      00000000 
 2303      00000000 
 2304              		.section	.bss.bw,"aw",%nobits
 2305              		.align	2
 2306              		.type	bw, %object
 2307              		.size	bw, 4
 2308              	bw:
 2309 0000 00000000 		.space	4
 2310              		.section	.bss.waCounterThread,"aw",%nobits
 2311              		.align	3
 2312              		.set	.LANCHOR30,. + 0
 2313              		.type	waCounterThread, %object
 2314              		.size	waCounterThread, 328
 2315              	waCounterThread:
 2316 0000 00000000 		.space	328
 2316      00000000 
 2316      00000000 
 2316      00000000 
 2316      00000000 
 2317              		.section	.bss.shelltp1,"aw",%nobits
 2318              		.align	2
 2319              		.set	.LANCHOR5,. + 0
 2320              		.type	shelltp1, %object
 2321              		.size	shelltp1, 4
 2322              	shelltp1:
 2323 0000 00000000 		.space	4
 2324              		.section	.bss.btnData1,"aw",%nobits
 2325              		.align	2
 2326              		.set	.LANCHOR14,. + 0
 2327              		.type	btnData1, %object
 2328              		.size	btnData1, 25
 2329              	btnData1:
 2330 0000 00000000 		.space	25
 2330      00000000 
 2330      00000000 
 2330      00000000 
 2330      00000000 
ARM GAS  /tmp/ccGArWSQ.s 			page 44


 2331 0019 000000   		.section	.rodata.mmcConfig,"a",%progbits
 2332              		.align	2
 2333              		.set	.LANCHOR7,. + 0
 2334              		.type	mmcConfig, %object
 2335              		.size	mmcConfig, 12
 2336              	mmcConfig:
 2337 0000 00000000 		.word	SPID2
 2338 0004 00000000 		.word	lowSdcSpiConfig
 2339 0008 00000000 		.word	highSdcSpiConfig
 2340              		.section	.bss.btnData3,"aw",%nobits
 2341              		.align	2
 2342              		.set	.LANCHOR22,. + 0
 2343              		.type	btnData3, %object
 2344              		.size	btnData3, 25
 2345              	btnData3:
 2346 0000 00000000 		.space	25
 2346      00000000 
 2346      00000000 
 2346      00000000 
 2346      00000000 
 2347 0019 000000   		.section	.bss.startWriting,"aw",%nobits
 2348              		.align	2
 2349              		.set	.LANCHOR29,. + 0
 2350              		.type	startWriting, %object
 2351              		.size	startWriting, 4
 2352              	startWriting:
 2353 0000 00000000 		.space	4
 2354              		.section	.bss.stop,"aw",%nobits
 2355              		.align	2
 2356              		.set	.LANCHOR10,. + 0
 2357              		.type	stop, %object
 2358              		.size	stop, 4
 2359              	stop:
 2360 0000 00000000 		.space	4
 2361              		.section	.bss.waReadThread,"aw",%nobits
 2362              		.align	3
 2363              		.set	.LANCHOR31,. + 0
 2364              		.type	waReadThread, %object
 2365              		.size	waReadThread, 328
 2366              	waReadThread:
 2367 0000 00000000 		.space	328
 2367      00000000 
 2367      00000000 
 2367      00000000 
 2367      00000000 
 2368              		.section	.bss.button,"aw",%nobits
 2369              		.align	2
 2370              		.set	.LANCHOR11,. + 0
 2371              		.type	button, %object
 2372              		.size	button, 4
 2373              	button:
 2374 0000 00000000 		.space	4
 2375              		.section	.rodata.commands,"a",%progbits
 2376              		.align	2
 2377              		.type	commands, %object
 2378              		.size	commands, 40
 2379              	commands:
ARM GAS  /tmp/ccGArWSQ.s 			page 45


 2380 0000 10010000 		.word	.LC15
 2381 0004 00000000 		.word	cmd_dataread
 2382 0008 1C010000 		.word	.LC16
 2383 000c 00000000 		.word	cmd_myecho
 2384 0010 24010000 		.word	.LC17
 2385 0014 00000000 		.word	cmd_read
 2386 0018 2C010000 		.word	.LC18
 2387 001c 00000000 		.word	cmd_writeSD
 2388 0020 00000000 		.word	0
 2389 0024 00000000 		.word	0
 2390              		.section	.rodata.highSdcSpiConfig,"a",%progbits
 2391              		.align	2
 2392              		.type	highSdcSpiConfig, %object
 2393              		.size	highSdcSpiConfig, 16
 2394              	highSdcSpiConfig:
 2395 0000 00000000 		.word	0
 2396 0004 00080048 		.word	1207961600
 2397 0008 0000     		.short	0
 2398 000a 0000     		.short	0
 2399 000c 0000     		.short	0
 2400 000e 0000     		.space	2
 2401              		.section	.bss.queue,"aw",%nobits
 2402              		.align	2
 2403              		.set	.LANCHOR24,. + 0
 2404              		.type	queue, %object
 2405              		.size	queue, 10
 2406              	queue:
 2407 0000 00000000 		.space	10
 2407      00000000 
 2407      0000
 2408 000a 0000     		.section	.bss.rc,"aw",%nobits
 2409              		.set	.LANCHOR4,. + 0
 2410              		.type	rc, %object
 2411              		.size	rc, 1
 2412              	rc:
 2413 0000 00       		.space	1
 2414              		.section	.bss.SDC_FS,"aw",%nobits
 2415              		.align	2
 2416              		.set	.LANCHOR3,. + 0
 2417              		.type	SDC_FS, %object
 2418              		.size	SDC_FS, 560
 2419              	SDC_FS:
 2420 0000 00000000 		.space	560
 2420      00000000 
 2420      00000000 
 2420      00000000 
 2420      00000000 
 2421              		.section	.rodata.shell_cfg1,"a",%progbits
 2422              		.align	2
 2423              		.set	.LANCHOR6,. + 0
 2424              		.type	shell_cfg1, %object
 2425              		.size	shell_cfg1, 8
 2426              	shell_cfg1:
 2427 0000 00000000 		.word	SD1
 2428 0004 00000000 		.word	commands
 2429              		.section	.bss.zData2,"aw",%nobits
 2430              		.align	2
ARM GAS  /tmp/ccGArWSQ.s 			page 46


 2431              		.set	.LANCHOR17,. + 0
 2432              		.type	zData2, %object
 2433              		.size	zData2, 50
 2434              	zData2:
 2435 0000 00000000 		.space	50
 2435      00000000 
 2435      00000000 
 2435      00000000 
 2435      00000000 
 2436 0032 0000     		.section	.bss.sdMutex,"aw",%nobits
 2437              		.align	2
 2438              		.set	.LANCHOR8,. + 0
 2439              		.type	sdMutex, %object
 2440              		.size	sdMutex, 16
 2441              	sdMutex:
 2442 0000 00000000 		.space	16
 2442      00000000 
 2442      00000000 
 2442      00000000 
 2443              		.section	.bss.xData1,"aw",%nobits
 2444              		.align	2
 2445              		.set	.LANCHOR0,. + 0
 2446              		.type	xData1, %object
 2447              		.size	xData1, 50
 2448              	xData1:
 2449 0000 00000000 		.space	50
 2449      00000000 
 2449      00000000 
 2449      00000000 
 2449      00000000 
 2450 0032 0000     		.section	.bss.zData1,"aw",%nobits
 2451              		.align	2
 2452              		.set	.LANCHOR2,. + 0
 2453              		.type	zData1, %object
 2454              		.size	zData1, 50
 2455              	zData1:
 2456 0000 00000000 		.space	50
 2456      00000000 
 2456      00000000 
 2456      00000000 
 2456      00000000 
 2457 0032 0000     		.section	.bss.xData2,"aw",%nobits
 2458              		.align	2
 2459              		.set	.LANCHOR15,. + 0
 2460              		.type	xData2, %object
 2461              		.size	xData2, 50
 2462              	xData2:
 2463 0000 00000000 		.space	50
 2463      00000000 
 2463      00000000 
 2463      00000000 
 2463      00000000 
 2464 0032 0000     		.section	.bss.zData3,"aw",%nobits
 2465              		.align	2
 2466              		.set	.LANCHOR21,. + 0
 2467              		.type	zData3, %object
 2468              		.size	zData3, 50
ARM GAS  /tmp/ccGArWSQ.s 			page 47


 2469              	zData3:
 2470 0000 00000000 		.space	50
 2470      00000000 
 2470      00000000 
 2470      00000000 
 2470      00000000 
 2471 0032 0000     		.text
 2472              	.Letext0:
 2473              		.file 3 "/nfs/nfs5/home/research/hardware/arm2/gcc-arm-embedded/gcc-arm-none-eabi-4_8-2014q2/lib/g
 2474              		.file 4 "/nfs/nfs5/home/research/hardware/arm2/gcc-arm-embedded/gcc-arm-none-eabi-4_8-2014q2/arm-n
 2475              		.file 5 "/nfs/nfs5/home/research/hardware/arm2/gcc-arm-embedded/gcc-arm-none-eabi-4_8-2014q2/arm-n
 2476              		.file 6 "../ChibiOS/os/rt/ports/ARMCMx/compilers/GCC/chtypes.h"
 2477              		.file 7 "../ChibiOS/os/rt/include/chsystypes.h"
 2478              		.file 8 "../ChibiOS/os/rt/include/chschd.h"
 2479              		.file 9 "../ChibiOS/os/ext/CMSIS/ST/STM32F3xx/stm32f303xc.h"
 2480              		.file 10 "../ChibiOS/os/rt/ports/ARMCMx/chcore.h"
 2481              		.file 11 "../ChibiOS/os/rt/ports/ARMCMx/chcore_v7m.h"
 2482              		.file 12 "../ChibiOS/os/rt/include/chtm.h"
 2483              		.file 13 "../ChibiOS/os/rt/include/chsem.h"
 2484              		.file 14 "../ChibiOS/os/rt/include/chmtx.h"
 2485              		.file 15 "../ChibiOS/os/rt/include/chthreads.h"
 2486              		.file 16 "../ChibiOS/os/rt/include/chqueues.h"
 2487              		.file 17 "../ChibiOS/os/rt/include/chstreams.h"
 2488              		.file 18 "../ChibiOS/os/hal/ports/STM32/LLD/DMAv1/stm32_dma.h"
 2489              		.file 19 "../ChibiOS/os/hal/include/hal_ioblock.h"
 2490              		.file 20 "../ChibiOS/os/hal/ports/STM32/LLD/GPIOv2/pal_lld.h"
 2491              		.file 21 "../ChibiOS/os/hal/include/serial.h"
 2492              		.file 22 "../ChibiOS/os/hal/ports/STM32/LLD/USARTv2/serial_lld.h"
 2493              		.file 23 "../ChibiOS/os/hal/include/spi.h"
 2494              		.file 24 "../ChibiOS/os/hal/ports/STM32/LLD/SPIv2/spi_lld.h"
 2495              		.file 25 "../ChibiOS/os/hal/include/mmc_spi.h"
 2496              		.file 26 "../ChibiOS/os/various/shell.h"
 2497              		.file 27 "../ChibiOS/ext/fatfs/src/integer.h"
 2498              		.file 28 "../ChibiOS/ext/fatfs/src/ff.h"
 2499              		.file 29 "../ChibiOS/os/ext/CMSIS/include/core_cm4.h"
 2500              		.file 30 "../ChibiOS/os/hal/lib/streams/chprintf.h"
 2501              		.file 31 "/nfs/nfs5/home/research/hardware/arm2/gcc-arm-embedded/gcc-arm-none-eabi-4_8-2014q2/arm-
 2502              		.file 32 "/nfs/nfs5/home/research/hardware/arm2/gcc-arm-embedded/gcc-arm-none-eabi-4_8-2014q2/arm-
 2503              		.file 33 "../ChibiOS/os/hal/include/hal.h"
 2504              		.file 34 "../ChibiOS/os/rt/include/chsys.h"