ARM GAS  /tmp/ccuP74Wa.s 			page 1


   1              		.syntax unified
   2              		.cpu cortex-m4
   3              		.fpu softvfp
   4              		.eabi_attribute 20, 1
   5              		.eabi_attribute 21, 1
   6              		.eabi_attribute 23, 3
   7              		.eabi_attribute 24, 1
   8              		.eabi_attribute 25, 1
   9              		.eabi_attribute 26, 1
  10              		.eabi_attribute 30, 2
  11              		.eabi_attribute 34, 1
  12              		.eabi_attribute 18, 4
  13              		.thumb
  14              		.file	"mmc_spi.c"
  15              		.text
  16              	.Ltext0:
  17              		.cfi_sections	.debug_frame
  18              		.section	.text.mmcGetInfo,"ax",%progbits
  19              		.align	2
  20              		.p2align 4,,15
  21              		.global	mmcGetInfo
  22              		.thumb
  23              		.thumb_func
  24              		.type	mmcGetInfo, %function
  25              	mmcGetInfo:
  26              	.LFB296:
  27              		.file 1 "../ChibiOS/os/hal/src/mmc_spi.c"
  28              		.loc 1 854 0
  29              		.cfi_startproc
  30              		@ args = 0, pretend = 0, frame = 0
  31              		@ frame_needed = 0, uses_anonymous_args = 0
  32              		@ link register save eliminated.
  33              	.LVL0:
  34              		.loc 1 858 0
  35 0000 0379     		ldrb	r3, [r0, #4]	@ zero_extendqisi2
  36 0002 052B     		cmp	r3, #5
  37 0004 01D0     		beq	.L5
  38              		.loc 1 859 0
  39 0006 0120     		movs	r0, #1
  40              	.LVL1:
  41              		.loc 1 866 0
  42 0008 7047     		bx	lr
  43              	.LVL2:
  44              	.L5:
  45              		.loc 1 862 0
  46 000a 836A     		ldr	r3, [r0, #40]
  47 000c 4B60     		str	r3, [r1, #4]
  48              		.loc 1 863 0
  49 000e 4FF40073 		mov	r3, #512
  50 0012 0B60     		str	r3, [r1]
  51              		.loc 1 865 0
  52 0014 0020     		movs	r0, #0
  53              	.LVL3:
  54 0016 7047     		bx	lr
  55              		.cfi_endproc
  56              	.LFE296:
  57              		.size	mmcGetInfo, .-mmcGetInfo
ARM GAS  /tmp/ccuP74Wa.s 			page 2


  58 0018 AFF30080 		.section	.text.recvr1.isra.0,"ax",%progbits
  58      AFF30080 
  59              		.align	2
  60              		.p2align 4,,15
  61              		.thumb
  62              		.thumb_func
  63              		.type	recvr1.isra.0, %function
  64              	recvr1.isra.0:
  65              	.LFB298:
  66              		.loc 1 222 0
  67              		.cfi_startproc
  68              		@ args = 0, pretend = 0, frame = 8
  69              		@ frame_needed = 0, uses_anonymous_args = 0
  70              	.LVL4:
  71 0000 30B5     		push	{r4, r5, lr}
  72              		.cfi_def_cfa_offset 12
  73              		.cfi_offset 4, -12
  74              		.cfi_offset 5, -8
  75              		.cfi_offset 14, -4
  76 0002 0546     		mov	r5, r0
  77 0004 83B0     		sub	sp, sp, #12
  78              		.cfi_def_cfa_offset 24
  79              		.loc 1 222 0
  80 0006 0924     		movs	r4, #9
  81              	.LVL5:
  82              	.L8:
  83              		.loc 1 227 0
  84 0008 2B68     		ldr	r3, [r5]
  85 000a 0121     		movs	r1, #1
  86 000c 1868     		ldr	r0, [r3]
  87 000e 01AA     		add	r2, sp, #4
  88 0010 FFF7FEFF 		bl	spiReceive
  89              	.LVL6:
  90              		.loc 1 228 0
  91 0014 9DF80400 		ldrb	r0, [sp, #4]	@ zero_extendqisi2
  92 0018 FF28     		cmp	r0, #255
  93 001a 01D1     		bne	.L7
  94              		.loc 1 226 0
  95 001c 013C     		subs	r4, r4, #1
  96              	.LVL7:
  97 001e F3D1     		bne	.L8
  98              	.LVL8:
  99              	.L7:
 100              		.loc 1 233 0
 101 0020 03B0     		add	sp, sp, #12
 102              		@ sp needed
 103 0022 30BD     		pop	{r4, r5, pc}
 104              		.cfi_endproc
 105              	.LFE298:
 106              		.size	recvr1.isra.0, .-recvr1.isra.0
 107 0024 AFF30080 		.section	.text.wait.isra.1,"ax",%progbits
 107      AFF30080 
 107      AFF30080 
 108              		.align	2
 109              		.p2align 4,,15
 110              		.thumb
 111              		.thumb_func
ARM GAS  /tmp/ccuP74Wa.s 			page 3


 112              		.type	wait.isra.1, %function
 113              	wait.isra.1:
 114              	.LFB299:
 115              		.loc 1 164 0
 116              		.cfi_startproc
 117              		@ args = 0, pretend = 0, frame = 8
 118              		@ frame_needed = 0, uses_anonymous_args = 0
 119              	.LVL9:
 120 0000 30B5     		push	{r4, r5, lr}
 121              		.cfi_def_cfa_offset 12
 122              		.cfi_offset 4, -12
 123              		.cfi_offset 5, -8
 124              		.cfi_offset 14, -4
 125 0002 0546     		mov	r5, r0
 126 0004 83B0     		sub	sp, sp, #12
 127              		.cfi_def_cfa_offset 24
 128              		.loc 1 164 0
 129 0006 1024     		movs	r4, #16
 130              	.LVL10:
 131              	.L15:
 132              		.loc 1 169 0
 133 0008 2B68     		ldr	r3, [r5]
 134 000a 0121     		movs	r1, #1
 135 000c 1868     		ldr	r0, [r3]
 136 000e 01AA     		add	r2, sp, #4
 137 0010 FFF7FEFF 		bl	spiReceive
 138              	.LVL11:
 139              		.loc 1 170 0
 140 0014 9DF80430 		ldrb	r3, [sp, #4]	@ zero_extendqisi2
 141 0018 FF2B     		cmp	r3, #255
 142 001a 0FD0     		beq	.L12
 143              		.loc 1 168 0
 144 001c 013C     		subs	r4, r4, #1
 145              	.LVL12:
 146 001e F3D1     		bne	.L15
 147 0020 02E0     		b	.L17
 148              	.LVL13:
 149              	.L25:
 150              	.LBB78:
 151              	.LBB79:
 152              		.file 2 "../ChibiOS/os/hal/osal/rt/osal.h"
 153              		.loc 2 673 0
 154 0022 0A20     		movs	r0, #10
 155 0024 FFF7FEFF 		bl	chThdSleep
 156              	.LVL14:
 157              	.L17:
 158              	.LBE79:
 159              	.LBE78:
 160              		.loc 1 176 0
 161 0028 2B68     		ldr	r3, [r5]
 162 002a 0121     		movs	r1, #1
 163 002c 1868     		ldr	r0, [r3]
 164 002e 01AA     		add	r2, sp, #4
 165 0030 FFF7FEFF 		bl	spiReceive
 166              	.LVL15:
 167              		.loc 1 177 0
 168 0034 9DF80430 		ldrb	r3, [sp, #4]	@ zero_extendqisi2
ARM GAS  /tmp/ccuP74Wa.s 			page 4


 169 0038 FF2B     		cmp	r3, #255
 170 003a F2D1     		bne	.L25
 171              	.LVL16:
 172              	.L12:
 173              		.loc 1 185 0
 174 003c 03B0     		add	sp, sp, #12
 175              		@ sp needed
 176 003e 30BD     		pop	{r4, r5, pc}
 177              		.cfi_endproc
 178              	.LFE299:
 179              		.size	wait.isra.1, .-wait.isra.1
 180              		.section	.text.send_hdr,"ax",%progbits
 181              		.align	2
 182              		.p2align 4,,15
 183              		.thumb
 184              		.thumb_func
 185              		.type	send_hdr, %function
 186              	send_hdr:
 187              	.LFB276:
 188              		.loc 1 196 0
 189              		.cfi_startproc
 190              		@ args = 0, pretend = 0, frame = 8
 191              		@ frame_needed = 0, uses_anonymous_args = 0
 192              	.LVL17:
 193 0000 70B5     		push	{r4, r5, r6, lr}
 194              		.cfi_def_cfa_offset 16
 195              		.cfi_offset 4, -16
 196              		.cfi_offset 5, -12
 197              		.cfi_offset 6, -8
 198              		.cfi_offset 14, -4
 199 0002 1446     		mov	r4, r2
 200 0004 82B0     		sub	sp, sp, #8
 201              		.cfi_def_cfa_offset 24
 202              		.loc 1 196 0
 203 0006 0646     		mov	r6, r0
 204              		.loc 1 200 0
 205 0008 2C30     		adds	r0, r0, #44
 206              	.LVL18:
 207              		.loc 1 196 0
 208 000a 0D46     		mov	r5, r1
 209              		.loc 1 200 0
 210 000c FFF7FEFF 		bl	wait.isra.1
 211              	.LVL19:
 212              		.loc 1 204 0
 213 0010 220C     		lsrs	r2, r4, #16
 214              		.loc 1 202 0
 215 0012 45F04001 		orr	r1, r5, #64
 216              		.loc 1 205 0
 217 0016 230A     		lsrs	r3, r4, #8
 218              		.loc 1 204 0
 219 0018 8DF80220 		strb	r2, [sp, #2]
 220              		.loc 1 206 0
 221 001c 0022     		movs	r2, #0
 222              		.loc 1 203 0
 223 001e 200E     		lsrs	r0, r4, #24
 224 0020 114D     		ldr	r5, .L31
 225              		.loc 1 206 0
ARM GAS  /tmp/ccuP74Wa.s 			page 5


 226 0022 8DF80440 		strb	r4, [sp, #4]
 227              	.LVL20:
 228              		.loc 1 205 0
 229 0026 8DF80330 		strb	r3, [sp, #3]
 230 002a 01AC     		add	r4, sp, #4
 231              	.LVL21:
 232 002c 6B46     		mov	r3, sp
 233              	.LVL22:
 234              	.LBB80:
 235              	.LBB81:
 236              		.loc 1 151 0
 237 002e 81EA4202 		eor	r2, r1, r2, lsl #1
 238              	.LVL23:
 239              		.loc 1 150 0
 240 0032 A342     		cmp	r3, r4
 241              	.LBE81:
 242              	.LBE80:
 243              		.loc 1 202 0
 244 0034 8DF80010 		strb	r1, [sp]
 245              		.loc 1 203 0
 246 0038 8DF80100 		strb	r0, [sp, #1]
 247              	.LBB83:
 248              	.LBB82:
 249              		.loc 1 151 0
 250 003c AA5C     		ldrb	r2, [r5, r2]	@ zero_extendqisi2
 251              	.LVL24:
 252              		.loc 1 150 0
 253 003e 06D0     		beq	.L27
 254              	.LVL25:
 255              	.L30:
 256 0040 13F8011F 		ldrb	r1, [r3, #1]!	@ zero_extendqisi2
 257              	.LVL26:
 258              		.loc 1 151 0
 259 0044 81EA4202 		eor	r2, r1, r2, lsl #1
 260              	.LVL27:
 261              		.loc 1 150 0
 262 0048 A342     		cmp	r3, r4
 263              		.loc 1 151 0
 264 004a AA5C     		ldrb	r2, [r5, r2]	@ zero_extendqisi2
 265              	.LVL28:
 266              		.loc 1 150 0
 267 004c F8D1     		bne	.L30
 268              	.LVL29:
 269              	.L27:
 270              	.LBE82:
 271              	.LBE83:
 272              		.loc 1 208 0
 273 004e 5200     		lsls	r2, r2, #1
 274              		.loc 1 210 0
 275 0050 F36A     		ldr	r3, [r6, #44]
 276              		.loc 1 208 0
 277 0052 42F00102 		orr	r2, r2, #1
 278 0056 8DF80520 		strb	r2, [sp, #5]
 279              		.loc 1 210 0
 280 005a 1868     		ldr	r0, [r3]
 281 005c 6A46     		mov	r2, sp
 282 005e 0621     		movs	r1, #6
ARM GAS  /tmp/ccuP74Wa.s 			page 6


 283 0060 FFF7FEFF 		bl	spiSend
 284              	.LVL30:
 285              		.loc 1 211 0
 286 0064 02B0     		add	sp, sp, #8
 287              		@ sp needed
 288 0066 70BD     		pop	{r4, r5, r6, pc}
 289              	.LVL31:
 290              	.L32:
 291              		.align	2
 292              	.L31:
 293 0068 00000000 		.word	.LANCHOR0
 294              		.cfi_endproc
 295              	.LFE276:
 296              		.size	send_hdr, .-send_hdr
 297 006c AFF30080 		.section	.text.send_command_R3,"ax",%progbits
 298              		.align	2
 299              		.p2align 4,,15
 300              		.thumb
 301              		.thumb_func
 302              		.type	send_command_R3, %function
 303              	send_command_R3:
 304              	.LFB280:
 305              		.loc 1 289 0
 306              		.cfi_startproc
 307              		@ args = 0, pretend = 0, frame = 0
 308              		@ frame_needed = 0, uses_anonymous_args = 0
 309              	.LVL32:
 310 0000 F8B5     		push	{r3, r4, r5, r6, r7, lr}
 311              		.cfi_def_cfa_offset 24
 312              		.cfi_offset 3, -24
 313              		.cfi_offset 4, -20
 314              		.cfi_offset 5, -16
 315              		.cfi_offset 6, -12
 316              		.cfi_offset 7, -8
 317              		.cfi_offset 14, -4
 318              		.loc 1 289 0
 319 0002 0446     		mov	r4, r0
 320              		.loc 1 292 0
 321 0004 C06A     		ldr	r0, [r0, #44]
 322              	.LVL33:
 323              		.loc 1 289 0
 324 0006 0F46     		mov	r7, r1
 325 0008 1546     		mov	r5, r2
 326              		.loc 1 292 0
 327 000a 0068     		ldr	r0, [r0]
 328              		.loc 1 289 0
 329 000c 1E46     		mov	r6, r3
 330              		.loc 1 292 0
 331 000e FFF7FEFF 		bl	spiSelect
 332              	.LVL34:
 333              		.loc 1 293 0
 334 0012 3946     		mov	r1, r7
 335 0014 2A46     		mov	r2, r5
 336 0016 2046     		mov	r0, r4
 337 0018 FFF7FEFF 		bl	send_hdr
 338              	.LVL35:
 339              	.LBB86:
ARM GAS  /tmp/ccuP74Wa.s 			page 7


 340              	.LBB87:
 341              		.loc 1 248 0
 342 001c 04F12C00 		add	r0, r4, #44
 343 0020 FFF7FEFF 		bl	recvr1.isra.0
 344              	.LVL36:
 345              		.loc 1 249 0
 346 0024 E16A     		ldr	r1, [r4, #44]
 347              		.loc 1 248 0
 348 0026 0546     		mov	r5, r0
 349              	.LVL37:
 350              		.loc 1 249 0
 351 0028 3246     		mov	r2, r6
 352 002a 0868     		ldr	r0, [r1]
 353              	.LVL38:
 354 002c 0421     		movs	r1, #4
 355 002e FFF7FEFF 		bl	spiReceive
 356              	.LVL39:
 357              	.LBE87:
 358              	.LBE86:
 359              		.loc 1 295 0
 360 0032 E36A     		ldr	r3, [r4, #44]
 361 0034 1868     		ldr	r0, [r3]
 362 0036 FFF7FEFF 		bl	spiUnselect
 363              	.LVL40:
 364              		.loc 1 297 0
 365 003a 2846     		mov	r0, r5
 366 003c F8BD     		pop	{r3, r4, r5, r6, r7, pc}
 367              		.cfi_endproc
 368              	.LFE280:
 369              		.size	send_command_R3, .-send_command_R3
 370 003e 00BF     		.section	.text.send_command_R1,"ax",%progbits
 371              		.align	2
 372              		.p2align 4,,15
 373              		.thumb
 374              		.thumb_func
 375              		.type	send_command_R1, %function
 376              	send_command_R1:
 377              	.LFB279:
 378              		.loc 1 265 0
 379              		.cfi_startproc
 380              		@ args = 0, pretend = 0, frame = 0
 381              		@ frame_needed = 0, uses_anonymous_args = 0
 382              	.LVL41:
 383              		.loc 1 268 0
 384 0000 C36A     		ldr	r3, [r0, #44]
 385              		.loc 1 265 0
 386 0002 70B5     		push	{r4, r5, r6, lr}
 387              		.cfi_def_cfa_offset 16
 388              		.cfi_offset 4, -16
 389              		.cfi_offset 5, -12
 390              		.cfi_offset 6, -8
 391              		.cfi_offset 14, -4
 392              		.loc 1 265 0
 393 0004 0446     		mov	r4, r0
 394 0006 0E46     		mov	r6, r1
 395              		.loc 1 268 0
 396 0008 1868     		ldr	r0, [r3]
ARM GAS  /tmp/ccuP74Wa.s 			page 8


 397              	.LVL42:
 398              		.loc 1 265 0
 399 000a 1546     		mov	r5, r2
 400              		.loc 1 268 0
 401 000c FFF7FEFF 		bl	spiSelect
 402              	.LVL43:
 403              		.loc 1 269 0
 404 0010 2A46     		mov	r2, r5
 405 0012 3146     		mov	r1, r6
 406 0014 2046     		mov	r0, r4
 407 0016 FFF7FEFF 		bl	send_hdr
 408              	.LVL44:
 409              		.loc 1 270 0
 410 001a 04F12C00 		add	r0, r4, #44
 411 001e FFF7FEFF 		bl	recvr1.isra.0
 412              	.LVL45:
 413              		.loc 1 271 0
 414 0022 E36A     		ldr	r3, [r4, #44]
 415              		.loc 1 270 0
 416 0024 0546     		mov	r5, r0
 417              	.LVL46:
 418              		.loc 1 271 0
 419 0026 1868     		ldr	r0, [r3]
 420              	.LVL47:
 421 0028 FFF7FEFF 		bl	spiUnselect
 422              	.LVL48:
 423              		.loc 1 273 0
 424 002c 2846     		mov	r0, r5
 425 002e 70BD     		pop	{r4, r5, r6, pc}
 426              		.cfi_endproc
 427              	.LFE279:
 428              		.size	send_command_R1, .-send_command_R1
 429              		.section	.text.read_CxD,"ax",%progbits
 430              		.align	2
 431              		.p2align 4,,15
 432              		.thumb
 433              		.thumb_func
 434              		.type	read_CxD, %function
 435              	read_CxD:
 436              	.LFB281:
 437              		.loc 1 312 0
 438              		.cfi_startproc
 439              		@ args = 0, pretend = 0, frame = 16
 440              		@ frame_needed = 0, uses_anonymous_args = 0
 441              	.LVL49:
 442 0000 F0B5     		push	{r4, r5, r6, r7, lr}
 443              		.cfi_def_cfa_offset 20
 444              		.cfi_offset 4, -20
 445              		.cfi_offset 5, -16
 446              		.cfi_offset 6, -12
 447              		.cfi_offset 7, -8
 448              		.cfi_offset 14, -4
 449              		.loc 1 316 0
 450 0002 C36A     		ldr	r3, [r0, #44]
 451              		.loc 1 312 0
 452 0004 85B0     		sub	sp, sp, #20
 453              		.cfi_def_cfa_offset 40
ARM GAS  /tmp/ccuP74Wa.s 			page 9


 454              		.loc 1 312 0
 455 0006 0546     		mov	r5, r0
 456 0008 0C46     		mov	r4, r1
 457              		.loc 1 316 0
 458 000a 1868     		ldr	r0, [r3]
 459              	.LVL50:
 460              		.loc 1 312 0
 461 000c 1646     		mov	r6, r2
 462              		.loc 1 316 0
 463 000e FFF7FEFF 		bl	spiSelect
 464              	.LVL51:
 465              		.loc 1 317 0
 466 0012 2846     		mov	r0, r5
 467 0014 2146     		mov	r1, r4
 468 0016 0022     		movs	r2, #0
 469 0018 FFF7FEFF 		bl	send_hdr
 470              	.LVL52:
 471              		.loc 1 318 0
 472 001c 05F12C00 		add	r0, r5, #44
 473 0020 FFF7FEFF 		bl	recvr1.isra.0
 474              	.LVL53:
 475 0024 0028     		cmp	r0, #0
 476 0026 34D1     		bne	.L44
 477 0028 42F21074 		movw	r4, #10000
 478 002c 01E0     		b	.L41
 479              	.LVL54:
 480              	.L38:
 481              		.loc 1 324 0
 482 002e 013C     		subs	r4, r4, #1
 483              	.LVL55:
 484 0030 36D0     		beq	.L45
 485              	.LVL56:
 486              	.L41:
 487              		.loc 1 325 0
 488 0032 EB6A     		ldr	r3, [r5, #44]
 489 0034 0121     		movs	r1, #1
 490 0036 1868     		ldr	r0, [r3]
 491 0038 6A46     		mov	r2, sp
 492 003a FFF7FEFF 		bl	spiReceive
 493              	.LVL57:
 494              		.loc 1 326 0
 495 003e 9DF80030 		ldrb	r3, [sp]	@ zero_extendqisi2
 496 0042 FE2B     		cmp	r3, #254
 497 0044 F3D1     		bne	.L38
 498              	.LBB88:
 499              		.loc 1 329 0
 500 0046 EB6A     		ldr	r3, [r5, #44]
 501 0048 1021     		movs	r1, #16
 502 004a 1868     		ldr	r0, [r3]
 503 004c 6A46     		mov	r2, sp
 504 004e FFF7FEFF 		bl	spiReceive
 505              	.LVL58:
 506              		.loc 1 330 0
 507 0052 6B46     		mov	r3, sp
 508              		.loc 1 331 0
 509 0054 06F10C01 		add	r1, r6, #12
 510              	.LVL59:
ARM GAS  /tmp/ccuP74Wa.s 			page 10


 511 0058 321F     		subs	r2, r6, #4
 512              	.LVL60:
 513              	.L40:
 514              		.loc 1 332 0 discriminator 2
 515 005a 5878     		ldrb	r0, [r3, #1]	@ zero_extendqisi2
 516 005c 1F78     		ldrb	r7, [r3]	@ zero_extendqisi2
 517              		.loc 1 333 0 discriminator 2
 518 005e DE78     		ldrb	r6, [r3, #3]	@ zero_extendqisi2
 519 0060 9C78     		ldrb	r4, [r3, #2]	@ zero_extendqisi2
 520              		.loc 1 332 0 discriminator 2
 521 0062 0004     		lsls	r0, r0, #16
 522 0064 40EA0760 		orr	r0, r0, r7, lsl #24
 523 0068 3043     		orrs	r0, r0, r6
 524              		.loc 1 333 0 discriminator 2
 525 006a 40EA0420 		orr	r0, r0, r4, lsl #8
 526              		.loc 1 332 0 discriminator 2
 527 006e 41F80409 		str	r0, [r1], #-4
 528              	.LVL61:
 529              		.loc 1 331 0 discriminator 2
 530 0072 9142     		cmp	r1, r2
 531              		.loc 1 334 0 discriminator 2
 532 0074 03F10403 		add	r3, r3, #4
 533              	.LVL62:
 534              		.loc 1 331 0 discriminator 2
 535 0078 EFD1     		bne	.L40
 536              		.loc 1 338 0
 537 007a EB6A     		ldr	r3, [r5, #44]
 538              	.LVL63:
 539 007c 0221     		movs	r1, #2
 540              	.LVL64:
 541 007e 1868     		ldr	r0, [r3]
 542 0080 FFF7FEFF 		bl	spiIgnore
 543              	.LVL65:
 544              		.loc 1 339 0
 545 0084 EB6A     		ldr	r3, [r5, #44]
 546 0086 1868     		ldr	r0, [r3]
 547 0088 FFF7FEFF 		bl	spiUnselect
 548              	.LVL66:
 549              		.loc 1 341 0
 550 008c 0020     		movs	r0, #0
 551              	.LBE88:
 552              		.loc 1 345 0
 553 008e 05B0     		add	sp, sp, #20
 554              		@ sp needed
 555 0090 F0BD     		pop	{r4, r5, r6, r7, pc}
 556              	.LVL67:
 557              	.L44:
 558              		.loc 1 319 0
 559 0092 EB6A     		ldr	r3, [r5, #44]
 560 0094 1868     		ldr	r0, [r3]
 561 0096 FFF7FEFF 		bl	spiUnselect
 562              	.LVL68:
 563              		.loc 1 320 0
 564 009a 0120     		movs	r0, #1
 565              		.loc 1 345 0
 566 009c 05B0     		add	sp, sp, #20
 567              		@ sp needed
ARM GAS  /tmp/ccuP74Wa.s 			page 11


 568 009e F0BD     		pop	{r4, r5, r6, r7, pc}
 569              	.LVL69:
 570              	.L45:
 571              		.loc 1 344 0
 572 00a0 0120     		movs	r0, #1
 573              		.loc 1 345 0
 574 00a2 05B0     		add	sp, sp, #20
 575              		@ sp needed
 576 00a4 F0BD     		pop	{r4, r5, r6, r7, pc}
 577              		.cfi_endproc
 578              	.LFE281:
 579              		.size	read_CxD, .-read_CxD
 580 00a6 00BFAFF3 		.section	.text.mmcConnect,"ax",%progbits
 580      0080AFF3 
 580      0080
 581              		.align	2
 582              		.p2align 4,,15
 583              		.global	mmcConnect
 584              		.thumb
 585              		.thumb_func
 586              		.type	mmcConnect, %function
 587              	mmcConnect:
 588              	.LFB287:
 589              		.loc 1 453 0
 590              		.cfi_startproc
 591              		@ args = 0, pretend = 0, frame = 8
 592              		@ frame_needed = 0, uses_anonymous_args = 0
 593              	.LVL70:
 594 0000 70B5     		push	{r4, r5, r6, lr}
 595              		.cfi_def_cfa_offset 16
 596              		.cfi_offset 4, -16
 597              		.cfi_offset 5, -12
 598              		.cfi_offset 6, -8
 599              		.cfi_offset 14, -4
 600              		.loc 1 467 0
 601 0002 C36A     		ldr	r3, [r0, #44]
 602              		.loc 1 463 0
 603 0004 0322     		movs	r2, #3
 604 0006 0271     		strb	r2, [r0, #4]
 605              		.loc 1 453 0
 606 0008 0546     		mov	r5, r0
 607              		.loc 1 464 0
 608 000a 0022     		movs	r2, #0
 609 000c 80F83020 		strb	r2, [r0, #48]
 610              		.loc 1 453 0
 611 0010 82B0     		sub	sp, sp, #8
 612              		.cfi_def_cfa_offset 24
 613              		.loc 1 467 0
 614 0012 93E80300 		ldmia	r3, {r0, r1}
 615              	.LVL71:
 616 0016 FFF7FEFF 		bl	spiStart
 617              	.LVL72:
 618              		.loc 1 468 0
 619 001a EB6A     		ldr	r3, [r5, #44]
 620 001c 1021     		movs	r1, #16
 621 001e 1868     		ldr	r0, [r3]
 622 0020 FFF7FEFF 		bl	spiIgnore
ARM GAS  /tmp/ccuP74Wa.s 			page 12


 623              	.LVL73:
 624 0024 0A24     		movs	r4, #10
 625 0026 02E0     		b	.L49
 626              	.LVL74:
 627              	.L77:
 628              	.LBB89:
 629              	.LBB90:
 630              		.loc 2 673 0
 631 0028 6420     		movs	r0, #100
 632 002a FFF7FEFF 		bl	chThdSleep
 633              	.LVL75:
 634              	.L49:
 635              	.LBE90:
 636              	.LBE89:
 637              		.loc 1 473 0
 638 002e 0021     		movs	r1, #0
 639 0030 0A46     		mov	r2, r1
 640 0032 2846     		mov	r0, r5
 641 0034 FFF7FEFF 		bl	send_command_R1
 642              	.LVL76:
 643 0038 0128     		cmp	r0, #1
 644 003a 0AD0     		beq	.L47
 645              		.loc 1 476 0
 646 003c 013C     		subs	r4, r4, #1
 647              	.LVL77:
 648 003e F3D1     		bne	.L77
 649              	.LVL78:
 650              	.L48:
 651              	.LDL1:
 652              		.loc 1 558 0
 653 0040 EB6A     		ldr	r3, [r5, #44]
 654 0042 1868     		ldr	r0, [r3]
 655 0044 FFF7FEFF 		bl	spiStop
 656              	.LVL79:
 657              		.loc 1 559 0
 658 0048 0223     		movs	r3, #2
 659 004a 2B71     		strb	r3, [r5, #4]
 660              		.loc 1 560 0
 661 004c 0120     		movs	r0, #1
 662              	.L60:
 663              		.loc 1 561 0
 664 004e 02B0     		add	sp, sp, #8
 665              		@ sp needed
 666 0050 70BD     		pop	{r4, r5, r6, pc}
 667              	.LVL80:
 668              	.L47:
 669              		.loc 1 486 0
 670 0052 01AB     		add	r3, sp, #4
 671 0054 2846     		mov	r0, r5
 672 0056 0821     		movs	r1, #8
 673 0058 4FF4D572 		mov	r2, #426
 674 005c FFF7FEFF 		bl	send_command_R3
 675              	.LVL81:
 676 0060 0528     		cmp	r0, #5
 677 0062 22D0     		beq	.L51
 678 0064 6424     		movs	r4, #100
 679              	.LVL82:
ARM GAS  /tmp/ccuP74Wa.s 			page 13


 680 0066 04E0     		b	.L56
 681              	.LVL83:
 682              	.L55:
 683              		.loc 1 499 0
 684 0068 013C     		subs	r4, r4, #1
 685              	.LVL84:
 686 006a E9D0     		beq	.L48
 687              	.LBB91:
 688              	.LBB92:
 689              		.loc 2 673 0
 690 006c 6420     		movs	r0, #100
 691 006e FFF7FEFF 		bl	chThdSleep
 692              	.LVL85:
 693              	.L56:
 694              	.LBE92:
 695              	.LBE91:
 696              		.loc 1 493 0
 697 0072 2846     		mov	r0, r5
 698 0074 3721     		movs	r1, #55
 699 0076 0022     		movs	r2, #0
 700 0078 FFF7FEFF 		bl	send_command_R1
 701              	.LVL86:
 702 007c 0128     		cmp	r0, #1
 703 007e 0646     		mov	r6, r0
 704 0080 F2D1     		bne	.L55
 705              		.loc 1 494 0 discriminator 1
 706 0082 2846     		mov	r0, r5
 707 0084 2921     		movs	r1, #41
 708 0086 254A     		ldr	r2, .L79
 709 0088 01AB     		add	r3, sp, #4
 710 008a FFF7FEFF 		bl	send_command_R3
 711              	.LVL87:
 712              		.loc 1 493 0 discriminator 1
 713 008e 0028     		cmp	r0, #0
 714 0090 EAD1     		bne	.L55
 715              		.loc 1 506 0
 716 0092 0246     		mov	r2, r0
 717 0094 01AB     		add	r3, sp, #4
 718 0096 2846     		mov	r0, r5
 719 0098 3A21     		movs	r1, #58
 720 009a FFF7FEFF 		bl	send_command_R3
 721              	.LVL88:
 722              		.loc 1 509 0
 723 009e 9DF80430 		ldrb	r3, [sp, #4]	@ zero_extendqisi2
 724 00a2 5B06     		lsls	r3, r3, #25
 725              		.loc 1 510 0
 726 00a4 48BF     		it	mi
 727 00a6 85F83060 		strbmi	r6, [r5, #48]
 728              	.LVL89:
 729              	.L51:
 730              		.loc 1 486 0
 731 00aa 6424     		movs	r4, #100
 732 00ac 05E0     		b	.L59
 733              	.LVL90:
 734              	.L78:
 735              	.LBB93:
 736              		.loc 1 521 0
ARM GAS  /tmp/ccuP74Wa.s 			page 14


 737 00ae 012B     		cmp	r3, #1
 738 00b0 C6D1     		bne	.L48
 739              		.loc 1 524 0
 740 00b2 013C     		subs	r4, r4, #1
 741              	.LVL91:
 742 00b4 C4D0     		beq	.L48
 743              	.LBB94:
 744              	.LBB95:
 745              		.loc 2 673 0
 746 00b6 FFF7FEFF 		bl	chThdSleep
 747              	.LVL92:
 748              	.L59:
 749              	.LBE95:
 750              	.LBE94:
 751              		.loc 1 517 0
 752 00ba 2846     		mov	r0, r5
 753 00bc 0121     		movs	r1, #1
 754 00be 0022     		movs	r2, #0
 755 00c0 FFF7FEFF 		bl	send_command_R1
 756              	.LVL93:
 757              		.loc 1 518 0
 758 00c4 0346     		mov	r3, r0
 759              	.LBB97:
 760              	.LBB96:
 761              		.loc 2 673 0
 762 00c6 6420     		movs	r0, #100
 763              	.LVL94:
 764              	.LBE96:
 765              	.LBE97:
 766              		.loc 1 518 0
 767 00c8 002B     		cmp	r3, #0
 768 00ca F0D1     		bne	.L78
 769              	.LBE93:
 770              		.loc 1 531 0
 771 00cc EB6A     		ldr	r3, [r5, #44]
 772 00ce 1868     		ldr	r0, [r3]
 773 00d0 9968     		ldr	r1, [r3, #8]
 774 00d2 FFF7FEFF 		bl	spiStart
 775              	.LVL95:
 776              		.loc 1 534 0
 777 00d6 2846     		mov	r0, r5
 778 00d8 1021     		movs	r1, #16
 779 00da 4FF40072 		mov	r2, #512
 780 00de FFF7FEFF 		bl	send_command_R1
 781              	.LVL96:
 782 00e2 0028     		cmp	r0, #0
 783 00e4 ACD1     		bne	.L48
 784              		.loc 1 540 0
 785 00e6 05F11804 		add	r4, r5, #24
 786              	.LVL97:
 787 00ea 2246     		mov	r2, r4
 788 00ec 2846     		mov	r0, r5
 789 00ee 0921     		movs	r1, #9
 790 00f0 FFF7FEFF 		bl	read_CxD
 791              	.LVL98:
 792 00f4 0028     		cmp	r0, #0
 793 00f6 A3D1     		bne	.L48
ARM GAS  /tmp/ccuP74Wa.s 			page 15


 794              		.loc 1 544 0
 795 00f8 2046     		mov	r0, r4
 796 00fa FFF7FEFF 		bl	_mmcsd_get_capacity
 797              	.LVL99:
 798 00fe A862     		str	r0, [r5, #40]
 799              		.loc 1 545 0
 800 0100 0028     		cmp	r0, #0
 801 0102 9DD0     		beq	.L48
 802              		.loc 1 549 0
 803 0104 2846     		mov	r0, r5
 804 0106 0A21     		movs	r1, #10
 805 0108 05F10802 		add	r2, r5, #8
 806 010c FFF7FEFF 		bl	read_CxD
 807              	.LVL100:
 808 0110 0028     		cmp	r0, #0
 809 0112 95D1     		bne	.L48
 810              		.loc 1 553 0
 811 0114 0523     		movs	r3, #5
 812 0116 2B71     		strb	r3, [r5, #4]
 813              		.loc 1 554 0
 814 0118 99E7     		b	.L60
 815              	.L80:
 816 011a 00BF     		.align	2
 817              	.L79:
 818 011c AA010040 		.word	1073742250
 819              		.cfi_endproc
 820              	.LFE287:
 821              		.size	mmcConnect, .-mmcConnect
 822              		.section	.text.sync.isra.2,"ax",%progbits
 823              		.align	2
 824              		.p2align 4,,15
 825              		.thumb
 826              		.thumb_func
 827              		.type	sync.isra.2, %function
 828              	sync.isra.2:
 829              	.LFB300:
 830              		.loc 1 354 0
 831              		.cfi_startproc
 832              		@ args = 0, pretend = 0, frame = 8
 833              		@ frame_needed = 0, uses_anonymous_args = 0
 834              	.LVL101:
 835 0000 10B5     		push	{r4, lr}
 836              		.cfi_def_cfa_offset 8
 837              		.cfi_offset 4, -8
 838              		.cfi_offset 14, -4
 839              		.loc 1 357 0
 840 0002 0368     		ldr	r3, [r0]
 841              		.loc 1 354 0
 842 0004 0446     		mov	r4, r0
 843 0006 82B0     		sub	sp, sp, #8
 844              		.cfi_def_cfa_offset 16
 845              		.loc 1 357 0
 846 0008 1868     		ldr	r0, [r3]
 847 000a FFF7FEFF 		bl	spiSelect
 848              	.LVL102:
 849 000e 02E0     		b	.L83
 850              	.LVL103:
ARM GAS  /tmp/ccuP74Wa.s 			page 16


 851              	.L84:
 852              	.LBB98:
 853              	.LBB99:
 854              		.loc 2 673 0
 855 0010 0A20     		movs	r0, #10
 856 0012 FFF7FEFF 		bl	chThdSleep
 857              	.LVL104:
 858              	.L83:
 859              	.LBE99:
 860              	.LBE98:
 861              		.loc 1 359 0
 862 0016 2368     		ldr	r3, [r4]
 863 0018 0121     		movs	r1, #1
 864 001a 1868     		ldr	r0, [r3]
 865 001c 01AA     		add	r2, sp, #4
 866 001e FFF7FEFF 		bl	spiReceive
 867              	.LVL105:
 868              		.loc 1 360 0
 869 0022 9DF80430 		ldrb	r3, [sp, #4]	@ zero_extendqisi2
 870 0026 FF2B     		cmp	r3, #255
 871 0028 F2D1     		bne	.L84
 872              		.loc 1 368 0
 873 002a 2368     		ldr	r3, [r4]
 874 002c 1868     		ldr	r0, [r3]
 875 002e FFF7FEFF 		bl	spiUnselect
 876              	.LVL106:
 877              		.loc 1 369 0
 878 0032 02B0     		add	sp, sp, #8
 879              		@ sp needed
 880 0034 10BD     		pop	{r4, pc}
 881              		.cfi_endproc
 882              	.LFE300:
 883              		.size	sync.isra.2, .-sync.isra.2
 884 0036 00BFAFF3 		.section	.text.mmcDisconnect,"ax",%progbits
 884      0080AFF3 
 884      0080
 885              		.align	2
 886              		.p2align 4,,15
 887              		.global	mmcDisconnect
 888              		.thumb
 889              		.thumb_func
 890              		.type	mmcDisconnect, %function
 891              	mmcDisconnect:
 892              	.LFB288:
 893              		.loc 1 575 0
 894              		.cfi_startproc
 895              		@ args = 0, pretend = 0, frame = 0
 896              		@ frame_needed = 0, uses_anonymous_args = 0
 897              	.LVL107:
 898 0000 38B5     		push	{r3, r4, r5, lr}
 899              		.cfi_def_cfa_offset 16
 900              		.cfi_offset 3, -16
 901              		.cfi_offset 4, -12
 902              		.cfi_offset 5, -8
 903              		.cfi_offset 14, -4
 904              		.loc 1 575 0
 905 0002 0446     		mov	r4, r0
ARM GAS  /tmp/ccuP74Wa.s 			page 17


 906              	.LBB130:
 907              	.LBB131:
 908              	.LBB132:
 909              	.LBB133:
 910              	.LBB134:
 911              		.file 3 "../ChibiOS/os/ext/CMSIS/include/core_cmFunc.h"
 912              		.loc 3 548 0
 913 0004 2023     		movs	r3, #32
 914              	@ 548 "../ChibiOS/os/ext/CMSIS/include/core_cmFunc.h" 1
 915 0006 83F31188 		MSR basepri, r3
 916              	@ 0 "" 2
 917              		.thumb
 918              	.LBE134:
 919              	.LBE133:
 920              	.LBE132:
 921              	.LBE131:
 922              	.LBE130:
 923              		.loc 1 582 0
 924 000a 0379     		ldrb	r3, [r0, #4]	@ zero_extendqisi2
 925 000c 022B     		cmp	r3, #2
 926 000e 16D0     		beq	.L88
 927              	.LVL108:
 928              	.LBB135:
 929              	.LBB136:
 930              		.loc 1 586 0
 931 0010 0423     		movs	r3, #4
 932 0012 0371     		strb	r3, [r0, #4]
 933              	.LVL109:
 934              	.LBB137:
 935              	.LBB138:
 936              	.LBB139:
 937              	.LBB140:
 938              	.LBB141:
 939              	.LBB142:
 940              		.loc 3 548 0
 941 0014 0023     		movs	r3, #0
 942              	@ 548 "../ChibiOS/os/ext/CMSIS/include/core_cmFunc.h" 1
 943 0016 83F31188 		MSR basepri, r3
 944              	@ 0 "" 2
 945              		.thumb
 946              	.LBE142:
 947              	.LBE141:
 948              	.LBE140:
 949              	.LBE139:
 950              	.LBE138:
 951              	.LBE137:
 952              		.loc 1 590 0
 953 001a 0546     		mov	r5, r0
 954 001c 55F82C3F 		ldr	r3, [r5, #44]!
 955 0020 9968     		ldr	r1, [r3, #8]
 956 0022 1868     		ldr	r0, [r3]
 957              	.LVL110:
 958 0024 FFF7FEFF 		bl	spiStart
 959              	.LVL111:
 960              		.loc 1 591 0
 961 0028 2846     		mov	r0, r5
 962 002a FFF7FEFF 		bl	sync.isra.2
ARM GAS  /tmp/ccuP74Wa.s 			page 18


 963              	.LVL112:
 964              		.loc 1 593 0
 965 002e E36A     		ldr	r3, [r4, #44]
 966 0030 1868     		ldr	r0, [r3]
 967 0032 FFF7FEFF 		bl	spiStop
 968              	.LVL113:
 969              		.loc 1 594 0
 970 0036 0223     		movs	r3, #2
 971 0038 2371     		strb	r3, [r4, #4]
 972              	.LBE136:
 973              	.LBE135:
 974              		.loc 1 596 0
 975 003a 0020     		movs	r0, #0
 976 003c 38BD     		pop	{r3, r4, r5, pc}
 977              	.LVL114:
 978              	.L88:
 979              	.LBB143:
 980              	.LBB144:
 981              	.LBB145:
 982              	.LBB146:
 983              	.LBB147:
 984              	.LBB148:
 985              		.loc 3 548 0
 986 003e 0023     		movs	r3, #0
 987              	@ 548 "../ChibiOS/os/ext/CMSIS/include/core_cmFunc.h" 1
 988 0040 83F31188 		MSR basepri, r3
 989              	@ 0 "" 2
 990              		.thumb
 991              	.LBE148:
 992              	.LBE147:
 993              	.LBE146:
 994              	.LBE145:
 995              	.LBE144:
 996              	.LBE143:
 997              		.loc 1 596 0
 998 0044 0020     		movs	r0, #0
 999              	.LVL115:
 1000 0046 38BD     		pop	{r3, r4, r5, pc}
 1001              		.cfi_endproc
 1002              	.LFE288:
 1003              		.size	mmcDisconnect, .-mmcDisconnect
 1004 0048 AFF30080 		.section	.text.mmcSync,"ax",%progbits
 1004      AFF30080 
 1005              		.align	2
 1006              		.p2align 4,,15
 1007              		.global	mmcSync
 1008              		.thumb
 1009              		.thumb_func
 1010              		.type	mmcSync, %function
 1011              	mmcSync:
 1012              	.LFB295:
 1013              		.loc 1 823 0
 1014              		.cfi_startproc
 1015              		@ args = 0, pretend = 0, frame = 0
 1016              		@ frame_needed = 0, uses_anonymous_args = 0
 1017              	.LVL116:
 1018 0000 70B5     		push	{r4, r5, r6, lr}
ARM GAS  /tmp/ccuP74Wa.s 			page 19


 1019              		.cfi_def_cfa_offset 16
 1020              		.cfi_offset 4, -16
 1021              		.cfi_offset 5, -12
 1022              		.cfi_offset 6, -8
 1023              		.cfi_offset 14, -4
 1024              		.loc 1 827 0
 1025 0002 0579     		ldrb	r5, [r0, #4]	@ zero_extendqisi2
 1026 0004 052D     		cmp	r5, #5
 1027              		.loc 1 823 0
 1028 0006 0446     		mov	r4, r0
 1029              		.loc 1 827 0
 1030 0008 01D0     		beq	.L92
 1031              		.loc 1 828 0
 1032 000a 0120     		movs	r0, #1
 1033              	.LVL117:
 1034              		.loc 1 840 0
 1035 000c 70BD     		pop	{r4, r5, r6, pc}
 1036              	.LVL118:
 1037              	.L92:
 1038              	.LBB151:
 1039              	.LBB152:
 1040              		.loc 1 834 0
 1041 000e 0646     		mov	r6, r0
 1042              		.loc 1 832 0
 1043 0010 0822     		movs	r2, #8
 1044              		.loc 1 834 0
 1045 0012 56F82C3F 		ldr	r3, [r6, #44]!
 1046              		.loc 1 832 0
 1047 0016 0271     		strb	r2, [r0, #4]
 1048              		.loc 1 834 0
 1049 0018 9968     		ldr	r1, [r3, #8]
 1050 001a 1868     		ldr	r0, [r3]
 1051              	.LVL119:
 1052 001c FFF7FEFF 		bl	spiStart
 1053              	.LVL120:
 1054              		.loc 1 835 0
 1055 0020 3046     		mov	r0, r6
 1056 0022 FFF7FEFF 		bl	sync.isra.2
 1057              	.LVL121:
 1058              		.loc 1 838 0
 1059 0026 2571     		strb	r5, [r4, #4]
 1060 0028 0020     		movs	r0, #0
 1061 002a 70BD     		pop	{r4, r5, r6, pc}
 1062              	.LBE152:
 1063              	.LBE151:
 1064              		.cfi_endproc
 1065              	.LFE295:
 1066              		.size	mmcSync, .-mmcSync
 1067 002c AFF30080 		.section	.text.mmcInit,"ax",%progbits
 1068              		.align	2
 1069              		.p2align 4,,15
 1070              		.global	mmcInit
 1071              		.thumb
 1072              		.thumb_func
 1073              		.type	mmcInit, %function
 1074              	mmcInit:
 1075              	.LFB283:
ARM GAS  /tmp/ccuP74Wa.s 			page 20


 1076              		.loc 1 382 0
 1077              		.cfi_startproc
 1078              		@ args = 0, pretend = 0, frame = 0
 1079              		@ frame_needed = 0, uses_anonymous_args = 0
 1080              		@ link register save eliminated.
 1081 0000 7047     		bx	lr
 1082              		.cfi_endproc
 1083              	.LFE283:
 1084              		.size	mmcInit, .-mmcInit
 1085 0002 00BFAFF3 		.section	.text.mmcObjectInit,"ax",%progbits
 1085      0080AFF3 
 1085      0080AFF3 
 1085      0080
 1086              		.align	2
 1087              		.p2align 4,,15
 1088              		.global	mmcObjectInit
 1089              		.thumb
 1090              		.thumb_func
 1091              		.type	mmcObjectInit, %function
 1092              	mmcObjectInit:
 1093              	.LFB284:
 1094              		.loc 1 393 0
 1095              		.cfi_startproc
 1096              		@ args = 0, pretend = 0, frame = 0
 1097              		@ frame_needed = 0, uses_anonymous_args = 0
 1098              		@ link register save eliminated.
 1099              	.LVL122:
 1100              		.loc 1 395 0
 1101 0000 044B     		ldr	r3, .L95
 1102 0002 0360     		str	r3, [r0]
 1103              		.loc 1 396 0
 1104 0004 0122     		movs	r2, #1
 1105              		.loc 1 397 0
 1106 0006 0023     		movs	r3, #0
 1107              		.loc 1 396 0
 1108 0008 0271     		strb	r2, [r0, #4]
 1109              		.loc 1 397 0
 1110 000a C362     		str	r3, [r0, #44]
 1111              		.loc 1 398 0
 1112 000c 80F83030 		strb	r3, [r0, #48]
 1113 0010 7047     		bx	lr
 1114              	.L96:
 1115 0012 00BF     		.align	2
 1116              	.L95:
 1117 0014 00000000 		.word	.LANCHOR1
 1118              		.cfi_endproc
 1119              	.LFE284:
 1120              		.size	mmcObjectInit, .-mmcObjectInit
 1121 0018 AFF30080 		.section	.text.mmcStart,"ax",%progbits
 1121      AFF30080 
 1122              		.align	2
 1123              		.p2align 4,,15
 1124              		.global	mmcStart
 1125              		.thumb
 1126              		.thumb_func
 1127              		.type	mmcStart, %function
 1128              	mmcStart:
ARM GAS  /tmp/ccuP74Wa.s 			page 21


 1129              	.LFB285:
 1130              		.loc 1 409 0
 1131              		.cfi_startproc
 1132              		@ args = 0, pretend = 0, frame = 0
 1133              		@ frame_needed = 0, uses_anonymous_args = 0
 1134              		@ link register save eliminated.
 1135              	.LVL123:
 1136              		.loc 1 416 0
 1137 0000 0223     		movs	r3, #2
 1138              		.loc 1 415 0
 1139 0002 C162     		str	r1, [r0, #44]
 1140              		.loc 1 416 0
 1141 0004 0371     		strb	r3, [r0, #4]
 1142 0006 7047     		bx	lr
 1143              		.cfi_endproc
 1144              	.LFE285:
 1145              		.size	mmcStart, .-mmcStart
 1146 0008 AFF30080 		.section	.text.mmcStop,"ax",%progbits
 1146      AFF30080 
 1147              		.align	2
 1148              		.p2align 4,,15
 1149              		.global	mmcStop
 1150              		.thumb
 1151              		.thumb_func
 1152              		.type	mmcStop, %function
 1153              	mmcStop:
 1154              	.LFB286:
 1155              		.loc 1 426 0
 1156              		.cfi_startproc
 1157              		@ args = 0, pretend = 0, frame = 0
 1158              		@ frame_needed = 0, uses_anonymous_args = 0
 1159              	.LVL124:
 1160 0000 10B5     		push	{r4, lr}
 1161              		.cfi_def_cfa_offset 8
 1162              		.cfi_offset 4, -8
 1163              		.cfi_offset 14, -4
 1164              		.loc 1 432 0
 1165 0002 C36A     		ldr	r3, [r0, #44]
 1166              		.loc 1 426 0
 1167 0004 0446     		mov	r4, r0
 1168              		.loc 1 432 0
 1169 0006 1868     		ldr	r0, [r3]
 1170              	.LVL125:
 1171 0008 FFF7FEFF 		bl	spiStop
 1172              	.LVL126:
 1173              		.loc 1 433 0
 1174 000c 0123     		movs	r3, #1
 1175 000e 2371     		strb	r3, [r4, #4]
 1176 0010 10BD     		pop	{r4, pc}
 1177              		.cfi_endproc
 1178              	.LFE286:
 1179              		.size	mmcStop, .-mmcStop
 1180 0012 00BFAFF3 		.section	.text.mmcStartSequentialRead,"ax",%progbits
 1180      0080AFF3 
 1180      0080AFF3 
 1180      0080
 1181              		.align	2
ARM GAS  /tmp/ccuP74Wa.s 			page 22


 1182              		.p2align 4,,15
 1183              		.global	mmcStartSequentialRead
 1184              		.thumb
 1185              		.thumb_func
 1186              		.type	mmcStartSequentialRead, %function
 1187              	mmcStartSequentialRead:
 1188              	.LFB289:
 1189              		.loc 1 610 0
 1190              		.cfi_startproc
 1191              		@ args = 0, pretend = 0, frame = 0
 1192              		@ frame_needed = 0, uses_anonymous_args = 0
 1193              	.LVL127:
 1194 0000 38B5     		push	{r3, r4, r5, lr}
 1195              		.cfi_def_cfa_offset 16
 1196              		.cfi_offset 3, -16
 1197              		.cfi_offset 4, -12
 1198              		.cfi_offset 5, -8
 1199              		.cfi_offset 14, -4
 1200              		.loc 1 620 0
 1201 0002 C36A     		ldr	r3, [r0, #44]
 1202              		.loc 1 610 0
 1203 0004 0446     		mov	r4, r0
 1204              		.loc 1 616 0
 1205 0006 0622     		movs	r2, #6
 1206 0008 0271     		strb	r2, [r0, #4]
 1207              		.loc 1 610 0
 1208 000a 0D46     		mov	r5, r1
 1209              		.loc 1 620 0
 1210 000c 1868     		ldr	r0, [r3]
 1211              	.LVL128:
 1212 000e 9968     		ldr	r1, [r3, #8]
 1213              	.LVL129:
 1214 0010 FFF7FEFF 		bl	spiStart
 1215              	.LVL130:
 1216              		.loc 1 621 0
 1217 0014 E36A     		ldr	r3, [r4, #44]
 1218 0016 1868     		ldr	r0, [r3]
 1219 0018 FFF7FEFF 		bl	spiSelect
 1220              	.LVL131:
 1221              		.loc 1 623 0
 1222 001c 94F83030 		ldrb	r3, [r4, #48]	@ zero_extendqisi2
 1223 0020 8BB1     		cbz	r3, .L100
 1224              		.loc 1 624 0
 1225 0022 2A46     		mov	r2, r5
 1226 0024 2046     		mov	r0, r4
 1227 0026 1221     		movs	r1, #18
 1228 0028 FFF7FEFF 		bl	send_hdr
 1229              	.LVL132:
 1230              	.L101:
 1231              		.loc 1 630 0
 1232 002c 04F12C00 		add	r0, r4, #44
 1233 0030 FFF7FEFF 		bl	recvr1.isra.0
 1234              	.LVL133:
 1235 0034 30B1     		cbz	r0, .L102
 1236              		.loc 1 631 0
 1237 0036 E36A     		ldr	r3, [r4, #44]
 1238 0038 1868     		ldr	r0, [r3]
ARM GAS  /tmp/ccuP74Wa.s 			page 23


 1239 003a FFF7FEFF 		bl	spiStop
 1240              	.LVL134:
 1241              		.loc 1 632 0
 1242 003e 0523     		movs	r3, #5
 1243 0040 2371     		strb	r3, [r4, #4]
 1244              		.loc 1 633 0
 1245 0042 0120     		movs	r0, #1
 1246              	.L102:
 1247              		.loc 1 636 0
 1248 0044 38BD     		pop	{r3, r4, r5, pc}
 1249              	.LVL135:
 1250              	.L100:
 1251              		.loc 1 627 0
 1252 0046 6A02     		lsls	r2, r5, #9
 1253 0048 2046     		mov	r0, r4
 1254 004a 1221     		movs	r1, #18
 1255 004c FFF7FEFF 		bl	send_hdr
 1256              	.LVL136:
 1257 0050 ECE7     		b	.L101
 1258              		.cfi_endproc
 1259              	.LFE289:
 1260              		.size	mmcStartSequentialRead, .-mmcStartSequentialRead
 1261 0052 00BFAFF3 		.section	.text.mmcSequentialRead,"ax",%progbits
 1261      0080AFF3 
 1261      0080AFF3 
 1261      0080
 1262              		.align	2
 1263              		.p2align 4,,15
 1264              		.global	mmcSequentialRead
 1265              		.thumb
 1266              		.thumb_func
 1267              		.type	mmcSequentialRead, %function
 1268              	mmcSequentialRead:
 1269              	.LFB290:
 1270              		.loc 1 650 0
 1271              		.cfi_startproc
 1272              		@ args = 0, pretend = 0, frame = 0
 1273              		@ frame_needed = 0, uses_anonymous_args = 0
 1274              	.LVL137:
 1275              		.loc 1 655 0
 1276 0000 0379     		ldrb	r3, [r0, #4]	@ zero_extendqisi2
 1277 0002 062B     		cmp	r3, #6
 1278              		.loc 1 650 0
 1279 0004 70B5     		push	{r4, r5, r6, lr}
 1280              		.cfi_def_cfa_offset 16
 1281              		.cfi_offset 4, -16
 1282              		.cfi_offset 5, -12
 1283              		.cfi_offset 6, -8
 1284              		.cfi_offset 14, -4
 1285              		.loc 1 650 0
 1286 0006 0646     		mov	r6, r0
 1287 0008 0D46     		mov	r5, r1
 1288              		.loc 1 655 0
 1289 000a 01D0     		beq	.L110
 1290              		.loc 1 656 0
 1291 000c 0120     		movs	r0, #1
 1292              	.LVL138:
ARM GAS  /tmp/ccuP74Wa.s 			page 24


 1293              		.loc 1 673 0
 1294 000e 70BD     		pop	{r4, r5, r6, pc}
 1295              	.LVL139:
 1296              	.L110:
 1297              		.loc 1 655 0
 1298 0010 42F21074 		movw	r4, #10000
 1299 0014 01E0     		b	.L108
 1300              	.LVL140:
 1301              	.L106:
 1302              		.loc 1 659 0
 1303 0016 013C     		subs	r4, r4, #1
 1304              	.LVL141:
 1305 0018 16D0     		beq	.L111
 1306              	.LVL142:
 1307              	.L108:
 1308              		.loc 1 660 0
 1309 001a F36A     		ldr	r3, [r6, #44]
 1310 001c 0121     		movs	r1, #1
 1311 001e 1868     		ldr	r0, [r3]
 1312 0020 2A46     		mov	r2, r5
 1313 0022 FFF7FEFF 		bl	spiReceive
 1314              	.LVL143:
 1315              		.loc 1 661 0
 1316 0026 2B78     		ldrb	r3, [r5]	@ zero_extendqisi2
 1317 0028 FE2B     		cmp	r3, #254
 1318 002a F4D1     		bne	.L106
 1319              		.loc 1 662 0
 1320 002c F36A     		ldr	r3, [r6, #44]
 1321 002e 2A46     		mov	r2, r5
 1322 0030 1868     		ldr	r0, [r3]
 1323 0032 4FF40071 		mov	r1, #512
 1324 0036 FFF7FEFF 		bl	spiReceive
 1325              	.LVL144:
 1326              		.loc 1 664 0
 1327 003a F36A     		ldr	r3, [r6, #44]
 1328 003c 0221     		movs	r1, #2
 1329 003e 1868     		ldr	r0, [r3]
 1330 0040 FFF7FEFF 		bl	spiIgnore
 1331              	.LVL145:
 1332              		.loc 1 665 0
 1333 0044 0020     		movs	r0, #0
 1334 0046 70BD     		pop	{r4, r5, r6, pc}
 1335              	.LVL146:
 1336              	.L111:
 1337              		.loc 1 669 0
 1338 0048 F36A     		ldr	r3, [r6, #44]
 1339 004a 1868     		ldr	r0, [r3]
 1340 004c FFF7FEFF 		bl	spiUnselect
 1341              	.LVL147:
 1342              		.loc 1 670 0
 1343 0050 F36A     		ldr	r3, [r6, #44]
 1344 0052 1868     		ldr	r0, [r3]
 1345 0054 FFF7FEFF 		bl	spiStop
 1346              	.LVL148:
 1347              		.loc 1 671 0
 1348 0058 0523     		movs	r3, #5
 1349 005a 3371     		strb	r3, [r6, #4]
ARM GAS  /tmp/ccuP74Wa.s 			page 25


 1350              		.loc 1 672 0
 1351 005c 0120     		movs	r0, #1
 1352 005e 70BD     		pop	{r4, r5, r6, pc}
 1353              		.cfi_endproc
 1354              	.LFE290:
 1355              		.size	mmcSequentialRead, .-mmcSequentialRead
 1356              		.section	.text.mmcStopSequentialRead,"ax",%progbits
 1357              		.align	2
 1358              		.p2align 4,,15
 1359              		.global	mmcStopSequentialRead
 1360              		.thumb
 1361              		.thumb_func
 1362              		.type	mmcStopSequentialRead, %function
 1363              	mmcStopSequentialRead:
 1364              	.LFB291:
 1365              		.loc 1 686 0
 1366              		.cfi_startproc
 1367              		@ args = 0, pretend = 0, frame = 0
 1368              		@ frame_needed = 0, uses_anonymous_args = 0
 1369              	.LVL149:
 1370 0000 38B5     		push	{r3, r4, r5, lr}
 1371              		.cfi_def_cfa_offset 16
 1372              		.cfi_offset 3, -16
 1373              		.cfi_offset 4, -12
 1374              		.cfi_offset 5, -8
 1375              		.cfi_offset 14, -4
 1376              		.loc 1 693 0
 1377 0002 0379     		ldrb	r3, [r0, #4]	@ zero_extendqisi2
 1378 0004 062B     		cmp	r3, #6
 1379              		.loc 1 686 0
 1380 0006 0446     		mov	r4, r0
 1381              		.loc 1 693 0
 1382 0008 01D0     		beq	.L115
 1383              		.loc 1 694 0
 1384 000a 0120     		movs	r0, #1
 1385              	.LVL150:
 1386              		.loc 1 706 0
 1387 000c 38BD     		pop	{r3, r4, r5, pc}
 1388              	.LVL151:
 1389              	.L115:
 1390              		.loc 1 697 0
 1391 000e 0546     		mov	r5, r0
 1392 0010 0721     		movs	r1, #7
 1393 0012 55F82C3F 		ldr	r3, [r5, #44]!
 1394 0016 074A     		ldr	r2, .L116
 1395 0018 1868     		ldr	r0, [r3]
 1396              	.LVL152:
 1397 001a FFF7FEFF 		bl	spiSend
 1398              	.LVL153:
 1399              		.loc 1 700 0
 1400 001e 2846     		mov	r0, r5
 1401 0020 FFF7FEFF 		bl	recvr1.isra.0
 1402              	.LVL154:
 1403              		.loc 1 703 0
 1404 0024 E36A     		ldr	r3, [r4, #44]
 1405 0026 1868     		ldr	r0, [r3]
 1406 0028 FFF7FEFF 		bl	spiUnselect
ARM GAS  /tmp/ccuP74Wa.s 			page 26


 1407              	.LVL155:
 1408              		.loc 1 704 0
 1409 002c 0523     		movs	r3, #5
 1410 002e 2371     		strb	r3, [r4, #4]
 1411              		.loc 1 705 0
 1412 0030 0020     		movs	r0, #0
 1413 0032 38BD     		pop	{r3, r4, r5, pc}
 1414              	.LVL156:
 1415              	.L117:
 1416              		.align	2
 1417              	.L116:
 1418 0034 00000000 		.word	.LANCHOR2
 1419              		.cfi_endproc
 1420              	.LFE291:
 1421              		.size	mmcStopSequentialRead, .-mmcStopSequentialRead
 1422 0038 AFF30080 		.section	.text.mmc_read,"ax",%progbits
 1422      AFF30080 
 1423              		.align	2
 1424              		.p2align 4,,15
 1425              		.thumb
 1426              		.thumb_func
 1427              		.type	mmc_read, %function
 1428              	mmc_read:
 1429              	.LFB272:
 1430              		.loc 1 99 0
 1431              		.cfi_startproc
 1432              		@ args = 0, pretend = 0, frame = 0
 1433              		@ frame_needed = 0, uses_anonymous_args = 0
 1434              	.LVL157:
 1435 0000 70B5     		push	{r4, r5, r6, lr}
 1436              		.cfi_def_cfa_offset 16
 1437              		.cfi_offset 4, -16
 1438              		.cfi_offset 5, -12
 1439              		.cfi_offset 6, -8
 1440              		.cfi_offset 14, -4
 1441              		.loc 1 99 0
 1442 0002 1446     		mov	r4, r2
 1443 0004 1D46     		mov	r5, r3
 1444 0006 0646     		mov	r6, r0
 1445              		.loc 1 101 0
 1446 0008 FFF7FEFF 		bl	mmcStartSequentialRead
 1447              	.LVL158:
 1448 000c 58B9     		cbnz	r0, .L120
 1449              		.loc 1 105 0 discriminator 1
 1450 000e 15B9     		cbnz	r5, .L124
 1451 0010 0BE0     		b	.L123
 1452              	.LVL159:
 1453              	.L128:
 1454              		.loc 1 105 0 is_stmt 0
 1455 0012 013D     		subs	r5, r5, #1
 1456              	.LVL160:
 1457 0014 09D0     		beq	.L123
 1458              	.LVL161:
 1459              	.L124:
 1460              		.loc 1 106 0 is_stmt 1
 1461 0016 2146     		mov	r1, r4
 1462 0018 3046     		mov	r0, r6
ARM GAS  /tmp/ccuP74Wa.s 			page 27


 1463 001a FFF7FEFF 		bl	mmcSequentialRead
 1464              	.LVL162:
 1465              		.loc 1 109 0
 1466 001e 04F50074 		add	r4, r4, #512
 1467              	.LVL163:
 1468              		.loc 1 106 0
 1469 0022 0028     		cmp	r0, #0
 1470 0024 F5D0     		beq	.L128
 1471              	.LVL164:
 1472              	.L120:
 1473              		.loc 1 117 0
 1474 0026 0120     		movs	r0, #1
 1475 0028 70BD     		pop	{r4, r5, r6, pc}
 1476              	.LVL165:
 1477              	.L123:
 1478              	.LBB155:
 1479              	.LBB156:
 1480              		.loc 1 113 0
 1481 002a 3046     		mov	r0, r6
 1482              	.LBE156:
 1483              	.LBE155:
 1484              		.loc 1 117 0
 1485 002c BDE87040 		pop	{r4, r5, r6, lr}
 1486              	.LVL166:
 1487              	.LBB158:
 1488              	.LBB157:
 1489              		.loc 1 113 0
 1490 0030 FFF7FEBF 		b	mmcStopSequentialRead
 1491              	.LVL167:
 1492              	.LBE157:
 1493              	.LBE158:
 1494              		.cfi_endproc
 1495              	.LFE272:
 1496              		.size	mmc_read, .-mmc_read
 1497 0034 AFF30080 		.section	.text.mmcStartSequentialWrite,"ax",%progbits
 1497      AFF30080 
 1497      AFF30080 
 1498              		.align	2
 1499              		.p2align 4,,15
 1500              		.global	mmcStartSequentialWrite
 1501              		.thumb
 1502              		.thumb_func
 1503              		.type	mmcStartSequentialWrite, %function
 1504              	mmcStartSequentialWrite:
 1505              	.LFB292:
 1506              		.loc 1 720 0
 1507              		.cfi_startproc
 1508              		@ args = 0, pretend = 0, frame = 0
 1509              		@ frame_needed = 0, uses_anonymous_args = 0
 1510              	.LVL168:
 1511 0000 38B5     		push	{r3, r4, r5, lr}
 1512              		.cfi_def_cfa_offset 16
 1513              		.cfi_offset 3, -16
 1514              		.cfi_offset 4, -12
 1515              		.cfi_offset 5, -8
 1516              		.cfi_offset 14, -4
 1517              		.loc 1 728 0
ARM GAS  /tmp/ccuP74Wa.s 			page 28


 1518 0002 C36A     		ldr	r3, [r0, #44]
 1519              		.loc 1 720 0
 1520 0004 0446     		mov	r4, r0
 1521              		.loc 1 726 0
 1522 0006 0722     		movs	r2, #7
 1523 0008 0271     		strb	r2, [r0, #4]
 1524              		.loc 1 720 0
 1525 000a 0D46     		mov	r5, r1
 1526              		.loc 1 728 0
 1527 000c 1868     		ldr	r0, [r3]
 1528              	.LVL169:
 1529 000e 9968     		ldr	r1, [r3, #8]
 1530              	.LVL170:
 1531 0010 FFF7FEFF 		bl	spiStart
 1532              	.LVL171:
 1533              		.loc 1 729 0
 1534 0014 E36A     		ldr	r3, [r4, #44]
 1535 0016 1868     		ldr	r0, [r3]
 1536 0018 FFF7FEFF 		bl	spiSelect
 1537              	.LVL172:
 1538              		.loc 1 730 0
 1539 001c 94F83030 		ldrb	r3, [r4, #48]	@ zero_extendqisi2
 1540 0020 8BB1     		cbz	r3, .L130
 1541              		.loc 1 731 0
 1542 0022 2A46     		mov	r2, r5
 1543 0024 2046     		mov	r0, r4
 1544 0026 1921     		movs	r1, #25
 1545 0028 FFF7FEFF 		bl	send_hdr
 1546              	.LVL173:
 1547              	.L131:
 1548              		.loc 1 738 0
 1549 002c 04F12C00 		add	r0, r4, #44
 1550 0030 FFF7FEFF 		bl	recvr1.isra.0
 1551              	.LVL174:
 1552 0034 30B1     		cbz	r0, .L132
 1553              		.loc 1 739 0
 1554 0036 E36A     		ldr	r3, [r4, #44]
 1555 0038 1868     		ldr	r0, [r3]
 1556 003a FFF7FEFF 		bl	spiStop
 1557              	.LVL175:
 1558              		.loc 1 740 0
 1559 003e 0523     		movs	r3, #5
 1560 0040 2371     		strb	r3, [r4, #4]
 1561              		.loc 1 741 0
 1562 0042 0120     		movs	r0, #1
 1563              	.L132:
 1564              		.loc 1 744 0
 1565 0044 38BD     		pop	{r3, r4, r5, pc}
 1566              	.LVL176:
 1567              	.L130:
 1568              		.loc 1 734 0
 1569 0046 6A02     		lsls	r2, r5, #9
 1570 0048 2046     		mov	r0, r4
 1571 004a 1921     		movs	r1, #25
 1572 004c FFF7FEFF 		bl	send_hdr
 1573              	.LVL177:
 1574 0050 ECE7     		b	.L131
ARM GAS  /tmp/ccuP74Wa.s 			page 29


 1575              		.cfi_endproc
 1576              	.LFE292:
 1577              		.size	mmcStartSequentialWrite, .-mmcStartSequentialWrite
 1578 0052 00BFAFF3 		.section	.text.mmcSequentialWrite,"ax",%progbits
 1578      0080AFF3 
 1578      0080AFF3 
 1578      0080
 1579              		.align	2
 1580              		.p2align 4,,15
 1581              		.global	mmcSequentialWrite
 1582              		.thumb
 1583              		.thumb_func
 1584              		.type	mmcSequentialWrite, %function
 1585              	mmcSequentialWrite:
 1586              	.LFB293:
 1587              		.loc 1 758 0
 1588              		.cfi_startproc
 1589              		@ args = 0, pretend = 0, frame = 8
 1590              		@ frame_needed = 0, uses_anonymous_args = 0
 1591              	.LVL178:
 1592 0000 30B5     		push	{r4, r5, lr}
 1593              		.cfi_def_cfa_offset 12
 1594              		.cfi_offset 4, -12
 1595              		.cfi_offset 5, -8
 1596              		.cfi_offset 14, -4
 1597              		.loc 1 764 0
 1598 0002 0379     		ldrb	r3, [r0, #4]	@ zero_extendqisi2
 1599 0004 072B     		cmp	r3, #7
 1600              		.loc 1 758 0
 1601 0006 83B0     		sub	sp, sp, #12
 1602              		.cfi_def_cfa_offset 24
 1603              		.loc 1 758 0
 1604 0008 0446     		mov	r4, r0
 1605 000a 0D46     		mov	r5, r1
 1606              		.loc 1 764 0
 1607 000c 02D0     		beq	.L138
 1608              		.loc 1 765 0
 1609 000e 0120     		movs	r0, #1
 1610              	.LVL179:
 1611              	.L135:
 1612              		.loc 1 782 0
 1613 0010 03B0     		add	sp, sp, #12
 1614              		@ sp needed
 1615 0012 30BD     		pop	{r4, r5, pc}
 1616              	.LVL180:
 1617              	.L138:
 1618              		.loc 1 768 0
 1619 0014 C36A     		ldr	r3, [r0, #44]
 1620 0016 184A     		ldr	r2, .L140
 1621 0018 1868     		ldr	r0, [r3]
 1622              	.LVL181:
 1623 001a 0221     		movs	r1, #2
 1624              	.LVL182:
 1625 001c FFF7FEFF 		bl	spiSend
 1626              	.LVL183:
 1627              		.loc 1 769 0
 1628 0020 E36A     		ldr	r3, [r4, #44]
ARM GAS  /tmp/ccuP74Wa.s 			page 30


 1629 0022 2A46     		mov	r2, r5
 1630 0024 1868     		ldr	r0, [r3]
 1631 0026 4FF40071 		mov	r1, #512
 1632 002a FFF7FEFF 		bl	spiSend
 1633              	.LVL184:
 1634              		.loc 1 770 0
 1635 002e E36A     		ldr	r3, [r4, #44]
 1636 0030 0221     		movs	r1, #2
 1637 0032 1868     		ldr	r0, [r3]
 1638 0034 FFF7FEFF 		bl	spiIgnore
 1639              	.LVL185:
 1640              		.loc 1 771 0
 1641 0038 E36A     		ldr	r3, [r4, #44]
 1642 003a 0121     		movs	r1, #1
 1643 003c 1868     		ldr	r0, [r3]
 1644 003e 01AA     		add	r2, sp, #4
 1645 0040 FFF7FEFF 		bl	spiReceive
 1646              	.LVL186:
 1647              		.loc 1 772 0
 1648 0044 9DF80430 		ldrb	r3, [sp, #4]	@ zero_extendqisi2
 1649 0048 03F01F03 		and	r3, r3, #31
 1650 004c 052B     		cmp	r3, #5
 1651 004e 0CD0     		beq	.L139
 1652              		.loc 1 778 0
 1653 0050 E36A     		ldr	r3, [r4, #44]
 1654 0052 1868     		ldr	r0, [r3]
 1655 0054 FFF7FEFF 		bl	spiUnselect
 1656              	.LVL187:
 1657              		.loc 1 779 0
 1658 0058 E36A     		ldr	r3, [r4, #44]
 1659 005a 1868     		ldr	r0, [r3]
 1660 005c FFF7FEFF 		bl	spiStop
 1661              	.LVL188:
 1662              		.loc 1 780 0
 1663 0060 0523     		movs	r3, #5
 1664              		.loc 1 781 0
 1665 0062 0120     		movs	r0, #1
 1666              		.loc 1 780 0
 1667 0064 2371     		strb	r3, [r4, #4]
 1668              		.loc 1 782 0
 1669 0066 03B0     		add	sp, sp, #12
 1670              		@ sp needed
 1671 0068 30BD     		pop	{r4, r5, pc}
 1672              	.LVL189:
 1673              	.L139:
 1674              		.loc 1 773 0
 1675 006a 04F12C00 		add	r0, r4, #44
 1676 006e FFF7FEFF 		bl	wait.isra.1
 1677              	.LVL190:
 1678              		.loc 1 774 0
 1679 0072 0020     		movs	r0, #0
 1680 0074 CCE7     		b	.L135
 1681              	.L141:
 1682 0076 00BF     		.align	2
 1683              	.L140:
 1684 0078 00000000 		.word	.LANCHOR3
 1685              		.cfi_endproc
ARM GAS  /tmp/ccuP74Wa.s 			page 31


 1686              	.LFE293:
 1687              		.size	mmcSequentialWrite, .-mmcSequentialWrite
 1688 007c AFF30080 		.section	.text.mmcStopSequentialWrite,"ax",%progbits
 1689              		.align	2
 1690              		.p2align 4,,15
 1691              		.global	mmcStopSequentialWrite
 1692              		.thumb
 1693              		.thumb_func
 1694              		.type	mmcStopSequentialWrite, %function
 1695              	mmcStopSequentialWrite:
 1696              	.LFB294:
 1697              		.loc 1 795 0
 1698              		.cfi_startproc
 1699              		@ args = 0, pretend = 0, frame = 0
 1700              		@ frame_needed = 0, uses_anonymous_args = 0
 1701              	.LVL191:
 1702              		.loc 1 800 0
 1703 0000 0379     		ldrb	r3, [r0, #4]	@ zero_extendqisi2
 1704 0002 072B     		cmp	r3, #7
 1705              		.loc 1 795 0
 1706 0004 10B5     		push	{r4, lr}
 1707              		.cfi_def_cfa_offset 8
 1708              		.cfi_offset 4, -8
 1709              		.cfi_offset 14, -4
 1710              		.loc 1 795 0
 1711 0006 0446     		mov	r4, r0
 1712              		.loc 1 800 0
 1713 0008 01D0     		beq	.L145
 1714              		.loc 1 801 0
 1715 000a 0120     		movs	r0, #1
 1716              	.LVL192:
 1717              		.loc 1 810 0
 1718 000c 10BD     		pop	{r4, pc}
 1719              	.LVL193:
 1720              	.L145:
 1721              		.loc 1 804 0
 1722 000e C36A     		ldr	r3, [r0, #44]
 1723 0010 064A     		ldr	r2, .L146
 1724 0012 1868     		ldr	r0, [r3]
 1725              	.LVL194:
 1726 0014 0221     		movs	r1, #2
 1727 0016 FFF7FEFF 		bl	spiSend
 1728              	.LVL195:
 1729              		.loc 1 805 0
 1730 001a E36A     		ldr	r3, [r4, #44]
 1731 001c 1868     		ldr	r0, [r3]
 1732 001e FFF7FEFF 		bl	spiUnselect
 1733              	.LVL196:
 1734              		.loc 1 808 0
 1735 0022 0523     		movs	r3, #5
 1736 0024 2371     		strb	r3, [r4, #4]
 1737              		.loc 1 809 0
 1738 0026 0020     		movs	r0, #0
 1739 0028 10BD     		pop	{r4, pc}
 1740              	.LVL197:
 1741              	.L147:
 1742 002a 00BF     		.align	2
ARM GAS  /tmp/ccuP74Wa.s 			page 32


 1743              	.L146:
 1744 002c 00000000 		.word	.LANCHOR4
 1745              		.cfi_endproc
 1746              	.LFE294:
 1747              		.size	mmcStopSequentialWrite, .-mmcStopSequentialWrite
 1748              		.section	.text.mmc_write,"ax",%progbits
 1749              		.align	2
 1750              		.p2align 4,,15
 1751              		.thumb
 1752              		.thumb_func
 1753              		.type	mmc_write, %function
 1754              	mmc_write:
 1755              	.LFB273:
 1756              		.loc 1 120 0
 1757              		.cfi_startproc
 1758              		@ args = 0, pretend = 0, frame = 0
 1759              		@ frame_needed = 0, uses_anonymous_args = 0
 1760              	.LVL198:
 1761 0000 70B5     		push	{r4, r5, r6, lr}
 1762              		.cfi_def_cfa_offset 16
 1763              		.cfi_offset 4, -16
 1764              		.cfi_offset 5, -12
 1765              		.cfi_offset 6, -8
 1766              		.cfi_offset 14, -4
 1767              		.loc 1 120 0
 1768 0002 1446     		mov	r4, r2
 1769 0004 1D46     		mov	r5, r3
 1770 0006 0646     		mov	r6, r0
 1771              		.loc 1 122 0
 1772 0008 FFF7FEFF 		bl	mmcStartSequentialWrite
 1773              	.LVL199:
 1774 000c 58B9     		cbnz	r0, .L150
 1775              		.loc 1 126 0 discriminator 1
 1776 000e 15B9     		cbnz	r5, .L154
 1777 0010 0BE0     		b	.L153
 1778              	.LVL200:
 1779              	.L158:
 1780              		.loc 1 126 0 is_stmt 0
 1781 0012 013D     		subs	r5, r5, #1
 1782              	.LVL201:
 1783 0014 09D0     		beq	.L153
 1784              	.LVL202:
 1785              	.L154:
 1786              		.loc 1 127 0 is_stmt 1
 1787 0016 2146     		mov	r1, r4
 1788 0018 3046     		mov	r0, r6
 1789 001a FFF7FEFF 		bl	mmcSequentialWrite
 1790              	.LVL203:
 1791              		.loc 1 130 0
 1792 001e 04F50074 		add	r4, r4, #512
 1793              	.LVL204:
 1794              		.loc 1 127 0
 1795 0022 0028     		cmp	r0, #0
 1796 0024 F5D0     		beq	.L158
 1797              	.LVL205:
 1798              	.L150:
 1799              		.loc 1 138 0
ARM GAS  /tmp/ccuP74Wa.s 			page 33


 1800 0026 0120     		movs	r0, #1
 1801 0028 70BD     		pop	{r4, r5, r6, pc}
 1802              	.LVL206:
 1803              	.L153:
 1804              	.LBB161:
 1805              	.LBB162:
 1806              		.loc 1 134 0
 1807 002a 3046     		mov	r0, r6
 1808              	.LBE162:
 1809              	.LBE161:
 1810              		.loc 1 138 0
 1811 002c BDE87040 		pop	{r4, r5, r6, lr}
 1812              	.LVL207:
 1813              	.LBB164:
 1814              	.LBB163:
 1815              		.loc 1 134 0
 1816 0030 FFF7FEBF 		b	mmcStopSequentialWrite
 1817              	.LVL208:
 1818              	.LBE163:
 1819              	.LBE164:
 1820              		.cfi_endproc
 1821              	.LFE273:
 1822              		.size	mmc_write, .-mmc_write
 1823 0034 AFF30080 		.section	.text.mmcErase,"ax",%progbits
 1823      AFF30080 
 1823      AFF30080 
 1824              		.align	2
 1825              		.p2align 4,,15
 1826              		.global	mmcErase
 1827              		.thumb
 1828              		.thumb_func
 1829              		.type	mmcErase, %function
 1830              	mmcErase:
 1831              	.LFB297:
 1832              		.loc 1 881 0
 1833              		.cfi_startproc
 1834              		@ args = 0, pretend = 0, frame = 0
 1835              		@ frame_needed = 0, uses_anonymous_args = 0
 1836              	.LVL209:
 1837 0000 38B5     		push	{r3, r4, r5, lr}
 1838              		.cfi_def_cfa_offset 16
 1839              		.cfi_offset 3, -16
 1840              		.cfi_offset 4, -12
 1841              		.cfi_offset 5, -8
 1842              		.cfi_offset 14, -4
 1843              		.loc 1 881 0
 1844 0002 0446     		mov	r4, r0
 1845              		.loc 1 886 0
 1846 0004 0720     		movs	r0, #7
 1847              	.LVL210:
 1848              		.loc 1 889 0
 1849 0006 94F83030 		ldrb	r3, [r4, #48]	@ zero_extendqisi2
 1850              		.loc 1 886 0
 1851 000a 2071     		strb	r0, [r4, #4]
 1852              		.loc 1 881 0
 1853 000c 1546     		mov	r5, r2
 1854              		.loc 1 889 0
ARM GAS  /tmp/ccuP74Wa.s 			page 34


 1855 000e 0BB9     		cbnz	r3, .L160
 1856              		.loc 1 890 0
 1857 0010 4902     		lsls	r1, r1, #9
 1858              	.LVL211:
 1859              		.loc 1 891 0
 1860 0012 5502     		lsls	r5, r2, #9
 1861              	.LVL212:
 1862              	.L160:
 1863              		.loc 1 894 0
 1864 0014 0A46     		mov	r2, r1
 1865 0016 2046     		mov	r0, r4
 1866 0018 2021     		movs	r1, #32
 1867              	.LVL213:
 1868 001a FFF7FEFF 		bl	send_command_R1
 1869              	.LVL214:
 1870 001e 28B9     		cbnz	r0, .L161
 1871              		.loc 1 898 0
 1872 0020 2A46     		mov	r2, r5
 1873 0022 2046     		mov	r0, r4
 1874 0024 2121     		movs	r1, #33
 1875 0026 FFF7FEFF 		bl	send_command_R1
 1876              	.LVL215:
 1877 002a 38B1     		cbz	r0, .L163
 1878              	.L161:
 1879              	.LDL2:
 1880              		.loc 1 911 0
 1881 002c E36A     		ldr	r3, [r4, #44]
 1882 002e 1868     		ldr	r0, [r3]
 1883 0030 FFF7FEFF 		bl	spiStop
 1884              	.LVL216:
 1885              		.loc 1 912 0
 1886 0034 0523     		movs	r3, #5
 1887 0036 2371     		strb	r3, [r4, #4]
 1888              		.loc 1 913 0
 1889 0038 0120     		movs	r0, #1
 1890              		.loc 1 914 0
 1891 003a 38BD     		pop	{r3, r4, r5, pc}
 1892              	.LVL217:
 1893              	.L163:
 1894              		.loc 1 902 0
 1895 003c 0246     		mov	r2, r0
 1896 003e 2621     		movs	r1, #38
 1897 0040 2046     		mov	r0, r4
 1898 0042 FFF7FEFF 		bl	send_command_R1
 1899              	.LVL218:
 1900 0046 0028     		cmp	r0, #0
 1901 0048 F0D1     		bne	.L161
 1902              		.loc 1 906 0
 1903 004a 0523     		movs	r3, #5
 1904 004c 2371     		strb	r3, [r4, #4]
 1905              		.loc 1 907 0
 1906 004e 38BD     		pop	{r3, r4, r5, pc}
 1907              		.cfi_endproc
 1908              	.LFE297:
 1909              		.size	mmcErase, .-mmcErase
 1910              		.section	.rodata.stopcmd.7755,"a",%progbits
 1911              		.align	2
ARM GAS  /tmp/ccuP74Wa.s 			page 35


 1912              		.set	.LANCHOR2,. + 0
 1913              		.type	stopcmd.7755, %object
 1914              		.size	stopcmd.7755, 7
 1915              	stopcmd.7755:
 1916 0000 4C       		.byte	76
 1917 0001 00       		.byte	0
 1918 0002 00       		.byte	0
 1919 0003 00       		.byte	0
 1920 0004 00       		.byte	0
 1921 0005 01       		.byte	1
 1922 0006 FF       		.byte	-1
 1923 0007 00       		.section	.rodata.stop.7772,"a",%progbits
 1924              		.align	2
 1925              		.set	.LANCHOR4,. + 0
 1926              		.type	stop.7772, %object
 1927              		.size	stop.7772, 2
 1928              	stop.7772:
 1929 0000 FD       		.byte	-3
 1930 0001 FF       		.byte	-1
 1931 0002 0000     		.section	.rodata.crc7_lookup_table,"a",%progbits
 1932              		.align	2
 1933              		.set	.LANCHOR0,. + 0
 1934              		.type	crc7_lookup_table, %object
 1935              		.size	crc7_lookup_table, 256
 1936              	crc7_lookup_table:
 1937 0000 00       		.byte	0
 1938 0001 09       		.byte	9
 1939 0002 12       		.byte	18
 1940 0003 1B       		.byte	27
 1941 0004 24       		.byte	36
 1942 0005 2D       		.byte	45
 1943 0006 36       		.byte	54
 1944 0007 3F       		.byte	63
 1945 0008 48       		.byte	72
 1946 0009 41       		.byte	65
 1947 000a 5A       		.byte	90
 1948 000b 53       		.byte	83
 1949 000c 6C       		.byte	108
 1950 000d 65       		.byte	101
 1951 000e 7E       		.byte	126
 1952 000f 77       		.byte	119
 1953 0010 19       		.byte	25
 1954 0011 10       		.byte	16
 1955 0012 0B       		.byte	11
 1956 0013 02       		.byte	2
 1957 0014 3D       		.byte	61
 1958 0015 34       		.byte	52
 1959 0016 2F       		.byte	47
 1960 0017 26       		.byte	38
 1961 0018 51       		.byte	81
 1962 0019 58       		.byte	88
 1963 001a 43       		.byte	67
 1964 001b 4A       		.byte	74
 1965 001c 75       		.byte	117
 1966 001d 7C       		.byte	124
 1967 001e 67       		.byte	103
 1968 001f 6E       		.byte	110
ARM GAS  /tmp/ccuP74Wa.s 			page 36


 1969 0020 32       		.byte	50
 1970 0021 3B       		.byte	59
 1971 0022 20       		.byte	32
 1972 0023 29       		.byte	41
 1973 0024 16       		.byte	22
 1974 0025 1F       		.byte	31
 1975 0026 04       		.byte	4
 1976 0027 0D       		.byte	13
 1977 0028 7A       		.byte	122
 1978 0029 73       		.byte	115
 1979 002a 68       		.byte	104
 1980 002b 61       		.byte	97
 1981 002c 5E       		.byte	94
 1982 002d 57       		.byte	87
 1983 002e 4C       		.byte	76
 1984 002f 45       		.byte	69
 1985 0030 2B       		.byte	43
 1986 0031 22       		.byte	34
 1987 0032 39       		.byte	57
 1988 0033 30       		.byte	48
 1989 0034 0F       		.byte	15
 1990 0035 06       		.byte	6
 1991 0036 1D       		.byte	29
 1992 0037 14       		.byte	20
 1993 0038 63       		.byte	99
 1994 0039 6A       		.byte	106
 1995 003a 71       		.byte	113
 1996 003b 78       		.byte	120
 1997 003c 47       		.byte	71
 1998 003d 4E       		.byte	78
 1999 003e 55       		.byte	85
 2000 003f 5C       		.byte	92
 2001 0040 64       		.byte	100
 2002 0041 6D       		.byte	109
 2003 0042 76       		.byte	118
 2004 0043 7F       		.byte	127
 2005 0044 40       		.byte	64
 2006 0045 49       		.byte	73
 2007 0046 52       		.byte	82
 2008 0047 5B       		.byte	91
 2009 0048 2C       		.byte	44
 2010 0049 25       		.byte	37
 2011 004a 3E       		.byte	62
 2012 004b 37       		.byte	55
 2013 004c 08       		.byte	8
 2014 004d 01       		.byte	1
 2015 004e 1A       		.byte	26
 2016 004f 13       		.byte	19
 2017 0050 7D       		.byte	125
 2018 0051 74       		.byte	116
 2019 0052 6F       		.byte	111
 2020 0053 66       		.byte	102
 2021 0054 59       		.byte	89
 2022 0055 50       		.byte	80
 2023 0056 4B       		.byte	75
 2024 0057 42       		.byte	66
 2025 0058 35       		.byte	53
ARM GAS  /tmp/ccuP74Wa.s 			page 37


 2026 0059 3C       		.byte	60
 2027 005a 27       		.byte	39
 2028 005b 2E       		.byte	46
 2029 005c 11       		.byte	17
 2030 005d 18       		.byte	24
 2031 005e 03       		.byte	3
 2032 005f 0A       		.byte	10
 2033 0060 56       		.byte	86
 2034 0061 5F       		.byte	95
 2035 0062 44       		.byte	68
 2036 0063 4D       		.byte	77
 2037 0064 72       		.byte	114
 2038 0065 7B       		.byte	123
 2039 0066 60       		.byte	96
 2040 0067 69       		.byte	105
 2041 0068 1E       		.byte	30
 2042 0069 17       		.byte	23
 2043 006a 0C       		.byte	12
 2044 006b 05       		.byte	5
 2045 006c 3A       		.byte	58
 2046 006d 33       		.byte	51
 2047 006e 28       		.byte	40
 2048 006f 21       		.byte	33
 2049 0070 4F       		.byte	79
 2050 0071 46       		.byte	70
 2051 0072 5D       		.byte	93
 2052 0073 54       		.byte	84
 2053 0074 6B       		.byte	107
 2054 0075 62       		.byte	98
 2055 0076 79       		.byte	121
 2056 0077 70       		.byte	112
 2057 0078 07       		.byte	7
 2058 0079 0E       		.byte	14
 2059 007a 15       		.byte	21
 2060 007b 1C       		.byte	28
 2061 007c 23       		.byte	35
 2062 007d 2A       		.byte	42
 2063 007e 31       		.byte	49
 2064 007f 38       		.byte	56
 2065 0080 41       		.byte	65
 2066 0081 48       		.byte	72
 2067 0082 53       		.byte	83
 2068 0083 5A       		.byte	90
 2069 0084 65       		.byte	101
 2070 0085 6C       		.byte	108
 2071 0086 77       		.byte	119
 2072 0087 7E       		.byte	126
 2073 0088 09       		.byte	9
 2074 0089 00       		.byte	0
 2075 008a 1B       		.byte	27
 2076 008b 12       		.byte	18
 2077 008c 2D       		.byte	45
 2078 008d 24       		.byte	36
 2079 008e 3F       		.byte	63
 2080 008f 36       		.byte	54
 2081 0090 58       		.byte	88
 2082 0091 51       		.byte	81
ARM GAS  /tmp/ccuP74Wa.s 			page 38


 2083 0092 4A       		.byte	74
 2084 0093 43       		.byte	67
 2085 0094 7C       		.byte	124
 2086 0095 75       		.byte	117
 2087 0096 6E       		.byte	110
 2088 0097 67       		.byte	103
 2089 0098 10       		.byte	16
 2090 0099 19       		.byte	25
 2091 009a 02       		.byte	2
 2092 009b 0B       		.byte	11
 2093 009c 34       		.byte	52
 2094 009d 3D       		.byte	61
 2095 009e 26       		.byte	38
 2096 009f 2F       		.byte	47
 2097 00a0 73       		.byte	115
 2098 00a1 7A       		.byte	122
 2099 00a2 61       		.byte	97
 2100 00a3 68       		.byte	104
 2101 00a4 57       		.byte	87
 2102 00a5 5E       		.byte	94
 2103 00a6 45       		.byte	69
 2104 00a7 4C       		.byte	76
 2105 00a8 3B       		.byte	59
 2106 00a9 32       		.byte	50
 2107 00aa 29       		.byte	41
 2108 00ab 20       		.byte	32
 2109 00ac 1F       		.byte	31
 2110 00ad 16       		.byte	22
 2111 00ae 0D       		.byte	13
 2112 00af 04       		.byte	4
 2113 00b0 6A       		.byte	106
 2114 00b1 63       		.byte	99
 2115 00b2 78       		.byte	120
 2116 00b3 71       		.byte	113
 2117 00b4 4E       		.byte	78
 2118 00b5 47       		.byte	71
 2119 00b6 5C       		.byte	92
 2120 00b7 55       		.byte	85
 2121 00b8 22       		.byte	34
 2122 00b9 2B       		.byte	43
 2123 00ba 30       		.byte	48
 2124 00bb 39       		.byte	57
 2125 00bc 06       		.byte	6
 2126 00bd 0F       		.byte	15
 2127 00be 14       		.byte	20
 2128 00bf 1D       		.byte	29
 2129 00c0 25       		.byte	37
 2130 00c1 2C       		.byte	44
 2131 00c2 37       		.byte	55
 2132 00c3 3E       		.byte	62
 2133 00c4 01       		.byte	1
 2134 00c5 08       		.byte	8
 2135 00c6 13       		.byte	19
 2136 00c7 1A       		.byte	26
 2137 00c8 6D       		.byte	109
 2138 00c9 64       		.byte	100
 2139 00ca 7F       		.byte	127
ARM GAS  /tmp/ccuP74Wa.s 			page 39


 2140 00cb 76       		.byte	118
 2141 00cc 49       		.byte	73
 2142 00cd 40       		.byte	64
 2143 00ce 5B       		.byte	91
 2144 00cf 52       		.byte	82
 2145 00d0 3C       		.byte	60
 2146 00d1 35       		.byte	53
 2147 00d2 2E       		.byte	46
 2148 00d3 27       		.byte	39
 2149 00d4 18       		.byte	24
 2150 00d5 11       		.byte	17
 2151 00d6 0A       		.byte	10
 2152 00d7 03       		.byte	3
 2153 00d8 74       		.byte	116
 2154 00d9 7D       		.byte	125
 2155 00da 66       		.byte	102
 2156 00db 6F       		.byte	111
 2157 00dc 50       		.byte	80
 2158 00dd 59       		.byte	89
 2159 00de 42       		.byte	66
 2160 00df 4B       		.byte	75
 2161 00e0 17       		.byte	23
 2162 00e1 1E       		.byte	30
 2163 00e2 05       		.byte	5
 2164 00e3 0C       		.byte	12
 2165 00e4 33       		.byte	51
 2166 00e5 3A       		.byte	58
 2167 00e6 21       		.byte	33
 2168 00e7 28       		.byte	40
 2169 00e8 5F       		.byte	95
 2170 00e9 56       		.byte	86
 2171 00ea 4D       		.byte	77
 2172 00eb 44       		.byte	68
 2173 00ec 7B       		.byte	123
 2174 00ed 72       		.byte	114
 2175 00ee 69       		.byte	105
 2176 00ef 60       		.byte	96
 2177 00f0 0E       		.byte	14
 2178 00f1 07       		.byte	7
 2179 00f2 1C       		.byte	28
 2180 00f3 15       		.byte	21
 2181 00f4 2A       		.byte	42
 2182 00f5 23       		.byte	35
 2183 00f6 38       		.byte	56
 2184 00f7 31       		.byte	49
 2185 00f8 46       		.byte	70
 2186 00f9 4F       		.byte	79
 2187 00fa 54       		.byte	84
 2188 00fb 5D       		.byte	93
 2189 00fc 62       		.byte	98
 2190 00fd 6B       		.byte	107
 2191 00fe 70       		.byte	112
 2192 00ff 79       		.byte	121
 2193              		.section	.rodata.mmc_vmt,"a",%progbits
 2194              		.align	2
 2195              		.set	.LANCHOR1,. + 0
 2196              		.type	mmc_vmt, %object
ARM GAS  /tmp/ccuP74Wa.s 			page 40


 2197              		.size	mmc_vmt, 32
 2198              	mmc_vmt:
 2199 0000 00000000 		.word	mmc_lld_is_card_inserted
 2200 0004 00000000 		.word	mmc_lld_is_write_protected
 2201 0008 00000000 		.word	mmcConnect
 2202 000c 00000000 		.word	mmcDisconnect
 2203 0010 00000000 		.word	mmc_read
 2204 0014 00000000 		.word	mmc_write
 2205 0018 00000000 		.word	mmcSync
 2206 001c 00000000 		.word	mmcGetInfo
 2207              		.section	.rodata.start.7766,"a",%progbits
 2208              		.align	2
 2209              		.set	.LANCHOR3,. + 0
 2210              		.type	start.7766, %object
 2211              		.size	start.7766, 2
 2212              	start.7766:
 2213 0000 FF       		.byte	-1
 2214 0001 FC       		.byte	-4
 2215 0002 0000     		.text
 2216              	.Letext0:
 2217              		.file 4 "/nfs/nfs5/home/research/hardware/arm2/gcc-arm-embedded/gcc-arm-none-eabi-4_8-2014q2/lib/g
 2218              		.file 5 "/nfs/nfs5/home/research/hardware/arm2/gcc-arm-embedded/gcc-arm-none-eabi-4_8-2014q2/arm-n
 2219              		.file 6 "/nfs/nfs5/home/research/hardware/arm2/gcc-arm-embedded/gcc-arm-none-eabi-4_8-2014q2/arm-n
 2220              		.file 7 "../ChibiOS/os/rt/ports/ARMCMx/compilers/GCC/chtypes.h"
 2221              		.file 8 "../ChibiOS/os/rt/include/chsystypes.h"
 2222              		.file 9 "../ChibiOS/os/rt/include/chschd.h"
 2223              		.file 10 "../ChibiOS/os/ext/CMSIS/ST/STM32F3xx/stm32f303xc.h"
 2224              		.file 11 "../ChibiOS/os/rt/ports/ARMCMx/chcore.h"
 2225              		.file 12 "../ChibiOS/os/rt/ports/ARMCMx/chcore_v7m.h"
 2226              		.file 13 "../ChibiOS/os/rt/include/chtm.h"
 2227              		.file 14 "../ChibiOS/os/rt/include/chsem.h"
 2228              		.file 15 "../ChibiOS/os/rt/include/chmtx.h"
 2229              		.file 16 "../ChibiOS/os/hal/ports/STM32/LLD/DMAv1/stm32_dma.h"
 2230              		.file 17 "../ChibiOS/os/hal/include/hal_ioblock.h"
 2231              		.file 18 "../ChibiOS/os/hal/ports/STM32/LLD/GPIOv2/pal_lld.h"
 2232              		.file 19 "../ChibiOS/os/hal/include/spi.h"
 2233              		.file 20 "../ChibiOS/os/hal/ports/STM32/LLD/SPIv2/spi_lld.h"
 2234              		.file 21 "../ChibiOS/os/hal/include/mmc_spi.h"
 2235              		.file 22 "../ChibiOS/os/rt/include/chsys.h"
 2236              		.file 23 "../ChibiOS/os/rt/include/chthreads.h"
 2237              		.file 24 "../ChibiOS/os/hal/include/hal_mmcsd.h"
 2238              		.file 25 "../ChibiOS/os/ext/CMSIS/include/core_cm4.h"