ARM GAS  /tmp/ccWoWTDs.s 			page 1


   1              		.syntax unified
   2              		.cpu cortex-m4
   3              		.fpu softvfp
   4              		.eabi_attribute 20, 1
   5              		.eabi_attribute 21, 1
   6              		.eabi_attribute 23, 3
   7              		.eabi_attribute 24, 1
   8              		.eabi_attribute 25, 1
   9              		.eabi_attribute 26, 1
  10              		.eabi_attribute 30, 2
  11              		.eabi_attribute 34, 1
  12              		.eabi_attribute 18, 4
  13              		.thumb
  14              		.file	"nvic.c"
  15              		.text
  16              	.Ltext0:
  17              		.cfi_sections	.debug_frame
  18              		.section	.text.nvicEnableVector,"ax",%progbits
  19              		.align	2
  20              		.p2align 4,,15
  21              		.global	nvicEnableVector
  22              		.thumb
  23              		.thumb_func
  24              		.type	nvicEnableVector, %function
  25              	nvicEnableVector:
  26              	.LFB272:
  27              		.file 1 "../ChibiOS/os/hal/ports/common/ARMCMx/nvic.c"
  28              		.loc 1 57 0
  29              		.cfi_startproc
  30              		@ args = 0, pretend = 0, frame = 0
  31              		@ frame_needed = 0, uses_anonymous_args = 0
  32              		@ link register save eliminated.
  33              	.LVL0:
  34              		.loc 1 65 0
  35 0000 4309     		lsrs	r3, r0, #5
  36 0002 9B00     		lsls	r3, r3, #2
  37              		.loc 1 63 0
  38 0004 00F16042 		add	r2, r0, #-536870912
  39 0008 03F16043 		add	r3, r3, #-536870912
  40              		.loc 1 57 0
  41 000c 10B4     		push	{r4}
  42              		.cfi_def_cfa_offset 4
  43              		.cfi_offset 4, -4
  44 000e 03F56143 		add	r3, r3, #57600
  45              		.loc 1 65 0
  46 0012 0124     		movs	r4, #1
  47              		.loc 1 63 0
  48 0014 0901     		lsls	r1, r1, #4
  49              	.LVL1:
  50 0016 02F56142 		add	r2, r2, #57600
  51              		.loc 1 65 0
  52 001a 00F01F00 		and	r0, r0, #31
  53              	.LVL2:
  54 001e 04FA00F0 		lsl	r0, r4, r0
  55              		.loc 1 63 0
  56 0022 C9B2     		uxtb	r1, r1
  57 0024 82F80013 		strb	r1, [r2, #768]
ARM GAS  /tmp/ccWoWTDs.s 			page 2


  58              		.loc 1 65 0
  59 0028 C3F88001 		str	r0, [r3, #384]
  60              		.loc 1 66 0
  61 002c 1860     		str	r0, [r3]
  62              		.loc 1 67 0
  63 002e 5DF8044B 		ldr	r4, [sp], #4
  64 0032 7047     		bx	lr
  65              		.cfi_endproc
  66              	.LFE272:
  67              		.size	nvicEnableVector, .-nvicEnableVector
  68 0034 AFF30080 		.section	.text.nvicDisableVector,"ax",%progbits
  68      AFF30080 
  68      AFF30080 
  69              		.align	2
  70              		.p2align 4,,15
  71              		.global	nvicDisableVector
  72              		.thumb
  73              		.thumb_func
  74              		.type	nvicDisableVector, %function
  75              	nvicDisableVector:
  76              	.LFB273:
  77              		.loc 1 74 0
  78              		.cfi_startproc
  79              		@ args = 0, pretend = 0, frame = 0
  80              		@ frame_needed = 0, uses_anonymous_args = 0
  81              		@ link register save eliminated.
  82              	.LVL3:
  83              		.loc 1 76 0
  84 0000 084B     		ldr	r3, .L3
  85 0002 4109     		lsrs	r1, r0, #5
  86              		.loc 1 74 0
  87 0004 10B4     		push	{r4}
  88              		.cfi_def_cfa_offset 4
  89              		.cfi_offset 4, -4
  90              		.loc 1 76 0
  91 0006 00F01F02 		and	r2, r0, #31
  92 000a 2031     		adds	r1, r1, #32
  93 000c 0124     		movs	r4, #1
  94              		.loc 1 80 0
  95 000e 1844     		add	r0, r0, r3
  96              	.LVL4:
  97              		.loc 1 76 0
  98 0010 9440     		lsls	r4, r4, r2
  99              		.loc 1 80 0
 100 0012 0022     		movs	r2, #0
 101              		.loc 1 76 0
 102 0014 43F82140 		str	r4, [r3, r1, lsl #2]
 103              		.loc 1 80 0
 104 0018 80F80023 		strb	r2, [r0, #768]
 105              		.loc 1 82 0
 106 001c 5DF8044B 		ldr	r4, [sp], #4
 107 0020 7047     		bx	lr
 108              	.L4:
 109 0022 00BF     		.align	2
 110              	.L3:
 111 0024 00E100E0 		.word	-536813312
 112              		.cfi_endproc
ARM GAS  /tmp/ccWoWTDs.s 			page 3


 113              	.LFE273:
 114              		.size	nvicDisableVector, .-nvicDisableVector
 115 0028 AFF30080 		.section	.text.nvicSetSystemHandlerPriority,"ax",%progbits
 115      AFF30080 
 116              		.align	2
 117              		.p2align 4,,15
 118              		.global	nvicSetSystemHandlerPriority
 119              		.thumb
 120              		.thumb_func
 121              		.type	nvicSetSystemHandlerPriority, %function
 122              	nvicSetSystemHandlerPriority:
 123              	.LFB274:
 124              		.loc 1 90 0
 125              		.cfi_startproc
 126              		@ args = 0, pretend = 0, frame = 0
 127              		@ frame_needed = 0, uses_anonymous_args = 0
 128              		@ link register save eliminated.
 129              	.LVL5:
 130              		.loc 1 100 0
 131 0000 00F16040 		add	r0, r0, #-536870912
 132              	.LVL6:
 133 0004 00F56D40 		add	r0, r0, #60672
 134              	.LVL7:
 135 0008 0901     		lsls	r1, r1, #4
 136              	.LVL8:
 137 000a C9B2     		uxtb	r1, r1
 138 000c 0176     		strb	r1, [r0, #24]
 139 000e 7047     		bx	lr
 140              		.cfi_endproc
 141              	.LFE274:
 142              		.size	nvicSetSystemHandlerPriority, .-nvicSetSystemHandlerPriority
 143              		.section	.text.nvicClearPending,"ax",%progbits
 144              		.align	2
 145              		.p2align 4,,15
 146              		.global	nvicClearPending
 147              		.thumb
 148              		.thumb_func
 149              		.type	nvicClearPending, %function
 150              	nvicClearPending:
 151              	.LFB275:
 152              		.loc 1 109 0
 153              		.cfi_startproc
 154              		@ args = 0, pretend = 0, frame = 0
 155              		@ frame_needed = 0, uses_anonymous_args = 0
 156              		@ link register save eliminated.
 157              	.LVL9:
 158              		.loc 1 111 0
 159 0000 4209     		lsrs	r2, r0, #5
 160 0002 6032     		adds	r2, r2, #96
 161 0004 00F01F00 		and	r0, r0, #31
 162              	.LVL10:
 163 0008 0121     		movs	r1, #1
 164 000a 034B     		ldr	r3, .L7
 165 000c 01FA00F0 		lsl	r0, r1, r0
 166 0010 43F82200 		str	r0, [r3, r2, lsl #2]
 167 0014 7047     		bx	lr
 168              	.L8:
ARM GAS  /tmp/ccWoWTDs.s 			page 4


 169 0016 00BF     		.align	2
 170              	.L7:
 171 0018 00E100E0 		.word	-536813312
 172              		.cfi_endproc
 173              	.LFE275:
 174              		.size	nvicClearPending, .-nvicClearPending
 175 001c AFF30080 		.text
 176              	.Letext0:
 177              		.file 2 "/nfs/nfs5/home/research/hardware/arm2/gcc-arm-embedded/gcc-arm-none-eabi-4_8-2014q2/arm-n
 178              		.file 3 "/nfs/nfs5/home/research/hardware/arm2/gcc-arm-embedded/gcc-arm-none-eabi-4_8-2014q2/arm-n
 179              		.file 4 "../ChibiOS/os/rt/ports/ARMCMx/compilers/GCC/chtypes.h"
 180              		.file 5 "../ChibiOS/os/rt/include/chsystypes.h"
 181              		.file 6 "../ChibiOS/os/rt/include/chschd.h"
 182              		.file 7 "../ChibiOS/os/ext/CMSIS/include/core_cm4.h"
 183              		.file 8 "../ChibiOS/os/rt/ports/ARMCMx/chcore.h"
 184              		.file 9 "../ChibiOS/os/rt/ports/ARMCMx/chcore_v7m.h"
 185              		.file 10 "../ChibiOS/os/rt/include/chtm.h"
 186              		.file 11 "../ChibiOS/os/rt/include/chsem.h"
 187              		.file 12 "../ChibiOS/os/rt/include/chmtx.h"