ARM GAS  /tmp/ccDZd6ZF.s 			page 1


   1              		.syntax unified
   2              		.cpu cortex-m4
   3              		.fpu softvfp
   4              		.eabi_attribute 20, 1
   5              		.eabi_attribute 21, 1
   6              		.eabi_attribute 23, 3
   7              		.eabi_attribute 24, 1
   8              		.eabi_attribute 25, 1
   9              		.eabi_attribute 26, 1
  10              		.eabi_attribute 30, 2
  11              		.eabi_attribute 34, 1
  12              		.eabi_attribute 18, 4
  13              		.thumb
  14              		.file	"pal_lld.c"
  15              		.text
  16              	.Ltext0:
  17              		.cfi_sections	.debug_frame
  18              		.section	.text._pal_lld_init,"ax",%progbits
  19              		.align	2
  20              		.p2align 4,,15
  21              		.global	_pal_lld_init
  22              		.thumb
  23              		.thumb_func
  24              		.type	_pal_lld_init, %function
  25              	_pal_lld_init:
  26              	.LFB273:
  27              		.file 1 "../ChibiOS/os/hal/ports/STM32/LLD/GPIOv2/pal_lld.c"
  28              		.loc 1 88 0
  29              		.cfi_startproc
  30              		@ args = 0, pretend = 0, frame = 0
  31              		@ frame_needed = 0, uses_anonymous_args = 0
  32              		@ link register save eliminated.
  33              	.LVL0:
  34 0000 F0B4     		push	{r4, r5, r6, r7}
  35              		.cfi_def_cfa_offset 16
  36              		.cfi_offset 4, -16
  37              		.cfi_offset 5, -12
  38              		.cfi_offset 6, -8
  39              		.cfi_offset 7, -4
  40              		.loc 1 102 0
  41 0002 364E     		ldr	r6, .L2
  42              	.LBB14:
  43              	.LBB15:
  44              		.loc 1 63 0
  45 0004 364D     		ldr	r5, .L2+4
  46              	.LBE15:
  47              	.LBE14:
  48              		.loc 1 102 0
  49 0006 7769     		ldr	r7, [r6, #20]
  50              	.LBB17:
  51              	.LBB18:
  52              		.loc 1 63 0
  53 0008 364C     		ldr	r4, .L2+8
  54              	.LBE18:
  55              	.LBE17:
  56              	.LBB20:
  57              	.LBB21:
ARM GAS  /tmp/ccDZd6ZF.s 			page 2


  58 000a 3749     		ldr	r1, .L2+12
  59              	.LBE21:
  60              	.LBE20:
  61              	.LBB23:
  62              	.LBB24:
  63 000c 374A     		ldr	r2, .L2+16
  64              	.LBE24:
  65              	.LBE23:
  66              	.LBB26:
  67              	.LBB27:
  68 000e 384B     		ldr	r3, .L2+20
  69              	.LBE27:
  70              	.LBE26:
  71              		.loc 1 102 0
  72 0010 47F4FC07 		orr	r7, r7, #8257536
  73 0014 7761     		str	r7, [r6, #20]
  74              	.LVL1:
  75              	.LBB29:
  76              	.LBB30:
  77              		.loc 1 63 0
  78 0016 4FF09046 		mov	r6, #1207959552
  79 001a 4768     		ldr	r7, [r0, #4]
  80 001c 7760     		str	r7, [r6, #4]
  81              		.loc 1 64 0
  82 001e 8768     		ldr	r7, [r0, #8]
  83 0020 B760     		str	r7, [r6, #8]
  84              		.loc 1 65 0
  85 0022 C768     		ldr	r7, [r0, #12]
  86 0024 F760     		str	r7, [r6, #12]
  87              		.loc 1 66 0
  88 0026 0769     		ldr	r7, [r0, #16]
  89 0028 7761     		str	r7, [r6, #20]
  90              		.loc 1 67 0
  91 002a 4769     		ldr	r7, [r0, #20]
  92 002c 3762     		str	r7, [r6, #32]
  93              		.loc 1 68 0
  94 002e 8769     		ldr	r7, [r0, #24]
  95 0030 7762     		str	r7, [r6, #36]
  96              		.loc 1 69 0
  97 0032 0768     		ldr	r7, [r0]
  98 0034 3760     		str	r7, [r6]
  99              	.LVL2:
 100              	.LBE30:
 101              	.LBE29:
 102              	.LBB31:
 103              	.LBB16:
 104              		.loc 1 63 0
 105 0036 066A     		ldr	r6, [r0, #32]
 106 0038 6E60     		str	r6, [r5, #4]
 107              		.loc 1 64 0
 108 003a 466A     		ldr	r6, [r0, #36]
 109 003c AE60     		str	r6, [r5, #8]
 110              		.loc 1 65 0
 111 003e 866A     		ldr	r6, [r0, #40]
 112 0040 EE60     		str	r6, [r5, #12]
 113              		.loc 1 66 0
 114 0042 C66A     		ldr	r6, [r0, #44]
ARM GAS  /tmp/ccDZd6ZF.s 			page 3


 115 0044 6E61     		str	r6, [r5, #20]
 116              		.loc 1 67 0
 117 0046 066B     		ldr	r6, [r0, #48]
 118 0048 2E62     		str	r6, [r5, #32]
 119              		.loc 1 68 0
 120 004a 466B     		ldr	r6, [r0, #52]
 121 004c 6E62     		str	r6, [r5, #36]
 122              		.loc 1 69 0
 123 004e C669     		ldr	r6, [r0, #28]
 124 0050 2E60     		str	r6, [r5]
 125              	.LVL3:
 126              	.LBE16:
 127              	.LBE31:
 128              	.LBB32:
 129              	.LBB19:
 130              		.loc 1 63 0
 131 0052 C56B     		ldr	r5, [r0, #60]
 132 0054 6560     		str	r5, [r4, #4]
 133              		.loc 1 64 0
 134 0056 056C     		ldr	r5, [r0, #64]
 135 0058 A560     		str	r5, [r4, #8]
 136              		.loc 1 65 0
 137 005a 456C     		ldr	r5, [r0, #68]
 138 005c E560     		str	r5, [r4, #12]
 139              		.loc 1 66 0
 140 005e 856C     		ldr	r5, [r0, #72]
 141 0060 6561     		str	r5, [r4, #20]
 142              		.loc 1 67 0
 143 0062 C56C     		ldr	r5, [r0, #76]
 144 0064 2562     		str	r5, [r4, #32]
 145              		.loc 1 68 0
 146 0066 056D     		ldr	r5, [r0, #80]
 147 0068 6562     		str	r5, [r4, #36]
 148              		.loc 1 69 0
 149 006a 856B     		ldr	r5, [r0, #56]
 150 006c 2560     		str	r5, [r4]
 151              	.LVL4:
 152              	.LBE19:
 153              	.LBE32:
 154              	.LBB33:
 155              	.LBB22:
 156              		.loc 1 63 0
 157 006e 846D     		ldr	r4, [r0, #88]
 158 0070 4C60     		str	r4, [r1, #4]
 159              		.loc 1 64 0
 160 0072 C46D     		ldr	r4, [r0, #92]
 161 0074 8C60     		str	r4, [r1, #8]
 162              		.loc 1 65 0
 163 0076 046E     		ldr	r4, [r0, #96]
 164 0078 CC60     		str	r4, [r1, #12]
 165              		.loc 1 66 0
 166 007a 446E     		ldr	r4, [r0, #100]
 167 007c 4C61     		str	r4, [r1, #20]
 168              		.loc 1 67 0
 169 007e 846E     		ldr	r4, [r0, #104]
 170 0080 0C62     		str	r4, [r1, #32]
 171              		.loc 1 68 0
ARM GAS  /tmp/ccDZd6ZF.s 			page 4


 172 0082 C46E     		ldr	r4, [r0, #108]
 173 0084 4C62     		str	r4, [r1, #36]
 174              		.loc 1 69 0
 175 0086 446D     		ldr	r4, [r0, #84]
 176 0088 0C60     		str	r4, [r1]
 177              	.LVL5:
 178              	.LBE22:
 179              	.LBE33:
 180              	.LBB34:
 181              	.LBB25:
 182              		.loc 1 63 0
 183 008a 416F     		ldr	r1, [r0, #116]
 184 008c 5160     		str	r1, [r2, #4]
 185              		.loc 1 64 0
 186 008e 816F     		ldr	r1, [r0, #120]
 187 0090 9160     		str	r1, [r2, #8]
 188              		.loc 1 65 0
 189 0092 C16F     		ldr	r1, [r0, #124]
 190 0094 D160     		str	r1, [r2, #12]
 191              		.loc 1 66 0
 192 0096 D0F88010 		ldr	r1, [r0, #128]
 193 009a 5161     		str	r1, [r2, #20]
 194              		.loc 1 67 0
 195 009c D0F88410 		ldr	r1, [r0, #132]
 196 00a0 1162     		str	r1, [r2, #32]
 197              		.loc 1 68 0
 198 00a2 D0F88810 		ldr	r1, [r0, #136]
 199 00a6 5162     		str	r1, [r2, #36]
 200              		.loc 1 69 0
 201 00a8 016F     		ldr	r1, [r0, #112]
 202 00aa 1160     		str	r1, [r2]
 203              	.LVL6:
 204              	.LBE25:
 205              	.LBE34:
 206              	.LBB35:
 207              	.LBB28:
 208              		.loc 1 63 0
 209 00ac D0F89020 		ldr	r2, [r0, #144]
 210 00b0 5A60     		str	r2, [r3, #4]
 211              		.loc 1 64 0
 212 00b2 D0F89420 		ldr	r2, [r0, #148]
 213 00b6 9A60     		str	r2, [r3, #8]
 214              		.loc 1 65 0
 215 00b8 D0F89820 		ldr	r2, [r0, #152]
 216 00bc DA60     		str	r2, [r3, #12]
 217              		.loc 1 66 0
 218 00be D0F89C20 		ldr	r2, [r0, #156]
 219 00c2 5A61     		str	r2, [r3, #20]
 220              		.loc 1 67 0
 221 00c4 D0F8A020 		ldr	r2, [r0, #160]
 222 00c8 1A62     		str	r2, [r3, #32]
 223              		.loc 1 68 0
 224 00ca D0F8A420 		ldr	r2, [r0, #164]
 225 00ce 5A62     		str	r2, [r3, #36]
 226              		.loc 1 69 0
 227 00d0 D0F88C20 		ldr	r2, [r0, #140]
 228 00d4 1A60     		str	r2, [r3]
ARM GAS  /tmp/ccDZd6ZF.s 			page 5


 229              	.LBE28:
 230              	.LBE35:
 231              		.loc 1 144 0
 232 00d6 F0BC     		pop	{r4, r5, r6, r7}
 233 00d8 7047     		bx	lr
 234              	.L3:
 235 00da 00BF     		.align	2
 236              	.L2:
 237 00dc 00100240 		.word	1073876992
 238 00e0 00040048 		.word	1207960576
 239 00e4 00080048 		.word	1207961600
 240 00e8 000C0048 		.word	1207962624
 241 00ec 00100048 		.word	1207963648
 242 00f0 00140048 		.word	1207964672
 243              		.cfi_endproc
 244              	.LFE273:
 245              		.size	_pal_lld_init, .-_pal_lld_init
 246 00f4 AFF30080 		.section	.text._pal_lld_setgroupmode,"ax",%progbits
 246      AFF30080 
 246      AFF30080 
 247              		.align	2
 248              		.p2align 4,,15
 249              		.global	_pal_lld_setgroupmode
 250              		.thumb
 251              		.thumb_func
 252              		.type	_pal_lld_setgroupmode, %function
 253              	_pal_lld_setgroupmode:
 254              	.LFB274:
 255              		.loc 1 161 0
 256              		.cfi_startproc
 257              		@ args = 0, pretend = 0, frame = 0
 258              		@ frame_needed = 0, uses_anonymous_args = 0
 259              		@ link register save eliminated.
 260              	.LVL7:
 261 0000 2DE9F00F 		push	{r4, r5, r6, r7, r8, r9, r10, fp}
 262              		.cfi_def_cfa_offset 32
 263              		.cfi_offset 4, -32
 264              		.cfi_offset 5, -28
 265              		.cfi_offset 6, -24
 266              		.cfi_offset 7, -20
 267              		.cfi_offset 8, -16
 268              		.cfi_offset 9, -12
 269              		.cfi_offset 10, -8
 270              		.cfi_offset 11, -4
 271              		.loc 1 168 0
 272 0004 0023     		movs	r3, #0
 273              		.loc 1 163 0
 274 0006 02F00307 		and	r7, r2, #3
 275              	.LVL8:
 276              		.loc 1 164 0
 277 000a C2F38006 		ubfx	r6, r2, #2, #1
 278              	.LVL9:
 279              		.loc 1 165 0
 280 000e C2F3C105 		ubfx	r5, r2, #3, #2
 281              	.LVL10:
 282              		.loc 1 166 0
 283 0012 C2F34114 		ubfx	r4, r2, #5, #2
ARM GAS  /tmp/ccDZd6ZF.s 			page 6


 284              	.LVL11:
 285              	.LBB36:
 286              		.loc 1 174 0
 287 0016 4FF00F09 		mov	r9, #15
 288              	.LBE36:
 289              		.loc 1 167 0
 290 001a C2F3C312 		ubfx	r2, r2, #7, #4
 291              	.LVL12:
 292              	.LBB37:
 293              		.loc 1 179 0
 294 001e 4FF0010A 		mov	r10, #1
 295 0022 38E0     		b	.L9
 296              	.LVL13:
 297              	.L14:
 298              		.loc 1 176 0
 299 0024 D0F820B0 		ldr	fp, [r0, #32]
 300 0028 2BEA0C0C 		bic	ip, fp, ip
 301              	.LVL14:
 302 002c 4CEA0808 		orr	r8, ip, r8
 303              	.LVL15:
 304 0030 C0F82080 		str	r8, [r0, #32]
 305              	.L7:
 306              	.LVL16:
 307              		.loc 1 180 0
 308 0034 D0F804C0 		ldr	ip, [r0, #4]
 309              		.loc 1 179 0
 310 0038 0AFA03F8 		lsl	r8, r10, r3
 311              		.loc 1 180 0
 312 003c 2CEA080C 		bic	ip, ip, r8
 313 0040 4CEA060C 		orr	ip, ip, r6
 314 0044 C0F804C0 		str	ip, [r0, #4]
 315              	.LVL17:
 316              		.loc 1 181 0
 317 0048 4FF0030B 		mov	fp, #3
 318 004c 4FEA430C 		lsl	ip, r3, #1
 319              		.loc 1 182 0
 320 0050 D0F80880 		ldr	r8, [r0, #8]
 321              		.loc 1 181 0
 322 0054 0BFA0CFC 		lsl	ip, fp, ip
 323              	.LVL18:
 324              		.loc 1 182 0
 325 0058 6FEA0C0C 		mvn	ip, ip
 326              	.LVL19:
 327 005c 0CEA0808 		and	r8, ip, r8
 328 0060 48EA0508 		orr	r8, r8, r5
 329 0064 C0F80880 		str	r8, [r0, #8]
 330              		.loc 1 183 0
 331 0068 D0F80C80 		ldr	r8, [r0, #12]
 332 006c 0CEA0808 		and	r8, ip, r8
 333 0070 48EA0408 		orr	r8, r8, r4
 334 0074 C0F80C80 		str	r8, [r0, #12]
 335              		.loc 1 184 0
 336 0078 D0F80080 		ldr	r8, [r0]
 337 007c 0CEA080C 		and	ip, ip, r8
 338              	.LVL20:
 339 0080 4CEA070C 		orr	ip, ip, r7
 340 0084 C0F800C0 		str	ip, [r0]
ARM GAS  /tmp/ccDZd6ZF.s 			page 7


 341              	.LVL21:
 342              	.L5:
 343              	.LBE37:
 344              		.loc 1 187 0
 345 0088 4908     		lsrs	r1, r1, #1
 346              	.LVL22:
 347 008a 1AD0     		beq	.L4
 348              		.loc 1 189 0
 349 008c 7600     		lsls	r6, r6, #1
 350              	.LVL23:
 351              		.loc 1 190 0
 352 008e AD00     		lsls	r5, r5, #2
 353              	.LVL24:
 354              		.loc 1 191 0
 355 0090 A400     		lsls	r4, r4, #2
 356              	.LVL25:
 357              		.loc 1 192 0
 358 0092 BF00     		lsls	r7, r7, #2
 359              	.LVL26:
 360              		.loc 1 193 0
 361 0094 0133     		adds	r3, r3, #1
 362              	.LVL27:
 363              	.L9:
 364              	.LBB38:
 365              		.loc 1 173 0
 366 0096 03F0070C 		and	ip, r3, #7
 367 009a 4FEA8C0C 		lsl	ip, ip, #2
 368              	.LBE38:
 369              		.loc 1 170 0
 370 009e 11F0010F 		tst	r1, #1
 371              	.LBB39:
 372              		.loc 1 173 0
 373 00a2 02FA0CF8 		lsl	r8, r2, ip
 374              	.LVL28:
 375              		.loc 1 174 0
 376 00a6 09FA0CFC 		lsl	ip, r9, ip
 377              	.LVL29:
 378              	.LBE39:
 379              		.loc 1 170 0
 380 00aa EDD0     		beq	.L5
 381              	.LBB40:
 382              		.loc 1 175 0
 383 00ac 072B     		cmp	r3, #7
 384 00ae B9D9     		bls	.L14
 385              		.loc 1 178 0
 386 00b0 D0F824B0 		ldr	fp, [r0, #36]
 387 00b4 2BEA0C0C 		bic	ip, fp, ip
 388              	.LVL30:
 389 00b8 4CEA0808 		orr	r8, ip, r8
 390              	.LVL31:
 391 00bc C0F82480 		str	r8, [r0, #36]
 392 00c0 B8E7     		b	.L7
 393              	.L4:
 394              	.LBE40:
 395              		.loc 1 195 0
 396 00c2 BDE8F00F 		pop	{r4, r5, r6, r7, r8, r9, r10, fp}
 397              	.LVL32:
ARM GAS  /tmp/ccDZd6ZF.s 			page 8


 398 00c6 7047     		bx	lr
 399              		.cfi_endproc
 400              	.LFE274:
 401              		.size	_pal_lld_setgroupmode, .-_pal_lld_setgroupmode
 402 00c8 AFF30080 		.text
 402      AFF30080 
 403              	.Letext0:
 404              		.file 2 "/nfs/nfs5/home/research/hardware/arm2/gcc-arm-embedded/gcc-arm-none-eabi-4_8-2014q2/arm-n
 405              		.file 3 "/nfs/nfs5/home/research/hardware/arm2/gcc-arm-embedded/gcc-arm-none-eabi-4_8-2014q2/arm-n
 406              		.file 4 "../ChibiOS/os/rt/ports/ARMCMx/compilers/GCC/chtypes.h"
 407              		.file 5 "../ChibiOS/os/rt/include/chsystypes.h"
 408              		.file 6 "../ChibiOS/os/rt/include/chschd.h"
 409              		.file 7 "../ChibiOS/os/ext/CMSIS/ST/STM32F3xx/stm32f303xc.h"
 410              		.file 8 "../ChibiOS/os/rt/ports/ARMCMx/chcore.h"
 411              		.file 9 "../ChibiOS/os/rt/ports/ARMCMx/chcore_v7m.h"
 412              		.file 10 "../ChibiOS/os/rt/include/chtm.h"
 413              		.file 11 "../ChibiOS/os/rt/include/chsem.h"
 414              		.file 12 "../ChibiOS/os/rt/include/chmtx.h"
 415              		.file 13 "../ChibiOS/os/hal/ports/STM32/LLD/GPIOv2/pal_lld.h"
 416              		.file 14 "../ChibiOS/os/ext/CMSIS/include/core_cm4.h"
 417              		.section	.debug_info,"",%progbits
 418              	.Ldebug_info0:
 419 0000 F50A0000 		.4byte	0xaf5
 420 0004 0400     		.2byte	0x4
 421 0006 00000000 		.4byte	.Ldebug_abbrev0
 422 000a 04       		.byte	0x4
 423 000b 01       		.uleb128 0x1
 424 000c E0040000 		.4byte	.LASF152
 425 0010 01       		.byte	0x1
 426 0011 18010000 		.4byte	.LASF153
 427 0015 5D010000 		.4byte	.LASF154
 428 0019 A8000000 		.4byte	.Ldebug_ranges0+0xa8
 429 001d 00000000 		.4byte	0
 430 0021 00000000 		.4byte	.Ldebug_line0
 431 0025 02       		.uleb128 0x2
 432 0026 04       		.byte	0x4
 433 0027 05       		.byte	0x5
 434 0028 696E7400 		.ascii	"int\000"
 435 002c 03       		.uleb128 0x3
 436 002d 04       		.byte	0x4
 437 002e 07       		.byte	0x7
 438 002f 33020000 		.4byte	.LASF0
 439 0033 03       		.uleb128 0x3
 440 0034 01       		.byte	0x1
 441 0035 06       		.byte	0x6
 442 0036 F7000000 		.4byte	.LASF1
 443 003a 04       		.uleb128 0x4
 444 003b 36000000 		.4byte	.LASF4
 445 003f 02       		.byte	0x2
 446 0040 1C       		.byte	0x1c
 447 0041 45000000 		.4byte	0x45
 448 0045 03       		.uleb128 0x3
 449 0046 01       		.byte	0x1
 450 0047 08       		.byte	0x8
 451 0048 E0030000 		.4byte	.LASF2
 452 004c 03       		.uleb128 0x3
 453 004d 02       		.byte	0x2
ARM GAS  /tmp/ccDZd6ZF.s 			page 9


 454 004e 05       		.byte	0x5
 455 004f 03040000 		.4byte	.LASF3
 456 0053 04       		.uleb128 0x4
 457 0054 CC040000 		.4byte	.LASF5
 458 0058 02       		.byte	0x2
 459 0059 26       		.byte	0x26
 460 005a 5E000000 		.4byte	0x5e
 461 005e 03       		.uleb128 0x3
 462 005f 02       		.byte	0x2
 463 0060 07       		.byte	0x7
 464 0061 6E020000 		.4byte	.LASF6
 465 0065 04       		.uleb128 0x4
 466 0066 C6020000 		.4byte	.LASF7
 467 006a 02       		.byte	0x2
 468 006b 37       		.byte	0x37
 469 006c 70000000 		.4byte	0x70
 470 0070 03       		.uleb128 0x3
 471 0071 04       		.byte	0x4
 472 0072 05       		.byte	0x5
 473 0073 8C010000 		.4byte	.LASF8
 474 0077 04       		.uleb128 0x4
 475 0078 DF050000 		.4byte	.LASF9
 476 007c 02       		.byte	0x2
 477 007d 38       		.byte	0x38
 478 007e 82000000 		.4byte	0x82
 479 0082 03       		.uleb128 0x3
 480 0083 04       		.byte	0x4
 481 0084 07       		.byte	0x7
 482 0085 A4040000 		.4byte	.LASF10
 483 0089 03       		.uleb128 0x3
 484 008a 08       		.byte	0x8
 485 008b 05       		.byte	0x5
 486 008c E9000000 		.4byte	.LASF11
 487 0090 04       		.uleb128 0x4
 488 0091 86030000 		.4byte	.LASF12
 489 0095 02       		.byte	0x2
 490 0096 4E       		.byte	0x4e
 491 0097 9B000000 		.4byte	0x9b
 492 009b 03       		.uleb128 0x3
 493 009c 08       		.byte	0x8
 494 009d 07       		.byte	0x7
 495 009e 75000000 		.4byte	.LASF13
 496 00a2 04       		.uleb128 0x4
 497 00a3 91060000 		.4byte	.LASF14
 498 00a7 03       		.byte	0x3
 499 00a8 2A       		.byte	0x2a
 500 00a9 3A000000 		.4byte	0x3a
 501 00ad 04       		.uleb128 0x4
 502 00ae AE010000 		.4byte	.LASF15
 503 00b2 03       		.byte	0x3
 504 00b3 36       		.byte	0x36
 505 00b4 53000000 		.4byte	0x53
 506 00b8 04       		.uleb128 0x4
 507 00b9 D8030000 		.4byte	.LASF16
 508 00bd 03       		.byte	0x3
 509 00be 41       		.byte	0x41
 510 00bf 65000000 		.4byte	0x65
ARM GAS  /tmp/ccDZd6ZF.s 			page 10


 511 00c3 04       		.uleb128 0x4
 512 00c4 73040000 		.4byte	.LASF17
 513 00c8 03       		.byte	0x3
 514 00c9 42       		.byte	0x42
 515 00ca 77000000 		.4byte	0x77
 516 00ce 04       		.uleb128 0x4
 517 00cf 2D000000 		.4byte	.LASF18
 518 00d3 03       		.byte	0x3
 519 00d4 4E       		.byte	0x4e
 520 00d5 90000000 		.4byte	0x90
 521 00d9 04       		.uleb128 0x4
 522 00da 3D060000 		.4byte	.LASF19
 523 00de 04       		.byte	0x4
 524 00df 39       		.byte	0x39
 525 00e0 C3000000 		.4byte	0xc3
 526 00e4 04       		.uleb128 0x4
 527 00e5 A4020000 		.4byte	.LASF20
 528 00e9 04       		.byte	0x4
 529 00ea 3C       		.byte	0x3c
 530 00eb A2000000 		.4byte	0xa2
 531 00ef 04       		.uleb128 0x4
 532 00f0 A5010000 		.4byte	.LASF21
 533 00f4 04       		.byte	0x4
 534 00f5 3D       		.byte	0x3d
 535 00f6 A2000000 		.4byte	0xa2
 536 00fa 04       		.uleb128 0x4
 537 00fb 9B030000 		.4byte	.LASF22
 538 00ff 04       		.byte	0x4
 539 0100 3E       		.byte	0x3e
 540 0101 A2000000 		.4byte	0xa2
 541 0105 04       		.uleb128 0x4
 542 0106 BA030000 		.4byte	.LASF23
 543 010a 04       		.byte	0x4
 544 010b 40       		.byte	0x40
 545 010c C3000000 		.4byte	0xc3
 546 0110 04       		.uleb128 0x4
 547 0111 92020000 		.4byte	.LASF24
 548 0115 04       		.byte	0x4
 549 0116 41       		.byte	0x41
 550 0117 B8000000 		.4byte	0xb8
 551 011b 04       		.uleb128 0x4
 552 011c BA020000 		.4byte	.LASF25
 553 0120 04       		.byte	0x4
 554 0121 43       		.byte	0x43
 555 0122 C3000000 		.4byte	0xc3
 556 0126 04       		.uleb128 0x4
 557 0127 2D020000 		.4byte	.LASF26
 558 012b 04       		.byte	0x4
 559 012c 45       		.byte	0x45
 560 012d B8000000 		.4byte	0xb8
 561 0131 04       		.uleb128 0x4
 562 0132 C1050000 		.4byte	.LASF27
 563 0136 05       		.byte	0x5
 564 0137 33       		.byte	0x33
 565 0138 C3000000 		.4byte	0xc3
 566 013c 04       		.uleb128 0x4
 567 013d D7040000 		.4byte	.LASF28
ARM GAS  /tmp/ccDZd6ZF.s 			page 11


 568 0141 05       		.byte	0x5
 569 0142 3F       		.byte	0x3f
 570 0143 47010000 		.4byte	0x147
 571 0147 05       		.uleb128 0x5
 572 0148 88020000 		.4byte	.LASF47
 573 014c 40       		.byte	0x40
 574 014d 06       		.byte	0x6
 575 014e C2       		.byte	0xc2
 576 014f 27020000 		.4byte	0x227
 577 0153 06       		.uleb128 0x6
 578 0154 2D030000 		.4byte	.LASF29
 579 0158 06       		.byte	0x6
 580 0159 C3       		.byte	0xc3
 581 015a 32020000 		.4byte	0x232
 582 015e 00       		.byte	0
 583 015f 06       		.uleb128 0x6
 584 0160 B3030000 		.4byte	.LASF30
 585 0164 06       		.byte	0x6
 586 0165 C5       		.byte	0xc5
 587 0166 32020000 		.4byte	0x232
 588 016a 04       		.byte	0x4
 589 016b 06       		.uleb128 0x6
 590 016c E2000000 		.4byte	.LASF31
 591 0170 06       		.byte	0x6
 592 0171 C7       		.byte	0xc7
 593 0172 05010000 		.4byte	0x105
 594 0176 08       		.byte	0x8
 595 0177 06       		.uleb128 0x6
 596 0178 D4060000 		.4byte	.LASF32
 597 017c 06       		.byte	0x6
 598 017d C8       		.byte	0xc8
 599 017e 25050000 		.4byte	0x525
 600 0182 0C       		.byte	0xc
 601 0183 06       		.uleb128 0x6
 602 0184 C0010000 		.4byte	.LASF33
 603 0188 06       		.byte	0x6
 604 0189 CA       		.byte	0xca
 605 018a 32020000 		.4byte	0x232
 606 018e 10       		.byte	0x10
 607 018f 06       		.uleb128 0x6
 608 0190 40030000 		.4byte	.LASF34
 609 0194 06       		.byte	0x6
 610 0195 CB       		.byte	0xcb
 611 0196 32020000 		.4byte	0x232
 612 019a 14       		.byte	0x14
 613 019b 06       		.uleb128 0x6
 614 019c A6060000 		.4byte	.LASF35
 615 01a0 06       		.byte	0x6
 616 01a1 D2       		.byte	0xd2
 617 01a2 B0060000 		.4byte	0x6b0
 618 01a6 18       		.byte	0x18
 619 01a7 06       		.uleb128 0x6
 620 01a8 0D040000 		.4byte	.LASF36
 621 01ac 06       		.byte	0x6
 622 01ad DD       		.byte	0xdd
 623 01ae EF000000 		.4byte	0xef
 624 01b2 1C       		.byte	0x1c
ARM GAS  /tmp/ccDZd6ZF.s 			page 12


 625 01b3 06       		.uleb128 0x6
 626 01b4 2A040000 		.4byte	.LASF37
 627 01b8 06       		.byte	0x6
 628 01b9 E1       		.byte	0xe1
 629 01ba E4000000 		.4byte	0xe4
 630 01be 1D       		.byte	0x1d
 631 01bf 06       		.uleb128 0x6
 632 01c0 65060000 		.4byte	.LASF38
 633 01c4 06       		.byte	0x6
 634 01c5 E6       		.byte	0xe6
 635 01c6 FA000000 		.4byte	0xfa
 636 01ca 1E       		.byte	0x1e
 637 01cb 07       		.uleb128 0x7
 638 01cc 705F7500 		.ascii	"p_u\000"
 639 01d0 06       		.byte	0x6
 640 01d1 3701     		.2byte	0x137
 641 01d3 DF050000 		.4byte	0x5df
 642 01d7 20       		.byte	0x20
 643 01d8 08       		.uleb128 0x8
 644 01d9 EA020000 		.4byte	.LASF39
 645 01dd 06       		.byte	0x6
 646 01de 3C01     		.2byte	0x13c
 647 01e0 38020000 		.4byte	0x238
 648 01e4 24       		.byte	0x24
 649 01e5 08       		.uleb128 0x8
 650 01e6 4F020000 		.4byte	.LASF40
 651 01ea 06       		.byte	0x6
 652 01eb 4201     		.2byte	0x142
 653 01ed 5C020000 		.4byte	0x25c
 654 01f1 28       		.byte	0x28
 655 01f2 08       		.uleb128 0x8
 656 01f3 68040000 		.4byte	.LASF41
 657 01f7 06       		.byte	0x6
 658 01f8 4801     		.2byte	0x148
 659 01fa 1B010000 		.4byte	0x11b
 660 01fe 30       		.byte	0x30
 661 01ff 08       		.uleb128 0x8
 662 0200 F9030000 		.4byte	.LASF42
 663 0204 06       		.byte	0x6
 664 0205 4F01     		.2byte	0x14f
 665 0207 AA060000 		.4byte	0x6aa
 666 020b 34       		.byte	0x34
 667 020c 08       		.uleb128 0x8
 668 020d CB050000 		.4byte	.LASF43
 669 0211 06       		.byte	0x6
 670 0212 5301     		.2byte	0x153
 671 0214 05010000 		.4byte	0x105
 672 0218 38       		.byte	0x38
 673 0219 08       		.uleb128 0x8
 674 021a 08010000 		.4byte	.LASF44
 675 021e 06       		.byte	0x6
 676 021f 5A01     		.2byte	0x15a
 677 0221 0F030000 		.4byte	0x30f
 678 0225 3C       		.byte	0x3c
 679 0226 00       		.byte	0
 680 0227 04       		.uleb128 0x4
 681 0228 FD020000 		.4byte	.LASF45
ARM GAS  /tmp/ccDZd6ZF.s 			page 13


 682 022c 05       		.byte	0x5
 683 022d 44       		.byte	0x44
 684 022e 32020000 		.4byte	0x232
 685 0232 09       		.uleb128 0x9
 686 0233 04       		.byte	0x4
 687 0234 3C010000 		.4byte	0x13c
 688 0238 04       		.uleb128 0x4
 689 0239 DB020000 		.4byte	.LASF46
 690 023d 05       		.byte	0x5
 691 023e 49       		.byte	0x49
 692 023f 43020000 		.4byte	0x243
 693 0243 05       		.uleb128 0x5
 694 0244 94040000 		.4byte	.LASF48
 695 0248 04       		.byte	0x4
 696 0249 06       		.byte	0x6
 697 024a B0       		.byte	0xb0
 698 024b 5C020000 		.4byte	0x25c
 699 024f 06       		.uleb128 0x6
 700 0250 2D030000 		.4byte	.LASF29
 701 0254 06       		.byte	0x6
 702 0255 B1       		.byte	0xb1
 703 0256 32020000 		.4byte	0x232
 704 025a 00       		.byte	0
 705 025b 00       		.byte	0
 706 025c 04       		.uleb128 0x4
 707 025d 4C060000 		.4byte	.LASF49
 708 0261 05       		.byte	0x5
 709 0262 50       		.byte	0x50
 710 0263 67020000 		.4byte	0x267
 711 0267 05       		.uleb128 0x5
 712 0268 D1000000 		.4byte	.LASF50
 713 026c 08       		.byte	0x8
 714 026d 06       		.byte	0x6
 715 026e B7       		.byte	0xb7
 716 026f 8C020000 		.4byte	0x28c
 717 0273 06       		.uleb128 0x6
 718 0274 2D030000 		.4byte	.LASF29
 719 0278 06       		.byte	0x6
 720 0279 B8       		.byte	0xb8
 721 027a 32020000 		.4byte	0x232
 722 027e 00       		.byte	0
 723 027f 06       		.uleb128 0x6
 724 0280 B3030000 		.4byte	.LASF30
 725 0284 06       		.byte	0x6
 726 0285 B9       		.byte	0xb9
 727 0286 32020000 		.4byte	0x232
 728 028a 04       		.byte	0x4
 729 028b 00       		.byte	0
 730 028c 04       		.uleb128 0x4
 731 028d 13000000 		.4byte	.LASF51
 732 0291 05       		.byte	0x5
 733 0292 57       		.byte	0x57
 734 0293 97020000 		.4byte	0x297
 735 0297 0A       		.uleb128 0xa
 736 0298 AC020000 		.4byte	.LASF52
 737 029c 1C       		.byte	0x1c
 738 029d 06       		.byte	0x6
ARM GAS  /tmp/ccDZd6ZF.s 			page 14


 739 029e 9201     		.2byte	0x192
 740 02a0 F3020000 		.4byte	0x2f3
 741 02a4 08       		.uleb128 0x8
 742 02a5 83040000 		.4byte	.LASF53
 743 02a9 06       		.byte	0x6
 744 02aa 9301     		.2byte	0x193
 745 02ac 5C020000 		.4byte	0x25c
 746 02b0 00       		.byte	0
 747 02b1 08       		.uleb128 0x8
 748 02b2 15040000 		.4byte	.LASF54
 749 02b6 06       		.byte	0x6
 750 02b7 9401     		.2byte	0x194
 751 02b9 05010000 		.4byte	0x105
 752 02bd 08       		.byte	0x8
 753 02be 08       		.uleb128 0x8
 754 02bf 48030000 		.4byte	.LASF55
 755 02c3 06       		.byte	0x6
 756 02c4 9601     		.2byte	0x196
 757 02c6 25050000 		.4byte	0x525
 758 02ca 0C       		.byte	0xc
 759 02cb 08       		.uleb128 0x8
 760 02cc D8010000 		.4byte	.LASF56
 761 02d0 06       		.byte	0x6
 762 02d1 9901     		.2byte	0x199
 763 02d3 32020000 		.4byte	0x232
 764 02d7 10       		.byte	0x10
 765 02d8 08       		.uleb128 0x8
 766 02d9 1F060000 		.4byte	.LASF57
 767 02dd 06       		.byte	0x6
 768 02de 9A01     		.2byte	0x19a
 769 02e0 32020000 		.4byte	0x232
 770 02e4 14       		.byte	0x14
 771 02e5 08       		.uleb128 0x8
 772 02e6 73030000 		.4byte	.LASF58
 773 02ea 06       		.byte	0x6
 774 02eb 9D01     		.2byte	0x19d
 775 02ed 32020000 		.4byte	0x232
 776 02f1 18       		.byte	0x18
 777 02f2 00       		.byte	0
 778 02f3 04       		.uleb128 0x4
 779 02f4 D6050000 		.4byte	.LASF59
 780 02f8 05       		.byte	0x5
 781 02f9 5C       		.byte	0x5c
 782 02fa FE020000 		.4byte	0x2fe
 783 02fe 09       		.uleb128 0x9
 784 02ff 04       		.byte	0x4
 785 0300 04030000 		.4byte	0x304
 786 0304 0B       		.uleb128 0xb
 787 0305 0F030000 		.4byte	0x30f
 788 0309 0C       		.uleb128 0xc
 789 030a 0F030000 		.4byte	0x30f
 790 030e 00       		.byte	0
 791 030f 0D       		.uleb128 0xd
 792 0310 04       		.byte	0x4
 793 0311 04       		.uleb128 0x4
 794 0312 A3030000 		.4byte	.LASF60
 795 0316 05       		.byte	0x5
ARM GAS  /tmp/ccDZd6ZF.s 			page 15


 796 0317 61       		.byte	0x61
 797 0318 1C030000 		.4byte	0x31c
 798 031c 0A       		.uleb128 0xa
 799 031d 4A040000 		.4byte	.LASF61
 800 0321 14       		.byte	0x14
 801 0322 06       		.byte	0x6
 802 0323 6D01     		.2byte	0x16d
 803 0325 6B030000 		.4byte	0x36b
 804 0329 08       		.uleb128 0x8
 805 032a 40020000 		.4byte	.LASF62
 806 032e 06       		.byte	0x6
 807 032f 6E01     		.2byte	0x16e
 808 0331 C2060000 		.4byte	0x6c2
 809 0335 00       		.byte	0
 810 0336 08       		.uleb128 0x8
 811 0337 EE010000 		.4byte	.LASF63
 812 033b 06       		.byte	0x6
 813 033c 6F01     		.2byte	0x16f
 814 033e C2060000 		.4byte	0x6c2
 815 0342 04       		.byte	0x4
 816 0343 08       		.uleb128 0x8
 817 0344 8B040000 		.4byte	.LASF64
 818 0348 06       		.byte	0x6
 819 0349 7001     		.2byte	0x170
 820 034b 31010000 		.4byte	0x131
 821 034f 08       		.byte	0x8
 822 0350 08       		.uleb128 0x8
 823 0351 DA060000 		.4byte	.LASF65
 824 0355 06       		.byte	0x6
 825 0356 7101     		.2byte	0x171
 826 0358 F3020000 		.4byte	0x2f3
 827 035c 0C       		.byte	0xc
 828 035d 08       		.uleb128 0x8
 829 035e 45060000 		.4byte	.LASF66
 830 0362 06       		.byte	0x6
 831 0363 7301     		.2byte	0x173
 832 0365 0F030000 		.4byte	0x30f
 833 0369 10       		.byte	0x10
 834 036a 00       		.byte	0
 835 036b 04       		.uleb128 0x4
 836 036c AE000000 		.4byte	.LASF67
 837 0370 05       		.byte	0x5
 838 0371 66       		.byte	0x66
 839 0372 76030000 		.4byte	0x376
 840 0376 0A       		.uleb128 0xa
 841 0377 10030000 		.4byte	.LASF68
 842 037b 10       		.byte	0x10
 843 037c 06       		.byte	0x6
 844 037d 7D01     		.2byte	0x17d
 845 037f B8030000 		.4byte	0x3b8
 846 0383 08       		.uleb128 0x8
 847 0384 40020000 		.4byte	.LASF62
 848 0388 06       		.byte	0x6
 849 0389 7E01     		.2byte	0x17e
 850 038b C2060000 		.4byte	0x6c2
 851 038f 00       		.byte	0
 852 0390 08       		.uleb128 0x8
ARM GAS  /tmp/ccDZd6ZF.s 			page 16


 853 0391 EE010000 		.4byte	.LASF63
 854 0395 06       		.byte	0x6
 855 0396 8001     		.2byte	0x180
 856 0398 C2060000 		.4byte	0x6c2
 857 039c 04       		.byte	0x4
 858 039d 08       		.uleb128 0x8
 859 039e 8B040000 		.4byte	.LASF64
 860 03a2 06       		.byte	0x6
 861 03a3 8201     		.2byte	0x182
 862 03a5 31010000 		.4byte	0x131
 863 03a9 08       		.byte	0x8
 864 03aa 08       		.uleb128 0x8
 865 03ab 34030000 		.4byte	.LASF69
 866 03af 06       		.byte	0x6
 867 03b0 8A01     		.2byte	0x18a
 868 03b2 31010000 		.4byte	0x131
 869 03b6 0C       		.byte	0xc
 870 03b7 00       		.byte	0
 871 03b8 04       		.uleb128 0x4
 872 03b9 53000000 		.4byte	.LASF70
 873 03bd 05       		.byte	0x5
 874 03be 6B       		.byte	0x6b
 875 03bf C3030000 		.4byte	0x3c3
 876 03c3 0A       		.uleb128 0xa
 877 03c4 C2030000 		.4byte	.LASF71
 878 03c8 04       		.byte	0x4
 879 03c9 06       		.byte	0x6
 880 03ca A401     		.2byte	0x1a4
 881 03cc DE030000 		.4byte	0x3de
 882 03d0 08       		.uleb128 0x8
 883 03d1 F3050000 		.4byte	.LASF72
 884 03d5 06       		.byte	0x6
 885 03d6 AC01     		.2byte	0x1ac
 886 03d8 C8060000 		.4byte	0x6c8
 887 03dc 00       		.byte	0
 888 03dd 00       		.byte	0
 889 03de 04       		.uleb128 0x4
 890 03df 98020000 		.4byte	.LASF73
 891 03e3 05       		.byte	0x5
 892 03e4 70       		.byte	0x70
 893 03e5 E9030000 		.4byte	0x3e9
 894 03e9 0E       		.uleb128 0xe
 895 03ea 32040000 		.4byte	.LASF74
 896 03ee 5001     		.2byte	0x150
 897 03f0 06       		.byte	0x6
 898 03f1 C401     		.2byte	0x1c4
 899 03f3 45040000 		.4byte	0x445
 900 03f7 08       		.uleb128 0x8
 901 03f8 7F060000 		.4byte	.LASF75
 902 03fc 06       		.byte	0x6
 903 03fd C801     		.2byte	0x1c8
 904 03ff 8C020000 		.4byte	0x28c
 905 0403 00       		.byte	0
 906 0404 08       		.uleb128 0x8
 907 0405 F6010000 		.4byte	.LASF76
 908 0409 06       		.byte	0x6
 909 040a CC01     		.2byte	0x1cc
ARM GAS  /tmp/ccDZd6ZF.s 			page 17


 910 040c 6B030000 		.4byte	0x36b
 911 0410 1C       		.byte	0x1c
 912 0411 07       		.uleb128 0x7
 913 0412 64626700 		.ascii	"dbg\000"
 914 0416 06       		.byte	0x6
 915 0417 D001     		.2byte	0x1d0
 916 0419 B8030000 		.4byte	0x3b8
 917 041d 2C       		.byte	0x2c
 918 041e 08       		.uleb128 0x8
 919 041f 9B000000 		.4byte	.LASF77
 920 0423 06       		.byte	0x6
 921 0424 D401     		.2byte	0x1d4
 922 0426 3C010000 		.4byte	0x13c
 923 042a 30       		.byte	0x30
 924 042b 07       		.uleb128 0x7
 925 042c 746D00   		.ascii	"tm\000"
 926 042f 06       		.byte	0x6
 927 0430 D901     		.2byte	0x1d9
 928 0432 D4050000 		.4byte	0x5d4
 929 0436 70       		.byte	0x70
 930 0437 08       		.uleb128 0x8
 931 0438 1E020000 		.4byte	.LASF78
 932 043c 06       		.byte	0x6
 933 043d E501     		.2byte	0x1e5
 934 043f CD060000 		.4byte	0x6cd
 935 0443 78       		.byte	0x78
 936 0444 00       		.byte	0
 937 0445 03       		.uleb128 0x3
 938 0446 04       		.byte	0x4
 939 0447 07       		.byte	0x7
 940 0448 F4020000 		.4byte	.LASF79
 941 044c 0F       		.uleb128 0xf
 942 044d C3000000 		.4byte	0xc3
 943 0451 10       		.uleb128 0x10
 944 0452 34       		.byte	0x34
 945 0453 07       		.byte	0x7
 946 0454 FB01     		.2byte	0x1fb
 947 0456 03050000 		.4byte	0x503
 948 045a 07       		.uleb128 0x7
 949 045b 435200   		.ascii	"CR\000"
 950 045e 07       		.byte	0x7
 951 045f FD01     		.2byte	0x1fd
 952 0461 4C040000 		.4byte	0x44c
 953 0465 00       		.byte	0
 954 0466 08       		.uleb128 0x8
 955 0467 B4060000 		.4byte	.LASF80
 956 046b 07       		.byte	0x7
 957 046c FE01     		.2byte	0x1fe
 958 046e 4C040000 		.4byte	0x44c
 959 0472 04       		.byte	0x4
 960 0473 07       		.uleb128 0x7
 961 0474 43495200 		.ascii	"CIR\000"
 962 0478 07       		.byte	0x7
 963 0479 FF01     		.2byte	0x1ff
 964 047b 4C040000 		.4byte	0x44c
 965 047f 08       		.byte	0x8
 966 0480 08       		.uleb128 0x8
ARM GAS  /tmp/ccDZd6ZF.s 			page 18


 967 0481 9C010000 		.4byte	.LASF81
 968 0485 07       		.byte	0x7
 969 0486 0002     		.2byte	0x200
 970 0488 4C040000 		.4byte	0x44c
 971 048c 0C       		.byte	0xc
 972 048d 08       		.uleb128 0x8
 973 048e 7D030000 		.4byte	.LASF82
 974 0492 07       		.byte	0x7
 975 0493 0102     		.2byte	0x201
 976 0495 4C040000 		.4byte	0x44c
 977 0499 10       		.byte	0x10
 978 049a 08       		.uleb128 0x8
 979 049b E2060000 		.4byte	.LASF83
 980 049f 07       		.byte	0x7
 981 04a0 0202     		.2byte	0x202
 982 04a2 4C040000 		.4byte	0x44c
 983 04a6 14       		.byte	0x14
 984 04a7 08       		.uleb128 0x8
 985 04a8 42040000 		.4byte	.LASF84
 986 04ac 07       		.byte	0x7
 987 04ad 0302     		.2byte	0x203
 988 04af 4C040000 		.4byte	0x44c
 989 04b3 18       		.byte	0x18
 990 04b4 08       		.uleb128 0x8
 991 04b5 04060000 		.4byte	.LASF85
 992 04b9 07       		.byte	0x7
 993 04ba 0402     		.2byte	0x204
 994 04bc 4C040000 		.4byte	0x44c
 995 04c0 1C       		.byte	0x1c
 996 04c1 08       		.uleb128 0x8
 997 04c2 7A060000 		.4byte	.LASF86
 998 04c6 07       		.byte	0x7
 999 04c7 0502     		.2byte	0x205
 1000 04c9 4C040000 		.4byte	0x44c
 1001 04cd 20       		.byte	0x20
 1002 04ce 07       		.uleb128 0x7
 1003 04cf 43535200 		.ascii	"CSR\000"
 1004 04d3 07       		.byte	0x7
 1005 04d4 0602     		.2byte	0x206
 1006 04d6 4C040000 		.4byte	0x44c
 1007 04da 24       		.byte	0x24
 1008 04db 08       		.uleb128 0x8
 1009 04dc 64030000 		.4byte	.LASF87
 1010 04e0 07       		.byte	0x7
 1011 04e1 0702     		.2byte	0x207
 1012 04e3 4C040000 		.4byte	0x44c
 1013 04e7 28       		.byte	0x28
 1014 04e8 08       		.uleb128 0x8
 1015 04e9 85060000 		.4byte	.LASF88
 1016 04ed 07       		.byte	0x7
 1017 04ee 0802     		.2byte	0x208
 1018 04f0 4C040000 		.4byte	0x44c
 1019 04f4 2C       		.byte	0x2c
 1020 04f5 08       		.uleb128 0x8
 1021 04f6 8B060000 		.4byte	.LASF89
 1022 04fa 07       		.byte	0x7
 1023 04fb 0902     		.2byte	0x209
ARM GAS  /tmp/ccDZd6ZF.s 			page 19


 1024 04fd 4C040000 		.4byte	0x44c
 1025 0501 30       		.byte	0x30
 1026 0502 00       		.byte	0
 1027 0503 11       		.uleb128 0x11
 1028 0504 51010000 		.4byte	.LASF90
 1029 0508 07       		.byte	0x7
 1030 0509 0A02     		.2byte	0x20a
 1031 050b 51040000 		.4byte	0x451
 1032 050f 04       		.uleb128 0x4
 1033 0510 E5010000 		.4byte	.LASF91
 1034 0514 08       		.byte	0x8
 1035 0515 65       		.byte	0x65
 1036 0516 0F030000 		.4byte	0x30f
 1037 051a 04       		.uleb128 0x4
 1038 051b D0020000 		.4byte	.LASF92
 1039 051f 08       		.byte	0x8
 1040 0520 6D       		.byte	0x6d
 1041 0521 CE000000 		.4byte	0xce
 1042 0525 05       		.uleb128 0x5
 1043 0526 17060000 		.4byte	.LASF93
 1044 052a 04       		.byte	0x4
 1045 052b 08       		.byte	0x8
 1046 052c 89       		.byte	0x89
 1047 052d 3E050000 		.4byte	0x53e
 1048 0531 12       		.uleb128 0x12
 1049 0532 72313300 		.ascii	"r13\000"
 1050 0536 08       		.byte	0x8
 1051 0537 8A       		.byte	0x8a
 1052 0538 B9050000 		.4byte	0x5b9
 1053 053c 00       		.byte	0
 1054 053d 00       		.byte	0
 1055 053e 05       		.uleb128 0x5
 1056 053f 47000000 		.4byte	.LASF94
 1057 0543 24       		.byte	0x24
 1058 0544 09       		.byte	0x9
 1059 0545 FD       		.byte	0xfd
 1060 0546 B9050000 		.4byte	0x5b9
 1061 054a 07       		.uleb128 0x7
 1062 054b 723400   		.ascii	"r4\000"
 1063 054e 09       		.byte	0x9
 1064 054f 1001     		.2byte	0x110
 1065 0551 0F050000 		.4byte	0x50f
 1066 0555 00       		.byte	0
 1067 0556 07       		.uleb128 0x7
 1068 0557 723500   		.ascii	"r5\000"
 1069 055a 09       		.byte	0x9
 1070 055b 1101     		.2byte	0x111
 1071 055d 0F050000 		.4byte	0x50f
 1072 0561 04       		.byte	0x4
 1073 0562 07       		.uleb128 0x7
 1074 0563 723600   		.ascii	"r6\000"
 1075 0566 09       		.byte	0x9
 1076 0567 1201     		.2byte	0x112
 1077 0569 0F050000 		.4byte	0x50f
 1078 056d 08       		.byte	0x8
 1079 056e 07       		.uleb128 0x7
 1080 056f 723700   		.ascii	"r7\000"
ARM GAS  /tmp/ccDZd6ZF.s 			page 20


 1081 0572 09       		.byte	0x9
 1082 0573 1301     		.2byte	0x113
 1083 0575 0F050000 		.4byte	0x50f
 1084 0579 0C       		.byte	0xc
 1085 057a 07       		.uleb128 0x7
 1086 057b 723800   		.ascii	"r8\000"
 1087 057e 09       		.byte	0x9
 1088 057f 1401     		.2byte	0x114
 1089 0581 0F050000 		.4byte	0x50f
 1090 0585 10       		.byte	0x10
 1091 0586 07       		.uleb128 0x7
 1092 0587 723900   		.ascii	"r9\000"
 1093 058a 09       		.byte	0x9
 1094 058b 1501     		.2byte	0x115
 1095 058d 0F050000 		.4byte	0x50f
 1096 0591 14       		.byte	0x14
 1097 0592 07       		.uleb128 0x7
 1098 0593 72313000 		.ascii	"r10\000"
 1099 0597 09       		.byte	0x9
 1100 0598 1601     		.2byte	0x116
 1101 059a 0F050000 		.4byte	0x50f
 1102 059e 18       		.byte	0x18
 1103 059f 07       		.uleb128 0x7
 1104 05a0 72313100 		.ascii	"r11\000"
 1105 05a4 09       		.byte	0x9
 1106 05a5 1701     		.2byte	0x117
 1107 05a7 0F050000 		.4byte	0x50f
 1108 05ab 1C       		.byte	0x1c
 1109 05ac 07       		.uleb128 0x7
 1110 05ad 6C7200   		.ascii	"lr\000"
 1111 05b0 09       		.byte	0x9
 1112 05b1 1801     		.2byte	0x118
 1113 05b3 0F050000 		.4byte	0x50f
 1114 05b7 20       		.byte	0x20
 1115 05b8 00       		.byte	0
 1116 05b9 09       		.uleb128 0x9
 1117 05ba 04       		.byte	0x4
 1118 05bb 3E050000 		.4byte	0x53e
 1119 05bf 13       		.uleb128 0x13
 1120 05c0 04       		.byte	0x4
 1121 05c1 0A       		.byte	0xa
 1122 05c2 38       		.byte	0x38
 1123 05c3 D4050000 		.4byte	0x5d4
 1124 05c7 06       		.uleb128 0x6
 1125 05c8 FD050000 		.4byte	.LASF95
 1126 05cc 0A       		.byte	0xa
 1127 05cd 3C       		.byte	0x3c
 1128 05ce D9000000 		.4byte	0xd9
 1129 05d2 00       		.byte	0
 1130 05d3 00       		.byte	0
 1131 05d4 04       		.uleb128 0x4
 1132 05d5 4E030000 		.4byte	.LASF96
 1133 05d9 0A       		.byte	0xa
 1134 05da 3D       		.byte	0x3d
 1135 05db BF050000 		.4byte	0x5bf
 1136 05df 14       		.uleb128 0x14
 1137 05e0 04       		.byte	0x4
ARM GAS  /tmp/ccDZd6ZF.s 			page 21


 1138 05e1 06       		.byte	0x6
 1139 05e2 FA       		.byte	0xfa
 1140 05e3 48060000 		.4byte	0x648
 1141 05e7 15       		.uleb128 0x15
 1142 05e8 26000000 		.4byte	.LASF97
 1143 05ec 06       		.byte	0x6
 1144 05ed 0101     		.2byte	0x101
 1145 05ef 10010000 		.4byte	0x110
 1146 05f3 15       		.uleb128 0x15
 1147 05f4 92000000 		.4byte	.LASF98
 1148 05f8 06       		.byte	0x6
 1149 05f9 0801     		.2byte	0x108
 1150 05fb 10010000 		.4byte	0x110
 1151 05ff 15       		.uleb128 0x15
 1152 0600 9F060000 		.4byte	.LASF99
 1153 0604 06       		.byte	0x6
 1154 0605 0F01     		.2byte	0x10f
 1155 0607 0F030000 		.4byte	0x30f
 1156 060b 15       		.uleb128 0x15
 1157 060c 20000000 		.4byte	.LASF100
 1158 0610 06       		.byte	0x6
 1159 0611 1601     		.2byte	0x116
 1160 0613 48060000 		.4byte	0x648
 1161 0617 15       		.uleb128 0x15
 1162 0618 A6000000 		.4byte	.LASF101
 1163 061c 06       		.byte	0x6
 1164 061d 1B01     		.2byte	0x11b
 1165 061f 10010000 		.4byte	0x110
 1166 0623 15       		.uleb128 0x15
 1167 0624 48020000 		.4byte	.LASF102
 1168 0628 06       		.byte	0x6
 1169 0629 2401     		.2byte	0x124
 1170 062b 73060000 		.4byte	0x673
 1171 062f 15       		.uleb128 0x15
 1172 0630 7C040000 		.4byte	.LASF103
 1173 0634 06       		.byte	0x6
 1174 0635 2D01     		.2byte	0x12d
 1175 0637 AA060000 		.4byte	0x6aa
 1176 063b 15       		.uleb128 0x15
 1177 063c 23040000 		.4byte	.LASF104
 1178 0640 06       		.byte	0x6
 1179 0641 3501     		.2byte	0x135
 1180 0643 1B010000 		.4byte	0x11b
 1181 0647 00       		.byte	0
 1182 0648 09       		.uleb128 0x9
 1183 0649 04       		.byte	0x4
 1184 064a 27020000 		.4byte	0x227
 1185 064e 05       		.uleb128 0x5
 1186 064f 5B040000 		.4byte	.LASF105
 1187 0653 0C       		.byte	0xc
 1188 0654 0B       		.byte	0xb
 1189 0655 34       		.byte	0x34
 1190 0656 73060000 		.4byte	0x673
 1191 065a 06       		.uleb128 0x6
 1192 065b C8010000 		.4byte	.LASF106
 1193 065f 0B       		.byte	0xb
 1194 0660 35       		.byte	0x35
ARM GAS  /tmp/ccDZd6ZF.s 			page 22


 1195 0661 5C020000 		.4byte	0x25c
 1196 0665 00       		.byte	0
 1197 0666 06       		.uleb128 0x6
 1198 0667 F3030000 		.4byte	.LASF107
 1199 066b 0B       		.byte	0xb
 1200 066c 37       		.byte	0x37
 1201 066d 26010000 		.4byte	0x126
 1202 0671 08       		.byte	0x8
 1203 0672 00       		.byte	0
 1204 0673 09       		.uleb128 0x9
 1205 0674 04       		.byte	0x4
 1206 0675 4E060000 		.4byte	0x64e
 1207 0679 05       		.uleb128 0x5
 1208 067a 5C060000 		.4byte	.LASF108
 1209 067e 10       		.byte	0x10
 1210 067f 0C       		.byte	0xc
 1211 0680 39       		.byte	0x39
 1212 0681 AA060000 		.4byte	0x6aa
 1213 0685 06       		.uleb128 0x6
 1214 0686 10010000 		.4byte	.LASF109
 1215 068a 0C       		.byte	0xc
 1216 068b 3A       		.byte	0x3a
 1217 068c 5C020000 		.4byte	0x25c
 1218 0690 00       		.byte	0
 1219 0691 06       		.uleb128 0x6
 1220 0692 CC060000 		.4byte	.LASF110
 1221 0696 0C       		.byte	0xc
 1222 0697 3C       		.byte	0x3c
 1223 0698 32020000 		.4byte	0x232
 1224 069c 08       		.byte	0x8
 1225 069d 06       		.uleb128 0x6
 1226 069e BA050000 		.4byte	.LASF111
 1227 06a2 0C       		.byte	0xc
 1228 06a3 3E       		.byte	0x3e
 1229 06a4 E8060000 		.4byte	0x6e8
 1230 06a8 0C       		.byte	0xc
 1231 06a9 00       		.byte	0
 1232 06aa 09       		.uleb128 0x9
 1233 06ab 04       		.byte	0x4
 1234 06ac 79060000 		.4byte	0x679
 1235 06b0 09       		.uleb128 0x9
 1236 06b1 04       		.byte	0x4
 1237 06b2 B6060000 		.4byte	0x6b6
 1238 06b6 16       		.uleb128 0x16
 1239 06b7 BB060000 		.4byte	0x6bb
 1240 06bb 03       		.uleb128 0x3
 1241 06bc 01       		.byte	0x1
 1242 06bd 08       		.byte	0x8
 1243 06be BB040000 		.4byte	.LASF112
 1244 06c2 09       		.uleb128 0x9
 1245 06c3 04       		.byte	0x4
 1246 06c4 11030000 		.4byte	0x311
 1247 06c8 0F       		.uleb128 0xf
 1248 06c9 B0060000 		.4byte	0x6b0
 1249 06cd 17       		.uleb128 0x17
 1250 06ce 1A050000 		.4byte	0x51a
 1251 06d2 DD060000 		.4byte	0x6dd
ARM GAS  /tmp/ccDZd6ZF.s 			page 23


 1252 06d6 18       		.uleb128 0x18
 1253 06d7 45040000 		.4byte	0x445
 1254 06db 1A       		.byte	0x1a
 1255 06dc 00       		.byte	0
 1256 06dd 04       		.uleb128 0x4
 1257 06de 0F020000 		.4byte	.LASF113
 1258 06e2 0C       		.byte	0xc
 1259 06e3 34       		.byte	0x34
 1260 06e4 79060000 		.4byte	0x679
 1261 06e8 09       		.uleb128 0x9
 1262 06e9 04       		.byte	0x4
 1263 06ea DD060000 		.4byte	0x6dd
 1264 06ee 03       		.uleb128 0x3
 1265 06ef 01       		.byte	0x1
 1266 06f0 02       		.byte	0x2
 1267 06f1 D2030000 		.4byte	.LASF114
 1268 06f5 13       		.uleb128 0x13
 1269 06f6 04       		.byte	0x4
 1270 06f7 0D       		.byte	0xd
 1271 06f8 E7       		.byte	0xe7
 1272 06f9 16070000 		.4byte	0x716
 1273 06fd 12       		.uleb128 0x12
 1274 06fe 73657400 		.ascii	"set\000"
 1275 0702 0D       		.byte	0xd
 1276 0703 E8       		.byte	0xe8
 1277 0704 AD000000 		.4byte	0xad
 1278 0708 00       		.byte	0
 1279 0709 06       		.uleb128 0x6
 1280 070a 27030000 		.4byte	.LASF115
 1281 070e 0D       		.byte	0xd
 1282 070f E9       		.byte	0xe9
 1283 0710 AD000000 		.4byte	0xad
 1284 0714 02       		.byte	0x2
 1285 0715 00       		.byte	0
 1286 0716 14       		.uleb128 0x14
 1287 0717 04       		.byte	0x4
 1288 0718 0D       		.byte	0xd
 1289 0719 E5       		.byte	0xe5
 1290 071a 31070000 		.4byte	0x731
 1291 071e 19       		.uleb128 0x19
 1292 071f 5700     		.ascii	"W\000"
 1293 0721 0D       		.byte	0xd
 1294 0722 E6       		.byte	0xe6
 1295 0723 C3000000 		.4byte	0xc3
 1296 0727 19       		.uleb128 0x19
 1297 0728 4800     		.ascii	"H\000"
 1298 072a 0D       		.byte	0xd
 1299 072b EA       		.byte	0xea
 1300 072c F5060000 		.4byte	0x6f5
 1301 0730 00       		.byte	0
 1302 0731 13       		.uleb128 0x13
 1303 0732 2C       		.byte	0x2c
 1304 0733 0D       		.byte	0xd
 1305 0734 DD       		.byte	0xdd
 1306 0735 BE070000 		.4byte	0x7be
 1307 0739 06       		.uleb128 0x6
 1308 073a 6F000000 		.4byte	.LASF116
ARM GAS  /tmp/ccDZd6ZF.s 			page 24


 1309 073e 0D       		.byte	0xd
 1310 073f DF       		.byte	0xdf
 1311 0740 4C040000 		.4byte	0x44c
 1312 0744 00       		.byte	0
 1313 0745 06       		.uleb128 0x6
 1314 0746 40000000 		.4byte	.LASF117
 1315 074a 0D       		.byte	0xd
 1316 074b E0       		.byte	0xe0
 1317 074c 4C040000 		.4byte	0x44c
 1318 0750 04       		.byte	0x4
 1319 0751 06       		.uleb128 0x6
 1320 0752 D0010000 		.4byte	.LASF118
 1321 0756 0D       		.byte	0xd
 1322 0757 E1       		.byte	0xe1
 1323 0758 4C040000 		.4byte	0x44c
 1324 075c 08       		.byte	0x8
 1325 075d 06       		.uleb128 0x6
 1326 075e 8C000000 		.4byte	.LASF119
 1327 0762 0D       		.byte	0xd
 1328 0763 E2       		.byte	0xe2
 1329 0764 4C040000 		.4byte	0x44c
 1330 0768 0C       		.byte	0xc
 1331 0769 12       		.uleb128 0x12
 1332 076a 49445200 		.ascii	"IDR\000"
 1333 076e 0D       		.byte	0xd
 1334 076f E3       		.byte	0xe3
 1335 0770 4C040000 		.4byte	0x44c
 1336 0774 10       		.byte	0x10
 1337 0775 12       		.uleb128 0x12
 1338 0776 4F445200 		.ascii	"ODR\000"
 1339 077a 0D       		.byte	0xd
 1340 077b E4       		.byte	0xe4
 1341 077c 4C040000 		.4byte	0x44c
 1342 0780 14       		.byte	0x14
 1343 0781 06       		.uleb128 0x6
 1344 0782 03010000 		.4byte	.LASF120
 1345 0786 0D       		.byte	0xd
 1346 0787 EB       		.byte	0xeb
 1347 0788 BE070000 		.4byte	0x7be
 1348 078c 18       		.byte	0x18
 1349 078d 06       		.uleb128 0x6
 1350 078e 62020000 		.4byte	.LASF121
 1351 0792 0D       		.byte	0xd
 1352 0793 EC       		.byte	0xec
 1353 0794 4C040000 		.4byte	0x44c
 1354 0798 1C       		.byte	0x1c
 1355 0799 06       		.uleb128 0x6
 1356 079a 96030000 		.4byte	.LASF122
 1357 079e 0D       		.byte	0xd
 1358 079f ED       		.byte	0xed
 1359 07a0 4C040000 		.4byte	0x44c
 1360 07a4 20       		.byte	0x20
 1361 07a5 06       		.uleb128 0x6
 1362 07a6 91030000 		.4byte	.LASF123
 1363 07aa 0D       		.byte	0xd
 1364 07ab EE       		.byte	0xee
 1365 07ac 4C040000 		.4byte	0x44c
ARM GAS  /tmp/ccDZd6ZF.s 			page 25


 1366 07b0 24       		.byte	0x24
 1367 07b1 12       		.uleb128 0x12
 1368 07b2 42525200 		.ascii	"BRR\000"
 1369 07b6 0D       		.byte	0xd
 1370 07b7 EF       		.byte	0xef
 1371 07b8 4C040000 		.4byte	0x44c
 1372 07bc 28       		.byte	0x28
 1373 07bd 00       		.byte	0
 1374 07be 0F       		.uleb128 0xf
 1375 07bf 16070000 		.4byte	0x716
 1376 07c3 04       		.uleb128 0x4
 1377 07c4 FD010000 		.4byte	.LASF124
 1378 07c8 0D       		.byte	0xd
 1379 07c9 F0       		.byte	0xf0
 1380 07ca 31070000 		.4byte	0x731
 1381 07ce 13       		.uleb128 0x13
 1382 07cf 1C       		.byte	0x1c
 1383 07d0 0D       		.byte	0xd
 1384 07d1 F5       		.byte	0xf5
 1385 07d2 2D080000 		.4byte	0x82d
 1386 07d6 06       		.uleb128 0x6
 1387 07d7 4B010000 		.4byte	.LASF125
 1388 07db 0D       		.byte	0xd
 1389 07dc F7       		.byte	0xf7
 1390 07dd C3000000 		.4byte	0xc3
 1391 07e1 00       		.byte	0
 1392 07e2 06       		.uleb128 0x6
 1393 07e3 67020000 		.4byte	.LASF126
 1394 07e7 0D       		.byte	0xd
 1395 07e8 F9       		.byte	0xf9
 1396 07e9 C3000000 		.4byte	0xc3
 1397 07ed 04       		.byte	0x4
 1398 07ee 06       		.uleb128 0x6
 1399 07ef 5A020000 		.4byte	.LASF127
 1400 07f3 0D       		.byte	0xd
 1401 07f4 FB       		.byte	0xfb
 1402 07f5 C3000000 		.4byte	0xc3
 1403 07f9 08       		.byte	0x8
 1404 07fa 06       		.uleb128 0x6
 1405 07fb 99060000 		.4byte	.LASF128
 1406 07ff 0D       		.byte	0xd
 1407 0800 FD       		.byte	0xfd
 1408 0801 C3000000 		.4byte	0xc3
 1409 0805 0C       		.byte	0xc
 1410 0806 12       		.uleb128 0x12
 1411 0807 6F647200 		.ascii	"odr\000"
 1412 080b 0D       		.byte	0xd
 1413 080c FF       		.byte	0xff
 1414 080d C3000000 		.4byte	0xc3
 1415 0811 10       		.byte	0x10
 1416 0812 08       		.uleb128 0x8
 1417 0813 EE030000 		.4byte	.LASF129
 1418 0817 0D       		.byte	0xd
 1419 0818 0101     		.2byte	0x101
 1420 081a C3000000 		.4byte	0xc3
 1421 081e 14       		.byte	0x14
 1422 081f 08       		.uleb128 0x8
ARM GAS  /tmp/ccDZd6ZF.s 			page 26


 1423 0820 5F030000 		.4byte	.LASF130
 1424 0824 0D       		.byte	0xd
 1425 0825 0301     		.2byte	0x103
 1426 0827 C3000000 		.4byte	0xc3
 1427 082b 18       		.byte	0x18
 1428 082c 00       		.byte	0
 1429 082d 11       		.uleb128 0x11
 1430 082e 00000000 		.4byte	.LASF131
 1431 0832 0D       		.byte	0xd
 1432 0833 0401     		.2byte	0x104
 1433 0835 CE070000 		.4byte	0x7ce
 1434 0839 10       		.uleb128 0x10
 1435 083a A8       		.byte	0xa8
 1436 083b 0D       		.byte	0xd
 1437 083c 0D01     		.2byte	0x10d
 1438 083e 91080000 		.4byte	0x891
 1439 0842 08       		.uleb128 0x8
 1440 0843 1C040000 		.4byte	.LASF132
 1441 0847 0D       		.byte	0xd
 1442 0848 1001     		.2byte	0x110
 1443 084a 2D080000 		.4byte	0x82d
 1444 084e 00       		.byte	0
 1445 084f 08       		.uleb128 0x8
 1446 0850 17020000 		.4byte	.LASF133
 1447 0854 0D       		.byte	0xd
 1448 0855 1401     		.2byte	0x114
 1449 0857 2D080000 		.4byte	0x82d
 1450 085b 1C       		.byte	0x1c
 1451 085c 08       		.uleb128 0x8
 1452 085d AD060000 		.4byte	.LASF134
 1453 0861 0D       		.byte	0xd
 1454 0862 1801     		.2byte	0x118
 1455 0864 2D080000 		.4byte	0x82d
 1456 0868 38       		.byte	0x38
 1457 0869 08       		.uleb128 0x8
 1458 086a 6C030000 		.4byte	.LASF135
 1459 086e 0D       		.byte	0xd
 1460 086f 1C01     		.2byte	0x11c
 1461 0871 2D080000 		.4byte	0x82d
 1462 0875 54       		.byte	0x54
 1463 0876 08       		.uleb128 0x8
 1464 0877 95010000 		.4byte	.LASF136
 1465 087b 0D       		.byte	0xd
 1466 087c 2001     		.2byte	0x120
 1467 087e 2D080000 		.4byte	0x82d
 1468 0882 70       		.byte	0x70
 1469 0883 08       		.uleb128 0x8
 1470 0884 81020000 		.4byte	.LASF137
 1471 0888 0D       		.byte	0xd
 1472 0889 2401     		.2byte	0x124
 1473 088b 2D080000 		.4byte	0x82d
 1474 088f 8C       		.byte	0x8c
 1475 0890 00       		.byte	0
 1476 0891 11       		.uleb128 0x11
 1477 0892 C2060000 		.4byte	.LASF138
 1478 0896 0D       		.byte	0xd
 1479 0897 3A01     		.2byte	0x13a
ARM GAS  /tmp/ccDZd6ZF.s 			page 27


 1480 0899 39080000 		.4byte	0x839
 1481 089d 11       		.uleb128 0x11
 1482 089e 62000000 		.4byte	.LASF139
 1483 08a2 0D       		.byte	0xd
 1484 08a3 3F01     		.2byte	0x13f
 1485 08a5 C3000000 		.4byte	0xc3
 1486 08a9 11       		.uleb128 0x11
 1487 08aa B9060000 		.4byte	.LASF140
 1488 08ae 0D       		.byte	0xd
 1489 08af 4401     		.2byte	0x144
 1490 08b1 C3000000 		.4byte	0xc3
 1491 08b5 11       		.uleb128 0x11
 1492 08b6 0C060000 		.4byte	.LASF141
 1493 08ba 0D       		.byte	0xd
 1494 08bb 5101     		.2byte	0x151
 1495 08bd C1080000 		.4byte	0x8c1
 1496 08c1 09       		.uleb128 0x9
 1497 08c2 04       		.byte	0x4
 1498 08c3 C3070000 		.4byte	0x7c3
 1499 08c7 1A       		.uleb128 0x1a
 1500 08c8 EA050000 		.4byte	.LASF155
 1501 08cc 01       		.byte	0x1
 1502 08cd 3D       		.byte	0x3d
 1503 08ce 01       		.byte	0x1
 1504 08cf EA080000 		.4byte	0x8ea
 1505 08d3 1B       		.uleb128 0x1b
 1506 08d4 3C040000 		.4byte	.LASF142
 1507 08d8 01       		.byte	0x1
 1508 08d9 3D       		.byte	0x3d
 1509 08da C1080000 		.4byte	0x8c1
 1510 08de 1B       		.uleb128 0x1b
 1511 08df C5040000 		.4byte	.LASF143
 1512 08e3 01       		.byte	0x1
 1513 08e4 3D       		.byte	0x3d
 1514 08e5 EA080000 		.4byte	0x8ea
 1515 08e9 00       		.byte	0
 1516 08ea 09       		.uleb128 0x9
 1517 08eb 04       		.byte	0x4
 1518 08ec F0080000 		.4byte	0x8f0
 1519 08f0 16       		.uleb128 0x16
 1520 08f1 2D080000 		.4byte	0x82d
 1521 08f5 1C       		.uleb128 0x1c
 1522 08f6 6C060000 		.4byte	.LASF144
 1523 08fa 01       		.byte	0x1
 1524 08fb 58       		.byte	0x58
 1525 08fc 00000000 		.4byte	.LFB273
 1526 0900 F4000000 		.4byte	.LFE273-.LFB273
 1527 0904 01       		.uleb128 0x1
 1528 0905 9C       		.byte	0x9c
 1529 0906 F9090000 		.4byte	0x9f9
 1530 090a 1D       		.uleb128 0x1d
 1531 090b C5040000 		.4byte	.LASF143
 1532 090f 01       		.byte	0x1
 1533 0910 58       		.byte	0x58
 1534 0911 F9090000 		.4byte	0x9f9
 1535 0915 01       		.uleb128 0x1
 1536 0916 50       		.byte	0x50
ARM GAS  /tmp/ccDZd6ZF.s 			page 28


 1537 0917 1E       		.uleb128 0x1e
 1538 0918 C7080000 		.4byte	0x8c7
 1539 091c 04000000 		.4byte	.LBB14
 1540 0920 00000000 		.4byte	.Ldebug_ranges0+0
 1541 0924 01       		.byte	0x1
 1542 0925 73       		.byte	0x73
 1543 0926 3D090000 		.4byte	0x93d
 1544 092a 1F       		.uleb128 0x1f
 1545 092b DE080000 		.4byte	0x8de
 1546 092f 03       		.uleb128 0x3
 1547 0930 70       		.byte	0x70
 1548 0931 1C       		.sleb128 28
 1549 0932 9F       		.byte	0x9f
 1550 0933 20       		.uleb128 0x20
 1551 0934 D3080000 		.4byte	0x8d3
 1552 0938 00040048 		.4byte	0x48000400
 1553 093c 00       		.byte	0
 1554 093d 1E       		.uleb128 0x1e
 1555 093e C7080000 		.4byte	0x8c7
 1556 0942 08000000 		.4byte	.LBB17
 1557 0946 18000000 		.4byte	.Ldebug_ranges0+0x18
 1558 094a 01       		.byte	0x1
 1559 094b 76       		.byte	0x76
 1560 094c 63090000 		.4byte	0x963
 1561 0950 1F       		.uleb128 0x1f
 1562 0951 DE080000 		.4byte	0x8de
 1563 0955 03       		.uleb128 0x3
 1564 0956 70       		.byte	0x70
 1565 0957 38       		.sleb128 56
 1566 0958 9F       		.byte	0x9f
 1567 0959 20       		.uleb128 0x20
 1568 095a D3080000 		.4byte	0x8d3
 1569 095e 00080048 		.4byte	0x48000800
 1570 0962 00       		.byte	0
 1571 0963 1E       		.uleb128 0x1e
 1572 0964 C7080000 		.4byte	0x8c7
 1573 0968 0A000000 		.4byte	.LBB20
 1574 096c 30000000 		.4byte	.Ldebug_ranges0+0x30
 1575 0970 01       		.byte	0x1
 1576 0971 79       		.byte	0x79
 1577 0972 8A090000 		.4byte	0x98a
 1578 0976 1F       		.uleb128 0x1f
 1579 0977 DE080000 		.4byte	0x8de
 1580 097b 04       		.uleb128 0x4
 1581 097c 70       		.byte	0x70
 1582 097d D400     		.sleb128 84
 1583 097f 9F       		.byte	0x9f
 1584 0980 20       		.uleb128 0x20
 1585 0981 D3080000 		.4byte	0x8d3
 1586 0985 000C0048 		.4byte	0x48000c00
 1587 0989 00       		.byte	0
 1588 098a 1E       		.uleb128 0x1e
 1589 098b C7080000 		.4byte	0x8c7
 1590 098f 0C000000 		.4byte	.LBB23
 1591 0993 48000000 		.4byte	.Ldebug_ranges0+0x48
 1592 0997 01       		.byte	0x1
 1593 0998 7C       		.byte	0x7c
ARM GAS  /tmp/ccDZd6ZF.s 			page 29


 1594 0999 B1090000 		.4byte	0x9b1
 1595 099d 1F       		.uleb128 0x1f
 1596 099e DE080000 		.4byte	0x8de
 1597 09a2 04       		.uleb128 0x4
 1598 09a3 70       		.byte	0x70
 1599 09a4 F000     		.sleb128 112
 1600 09a6 9F       		.byte	0x9f
 1601 09a7 20       		.uleb128 0x20
 1602 09a8 D3080000 		.4byte	0x8d3
 1603 09ac 00100048 		.4byte	0x48001000
 1604 09b0 00       		.byte	0
 1605 09b1 1E       		.uleb128 0x1e
 1606 09b2 C7080000 		.4byte	0x8c7
 1607 09b6 0E000000 		.4byte	.LBB26
 1608 09ba 60000000 		.4byte	.Ldebug_ranges0+0x60
 1609 09be 01       		.byte	0x1
 1610 09bf 7F       		.byte	0x7f
 1611 09c0 D8090000 		.4byte	0x9d8
 1612 09c4 1F       		.uleb128 0x1f
 1613 09c5 DE080000 		.4byte	0x8de
 1614 09c9 04       		.uleb128 0x4
 1615 09ca 70       		.byte	0x70
 1616 09cb 8C01     		.sleb128 140
 1617 09cd 9F       		.byte	0x9f
 1618 09ce 20       		.uleb128 0x20
 1619 09cf D3080000 		.4byte	0x8d3
 1620 09d3 00140048 		.4byte	0x48001400
 1621 09d7 00       		.byte	0
 1622 09d8 21       		.uleb128 0x21
 1623 09d9 C7080000 		.4byte	0x8c7
 1624 09dd 16000000 		.4byte	.LBB29
 1625 09e1 20000000 		.4byte	.LBE29-.LBB29
 1626 09e5 01       		.byte	0x1
 1627 09e6 70       		.byte	0x70
 1628 09e7 1F       		.uleb128 0x1f
 1629 09e8 DE080000 		.4byte	0x8de
 1630 09ec 01       		.uleb128 0x1
 1631 09ed 50       		.byte	0x50
 1632 09ee 20       		.uleb128 0x20
 1633 09ef D3080000 		.4byte	0x8d3
 1634 09f3 00000048 		.4byte	0x48000000
 1635 09f7 00       		.byte	0
 1636 09f8 00       		.byte	0
 1637 09f9 09       		.uleb128 0x9
 1638 09fa 04       		.byte	0x4
 1639 09fb FF090000 		.4byte	0x9ff
 1640 09ff 16       		.uleb128 0x16
 1641 0a00 91080000 		.4byte	0x891
 1642 0a04 1C       		.uleb128 0x1c
 1643 0a05 27060000 		.4byte	.LASF145
 1644 0a09 01       		.byte	0x1
 1645 0a0a 9F       		.byte	0x9f
 1646 0a0b 00000000 		.4byte	.LFB274
 1647 0a0f C8000000 		.4byte	.LFE274-.LFB274
 1648 0a13 01       		.uleb128 0x1
 1649 0a14 9C       		.byte	0x9c
 1650 0a15 DC0A0000 		.4byte	0xadc
ARM GAS  /tmp/ccDZd6ZF.s 			page 30


 1651 0a19 1D       		.uleb128 0x1d
 1652 0a1a 0A020000 		.4byte	.LASF146
 1653 0a1e 01       		.byte	0x1
 1654 0a1f 9F       		.byte	0x9f
 1655 0a20 B5080000 		.4byte	0x8b5
 1656 0a24 01       		.uleb128 0x1
 1657 0a25 50       		.byte	0x50
 1658 0a26 22       		.uleb128 0x22
 1659 0a27 E0010000 		.4byte	.LASF147
 1660 0a2b 01       		.byte	0x1
 1661 0a2c A0       		.byte	0xa0
 1662 0a2d 9D080000 		.4byte	0x89d
 1663 0a31 00000000 		.4byte	.LLST0
 1664 0a35 22       		.uleb128 0x22
 1665 0a36 C0040000 		.4byte	.LASF148
 1666 0a3a 01       		.byte	0x1
 1667 0a3b A1       		.byte	0xa1
 1668 0a3c A9080000 		.4byte	0x8a9
 1669 0a40 2D000000 		.4byte	.LLST1
 1670 0a44 23       		.uleb128 0x23
 1671 0a45 4B010000 		.4byte	.LASF125
 1672 0a49 01       		.byte	0x1
 1673 0a4a A3       		.byte	0xa3
 1674 0a4b C3000000 		.4byte	0xc3
 1675 0a4f 4E000000 		.4byte	.LLST2
 1676 0a53 23       		.uleb128 0x23
 1677 0a54 67020000 		.4byte	.LASF126
 1678 0a58 01       		.byte	0x1
 1679 0a59 A4       		.byte	0xa4
 1680 0a5a C3000000 		.4byte	0xc3
 1681 0a5e 61000000 		.4byte	.LLST3
 1682 0a62 23       		.uleb128 0x23
 1683 0a63 5A020000 		.4byte	.LASF127
 1684 0a67 01       		.byte	0x1
 1685 0a68 A5       		.byte	0xa5
 1686 0a69 C3000000 		.4byte	0xc3
 1687 0a6d 74000000 		.4byte	.LLST4
 1688 0a71 23       		.uleb128 0x23
 1689 0a72 99060000 		.4byte	.LASF128
 1690 0a76 01       		.byte	0x1
 1691 0a77 A6       		.byte	0xa6
 1692 0a78 C3000000 		.4byte	0xc3
 1693 0a7c 87000000 		.4byte	.LLST5
 1694 0a80 24       		.uleb128 0x24
 1695 0a81 B6040000 		.4byte	.LASF149
 1696 0a85 01       		.byte	0x1
 1697 0a86 A7       		.byte	0xa7
 1698 0a87 C3000000 		.4byte	0xc3
 1699 0a8b 01       		.uleb128 0x1
 1700 0a8c 52       		.byte	0x52
 1701 0a8d 25       		.uleb128 0x25
 1702 0a8e 62697400 		.ascii	"bit\000"
 1703 0a92 01       		.byte	0x1
 1704 0a93 A8       		.byte	0xa8
 1705 0a94 C3000000 		.4byte	0xc3
 1706 0a98 9A000000 		.4byte	.LLST6
 1707 0a9c 26       		.uleb128 0x26
ARM GAS  /tmp/ccDZd6ZF.s 			page 31


 1708 0a9d 78000000 		.4byte	.Ldebug_ranges0+0x78
 1709 0aa1 23       		.uleb128 0x23
 1710 0aa2 B7010000 		.4byte	.LASF150
 1711 0aa6 01       		.byte	0x1
 1712 0aa7 AB       		.byte	0xab
 1713 0aa8 C3000000 		.4byte	0xc3
 1714 0aac B9000000 		.4byte	.LLST7
 1715 0ab0 25       		.uleb128 0x25
 1716 0ab1 6D3100   		.ascii	"m1\000"
 1717 0ab4 01       		.byte	0x1
 1718 0ab5 AB       		.byte	0xab
 1719 0ab6 C3000000 		.4byte	0xc3
 1720 0aba FF000000 		.4byte	.LLST8
 1721 0abe 25       		.uleb128 0x25
 1722 0abf 6D3200   		.ascii	"m2\000"
 1723 0ac2 01       		.byte	0x1
 1724 0ac3 AB       		.byte	0xab
 1725 0ac4 C3000000 		.4byte	0xc3
 1726 0ac8 16010000 		.4byte	.LLST9
 1727 0acc 25       		.uleb128 0x25
 1728 0acd 6D3400   		.ascii	"m4\000"
 1729 0ad0 01       		.byte	0x1
 1730 0ad1 AB       		.byte	0xab
 1731 0ad2 C3000000 		.4byte	0xc3
 1732 0ad6 59010000 		.4byte	.LLST10
 1733 0ada 00       		.byte	0
 1734 0adb 00       		.byte	0
 1735 0adc 27       		.uleb128 0x27
 1736 0add C4000000 		.4byte	.LASF151
 1737 0ae1 0E       		.byte	0xe
 1738 0ae2 FA06     		.2byte	0x6fa
 1739 0ae4 E80A0000 		.4byte	0xae8
 1740 0ae8 0F       		.uleb128 0xf
 1741 0ae9 B8000000 		.4byte	0xb8
 1742 0aed 28       		.uleb128 0x28
 1743 0aee 636800   		.ascii	"ch\000"
 1744 0af1 06       		.byte	0x6
 1745 0af2 0B02     		.2byte	0x20b
 1746 0af4 DE030000 		.4byte	0x3de
 1747 0af8 00       		.byte	0
 1748              		.section	.debug_abbrev,"",%progbits
 1749              	.Ldebug_abbrev0:
 1750 0000 01       		.uleb128 0x1
 1751 0001 11       		.uleb128 0x11
 1752 0002 01       		.byte	0x1
 1753 0003 25       		.uleb128 0x25
 1754 0004 0E       		.uleb128 0xe
 1755 0005 13       		.uleb128 0x13
 1756 0006 0B       		.uleb128 0xb
 1757 0007 03       		.uleb128 0x3
 1758 0008 0E       		.uleb128 0xe
 1759 0009 1B       		.uleb128 0x1b
 1760 000a 0E       		.uleb128 0xe
 1761 000b 55       		.uleb128 0x55
 1762 000c 17       		.uleb128 0x17
 1763 000d 11       		.uleb128 0x11
 1764 000e 01       		.uleb128 0x1
ARM GAS  /tmp/ccDZd6ZF.s 			page 32


 1765 000f 10       		.uleb128 0x10
 1766 0010 17       		.uleb128 0x17
 1767 0011 00       		.byte	0
 1768 0012 00       		.byte	0
 1769 0013 02       		.uleb128 0x2
 1770 0014 24       		.uleb128 0x24
 1771 0015 00       		.byte	0
 1772 0016 0B       		.uleb128 0xb
 1773 0017 0B       		.uleb128 0xb
 1774 0018 3E       		.uleb128 0x3e
 1775 0019 0B       		.uleb128 0xb
 1776 001a 03       		.uleb128 0x3
 1777 001b 08       		.uleb128 0x8
 1778 001c 00       		.byte	0
 1779 001d 00       		.byte	0
 1780 001e 03       		.uleb128 0x3
 1781 001f 24       		.uleb128 0x24
 1782 0020 00       		.byte	0
 1783 0021 0B       		.uleb128 0xb
 1784 0022 0B       		.uleb128 0xb
 1785 0023 3E       		.uleb128 0x3e
 1786 0024 0B       		.uleb128 0xb
 1787 0025 03       		.uleb128 0x3
 1788 0026 0E       		.uleb128 0xe
 1789 0027 00       		.byte	0
 1790 0028 00       		.byte	0
 1791 0029 04       		.uleb128 0x4
 1792 002a 16       		.uleb128 0x16
 1793 002b 00       		.byte	0
 1794 002c 03       		.uleb128 0x3
 1795 002d 0E       		.uleb128 0xe
 1796 002e 3A       		.uleb128 0x3a
 1797 002f 0B       		.uleb128 0xb
 1798 0030 3B       		.uleb128 0x3b
 1799 0031 0B       		.uleb128 0xb
 1800 0032 49       		.uleb128 0x49
 1801 0033 13       		.uleb128 0x13
 1802 0034 00       		.byte	0
 1803 0035 00       		.byte	0
 1804 0036 05       		.uleb128 0x5
 1805 0037 13       		.uleb128 0x13
 1806 0038 01       		.byte	0x1
 1807 0039 03       		.uleb128 0x3
 1808 003a 0E       		.uleb128 0xe
 1809 003b 0B       		.uleb128 0xb
 1810 003c 0B       		.uleb128 0xb
 1811 003d 3A       		.uleb128 0x3a
 1812 003e 0B       		.uleb128 0xb
 1813 003f 3B       		.uleb128 0x3b
 1814 0040 0B       		.uleb128 0xb
 1815 0041 01       		.uleb128 0x1
 1816 0042 13       		.uleb128 0x13
 1817 0043 00       		.byte	0
 1818 0044 00       		.byte	0
 1819 0045 06       		.uleb128 0x6
 1820 0046 0D       		.uleb128 0xd
 1821 0047 00       		.byte	0
ARM GAS  /tmp/ccDZd6ZF.s 			page 33


 1822 0048 03       		.uleb128 0x3
 1823 0049 0E       		.uleb128 0xe
 1824 004a 3A       		.uleb128 0x3a
 1825 004b 0B       		.uleb128 0xb
 1826 004c 3B       		.uleb128 0x3b
 1827 004d 0B       		.uleb128 0xb
 1828 004e 49       		.uleb128 0x49
 1829 004f 13       		.uleb128 0x13
 1830 0050 38       		.uleb128 0x38
 1831 0051 0B       		.uleb128 0xb
 1832 0052 00       		.byte	0
 1833 0053 00       		.byte	0
 1834 0054 07       		.uleb128 0x7
 1835 0055 0D       		.uleb128 0xd
 1836 0056 00       		.byte	0
 1837 0057 03       		.uleb128 0x3
 1838 0058 08       		.uleb128 0x8
 1839 0059 3A       		.uleb128 0x3a
 1840 005a 0B       		.uleb128 0xb
 1841 005b 3B       		.uleb128 0x3b
 1842 005c 05       		.uleb128 0x5
 1843 005d 49       		.uleb128 0x49
 1844 005e 13       		.uleb128 0x13
 1845 005f 38       		.uleb128 0x38
 1846 0060 0B       		.uleb128 0xb
 1847 0061 00       		.byte	0
 1848 0062 00       		.byte	0
 1849 0063 08       		.uleb128 0x8
 1850 0064 0D       		.uleb128 0xd
 1851 0065 00       		.byte	0
 1852 0066 03       		.uleb128 0x3
 1853 0067 0E       		.uleb128 0xe
 1854 0068 3A       		.uleb128 0x3a
 1855 0069 0B       		.uleb128 0xb
 1856 006a 3B       		.uleb128 0x3b
 1857 006b 05       		.uleb128 0x5
 1858 006c 49       		.uleb128 0x49
 1859 006d 13       		.uleb128 0x13
 1860 006e 38       		.uleb128 0x38
 1861 006f 0B       		.uleb128 0xb
 1862 0070 00       		.byte	0
 1863 0071 00       		.byte	0
 1864 0072 09       		.uleb128 0x9
 1865 0073 0F       		.uleb128 0xf
 1866 0074 00       		.byte	0
 1867 0075 0B       		.uleb128 0xb
 1868 0076 0B       		.uleb128 0xb
 1869 0077 49       		.uleb128 0x49
 1870 0078 13       		.uleb128 0x13
 1871 0079 00       		.byte	0
 1872 007a 00       		.byte	0
 1873 007b 0A       		.uleb128 0xa
 1874 007c 13       		.uleb128 0x13
 1875 007d 01       		.byte	0x1
 1876 007e 03       		.uleb128 0x3
 1877 007f 0E       		.uleb128 0xe
 1878 0080 0B       		.uleb128 0xb
ARM GAS  /tmp/ccDZd6ZF.s 			page 34


 1879 0081 0B       		.uleb128 0xb
 1880 0082 3A       		.uleb128 0x3a
 1881 0083 0B       		.uleb128 0xb
 1882 0084 3B       		.uleb128 0x3b
 1883 0085 05       		.uleb128 0x5
 1884 0086 01       		.uleb128 0x1
 1885 0087 13       		.uleb128 0x13
 1886 0088 00       		.byte	0
 1887 0089 00       		.byte	0
 1888 008a 0B       		.uleb128 0xb
 1889 008b 15       		.uleb128 0x15
 1890 008c 01       		.byte	0x1
 1891 008d 27       		.uleb128 0x27
 1892 008e 19       		.uleb128 0x19
 1893 008f 01       		.uleb128 0x1
 1894 0090 13       		.uleb128 0x13
 1895 0091 00       		.byte	0
 1896 0092 00       		.byte	0
 1897 0093 0C       		.uleb128 0xc
 1898 0094 05       		.uleb128 0x5
 1899 0095 00       		.byte	0
 1900 0096 49       		.uleb128 0x49
 1901 0097 13       		.uleb128 0x13
 1902 0098 00       		.byte	0
 1903 0099 00       		.byte	0
 1904 009a 0D       		.uleb128 0xd
 1905 009b 0F       		.uleb128 0xf
 1906 009c 00       		.byte	0
 1907 009d 0B       		.uleb128 0xb
 1908 009e 0B       		.uleb128 0xb
 1909 009f 00       		.byte	0
 1910 00a0 00       		.byte	0
 1911 00a1 0E       		.uleb128 0xe
 1912 00a2 13       		.uleb128 0x13
 1913 00a3 01       		.byte	0x1
 1914 00a4 03       		.uleb128 0x3
 1915 00a5 0E       		.uleb128 0xe
 1916 00a6 0B       		.uleb128 0xb
 1917 00a7 05       		.uleb128 0x5
 1918 00a8 3A       		.uleb128 0x3a
 1919 00a9 0B       		.uleb128 0xb
 1920 00aa 3B       		.uleb128 0x3b
 1921 00ab 05       		.uleb128 0x5
 1922 00ac 01       		.uleb128 0x1
 1923 00ad 13       		.uleb128 0x13
 1924 00ae 00       		.byte	0
 1925 00af 00       		.byte	0
 1926 00b0 0F       		.uleb128 0xf
 1927 00b1 35       		.uleb128 0x35
 1928 00b2 00       		.byte	0
 1929 00b3 49       		.uleb128 0x49
 1930 00b4 13       		.uleb128 0x13
 1931 00b5 00       		.byte	0
 1932 00b6 00       		.byte	0
 1933 00b7 10       		.uleb128 0x10
 1934 00b8 13       		.uleb128 0x13
 1935 00b9 01       		.byte	0x1
ARM GAS  /tmp/ccDZd6ZF.s 			page 35


 1936 00ba 0B       		.uleb128 0xb
 1937 00bb 0B       		.uleb128 0xb
 1938 00bc 3A       		.uleb128 0x3a
 1939 00bd 0B       		.uleb128 0xb
 1940 00be 3B       		.uleb128 0x3b
 1941 00bf 05       		.uleb128 0x5
 1942 00c0 01       		.uleb128 0x1
 1943 00c1 13       		.uleb128 0x13
 1944 00c2 00       		.byte	0
 1945 00c3 00       		.byte	0
 1946 00c4 11       		.uleb128 0x11
 1947 00c5 16       		.uleb128 0x16
 1948 00c6 00       		.byte	0
 1949 00c7 03       		.uleb128 0x3
 1950 00c8 0E       		.uleb128 0xe
 1951 00c9 3A       		.uleb128 0x3a
 1952 00ca 0B       		.uleb128 0xb
 1953 00cb 3B       		.uleb128 0x3b
 1954 00cc 05       		.uleb128 0x5
 1955 00cd 49       		.uleb128 0x49
 1956 00ce 13       		.uleb128 0x13
 1957 00cf 00       		.byte	0
 1958 00d0 00       		.byte	0
 1959 00d1 12       		.uleb128 0x12
 1960 00d2 0D       		.uleb128 0xd
 1961 00d3 00       		.byte	0
 1962 00d4 03       		.uleb128 0x3
 1963 00d5 08       		.uleb128 0x8
 1964 00d6 3A       		.uleb128 0x3a
 1965 00d7 0B       		.uleb128 0xb
 1966 00d8 3B       		.uleb128 0x3b
 1967 00d9 0B       		.uleb128 0xb
 1968 00da 49       		.uleb128 0x49
 1969 00db 13       		.uleb128 0x13
 1970 00dc 38       		.uleb128 0x38
 1971 00dd 0B       		.uleb128 0xb
 1972 00de 00       		.byte	0
 1973 00df 00       		.byte	0
 1974 00e0 13       		.uleb128 0x13
 1975 00e1 13       		.uleb128 0x13
 1976 00e2 01       		.byte	0x1
 1977 00e3 0B       		.uleb128 0xb
 1978 00e4 0B       		.uleb128 0xb
 1979 00e5 3A       		.uleb128 0x3a
 1980 00e6 0B       		.uleb128 0xb
 1981 00e7 3B       		.uleb128 0x3b
 1982 00e8 0B       		.uleb128 0xb
 1983 00e9 01       		.uleb128 0x1
 1984 00ea 13       		.uleb128 0x13
 1985 00eb 00       		.byte	0
 1986 00ec 00       		.byte	0
 1987 00ed 14       		.uleb128 0x14
 1988 00ee 17       		.uleb128 0x17
 1989 00ef 01       		.byte	0x1
 1990 00f0 0B       		.uleb128 0xb
 1991 00f1 0B       		.uleb128 0xb
 1992 00f2 3A       		.uleb128 0x3a
ARM GAS  /tmp/ccDZd6ZF.s 			page 36


 1993 00f3 0B       		.uleb128 0xb
 1994 00f4 3B       		.uleb128 0x3b
 1995 00f5 0B       		.uleb128 0xb
 1996 00f6 01       		.uleb128 0x1
 1997 00f7 13       		.uleb128 0x13
 1998 00f8 00       		.byte	0
 1999 00f9 00       		.byte	0
 2000 00fa 15       		.uleb128 0x15
 2001 00fb 0D       		.uleb128 0xd
 2002 00fc 00       		.byte	0
 2003 00fd 03       		.uleb128 0x3
 2004 00fe 0E       		.uleb128 0xe
 2005 00ff 3A       		.uleb128 0x3a
 2006 0100 0B       		.uleb128 0xb
 2007 0101 3B       		.uleb128 0x3b
 2008 0102 05       		.uleb128 0x5
 2009 0103 49       		.uleb128 0x49
 2010 0104 13       		.uleb128 0x13
 2011 0105 00       		.byte	0
 2012 0106 00       		.byte	0
 2013 0107 16       		.uleb128 0x16
 2014 0108 26       		.uleb128 0x26
 2015 0109 00       		.byte	0
 2016 010a 49       		.uleb128 0x49
 2017 010b 13       		.uleb128 0x13
 2018 010c 00       		.byte	0
 2019 010d 00       		.byte	0
 2020 010e 17       		.uleb128 0x17
 2021 010f 01       		.uleb128 0x1
 2022 0110 01       		.byte	0x1
 2023 0111 49       		.uleb128 0x49
 2024 0112 13       		.uleb128 0x13
 2025 0113 01       		.uleb128 0x1
 2026 0114 13       		.uleb128 0x13
 2027 0115 00       		.byte	0
 2028 0116 00       		.byte	0
 2029 0117 18       		.uleb128 0x18
 2030 0118 21       		.uleb128 0x21
 2031 0119 00       		.byte	0
 2032 011a 49       		.uleb128 0x49
 2033 011b 13       		.uleb128 0x13
 2034 011c 2F       		.uleb128 0x2f
 2035 011d 0B       		.uleb128 0xb
 2036 011e 00       		.byte	0
 2037 011f 00       		.byte	0
 2038 0120 19       		.uleb128 0x19
 2039 0121 0D       		.uleb128 0xd
 2040 0122 00       		.byte	0
 2041 0123 03       		.uleb128 0x3
 2042 0124 08       		.uleb128 0x8
 2043 0125 3A       		.uleb128 0x3a
 2044 0126 0B       		.uleb128 0xb
 2045 0127 3B       		.uleb128 0x3b
 2046 0128 0B       		.uleb128 0xb
 2047 0129 49       		.uleb128 0x49
 2048 012a 13       		.uleb128 0x13
 2049 012b 00       		.byte	0
ARM GAS  /tmp/ccDZd6ZF.s 			page 37


 2050 012c 00       		.byte	0
 2051 012d 1A       		.uleb128 0x1a
 2052 012e 2E       		.uleb128 0x2e
 2053 012f 01       		.byte	0x1
 2054 0130 03       		.uleb128 0x3
 2055 0131 0E       		.uleb128 0xe
 2056 0132 3A       		.uleb128 0x3a
 2057 0133 0B       		.uleb128 0xb
 2058 0134 3B       		.uleb128 0x3b
 2059 0135 0B       		.uleb128 0xb
 2060 0136 27       		.uleb128 0x27
 2061 0137 19       		.uleb128 0x19
 2062 0138 20       		.uleb128 0x20
 2063 0139 0B       		.uleb128 0xb
 2064 013a 01       		.uleb128 0x1
 2065 013b 13       		.uleb128 0x13
 2066 013c 00       		.byte	0
 2067 013d 00       		.byte	0
 2068 013e 1B       		.uleb128 0x1b
 2069 013f 05       		.uleb128 0x5
 2070 0140 00       		.byte	0
 2071 0141 03       		.uleb128 0x3
 2072 0142 0E       		.uleb128 0xe
 2073 0143 3A       		.uleb128 0x3a
 2074 0144 0B       		.uleb128 0xb
 2075 0145 3B       		.uleb128 0x3b
 2076 0146 0B       		.uleb128 0xb
 2077 0147 49       		.uleb128 0x49
 2078 0148 13       		.uleb128 0x13
 2079 0149 00       		.byte	0
 2080 014a 00       		.byte	0
 2081 014b 1C       		.uleb128 0x1c
 2082 014c 2E       		.uleb128 0x2e
 2083 014d 01       		.byte	0x1
 2084 014e 3F       		.uleb128 0x3f
 2085 014f 19       		.uleb128 0x19
 2086 0150 03       		.uleb128 0x3
 2087 0151 0E       		.uleb128 0xe
 2088 0152 3A       		.uleb128 0x3a
 2089 0153 0B       		.uleb128 0xb
 2090 0154 3B       		.uleb128 0x3b
 2091 0155 0B       		.uleb128 0xb
 2092 0156 27       		.uleb128 0x27
 2093 0157 19       		.uleb128 0x19
 2094 0158 11       		.uleb128 0x11
 2095 0159 01       		.uleb128 0x1
 2096 015a 12       		.uleb128 0x12
 2097 015b 06       		.uleb128 0x6
 2098 015c 40       		.uleb128 0x40
 2099 015d 18       		.uleb128 0x18
 2100 015e 9742     		.uleb128 0x2117
 2101 0160 19       		.uleb128 0x19
 2102 0161 01       		.uleb128 0x1
 2103 0162 13       		.uleb128 0x13
 2104 0163 00       		.byte	0
 2105 0164 00       		.byte	0
 2106 0165 1D       		.uleb128 0x1d
ARM GAS  /tmp/ccDZd6ZF.s 			page 38


 2107 0166 05       		.uleb128 0x5
 2108 0167 00       		.byte	0
 2109 0168 03       		.uleb128 0x3
 2110 0169 0E       		.uleb128 0xe
 2111 016a 3A       		.uleb128 0x3a
 2112 016b 0B       		.uleb128 0xb
 2113 016c 3B       		.uleb128 0x3b
 2114 016d 0B       		.uleb128 0xb
 2115 016e 49       		.uleb128 0x49
 2116 016f 13       		.uleb128 0x13
 2117 0170 02       		.uleb128 0x2
 2118 0171 18       		.uleb128 0x18
 2119 0172 00       		.byte	0
 2120 0173 00       		.byte	0
 2121 0174 1E       		.uleb128 0x1e
 2122 0175 1D       		.uleb128 0x1d
 2123 0176 01       		.byte	0x1
 2124 0177 31       		.uleb128 0x31
 2125 0178 13       		.uleb128 0x13
 2126 0179 52       		.uleb128 0x52
 2127 017a 01       		.uleb128 0x1
 2128 017b 55       		.uleb128 0x55
 2129 017c 17       		.uleb128 0x17
 2130 017d 58       		.uleb128 0x58
 2131 017e 0B       		.uleb128 0xb
 2132 017f 59       		.uleb128 0x59
 2133 0180 0B       		.uleb128 0xb
 2134 0181 01       		.uleb128 0x1
 2135 0182 13       		.uleb128 0x13
 2136 0183 00       		.byte	0
 2137 0184 00       		.byte	0
 2138 0185 1F       		.uleb128 0x1f
 2139 0186 05       		.uleb128 0x5
 2140 0187 00       		.byte	0
 2141 0188 31       		.uleb128 0x31
 2142 0189 13       		.uleb128 0x13
 2143 018a 02       		.uleb128 0x2
 2144 018b 18       		.uleb128 0x18
 2145 018c 00       		.byte	0
 2146 018d 00       		.byte	0
 2147 018e 20       		.uleb128 0x20
 2148 018f 05       		.uleb128 0x5
 2149 0190 00       		.byte	0
 2150 0191 31       		.uleb128 0x31
 2151 0192 13       		.uleb128 0x13
 2152 0193 1C       		.uleb128 0x1c
 2153 0194 06       		.uleb128 0x6
 2154 0195 00       		.byte	0
 2155 0196 00       		.byte	0
 2156 0197 21       		.uleb128 0x21
 2157 0198 1D       		.uleb128 0x1d
 2158 0199 01       		.byte	0x1
 2159 019a 31       		.uleb128 0x31
 2160 019b 13       		.uleb128 0x13
 2161 019c 11       		.uleb128 0x11
 2162 019d 01       		.uleb128 0x1
 2163 019e 12       		.uleb128 0x12
ARM GAS  /tmp/ccDZd6ZF.s 			page 39


 2164 019f 06       		.uleb128 0x6
 2165 01a0 58       		.uleb128 0x58
 2166 01a1 0B       		.uleb128 0xb
 2167 01a2 59       		.uleb128 0x59
 2168 01a3 0B       		.uleb128 0xb
 2169 01a4 00       		.byte	0
 2170 01a5 00       		.byte	0
 2171 01a6 22       		.uleb128 0x22
 2172 01a7 05       		.uleb128 0x5
 2173 01a8 00       		.byte	0
 2174 01a9 03       		.uleb128 0x3
 2175 01aa 0E       		.uleb128 0xe
 2176 01ab 3A       		.uleb128 0x3a
 2177 01ac 0B       		.uleb128 0xb
 2178 01ad 3B       		.uleb128 0x3b
 2179 01ae 0B       		.uleb128 0xb
 2180 01af 49       		.uleb128 0x49
 2181 01b0 13       		.uleb128 0x13
 2182 01b1 02       		.uleb128 0x2
 2183 01b2 17       		.uleb128 0x17
 2184 01b3 00       		.byte	0
 2185 01b4 00       		.byte	0
 2186 01b5 23       		.uleb128 0x23
 2187 01b6 34       		.uleb128 0x34
 2188 01b7 00       		.byte	0
 2189 01b8 03       		.uleb128 0x3
 2190 01b9 0E       		.uleb128 0xe
 2191 01ba 3A       		.uleb128 0x3a
 2192 01bb 0B       		.uleb128 0xb
 2193 01bc 3B       		.uleb128 0x3b
 2194 01bd 0B       		.uleb128 0xb
 2195 01be 49       		.uleb128 0x49
 2196 01bf 13       		.uleb128 0x13
 2197 01c0 02       		.uleb128 0x2
 2198 01c1 17       		.uleb128 0x17
 2199 01c2 00       		.byte	0
 2200 01c3 00       		.byte	0
 2201 01c4 24       		.uleb128 0x24
 2202 01c5 34       		.uleb128 0x34
 2203 01c6 00       		.byte	0
 2204 01c7 03       		.uleb128 0x3
 2205 01c8 0E       		.uleb128 0xe
 2206 01c9 3A       		.uleb128 0x3a
 2207 01ca 0B       		.uleb128 0xb
 2208 01cb 3B       		.uleb128 0x3b
 2209 01cc 0B       		.uleb128 0xb
 2210 01cd 49       		.uleb128 0x49
 2211 01ce 13       		.uleb128 0x13
 2212 01cf 02       		.uleb128 0x2
 2213 01d0 18       		.uleb128 0x18
 2214 01d1 00       		.byte	0
 2215 01d2 00       		.byte	0
 2216 01d3 25       		.uleb128 0x25
 2217 01d4 34       		.uleb128 0x34
 2218 01d5 00       		.byte	0
 2219 01d6 03       		.uleb128 0x3
 2220 01d7 08       		.uleb128 0x8
ARM GAS  /tmp/ccDZd6ZF.s 			page 40


 2221 01d8 3A       		.uleb128 0x3a
 2222 01d9 0B       		.uleb128 0xb
 2223 01da 3B       		.uleb128 0x3b
 2224 01db 0B       		.uleb128 0xb
 2225 01dc 49       		.uleb128 0x49
 2226 01dd 13       		.uleb128 0x13
 2227 01de 02       		.uleb128 0x2
 2228 01df 17       		.uleb128 0x17
 2229 01e0 00       		.byte	0
 2230 01e1 00       		.byte	0
 2231 01e2 26       		.uleb128 0x26
 2232 01e3 0B       		.uleb128 0xb
 2233 01e4 01       		.byte	0x1
 2234 01e5 55       		.uleb128 0x55
 2235 01e6 17       		.uleb128 0x17
 2236 01e7 00       		.byte	0
 2237 01e8 00       		.byte	0
 2238 01e9 27       		.uleb128 0x27
 2239 01ea 34       		.uleb128 0x34
 2240 01eb 00       		.byte	0
 2241 01ec 03       		.uleb128 0x3
 2242 01ed 0E       		.uleb128 0xe
 2243 01ee 3A       		.uleb128 0x3a
 2244 01ef 0B       		.uleb128 0xb
 2245 01f0 3B       		.uleb128 0x3b
 2246 01f1 05       		.uleb128 0x5
 2247 01f2 49       		.uleb128 0x49
 2248 01f3 13       		.uleb128 0x13
 2249 01f4 3F       		.uleb128 0x3f
 2250 01f5 19       		.uleb128 0x19
 2251 01f6 3C       		.uleb128 0x3c
 2252 01f7 19       		.uleb128 0x19
 2253 01f8 00       		.byte	0
 2254 01f9 00       		.byte	0
 2255 01fa 28       		.uleb128 0x28
 2256 01fb 34       		.uleb128 0x34
 2257 01fc 00       		.byte	0
 2258 01fd 03       		.uleb128 0x3
 2259 01fe 08       		.uleb128 0x8
 2260 01ff 3A       		.uleb128 0x3a
 2261 0200 0B       		.uleb128 0xb
 2262 0201 3B       		.uleb128 0x3b
 2263 0202 05       		.uleb128 0x5
 2264 0203 49       		.uleb128 0x49
 2265 0204 13       		.uleb128 0x13
 2266 0205 3F       		.uleb128 0x3f
 2267 0206 19       		.uleb128 0x19
 2268 0207 3C       		.uleb128 0x3c
 2269 0208 19       		.uleb128 0x19
 2270 0209 00       		.byte	0
 2271 020a 00       		.byte	0
 2272 020b 00       		.byte	0
 2273              		.section	.debug_loc,"",%progbits
 2274              	.Ldebug_loc0:
 2275              	.LLST0:
 2276 0000 00000000 		.4byte	.LVL7
 2277 0004 88000000 		.4byte	.LVL21
ARM GAS  /tmp/ccDZd6ZF.s 			page 41


 2278 0008 0100     		.2byte	0x1
 2279 000a 51       		.byte	0x51
 2280 000b 88000000 		.4byte	.LVL21
 2281 000f 8A000000 		.4byte	.LVL22
 2282 0013 0500     		.2byte	0x5
 2283 0015 71       		.byte	0x71
 2284 0016 00       		.sleb128 0
 2285 0017 31       		.byte	0x31
 2286 0018 25       		.byte	0x25
 2287 0019 9F       		.byte	0x9f
 2288 001a 8A000000 		.4byte	.LVL22
 2289 001e C8000000 		.4byte	.LFE274
 2290 0022 0100     		.2byte	0x1
 2291 0024 51       		.byte	0x51
 2292 0025 00000000 		.4byte	0
 2293 0029 00000000 		.4byte	0
 2294              	.LLST1:
 2295 002d 00000000 		.4byte	.LVL7
 2296 0031 1E000000 		.4byte	.LVL12
 2297 0035 0100     		.2byte	0x1
 2298 0037 52       		.byte	0x52
 2299 0038 1E000000 		.4byte	.LVL12
 2300 003c C8000000 		.4byte	.LFE274
 2301 0040 0400     		.2byte	0x4
 2302 0042 F3       		.byte	0xf3
 2303 0043 01       		.uleb128 0x1
 2304 0044 52       		.byte	0x52
 2305 0045 9F       		.byte	0x9f
 2306 0046 00000000 		.4byte	0
 2307 004a 00000000 		.4byte	0
 2308              	.LLST2:
 2309 004e 0A000000 		.4byte	.LVL8
 2310 0052 C6000000 		.4byte	.LVL32
 2311 0056 0100     		.2byte	0x1
 2312 0058 57       		.byte	0x57
 2313 0059 00000000 		.4byte	0
 2314 005d 00000000 		.4byte	0
 2315              	.LLST3:
 2316 0061 0E000000 		.4byte	.LVL9
 2317 0065 C6000000 		.4byte	.LVL32
 2318 0069 0100     		.2byte	0x1
 2319 006b 56       		.byte	0x56
 2320 006c 00000000 		.4byte	0
 2321 0070 00000000 		.4byte	0
 2322              	.LLST4:
 2323 0074 12000000 		.4byte	.LVL10
 2324 0078 C6000000 		.4byte	.LVL32
 2325 007c 0100     		.2byte	0x1
 2326 007e 55       		.byte	0x55
 2327 007f 00000000 		.4byte	0
 2328 0083 00000000 		.4byte	0
 2329              	.LLST5:
 2330 0087 16000000 		.4byte	.LVL11
 2331 008b C6000000 		.4byte	.LVL32
 2332 008f 0100     		.2byte	0x1
 2333 0091 54       		.byte	0x54
 2334 0092 00000000 		.4byte	0
ARM GAS  /tmp/ccDZd6ZF.s 			page 42


 2335 0096 00000000 		.4byte	0
 2336              	.LLST6:
 2337 009a 1E000000 		.4byte	.LVL12
 2338 009e 24000000 		.4byte	.LVL13
 2339 00a2 0200     		.2byte	0x2
 2340 00a4 30       		.byte	0x30
 2341 00a5 9F       		.byte	0x9f
 2342 00a6 24000000 		.4byte	.LVL13
 2343 00aa C8000000 		.4byte	.LFE274
 2344 00ae 0100     		.2byte	0x1
 2345 00b0 53       		.byte	0x53
 2346 00b1 00000000 		.4byte	0
 2347 00b5 00000000 		.4byte	0
 2348              	.LLST7:
 2349 00b9 24000000 		.4byte	.LVL13
 2350 00bd 30000000 		.4byte	.LVL15
 2351 00c1 0100     		.2byte	0x1
 2352 00c3 58       		.byte	0x58
 2353 00c4 30000000 		.4byte	.LVL15
 2354 00c8 96000000 		.4byte	.LVL27
 2355 00cc 0A00     		.2byte	0xa
 2356 00ce 72       		.byte	0x72
 2357 00cf 00       		.sleb128 0
 2358 00d0 73       		.byte	0x73
 2359 00d1 00       		.sleb128 0
 2360 00d2 37       		.byte	0x37
 2361 00d3 1A       		.byte	0x1a
 2362 00d4 32       		.byte	0x32
 2363 00d5 24       		.byte	0x24
 2364 00d6 24       		.byte	0x24
 2365 00d7 9F       		.byte	0x9f
 2366 00d8 A6000000 		.4byte	.LVL28
 2367 00dc BC000000 		.4byte	.LVL31
 2368 00e0 0100     		.2byte	0x1
 2369 00e2 58       		.byte	0x58
 2370 00e3 BC000000 		.4byte	.LVL31
 2371 00e7 C8000000 		.4byte	.LFE274
 2372 00eb 0A00     		.2byte	0xa
 2373 00ed 72       		.byte	0x72
 2374 00ee 00       		.sleb128 0
 2375 00ef 73       		.byte	0x73
 2376 00f0 00       		.sleb128 0
 2377 00f1 37       		.byte	0x37
 2378 00f2 1A       		.byte	0x1a
 2379 00f3 32       		.byte	0x32
 2380 00f4 24       		.byte	0x24
 2381 00f5 24       		.byte	0x24
 2382 00f6 9F       		.byte	0x9f
 2383 00f7 00000000 		.4byte	0
 2384 00fb 00000000 		.4byte	0
 2385              	.LLST8:
 2386 00ff 34000000 		.4byte	.LVL16
 2387 0103 88000000 		.4byte	.LVL21
 2388 0107 0500     		.2byte	0x5
 2389 0109 31       		.byte	0x31
 2390 010a 73       		.byte	0x73
 2391 010b 00       		.sleb128 0
ARM GAS  /tmp/ccDZd6ZF.s 			page 43


 2392 010c 24       		.byte	0x24
 2393 010d 9F       		.byte	0x9f
 2394 010e 00000000 		.4byte	0
 2395 0112 00000000 		.4byte	0
 2396              	.LLST9:
 2397 0116 48000000 		.4byte	.LVL17
 2398 011a 58000000 		.4byte	.LVL18
 2399 011e 0700     		.2byte	0x7
 2400 0120 33       		.byte	0x33
 2401 0121 73       		.byte	0x73
 2402 0122 00       		.sleb128 0
 2403 0123 31       		.byte	0x31
 2404 0124 24       		.byte	0x24
 2405 0125 24       		.byte	0x24
 2406 0126 9F       		.byte	0x9f
 2407 0127 58000000 		.4byte	.LVL18
 2408 012b 5C000000 		.4byte	.LVL19
 2409 012f 0100     		.2byte	0x1
 2410 0131 5C       		.byte	0x5c
 2411 0132 5C000000 		.4byte	.LVL19
 2412 0136 80000000 		.4byte	.LVL20
 2413 013a 0400     		.2byte	0x4
 2414 013c 7C       		.byte	0x7c
 2415 013d 00       		.sleb128 0
 2416 013e 20       		.byte	0x20
 2417 013f 9F       		.byte	0x9f
 2418 0140 80000000 		.4byte	.LVL20
 2419 0144 88000000 		.4byte	.LVL21
 2420 0148 0700     		.2byte	0x7
 2421 014a 33       		.byte	0x33
 2422 014b 73       		.byte	0x73
 2423 014c 00       		.sleb128 0
 2424 014d 31       		.byte	0x31
 2425 014e 24       		.byte	0x24
 2426 014f 24       		.byte	0x24
 2427 0150 9F       		.byte	0x9f
 2428 0151 00000000 		.4byte	0
 2429 0155 00000000 		.4byte	0
 2430              	.LLST10:
 2431 0159 24000000 		.4byte	.LVL13
 2432 015d 2C000000 		.4byte	.LVL14
 2433 0161 0100     		.2byte	0x1
 2434 0163 5C       		.byte	0x5c
 2435 0164 2C000000 		.4byte	.LVL14
 2436 0168 96000000 		.4byte	.LVL27
 2437 016c 0A00     		.2byte	0xa
 2438 016e 79       		.byte	0x79
 2439 016f 00       		.sleb128 0
 2440 0170 73       		.byte	0x73
 2441 0171 00       		.sleb128 0
 2442 0172 37       		.byte	0x37
 2443 0173 1A       		.byte	0x1a
 2444 0174 32       		.byte	0x32
 2445 0175 24       		.byte	0x24
 2446 0176 24       		.byte	0x24
 2447 0177 9F       		.byte	0x9f
 2448 0178 AA000000 		.4byte	.LVL29
ARM GAS  /tmp/ccDZd6ZF.s 			page 44


 2449 017c B8000000 		.4byte	.LVL30
 2450 0180 0100     		.2byte	0x1
 2451 0182 5C       		.byte	0x5c
 2452 0183 B8000000 		.4byte	.LVL30
 2453 0187 C6000000 		.4byte	.LVL32
 2454 018b 0A00     		.2byte	0xa
 2455 018d 79       		.byte	0x79
 2456 018e 00       		.sleb128 0
 2457 018f 73       		.byte	0x73
 2458 0190 00       		.sleb128 0
 2459 0191 37       		.byte	0x37
 2460 0192 1A       		.byte	0x1a
 2461 0193 32       		.byte	0x32
 2462 0194 24       		.byte	0x24
 2463 0195 24       		.byte	0x24
 2464 0196 9F       		.byte	0x9f
 2465 0197 C6000000 		.4byte	.LVL32
 2466 019b C8000000 		.4byte	.LFE274
 2467 019f 0900     		.2byte	0x9
 2468 01a1 3F       		.byte	0x3f
 2469 01a2 73       		.byte	0x73
 2470 01a3 00       		.sleb128 0
 2471 01a4 37       		.byte	0x37
 2472 01a5 1A       		.byte	0x1a
 2473 01a6 32       		.byte	0x32
 2474 01a7 24       		.byte	0x24
 2475 01a8 24       		.byte	0x24
 2476 01a9 9F       		.byte	0x9f
 2477 01aa 00000000 		.4byte	0
 2478 01ae 00000000 		.4byte	0
 2479              		.section	.debug_aranges,"",%progbits
 2480 0000 24000000 		.4byte	0x24
 2481 0004 0200     		.2byte	0x2
 2482 0006 00000000 		.4byte	.Ldebug_info0
 2483 000a 04       		.byte	0x4
 2484 000b 00       		.byte	0
 2485 000c 0000     		.2byte	0
 2486 000e 0000     		.2byte	0
 2487 0010 00000000 		.4byte	.LFB273
 2488 0014 F4000000 		.4byte	.LFE273-.LFB273
 2489 0018 00000000 		.4byte	.LFB274
 2490 001c C8000000 		.4byte	.LFE274-.LFB274
 2491 0020 00000000 		.4byte	0
 2492 0024 00000000 		.4byte	0
 2493              		.section	.debug_ranges,"",%progbits
 2494              	.Ldebug_ranges0:
 2495 0000 04000000 		.4byte	.LBB14
 2496 0004 06000000 		.4byte	.LBE14
 2497 0008 36000000 		.4byte	.LBB31
 2498 000c 52000000 		.4byte	.LBE31
 2499 0010 00000000 		.4byte	0
 2500 0014 00000000 		.4byte	0
 2501 0018 08000000 		.4byte	.LBB17
 2502 001c 0A000000 		.4byte	.LBE17
 2503 0020 52000000 		.4byte	.LBB32
 2504 0024 6E000000 		.4byte	.LBE32
 2505 0028 00000000 		.4byte	0
ARM GAS  /tmp/ccDZd6ZF.s 			page 45


 2506 002c 00000000 		.4byte	0
 2507 0030 0A000000 		.4byte	.LBB20
 2508 0034 0C000000 		.4byte	.LBE20
 2509 0038 6E000000 		.4byte	.LBB33
 2510 003c 8A000000 		.4byte	.LBE33
 2511 0040 00000000 		.4byte	0
 2512 0044 00000000 		.4byte	0
 2513 0048 0C000000 		.4byte	.LBB23
 2514 004c 0E000000 		.4byte	.LBE23
 2515 0050 8A000000 		.4byte	.LBB34
 2516 0054 AC000000 		.4byte	.LBE34
 2517 0058 00000000 		.4byte	0
 2518 005c 00000000 		.4byte	0
 2519 0060 0E000000 		.4byte	.LBB26
 2520 0064 10000000 		.4byte	.LBE26
 2521 0068 AC000000 		.4byte	.LBB35
 2522 006c D6000000 		.4byte	.LBE35
 2523 0070 00000000 		.4byte	0
 2524 0074 00000000 		.4byte	0
 2525 0078 16000000 		.4byte	.LBB36
 2526 007c 1A000000 		.4byte	.LBE36
 2527 0080 1E000000 		.4byte	.LBB37
 2528 0084 88000000 		.4byte	.LBE37
 2529 0088 96000000 		.4byte	.LBB38
 2530 008c 9E000000 		.4byte	.LBE38
 2531 0090 A2000000 		.4byte	.LBB39
 2532 0094 AA000000 		.4byte	.LBE39
 2533 0098 AC000000 		.4byte	.LBB40
 2534 009c C2000000 		.4byte	.LBE40
 2535 00a0 00000000 		.4byte	0
 2536 00a4 00000000 		.4byte	0
 2537 00a8 00000000 		.4byte	.LFB273
 2538 00ac F4000000 		.4byte	.LFE273
 2539 00b0 00000000 		.4byte	.LFB274
 2540 00b4 C8000000 		.4byte	.LFE274
 2541 00b8 00000000 		.4byte	0
 2542 00bc 00000000 		.4byte	0
 2543              		.section	.debug_line,"",%progbits
 2544              	.Ldebug_line0:
 2545 0000 15030000 		.section	.debug_str,"MS",%progbits,1
 2545      02007E02 
 2545      00000201 
 2545      FB0E0D00 
 2545      01010101 
 2546              	.LASF131:
 2547 0000 73746D33 		.ascii	"stm32_gpio_setup_t\000"
 2547      325F6770 
 2547      696F5F73 
 2547      65747570 
 2547      5F7400
 2548              	.LASF51:
 2549 0013 72656164 		.ascii	"ready_list_t\000"
 2549      795F6C69 
 2549      73745F74 
 2549      00
 2550              	.LASF100:
 2551 0020 77747472 		.ascii	"wttrp\000"
ARM GAS  /tmp/ccDZd6ZF.s 			page 46


 2551      7000
 2552              	.LASF97:
 2553 0026 7264796D 		.ascii	"rdymsg\000"
 2553      736700
 2554              	.LASF18:
 2555 002d 75696E74 		.ascii	"uint64_t\000"
 2555      36345F74 
 2555      00
 2556              	.LASF4:
 2557 0036 5F5F7569 		.ascii	"__uint8_t\000"
 2557      6E74385F 
 2557      7400
 2558              	.LASF117:
 2559 0040 4F545950 		.ascii	"OTYPER\000"
 2559      455200
 2560              	.LASF94:
 2561 0047 706F7274 		.ascii	"port_intctx\000"
 2561      5F696E74 
 2561      63747800 
 2562              	.LASF70:
 2563 0053 73797374 		.ascii	"system_debug_t\000"
 2563      656D5F64 
 2563      65627567 
 2563      5F7400
 2564              	.LASF139:
 2565 0062 696F706F 		.ascii	"ioportmask_t\000"
 2565      72746D61 
 2565      736B5F74 
 2565      00
 2566              	.LASF116:
 2567 006f 4D4F4445 		.ascii	"MODER\000"
 2567      5200
 2568              	.LASF13:
 2569 0075 6C6F6E67 		.ascii	"long long unsigned int\000"
 2569      206C6F6E 
 2569      6720756E 
 2569      7369676E 
 2569      65642069 
 2570              	.LASF119:
 2571 008c 50555044 		.ascii	"PUPDR\000"
 2571      5200
 2572              	.LASF98:
 2573 0092 65786974 		.ascii	"exitcode\000"
 2573      636F6465 
 2573      00
 2574              	.LASF77:
 2575 009b 6D61696E 		.ascii	"mainthread\000"
 2575      74687265 
 2575      616400
 2576              	.LASF101:
 2577 00a6 73656E74 		.ascii	"sentmsg\000"
 2577      6D736700 
 2578              	.LASF67:
 2579 00ae 76697274 		.ascii	"virtual_timers_list_t\000"
 2579      75616C5F 
 2579      74696D65 
 2579      72735F6C 
ARM GAS  /tmp/ccDZd6ZF.s 			page 47


 2579      6973745F 
 2580              	.LASF151:
 2581 00c4 49544D5F 		.ascii	"ITM_RxBuffer\000"
 2581      52784275 
 2581      66666572 
 2581      00
 2582              	.LASF50:
 2583 00d1 63685F74 		.ascii	"ch_threads_queue\000"
 2583      68726561 
 2583      64735F71 
 2583      75657565 
 2583      00
 2584              	.LASF31:
 2585 00e2 705F7072 		.ascii	"p_prio\000"
 2585      696F00
 2586              	.LASF11:
 2587 00e9 6C6F6E67 		.ascii	"long long int\000"
 2587      206C6F6E 
 2587      6720696E 
 2587      7400
 2588              	.LASF1:
 2589 00f7 7369676E 		.ascii	"signed char\000"
 2589      65642063 
 2589      68617200 
 2590              	.LASF120:
 2591 0103 42535252 		.ascii	"BSRR\000"
 2591      00
 2592              	.LASF44:
 2593 0108 705F6D70 		.ascii	"p_mpool\000"
 2593      6F6F6C00 
 2594              	.LASF109:
 2595 0110 6D5F7175 		.ascii	"m_queue\000"
 2595      65756500 
 2596              	.LASF153:
 2597 0118 2E2E2F43 		.ascii	"../ChibiOS/os/hal/ports/STM32/LLD/GPIOv2/pal_lld.c\000"
 2597      68696269 
 2597      4F532F6F 
 2597      732F6861 
 2597      6C2F706F 
 2598              	.LASF125:
 2599 014b 6D6F6465 		.ascii	"moder\000"
 2599      7200
 2600              	.LASF90:
 2601 0151 5243435F 		.ascii	"RCC_TypeDef\000"
 2601      54797065 
 2601      44656600 
 2602              	.LASF154:
 2603 015d 2F6E6673 		.ascii	"/nfs/nfs4/home/cojthack/442FinalProject/sensor\000"
 2603      2F6E6673 
 2603      342F686F 
 2603      6D652F63 
 2603      6F6A7468 
 2604              	.LASF8:
 2605 018c 6C6F6E67 		.ascii	"long int\000"
 2605      20696E74 
 2605      00
 2606              	.LASF136:
ARM GAS  /tmp/ccDZd6ZF.s 			page 48


 2607 0195 50454461 		.ascii	"PEData\000"
 2607      746100
 2608              	.LASF81:
 2609 019c 41504232 		.ascii	"APB2RSTR\000"
 2609      52535452 
 2609      00
 2610              	.LASF21:
 2611 01a5 74737461 		.ascii	"tstate_t\000"
 2611      74655F74 
 2611      00
 2612              	.LASF15:
 2613 01ae 75696E74 		.ascii	"uint16_t\000"
 2613      31365F74 
 2613      00
 2614              	.LASF150:
 2615 01b7 616C7472 		.ascii	"altrmask\000"
 2615      6D61736B 
 2615      00
 2616              	.LASF33:
 2617 01c0 705F6E65 		.ascii	"p_newer\000"
 2617      77657200 
 2618              	.LASF106:
 2619 01c8 735F7175 		.ascii	"s_queue\000"
 2619      65756500 
 2620              	.LASF118:
 2621 01d0 4F535045 		.ascii	"OSPEEDR\000"
 2621      45445200 
 2622              	.LASF56:
 2623 01d8 725F6E65 		.ascii	"r_newer\000"
 2623      77657200 
 2624              	.LASF147:
 2625 01e0 6D61736B 		.ascii	"mask\000"
 2625      00
 2626              	.LASF91:
 2627 01e5 72656761 		.ascii	"regarm_t\000"
 2627      726D5F74 
 2627      00
 2628              	.LASF63:
 2629 01ee 76745F70 		.ascii	"vt_prev\000"
 2629      72657600 
 2630              	.LASF76:
 2631 01f6 76746C69 		.ascii	"vtlist\000"
 2631      737400
 2632              	.LASF124:
 2633 01fd 73746D33 		.ascii	"stm32_gpio_t\000"
 2633      325F6770 
 2633      696F5F74 
 2633      00
 2634              	.LASF146:
 2635 020a 706F7274 		.ascii	"port\000"
 2635      00
 2636              	.LASF113:
 2637 020f 6D757465 		.ascii	"mutex_t\000"
 2637      785F7400 
 2638              	.LASF133:
 2639 0217 50424461 		.ascii	"PBData\000"
 2639      746100
ARM GAS  /tmp/ccDZd6ZF.s 			page 49


 2640              	.LASF78:
 2641 021e 69646C65 		.ascii	"idle_thread_wa\000"
 2641      5F746872 
 2641      6561645F 
 2641      776100
 2642              	.LASF26:
 2643 022d 636E745F 		.ascii	"cnt_t\000"
 2643      7400
 2644              	.LASF0:
 2645 0233 756E7369 		.ascii	"unsigned int\000"
 2645      676E6564 
 2645      20696E74 
 2645      00
 2646              	.LASF62:
 2647 0240 76745F6E 		.ascii	"vt_next\000"
 2647      65787400 
 2648              	.LASF102:
 2649 0248 77747365 		.ascii	"wtsemp\000"
 2649      6D7000
 2650              	.LASF40:
 2651 024f 705F6D73 		.ascii	"p_msgqueue\000"
 2651      67717565 
 2651      756500
 2652              	.LASF127:
 2653 025a 6F737065 		.ascii	"ospeedr\000"
 2653      65647200 
 2654              	.LASF121:
 2655 0262 4C434B52 		.ascii	"LCKR\000"
 2655      00
 2656              	.LASF126:
 2657 0267 6F747970 		.ascii	"otyper\000"
 2657      657200
 2658              	.LASF6:
 2659 026e 73686F72 		.ascii	"short unsigned int\000"
 2659      7420756E 
 2659      7369676E 
 2659      65642069 
 2659      6E7400
 2660              	.LASF137:
 2661 0281 50464461 		.ascii	"PFData\000"
 2661      746100
 2662              	.LASF47:
 2663 0288 63685F74 		.ascii	"ch_thread\000"
 2663      68726561 
 2663      6400
 2664              	.LASF24:
 2665 0292 6D73675F 		.ascii	"msg_t\000"
 2665      7400
 2666              	.LASF73:
 2667 0298 63685F73 		.ascii	"ch_system_t\000"
 2667      79737465 
 2667      6D5F7400 
 2668              	.LASF20:
 2669 02a4 746D6F64 		.ascii	"tmode_t\000"
 2669      655F7400 
 2670              	.LASF52:
 2671 02ac 63685F72 		.ascii	"ch_ready_list\000"
ARM GAS  /tmp/ccDZd6ZF.s 			page 50


 2671      65616479 
 2671      5F6C6973 
 2671      7400
 2672              	.LASF25:
 2673 02ba 6576656E 		.ascii	"eventmask_t\000"
 2673      746D6173 
 2673      6B5F7400 
 2674              	.LASF7:
 2675 02c6 5F5F696E 		.ascii	"__int32_t\000"
 2675      7433325F 
 2675      7400
 2676              	.LASF92:
 2677 02d0 73746B61 		.ascii	"stkalign_t\000"
 2677      6C69676E 
 2677      5F7400
 2678              	.LASF46:
 2679 02db 74687265 		.ascii	"threads_list_t\000"
 2679      6164735F 
 2679      6C697374 
 2679      5F7400
 2680              	.LASF39:
 2681 02ea 705F7761 		.ascii	"p_waiting\000"
 2681      6974696E 
 2681      6700
 2682              	.LASF79:
 2683 02f4 73697A65 		.ascii	"sizetype\000"
 2683      74797065 
 2683      00
 2684              	.LASF45:
 2685 02fd 74687265 		.ascii	"thread_reference_t\000"
 2685      61645F72 
 2685      65666572 
 2685      656E6365 
 2685      5F7400
 2686              	.LASF68:
 2687 0310 63685F76 		.ascii	"ch_virtual_timers_list\000"
 2687      69727475 
 2687      616C5F74 
 2687      696D6572 
 2687      735F6C69 
 2688              	.LASF115:
 2689 0327 636C6561 		.ascii	"clear\000"
 2689      7200
 2690              	.LASF29:
 2691 032d 705F6E65 		.ascii	"p_next\000"
 2691      787400
 2692              	.LASF69:
 2693 0334 76745F6C 		.ascii	"vt_lasttime\000"
 2693      61737474 
 2693      696D6500 
 2694              	.LASF34:
 2695 0340 705F6F6C 		.ascii	"p_older\000"
 2695      64657200 
 2696              	.LASF55:
 2697 0348 725F6374 		.ascii	"r_ctx\000"
 2697      7800
 2698              	.LASF96:
ARM GAS  /tmp/ccDZd6ZF.s 			page 51


 2699 034e 746D5F63 		.ascii	"tm_calibration_t\000"
 2699      616C6962 
 2699      72617469 
 2699      6F6E5F74 
 2699      00
 2700              	.LASF130:
 2701 035f 61667268 		.ascii	"afrh\000"
 2701      00
 2702              	.LASF87:
 2703 0364 41484252 		.ascii	"AHBRSTR\000"
 2703      53545200 
 2704              	.LASF135:
 2705 036c 50444461 		.ascii	"PDData\000"
 2705      746100
 2706              	.LASF58:
 2707 0373 725F6375 		.ascii	"r_current\000"
 2707      7272656E 
 2707      7400
 2708              	.LASF82:
 2709 037d 41504231 		.ascii	"APB1RSTR\000"
 2709      52535452 
 2709      00
 2710              	.LASF12:
 2711 0386 5F5F7569 		.ascii	"__uint64_t\000"
 2711      6E743634 
 2711      5F7400
 2712              	.LASF123:
 2713 0391 41465248 		.ascii	"AFRH\000"
 2713      00
 2714              	.LASF122:
 2715 0396 4146524C 		.ascii	"AFRL\000"
 2715      00
 2716              	.LASF22:
 2717 039b 74726566 		.ascii	"trefs_t\000"
 2717      735F7400 
 2718              	.LASF60:
 2719 03a3 76697274 		.ascii	"virtual_timer_t\000"
 2719      75616C5F 
 2719      74696D65 
 2719      725F7400 
 2720              	.LASF30:
 2721 03b3 705F7072 		.ascii	"p_prev\000"
 2721      657600
 2722              	.LASF23:
 2723 03ba 74707269 		.ascii	"tprio_t\000"
 2723      6F5F7400 
 2724              	.LASF71:
 2725 03c2 63685F73 		.ascii	"ch_system_debug\000"
 2725      79737465 
 2725      6D5F6465 
 2725      62756700 
 2726              	.LASF114:
 2727 03d2 5F426F6F 		.ascii	"_Bool\000"
 2727      6C00
 2728              	.LASF16:
 2729 03d8 696E7433 		.ascii	"int32_t\000"
 2729      325F7400 
ARM GAS  /tmp/ccDZd6ZF.s 			page 52


 2730              	.LASF2:
 2731 03e0 756E7369 		.ascii	"unsigned char\000"
 2731      676E6564 
 2731      20636861 
 2731      7200
 2732              	.LASF129:
 2733 03ee 6166726C 		.ascii	"afrl\000"
 2733      00
 2734              	.LASF107:
 2735 03f3 735F636E 		.ascii	"s_cnt\000"
 2735      7400
 2736              	.LASF42:
 2737 03f9 705F6D74 		.ascii	"p_mtxlist\000"
 2737      786C6973 
 2737      7400
 2738              	.LASF3:
 2739 0403 73686F72 		.ascii	"short int\000"
 2739      7420696E 
 2739      7400
 2740              	.LASF36:
 2741 040d 705F7374 		.ascii	"p_state\000"
 2741      61746500 
 2742              	.LASF54:
 2743 0415 725F7072 		.ascii	"r_prio\000"
 2743      696F00
 2744              	.LASF132:
 2745 041c 50414461 		.ascii	"PAData\000"
 2745      746100
 2746              	.LASF104:
 2747 0423 65776D61 		.ascii	"ewmask\000"
 2747      736B00
 2748              	.LASF37:
 2749 042a 705F666C 		.ascii	"p_flags\000"
 2749      61677300 
 2750              	.LASF74:
 2751 0432 63685F73 		.ascii	"ch_system\000"
 2751      79737465 
 2751      6D00
 2752              	.LASF142:
 2753 043c 6770696F 		.ascii	"gpiop\000"
 2753      7000
 2754              	.LASF84:
 2755 0442 41504232 		.ascii	"APB2ENR\000"
 2755      454E5200 
 2756              	.LASF61:
 2757 044a 63685F76 		.ascii	"ch_virtual_timer\000"
 2757      69727475 
 2757      616C5F74 
 2757      696D6572 
 2757      00
 2758              	.LASF105:
 2759 045b 63685F73 		.ascii	"ch_semaphore\000"
 2759      656D6170 
 2759      686F7265 
 2759      00
 2760              	.LASF41:
 2761 0468 705F6570 		.ascii	"p_epending\000"
ARM GAS  /tmp/ccDZd6ZF.s 			page 53


 2761      656E6469 
 2761      6E6700
 2762              	.LASF17:
 2763 0473 75696E74 		.ascii	"uint32_t\000"
 2763      33325F74 
 2763      00
 2764              	.LASF103:
 2765 047c 77746D74 		.ascii	"wtmtxp\000"
 2765      787000
 2766              	.LASF53:
 2767 0483 725F7175 		.ascii	"r_queue\000"
 2767      65756500 
 2768              	.LASF64:
 2769 048b 76745F64 		.ascii	"vt_delta\000"
 2769      656C7461 
 2769      00
 2770              	.LASF48:
 2771 0494 63685F74 		.ascii	"ch_threads_list\000"
 2771      68726561 
 2771      64735F6C 
 2771      69737400 
 2772              	.LASF10:
 2773 04a4 6C6F6E67 		.ascii	"long unsigned int\000"
 2773      20756E73 
 2773      69676E65 
 2773      6420696E 
 2773      7400
 2774              	.LASF149:
 2775 04b6 616C7472 		.ascii	"altr\000"
 2775      00
 2776              	.LASF112:
 2777 04bb 63686172 		.ascii	"char\000"
 2777      00
 2778              	.LASF148:
 2779 04c0 6D6F6465 		.ascii	"mode\000"
 2779      00
 2780              	.LASF143:
 2781 04c5 636F6E66 		.ascii	"config\000"
 2781      696700
 2782              	.LASF5:
 2783 04cc 5F5F7569 		.ascii	"__uint16_t\000"
 2783      6E743136 
 2783      5F7400
 2784              	.LASF28:
 2785 04d7 74687265 		.ascii	"thread_t\000"
 2785      61645F74 
 2785      00
 2786              	.LASF152:
 2787 04e0 474E5520 		.ascii	"GNU C 4.8.4 20140526 (release) [ARM/embedded-4_8-br"
 2787      4320342E 
 2787      382E3420 
 2787      32303134 
 2787      30353236 
 2788 0513 616E6368 		.ascii	"anch revision 211358] -mcpu=cortex-m4 -mno-thumb-in"
 2788      20726576 
 2788      6973696F 
 2788      6E203231 
ARM GAS  /tmp/ccDZd6ZF.s 			page 54


 2788      31333538 
 2789 0546 74657277 		.ascii	"terwork -mthumb -ggdb -O2 -fomit-frame-pointer -fal"
 2789      6F726B20 
 2789      2D6D7468 
 2789      756D6220 
 2789      2D676764 
 2790 0579 69676E2D 		.ascii	"ign-functions=16 -ffunction-sections -fdata-section"
 2790      66756E63 
 2790      74696F6E 
 2790      733D3136 
 2790      202D6666 
 2791 05ac 73202D66 		.ascii	"s -fno-common\000"
 2791      6E6F2D63 
 2791      6F6D6D6F 
 2791      6E00
 2792              	.LASF111:
 2793 05ba 6D5F6E65 		.ascii	"m_next\000"
 2793      787400
 2794              	.LASF27:
 2795 05c1 73797374 		.ascii	"systime_t\000"
 2795      696D655F 
 2795      7400
 2796              	.LASF43:
 2797 05cb 705F7265 		.ascii	"p_realprio\000"
 2797      616C7072 
 2797      696F00
 2798              	.LASF59:
 2799 05d6 76746675 		.ascii	"vtfunc_t\000"
 2799      6E635F74 
 2799      00
 2800              	.LASF9:
 2801 05df 5F5F7569 		.ascii	"__uint32_t\000"
 2801      6E743332 
 2801      5F7400
 2802              	.LASF155:
 2803 05ea 696E6974 		.ascii	"initgpio\000"
 2803      6770696F 
 2803      00
 2804              	.LASF72:
 2805 05f3 70616E69 		.ascii	"panic_msg\000"
 2805      635F6D73 
 2805      6700
 2806              	.LASF95:
 2807 05fd 6F666673 		.ascii	"offset\000"
 2807      657400
 2808              	.LASF85:
 2809 0604 41504231 		.ascii	"APB1ENR\000"
 2809      454E5200 
 2810              	.LASF141:
 2811 060c 696F706F 		.ascii	"ioportid_t\000"
 2811      72746964 
 2811      5F7400
 2812              	.LASF93:
 2813 0617 636F6E74 		.ascii	"context\000"
 2813      65787400 
 2814              	.LASF57:
 2815 061f 725F6F6C 		.ascii	"r_older\000"
ARM GAS  /tmp/ccDZd6ZF.s 			page 55


 2815      64657200 
 2816              	.LASF145:
 2817 0627 5F70616C 		.ascii	"_pal_lld_setgroupmode\000"
 2817      5F6C6C64 
 2817      5F736574 
 2817      67726F75 
 2817      706D6F64 
 2818              	.LASF19:
 2819 063d 7274636E 		.ascii	"rtcnt_t\000"
 2819      745F7400 
 2820              	.LASF66:
 2821 0645 76745F70 		.ascii	"vt_par\000"
 2821      617200
 2822              	.LASF49:
 2823 064c 74687265 		.ascii	"threads_queue_t\000"
 2823      6164735F 
 2823      71756575 
 2823      655F7400 
 2824              	.LASF108:
 2825 065c 63685F6D 		.ascii	"ch_mutex\000"
 2825      75746578 
 2825      00
 2826              	.LASF38:
 2827 0665 705F7265 		.ascii	"p_refs\000"
 2827      667300
 2828              	.LASF144:
 2829 066c 5F70616C 		.ascii	"_pal_lld_init\000"
 2829      5F6C6C64 
 2829      5F696E69 
 2829      7400
 2830              	.LASF86:
 2831 067a 42444352 		.ascii	"BDCR\000"
 2831      00
 2832              	.LASF75:
 2833 067f 726C6973 		.ascii	"rlist\000"
 2833      7400
 2834              	.LASF88:
 2835 0685 43464752 		.ascii	"CFGR2\000"
 2835      3200
 2836              	.LASF89:
 2837 068b 43464752 		.ascii	"CFGR3\000"
 2837      3300
 2838              	.LASF14:
 2839 0691 75696E74 		.ascii	"uint8_t\000"
 2839      385F7400 
 2840              	.LASF128:
 2841 0699 70757064 		.ascii	"pupdr\000"
 2841      7200
 2842              	.LASF99:
 2843 069f 77746F62 		.ascii	"wtobjp\000"
 2843      6A7000
 2844              	.LASF35:
 2845 06a6 705F6E61 		.ascii	"p_name\000"
 2845      6D6500
 2846              	.LASF134:
 2847 06ad 50434461 		.ascii	"PCData\000"
 2847      746100
ARM GAS  /tmp/ccDZd6ZF.s 			page 56


 2848              	.LASF80:
 2849 06b4 43464752 		.ascii	"CFGR\000"
 2849      00
 2850              	.LASF140:
 2851 06b9 696F6D6F 		.ascii	"iomode_t\000"
 2851      64655F74 
 2851      00
 2852              	.LASF138:
 2853 06c2 50414C43 		.ascii	"PALConfig\000"
 2853      6F6E6669 
 2853      6700
 2854              	.LASF110:
 2855 06cc 6D5F6F77 		.ascii	"m_owner\000"
 2855      6E657200 
 2856              	.LASF32:
 2857 06d4 705F6374 		.ascii	"p_ctx\000"
 2857      7800
 2858              	.LASF65:
 2859 06da 76745F66 		.ascii	"vt_func\000"
 2859      756E6300 
 2860              	.LASF83:
 2861 06e2 41484245 		.ascii	"AHBENR\000"
 2861      4E5200
 2862              		.ident	"GCC: (GNU Tools for ARM Embedded Processors) 4.8.4 20140526 (release) [ARM/embedded-4_8-br
ARM GAS  /tmp/ccDZd6ZF.s 			page 57


DEFINED SYMBOLS
                            *ABS*:00000000 pal_lld.c
     /tmp/ccDZd6ZF.s:19     .text._pal_lld_init:00000000 $t
     /tmp/ccDZd6ZF.s:25     .text._pal_lld_init:00000000 _pal_lld_init
     /tmp/ccDZd6ZF.s:237    .text._pal_lld_init:000000dc $d
     /tmp/ccDZd6ZF.s:247    .text._pal_lld_setgroupmode:00000000 $t
     /tmp/ccDZd6ZF.s:253    .text._pal_lld_setgroupmode:00000000 _pal_lld_setgroupmode
                     .debug_frame:00000010 $d
     /tmp/ccDZd6ZF.s:246    .text._pal_lld_init:000000f4 $t

NO UNDEFINED SYMBOLS
