ARM GAS  /tmp/ccdwoMzJ.s 			page 1


   1              		.syntax unified
   2              		.cpu cortex-m4
   3              		.fpu softvfp
   4              		.eabi_attribute 20, 1
   5              		.eabi_attribute 21, 1
   6              		.eabi_attribute 23, 3
   7              		.eabi_attribute 24, 1
   8              		.eabi_attribute 25, 1
   9              		.eabi_attribute 26, 1
  10              		.eabi_attribute 30, 2
  11              		.eabi_attribute 34, 1
  12              		.eabi_attribute 18, 4
  13              		.thumb
  14              		.file	"shell.c"
  15              		.text
  16              	.Ltext0:
  17              		.cfi_sections	.debug_frame
  18              		.section	.text.cmd_systime,"ax",%progbits
  19              		.align	2
  20              		.p2align 4,,15
  21              		.thumb
  22              		.thumb_func
  23              		.type	cmd_systime, %function
  24              	cmd_systime:
  25              	.LFB276:
  26              		.file 1 "../ChibiOS/os/various/shell.c"
  27              		.loc 1 99 0
  28              		.cfi_startproc
  29              		@ args = 0, pretend = 0, frame = 0
  30              		@ frame_needed = 0, uses_anonymous_args = 0
  31              		@ link register save eliminated.
  32              	.LVL0:
  33              		.loc 1 102 0
  34 0000 0029     		cmp	r1, #0
  35 0002 03DD     		ble	.L2
  36              	.LVL1:
  37              	.LBB113:
  38              	.LBB114:
  39              		.loc 1 56 0
  40 0004 0749     		ldr	r1, .L4
  41              	.LVL2:
  42 0006 084A     		ldr	r2, .L4+4
  43              	.LVL3:
  44 0008 FFF7FEBF 		b	chprintf
  45              	.LVL4:
  46              	.L2:
  47              	.LBE114:
  48              	.LBE113:
  49              	.LBB115:
  50              	.LBB116:
  51              	.LBB117:
  52              	.LBB118:
  53              	.LBB119:
  54              	.LBB120:
  55              	.LBB121:
  56              	.LBB122:
  57              		.file 2 "../ChibiOS/os/ext/CMSIS/include/core_cmFunc.h"
ARM GAS  /tmp/ccdwoMzJ.s 			page 2


  58              		.loc 2 548 0
  59 000c 2023     		movs	r3, #32
  60              	@ 548 "../ChibiOS/os/ext/CMSIS/include/core_cmFunc.h" 1
  61 000e 83F31188 		MSR basepri, r3
  62              	@ 0 "" 2
  63              		.thumb
  64              	.LBE122:
  65              	.LBE121:
  66              	.LBE120:
  67              	.LBE119:
  68              	.LBB123:
  69              	.LBB124:
  70              	.LBB125:
  71              	.LBB126:
  72              		.file 3 "../ChibiOS/os/hal/ports/STM32/LLD/TIMv1/st_lld.h"
  73              		.loc 3 141 0
  74 0012 4FF08042 		mov	r2, #1073741824
  75              	.LVL5:
  76              	.LBE126:
  77              	.LBE125:
  78              	.LBE124:
  79              	.LBE123:
  80              	.LBB130:
  81              	.LBB131:
  82              	.LBB132:
  83              	.LBB133:
  84              	.LBB134:
  85              		.loc 2 548 0
  86 0016 0023     		movs	r3, #0
  87              	.LBE134:
  88              	.LBE133:
  89              	.LBE132:
  90              	.LBE131:
  91              	.LBE130:
  92              	.LBB139:
  93              	.LBB129:
  94              	.LBB128:
  95              	.LBB127:
  96              		.loc 3 141 0
  97 0018 526A     		ldr	r2, [r2, #36]
  98              	.LVL6:
  99              	.LBE127:
 100              	.LBE128:
 101              	.LBE129:
 102              	.LBE139:
 103              	.LBB140:
 104              	.LBB138:
 105              	.LBB137:
 106              	.LBB136:
 107              	.LBB135:
 108              		.loc 2 548 0
 109              	@ 548 "../ChibiOS/os/ext/CMSIS/include/core_cmFunc.h" 1
 110 001a 83F31188 		MSR basepri, r3
 111              	@ 0 "" 2
 112              		.thumb
 113              	.LBE135:
 114              	.LBE136:
ARM GAS  /tmp/ccdwoMzJ.s 			page 3


 115              	.LBE137:
 116              	.LBE138:
 117              	.LBE140:
 118              	.LBE118:
 119              	.LBE117:
 120              		.loc 1 106 0
 121 001e 0349     		ldr	r1, .L4+8
 122              	.LVL7:
 123 0020 FFF7FEBF 		b	chprintf
 124              	.LVL8:
 125              	.L5:
 126              		.align	2
 127              	.L4:
 128 0024 00000000 		.word	.LC0
 129 0028 0C000000 		.word	.LC1
 130 002c 14000000 		.word	.LC2
 131              	.LBE116:
 132              	.LBE115:
 133              		.cfi_endproc
 134              	.LFE276:
 135              		.size	cmd_systime, .-cmd_systime
 136              		.section	.text.cmd_info,"ax",%progbits
 137              		.align	2
 138              		.p2align 4,,15
 139              		.thumb
 140              		.thumb_func
 141              		.type	cmd_info, %function
 142              	cmd_info:
 143              	.LFB275:
 144              		.loc 1 67 0
 145              		.cfi_startproc
 146              		@ args = 0, pretend = 0, frame = 0
 147              		@ frame_needed = 0, uses_anonymous_args = 0
 148              	.LVL9:
 149 0000 10B5     		push	{r4, lr}
 150              		.cfi_def_cfa_offset 8
 151              		.cfi_offset 4, -8
 152              		.cfi_offset 14, -4
 153              		.loc 1 70 0
 154 0002 0029     		cmp	r1, #0
 155              		.loc 1 67 0
 156 0004 82B0     		sub	sp, sp, #8
 157              		.cfi_def_cfa_offset 16
 158              		.loc 1 67 0
 159 0006 0446     		mov	r4, r0
 160              		.loc 1 70 0
 161 0008 06DD     		ble	.L7
 162              	.LVL10:
 163              	.LBB147:
 164              	.LBB148:
 165              		.loc 1 56 0
 166 000a 1949     		ldr	r1, .L8
 167              	.LVL11:
 168 000c 194A     		ldr	r2, .L8+4
 169              	.LVL12:
 170              	.LBE148:
 171              	.LBE147:
ARM GAS  /tmp/ccdwoMzJ.s 			page 4


 172              		.loc 1 97 0
 173 000e 02B0     		add	sp, sp, #8
 174              		@ sp needed
 175 0010 BDE81040 		pop	{r4, lr}
 176              	.LBB150:
 177              	.LBB149:
 178              		.loc 1 56 0
 179 0014 FFF7FEBF 		b	chprintf
 180              	.LVL13:
 181              	.L7:
 182              	.LBE149:
 183              	.LBE150:
 184              	.LBB151:
 185              	.LBB152:
 186              		.loc 1 75 0
 187 0018 1749     		ldr	r1, .L8+8
 188              	.LVL14:
 189 001a 184A     		ldr	r2, .L8+12
 190              	.LVL15:
 191 001c FFF7FEFF 		bl	chprintf
 192              	.LVL16:
 193              		.loc 1 77 0
 194 0020 2046     		mov	r0, r4
 195 0022 1749     		ldr	r1, .L8+16
 196 0024 174A     		ldr	r2, .L8+20
 197 0026 FFF7FEFF 		bl	chprintf
 198              	.LVL17:
 199              		.loc 1 79 0
 200 002a 2046     		mov	r0, r4
 201 002c 1649     		ldr	r1, .L8+24
 202 002e 174A     		ldr	r2, .L8+28
 203 0030 FFF7FEFF 		bl	chprintf
 204              	.LVL18:
 205              		.loc 1 81 0
 206 0034 2046     		mov	r0, r4
 207 0036 1649     		ldr	r1, .L8+32
 208 0038 164A     		ldr	r2, .L8+36
 209 003a FFF7FEFF 		bl	chprintf
 210              	.LVL19:
 211              		.loc 1 84 0
 212 003e 2046     		mov	r0, r4
 213 0040 1549     		ldr	r1, .L8+40
 214 0042 164A     		ldr	r2, .L8+44
 215 0044 FFF7FEFF 		bl	chprintf
 216              	.LVL20:
 217              		.loc 1 87 0
 218 0048 2046     		mov	r0, r4
 219 004a 1549     		ldr	r1, .L8+48
 220 004c 154A     		ldr	r2, .L8+52
 221 004e FFF7FEFF 		bl	chprintf
 222              	.LVL21:
 223              		.loc 1 90 0
 224 0052 2046     		mov	r0, r4
 225 0054 1449     		ldr	r1, .L8+56
 226 0056 154A     		ldr	r2, .L8+60
 227 0058 FFF7FEFF 		bl	chprintf
 228              	.LVL22:
ARM GAS  /tmp/ccdwoMzJ.s 			page 5


 229              		.loc 1 94 0
 230 005c 144B     		ldr	r3, .L8+64
 231 005e 0093     		str	r3, [sp]
 232 0060 2046     		mov	r0, r4
 233 0062 1449     		ldr	r1, .L8+68
 234 0064 144A     		ldr	r2, .L8+72
 235 0066 154B     		ldr	r3, .L8+76
 236 0068 FFF7FEFF 		bl	chprintf
 237              	.LVL23:
 238              	.LBE152:
 239              	.LBE151:
 240              		.loc 1 97 0
 241 006c 02B0     		add	sp, sp, #8
 242              		@ sp needed
 243 006e 10BD     		pop	{r4, pc}
 244              	.LVL24:
 245              	.L9:
 246              		.align	2
 247              	.L8:
 248 0070 00000000 		.word	.LC0
 249 0074 1C000000 		.word	.LC3
 250 0078 24000000 		.word	.LC4
 251 007c 38000000 		.word	.LC5
 252 0080 40000000 		.word	.LC6
 253 0084 54000000 		.word	.LC7
 254 0088 9C000000 		.word	.LC8
 255 008c B0000000 		.word	.LC9
 256 0090 BC000000 		.word	.LC10
 257 0094 D0000000 		.word	.LC11
 258 0098 DC000000 		.word	.LC12
 259 009c F0000000 		.word	.LC13
 260 00a0 08010000 		.word	.LC14
 261 00a4 1C010000 		.word	.LC15
 262 00a8 38010000 		.word	.LC16
 263 00ac 4C010000 		.word	.LC17
 264 00b0 9C010000 		.word	.LC21
 265 00b4 74010000 		.word	.LC18
 266 00b8 8C010000 		.word	.LC19
 267 00bc 98010000 		.word	.LC20
 268              		.cfi_endproc
 269              	.LFE275:
 270              		.size	cmd_info, .-cmd_info
 271              		.section	.text._strtok.constprop.2,"ax",%progbits
 272              		.align	2
 273              		.p2align 4,,15
 274              		.thumb
 275              		.thumb_func
 276              		.type	_strtok.constprop.2, %function
 277              	_strtok.constprop.2:
 278              	.LFB286:
 279              		.loc 1 37 0
 280              		.cfi_startproc
 281              		@ args = 0, pretend = 0, frame = 0
 282              		@ frame_needed = 0, uses_anonymous_args = 0
 283              	.LVL25:
 284 0000 38B5     		push	{r3, r4, r5, lr}
 285              		.cfi_def_cfa_offset 16
ARM GAS  /tmp/ccdwoMzJ.s 			page 6


 286              		.cfi_offset 3, -16
 287              		.cfi_offset 4, -12
 288              		.cfi_offset 5, -8
 289              		.cfi_offset 14, -4
 290              		.loc 1 39 0
 291 0002 0446     		mov	r4, r0
 292              		.loc 1 37 0
 293 0004 0D46     		mov	r5, r1
 294              		.loc 1 39 0
 295 0006 90B1     		cbz	r0, .L11
 296              		.loc 1 40 0
 297 0008 2860     		str	r0, [r5]
 298              	.LVL26:
 299              	.L12:
 300              		.loc 1 46 0
 301 000a 2046     		mov	r0, r4
 302              	.LVL27:
 303 000c 0B49     		ldr	r1, .L21
 304              	.LVL28:
 305 000e FFF7FEFF 		bl	strspn
 306              	.LVL29:
 307 0012 0444     		add	r4, r4, r0
 308              	.LVL30:
 309              		.loc 1 47 0
 310 0014 2046     		mov	r0, r4
 311 0016 0949     		ldr	r1, .L21
 312 0018 FFF7FEFF 		bl	strpbrk
 313              	.LVL31:
 314              		.loc 1 48 0
 315 001c 60B1     		cbz	r0, .L20
 316              		.loc 1 49 0
 317 001e 421C     		adds	r2, r0, #1
 318 0020 0023     		movs	r3, #0
 319 0022 2A60     		str	r2, [r5]
 320 0024 0370     		strb	r3, [r0]
 321              	.L15:
 322              		.loc 1 51 0
 323 0026 2378     		ldrb	r3, [r4]	@ zero_extendqisi2
 324 0028 23B1     		cbz	r3, .L16
 325 002a 2046     		mov	r0, r4
 326              		.loc 1 52 0
 327 002c 38BD     		pop	{r3, r4, r5, pc}
 328              	.LVL32:
 329              	.L11:
 330              		.loc 1 41 0
 331 002e 0C68     		ldr	r4, [r1]
 332              	.LVL33:
 333              		.loc 1 43 0
 334 0030 002C     		cmp	r4, #0
 335 0032 EAD1     		bne	.L12
 336              	.LVL34:
 337              	.L16:
 338              		.loc 1 44 0
 339 0034 0020     		movs	r0, #0
 340 0036 38BD     		pop	{r3, r4, r5, pc}
 341              	.LVL35:
 342              	.L20:
ARM GAS  /tmp/ccdwoMzJ.s 			page 7


 343              		.loc 1 47 0
 344 0038 2860     		str	r0, [r5]
 345 003a F4E7     		b	.L15
 346              	.L22:
 347              		.align	2
 348              	.L21:
 349 003c A8010000 		.word	.LC22
 350              		.cfi_endproc
 351              	.LFE286:
 352              		.size	_strtok.constprop.2, .-_strtok.constprop.2
 353              		.section	.text.shellInit,"ax",%progbits
 354              		.align	2
 355              		.p2align 4,,15
 356              		.global	shellInit
 357              		.thumb
 358              		.thumb_func
 359              		.type	shellInit, %function
 360              	shellInit:
 361              	.LFB279:
 362              		.loc 1 197 0
 363              		.cfi_startproc
 364              		@ args = 0, pretend = 0, frame = 0
 365              		@ frame_needed = 0, uses_anonymous_args = 0
 366              		@ link register save eliminated.
 367              	.LVL36:
 368              	.LBB153:
 369              	.LBB154:
 370              		.file 4 "../ChibiOS/os/rt/include/chevents.h"
 371              		.loc 4 172 0
 372 0000 014B     		ldr	r3, .L24
 373 0002 1B60     		str	r3, [r3]
 374 0004 7047     		bx	lr
 375              	.L25:
 376 0006 00BF     		.align	2
 377              	.L24:
 378 0008 00000000 		.word	.LANCHOR0
 379              	.LBE154:
 380              	.LBE153:
 381              		.cfi_endproc
 382              	.LFE279:
 383              		.size	shellInit, .-shellInit
 384 000c AFF30080 		.section	.text.shellExit,"ax",%progbits
 385              		.align	2
 386              		.p2align 4,,15
 387              		.global	shellExit
 388              		.thumb
 389              		.thumb_func
 390              		.type	shellExit, %function
 391              	shellExit:
 392              	.LFB280:
 393              		.loc 1 211 0
 394              		.cfi_startproc
 395              		@ args = 0, pretend = 0, frame = 0
 396              		@ frame_needed = 0, uses_anonymous_args = 0
 397              	.LVL37:
 398 0000 10B5     		push	{r4, lr}
 399              		.cfi_def_cfa_offset 8
ARM GAS  /tmp/ccdwoMzJ.s 			page 8


 400              		.cfi_offset 4, -8
 401              		.cfi_offset 14, -4
 402              	.LBB155:
 403              	.LBB156:
 404              	.LBB157:
 405              	.LBB158:
 406              		.loc 2 548 0
 407 0002 2023     		movs	r3, #32
 408              	.LBE158:
 409              	.LBE157:
 410              	.LBE156:
 411              	.LBE155:
 412              		.loc 1 211 0
 413 0004 0446     		mov	r4, r0
 414              	.LBB162:
 415              	.LBB161:
 416              	.LBB160:
 417              	.LBB159:
 418              		.loc 2 548 0
 419              	@ 548 "../ChibiOS/os/ext/CMSIS/include/core_cmFunc.h" 1
 420 0006 83F31188 		MSR basepri, r3
 421              	@ 0 "" 2
 422              	.LVL38:
 423              		.thumb
 424              	.LBE159:
 425              	.LBE160:
 426              	.LBE161:
 427              	.LBE162:
 428              	.LBB163:
 429              	.LBB164:
 430              		.loc 4 256 0
 431 000a 0448     		ldr	r0, .L27
 432              	.LVL39:
 433 000c 0021     		movs	r1, #0
 434 000e FFF7FEFF 		bl	chEvtBroadcastFlagsI
 435              	.LVL40:
 436              	.LBE164:
 437              	.LBE163:
 438              		.loc 1 217 0
 439 0012 2046     		mov	r0, r4
 440              		.loc 1 218 0
 441 0014 BDE81040 		pop	{r4, lr}
 442              	.LVL41:
 443              		.loc 1 217 0
 444 0018 FFF7FEBF 		b	chThdExitS
 445              	.LVL42:
 446              	.L28:
 447              		.align	2
 448              	.L27:
 449 001c 00000000 		.word	.LANCHOR0
 450              		.cfi_endproc
 451              	.LFE280:
 452              		.size	shellExit, .-shellExit
 453              		.section	.text.shellCreate,"ax",%progbits
 454              		.align	2
 455              		.p2align 4,,15
 456              		.global	shellCreate
ARM GAS  /tmp/ccdwoMzJ.s 			page 9


 457              		.thumb
 458              		.thumb_func
 459              		.type	shellCreate, %function
 460              	shellCreate:
 461              	.LFB281:
 462              		.loc 1 233 0
 463              		.cfi_startproc
 464              		@ args = 0, pretend = 0, frame = 0
 465              		@ frame_needed = 0, uses_anonymous_args = 0
 466              	.LVL43:
 467 0000 00B5     		push	{lr}
 468              		.cfi_def_cfa_offset 4
 469              		.cfi_offset 14, -4
 470 0002 83B0     		sub	sp, sp, #12
 471              		.cfi_def_cfa_offset 16
 472              		.loc 1 235 0
 473 0004 034B     		ldr	r3, .L30
 474 0006 0090     		str	r0, [sp]
 475 0008 0020     		movs	r0, #0
 476              	.LVL44:
 477 000a FFF7FEFF 		bl	chThdCreateFromHeap
 478              	.LVL45:
 479              		.loc 1 236 0
 480 000e 03B0     		add	sp, sp, #12
 481              		@ sp needed
 482 0010 5DF804FB 		ldr	pc, [sp], #4
 483              	.L31:
 484              		.align	2
 485              	.L30:
 486 0014 00000000 		.word	shell_thread
 487              		.cfi_endproc
 488              	.LFE281:
 489              		.size	shellCreate, .-shellCreate
 490 0018 AFF30080 		.section	.text.shellCreateStatic,"ax",%progbits
 490      AFF30080 
 491              		.align	2
 492              		.p2align 4,,15
 493              		.global	shellCreateStatic
 494              		.thumb
 495              		.thumb_func
 496              		.type	shellCreateStatic, %function
 497              	shellCreateStatic:
 498              	.LFB282:
 499              		.loc 1 251 0
 500              		.cfi_startproc
 501              		@ args = 0, pretend = 0, frame = 0
 502              		@ frame_needed = 0, uses_anonymous_args = 0
 503              	.LVL46:
 504 0000 00B5     		push	{lr}
 505              		.cfi_def_cfa_offset 4
 506              		.cfi_offset 14, -4
 507 0002 83B0     		sub	sp, sp, #12
 508              		.cfi_def_cfa_offset 16
 509              		.loc 1 253 0
 510 0004 0090     		str	r0, [sp]
 511 0006 0846     		mov	r0, r1
 512              	.LVL47:
ARM GAS  /tmp/ccdwoMzJ.s 			page 10


 513 0008 1146     		mov	r1, r2
 514              	.LVL48:
 515 000a 1A46     		mov	r2, r3
 516              	.LVL49:
 517 000c 024B     		ldr	r3, .L33
 518              	.LVL50:
 519 000e FFF7FEFF 		bl	chThdCreateStatic
 520              	.LVL51:
 521              		.loc 1 254 0
 522 0012 03B0     		add	sp, sp, #12
 523              		@ sp needed
 524 0014 5DF804FB 		ldr	pc, [sp], #4
 525              	.L34:
 526              		.align	2
 527              	.L33:
 528 0018 00000000 		.word	shell_thread
 529              		.cfi_endproc
 530              	.LFE282:
 531              		.size	shellCreateStatic, .-shellCreateStatic
 532 001c AFF30080 		.section	.text.shellGetLine,"ax",%progbits
 533              		.align	2
 534              		.p2align 4,,15
 535              		.global	shellGetLine
 536              		.thumb
 537              		.thumb_func
 538              		.type	shellGetLine, %function
 539              	shellGetLine:
 540              	.LFB283:
 541              		.loc 1 268 0
 542              		.cfi_startproc
 543              		@ args = 0, pretend = 0, frame = 8
 544              		@ frame_needed = 0, uses_anonymous_args = 0
 545              	.LVL52:
 546 0000 F0B5     		push	{r4, r5, r6, r7, lr}
 547              		.cfi_def_cfa_offset 20
 548              		.cfi_offset 4, -20
 549              		.cfi_offset 5, -16
 550              		.cfi_offset 6, -12
 551              		.cfi_offset 7, -8
 552              		.cfi_offset 14, -4
 553              	.LBB165:
 554              		.loc 1 296 0
 555 0002 013A     		subs	r2, r2, #1
 556              	.LVL53:
 557              	.LBE165:
 558              		.loc 1 268 0
 559 0004 83B0     		sub	sp, sp, #12
 560              		.cfi_def_cfa_offset 32
 561              		.loc 1 268 0
 562 0006 0E46     		mov	r6, r1
 563              	.LVL54:
 564              	.LBB166:
 565              		.loc 1 296 0
 566 0008 8F18     		adds	r7, r1, r2
 567              	.LBE166:
 568              		.loc 1 268 0
 569 000a 0446     		mov	r4, r0
ARM GAS  /tmp/ccdwoMzJ.s 			page 11


 570              		.loc 1 269 0
 571 000c 0D46     		mov	r5, r1
 572              	.LVL55:
 573              	.L36:
 574              	.LBB167:
 575              		.loc 1 274 0
 576 000e 2368     		ldr	r3, [r4]
 577 0010 2046     		mov	r0, r4
 578 0012 5B68     		ldr	r3, [r3, #4]
 579 0014 0DF10701 		add	r1, sp, #7
 580 0018 0122     		movs	r2, #1
 581 001a 9847     		blx	r3
 582              	.LVL56:
 583 001c 48B3     		cbz	r0, .L45
 584              		.loc 1 276 0
 585 001e 9DF80710 		ldrb	r1, [sp, #7]	@ zero_extendqisi2
 586 0022 0429     		cmp	r1, #4
 587 0024 28D0     		beq	.L49
 588              		.loc 1 280 0
 589 0026 0829     		cmp	r1, #8
 590 0028 10D0     		beq	.L39
 591              		.loc 1 280 0 is_stmt 0 discriminator 1
 592 002a 7F29     		cmp	r1, #127
 593 002c 0ED0     		beq	.L39
 594              		.loc 1 289 0 is_stmt 1
 595 002e 0D29     		cmp	r1, #13
 596 0030 29D0     		beq	.L50
 597              		.loc 1 294 0
 598 0032 1F29     		cmp	r1, #31
 599 0034 EBD9     		bls	.L36
 600              		.loc 1 296 0
 601 0036 BD42     		cmp	r5, r7
 602 0038 E9D2     		bcs	.L36
 603              		.loc 1 297 0
 604 003a 2368     		ldr	r3, [r4]
 605 003c 2046     		mov	r0, r4
 606 003e 9B68     		ldr	r3, [r3, #8]
 607 0040 9847     		blx	r3
 608              	.LVL57:
 609              		.loc 1 298 0
 610 0042 9DF80730 		ldrb	r3, [sp, #7]	@ zero_extendqisi2
 611 0046 2B70     		strb	r3, [r5]
 612 0048 0135     		adds	r5, r5, #1
 613              	.LVL58:
 614 004a E0E7     		b	.L36
 615              	.L39:
 616              		.loc 1 281 0
 617 004c B542     		cmp	r5, r6
 618              		.loc 1 282 0
 619 004e 2046     		mov	r0, r4
 620              		.loc 1 281 0
 621 0050 DDD0     		beq	.L36
 622              	.LVL59:
 623              		.loc 1 282 0
 624 0052 2368     		ldr	r3, [r4]
 625 0054 9B68     		ldr	r3, [r3, #8]
 626 0056 9847     		blx	r3
ARM GAS  /tmp/ccdwoMzJ.s 			page 12


 627              	.LVL60:
 628              		.loc 1 283 0
 629 0058 2368     		ldr	r3, [r4]
 630 005a 2046     		mov	r0, r4
 631 005c 9B68     		ldr	r3, [r3, #8]
 632 005e 2021     		movs	r1, #32
 633 0060 9847     		blx	r3
 634              	.LVL61:
 635              		.loc 1 284 0
 636 0062 2368     		ldr	r3, [r4]
 637 0064 9DF80710 		ldrb	r1, [sp, #7]	@ zero_extendqisi2
 638 0068 9B68     		ldr	r3, [r3, #8]
 639 006a 2046     		mov	r0, r4
 640              		.loc 1 285 0
 641 006c 013D     		subs	r5, r5, #1
 642              	.LVL62:
 643              		.loc 1 284 0
 644 006e 9847     		blx	r3
 645              	.LVL63:
 646 0070 CDE7     		b	.L36
 647              	.L45:
 648              		.loc 1 275 0
 649 0072 0120     		movs	r0, #1
 650              	.LBE167:
 651              		.loc 1 301 0
 652 0074 03B0     		add	sp, sp, #12
 653              		@ sp needed
 654 0076 F0BD     		pop	{r4, r5, r6, r7, pc}
 655              	.LVL64:
 656              	.L49:
 657              	.LBB168:
 658              		.loc 1 277 0
 659 0078 2046     		mov	r0, r4
 660 007a 0749     		ldr	r1, .L51
 661 007c FFF7FEFF 		bl	chprintf
 662              	.LVL65:
 663              		.loc 1 278 0
 664 0080 0120     		movs	r0, #1
 665              	.LBE168:
 666              		.loc 1 301 0
 667 0082 03B0     		add	sp, sp, #12
 668              		@ sp needed
 669 0084 F0BD     		pop	{r4, r5, r6, r7, pc}
 670              	.LVL66:
 671              	.L50:
 672              	.LBB169:
 673              		.loc 1 290 0
 674 0086 2046     		mov	r0, r4
 675 0088 0449     		ldr	r1, .L51+4
 676 008a FFF7FEFF 		bl	chprintf
 677              	.LVL67:
 678              		.loc 1 291 0
 679 008e 0020     		movs	r0, #0
 680 0090 2870     		strb	r0, [r5]
 681              	.LBE169:
 682              		.loc 1 301 0
 683 0092 03B0     		add	sp, sp, #12
ARM GAS  /tmp/ccdwoMzJ.s 			page 13


 684              		@ sp needed
 685 0094 F0BD     		pop	{r4, r5, r6, r7, pc}
 686              	.LVL68:
 687              	.L52:
 688 0096 00BF     		.align	2
 689              	.L51:
 690 0098 AC010000 		.word	.LC23
 691 009c B0010000 		.word	.LC24
 692              		.cfi_endproc
 693              	.LFE283:
 694              		.size	shellGetLine, .-shellGetLine
 695              		.section	.text.shell_thread,"ax",%progbits
 696              		.align	2
 697              		.p2align 4,,15
 698              		.thumb
 699              		.thumb_func
 700              		.type	shell_thread, %function
 701              	shell_thread:
 702              	.LFB278:
 703              		.loc 1 136 0
 704              		.cfi_startproc
 705              		@ args = 0, pretend = 0, frame = 88
 706              		@ frame_needed = 0, uses_anonymous_args = 0
 707              	.LVL69:
 708 0000 2DE9F041 		push	{r4, r5, r6, r7, r8, lr}
 709              		.cfi_def_cfa_offset 24
 710              		.cfi_offset 4, -24
 711              		.cfi_offset 5, -20
 712              		.cfi_offset 6, -16
 713              		.cfi_offset 7, -12
 714              		.cfi_offset 8, -8
 715              		.cfi_offset 14, -4
 716              	.LBB184:
 717              	.LBB185:
 718              		.file 5 "../ChibiOS/os/rt/include/chregistry.h"
 719              		.loc 5 135 0
 720 0004 574B     		ldr	r3, .L109
 721              	.LBE185:
 722              	.LBE184:
 723              		.loc 1 138 0
 724 0006 0668     		ldr	r6, [r0]
 725              	.LVL70:
 726              	.LBB188:
 727              	.LBB186:
 728              		.loc 5 135 0
 729 0008 9B69     		ldr	r3, [r3, #24]
 730 000a 574A     		ldr	r2, .L109+4
 731              	.LBE186:
 732              	.LBE188:
 733              		.loc 1 139 0
 734 000c D0F80480 		ldr	r8, [r0, #4]
 735              	.LVL71:
 736              		.loc 1 144 0
 737 0010 5649     		ldr	r1, .L109+8
 738              	.LBB189:
 739              	.LBB187:
 740              		.loc 5 135 0
ARM GAS  /tmp/ccdwoMzJ.s 			page 14


 741 0012 9A61     		str	r2, [r3, #24]
 742              	.LBE187:
 743              	.LBE189:
 744              		.loc 1 136 0
 745 0014 96B0     		sub	sp, sp, #88
 746              		.cfi_def_cfa_offset 112
 747              		.loc 1 144 0
 748 0016 3046     		mov	r0, r6
 749              	.LVL72:
 750 0018 FFF7FEFF 		bl	chprintf
 751              	.LVL73:
 752              	.L54:
 753              		.loc 1 146 0
 754 001c 5449     		ldr	r1, .L109+12
 755 001e 3046     		mov	r0, r6
 756 0020 FFF7FEFF 		bl	chprintf
 757              	.LVL74:
 758              		.loc 1 147 0
 759 0024 3046     		mov	r0, r6
 760 0026 06A9     		add	r1, sp, #24
 761 0028 4022     		movs	r2, #64
 762 002a FFF7FEFF 		bl	shellGetLine
 763              	.LVL75:
 764 002e 0446     		mov	r4, r0
 765 0030 0028     		cmp	r0, #0
 766 0032 2FD1     		bne	.L105
 767              		.loc 1 151 0
 768 0034 6946     		mov	r1, sp
 769 0036 06A8     		add	r0, sp, #24
 770 0038 FFF7FEFF 		bl	_strtok.constprop.2
 771              	.LVL76:
 772              		.loc 1 154 0
 773 003c 6946     		mov	r1, sp
 774              		.loc 1 151 0
 775 003e 0746     		mov	r7, r0
 776              	.LVL77:
 777              		.loc 1 154 0
 778 0040 0020     		movs	r0, #0
 779              	.LVL78:
 780 0042 6D46     		mov	r5, sp
 781 0044 FFF7FEFF 		bl	_strtok.constprop.2
 782              	.LVL79:
 783 0048 50B1     		cbz	r0, .L106
 784              	.L60:
 785              		.loc 1 155 0
 786 004a 042C     		cmp	r4, #4
 787 004c 1BD0     		beq	.L107
 788              		.loc 1 160 0
 789 004e 45F8040F 		str	r0, [r5, #4]!
 790              		.loc 1 154 0
 791 0052 6946     		mov	r1, sp
 792 0054 0020     		movs	r0, #0
 793              	.LVL80:
 794              		.loc 1 160 0
 795 0056 0134     		adds	r4, r4, #1
 796              	.LVL81:
 797              		.loc 1 154 0
ARM GAS  /tmp/ccdwoMzJ.s 			page 15


 798 0058 FFF7FEFF 		bl	_strtok.constprop.2
 799              	.LVL82:
 800 005c 0028     		cmp	r0, #0
 801 005e F4D1     		bne	.L60
 802              	.L106:
 803              		.loc 1 162 0
 804 0060 16AA     		add	r2, sp, #88
 805 0062 02EB8403 		add	r3, r2, r4, lsl #2
 806 0066 43F8540C 		str	r0, [r3, #-84]
 807              		.loc 1 163 0
 808 006a 002F     		cmp	r7, #0
 809 006c D6D0     		beq	.L54
 810              		.loc 1 164 0
 811 006e 3846     		mov	r0, r7
 812              	.LVL83:
 813 0070 4049     		ldr	r1, .L109+16
 814 0072 FFF7FEFF 		bl	strcmp
 815              	.LVL84:
 816 0076 B8B9     		cbnz	r0, .L61
 817              		.loc 1 165 0
 818 0078 84B1     		cbz	r4, .L56
 819              	.LVL85:
 820              	.LBB190:
 821              	.LBB191:
 822              		.loc 1 56 0
 823 007a 3046     		mov	r0, r6
 824 007c 3E49     		ldr	r1, .L109+20
 825 007e 3D4A     		ldr	r2, .L109+16
 826 0080 FFF7FEFF 		bl	chprintf
 827              	.LVL86:
 828              	.LBE191:
 829              	.LBE190:
 830              		.loc 1 167 0
 831 0084 CAE7     		b	.L54
 832              	.LVL87:
 833              	.L107:
 834              		.loc 1 156 0
 835 0086 3046     		mov	r0, r6
 836              	.LVL88:
 837 0088 3C49     		ldr	r1, .L109+24
 838 008a FFF7FEFF 		bl	chprintf
 839              	.LVL89:
 840              		.loc 1 162 0
 841 008e 0023     		movs	r3, #0
 842 0090 0593     		str	r3, [sp, #20]
 843 0092 C3E7     		b	.L54
 844              	.LVL90:
 845              	.L105:
 846              		.loc 1 148 0
 847 0094 3046     		mov	r0, r6
 848 0096 3A49     		ldr	r1, .L109+28
 849 0098 FFF7FEFF 		bl	chprintf
 850              	.LVL91:
 851              	.L56:
 852              		.loc 1 189 0
 853 009c 0020     		movs	r0, #0
 854 009e FFF7FEFF 		bl	shellExit
ARM GAS  /tmp/ccdwoMzJ.s 			page 16


 855              	.LVL92:
 856              		.loc 1 190 0
 857 00a2 16B0     		add	sp, sp, #88
 858              		@ sp needed
 859 00a4 BDE8F081 		pop	{r4, r5, r6, r7, r8, pc}
 860              	.LVL93:
 861              	.L61:
 862              		.loc 1 171 0
 863 00a8 3846     		mov	r0, r7
 864 00aa 3649     		ldr	r1, .L109+32
 865 00ac FFF7FEFF 		bl	strcmp
 866              	.LVL94:
 867 00b0 30B9     		cbnz	r0, .L108
 868              	.LBB192:
 869              	.LBB193:
 870              		.loc 1 56 0
 871 00b2 3046     		mov	r0, r6
 872              	.LBE193:
 873              	.LBE192:
 874              		.loc 1 172 0
 875 00b4 BCB1     		cbz	r4, .L66
 876              	.LVL95:
 877              	.LBB195:
 878              	.LBB194:
 879              		.loc 1 56 0
 880 00b6 3049     		ldr	r1, .L109+20
 881 00b8 324A     		ldr	r2, .L109+32
 882 00ba FFF7FEFF 		bl	chprintf
 883              	.LVL96:
 884              	.LBE194:
 885              	.LBE195:
 886              		.loc 1 174 0
 887 00be ADE7     		b	.L54
 888              	.LVL97:
 889              	.L108:
 890              	.LBB196:
 891              	.LBB197:
 892              		.loc 1 121 0
 893 00c0 314D     		ldr	r5, .L109+36
 894 00c2 2868     		ldr	r0, [r5]
 895 00c4 20B9     		cbnz	r0, .L74
 896 00c6 31E0     		b	.L65
 897              	.LVL98:
 898              	.L73:
 899 00c8 55F8080F 		ldr	r0, [r5, #8]!
 900              	.LVL99:
 901 00cc 0028     		cmp	r0, #0
 902 00ce 2DD0     		beq	.L65
 903              	.LVL100:
 904              	.L74:
 905              		.loc 1 122 0
 906 00d0 3946     		mov	r1, r7
 907 00d2 FFF7FEFF 		bl	strcmp
 908              	.LVL101:
 909 00d6 0028     		cmp	r0, #0
 910 00d8 F6D1     		bne	.L73
 911              	.LVL102:
ARM GAS  /tmp/ccdwoMzJ.s 			page 17


 912              	.L104:
 913              	.LBE197:
 914              	.LBE196:
 915              	.LBB198:
 916              	.LBB199:
 917              		.loc 1 123 0
 918 00da 6B68     		ldr	r3, [r5, #4]
 919 00dc 2146     		mov	r1, r4
 920 00de 3046     		mov	r0, r6
 921 00e0 01AA     		add	r2, sp, #4
 922 00e2 9847     		blx	r3
 923              	.LVL103:
 924 00e4 9AE7     		b	.L54
 925              	.LVL104:
 926              	.L66:
 927              	.LBE199:
 928              	.LBE198:
 929              	.LBB201:
 930              	.LBB202:
 931              		.loc 1 61 0
 932 00e6 284D     		ldr	r5, .L109+36
 933              	.LBE202:
 934              	.LBE201:
 935              		.loc 1 176 0
 936 00e8 2849     		ldr	r1, .L109+40
 937 00ea FFF7FEFF 		bl	chprintf
 938              	.LVL105:
 939              	.LBB204:
 940              	.LBB203:
 941              		.loc 1 61 0
 942 00ee 2A68     		ldr	r2, [r5]
 943 00f0 2C46     		mov	r4, r5
 944              	.LVL106:
 945 00f2 3AB1     		cbz	r2, .L70
 946              	.LVL107:
 947              	.L71:
 948              		.loc 1 62 0
 949 00f4 3046     		mov	r0, r6
 950 00f6 2649     		ldr	r1, .L109+44
 951 00f8 FFF7FEFF 		bl	chprintf
 952              	.LVL108:
 953              		.loc 1 61 0
 954 00fc 54F8082F 		ldr	r2, [r4, #8]!
 955              	.LVL109:
 956 0100 002A     		cmp	r2, #0
 957 0102 F7D1     		bne	.L71
 958              	.LVL110:
 959              	.L70:
 960              	.LBE203:
 961              	.LBE204:
 962              		.loc 1 178 0
 963 0104 B8F1000F 		cmp	r8, #0
 964 0108 0BD0     		beq	.L69
 965              	.LVL111:
 966              	.LBB205:
 967              	.LBB206:
 968              		.loc 1 61 0
ARM GAS  /tmp/ccdwoMzJ.s 			page 18


 969 010a D8F80020 		ldr	r2, [r8]
 970 010e 42B1     		cbz	r2, .L69
 971 0110 4446     		mov	r4, r8
 972              	.LVL112:
 973              	.L72:
 974              		.loc 1 62 0
 975 0112 3046     		mov	r0, r6
 976 0114 1E49     		ldr	r1, .L109+44
 977 0116 FFF7FEFF 		bl	chprintf
 978              	.LVL113:
 979              		.loc 1 61 0
 980 011a 54F8082F 		ldr	r2, [r4, #8]!
 981              	.LVL114:
 982 011e 002A     		cmp	r2, #0
 983 0120 F7D1     		bne	.L72
 984              	.LVL115:
 985              	.L69:
 986              	.LBE206:
 987              	.LBE205:
 988              		.loc 1 180 0
 989 0122 3046     		mov	r0, r6
 990 0124 1B49     		ldr	r1, .L109+48
 991 0126 FFF7FEFF 		bl	chprintf
 992              	.LVL116:
 993 012a 77E7     		b	.L54
 994              	.LVL117:
 995              	.L65:
 996              		.loc 1 182 0
 997 012c B8F1000F 		cmp	r8, #0
 998 0130 0DD0     		beq	.L77
 999              	.LVL118:
 1000              	.LBB207:
 1001              	.LBB200:
 1002              		.loc 1 121 0
 1003 0132 D8F80000 		ldr	r0, [r8]
 1004 0136 50B1     		cbz	r0, .L77
 1005 0138 4546     		mov	r5, r8
 1006 013a 02E0     		b	.L78
 1007              	.LVL119:
 1008              	.L75:
 1009 013c 55F8080F 		ldr	r0, [r5, #8]!
 1010              	.LVL120:
 1011 0140 28B1     		cbz	r0, .L77
 1012              	.LVL121:
 1013              	.L78:
 1014              		.loc 1 122 0
 1015 0142 3946     		mov	r1, r7
 1016 0144 FFF7FEFF 		bl	strcmp
 1017              	.LVL122:
 1018 0148 0028     		cmp	r0, #0
 1019 014a F7D1     		bne	.L75
 1020 014c C5E7     		b	.L104
 1021              	.LVL123:
 1022              	.L77:
 1023              	.LBE200:
 1024              	.LBE207:
 1025              		.loc 1 184 0
ARM GAS  /tmp/ccdwoMzJ.s 			page 19


 1026 014e 3A46     		mov	r2, r7
 1027 0150 3046     		mov	r0, r6
 1028 0152 1149     		ldr	r1, .L109+52
 1029 0154 FFF7FEFF 		bl	chprintf
 1030              	.LVL124:
 1031              		.loc 1 185 0
 1032 0158 3046     		mov	r0, r6
 1033 015a 1049     		ldr	r1, .L109+56
 1034 015c FFF7FEFF 		bl	chprintf
 1035              	.LVL125:
 1036 0160 5CE7     		b	.L54
 1037              	.L110:
 1038 0162 00BF     		.align	2
 1039              	.L109:
 1040 0164 00000000 		.word	ch
 1041 0168 B4010000 		.word	.LC25
 1042 016c BC010000 		.word	.LC26
 1043 0170 D4010000 		.word	.LC27
 1044 0174 00020000 		.word	.LC30
 1045 0178 00000000 		.word	.LC0
 1046 017c E8010000 		.word	.LC29
 1047 0180 DC010000 		.word	.LC28
 1048 0184 08020000 		.word	.LC31
 1049 0188 00000000 		.word	.LANCHOR1
 1050 018c 10020000 		.word	.LC32
 1051 0190 28020000 		.word	.LC33
 1052 0194 B0010000 		.word	.LC24
 1053 0198 2C020000 		.word	.LC34
 1054 019c 30020000 		.word	.LC35
 1055              		.cfi_endproc
 1056              	.LFE278:
 1057              		.size	shell_thread, .-shell_thread
 1058              		.global	shell_terminated
 1059              		.section	.data.local_commands,"aw",%progbits
 1060              		.align	2
 1061              		.set	.LANCHOR1,. + 0
 1062              		.type	local_commands, %object
 1063              		.size	local_commands, 24
 1064              	local_commands:
 1065 0000 1C000000 		.word	.LC3
 1066 0004 00000000 		.word	cmd_info
 1067 0008 0C000000 		.word	.LC1
 1068 000c 00000000 		.word	cmd_systime
 1069 0010 00000000 		.word	0
 1070 0014 00000000 		.word	0
 1071              		.section	.rodata.str1.4,"aMS",%progbits,1
 1072              		.align	2
 1073              	.LC0:
 1074 0000 55736167 		.ascii	"Usage: %s\015\012\000"
 1074      653A2025 
 1074      730D0A00 
 1075              	.LC1:
 1076 000c 73797374 		.ascii	"systime\000"
 1076      696D6500 
 1077              	.LC2:
 1078 0014 256C750D 		.ascii	"%lu\015\012\000"
 1078      0A00
ARM GAS  /tmp/ccdwoMzJ.s 			page 20


 1079 001a 0000     		.space	2
 1080              	.LC3:
 1081 001c 696E666F 		.ascii	"info\000"
 1081      00
 1082 0021 000000   		.space	3
 1083              	.LC4:
 1084 0024 4B65726E 		.ascii	"Kernel:       %s\015\012\000"
 1084      656C3A20 
 1084      20202020 
 1084      20202573 
 1084      0D0A00
 1085 0037 00       		.space	1
 1086              	.LC5:
 1087 0038 332E322E 		.ascii	"3.2.0\000"
 1087      3000
 1088 003e 0000     		.space	2
 1089              	.LC6:
 1090 0040 436F6D70 		.ascii	"Compiler:     %s\015\012\000"
 1090      696C6572 
 1090      3A202020 
 1090      20202573 
 1090      0D0A00
 1091 0053 00       		.space	1
 1092              	.LC7:
 1093 0054 47434320 		.ascii	"GCC 4.8.4 20140526 (release) [ARM/embedded-4_8-bran"
 1093      342E382E 
 1093      34203230 
 1093      31343035 
 1093      32362028 
 1094 0087 63682072 		.ascii	"ch revision 211358]\000"
 1094      65766973 
 1094      696F6E20 
 1094      32313133 
 1094      35385D00 
 1095 009b 00       		.space	1
 1096              	.LC8:
 1097 009c 41726368 		.ascii	"Architecture: %s\015\012\000"
 1097      69746563 
 1097      74757265 
 1097      3A202573 
 1097      0D0A00
 1098 00af 00       		.space	1
 1099              	.LC9:
 1100 00b0 41524D76 		.ascii	"ARMv7E-M\000"
 1100      37452D4D 
 1100      00
 1101 00b9 000000   		.space	3
 1102              	.LC10:
 1103 00bc 436F7265 		.ascii	"Core Variant: %s\015\012\000"
 1103      20566172 
 1103      69616E74 
 1103      3A202573 
 1103      0D0A00
 1104 00cf 00       		.space	1
 1105              	.LC11:
 1106 00d0 436F7274 		.ascii	"Cortex-M4\000"
 1106      65782D4D 
ARM GAS  /tmp/ccdwoMzJ.s 			page 21


 1106      3400
 1107 00da 0000     		.space	2
 1108              	.LC12:
 1109 00dc 506F7274 		.ascii	"Port Info:    %s\015\012\000"
 1109      20496E66 
 1109      6F3A2020 
 1109      20202573 
 1109      0D0A00
 1110 00ef 00       		.space	1
 1111              	.LC13:
 1112 00f0 41647661 		.ascii	"Advanced kernel mode\000"
 1112      6E636564 
 1112      206B6572 
 1112      6E656C20 
 1112      6D6F6465 
 1113 0105 000000   		.space	3
 1114              	.LC14:
 1115 0108 506C6174 		.ascii	"Platform:     %s\015\012\000"
 1115      666F726D 
 1115      3A202020 
 1115      20202573 
 1115      0D0A00
 1116 011b 00       		.space	1
 1117              	.LC15:
 1118 011c 53544D33 		.ascii	"STM32F303xC Analog & DSP\000"
 1118      32463330 
 1118      33784320 
 1118      416E616C 
 1118      6F672026 
 1119 0135 000000   		.space	3
 1120              	.LC16:
 1121 0138 426F6172 		.ascii	"Board:        %s\015\012\000"
 1121      643A2020 
 1121      20202020 
 1121      20202573 
 1121      0D0A00
 1122 014b 00       		.space	1
 1123              	.LC17:
 1124 014c 53544D69 		.ascii	"STMicroelectronics STM32F3-Discovery\000"
 1124      63726F65 
 1124      6C656374 
 1124      726F6E69 
 1124      63732053 
 1125 0171 000000   		.space	3
 1126              	.LC18:
 1127 0174 4275696C 		.ascii	"Build time:   %s%s%s\015\012\000"
 1127      64207469 
 1127      6D653A20 
 1127      20202573 
 1127      25732573 
 1128 018b 00       		.space	1
 1129              	.LC19:
 1130 018c 41707220 		.ascii	"Apr 21 2016\000"
 1130      32312032 
 1130      30313600 
 1131              	.LC20:
 1132 0198 202D2000 		.ascii	" - \000"
ARM GAS  /tmp/ccdwoMzJ.s 			page 22


 1133              	.LC21:
 1134 019c 31373A31 		.ascii	"17:12:46\000"
 1134      323A3436 
 1134      00
 1135 01a5 000000   		.space	3
 1136              	.LC22:
 1137 01a8 200900   		.ascii	" \011\000"
 1138 01ab 00       		.space	1
 1139              	.LC23:
 1140 01ac 5E4400   		.ascii	"^D\000"
 1141 01af 00       		.space	1
 1142              	.LC24:
 1143 01b0 0D0A00   		.ascii	"\015\012\000"
 1144 01b3 00       		.space	1
 1145              	.LC25:
 1146 01b4 7368656C 		.ascii	"shell\000"
 1146      6C00
 1147 01ba 0000     		.space	2
 1148              	.LC26:
 1149 01bc 0D0A4368 		.ascii	"\015\012ChibiOS/RT Shell\015\012\000"
 1149      6962694F 
 1149      532F5254 
 1149      20536865 
 1149      6C6C0D0A 
 1150 01d1 000000   		.space	3
 1151              	.LC27:
 1152 01d4 63683E20 		.ascii	"ch> \000"
 1152      00
 1153 01d9 000000   		.space	3
 1154              	.LC28:
 1155 01dc 0D0A6C6F 		.ascii	"\015\012logout\000"
 1155      676F7574 
 1155      00
 1156 01e5 000000   		.space	3
 1157              	.LC29:
 1158 01e8 746F6F20 		.ascii	"too many arguments\015\012\000"
 1158      6D616E79 
 1158      20617267 
 1158      756D656E 
 1158      74730D0A 
 1159 01fd 000000   		.space	3
 1160              	.LC30:
 1161 0200 65786974 		.ascii	"exit\000"
 1161      00
 1162 0205 000000   		.space	3
 1163              	.LC31:
 1164 0208 68656C70 		.ascii	"help\000"
 1164      00
 1165 020d 000000   		.space	3
 1166              	.LC32:
 1167 0210 436F6D6D 		.ascii	"Commands: help exit \000"
 1167      616E6473 
 1167      3A206865 
 1167      6C702065 
 1167      78697420 
 1168 0225 000000   		.space	3
 1169              	.LC33:
ARM GAS  /tmp/ccdwoMzJ.s 			page 23


 1170 0228 25732000 		.ascii	"%s \000"
 1171              	.LC34:
 1172 022c 257300   		.ascii	"%s\000"
 1173 022f 00       		.space	1
 1174              	.LC35:
 1175 0230 203F0D0A 		.ascii	" ?\015\012\000"
 1175      00
 1176 0235 000000   		.section	.bss.shell_terminated,"aw",%nobits
 1177              		.align	2
 1178              		.set	.LANCHOR0,. + 0
 1179              		.type	shell_terminated, %object
 1180              		.size	shell_terminated, 4
 1181              	shell_terminated:
 1182 0000 00000000 		.space	4
 1183              		.text
 1184              	.Letext0:
 1185              		.file 6 "/nfs/nfs5/home/research/hardware/arm2/gcc-arm-embedded/gcc-arm-none-eabi-4_8-2014q2/lib/g
 1186              		.file 7 "/nfs/nfs5/home/research/hardware/arm2/gcc-arm-embedded/gcc-arm-none-eabi-4_8-2014q2/arm-n
 1187              		.file 8 "/nfs/nfs5/home/research/hardware/arm2/gcc-arm-embedded/gcc-arm-none-eabi-4_8-2014q2/arm-n
 1188              		.file 9 "../ChibiOS/os/rt/ports/ARMCMx/compilers/GCC/chtypes.h"
 1189              		.file 10 "../ChibiOS/os/rt/include/chsystypes.h"
 1190              		.file 11 "../ChibiOS/os/rt/include/chschd.h"
 1191              		.file 12 "../ChibiOS/os/rt/ports/ARMCMx/chcore.h"
 1192              		.file 13 "../ChibiOS/os/rt/ports/ARMCMx/chcore_v7m.h"
 1193              		.file 14 "../ChibiOS/os/hal/ports/STM32/LLD/TIMv1/stm32_tim.h"
 1194              		.file 15 "../ChibiOS/os/rt/include/chtm.h"
 1195              		.file 16 "../ChibiOS/os/rt/include/chsem.h"
 1196              		.file 17 "../ChibiOS/os/rt/include/chmtx.h"
 1197              		.file 18 "../ChibiOS/os/rt/include/chthreads.h"
 1198              		.file 19 "../ChibiOS/os/rt/include/chmemcore.h"
 1199              		.file 20 "../ChibiOS/os/rt/include/chheap.h"
 1200              		.file 21 "../ChibiOS/os/rt/include/chstreams.h"
 1201              		.file 22 "../ChibiOS/os/various/shell.h"
 1202              		.file 23 "../ChibiOS/os/rt/ports/ARMCMx/chcore_timer.h"
 1203              		.file 24 "../ChibiOS/os/rt/include/chsys.h"
 1204              		.file 25 "../ChibiOS/os/rt/include/chvt.h"
 1205              		.file 26 "../ChibiOS/os/ext/CMSIS/include/core_cm4.h"
 1206              		.file 27 "../ChibiOS/os/hal/lib/streams/chprintf.h"
 1207              		.file 28 "/nfs/nfs5/home/research/hardware/arm2/gcc-arm-embedded/gcc-arm-none-eabi-4_8-2014q2/arm-
 1208              		.file 29 "../ChibiOS/os/rt/include/chdynamic.h"