ARM GAS  /tmp/ccrElWLb.s 			page 1


   1              		.syntax unified
   2              		.cpu cortex-m4
   3              		.fpu softvfp
   4              		.eabi_attribute 20, 1
   5              		.eabi_attribute 21, 1
   6              		.eabi_attribute 23, 3
   7              		.eabi_attribute 24, 1
   8              		.eabi_attribute 25, 1
   9              		.eabi_attribute 26, 1
  10              		.eabi_attribute 30, 2
  11              		.eabi_attribute 34, 1
  12              		.eabi_attribute 18, 4
  13              		.thumb
  14              		.file	"spi.c"
  15              		.text
  16              	.Ltext0:
  17              		.cfi_sections	.debug_frame
  18              		.section	.text.spiInit,"ax",%progbits
  19              		.align	2
  20              		.p2align 4,,15
  21              		.global	spiInit
  22              		.thumb
  23              		.thumb_func
  24              		.type	spiInit, %function
  25              	spiInit:
  26              	.LFB272:
  27              		.file 1 "../ChibiOS/os/hal/src/spi.c"
  28              		.loc 1 56 0
  29              		.cfi_startproc
  30              		@ args = 0, pretend = 0, frame = 0
  31              		@ frame_needed = 0, uses_anonymous_args = 0
  32              		@ link register save eliminated.
  33              		.loc 1 58 0
  34 0000 FFF7FEBF 		b	spi_lld_init
  35              	.LVL0:
  36              		.cfi_endproc
  37              	.LFE272:
  38              		.size	spiInit, .-spiInit
  39 0004 AFF30080 		.section	.text.spiObjectInit,"ax",%progbits
  39      AFF30080 
  39      AFF30080 
  40              		.align	2
  41              		.p2align 4,,15
  42              		.global	spiObjectInit
  43              		.thumb
  44              		.thumb_func
  45              		.type	spiObjectInit, %function
  46              	spiObjectInit:
  47              	.LFB273:
  48              		.loc 1 68 0
  49              		.cfi_startproc
  50              		@ args = 0, pretend = 0, frame = 0
  51              		@ frame_needed = 0, uses_anonymous_args = 0
  52              		@ link register save eliminated.
  53              	.LVL1:
  54              		.loc 1 71 0
  55 0000 0023     		movs	r3, #0
ARM GAS  /tmp/ccrElWLb.s 			page 2


  56              		.loc 1 70 0
  57 0002 0122     		movs	r2, #1
  58 0004 0270     		strb	r2, [r0]
  59              		.loc 1 71 0
  60 0006 4360     		str	r3, [r0, #4]
  61              		.loc 1 73 0
  62 0008 8360     		str	r3, [r0, #8]
  63              	.LVL2:
  64              	.LBB194:
  65              	.LBB195:
  66              		.file 2 "../ChibiOS/os/hal/osal/rt/osal.h"
  67              		.loc 2 887 0
  68 000a 0C30     		adds	r0, r0, #12
  69              	.LVL3:
  70 000c FFF7FEBF 		b	chMtxObjectInit
  71              	.LVL4:
  72              	.LBE195:
  73              	.LBE194:
  74              		.cfi_endproc
  75              	.LFE273:
  76              		.size	spiObjectInit, .-spiObjectInit
  77              		.section	.text.spiStart,"ax",%progbits
  78              		.align	2
  79              		.p2align 4,,15
  80              		.global	spiStart
  81              		.thumb
  82              		.thumb_func
  83              		.type	spiStart, %function
  84              	spiStart:
  85              	.LFB274:
  86              		.loc 1 91 0
  87              		.cfi_startproc
  88              		@ args = 0, pretend = 0, frame = 0
  89              		@ frame_needed = 0, uses_anonymous_args = 0
  90              	.LVL5:
  91 0000 10B5     		push	{r4, lr}
  92              		.cfi_def_cfa_offset 8
  93              		.cfi_offset 4, -8
  94              		.cfi_offset 14, -4
  95              	.LBB196:
  96              	.LBB197:
  97              	.LBB198:
  98              	.LBB199:
  99              	.LBB200:
 100              		.file 3 "../ChibiOS/os/ext/CMSIS/include/core_cmFunc.h"
 101              		.loc 3 548 0
 102 0002 2023     		movs	r3, #32
 103              	.LBE200:
 104              	.LBE199:
 105              	.LBE198:
 106              	.LBE197:
 107              	.LBE196:
 108              		.loc 1 91 0
 109 0004 0446     		mov	r4, r0
 110              	.LBB205:
 111              	.LBB204:
 112              	.LBB203:
ARM GAS  /tmp/ccrElWLb.s 			page 3


 113              	.LBB202:
 114              	.LBB201:
 115              		.loc 3 548 0
 116              	@ 548 "../ChibiOS/os/ext/CMSIS/include/core_cmFunc.h" 1
 117 0006 83F31188 		MSR basepri, r3
 118              	@ 0 "" 2
 119              		.thumb
 120              	.LBE201:
 121              	.LBE202:
 122              	.LBE203:
 123              	.LBE204:
 124              	.LBE205:
 125              		.loc 1 98 0
 126 000a 4160     		str	r1, [r0, #4]
 127              		.loc 1 99 0
 128 000c FFF7FEFF 		bl	spi_lld_start
 129              	.LVL6:
 130              		.loc 1 100 0
 131 0010 0223     		movs	r3, #2
 132 0012 2370     		strb	r3, [r4]
 133              	.LVL7:
 134              	.LBB206:
 135              	.LBB207:
 136              	.LBB208:
 137              	.LBB209:
 138              	.LBB210:
 139              	.LBB211:
 140              		.loc 3 548 0
 141 0014 0023     		movs	r3, #0
 142              	@ 548 "../ChibiOS/os/ext/CMSIS/include/core_cmFunc.h" 1
 143 0016 83F31188 		MSR basepri, r3
 144              	@ 0 "" 2
 145              		.thumb
 146 001a 10BD     		pop	{r4, pc}
 147              	.LBE211:
 148              	.LBE210:
 149              	.LBE209:
 150              	.LBE208:
 151              	.LBE207:
 152              	.LBE206:
 153              		.cfi_endproc
 154              	.LFE274:
 155              		.size	spiStart, .-spiStart
 156 001c AFF30080 		.section	.text.spiStop,"ax",%progbits
 157              		.align	2
 158              		.p2align 4,,15
 159              		.global	spiStop
 160              		.thumb
 161              		.thumb_func
 162              		.type	spiStop, %function
 163              	spiStop:
 164              	.LFB275:
 165              		.loc 1 113 0
 166              		.cfi_startproc
 167              		@ args = 0, pretend = 0, frame = 0
 168              		@ frame_needed = 0, uses_anonymous_args = 0
 169              	.LVL8:
ARM GAS  /tmp/ccrElWLb.s 			page 4


 170 0000 10B5     		push	{r4, lr}
 171              		.cfi_def_cfa_offset 8
 172              		.cfi_offset 4, -8
 173              		.cfi_offset 14, -4
 174              	.LBB212:
 175              	.LBB213:
 176              	.LBB214:
 177              	.LBB215:
 178              	.LBB216:
 179              		.loc 3 548 0
 180 0002 2023     		movs	r3, #32
 181              	.LBE216:
 182              	.LBE215:
 183              	.LBE214:
 184              	.LBE213:
 185              	.LBE212:
 186              		.loc 1 113 0
 187 0004 0446     		mov	r4, r0
 188              	.LBB221:
 189              	.LBB220:
 190              	.LBB219:
 191              	.LBB218:
 192              	.LBB217:
 193              		.loc 3 548 0
 194              	@ 548 "../ChibiOS/os/ext/CMSIS/include/core_cmFunc.h" 1
 195 0006 83F31188 		MSR basepri, r3
 196              	@ 0 "" 2
 197              		.thumb
 198              	.LBE217:
 199              	.LBE218:
 200              	.LBE219:
 201              	.LBE220:
 202              	.LBE221:
 203              		.loc 1 120 0
 204 000a FFF7FEFF 		bl	spi_lld_stop
 205              	.LVL9:
 206              		.loc 1 121 0
 207 000e 0123     		movs	r3, #1
 208 0010 2370     		strb	r3, [r4]
 209              	.LVL10:
 210              	.LBB222:
 211              	.LBB223:
 212              	.LBB224:
 213              	.LBB225:
 214              	.LBB226:
 215              	.LBB227:
 216              		.loc 3 548 0
 217 0012 0023     		movs	r3, #0
 218              	@ 548 "../ChibiOS/os/ext/CMSIS/include/core_cmFunc.h" 1
 219 0014 83F31188 		MSR basepri, r3
 220              	@ 0 "" 2
 221              		.thumb
 222 0018 10BD     		pop	{r4, pc}
 223              	.LBE227:
 224              	.LBE226:
 225              	.LBE225:
 226              	.LBE224:
ARM GAS  /tmp/ccrElWLb.s 			page 5


 227              	.LBE223:
 228              	.LBE222:
 229              		.cfi_endproc
 230              	.LFE275:
 231              		.size	spiStop, .-spiStop
 232 001a 00BFAFF3 		.section	.text.spiSelect,"ax",%progbits
 232      0080
 233              		.align	2
 234              		.p2align 4,,15
 235              		.global	spiSelect
 236              		.thumb
 237              		.thumb_func
 238              		.type	spiSelect, %function
 239              	spiSelect:
 240              	.LFB276:
 241              		.loc 1 132 0
 242              		.cfi_startproc
 243              		@ args = 0, pretend = 0, frame = 0
 244              		@ frame_needed = 0, uses_anonymous_args = 0
 245              	.LVL11:
 246 0000 08B5     		push	{r3, lr}
 247              		.cfi_def_cfa_offset 8
 248              		.cfi_offset 3, -8
 249              		.cfi_offset 14, -4
 250              	.LBB228:
 251              	.LBB229:
 252              	.LBB230:
 253              	.LBB231:
 254              	.LBB232:
 255              		.loc 3 548 0
 256 0002 2023     		movs	r3, #32
 257              	@ 548 "../ChibiOS/os/ext/CMSIS/include/core_cmFunc.h" 1
 258 0004 83F31188 		MSR basepri, r3
 259              	@ 0 "" 2
 260              		.thumb
 261              	.LBE232:
 262              	.LBE231:
 263              	.LBE230:
 264              	.LBE229:
 265              	.LBE228:
 266              		.loc 1 138 0
 267 0008 FFF7FEFF 		bl	spi_lld_select
 268              	.LVL12:
 269              	.LBB233:
 270              	.LBB234:
 271              	.LBB235:
 272              	.LBB236:
 273              	.LBB237:
 274              	.LBB238:
 275              		.loc 3 548 0
 276 000c 0023     		movs	r3, #0
 277              	@ 548 "../ChibiOS/os/ext/CMSIS/include/core_cmFunc.h" 1
 278 000e 83F31188 		MSR basepri, r3
 279              	@ 0 "" 2
 280              		.thumb
 281 0012 08BD     		pop	{r3, pc}
 282              	.LBE238:
ARM GAS  /tmp/ccrElWLb.s 			page 6


 283              	.LBE237:
 284              	.LBE236:
 285              	.LBE235:
 286              	.LBE234:
 287              	.LBE233:
 288              		.cfi_endproc
 289              	.LFE276:
 290              		.size	spiSelect, .-spiSelect
 291 0014 AFF30080 		.section	.text.spiUnselect,"ax",%progbits
 291      AFF30080 
 291      AFF30080 
 292              		.align	2
 293              		.p2align 4,,15
 294              		.global	spiUnselect
 295              		.thumb
 296              		.thumb_func
 297              		.type	spiUnselect, %function
 298              	spiUnselect:
 299              	.LFB277:
 300              		.loc 1 150 0
 301              		.cfi_startproc
 302              		@ args = 0, pretend = 0, frame = 0
 303              		@ frame_needed = 0, uses_anonymous_args = 0
 304              	.LVL13:
 305 0000 08B5     		push	{r3, lr}
 306              		.cfi_def_cfa_offset 8
 307              		.cfi_offset 3, -8
 308              		.cfi_offset 14, -4
 309              	.LBB239:
 310              	.LBB240:
 311              	.LBB241:
 312              	.LBB242:
 313              	.LBB243:
 314              		.loc 3 548 0
 315 0002 2023     		movs	r3, #32
 316              	@ 548 "../ChibiOS/os/ext/CMSIS/include/core_cmFunc.h" 1
 317 0004 83F31188 		MSR basepri, r3
 318              	@ 0 "" 2
 319              		.thumb
 320              	.LBE243:
 321              	.LBE242:
 322              	.LBE241:
 323              	.LBE240:
 324              	.LBE239:
 325              		.loc 1 156 0
 326 0008 FFF7FEFF 		bl	spi_lld_unselect
 327              	.LVL14:
 328              	.LBB244:
 329              	.LBB245:
 330              	.LBB246:
 331              	.LBB247:
 332              	.LBB248:
 333              	.LBB249:
 334              		.loc 3 548 0
 335 000c 0023     		movs	r3, #0
 336              	@ 548 "../ChibiOS/os/ext/CMSIS/include/core_cmFunc.h" 1
 337 000e 83F31188 		MSR basepri, r3
ARM GAS  /tmp/ccrElWLb.s 			page 7


 338              	@ 0 "" 2
 339              		.thumb
 340 0012 08BD     		pop	{r3, pc}
 341              	.LBE249:
 342              	.LBE248:
 343              	.LBE247:
 344              	.LBE246:
 345              	.LBE245:
 346              	.LBE244:
 347              		.cfi_endproc
 348              	.LFE277:
 349              		.size	spiUnselect, .-spiUnselect
 350 0014 AFF30080 		.section	.text.spiStartIgnore,"ax",%progbits
 350      AFF30080 
 350      AFF30080 
 351              		.align	2
 352              		.p2align 4,,15
 353              		.global	spiStartIgnore
 354              		.thumb
 355              		.thumb_func
 356              		.type	spiStartIgnore, %function
 357              	spiStartIgnore:
 358              	.LFB278:
 359              		.loc 1 173 0
 360              		.cfi_startproc
 361              		@ args = 0, pretend = 0, frame = 0
 362              		@ frame_needed = 0, uses_anonymous_args = 0
 363              	.LVL15:
 364 0000 08B5     		push	{r3, lr}
 365              		.cfi_def_cfa_offset 8
 366              		.cfi_offset 3, -8
 367              		.cfi_offset 14, -4
 368              	.LBB250:
 369              	.LBB251:
 370              	.LBB252:
 371              	.LBB253:
 372              	.LBB254:
 373              		.loc 3 548 0
 374 0002 2022     		movs	r2, #32
 375              	@ 548 "../ChibiOS/os/ext/CMSIS/include/core_cmFunc.h" 1
 376 0004 82F31188 		MSR basepri, r2
 377              	@ 0 "" 2
 378              		.thumb
 379              	.LBE254:
 380              	.LBE253:
 381              	.LBE252:
 382              	.LBE251:
 383              	.LBE250:
 384              		.loc 1 179 0
 385 0008 0322     		movs	r2, #3
 386 000a 0270     		strb	r2, [r0]
 387 000c FFF7FEFF 		bl	spi_lld_ignore
 388              	.LVL16:
 389              	.LBB255:
 390              	.LBB256:
 391              	.LBB257:
 392              	.LBB258:
ARM GAS  /tmp/ccrElWLb.s 			page 8


 393              	.LBB259:
 394              	.LBB260:
 395              		.loc 3 548 0
 396 0010 0023     		movs	r3, #0
 397              	@ 548 "../ChibiOS/os/ext/CMSIS/include/core_cmFunc.h" 1
 398 0012 83F31188 		MSR basepri, r3
 399              	@ 0 "" 2
 400              		.thumb
 401 0016 08BD     		pop	{r3, pc}
 402              	.LBE260:
 403              	.LBE259:
 404              	.LBE258:
 405              	.LBE257:
 406              	.LBE256:
 407              	.LBE255:
 408              		.cfi_endproc
 409              	.LFE278:
 410              		.size	spiStartIgnore, .-spiStartIgnore
 411 0018 AFF30080 		.section	.text.spiStartExchange,"ax",%progbits
 411      AFF30080 
 412              		.align	2
 413              		.p2align 4,,15
 414              		.global	spiStartExchange
 415              		.thumb
 416              		.thumb_func
 417              		.type	spiStartExchange, %function
 418              	spiStartExchange:
 419              	.LFB279:
 420              		.loc 1 201 0
 421              		.cfi_startproc
 422              		@ args = 0, pretend = 0, frame = 0
 423              		@ frame_needed = 0, uses_anonymous_args = 0
 424              	.LVL17:
 425 0000 38B5     		push	{r3, r4, r5, lr}
 426              		.cfi_def_cfa_offset 16
 427              		.cfi_offset 3, -16
 428              		.cfi_offset 4, -12
 429              		.cfi_offset 5, -8
 430              		.cfi_offset 14, -4
 431              	.LBB261:
 432              	.LBB262:
 433              	.LBB263:
 434              	.LBB264:
 435              	.LBB265:
 436              		.loc 3 548 0
 437 0002 2025     		movs	r5, #32
 438              	@ 548 "../ChibiOS/os/ext/CMSIS/include/core_cmFunc.h" 1
 439 0004 85F31188 		MSR basepri, r5
 440              	@ 0 "" 2
 441              		.thumb
 442              	.LBE265:
 443              	.LBE264:
 444              	.LBE263:
 445              	.LBE262:
 446              	.LBE261:
 447              		.loc 1 208 0
 448 0008 0325     		movs	r5, #3
ARM GAS  /tmp/ccrElWLb.s 			page 9


 449 000a 0570     		strb	r5, [r0]
 450 000c FFF7FEFF 		bl	spi_lld_exchange
 451              	.LVL18:
 452              	.LBB266:
 453              	.LBB267:
 454              	.LBB268:
 455              	.LBB269:
 456              	.LBB270:
 457              	.LBB271:
 458              		.loc 3 548 0
 459 0010 0023     		movs	r3, #0
 460              	@ 548 "../ChibiOS/os/ext/CMSIS/include/core_cmFunc.h" 1
 461 0012 83F31188 		MSR basepri, r3
 462              	@ 0 "" 2
 463              		.thumb
 464 0016 38BD     		pop	{r3, r4, r5, pc}
 465              	.LBE271:
 466              	.LBE270:
 467              	.LBE269:
 468              	.LBE268:
 469              	.LBE267:
 470              	.LBE266:
 471              		.cfi_endproc
 472              	.LFE279:
 473              		.size	spiStartExchange, .-spiStartExchange
 474 0018 AFF30080 		.section	.text.spiStartSend,"ax",%progbits
 474      AFF30080 
 475              		.align	2
 476              		.p2align 4,,15
 477              		.global	spiStartSend
 478              		.thumb
 479              		.thumb_func
 480              		.type	spiStartSend, %function
 481              	spiStartSend:
 482              	.LFB280:
 483              		.loc 1 227 0
 484              		.cfi_startproc
 485              		@ args = 0, pretend = 0, frame = 0
 486              		@ frame_needed = 0, uses_anonymous_args = 0
 487              	.LVL19:
 488 0000 10B5     		push	{r4, lr}
 489              		.cfi_def_cfa_offset 8
 490              		.cfi_offset 4, -8
 491              		.cfi_offset 14, -4
 492              	.LBB272:
 493              	.LBB273:
 494              	.LBB274:
 495              	.LBB275:
 496              	.LBB276:
 497              		.loc 3 548 0
 498 0002 2024     		movs	r4, #32
 499              	@ 548 "../ChibiOS/os/ext/CMSIS/include/core_cmFunc.h" 1
 500 0004 84F31188 		MSR basepri, r4
 501              	@ 0 "" 2
 502              		.thumb
 503              	.LBE276:
 504              	.LBE275:
ARM GAS  /tmp/ccrElWLb.s 			page 10


 505              	.LBE274:
 506              	.LBE273:
 507              	.LBE272:
 508              		.loc 1 233 0
 509 0008 0324     		movs	r4, #3
 510 000a 0470     		strb	r4, [r0]
 511 000c FFF7FEFF 		bl	spi_lld_send
 512              	.LVL20:
 513              	.LBB277:
 514              	.LBB278:
 515              	.LBB279:
 516              	.LBB280:
 517              	.LBB281:
 518              	.LBB282:
 519              		.loc 3 548 0
 520 0010 0023     		movs	r3, #0
 521              	@ 548 "../ChibiOS/os/ext/CMSIS/include/core_cmFunc.h" 1
 522 0012 83F31188 		MSR basepri, r3
 523              	@ 0 "" 2
 524              		.thumb
 525 0016 10BD     		pop	{r4, pc}
 526              	.LBE282:
 527              	.LBE281:
 528              	.LBE280:
 529              	.LBE279:
 530              	.LBE278:
 531              	.LBE277:
 532              		.cfi_endproc
 533              	.LFE280:
 534              		.size	spiStartSend, .-spiStartSend
 535 0018 AFF30080 		.section	.text.spiStartReceive,"ax",%progbits
 535      AFF30080 
 536              		.align	2
 537              		.p2align 4,,15
 538              		.global	spiStartReceive
 539              		.thumb
 540              		.thumb_func
 541              		.type	spiStartReceive, %function
 542              	spiStartReceive:
 543              	.LFB281:
 544              		.loc 1 252 0
 545              		.cfi_startproc
 546              		@ args = 0, pretend = 0, frame = 0
 547              		@ frame_needed = 0, uses_anonymous_args = 0
 548              	.LVL21:
 549 0000 10B5     		push	{r4, lr}
 550              		.cfi_def_cfa_offset 8
 551              		.cfi_offset 4, -8
 552              		.cfi_offset 14, -4
 553              	.LBB283:
 554              	.LBB284:
 555              	.LBB285:
 556              	.LBB286:
 557              	.LBB287:
 558              		.loc 3 548 0
 559 0002 2024     		movs	r4, #32
 560              	@ 548 "../ChibiOS/os/ext/CMSIS/include/core_cmFunc.h" 1
ARM GAS  /tmp/ccrElWLb.s 			page 11


 561 0004 84F31188 		MSR basepri, r4
 562              	@ 0 "" 2
 563              		.thumb
 564              	.LBE287:
 565              	.LBE286:
 566              	.LBE285:
 567              	.LBE284:
 568              	.LBE283:
 569              		.loc 1 258 0
 570 0008 0324     		movs	r4, #3
 571 000a 0470     		strb	r4, [r0]
 572 000c FFF7FEFF 		bl	spi_lld_receive
 573              	.LVL22:
 574              	.LBB288:
 575              	.LBB289:
 576              	.LBB290:
 577              	.LBB291:
 578              	.LBB292:
 579              	.LBB293:
 580              		.loc 3 548 0
 581 0010 0023     		movs	r3, #0
 582              	@ 548 "../ChibiOS/os/ext/CMSIS/include/core_cmFunc.h" 1
 583 0012 83F31188 		MSR basepri, r3
 584              	@ 0 "" 2
 585              		.thumb
 586 0016 10BD     		pop	{r4, pc}
 587              	.LBE293:
 588              	.LBE292:
 589              	.LBE291:
 590              	.LBE290:
 591              	.LBE289:
 592              	.LBE288:
 593              		.cfi_endproc
 594              	.LFE281:
 595              		.size	spiStartReceive, .-spiStartReceive
 596 0018 AFF30080 		.section	.text.spiIgnore,"ax",%progbits
 596      AFF30080 
 597              		.align	2
 598              		.p2align 4,,15
 599              		.global	spiIgnore
 600              		.thumb
 601              		.thumb_func
 602              		.type	spiIgnore, %function
 603              	spiIgnore:
 604              	.LFB282:
 605              		.loc 1 277 0
 606              		.cfi_startproc
 607              		@ args = 0, pretend = 0, frame = 0
 608              		@ frame_needed = 0, uses_anonymous_args = 0
 609              	.LVL23:
 610 0000 10B5     		push	{r4, lr}
 611              		.cfi_def_cfa_offset 8
 612              		.cfi_offset 4, -8
 613              		.cfi_offset 14, -4
 614              	.LBB294:
 615              	.LBB295:
 616              	.LBB296:
ARM GAS  /tmp/ccrElWLb.s 			page 12


 617              	.LBB297:
 618              	.LBB298:
 619              		.loc 3 548 0
 620 0002 2023     		movs	r3, #32
 621              	.LBE298:
 622              	.LBE297:
 623              	.LBE296:
 624              	.LBE295:
 625              	.LBE294:
 626              		.loc 1 277 0
 627 0004 0446     		mov	r4, r0
 628              	.LBB303:
 629              	.LBB302:
 630              	.LBB301:
 631              	.LBB300:
 632              	.LBB299:
 633              		.loc 3 548 0
 634              	@ 548 "../ChibiOS/os/ext/CMSIS/include/core_cmFunc.h" 1
 635 0006 83F31188 		MSR basepri, r3
 636              	@ 0 "" 2
 637              		.thumb
 638              	.LBE299:
 639              	.LBE300:
 640              	.LBE301:
 641              	.LBE302:
 642              	.LBE303:
 643              		.loc 1 284 0
 644 000a 0323     		movs	r3, #3
 645 000c 04F8083B 		strb	r3, [r4], #8
 646 0010 FFF7FEFF 		bl	spi_lld_ignore
 647              	.LVL24:
 648              	.LBB304:
 649              	.LBB305:
 650              		.loc 2 688 0
 651 0014 2046     		mov	r0, r4
 652 0016 FFF7FEFF 		bl	chThdSuspendS
 653              	.LVL25:
 654              	.LBE305:
 655              	.LBE304:
 656              	.LBB306:
 657              	.LBB307:
 658              	.LBB308:
 659              	.LBB309:
 660              	.LBB310:
 661              	.LBB311:
 662              		.loc 3 548 0
 663 001a 0023     		movs	r3, #0
 664              	@ 548 "../ChibiOS/os/ext/CMSIS/include/core_cmFunc.h" 1
 665 001c 83F31188 		MSR basepri, r3
 666              	@ 0 "" 2
 667              		.thumb
 668 0020 10BD     		pop	{r4, pc}
 669              	.LBE311:
 670              	.LBE310:
 671              	.LBE309:
 672              	.LBE308:
 673              	.LBE307:
ARM GAS  /tmp/ccrElWLb.s 			page 13


 674              	.LBE306:
 675              		.cfi_endproc
 676              	.LFE282:
 677              		.size	spiIgnore, .-spiIgnore
 678 0022 00BFAFF3 		.section	.text.spiExchange,"ax",%progbits
 678      0080AFF3 
 678      0080AFF3 
 678      0080
 679              		.align	2
 680              		.p2align 4,,15
 681              		.global	spiExchange
 682              		.thumb
 683              		.thumb_func
 684              		.type	spiExchange, %function
 685              	spiExchange:
 686              	.LFB283:
 687              		.loc 1 308 0
 688              		.cfi_startproc
 689              		@ args = 0, pretend = 0, frame = 0
 690              		@ frame_needed = 0, uses_anonymous_args = 0
 691              	.LVL26:
 692 0000 38B5     		push	{r3, r4, r5, lr}
 693              		.cfi_def_cfa_offset 16
 694              		.cfi_offset 3, -16
 695              		.cfi_offset 4, -12
 696              		.cfi_offset 5, -8
 697              		.cfi_offset 14, -4
 698              		.loc 1 308 0
 699 0002 0446     		mov	r4, r0
 700              	.LBB312:
 701              	.LBB313:
 702              	.LBB314:
 703              	.LBB315:
 704              	.LBB316:
 705              		.loc 3 548 0
 706 0004 2025     		movs	r5, #32
 707              	@ 548 "../ChibiOS/os/ext/CMSIS/include/core_cmFunc.h" 1
 708 0006 85F31188 		MSR basepri, r5
 709              	@ 0 "" 2
 710              		.thumb
 711              	.LBE316:
 712              	.LBE315:
 713              	.LBE314:
 714              	.LBE313:
 715              	.LBE312:
 716              		.loc 1 316 0
 717 000a 0325     		movs	r5, #3
 718 000c 04F8085B 		strb	r5, [r4], #8
 719 0010 FFF7FEFF 		bl	spi_lld_exchange
 720              	.LVL27:
 721              	.LBB317:
 722              	.LBB318:
 723              		.loc 2 688 0
 724 0014 2046     		mov	r0, r4
 725 0016 FFF7FEFF 		bl	chThdSuspendS
 726              	.LVL28:
 727              	.LBE318:
ARM GAS  /tmp/ccrElWLb.s 			page 14


 728              	.LBE317:
 729              	.LBB319:
 730              	.LBB320:
 731              	.LBB321:
 732              	.LBB322:
 733              	.LBB323:
 734              	.LBB324:
 735              		.loc 3 548 0
 736 001a 0023     		movs	r3, #0
 737              	@ 548 "../ChibiOS/os/ext/CMSIS/include/core_cmFunc.h" 1
 738 001c 83F31188 		MSR basepri, r3
 739              	@ 0 "" 2
 740              		.thumb
 741 0020 38BD     		pop	{r3, r4, r5, pc}
 742              	.LBE324:
 743              	.LBE323:
 744              	.LBE322:
 745              	.LBE321:
 746              	.LBE320:
 747              	.LBE319:
 748              		.cfi_endproc
 749              	.LFE283:
 750              		.size	spiExchange, .-spiExchange
 751 0022 00BFAFF3 		.section	.text.spiSend,"ax",%progbits
 751      0080AFF3 
 751      0080AFF3 
 751      0080
 752              		.align	2
 753              		.p2align 4,,15
 754              		.global	spiSend
 755              		.thumb
 756              		.thumb_func
 757              		.type	spiSend, %function
 758              	spiSend:
 759              	.LFB284:
 760              		.loc 1 337 0
 761              		.cfi_startproc
 762              		@ args = 0, pretend = 0, frame = 0
 763              		@ frame_needed = 0, uses_anonymous_args = 0
 764              	.LVL29:
 765 0000 10B5     		push	{r4, lr}
 766              		.cfi_def_cfa_offset 8
 767              		.cfi_offset 4, -8
 768              		.cfi_offset 14, -4
 769              	.LBB325:
 770              	.LBB326:
 771              	.LBB327:
 772              	.LBB328:
 773              	.LBB329:
 774              		.loc 3 548 0
 775 0002 2023     		movs	r3, #32
 776              	.LBE329:
 777              	.LBE328:
 778              	.LBE327:
 779              	.LBE326:
 780              	.LBE325:
 781              		.loc 1 337 0
ARM GAS  /tmp/ccrElWLb.s 			page 15


 782 0004 0446     		mov	r4, r0
 783              	.LBB334:
 784              	.LBB333:
 785              	.LBB332:
 786              	.LBB331:
 787              	.LBB330:
 788              		.loc 3 548 0
 789              	@ 548 "../ChibiOS/os/ext/CMSIS/include/core_cmFunc.h" 1
 790 0006 83F31188 		MSR basepri, r3
 791              	@ 0 "" 2
 792              		.thumb
 793              	.LBE330:
 794              	.LBE331:
 795              	.LBE332:
 796              	.LBE333:
 797              	.LBE334:
 798              		.loc 1 344 0
 799 000a 0323     		movs	r3, #3
 800 000c 04F8083B 		strb	r3, [r4], #8
 801 0010 FFF7FEFF 		bl	spi_lld_send
 802              	.LVL30:
 803              	.LBB335:
 804              	.LBB336:
 805              		.loc 2 688 0
 806 0014 2046     		mov	r0, r4
 807 0016 FFF7FEFF 		bl	chThdSuspendS
 808              	.LVL31:
 809              	.LBE336:
 810              	.LBE335:
 811              	.LBB337:
 812              	.LBB338:
 813              	.LBB339:
 814              	.LBB340:
 815              	.LBB341:
 816              	.LBB342:
 817              		.loc 3 548 0
 818 001a 0023     		movs	r3, #0
 819              	@ 548 "../ChibiOS/os/ext/CMSIS/include/core_cmFunc.h" 1
 820 001c 83F31188 		MSR basepri, r3
 821              	@ 0 "" 2
 822              		.thumb
 823 0020 10BD     		pop	{r4, pc}
 824              	.LBE342:
 825              	.LBE341:
 826              	.LBE340:
 827              	.LBE339:
 828              	.LBE338:
 829              	.LBE337:
 830              		.cfi_endproc
 831              	.LFE284:
 832              		.size	spiSend, .-spiSend
 833 0022 00BFAFF3 		.section	.text.spiReceive,"ax",%progbits
 833      0080AFF3 
 833      0080AFF3 
 833      0080
 834              		.align	2
 835              		.p2align 4,,15
ARM GAS  /tmp/ccrElWLb.s 			page 16


 836              		.global	spiReceive
 837              		.thumb
 838              		.thumb_func
 839              		.type	spiReceive, %function
 840              	spiReceive:
 841              	.LFB285:
 842              		.loc 1 365 0
 843              		.cfi_startproc
 844              		@ args = 0, pretend = 0, frame = 0
 845              		@ frame_needed = 0, uses_anonymous_args = 0
 846              	.LVL32:
 847 0000 10B5     		push	{r4, lr}
 848              		.cfi_def_cfa_offset 8
 849              		.cfi_offset 4, -8
 850              		.cfi_offset 14, -4
 851              	.LBB343:
 852              	.LBB344:
 853              	.LBB345:
 854              	.LBB346:
 855              	.LBB347:
 856              		.loc 3 548 0
 857 0002 2023     		movs	r3, #32
 858              	.LBE347:
 859              	.LBE346:
 860              	.LBE345:
 861              	.LBE344:
 862              	.LBE343:
 863              		.loc 1 365 0
 864 0004 0446     		mov	r4, r0
 865              	.LBB352:
 866              	.LBB351:
 867              	.LBB350:
 868              	.LBB349:
 869              	.LBB348:
 870              		.loc 3 548 0
 871              	@ 548 "../ChibiOS/os/ext/CMSIS/include/core_cmFunc.h" 1
 872 0006 83F31188 		MSR basepri, r3
 873              	@ 0 "" 2
 874              		.thumb
 875              	.LBE348:
 876              	.LBE349:
 877              	.LBE350:
 878              	.LBE351:
 879              	.LBE352:
 880              		.loc 1 372 0
 881 000a 0323     		movs	r3, #3
 882 000c 04F8083B 		strb	r3, [r4], #8
 883 0010 FFF7FEFF 		bl	spi_lld_receive
 884              	.LVL33:
 885              	.LBB353:
 886              	.LBB354:
 887              		.loc 2 688 0
 888 0014 2046     		mov	r0, r4
 889 0016 FFF7FEFF 		bl	chThdSuspendS
 890              	.LVL34:
 891              	.LBE354:
 892              	.LBE353:
ARM GAS  /tmp/ccrElWLb.s 			page 17


 893              	.LBB355:
 894              	.LBB356:
 895              	.LBB357:
 896              	.LBB358:
 897              	.LBB359:
 898              	.LBB360:
 899              		.loc 3 548 0
 900 001a 0023     		movs	r3, #0
 901              	@ 548 "../ChibiOS/os/ext/CMSIS/include/core_cmFunc.h" 1
 902 001c 83F31188 		MSR basepri, r3
 903              	@ 0 "" 2
 904              		.thumb
 905 0020 10BD     		pop	{r4, pc}
 906              	.LBE360:
 907              	.LBE359:
 908              	.LBE358:
 909              	.LBE357:
 910              	.LBE356:
 911              	.LBE355:
 912              		.cfi_endproc
 913              	.LFE285:
 914              		.size	spiReceive, .-spiReceive
 915 0022 00BFAFF3 		.section	.text.spiAcquireBus,"ax",%progbits
 915      0080AFF3 
 915      0080AFF3 
 915      0080
 916              		.align	2
 917              		.p2align 4,,15
 918              		.global	spiAcquireBus
 919              		.thumb
 920              		.thumb_func
 921              		.type	spiAcquireBus, %function
 922              	spiAcquireBus:
 923              	.LFB286:
 924              		.loc 1 390 0
 925              		.cfi_startproc
 926              		@ args = 0, pretend = 0, frame = 0
 927              		@ frame_needed = 0, uses_anonymous_args = 0
 928              		@ link register save eliminated.
 929              	.LVL35:
 930              	.LBB361:
 931              	.LBB362:
 932              		.loc 2 907 0
 933 0000 0C30     		adds	r0, r0, #12
 934              	.LVL36:
 935 0002 FFF7FEBF 		b	chMtxLock
 936              	.LVL37:
 937              	.LBE362:
 938              	.LBE361:
 939              		.cfi_endproc
 940              	.LFE286:
 941              		.size	spiAcquireBus, .-spiAcquireBus
 942 0006 00BFAFF3 		.section	.text.spiReleaseBus,"ax",%progbits
 942      0080AFF3 
 942      0080
 943              		.align	2
 944              		.p2align 4,,15
ARM GAS  /tmp/ccrElWLb.s 			page 18


 945              		.global	spiReleaseBus
 946              		.thumb
 947              		.thumb_func
 948              		.type	spiReleaseBus, %function
 949              	spiReleaseBus:
 950              	.LFB287:
 951              		.loc 1 406 0
 952              		.cfi_startproc
 953              		@ args = 0, pretend = 0, frame = 0
 954              		@ frame_needed = 0, uses_anonymous_args = 0
 955              		@ link register save eliminated.
 956              	.LVL38:
 957              	.LBB363:
 958              	.LBB364:
 959              		.loc 2 931 0
 960 0000 0C30     		adds	r0, r0, #12
 961              	.LVL39:
 962 0002 FFF7FEBF 		b	chMtxUnlock
 963              	.LVL40:
 964              	.LBE364:
 965              	.LBE363:
 966              		.cfi_endproc
 967              	.LFE287:
 968              		.size	spiReleaseBus, .-spiReleaseBus
 969 0006 00BFAFF3 		.text
 969      0080AFF3 
 969      0080
 970              	.Letext0:
 971              		.file 4 "/nfs/nfs5/home/research/hardware/arm2/gcc-arm-embedded/gcc-arm-none-eabi-4_8-2014q2/lib/g
 972              		.file 5 "/nfs/nfs5/home/research/hardware/arm2/gcc-arm-embedded/gcc-arm-none-eabi-4_8-2014q2/arm-n
 973              		.file 6 "/nfs/nfs5/home/research/hardware/arm2/gcc-arm-embedded/gcc-arm-none-eabi-4_8-2014q2/arm-n
 974              		.file 7 "../ChibiOS/os/rt/ports/ARMCMx/compilers/GCC/chtypes.h"
 975              		.file 8 "../ChibiOS/os/rt/include/chsystypes.h"
 976              		.file 9 "../ChibiOS/os/rt/include/chschd.h"
 977              		.file 10 "../ChibiOS/os/ext/CMSIS/ST/STM32F3xx/stm32f303xc.h"
 978              		.file 11 "../ChibiOS/os/rt/ports/ARMCMx/chcore.h"
 979              		.file 12 "../ChibiOS/os/rt/ports/ARMCMx/chcore_v7m.h"
 980              		.file 13 "../ChibiOS/os/rt/include/chtm.h"
 981              		.file 14 "../ChibiOS/os/rt/include/chsem.h"
 982              		.file 15 "../ChibiOS/os/rt/include/chmtx.h"
 983              		.file 16 "../ChibiOS/os/hal/ports/STM32/LLD/DMAv1/stm32_dma.h"
 984              		.file 17 "../ChibiOS/os/hal/ports/STM32/LLD/GPIOv2/pal_lld.h"
 985              		.file 18 "../ChibiOS/os/hal/include/spi.h"
 986              		.file 19 "../ChibiOS/os/hal/ports/STM32/LLD/SPIv2/spi_lld.h"
 987              		.file 20 "../ChibiOS/os/rt/include/chsys.h"
 988              		.file 21 "../ChibiOS/os/ext/CMSIS/include/core_cm4.h"
 989              		.file 22 "../ChibiOS/os/rt/include/chthreads.h"