ARM GAS  /tmp/ccdaN7MX.s 			page 1


   1              		.syntax unified
   2              		.cpu cortex-m4
   3              		.fpu softvfp
   4              		.eabi_attribute 20, 1
   5              		.eabi_attribute 21, 1
   6              		.eabi_attribute 23, 3
   7              		.eabi_attribute 24, 1
   8              		.eabi_attribute 25, 1
   9              		.eabi_attribute 26, 1
  10              		.eabi_attribute 30, 2
  11              		.eabi_attribute 34, 1
  12              		.eabi_attribute 18, 4
  13              		.thumb
  14              		.file	"spi_lld.c"
  15              		.text
  16              	.Ltext0:
  17              		.cfi_sections	.debug_frame
  18              		.section	.text.spi_lld_serve_tx_interrupt,"ax",%progbits
  19              		.align	2
  20              		.p2align 4,,15
  21              		.thumb
  22              		.thumb_func
  23              		.type	spi_lld_serve_tx_interrupt, %function
  24              	spi_lld_serve_tx_interrupt:
  25              	.LFB273:
  26              		.file 1 "../ChibiOS/os/hal/ports/STM32/LLD/SPIv2/spi_lld.c"
  27              		.loc 1 158 0
  28              		.cfi_startproc
  29              		@ args = 0, pretend = 0, frame = 0
  30              		@ frame_needed = 0, uses_anonymous_args = 0
  31              		@ link register save eliminated.
  32              	.LVL0:
  33              		.loc 1 163 0
  34 0000 0B07     		lsls	r3, r1, #28
  35 0002 00D4     		bmi	.L4
  36 0004 7047     		bx	lr
  37              	.L4:
  38              	.LVL1:
  39              	.LBB56:
  40              	.LBB57:
  41              		.file 2 "../ChibiOS/os/hal/osal/rt/osal.h"
  42              		.loc 2 462 0
  43 0006 0148     		ldr	r0, .L5
  44              	.LVL2:
  45 0008 FFF7FEBF 		b	chSysHalt
  46              	.LVL3:
  47              	.L6:
  48              		.align	2
  49              	.L5:
  50 000c 00000000 		.word	.LC0
  51              	.LBE57:
  52              	.LBE56:
  53              		.cfi_endproc
  54              	.LFE273:
  55              		.size	spi_lld_serve_tx_interrupt, .-spi_lld_serve_tx_interrupt
  56              		.section	.text.spi_lld_serve_rx_interrupt,"ax",%progbits
  57              		.align	2
ARM GAS  /tmp/ccdaN7MX.s 			page 2


  58              		.p2align 4,,15
  59              		.thumb
  60              		.thumb_func
  61              		.type	spi_lld_serve_rx_interrupt, %function
  62              	spi_lld_serve_rx_interrupt:
  63              	.LFB272:
  64              		.loc 1 132 0
  65              		.cfi_startproc
  66              		@ args = 0, pretend = 0, frame = 0
  67              		@ frame_needed = 0, uses_anonymous_args = 0
  68              	.LVL4:
  69 0000 F8B5     		push	{r3, r4, r5, r6, r7, lr}
  70              		.cfi_def_cfa_offset 24
  71              		.cfi_offset 3, -24
  72              		.cfi_offset 4, -20
  73              		.cfi_offset 5, -16
  74              		.cfi_offset 6, -12
  75              		.cfi_offset 7, -8
  76              		.cfi_offset 14, -4
  77              		.loc 1 136 0
  78 0002 0B07     		lsls	r3, r1, #28
  79              		.loc 1 132 0
  80 0004 0446     		mov	r4, r0
  81              		.loc 1 136 0
  82 0006 30D4     		bmi	.L14
  83              	.LVL5:
  84              	.L8:
  85              		.loc 1 144 0
  86 0008 626A     		ldr	r2, [r4, #36]
  87              		.loc 1 145 0
  88 000a 236A     		ldr	r3, [r4, #32]
  89              		.loc 1 144 0
  90 000c 5068     		ldr	r0, [r2, #4]
  91              		.loc 1 149 0
  92 000e 6568     		ldr	r5, [r4, #4]
  93              		.loc 1 144 0
  94 0010 D0F800E0 		ldr	lr, [r0]
  95              		.loc 1 145 0
  96 0014 5968     		ldr	r1, [r3, #4]
  97              		.loc 1 144 0
  98 0016 1768     		ldr	r7, [r2]
  99              		.loc 1 145 0
 100 0018 1E68     		ldr	r6, [r3]
 101              		.loc 1 149 0
 102 001a 2D68     		ldr	r5, [r5]
 103              		.loc 1 144 0
 104 001c 2EF00F0E 		bic	lr, lr, #15
 105 0020 C0F800E0 		str	lr, [r0]
 106 0024 107C     		ldrb	r0, [r2, #16]	@ zero_extendqisi2
 107 0026 0F22     		movs	r2, #15
 108 0028 02FA00F0 		lsl	r0, r2, r0
 109 002c 7860     		str	r0, [r7, #4]
 110              		.loc 1 145 0
 111 002e 0868     		ldr	r0, [r1]
 112 0030 20F00F00 		bic	r0, r0, #15
 113 0034 0860     		str	r0, [r1]
 114 0036 1B7C     		ldrb	r3, [r3, #16]	@ zero_extendqisi2
ARM GAS  /tmp/ccdaN7MX.s 			page 3


 115 0038 9A40     		lsls	r2, r2, r3
 116 003a 7260     		str	r2, [r6, #4]
 117              		.loc 1 149 0
 118 003c 95B1     		cbz	r5, .L9
 119              		.loc 1 149 0 is_stmt 0 discriminator 1
 120 003e 0423     		movs	r3, #4
 121 0040 2370     		strb	r3, [r4]
 122 0042 2046     		mov	r0, r4
 123 0044 A847     		blx	r5
 124              	.LVL6:
 125 0046 2378     		ldrb	r3, [r4]	@ zero_extendqisi2
 126 0048 042B     		cmp	r3, #4
 127 004a 0BD0     		beq	.L9
 128              	.L10:
 129              	.LVL7:
 130              	.LBB58:
 131              	.LBB59:
 132              	.LBB60:
 133              	.LBB61:
 134              	.LBB62:
 135              	.LBB63:
 136              		.file 3 "../ChibiOS/os/ext/CMSIS/include/core_cmFunc.h"
 137              		.loc 3 548 0 is_stmt 1 discriminator 1
 138 004c 2023     		movs	r3, #32
 139              	@ 548 "../ChibiOS/os/ext/CMSIS/include/core_cmFunc.h" 1
 140 004e 83F31188 		MSR basepri, r3
 141              	@ 0 "" 2
 142              	.LVL8:
 143              		.thumb
 144              	.LBE63:
 145              	.LBE62:
 146              	.LBE61:
 147              	.LBE60:
 148              	.LBE59:
 149              	.LBE58:
 150              	.LBB64:
 151              	.LBB65:
 152              		.loc 2 728 0 discriminator 1
 153 0052 0021     		movs	r1, #0
 154 0054 04F10800 		add	r0, r4, #8
 155              	.LVL9:
 156 0058 FFF7FEFF 		bl	chThdResumeI
 157              	.LVL10:
 158              	.LBE65:
 159              	.LBE64:
 160              	.LBB66:
 161              	.LBB67:
 162              	.LBB68:
 163              	.LBB69:
 164              	.LBB70:
 165              	.LBB71:
 166              		.loc 3 548 0 discriminator 1
 167 005c 0023     		movs	r3, #0
 168              	@ 548 "../ChibiOS/os/ext/CMSIS/include/core_cmFunc.h" 1
 169 005e 83F31188 		MSR basepri, r3
 170              	@ 0 "" 2
 171              		.thumb
ARM GAS  /tmp/ccdaN7MX.s 			page 4


 172 0062 F8BD     		pop	{r3, r4, r5, r6, r7, pc}
 173              	.LVL11:
 174              	.L9:
 175              	.LBE71:
 176              	.LBE70:
 177              	.LBE69:
 178              	.LBE68:
 179              	.LBE67:
 180              	.LBE66:
 181              		.loc 1 149 0 discriminator 2
 182 0064 0223     		movs	r3, #2
 183 0066 2370     		strb	r3, [r4]
 184 0068 F0E7     		b	.L10
 185              	.LVL12:
 186              	.L14:
 187              	.LBB72:
 188              	.LBB73:
 189              		.loc 2 462 0
 190 006a 0248     		ldr	r0, .L15
 191              	.LVL13:
 192 006c FFF7FEFF 		bl	chSysHalt
 193              	.LVL14:
 194 0070 CAE7     		b	.L8
 195              	.L16:
 196 0072 00BF     		.align	2
 197              	.L15:
 198 0074 00000000 		.word	.LC0
 199              	.LBE73:
 200              	.LBE72:
 201              		.cfi_endproc
 202              	.LFE272:
 203              		.size	spi_lld_serve_rx_interrupt, .-spi_lld_serve_rx_interrupt
 204 0078 AFF30080 		.section	.text.spi_lld_init,"ax",%progbits
 204      AFF30080 
 205              		.align	2
 206              		.p2align 4,,15
 207              		.global	spi_lld_init
 208              		.thumb
 209              		.thumb_func
 210              		.type	spi_lld_init, %function
 211              	spi_lld_init:
 212              	.LFB274:
 213              		.loc 1 185 0
 214              		.cfi_startproc
 215              		@ args = 0, pretend = 0, frame = 0
 216              		@ frame_needed = 0, uses_anonymous_args = 0
 217 0000 2DE9F041 		push	{r4, r5, r6, r7, r8, lr}
 218              		.cfi_def_cfa_offset 24
 219              		.cfi_offset 4, -24
 220              		.cfi_offset 5, -20
 221              		.cfi_offset 6, -16
 222              		.cfi_offset 7, -12
 223              		.cfi_offset 8, -8
 224              		.cfi_offset 14, -4
 225              		.loc 1 188 0
 226 0004 104D     		ldr	r5, .L18
 227              		.loc 1 206 0
ARM GAS  /tmp/ccdaN7MX.s 			page 5


 228 0006 114C     		ldr	r4, .L18+4
 229              		.loc 1 190 0
 230 0008 114E     		ldr	r6, .L18+8
 231              		.loc 1 188 0
 232 000a 2846     		mov	r0, r5
 233 000c FFF7FEFF 		bl	spiObjectInit
 234              	.LVL15:
 235              		.loc 1 189 0
 236 0010 104B     		ldr	r3, .L18+12
 237 0012 EB61     		str	r3, [r5, #28]
 238              		.loc 1 192 0
 239 0014 41F20A08 		movw	r8, #4106
 240              		.loc 1 191 0
 241 0018 06F11403 		add	r3, r6, #20
 242              		.loc 1 198 0
 243 001c 41F21807 		movw	r7, #4120
 244              		.loc 1 206 0
 245 0020 2046     		mov	r0, r4
 246              		.loc 1 190 0
 247 0022 2E62     		str	r6, [r5, #32]
 248              		.loc 1 191 0
 249 0024 6B62     		str	r3, [r5, #36]
 250              		.loc 1 192 0
 251 0026 C5F82880 		str	r8, [r5, #40]
 252              		.loc 1 198 0
 253 002a EF62     		str	r7, [r5, #44]
 254              		.loc 1 206 0
 255 002c FFF7FEFF 		bl	spiObjectInit
 256              	.LVL16:
 257              		.loc 1 208 0
 258 0030 06F12803 		add	r3, r6, #40
 259              		.loc 1 207 0
 260 0034 084A     		ldr	r2, .L18+16
 261              		.loc 1 210 0
 262 0036 C4F82880 		str	r8, [r4, #40]
 263              		.loc 1 209 0
 264 003a 3C36     		adds	r6, r6, #60
 265              		.loc 1 216 0
 266 003c E762     		str	r7, [r4, #44]
 267              		.loc 1 207 0
 268 003e E261     		str	r2, [r4, #28]
 269              		.loc 1 208 0
 270 0040 2362     		str	r3, [r4, #32]
 271              		.loc 1 209 0
 272 0042 6662     		str	r6, [r4, #36]
 273 0044 BDE8F081 		pop	{r4, r5, r6, r7, r8, pc}
 274              	.L19:
 275              		.align	2
 276              	.L18:
 277 0048 00000000 		.word	.LANCHOR0
 278 004c 00000000 		.word	.LANCHOR1
 279 0050 14000000 		.word	_stm32_dma_streams+20
 280 0054 00300140 		.word	1073819648
 281 0058 00380040 		.word	1073756160
 282              		.cfi_endproc
 283              	.LFE274:
 284              		.size	spi_lld_init, .-spi_lld_init
ARM GAS  /tmp/ccdaN7MX.s 			page 6


 285 005c AFF30080 		.section	.text.spi_lld_start,"ax",%progbits
 286              		.align	2
 287              		.p2align 4,,15
 288              		.global	spi_lld_start
 289              		.thumb
 290              		.thumb_func
 291              		.type	spi_lld_start, %function
 292              	spi_lld_start:
 293              	.LFB275:
 294              		.loc 1 303 0
 295              		.cfi_startproc
 296              		@ args = 0, pretend = 0, frame = 0
 297              		@ frame_needed = 0, uses_anonymous_args = 0
 298              	.LVL17:
 299              		.loc 1 307 0
 300 0000 0378     		ldrb	r3, [r0]	@ zero_extendqisi2
 301 0002 012B     		cmp	r3, #1
 302              		.loc 1 303 0
 303 0004 70B5     		push	{r4, r5, r6, lr}
 304              		.cfi_def_cfa_offset 16
 305              		.cfi_offset 4, -16
 306              		.cfi_offset 5, -12
 307              		.cfi_offset 6, -8
 308              		.cfi_offset 14, -4
 309              		.loc 1 303 0
 310 0006 0446     		mov	r4, r0
 311              		.loc 1 307 0
 312 0008 28D0     		beq	.L27
 313 000a C369     		ldr	r3, [r0, #28]
 314              	.LVL18:
 315              	.L21:
 316              		.loc 1 411 0
 317 000c 6168     		ldr	r1, [r4, #4]
 318              		.loc 1 415 0
 319 000e A56A     		ldr	r5, [r4, #40]
 320              		.loc 1 411 0
 321 0010 8A89     		ldrh	r2, [r1, #12]
 322              	.LVL19:
 323              		.loc 1 431 0
 324 0012 4989     		ldrh	r1, [r1, #10]
 325              		.loc 1 412 0
 326 0014 02F47060 		and	r0, r2, #3840
 327 0018 B0F5E06F 		cmp	r0, #1792
 328              		.loc 1 417 0
 329 001c E06A     		ldr	r0, [r4, #44]
 330 001e 20F47060 		bic	r0, r0, #3840
 331              		.loc 1 415 0
 332 0022 25F47065 		bic	r5, r5, #3840
 333              		.loc 1 425 0
 334 0026 88BF     		it	hi
 335 0028 40F4A060 		orrhi	r0, r0, #1280
 336              		.loc 1 433 0
 337 002c 42F48052 		orr	r2, r2, #4096
 338              	.LVL20:
 339              		.loc 1 431 0
 340 0030 41F00401 		orr	r1, r1, #4
 341              		.loc 1 424 0
ARM GAS  /tmp/ccdaN7MX.s 			page 7


 342 0034 E062     		str	r0, [r4, #44]
 343              		.loc 1 433 0
 344 0036 42F00702 		orr	r2, r2, #7
 345              		.loc 1 418 0
 346 003a 92BF     		itee	ls
 347 003c 0126     		movls	r6, #1
 348              		.loc 1 423 0
 349 003e 45F4A065 		orrhi	r5, r5, #1280
 350              		.loc 1 426 0
 351 0042 0226     		movhi	r6, #2
 352              		.loc 1 431 0
 353 0044 89B2     		uxth	r1, r1
 354              		.loc 1 430 0
 355 0046 0020     		movs	r0, #0
 356              		.loc 1 422 0
 357 0048 A562     		str	r5, [r4, #40]
 358              		.loc 1 426 0
 359 004a 2663     		str	r6, [r4, #48]
 360              		.loc 1 430 0
 361 004c 1860     		str	r0, [r3]
 362              		.loc 1 431 0
 363 004e 1960     		str	r1, [r3]
 364              		.loc 1 432 0
 365 0050 5A60     		str	r2, [r3, #4]
 366              		.loc 1 434 0
 367 0052 1A68     		ldr	r2, [r3]
 368 0054 42F04002 		orr	r2, r2, #64
 369 0058 1A60     		str	r2, [r3]
 370 005a 70BD     		pop	{r4, r5, r6, pc}
 371              	.LVL21:
 372              	.L27:
 373              		.loc 1 309 0
 374 005c 194B     		ldr	r3, .L30
 375 005e 9842     		cmp	r0, r3
 376 0060 0CD0     		beq	.L28
 377              		.loc 1 325 0
 378 0062 194B     		ldr	r3, .L30+4
 379 0064 9842     		cmp	r0, r3
 380 0066 1BD0     		beq	.L29
 381              	.LVL22:
 382              	.L23:
 383              		.loc 1 406 0
 384 0068 216A     		ldr	r1, [r4, #32]
 385              		.loc 1 407 0
 386 006a 626A     		ldr	r2, [r4, #36]
 387              		.loc 1 406 0
 388 006c E369     		ldr	r3, [r4, #28]
 389 006e 4868     		ldr	r0, [r1, #4]
 390              		.loc 1 407 0
 391 0070 5168     		ldr	r1, [r2, #4]
 392              		.loc 1 406 0
 393 0072 03F10C02 		add	r2, r3, #12
 394 0076 8260     		str	r2, [r0, #8]
 395              		.loc 1 407 0
 396 0078 8A60     		str	r2, [r1, #8]
 397 007a C7E7     		b	.L21
 398              	.LVL23:
ARM GAS  /tmp/ccdaN7MX.s 			page 8


 399              	.L28:
 400              	.LBB74:
 401              		.loc 1 311 0
 402 007c 134A     		ldr	r2, .L30+8
 403 007e 006A     		ldr	r0, [r0, #32]
 404              	.LVL24:
 405 0080 0A21     		movs	r1, #10
 406 0082 2346     		mov	r3, r4
 407 0084 FFF7FEFF 		bl	dmaStreamAllocate
 408              	.LVL25:
 409              		.loc 1 316 0
 410 0088 114A     		ldr	r2, .L30+12
 411 008a 606A     		ldr	r0, [r4, #36]
 412 008c 2346     		mov	r3, r4
 413 008e 0A21     		movs	r1, #10
 414 0090 FFF7FEFF 		bl	dmaStreamAllocate
 415              	.LVL26:
 416              		.loc 1 321 0
 417 0094 0F4B     		ldr	r3, .L30+16
 418 0096 9A69     		ldr	r2, [r3, #24]
 419 0098 42F48052 		orr	r2, r2, #4096
 420 009c 9A61     		str	r2, [r3, #24]
 421 009e E3E7     		b	.L23
 422              	.LVL27:
 423              	.L29:
 424              	.LBE74:
 425              	.LBB75:
 426              		.loc 1 327 0
 427 00a0 0A4A     		ldr	r2, .L30+8
 428 00a2 006A     		ldr	r0, [r0, #32]
 429              	.LVL28:
 430 00a4 0A21     		movs	r1, #10
 431 00a6 2346     		mov	r3, r4
 432 00a8 FFF7FEFF 		bl	dmaStreamAllocate
 433              	.LVL29:
 434              		.loc 1 332 0
 435 00ac 084A     		ldr	r2, .L30+12
 436 00ae 606A     		ldr	r0, [r4, #36]
 437 00b0 2346     		mov	r3, r4
 438 00b2 0A21     		movs	r1, #10
 439 00b4 FFF7FEFF 		bl	dmaStreamAllocate
 440              	.LVL30:
 441              		.loc 1 337 0
 442 00b8 064B     		ldr	r3, .L30+16
 443 00ba DA69     		ldr	r2, [r3, #28]
 444 00bc 42F48042 		orr	r2, r2, #16384
 445 00c0 DA61     		str	r2, [r3, #28]
 446 00c2 D1E7     		b	.L23
 447              	.L31:
 448              		.align	2
 449              	.L30:
 450 00c4 00000000 		.word	.LANCHOR0
 451 00c8 00000000 		.word	.LANCHOR1
 452 00cc 00000000 		.word	spi_lld_serve_rx_interrupt
 453 00d0 00000000 		.word	spi_lld_serve_tx_interrupt
 454 00d4 00100240 		.word	1073876992
 455              	.LBE75:
ARM GAS  /tmp/ccdaN7MX.s 			page 9


 456              		.cfi_endproc
 457              	.LFE275:
 458              		.size	spi_lld_start, .-spi_lld_start
 459 00d8 AFF30080 		.section	.text.spi_lld_stop,"ax",%progbits
 459      AFF30080 
 460              		.align	2
 461              		.p2align 4,,15
 462              		.global	spi_lld_stop
 463              		.thumb
 464              		.thumb_func
 465              		.type	spi_lld_stop, %function
 466              	spi_lld_stop:
 467              	.LFB276:
 468              		.loc 1 444 0
 469              		.cfi_startproc
 470              		@ args = 0, pretend = 0, frame = 0
 471              		@ frame_needed = 0, uses_anonymous_args = 0
 472              	.LVL31:
 473              		.loc 1 447 0
 474 0000 0378     		ldrb	r3, [r0]	@ zero_extendqisi2
 475 0002 022B     		cmp	r3, #2
 476              		.loc 1 444 0
 477 0004 10B5     		push	{r4, lr}
 478              		.cfi_def_cfa_offset 8
 479              		.cfi_offset 4, -8
 480              		.cfi_offset 14, -4
 481              		.loc 1 444 0
 482 0006 0446     		mov	r4, r0
 483              		.loc 1 447 0
 484 0008 00D0     		beq	.L37
 485              	.LVL32:
 486              	.L32:
 487 000a 10BD     		pop	{r4, pc}
 488              	.LVL33:
 489              	.L37:
 490              		.loc 1 450 0
 491 000c C369     		ldr	r3, [r0, #28]
 492              		.loc 1 452 0
 493 000e 006A     		ldr	r0, [r0, #32]
 494              	.LVL34:
 495              		.loc 1 450 0
 496 0010 0022     		movs	r2, #0
 497 0012 1A60     		str	r2, [r3]
 498              		.loc 1 451 0
 499 0014 5A60     		str	r2, [r3, #4]
 500              		.loc 1 452 0
 501 0016 FFF7FEFF 		bl	dmaStreamRelease
 502              	.LVL35:
 503              		.loc 1 453 0
 504 001a 606A     		ldr	r0, [r4, #36]
 505 001c FFF7FEFF 		bl	dmaStreamRelease
 506              	.LVL36:
 507              		.loc 1 456 0
 508 0020 084B     		ldr	r3, .L39
 509 0022 9C42     		cmp	r4, r3
 510 0024 08D0     		beq	.L38
 511              		.loc 1 460 0
ARM GAS  /tmp/ccdaN7MX.s 			page 10


 512 0026 084B     		ldr	r3, .L39+4
 513 0028 9C42     		cmp	r4, r3
 514 002a EED1     		bne	.L32
 515              		.loc 1 461 0
 516 002c 074B     		ldr	r3, .L39+8
 517 002e DA69     		ldr	r2, [r3, #28]
 518 0030 22F48042 		bic	r2, r2, #16384
 519 0034 DA61     		str	r2, [r3, #28]
 520 0036 E8E7     		b	.L32
 521              	.L38:
 522              		.loc 1 457 0
 523 0038 044B     		ldr	r3, .L39+8
 524 003a 9A69     		ldr	r2, [r3, #24]
 525 003c 22F48052 		bic	r2, r2, #4096
 526 0040 9A61     		str	r2, [r3, #24]
 527 0042 10BD     		pop	{r4, pc}
 528              	.LVL37:
 529              	.L40:
 530              		.align	2
 531              	.L39:
 532 0044 00000000 		.word	.LANCHOR0
 533 0048 00000000 		.word	.LANCHOR1
 534 004c 00100240 		.word	1073876992
 535              		.cfi_endproc
 536              	.LFE276:
 537              		.size	spi_lld_stop, .-spi_lld_stop
 538              		.section	.text.spi_lld_select,"ax",%progbits
 539              		.align	2
 540              		.p2align 4,,15
 541              		.global	spi_lld_select
 542              		.thumb
 543              		.thumb_func
 544              		.type	spi_lld_select, %function
 545              	spi_lld_select:
 546              	.LFB277:
 547              		.loc 1 489 0
 548              		.cfi_startproc
 549              		@ args = 0, pretend = 0, frame = 0
 550              		@ frame_needed = 0, uses_anonymous_args = 0
 551              		@ link register save eliminated.
 552              	.LVL38:
 553              		.loc 1 491 0
 554 0000 4368     		ldr	r3, [r0, #4]
 555 0002 1A89     		ldrh	r2, [r3, #8]
 556 0004 5B68     		ldr	r3, [r3, #4]
 557 0006 0121     		movs	r1, #1
 558 0008 01FA02F2 		lsl	r2, r1, r2
 559 000c 92B2     		uxth	r2, r2
 560 000e 5A83     		strh	r2, [r3, #26]	@ movhi
 561 0010 7047     		bx	lr
 562              		.cfi_endproc
 563              	.LFE277:
 564              		.size	spi_lld_select, .-spi_lld_select
 565 0012 00BFAFF3 		.section	.text.spi_lld_unselect,"ax",%progbits
 565      0080AFF3 
 565      0080AFF3 
 565      0080
ARM GAS  /tmp/ccdaN7MX.s 			page 11


 566              		.align	2
 567              		.p2align 4,,15
 568              		.global	spi_lld_unselect
 569              		.thumb
 570              		.thumb_func
 571              		.type	spi_lld_unselect, %function
 572              	spi_lld_unselect:
 573              	.LFB278:
 574              		.loc 1 502 0
 575              		.cfi_startproc
 576              		@ args = 0, pretend = 0, frame = 0
 577              		@ frame_needed = 0, uses_anonymous_args = 0
 578              		@ link register save eliminated.
 579              	.LVL39:
 580              		.loc 1 504 0
 581 0000 4368     		ldr	r3, [r0, #4]
 582 0002 1A89     		ldrh	r2, [r3, #8]
 583 0004 5B68     		ldr	r3, [r3, #4]
 584 0006 0121     		movs	r1, #1
 585 0008 01FA02F2 		lsl	r2, r1, r2
 586 000c 92B2     		uxth	r2, r2
 587 000e 1A83     		strh	r2, [r3, #24]	@ movhi
 588 0010 7047     		bx	lr
 589              		.cfi_endproc
 590              	.LFE278:
 591              		.size	spi_lld_unselect, .-spi_lld_unselect
 592 0012 00BFAFF3 		.section	.text.spi_lld_ignore,"ax",%progbits
 592      0080AFF3 
 592      0080AFF3 
 592      0080
 593              		.align	2
 594              		.p2align 4,,15
 595              		.global	spi_lld_ignore
 596              		.thumb
 597              		.thumb_func
 598              		.type	spi_lld_ignore, %function
 599              	spi_lld_ignore:
 600              	.LFB279:
 601              		.loc 1 518 0
 602              		.cfi_startproc
 603              		@ args = 0, pretend = 0, frame = 0
 604              		@ frame_needed = 0, uses_anonymous_args = 0
 605              		@ link register save eliminated.
 606              	.LVL40:
 607              		.loc 1 520 0
 608 0000 026A     		ldr	r2, [r0, #32]
 609              		.loc 1 524 0
 610 0002 436A     		ldr	r3, [r0, #36]
 611              		.loc 1 520 0
 612 0004 5268     		ldr	r2, [r2, #4]
 613              		.loc 1 524 0
 614 0006 5B68     		ldr	r3, [r3, #4]
 615              		.loc 1 518 0
 616 0008 70B4     		push	{r4, r5, r6}
 617              		.cfi_def_cfa_offset 12
 618              		.cfi_offset 4, -12
 619              		.cfi_offset 5, -8
ARM GAS  /tmp/ccdaN7MX.s 			page 12


 620              		.cfi_offset 6, -4
 621              		.loc 1 522 0
 622 000a 856A     		ldr	r5, [r0, #40]
 623              		.loc 1 520 0
 624 000c 094E     		ldr	r6, .L44
 625              		.loc 1 526 0
 626 000e C06A     		ldr	r0, [r0, #44]
 627              	.LVL41:
 628              		.loc 1 524 0
 629 0010 094C     		ldr	r4, .L44+4
 630              		.loc 1 520 0
 631 0012 D660     		str	r6, [r2, #12]
 632              		.loc 1 521 0
 633 0014 5160     		str	r1, [r2, #4]
 634              		.loc 1 522 0
 635 0016 1560     		str	r5, [r2]
 636              		.loc 1 524 0
 637 0018 DC60     		str	r4, [r3, #12]
 638              		.loc 1 525 0
 639 001a 5960     		str	r1, [r3, #4]
 640              		.loc 1 526 0
 641 001c 1860     		str	r0, [r3]
 642              		.loc 1 528 0
 643 001e 1168     		ldr	r1, [r2]
 644              	.LVL42:
 645 0020 41F00101 		orr	r1, r1, #1
 646 0024 1160     		str	r1, [r2]
 647              		.loc 1 529 0
 648 0026 1A68     		ldr	r2, [r3]
 649 0028 42F00102 		orr	r2, r2, #1
 650 002c 1A60     		str	r2, [r3]
 651              		.loc 1 530 0
 652 002e 70BC     		pop	{r4, r5, r6}
 653 0030 7047     		bx	lr
 654              	.L45:
 655 0032 00BF     		.align	2
 656              	.L44:
 657 0034 00000000 		.word	.LANCHOR2
 658 0038 00000000 		.word	.LANCHOR3
 659              		.cfi_endproc
 660              	.LFE279:
 661              		.size	spi_lld_ignore, .-spi_lld_ignore
 662 003c AFF30080 		.section	.text.spi_lld_exchange,"ax",%progbits
 663              		.align	2
 664              		.p2align 4,,15
 665              		.global	spi_lld_exchange
 666              		.thumb
 667              		.thumb_func
 668              		.type	spi_lld_exchange, %function
 669              	spi_lld_exchange:
 670              	.LFB280:
 671              		.loc 1 548 0
 672              		.cfi_startproc
 673              		@ args = 0, pretend = 0, frame = 0
 674              		@ frame_needed = 0, uses_anonymous_args = 0
 675              		@ link register save eliminated.
 676              	.LVL43:
ARM GAS  /tmp/ccdaN7MX.s 			page 13


 677 0000 F0B4     		push	{r4, r5, r6, r7}
 678              		.cfi_def_cfa_offset 16
 679              		.cfi_offset 4, -16
 680              		.cfi_offset 5, -12
 681              		.cfi_offset 6, -8
 682              		.cfi_offset 7, -4
 683              		.loc 1 550 0
 684 0002 046A     		ldr	r4, [r0, #32]
 685              		.loc 1 554 0
 686 0004 476A     		ldr	r7, [r0, #36]
 687              		.loc 1 552 0
 688 0006 866A     		ldr	r6, [r0, #40]
 689              		.loc 1 556 0
 690 0008 C56A     		ldr	r5, [r0, #44]
 691              		.loc 1 550 0
 692 000a 6468     		ldr	r4, [r4, #4]
 693              		.loc 1 554 0
 694 000c 7868     		ldr	r0, [r7, #4]
 695              	.LVL44:
 696              		.loc 1 550 0
 697 000e E360     		str	r3, [r4, #12]
 698              		.loc 1 552 0
 699 0010 46F08006 		orr	r6, r6, #128
 700              		.loc 1 556 0
 701 0014 45F08005 		orr	r5, r5, #128
 702              		.loc 1 551 0
 703 0018 6160     		str	r1, [r4, #4]
 704              		.loc 1 552 0
 705 001a 2660     		str	r6, [r4]
 706              		.loc 1 554 0
 707 001c C260     		str	r2, [r0, #12]
 708              		.loc 1 555 0
 709 001e 4160     		str	r1, [r0, #4]
 710              		.loc 1 556 0
 711 0020 0560     		str	r5, [r0]
 712              		.loc 1 558 0
 713 0022 2368     		ldr	r3, [r4]
 714              	.LVL45:
 715 0024 43F00103 		orr	r3, r3, #1
 716 0028 2360     		str	r3, [r4]
 717              		.loc 1 559 0
 718 002a 0368     		ldr	r3, [r0]
 719 002c 43F00103 		orr	r3, r3, #1
 720 0030 0360     		str	r3, [r0]
 721              		.loc 1 560 0
 722 0032 F0BC     		pop	{r4, r5, r6, r7}
 723 0034 7047     		bx	lr
 724              		.cfi_endproc
 725              	.LFE280:
 726              		.size	spi_lld_exchange, .-spi_lld_exchange
 727 0036 00BFAFF3 		.section	.text.spi_lld_send,"ax",%progbits
 727      0080AFF3 
 727      0080
 728              		.align	2
 729              		.p2align 4,,15
 730              		.global	spi_lld_send
 731              		.thumb
ARM GAS  /tmp/ccdaN7MX.s 			page 14


 732              		.thumb_func
 733              		.type	spi_lld_send, %function
 734              	spi_lld_send:
 735              	.LFB281:
 736              		.loc 1 575 0
 737              		.cfi_startproc
 738              		@ args = 0, pretend = 0, frame = 0
 739              		@ frame_needed = 0, uses_anonymous_args = 0
 740              		@ link register save eliminated.
 741              	.LVL46:
 742 0000 70B4     		push	{r4, r5, r6}
 743              		.cfi_def_cfa_offset 12
 744              		.cfi_offset 4, -12
 745              		.cfi_offset 5, -8
 746              		.cfi_offset 6, -4
 747              		.loc 1 581 0
 748 0002 436A     		ldr	r3, [r0, #36]
 749              		.loc 1 577 0
 750 0004 046A     		ldr	r4, [r0, #32]
 751              		.loc 1 583 0
 752 0006 C56A     		ldr	r5, [r0, #44]
 753              		.loc 1 577 0
 754 0008 6468     		ldr	r4, [r4, #4]
 755              		.loc 1 581 0
 756 000a 5B68     		ldr	r3, [r3, #4]
 757              		.loc 1 579 0
 758 000c 806A     		ldr	r0, [r0, #40]
 759              	.LVL47:
 760              		.loc 1 577 0
 761 000e 094E     		ldr	r6, .L48
 762 0010 E660     		str	r6, [r4, #12]
 763              		.loc 1 583 0
 764 0012 45F08005 		orr	r5, r5, #128
 765              		.loc 1 578 0
 766 0016 6160     		str	r1, [r4, #4]
 767              		.loc 1 579 0
 768 0018 2060     		str	r0, [r4]
 769              		.loc 1 581 0
 770 001a DA60     		str	r2, [r3, #12]
 771              		.loc 1 582 0
 772 001c 5960     		str	r1, [r3, #4]
 773              		.loc 1 583 0
 774 001e 1D60     		str	r5, [r3]
 775              		.loc 1 585 0
 776 0020 2268     		ldr	r2, [r4]
 777              	.LVL48:
 778 0022 42F00102 		orr	r2, r2, #1
 779 0026 2260     		str	r2, [r4]
 780              		.loc 1 586 0
 781 0028 1A68     		ldr	r2, [r3]
 782 002a 42F00102 		orr	r2, r2, #1
 783 002e 1A60     		str	r2, [r3]
 784              		.loc 1 587 0
 785 0030 70BC     		pop	{r4, r5, r6}
 786 0032 7047     		bx	lr
 787              	.L49:
 788              		.align	2
ARM GAS  /tmp/ccdaN7MX.s 			page 15


 789              	.L48:
 790 0034 00000000 		.word	.LANCHOR2
 791              		.cfi_endproc
 792              	.LFE281:
 793              		.size	spi_lld_send, .-spi_lld_send
 794 0038 AFF30080 		.section	.text.spi_lld_receive,"ax",%progbits
 794      AFF30080 
 795              		.align	2
 796              		.p2align 4,,15
 797              		.global	spi_lld_receive
 798              		.thumb
 799              		.thumb_func
 800              		.type	spi_lld_receive, %function
 801              	spi_lld_receive:
 802              	.LFB282:
 803              		.loc 1 602 0
 804              		.cfi_startproc
 805              		@ args = 0, pretend = 0, frame = 0
 806              		@ frame_needed = 0, uses_anonymous_args = 0
 807              		@ link register save eliminated.
 808              	.LVL49:
 809 0000 70B4     		push	{r4, r5, r6}
 810              		.cfi_def_cfa_offset 12
 811              		.cfi_offset 4, -12
 812              		.cfi_offset 5, -8
 813              		.cfi_offset 6, -4
 814              		.loc 1 608 0
 815 0002 436A     		ldr	r3, [r0, #36]
 816              		.loc 1 604 0
 817 0004 046A     		ldr	r4, [r0, #32]
 818              		.loc 1 606 0
 819 0006 866A     		ldr	r6, [r0, #40]
 820              		.loc 1 604 0
 821 0008 6468     		ldr	r4, [r4, #4]
 822              		.loc 1 608 0
 823 000a 5B68     		ldr	r3, [r3, #4]
 824              		.loc 1 610 0
 825 000c C06A     		ldr	r0, [r0, #44]
 826              	.LVL50:
 827              		.loc 1 608 0
 828 000e 094D     		ldr	r5, .L51
 829              		.loc 1 604 0
 830 0010 E260     		str	r2, [r4, #12]
 831              		.loc 1 606 0
 832 0012 46F08006 		orr	r6, r6, #128
 833              		.loc 1 605 0
 834 0016 6160     		str	r1, [r4, #4]
 835              		.loc 1 606 0
 836 0018 2660     		str	r6, [r4]
 837              		.loc 1 608 0
 838 001a DD60     		str	r5, [r3, #12]
 839              		.loc 1 609 0
 840 001c 5960     		str	r1, [r3, #4]
 841              		.loc 1 610 0
 842 001e 1860     		str	r0, [r3]
 843              		.loc 1 612 0
 844 0020 2268     		ldr	r2, [r4]
ARM GAS  /tmp/ccdaN7MX.s 			page 16


 845              	.LVL51:
 846 0022 42F00102 		orr	r2, r2, #1
 847 0026 2260     		str	r2, [r4]
 848              		.loc 1 613 0
 849 0028 1A68     		ldr	r2, [r3]
 850 002a 42F00102 		orr	r2, r2, #1
 851 002e 1A60     		str	r2, [r3]
 852              		.loc 1 614 0
 853 0030 70BC     		pop	{r4, r5, r6}
 854 0032 7047     		bx	lr
 855              	.L52:
 856              		.align	2
 857              	.L51:
 858 0034 00000000 		.word	.LANCHOR3
 859              		.cfi_endproc
 860              	.LFE282:
 861              		.size	spi_lld_receive, .-spi_lld_receive
 862 0038 AFF30080 		.section	.text.spi_lld_polled_exchange,"ax",%progbits
 862      AFF30080 
 863              		.align	2
 864              		.p2align 4,,15
 865              		.global	spi_lld_polled_exchange
 866              		.thumb
 867              		.thumb_func
 868              		.type	spi_lld_polled_exchange, %function
 869              	spi_lld_polled_exchange:
 870              	.LFB283:
 871              		.loc 1 628 0
 872              		.cfi_startproc
 873              		@ args = 0, pretend = 0, frame = 0
 874              		@ frame_needed = 0, uses_anonymous_args = 0
 875              		@ link register save eliminated.
 876              	.LVL52:
 877              		.loc 1 635 0
 878 0000 4368     		ldr	r3, [r0, #4]
 879 0002 9B89     		ldrh	r3, [r3, #12]
 880 0004 03F47063 		and	r3, r3, #3840
 881 0008 B3F5E06F 		cmp	r3, #1792
 882              		.loc 1 628 0
 883 000c 10B4     		push	{r4}
 884              		.cfi_def_cfa_offset 4
 885              		.cfi_offset 4, -4
 886              		.loc 1 635 0
 887 000e 0BD8     		bhi	.L54
 888              	.LBB76:
 889              		.loc 1 638 0
 890 0010 C469     		ldr	r4, [r0, #28]
 891              	.LVL53:
 892              		.loc 1 639 0
 893 0012 C9B2     		uxtb	r1, r1
 894              	.LVL54:
 895 0014 2173     		strb	r1, [r4, #12]
 896 0016 C269     		ldr	r2, [r0, #28]
 897              	.L56:
 898              		.loc 1 640 0 discriminator 1
 899 0018 9368     		ldr	r3, [r2, #8]
 900 001a D907     		lsls	r1, r3, #31
ARM GAS  /tmp/ccdaN7MX.s 			page 17


 901 001c FCD5     		bpl	.L56
 902              		.loc 1 642 0
 903 001e 207B     		ldrb	r0, [r4, #12]	@ zero_extendqisi2
 904              	.LVL55:
 905              	.LBE76:
 906              		.loc 1 650 0
 907 0020 5DF8044B 		ldr	r4, [sp], #4
 908              	.LVL56:
 909              	.LBB77:
 910              		.loc 1 642 0
 911 0024 C0B2     		uxtb	r0, r0
 912              	.LBE77:
 913              		.loc 1 650 0
 914 0026 7047     		bx	lr
 915              	.LVL57:
 916              	.L54:
 917              		.loc 1 645 0
 918 0028 C269     		ldr	r2, [r0, #28]
 919 002a D160     		str	r1, [r2, #12]
 920              	.L59:
 921              		.loc 1 646 0 discriminator 1
 922 002c 9368     		ldr	r3, [r2, #8]
 923 002e DB07     		lsls	r3, r3, #31
 924 0030 FCD5     		bpl	.L59
 925              		.loc 1 648 0
 926 0032 D068     		ldr	r0, [r2, #12]
 927              	.LVL58:
 928              		.loc 1 650 0
 929 0034 5DF8044B 		ldr	r4, [sp], #4
 930              		.loc 1 648 0
 931 0038 80B2     		uxth	r0, r0
 932              		.loc 1 650 0
 933 003a 7047     		bx	lr
 934              		.cfi_endproc
 935              	.LFE283:
 936              		.size	spi_lld_polled_exchange, .-spi_lld_polled_exchange
 937              		.global	SPID2
 938              		.global	SPID1
 939 003c AFF30080 		.section	.bss.SPID1,"aw",%nobits
 940              		.align	2
 941              		.set	.LANCHOR0,. + 0
 942              		.type	SPID1, %object
 943              		.size	SPID1, 52
 944              	SPID1:
 945 0000 00000000 		.space	52
 945      00000000 
 945      00000000 
 945      00000000 
 945      00000000 
 946              		.section	.bss.SPID2,"aw",%nobits
 947              		.align	2
 948              		.set	.LANCHOR1,. + 0
 949              		.type	SPID2, %object
 950              		.size	SPID2, 52
 951              	SPID2:
 952 0000 00000000 		.space	52
 952      00000000 
ARM GAS  /tmp/ccdaN7MX.s 			page 18


 952      00000000 
 952      00000000 
 952      00000000 
 953              		.section	.rodata.dummytx,"a",%progbits
 954              		.align	1
 955              		.set	.LANCHOR3,. + 0
 956              		.type	dummytx, %object
 957              		.size	dummytx, 2
 958              	dummytx:
 959 0000 FFFF     		.short	-1
 960              		.section	.rodata.str1.4,"aMS",%progbits,1
 961              		.align	2
 962              	.LC0:
 963 0000 444D4120 		.ascii	"DMA failure\000"
 963      6661696C 
 963      75726500 
 964              		.section	.bss.dummyrx,"aw",%nobits
 965              		.align	1
 966              		.set	.LANCHOR2,. + 0
 967              		.type	dummyrx, %object
 968              		.size	dummyrx, 2
 969              	dummyrx:
 970 0000 0000     		.space	2
 971              		.text
 972              	.Letext0:
 973              		.file 4 "/nfs/nfs5/home/research/hardware/arm2/gcc-arm-embedded/gcc-arm-none-eabi-4_8-2014q2/lib/g
 974              		.file 5 "/nfs/nfs5/home/research/hardware/arm2/gcc-arm-embedded/gcc-arm-none-eabi-4_8-2014q2/arm-n
 975              		.file 6 "/nfs/nfs5/home/research/hardware/arm2/gcc-arm-embedded/gcc-arm-none-eabi-4_8-2014q2/arm-n
 976              		.file 7 "../ChibiOS/os/rt/ports/ARMCMx/compilers/GCC/chtypes.h"
 977              		.file 8 "../ChibiOS/os/rt/include/chsystypes.h"
 978              		.file 9 "../ChibiOS/os/rt/include/chschd.h"
 979              		.file 10 "../ChibiOS/os/ext/CMSIS/ST/STM32F3xx/stm32f303xc.h"
 980              		.file 11 "../ChibiOS/os/rt/ports/ARMCMx/chcore.h"
 981              		.file 12 "../ChibiOS/os/rt/ports/ARMCMx/chcore_v7m.h"
 982              		.file 13 "../ChibiOS/os/rt/include/chtm.h"
 983              		.file 14 "../ChibiOS/os/rt/include/chsem.h"
 984              		.file 15 "../ChibiOS/os/rt/include/chmtx.h"
 985              		.file 16 "../ChibiOS/os/hal/ports/STM32/LLD/DMAv1/stm32_dma.h"
 986              		.file 17 "../ChibiOS/os/hal/ports/STM32/LLD/GPIOv2/pal_lld.h"
 987              		.file 18 "../ChibiOS/os/hal/include/spi.h"
 988              		.file 19 "../ChibiOS/os/hal/ports/STM32/LLD/SPIv2/spi_lld.h"
 989              		.file 20 "../ChibiOS/os/rt/include/chsys.h"
 990              		.file 21 "../ChibiOS/os/ext/CMSIS/include/core_cm4.h"
 991              		.file 22 "../ChibiOS/os/rt/include/chthreads.h"