ARM GAS  /tmp/cc0zjQRA.s 			page 1


   1              		.syntax unified
   2              		.cpu cortex-m4
   3              		.fpu softvfp
   4              		.eabi_attribute 20, 1
   5              		.eabi_attribute 21, 1
   6              		.eabi_attribute 23, 3
   7              		.eabi_attribute 24, 1
   8              		.eabi_attribute 25, 1
   9              		.eabi_attribute 26, 1
  10              		.eabi_attribute 30, 2
  11              		.eabi_attribute 34, 1
  12              		.eabi_attribute 18, 4
  13              		.thumb
  14              		.file	"syscalls.c"
  15              		.text
  16              	.Ltext0:
  17              		.cfi_sections	.debug_frame
  18              		.section	.text._read_r,"ax",%progbits
  19              		.align	2
  20              		.p2align 4,,15
  21              		.global	_read_r
  22              		.thumb
  23              		.thumb_func
  24              		.type	_read_r, %function
  25              	_read_r:
  26              	.LFB241:
  27              		.file 1 "../ChibiOS/os/various/syscalls.c"
  28              		.loc 1 71 0
  29              		.cfi_startproc
  30              		@ args = 0, pretend = 0, frame = 0
  31              		@ frame_needed = 0, uses_anonymous_args = 0
  32              		@ link register save eliminated.
  33              	.LVL0:
  34              		.loc 1 84 0
  35 0000 1623     		movs	r3, #22
  36              	.LVL1:
  37 0002 0360     		str	r3, [r0]
  38              		.loc 1 87 0
  39 0004 4FF0FF30 		mov	r0, #-1
  40              	.LVL2:
  41 0008 7047     		bx	lr
  42              		.cfi_endproc
  43              	.LFE241:
  44              		.size	_read_r, .-_read_r
  45 000a 00BFAFF3 		.section	.text._lseek_r,"ax",%progbits
  45      0080
  46              		.align	2
  47              		.p2align 4,,15
  48              		.global	_lseek_r
  49              		.thumb
  50              		.thumb_func
  51              		.type	_lseek_r, %function
  52              	_lseek_r:
  53              	.LFB242:
  54              		.loc 1 92 0
  55              		.cfi_startproc
  56              		@ args = 0, pretend = 0, frame = 0
ARM GAS  /tmp/cc0zjQRA.s 			page 2


  57              		@ frame_needed = 0, uses_anonymous_args = 0
  58              		@ link register save eliminated.
  59              	.LVL3:
  60              		.loc 1 99 0
  61 0000 0020     		movs	r0, #0
  62              	.LVL4:
  63 0002 7047     		bx	lr
  64              		.cfi_endproc
  65              	.LFE242:
  66              		.size	_lseek_r, .-_lseek_r
  67 0004 AFF30080 		.section	.text._write_r,"ax",%progbits
  67      AFF30080 
  67      AFF30080 
  68              		.align	2
  69              		.p2align 4,,15
  70              		.global	_write_r
  71              		.thumb
  72              		.thumb_func
  73              		.type	_write_r, %function
  74              	_write_r:
  75              	.LFB243:
  76              		.loc 1 104 0
  77              		.cfi_startproc
  78              		@ args = 0, pretend = 0, frame = 0
  79              		@ frame_needed = 0, uses_anonymous_args = 0
  80              		@ link register save eliminated.
  81              	.LVL5:
  82              		.loc 1 116 0
  83 0000 1846     		mov	r0, r3
  84              	.LVL6:
  85 0002 7047     		bx	lr
  86              		.cfi_endproc
  87              	.LFE243:
  88              		.size	_write_r, .-_write_r
  89 0004 AFF30080 		.section	.text._close_r,"ax",%progbits
  89      AFF30080 
  89      AFF30080 
  90              		.align	2
  91              		.p2align 4,,15
  92              		.global	_close_r
  93              		.thumb
  94              		.thumb_func
  95              		.type	_close_r, %function
  96              	_close_r:
  97              	.LFB244:
  98              		.loc 1 121 0
  99              		.cfi_startproc
 100              		@ args = 0, pretend = 0, frame = 0
 101              		@ frame_needed = 0, uses_anonymous_args = 0
 102              		@ link register save eliminated.
 103              	.LVL7:
 104              		.loc 1 126 0
 105 0000 0020     		movs	r0, #0
 106              	.LVL8:
 107 0002 7047     		bx	lr
 108              		.cfi_endproc
 109              	.LFE244:
ARM GAS  /tmp/cc0zjQRA.s 			page 3


 110              		.size	_close_r, .-_close_r
 111 0004 AFF30080 		.section	.text._sbrk_r,"ax",%progbits
 111      AFF30080 
 111      AFF30080 
 112              		.align	2
 113              		.p2align 4,,15
 114              		.global	_sbrk_r
 115              		.thumb
 116              		.thumb_func
 117              		.type	_sbrk_r, %function
 118              	_sbrk_r:
 119              	.LFB245:
 120              		.loc 1 131 0
 121              		.cfi_startproc
 122              		@ args = 0, pretend = 0, frame = 0
 123              		@ frame_needed = 0, uses_anonymous_args = 0
 124              	.LVL9:
 125 0000 10B5     		push	{r4, lr}
 126              		.cfi_def_cfa_offset 8
 127              		.cfi_offset 4, -8
 128              		.cfi_offset 14, -4
 129              		.loc 1 131 0
 130 0002 0446     		mov	r4, r0
 131              		.loc 1 137 0
 132 0004 0846     		mov	r0, r1
 133              	.LVL10:
 134 0006 FFF7FEFF 		bl	chCoreAlloc
 135              	.LVL11:
 136              		.loc 1 138 0
 137 000a 00B1     		cbz	r0, .L9
 138              		.loc 1 148 0
 139 000c 10BD     		pop	{r4, pc}
 140              	.LVL12:
 141              	.L9:
 142              		.loc 1 139 0
 143 000e 0C23     		movs	r3, #12
 144 0010 2360     		str	r3, [r4]
 145              		.loc 1 140 0
 146 0012 4FF0FF30 		mov	r0, #-1
 147              	.LVL13:
 148              		.loc 1 148 0
 149 0016 10BD     		pop	{r4, pc}
 150              		.cfi_endproc
 151              	.LFE245:
 152              		.size	_sbrk_r, .-_sbrk_r
 153 0018 AFF30080 		.section	.text._fstat_r,"ax",%progbits
 153      AFF30080 
 154              		.align	2
 155              		.p2align 4,,15
 156              		.global	_fstat_r
 157              		.thumb
 158              		.thumb_func
 159              		.type	_fstat_r, %function
 160              	_fstat_r:
 161              	.LFB246:
 162              		.loc 1 153 0
 163              		.cfi_startproc
ARM GAS  /tmp/cc0zjQRA.s 			page 4


 164              		@ args = 0, pretend = 0, frame = 0
 165              		@ frame_needed = 0, uses_anonymous_args = 0
 166              	.LVL14:
 167 0000 10B5     		push	{r4, lr}
 168              		.cfi_def_cfa_offset 8
 169              		.cfi_offset 4, -8
 170              		.cfi_offset 14, -4
 171              		.loc 1 157 0
 172 0002 1046     		mov	r0, r2
 173              	.LVL15:
 174              		.loc 1 153 0
 175 0004 1446     		mov	r4, r2
 176              		.loc 1 157 0
 177 0006 0021     		movs	r1, #0
 178              	.LVL16:
 179 0008 3C22     		movs	r2, #60
 180              	.LVL17:
 181 000a FFF7FEFF 		bl	memset
 182              	.LVL18:
 183              		.loc 1 158 0
 184 000e 4FF40053 		mov	r3, #8192
 185 0012 6360     		str	r3, [r4, #4]
 186              		.loc 1 160 0
 187 0014 0020     		movs	r0, #0
 188 0016 10BD     		pop	{r4, pc}
 189              		.cfi_endproc
 190              	.LFE246:
 191              		.size	_fstat_r, .-_fstat_r
 192 0018 AFF30080 		.section	.text._isatty_r,"ax",%progbits
 192      AFF30080 
 193              		.align	2
 194              		.p2align 4,,15
 195              		.global	_isatty_r
 196              		.thumb
 197              		.thumb_func
 198              		.type	_isatty_r, %function
 199              	_isatty_r:
 200              	.LFB247:
 201              		.loc 1 165 0
 202              		.cfi_startproc
 203              		@ args = 0, pretend = 0, frame = 0
 204              		@ frame_needed = 0, uses_anonymous_args = 0
 205              		@ link register save eliminated.
 206              	.LVL19:
 207              		.loc 1 170 0
 208 0000 0120     		movs	r0, #1
 209              	.LVL20:
 210 0002 7047     		bx	lr
 211              		.cfi_endproc
 212              	.LFE247:
 213              		.size	_isatty_r, .-_isatty_r
 214 0004 AFF30080 		.text
 214      AFF30080 
 214      AFF30080 
 215              	.Letext0:
 216              		.file 2 "/nfs/nfs5/home/research/hardware/arm2/gcc-arm-embedded/gcc-arm-none-eabi-4_8-2014q2/lib/g
 217              		.file 3 "/nfs/nfs5/home/research/hardware/arm2/gcc-arm-embedded/gcc-arm-none-eabi-4_8-2014q2/arm-n
ARM GAS  /tmp/cc0zjQRA.s 			page 5


 218              		.file 4 "/nfs/nfs5/home/research/hardware/arm2/gcc-arm-embedded/gcc-arm-none-eabi-4_8-2014q2/arm-n
 219              		.file 5 "/nfs/nfs5/home/research/hardware/arm2/gcc-arm-embedded/gcc-arm-none-eabi-4_8-2014q2/arm-n
 220              		.file 6 "/nfs/nfs5/home/research/hardware/arm2/gcc-arm-embedded/gcc-arm-none-eabi-4_8-2014q2/arm-n
 221              		.file 7 "/nfs/nfs5/home/research/hardware/arm2/gcc-arm-embedded/gcc-arm-none-eabi-4_8-2014q2/arm-n
 222              		.file 8 "/nfs/nfs5/home/research/hardware/arm2/gcc-arm-embedded/gcc-arm-none-eabi-4_8-2014q2/arm-n
 223              		.file 9 "/nfs/nfs5/home/research/hardware/arm2/gcc-arm-embedded/gcc-arm-none-eabi-4_8-2014q2/arm-n
 224              		.file 10 "../ChibiOS/os/rt/ports/ARMCMx/compilers/GCC/chtypes.h"
 225              		.file 11 "../ChibiOS/os/rt/include/chsystypes.h"
 226              		.file 12 "../ChibiOS/os/rt/include/chschd.h"
 227              		.file 13 "../ChibiOS/os/rt/ports/ARMCMx/chcore.h"
 228              		.file 14 "../ChibiOS/os/rt/ports/ARMCMx/chcore_v7m.h"
 229              		.file 15 "../ChibiOS/os/rt/include/chtm.h"
 230              		.file 16 "../ChibiOS/os/rt/include/chsem.h"
 231              		.file 17 "../ChibiOS/os/rt/include/chmtx.h"
 232              		.file 18 "../ChibiOS/os/ext/CMSIS/include/core_cm4.h"
 233              		.file 19 "../ChibiOS/os/rt/include/chmemcore.h"
 234              		.section	.debug_info,"",%progbits
 235              	.Ldebug_info0:
 236 0000 C9110000 		.4byte	0x11c9
 237 0004 0400     		.2byte	0x4
 238 0006 00000000 		.4byte	.Ldebug_abbrev0
 239 000a 04       		.byte	0x4
 240 000b 01       		.uleb128 0x1
 241 000c 18050000 		.4byte	.LASF248
 242 0010 01       		.byte	0x1
 243 0011 66030000 		.4byte	.LASF249
 244 0015 00040000 		.4byte	.LASF250
 245 0019 00000000 		.4byte	.Ldebug_ranges0+0
 246 001d 00000000 		.4byte	0
 247 0021 00000000 		.4byte	.Ldebug_line0
 248 0025 02       		.uleb128 0x2
 249 0026 00000000 		.4byte	.LASF2
 250 002a 02       		.byte	0x2
 251 002b D4       		.byte	0xd4
 252 002c 30000000 		.4byte	0x30
 253 0030 03       		.uleb128 0x3
 254 0031 04       		.byte	0x4
 255 0032 07       		.byte	0x7
 256 0033 44060000 		.4byte	.LASF0
 257 0037 04       		.uleb128 0x4
 258 0038 04       		.byte	0x4
 259 0039 05       		.byte	0x5
 260 003a 696E7400 		.ascii	"int\000"
 261 003e 03       		.uleb128 0x3
 262 003f 01       		.byte	0x1
 263 0040 06       		.byte	0x6
 264 0041 F5010000 		.4byte	.LASF1
 265 0045 02       		.uleb128 0x2
 266 0046 29010000 		.4byte	.LASF3
 267 004a 03       		.byte	0x3
 268 004b 1C       		.byte	0x1c
 269 004c 50000000 		.4byte	0x50
 270 0050 03       		.uleb128 0x3
 271 0051 01       		.byte	0x1
 272 0052 08       		.byte	0x8
 273 0053 4F020000 		.4byte	.LASF4
 274 0057 03       		.uleb128 0x3
ARM GAS  /tmp/cc0zjQRA.s 			page 6


 275 0058 02       		.byte	0x2
 276 0059 05       		.byte	0x5
 277 005a C2080000 		.4byte	.LASF5
 278 005e 03       		.uleb128 0x3
 279 005f 02       		.byte	0x2
 280 0060 07       		.byte	0x7
 281 0061 AA090000 		.4byte	.LASF6
 282 0065 02       		.uleb128 0x2
 283 0066 E4090000 		.4byte	.LASF7
 284 006a 03       		.byte	0x3
 285 006b 37       		.byte	0x37
 286 006c 70000000 		.4byte	0x70
 287 0070 03       		.uleb128 0x3
 288 0071 04       		.byte	0x4
 289 0072 05       		.byte	0x5
 290 0073 6B010000 		.4byte	.LASF8
 291 0077 02       		.uleb128 0x2
 292 0078 B5040000 		.4byte	.LASF9
 293 007c 03       		.byte	0x3
 294 007d 38       		.byte	0x38
 295 007e 82000000 		.4byte	0x82
 296 0082 03       		.uleb128 0x3
 297 0083 04       		.byte	0x4
 298 0084 07       		.byte	0x7
 299 0085 8C030000 		.4byte	.LASF10
 300 0089 03       		.uleb128 0x3
 301 008a 08       		.byte	0x8
 302 008b 05       		.byte	0x5
 303 008c CB040000 		.4byte	.LASF11
 304 0090 02       		.uleb128 0x2
 305 0091 55030000 		.4byte	.LASF12
 306 0095 03       		.byte	0x3
 307 0096 4E       		.byte	0x4e
 308 0097 9B000000 		.4byte	0x9b
 309 009b 03       		.uleb128 0x3
 310 009c 08       		.byte	0x8
 311 009d 07       		.byte	0x7
 312 009e B1070000 		.4byte	.LASF13
 313 00a2 02       		.uleb128 0x2
 314 00a3 EE030000 		.4byte	.LASF14
 315 00a7 04       		.byte	0x4
 316 00a8 07       		.byte	0x7
 317 00a9 37000000 		.4byte	0x37
 318 00ad 02       		.uleb128 0x2
 319 00ae 8B090000 		.4byte	.LASF15
 320 00b2 05       		.byte	0x5
 321 00b3 10       		.byte	0x10
 322 00b4 70000000 		.4byte	0x70
 323 00b8 02       		.uleb128 0x2
 324 00b9 33010000 		.4byte	.LASF16
 325 00bd 05       		.byte	0x5
 326 00be 14       		.byte	0x14
 327 00bf 57000000 		.4byte	0x57
 328 00c3 02       		.uleb128 0x2
 329 00c4 4A090000 		.4byte	.LASF17
 330 00c8 05       		.byte	0x5
 331 00c9 18       		.byte	0x18
ARM GAS  /tmp/cc0zjQRA.s 			page 7


 332 00ca 5E000000 		.4byte	0x5e
 333 00ce 02       		.uleb128 0x2
 334 00cf B1000000 		.4byte	.LASF18
 335 00d3 05       		.byte	0x5
 336 00d4 1B       		.byte	0x1b
 337 00d5 5E000000 		.4byte	0x5e
 338 00d9 02       		.uleb128 0x2
 339 00da 7D070000 		.4byte	.LASF19
 340 00de 05       		.byte	0x5
 341 00df 27       		.byte	0x27
 342 00e0 70000000 		.4byte	0x70
 343 00e4 05       		.uleb128 0x5
 344 00e5 6A080000 		.4byte	.LASF20
 345 00e9 02       		.byte	0x2
 346 00ea 6101     		.2byte	0x161
 347 00ec 30000000 		.4byte	0x30
 348 00f0 06       		.uleb128 0x6
 349 00f1 04       		.byte	0x4
 350 00f2 05       		.byte	0x5
 351 00f3 4A       		.byte	0x4a
 352 00f4 0F010000 		.4byte	0x10f
 353 00f8 07       		.uleb128 0x7
 354 00f9 1A010000 		.4byte	.LASF21
 355 00fd 05       		.byte	0x5
 356 00fe 4C       		.byte	0x4c
 357 00ff E4000000 		.4byte	0xe4
 358 0103 07       		.uleb128 0x7
 359 0104 85070000 		.4byte	.LASF22
 360 0108 05       		.byte	0x5
 361 0109 4D       		.byte	0x4d
 362 010a 0F010000 		.4byte	0x10f
 363 010e 00       		.byte	0
 364 010f 08       		.uleb128 0x8
 365 0110 50000000 		.4byte	0x50
 366 0114 1F010000 		.4byte	0x11f
 367 0118 09       		.uleb128 0x9
 368 0119 1F010000 		.4byte	0x11f
 369 011d 03       		.byte	0x3
 370 011e 00       		.byte	0
 371 011f 03       		.uleb128 0x3
 372 0120 04       		.byte	0x4
 373 0121 07       		.byte	0x7
 374 0122 07000000 		.4byte	.LASF23
 375 0126 0A       		.uleb128 0xa
 376 0127 08       		.byte	0x8
 377 0128 05       		.byte	0x5
 378 0129 47       		.byte	0x47
 379 012a 47010000 		.4byte	0x147
 380 012e 0B       		.uleb128 0xb
 381 012f FE060000 		.4byte	.LASF24
 382 0133 05       		.byte	0x5
 383 0134 49       		.byte	0x49
 384 0135 37000000 		.4byte	0x37
 385 0139 00       		.byte	0
 386 013a 0B       		.uleb128 0xb
 387 013b 10000000 		.4byte	.LASF25
 388 013f 05       		.byte	0x5
ARM GAS  /tmp/cc0zjQRA.s 			page 8


 389 0140 4E       		.byte	0x4e
 390 0141 F0000000 		.4byte	0xf0
 391 0145 04       		.byte	0x4
 392 0146 00       		.byte	0
 393 0147 02       		.uleb128 0x2
 394 0148 52080000 		.4byte	.LASF26
 395 014c 05       		.byte	0x5
 396 014d 4F       		.byte	0x4f
 397 014e 26010000 		.4byte	0x126
 398 0152 02       		.uleb128 0x2
 399 0153 42080000 		.4byte	.LASF27
 400 0157 05       		.byte	0x5
 401 0158 53       		.byte	0x53
 402 0159 A2000000 		.4byte	0xa2
 403 015d 0C       		.uleb128 0xc
 404 015e 04       		.byte	0x4
 405 015f 02       		.uleb128 0x2
 406 0160 72090000 		.4byte	.LASF28
 407 0164 06       		.byte	0x6
 408 0165 16       		.byte	0x16
 409 0166 82000000 		.4byte	0x82
 410 016a 0D       		.uleb128 0xd
 411 016b 72040000 		.4byte	.LASF33
 412 016f 18       		.byte	0x18
 413 0170 06       		.byte	0x6
 414 0171 2D       		.byte	0x2d
 415 0172 BD010000 		.4byte	0x1bd
 416 0176 0B       		.uleb128 0xb
 417 0177 71080000 		.4byte	.LASF29
 418 017b 06       		.byte	0x6
 419 017c 2F       		.byte	0x2f
 420 017d BD010000 		.4byte	0x1bd
 421 0181 00       		.byte	0
 422 0182 0E       		.uleb128 0xe
 423 0183 5F6B00   		.ascii	"_k\000"
 424 0186 06       		.byte	0x6
 425 0187 30       		.byte	0x30
 426 0188 37000000 		.4byte	0x37
 427 018c 04       		.byte	0x4
 428 018d 0B       		.uleb128 0xb
 429 018e 8A040000 		.4byte	.LASF30
 430 0192 06       		.byte	0x6
 431 0193 30       		.byte	0x30
 432 0194 37000000 		.4byte	0x37
 433 0198 08       		.byte	0x8
 434 0199 0B       		.uleb128 0xb
 435 019a 25060000 		.4byte	.LASF31
 436 019e 06       		.byte	0x6
 437 019f 30       		.byte	0x30
 438 01a0 37000000 		.4byte	0x37
 439 01a4 0C       		.byte	0xc
 440 01a5 0B       		.uleb128 0xb
 441 01a6 21030000 		.4byte	.LASF32
 442 01aa 06       		.byte	0x6
 443 01ab 30       		.byte	0x30
 444 01ac 37000000 		.4byte	0x37
 445 01b0 10       		.byte	0x10
ARM GAS  /tmp/cc0zjQRA.s 			page 9


 446 01b1 0E       		.uleb128 0xe
 447 01b2 5F7800   		.ascii	"_x\000"
 448 01b5 06       		.byte	0x6
 449 01b6 31       		.byte	0x31
 450 01b7 C3010000 		.4byte	0x1c3
 451 01bb 14       		.byte	0x14
 452 01bc 00       		.byte	0
 453 01bd 0F       		.uleb128 0xf
 454 01be 04       		.byte	0x4
 455 01bf 6A010000 		.4byte	0x16a
 456 01c3 08       		.uleb128 0x8
 457 01c4 5F010000 		.4byte	0x15f
 458 01c8 D3010000 		.4byte	0x1d3
 459 01cc 09       		.uleb128 0x9
 460 01cd 1F010000 		.4byte	0x11f
 461 01d1 00       		.byte	0
 462 01d2 00       		.byte	0
 463 01d3 0D       		.uleb128 0xd
 464 01d4 C1000000 		.4byte	.LASF34
 465 01d8 24       		.byte	0x24
 466 01d9 06       		.byte	0x6
 467 01da 35       		.byte	0x35
 468 01db 4C020000 		.4byte	0x24c
 469 01df 0B       		.uleb128 0xb
 470 01e0 DD000000 		.4byte	.LASF35
 471 01e4 06       		.byte	0x6
 472 01e5 37       		.byte	0x37
 473 01e6 37000000 		.4byte	0x37
 474 01ea 00       		.byte	0
 475 01eb 0B       		.uleb128 0xb
 476 01ec 2E0A0000 		.4byte	.LASF36
 477 01f0 06       		.byte	0x6
 478 01f1 38       		.byte	0x38
 479 01f2 37000000 		.4byte	0x37
 480 01f6 04       		.byte	0x4
 481 01f7 0B       		.uleb128 0xb
 482 01f8 BD090000 		.4byte	.LASF37
 483 01fc 06       		.byte	0x6
 484 01fd 39       		.byte	0x39
 485 01fe 37000000 		.4byte	0x37
 486 0202 08       		.byte	0x8
 487 0203 0B       		.uleb128 0xb
 488 0204 96060000 		.4byte	.LASF38
 489 0208 06       		.byte	0x6
 490 0209 3A       		.byte	0x3a
 491 020a 37000000 		.4byte	0x37
 492 020e 0C       		.byte	0xc
 493 020f 0B       		.uleb128 0xb
 494 0210 CD010000 		.4byte	.LASF39
 495 0214 06       		.byte	0x6
 496 0215 3B       		.byte	0x3b
 497 0216 37000000 		.4byte	0x37
 498 021a 10       		.byte	0x10
 499 021b 0B       		.uleb128 0xb
 500 021c FE080000 		.4byte	.LASF40
 501 0220 06       		.byte	0x6
 502 0221 3C       		.byte	0x3c
ARM GAS  /tmp/cc0zjQRA.s 			page 10


 503 0222 37000000 		.4byte	0x37
 504 0226 14       		.byte	0x14
 505 0227 0B       		.uleb128 0xb
 506 0228 1C070000 		.4byte	.LASF41
 507 022c 06       		.byte	0x6
 508 022d 3D       		.byte	0x3d
 509 022e 37000000 		.4byte	0x37
 510 0232 18       		.byte	0x18
 511 0233 0B       		.uleb128 0xb
 512 0234 38070000 		.4byte	.LASF42
 513 0238 06       		.byte	0x6
 514 0239 3E       		.byte	0x3e
 515 023a 37000000 		.4byte	0x37
 516 023e 1C       		.byte	0x1c
 517 023f 0B       		.uleb128 0xb
 518 0240 0F0A0000 		.4byte	.LASF43
 519 0244 06       		.byte	0x6
 520 0245 3F       		.byte	0x3f
 521 0246 37000000 		.4byte	0x37
 522 024a 20       		.byte	0x20
 523 024b 00       		.byte	0
 524 024c 10       		.uleb128 0x10
 525 024d 47010000 		.4byte	.LASF44
 526 0251 0801     		.2byte	0x108
 527 0253 06       		.byte	0x6
 528 0254 48       		.byte	0x48
 529 0255 8C020000 		.4byte	0x28c
 530 0259 0B       		.uleb128 0xb
 531 025a 070A0000 		.4byte	.LASF45
 532 025e 06       		.byte	0x6
 533 025f 49       		.byte	0x49
 534 0260 8C020000 		.4byte	0x28c
 535 0264 00       		.byte	0
 536 0265 0B       		.uleb128 0xb
 537 0266 D0070000 		.4byte	.LASF46
 538 026a 06       		.byte	0x6
 539 026b 4A       		.byte	0x4a
 540 026c 8C020000 		.4byte	0x28c
 541 0270 80       		.byte	0x80
 542 0271 11       		.uleb128 0x11
 543 0272 DE080000 		.4byte	.LASF47
 544 0276 06       		.byte	0x6
 545 0277 4C       		.byte	0x4c
 546 0278 5F010000 		.4byte	0x15f
 547 027c 0001     		.2byte	0x100
 548 027e 11       		.uleb128 0x11
 549 027f 32090000 		.4byte	.LASF48
 550 0283 06       		.byte	0x6
 551 0284 4F       		.byte	0x4f
 552 0285 5F010000 		.4byte	0x15f
 553 0289 0401     		.2byte	0x104
 554 028b 00       		.byte	0
 555 028c 08       		.uleb128 0x8
 556 028d 5D010000 		.4byte	0x15d
 557 0291 9C020000 		.4byte	0x29c
 558 0295 09       		.uleb128 0x9
 559 0296 1F010000 		.4byte	0x11f
ARM GAS  /tmp/cc0zjQRA.s 			page 11


 560 029a 1F       		.byte	0x1f
 561 029b 00       		.byte	0
 562 029c 10       		.uleb128 0x10
 563 029d F6060000 		.4byte	.LASF49
 564 02a1 9001     		.2byte	0x190
 565 02a3 06       		.byte	0x6
 566 02a4 5B       		.byte	0x5b
 567 02a5 DA020000 		.4byte	0x2da
 568 02a9 0B       		.uleb128 0xb
 569 02aa 71080000 		.4byte	.LASF29
 570 02ae 06       		.byte	0x6
 571 02af 5C       		.byte	0x5c
 572 02b0 DA020000 		.4byte	0x2da
 573 02b4 00       		.byte	0
 574 02b5 0B       		.uleb128 0xb
 575 02b6 1D090000 		.4byte	.LASF50
 576 02ba 06       		.byte	0x6
 577 02bb 5D       		.byte	0x5d
 578 02bc 37000000 		.4byte	0x37
 579 02c0 04       		.byte	0x4
 580 02c1 0B       		.uleb128 0xb
 581 02c2 A1020000 		.4byte	.LASF51
 582 02c6 06       		.byte	0x6
 583 02c7 5F       		.byte	0x5f
 584 02c8 E0020000 		.4byte	0x2e0
 585 02cc 08       		.byte	0x8
 586 02cd 0B       		.uleb128 0xb
 587 02ce 47010000 		.4byte	.LASF44
 588 02d2 06       		.byte	0x6
 589 02d3 60       		.byte	0x60
 590 02d4 4C020000 		.4byte	0x24c
 591 02d8 88       		.byte	0x88
 592 02d9 00       		.byte	0
 593 02da 0F       		.uleb128 0xf
 594 02db 04       		.byte	0x4
 595 02dc 9C020000 		.4byte	0x29c
 596 02e0 08       		.uleb128 0x8
 597 02e1 F0020000 		.4byte	0x2f0
 598 02e5 F0020000 		.4byte	0x2f0
 599 02e9 09       		.uleb128 0x9
 600 02ea 1F010000 		.4byte	0x11f
 601 02ee 1F       		.byte	0x1f
 602 02ef 00       		.byte	0
 603 02f0 0F       		.uleb128 0xf
 604 02f1 04       		.byte	0x4
 605 02f2 F6020000 		.4byte	0x2f6
 606 02f6 12       		.uleb128 0x12
 607 02f7 0D       		.uleb128 0xd
 608 02f8 22090000 		.4byte	.LASF52
 609 02fc 08       		.byte	0x8
 610 02fd 06       		.byte	0x6
 611 02fe 73       		.byte	0x73
 612 02ff 1C030000 		.4byte	0x31c
 613 0303 0B       		.uleb128 0xb
 614 0304 0C080000 		.4byte	.LASF53
 615 0308 06       		.byte	0x6
 616 0309 74       		.byte	0x74
ARM GAS  /tmp/cc0zjQRA.s 			page 12


 617 030a 1C030000 		.4byte	0x31c
 618 030e 00       		.byte	0
 619 030f 0B       		.uleb128 0xb
 620 0310 85010000 		.4byte	.LASF54
 621 0314 06       		.byte	0x6
 622 0315 75       		.byte	0x75
 623 0316 37000000 		.4byte	0x37
 624 031a 04       		.byte	0x4
 625 031b 00       		.byte	0
 626 031c 0F       		.uleb128 0xf
 627 031d 04       		.byte	0x4
 628 031e 50000000 		.4byte	0x50
 629 0322 0D       		.uleb128 0xd
 630 0323 9E030000 		.4byte	.LASF55
 631 0327 68       		.byte	0x68
 632 0328 06       		.byte	0x6
 633 0329 B3       		.byte	0xb3
 634 032a 4C040000 		.4byte	0x44c
 635 032e 0E       		.uleb128 0xe
 636 032f 5F7000   		.ascii	"_p\000"
 637 0332 06       		.byte	0x6
 638 0333 B4       		.byte	0xb4
 639 0334 1C030000 		.4byte	0x31c
 640 0338 00       		.byte	0
 641 0339 0E       		.uleb128 0xe
 642 033a 5F7200   		.ascii	"_r\000"
 643 033d 06       		.byte	0x6
 644 033e B5       		.byte	0xb5
 645 033f 37000000 		.4byte	0x37
 646 0343 04       		.byte	0x4
 647 0344 0E       		.uleb128 0xe
 648 0345 5F7700   		.ascii	"_w\000"
 649 0348 06       		.byte	0x6
 650 0349 B6       		.byte	0xb6
 651 034a 37000000 		.4byte	0x37
 652 034e 08       		.byte	0x8
 653 034f 0B       		.uleb128 0xb
 654 0350 D5060000 		.4byte	.LASF56
 655 0354 06       		.byte	0x6
 656 0355 B7       		.byte	0xb7
 657 0356 57000000 		.4byte	0x57
 658 035a 0C       		.byte	0xc
 659 035b 0B       		.uleb128 0xb
 660 035c 41010000 		.4byte	.LASF57
 661 0360 06       		.byte	0x6
 662 0361 B8       		.byte	0xb8
 663 0362 57000000 		.4byte	0x57
 664 0366 0E       		.byte	0xe
 665 0367 0E       		.uleb128 0xe
 666 0368 5F626600 		.ascii	"_bf\000"
 667 036c 06       		.byte	0x6
 668 036d B9       		.byte	0xb9
 669 036e F7020000 		.4byte	0x2f7
 670 0372 10       		.byte	0x10
 671 0373 0B       		.uleb128 0xb
 672 0374 08090000 		.4byte	.LASF58
 673 0378 06       		.byte	0x6
ARM GAS  /tmp/cc0zjQRA.s 			page 13


 674 0379 BA       		.byte	0xba
 675 037a 37000000 		.4byte	0x37
 676 037e 18       		.byte	0x18
 677 037f 0B       		.uleb128 0xb
 678 0380 FB020000 		.4byte	.LASF59
 679 0384 06       		.byte	0x6
 680 0385 C1       		.byte	0xc1
 681 0386 5D010000 		.4byte	0x15d
 682 038a 1C       		.byte	0x1c
 683 038b 0B       		.uleb128 0xb
 684 038c 2D000000 		.4byte	.LASF60
 685 0390 06       		.byte	0x6
 686 0391 C3       		.byte	0xc3
 687 0392 AF050000 		.4byte	0x5af
 688 0396 20       		.byte	0x20
 689 0397 0B       		.uleb128 0xb
 690 0398 50000000 		.4byte	.LASF61
 691 039c 06       		.byte	0x6
 692 039d C5       		.byte	0xc5
 693 039e DE050000 		.4byte	0x5de
 694 03a2 24       		.byte	0x24
 695 03a3 0B       		.uleb128 0xb
 696 03a4 67070000 		.4byte	.LASF62
 697 03a8 06       		.byte	0x6
 698 03a9 C8       		.byte	0xc8
 699 03aa 02060000 		.4byte	0x602
 700 03ae 28       		.byte	0x28
 701 03af 0B       		.uleb128 0xb
 702 03b0 A6020000 		.4byte	.LASF63
 703 03b4 06       		.byte	0x6
 704 03b5 C9       		.byte	0xc9
 705 03b6 1C060000 		.4byte	0x61c
 706 03ba 2C       		.byte	0x2c
 707 03bb 0E       		.uleb128 0xe
 708 03bc 5F756200 		.ascii	"_ub\000"
 709 03c0 06       		.byte	0x6
 710 03c1 CC       		.byte	0xcc
 711 03c2 F7020000 		.4byte	0x2f7
 712 03c6 30       		.byte	0x30
 713 03c7 0E       		.uleb128 0xe
 714 03c8 5F757000 		.ascii	"_up\000"
 715 03cc 06       		.byte	0x6
 716 03cd CD       		.byte	0xcd
 717 03ce 1C030000 		.4byte	0x31c
 718 03d2 38       		.byte	0x38
 719 03d3 0E       		.uleb128 0xe
 720 03d4 5F757200 		.ascii	"_ur\000"
 721 03d8 06       		.byte	0x6
 722 03d9 CE       		.byte	0xce
 723 03da 37000000 		.4byte	0x37
 724 03de 3C       		.byte	0x3c
 725 03df 0B       		.uleb128 0xb
 726 03e0 A5060000 		.4byte	.LASF64
 727 03e4 06       		.byte	0x6
 728 03e5 D1       		.byte	0xd1
 729 03e6 22060000 		.4byte	0x622
 730 03ea 40       		.byte	0x40
ARM GAS  /tmp/cc0zjQRA.s 			page 14


 731 03eb 0B       		.uleb128 0xb
 732 03ec D7000000 		.4byte	.LASF65
 733 03f0 06       		.byte	0x6
 734 03f1 D2       		.byte	0xd2
 735 03f2 32060000 		.4byte	0x632
 736 03f6 43       		.byte	0x43
 737 03f7 0E       		.uleb128 0xe
 738 03f8 5F6C6200 		.ascii	"_lb\000"
 739 03fc 06       		.byte	0x6
 740 03fd D5       		.byte	0xd5
 741 03fe F7020000 		.4byte	0x2f7
 742 0402 44       		.byte	0x44
 743 0403 0B       		.uleb128 0xb
 744 0404 03080000 		.4byte	.LASF66
 745 0408 06       		.byte	0x6
 746 0409 D8       		.byte	0xd8
 747 040a 37000000 		.4byte	0x37
 748 040e 4C       		.byte	0x4c
 749 040f 0B       		.uleb128 0xb
 750 0410 3E030000 		.4byte	.LASF67
 751 0414 06       		.byte	0x6
 752 0415 D9       		.byte	0xd9
 753 0416 AD000000 		.4byte	0xad
 754 041a 50       		.byte	0x50
 755 041b 0B       		.uleb128 0xb
 756 041c 77080000 		.4byte	.LASF68
 757 0420 06       		.byte	0x6
 758 0421 DC       		.byte	0xdc
 759 0422 6A040000 		.4byte	0x46a
 760 0426 54       		.byte	0x54
 761 0427 0B       		.uleb128 0xb
 762 0428 F7000000 		.4byte	.LASF69
 763 042c 06       		.byte	0x6
 764 042d E0       		.byte	0xe0
 765 042e 52010000 		.4byte	0x152
 766 0432 58       		.byte	0x58
 767 0433 0B       		.uleb128 0xb
 768 0434 C1060000 		.4byte	.LASF70
 769 0438 06       		.byte	0x6
 770 0439 E2       		.byte	0xe2
 771 043a 47010000 		.4byte	0x147
 772 043e 5C       		.byte	0x5c
 773 043f 0B       		.uleb128 0xb
 774 0440 B1030000 		.4byte	.LASF71
 775 0444 06       		.byte	0x6
 776 0445 E3       		.byte	0xe3
 777 0446 37000000 		.4byte	0x37
 778 044a 64       		.byte	0x64
 779 044b 00       		.byte	0
 780 044c 13       		.uleb128 0x13
 781 044d 37000000 		.4byte	0x37
 782 0451 6A040000 		.4byte	0x46a
 783 0455 14       		.uleb128 0x14
 784 0456 6A040000 		.4byte	0x46a
 785 045a 14       		.uleb128 0x14
 786 045b 5D010000 		.4byte	0x15d
 787 045f 14       		.uleb128 0x14
ARM GAS  /tmp/cc0zjQRA.s 			page 15


 788 0460 A2050000 		.4byte	0x5a2
 789 0464 14       		.uleb128 0x14
 790 0465 37000000 		.4byte	0x37
 791 0469 00       		.byte	0
 792 046a 0F       		.uleb128 0xf
 793 046b 04       		.byte	0x4
 794 046c 70040000 		.4byte	0x470
 795 0470 15       		.uleb128 0x15
 796 0471 77020000 		.4byte	.LASF72
 797 0475 2804     		.2byte	0x428
 798 0477 06       		.byte	0x6
 799 0478 3902     		.2byte	0x239
 800 047a A2050000 		.4byte	0x5a2
 801 047e 16       		.uleb128 0x16
 802 047f 2F040000 		.4byte	.LASF73
 803 0483 06       		.byte	0x6
 804 0484 3B02     		.2byte	0x23b
 805 0486 37000000 		.4byte	0x37
 806 048a 00       		.byte	0
 807 048b 16       		.uleb128 0x16
 808 048c BB020000 		.4byte	.LASF74
 809 0490 06       		.byte	0x6
 810 0491 4002     		.2byte	0x240
 811 0493 89060000 		.4byte	0x689
 812 0497 04       		.byte	0x4
 813 0498 16       		.uleb128 0x16
 814 0499 FB070000 		.4byte	.LASF75
 815 049d 06       		.byte	0x6
 816 049e 4002     		.2byte	0x240
 817 04a0 89060000 		.4byte	0x689
 818 04a4 08       		.byte	0x8
 819 04a5 16       		.uleb128 0x16
 820 04a6 AB060000 		.4byte	.LASF76
 821 04aa 06       		.byte	0x6
 822 04ab 4002     		.2byte	0x240
 823 04ad 89060000 		.4byte	0x689
 824 04b1 0C       		.byte	0xc
 825 04b2 16       		.uleb128 0x16
 826 04b3 18090000 		.4byte	.LASF77
 827 04b7 06       		.byte	0x6
 828 04b8 4202     		.2byte	0x242
 829 04ba 37000000 		.4byte	0x37
 830 04be 10       		.byte	0x10
 831 04bf 16       		.uleb128 0x16
 832 04c0 C0040000 		.4byte	.LASF78
 833 04c4 06       		.byte	0x6
 834 04c5 4302     		.2byte	0x243
 835 04c7 6B080000 		.4byte	0x86b
 836 04cb 14       		.byte	0x14
 837 04cc 16       		.uleb128 0x16
 838 04cd D6010000 		.4byte	.LASF79
 839 04d1 06       		.byte	0x6
 840 04d2 4502     		.2byte	0x245
 841 04d4 37000000 		.4byte	0x37
 842 04d8 30       		.byte	0x30
 843 04d9 16       		.uleb128 0x16
 844 04da F2050000 		.4byte	.LASF80
ARM GAS  /tmp/cc0zjQRA.s 			page 16


 845 04de 06       		.byte	0x6
 846 04df 4602     		.2byte	0x246
 847 04e1 D3050000 		.4byte	0x5d3
 848 04e5 34       		.byte	0x34
 849 04e6 16       		.uleb128 0x16
 850 04e7 A6030000 		.4byte	.LASF81
 851 04eb 06       		.byte	0x6
 852 04ec 4802     		.2byte	0x248
 853 04ee 37000000 		.4byte	0x37
 854 04f2 38       		.byte	0x38
 855 04f3 16       		.uleb128 0x16
 856 04f4 92040000 		.4byte	.LASF82
 857 04f8 06       		.byte	0x6
 858 04f9 4A02     		.2byte	0x24a
 859 04fb 86080000 		.4byte	0x886
 860 04ff 3C       		.byte	0x3c
 861 0500 16       		.uleb128 0x16
 862 0501 83090000 		.4byte	.LASF83
 863 0505 06       		.byte	0x6
 864 0506 4D02     		.2byte	0x24d
 865 0508 BD010000 		.4byte	0x1bd
 866 050c 40       		.byte	0x40
 867 050d 16       		.uleb128 0x16
 868 050e 7B010000 		.4byte	.LASF84
 869 0512 06       		.byte	0x6
 870 0513 4E02     		.2byte	0x24e
 871 0515 37000000 		.4byte	0x37
 872 0519 44       		.byte	0x44
 873 051a 16       		.uleb128 0x16
 874 051b 87030000 		.4byte	.LASF85
 875 051f 06       		.byte	0x6
 876 0520 4F02     		.2byte	0x24f
 877 0522 BD010000 		.4byte	0x1bd
 878 0526 48       		.byte	0x48
 879 0527 16       		.uleb128 0x16
 880 0528 02060000 		.4byte	.LASF86
 881 052c 06       		.byte	0x6
 882 052d 5002     		.2byte	0x250
 883 052f 8C080000 		.4byte	0x88c
 884 0533 4C       		.byte	0x4c
 885 0534 16       		.uleb128 0x16
 886 0535 72000000 		.4byte	.LASF87
 887 0539 06       		.byte	0x6
 888 053a 5302     		.2byte	0x253
 889 053c 37000000 		.4byte	0x37
 890 0540 50       		.byte	0x50
 891 0541 16       		.uleb128 0x16
 892 0542 46030000 		.4byte	.LASF88
 893 0546 06       		.byte	0x6
 894 0547 5402     		.2byte	0x254
 895 0549 A2050000 		.4byte	0x5a2
 896 054d 54       		.byte	0x54
 897 054e 16       		.uleb128 0x16
 898 054f A0060000 		.4byte	.LASF89
 899 0553 06       		.byte	0x6
 900 0554 7702     		.2byte	0x277
 901 0556 49080000 		.4byte	0x849
ARM GAS  /tmp/cc0zjQRA.s 			page 17


 902 055a 58       		.byte	0x58
 903 055b 17       		.uleb128 0x17
 904 055c F6060000 		.4byte	.LASF49
 905 0560 06       		.byte	0x6
 906 0561 7B02     		.2byte	0x27b
 907 0563 DA020000 		.4byte	0x2da
 908 0567 4801     		.2byte	0x148
 909 0569 17       		.uleb128 0x17
 910 056a 9C040000 		.4byte	.LASF90
 911 056e 06       		.byte	0x6
 912 056f 7C02     		.2byte	0x27c
 913 0571 9C020000 		.4byte	0x29c
 914 0575 4C01     		.2byte	0x14c
 915 0577 17       		.uleb128 0x17
 916 0578 34030000 		.4byte	.LASF91
 917 057c 06       		.byte	0x6
 918 057d 8002     		.2byte	0x280
 919 057f 9D080000 		.4byte	0x89d
 920 0583 DC02     		.2byte	0x2dc
 921 0585 17       		.uleb128 0x17
 922 0586 F0040000 		.4byte	.LASF92
 923 058a 06       		.byte	0x6
 924 058b 8502     		.2byte	0x285
 925 058d 4E060000 		.4byte	0x64e
 926 0591 E002     		.2byte	0x2e0
 927 0593 17       		.uleb128 0x17
 928 0594 22000000 		.4byte	.LASF93
 929 0598 06       		.byte	0x6
 930 0599 8602     		.2byte	0x286
 931 059b A9080000 		.4byte	0x8a9
 932 059f EC02     		.2byte	0x2ec
 933 05a1 00       		.byte	0
 934 05a2 0F       		.uleb128 0xf
 935 05a3 04       		.byte	0x4
 936 05a4 A8050000 		.4byte	0x5a8
 937 05a8 03       		.uleb128 0x3
 938 05a9 01       		.byte	0x1
 939 05aa 08       		.byte	0x8
 940 05ab 95020000 		.4byte	.LASF94
 941 05af 0F       		.uleb128 0xf
 942 05b0 04       		.byte	0x4
 943 05b1 4C040000 		.4byte	0x44c
 944 05b5 13       		.uleb128 0x13
 945 05b6 37000000 		.4byte	0x37
 946 05ba D3050000 		.4byte	0x5d3
 947 05be 14       		.uleb128 0x14
 948 05bf 6A040000 		.4byte	0x46a
 949 05c3 14       		.uleb128 0x14
 950 05c4 5D010000 		.4byte	0x15d
 951 05c8 14       		.uleb128 0x14
 952 05c9 D3050000 		.4byte	0x5d3
 953 05cd 14       		.uleb128 0x14
 954 05ce 37000000 		.4byte	0x37
 955 05d2 00       		.byte	0
 956 05d3 0F       		.uleb128 0xf
 957 05d4 04       		.byte	0x4
 958 05d5 D9050000 		.4byte	0x5d9
ARM GAS  /tmp/cc0zjQRA.s 			page 18


 959 05d9 18       		.uleb128 0x18
 960 05da A8050000 		.4byte	0x5a8
 961 05de 0F       		.uleb128 0xf
 962 05df 04       		.byte	0x4
 963 05e0 B5050000 		.4byte	0x5b5
 964 05e4 13       		.uleb128 0x13
 965 05e5 D9000000 		.4byte	0xd9
 966 05e9 02060000 		.4byte	0x602
 967 05ed 14       		.uleb128 0x14
 968 05ee 6A040000 		.4byte	0x46a
 969 05f2 14       		.uleb128 0x14
 970 05f3 5D010000 		.4byte	0x15d
 971 05f7 14       		.uleb128 0x14
 972 05f8 D9000000 		.4byte	0xd9
 973 05fc 14       		.uleb128 0x14
 974 05fd 37000000 		.4byte	0x37
 975 0601 00       		.byte	0
 976 0602 0F       		.uleb128 0xf
 977 0603 04       		.byte	0x4
 978 0604 E4050000 		.4byte	0x5e4
 979 0608 13       		.uleb128 0x13
 980 0609 37000000 		.4byte	0x37
 981 060d 1C060000 		.4byte	0x61c
 982 0611 14       		.uleb128 0x14
 983 0612 6A040000 		.4byte	0x46a
 984 0616 14       		.uleb128 0x14
 985 0617 5D010000 		.4byte	0x15d
 986 061b 00       		.byte	0
 987 061c 0F       		.uleb128 0xf
 988 061d 04       		.byte	0x4
 989 061e 08060000 		.4byte	0x608
 990 0622 08       		.uleb128 0x8
 991 0623 50000000 		.4byte	0x50
 992 0627 32060000 		.4byte	0x632
 993 062b 09       		.uleb128 0x9
 994 062c 1F010000 		.4byte	0x11f
 995 0630 02       		.byte	0x2
 996 0631 00       		.byte	0
 997 0632 08       		.uleb128 0x8
 998 0633 50000000 		.4byte	0x50
 999 0637 42060000 		.4byte	0x642
 1000 063b 09       		.uleb128 0x9
 1001 063c 1F010000 		.4byte	0x11f
 1002 0640 00       		.byte	0
 1003 0641 00       		.byte	0
 1004 0642 05       		.uleb128 0x5
 1005 0643 4B080000 		.4byte	.LASF95
 1006 0647 06       		.byte	0x6
 1007 0648 1D01     		.2byte	0x11d
 1008 064a 22030000 		.4byte	0x322
 1009 064e 19       		.uleb128 0x19
 1010 064f 12060000 		.4byte	.LASF96
 1011 0653 0C       		.byte	0xc
 1012 0654 06       		.byte	0x6
 1013 0655 2101     		.2byte	0x121
 1014 0657 83060000 		.4byte	0x683
 1015 065b 16       		.uleb128 0x16
ARM GAS  /tmp/cc0zjQRA.s 			page 19


 1016 065c 71080000 		.4byte	.LASF29
 1017 0660 06       		.byte	0x6
 1018 0661 2301     		.2byte	0x123
 1019 0663 83060000 		.4byte	0x683
 1020 0667 00       		.byte	0
 1021 0668 16       		.uleb128 0x16
 1022 0669 E1040000 		.4byte	.LASF97
 1023 066d 06       		.byte	0x6
 1024 066e 2401     		.2byte	0x124
 1025 0670 37000000 		.4byte	0x37
 1026 0674 04       		.byte	0x4
 1027 0675 16       		.uleb128 0x16
 1028 0676 0C060000 		.4byte	.LASF98
 1029 067a 06       		.byte	0x6
 1030 067b 2501     		.2byte	0x125
 1031 067d 89060000 		.4byte	0x689
 1032 0681 08       		.byte	0x8
 1033 0682 00       		.byte	0
 1034 0683 0F       		.uleb128 0xf
 1035 0684 04       		.byte	0x4
 1036 0685 4E060000 		.4byte	0x64e
 1037 0689 0F       		.uleb128 0xf
 1038 068a 04       		.byte	0x4
 1039 068b 42060000 		.4byte	0x642
 1040 068f 19       		.uleb128 0x19
 1041 0690 F3070000 		.4byte	.LASF99
 1042 0694 0E       		.byte	0xe
 1043 0695 06       		.byte	0x6
 1044 0696 3D01     		.2byte	0x13d
 1045 0698 C4060000 		.4byte	0x6c4
 1046 069c 16       		.uleb128 0x16
 1047 069d 61070000 		.4byte	.LASF100
 1048 06a1 06       		.byte	0x6
 1049 06a2 3E01     		.2byte	0x13e
 1050 06a4 C4060000 		.4byte	0x6c4
 1051 06a8 00       		.byte	0
 1052 06a9 16       		.uleb128 0x16
 1053 06aa FD000000 		.4byte	.LASF101
 1054 06ae 06       		.byte	0x6
 1055 06af 3F01     		.2byte	0x13f
 1056 06b1 C4060000 		.4byte	0x6c4
 1057 06b5 06       		.byte	0x6
 1058 06b6 16       		.uleb128 0x16
 1059 06b7 99090000 		.4byte	.LASF102
 1060 06bb 06       		.byte	0x6
 1061 06bc 4001     		.2byte	0x140
 1062 06be 5E000000 		.4byte	0x5e
 1063 06c2 0C       		.byte	0xc
 1064 06c3 00       		.byte	0
 1065 06c4 08       		.uleb128 0x8
 1066 06c5 5E000000 		.4byte	0x5e
 1067 06c9 D4060000 		.4byte	0x6d4
 1068 06cd 09       		.uleb128 0x9
 1069 06ce 1F010000 		.4byte	0x11f
 1070 06d2 02       		.byte	0x2
 1071 06d3 00       		.byte	0
 1072 06d4 1A       		.uleb128 0x1a
ARM GAS  /tmp/cc0zjQRA.s 			page 20


 1073 06d5 D0       		.byte	0xd0
 1074 06d6 06       		.byte	0x6
 1075 06d7 5802     		.2byte	0x258
 1076 06d9 D5070000 		.4byte	0x7d5
 1077 06dd 16       		.uleb128 0x16
 1078 06de E8010000 		.4byte	.LASF103
 1079 06e2 06       		.byte	0x6
 1080 06e3 5A02     		.2byte	0x25a
 1081 06e5 30000000 		.4byte	0x30
 1082 06e9 00       		.byte	0
 1083 06ea 16       		.uleb128 0x16
 1084 06eb 1B080000 		.4byte	.LASF104
 1085 06ef 06       		.byte	0x6
 1086 06f0 5B02     		.2byte	0x25b
 1087 06f2 A2050000 		.4byte	0x5a2
 1088 06f6 04       		.byte	0x4
 1089 06f7 16       		.uleb128 0x16
 1090 06f8 65000000 		.4byte	.LASF105
 1091 06fc 06       		.byte	0x6
 1092 06fd 5C02     		.2byte	0x25c
 1093 06ff D5070000 		.4byte	0x7d5
 1094 0703 08       		.byte	0x8
 1095 0704 16       		.uleb128 0x16
 1096 0705 92010000 		.4byte	.LASF106
 1097 0709 06       		.byte	0x6
 1098 070a 5D02     		.2byte	0x25d
 1099 070c D3010000 		.4byte	0x1d3
 1100 0710 24       		.byte	0x24
 1101 0711 16       		.uleb128 0x16
 1102 0712 09050000 		.4byte	.LASF107
 1103 0716 06       		.byte	0x6
 1104 0717 5E02     		.2byte	0x25e
 1105 0719 37000000 		.4byte	0x37
 1106 071d 48       		.byte	0x48
 1107 071e 16       		.uleb128 0x16
 1108 071f CA060000 		.4byte	.LASF108
 1109 0723 06       		.byte	0x6
 1110 0724 5F02     		.2byte	0x25f
 1111 0726 9B000000 		.4byte	0x9b
 1112 072a 50       		.byte	0x50
 1113 072b 16       		.uleb128 0x16
 1114 072c 65080000 		.4byte	.LASF109
 1115 0730 06       		.byte	0x6
 1116 0731 6002     		.2byte	0x260
 1117 0733 8F060000 		.4byte	0x68f
 1118 0737 58       		.byte	0x58
 1119 0738 16       		.uleb128 0x16
 1120 0739 B5080000 		.4byte	.LASF110
 1121 073d 06       		.byte	0x6
 1122 073e 6102     		.2byte	0x261
 1123 0740 47010000 		.4byte	0x147
 1124 0744 68       		.byte	0x68
 1125 0745 16       		.uleb128 0x16
 1126 0746 A3070000 		.4byte	.LASF111
 1127 074a 06       		.byte	0x6
 1128 074b 6202     		.2byte	0x262
 1129 074d 47010000 		.4byte	0x147
ARM GAS  /tmp/cc0zjQRA.s 			page 21


 1130 0751 70       		.byte	0x70
 1131 0752 16       		.uleb128 0x16
 1132 0753 B3060000 		.4byte	.LASF112
 1133 0757 06       		.byte	0x6
 1134 0758 6302     		.2byte	0x263
 1135 075a 47010000 		.4byte	0x147
 1136 075e 78       		.byte	0x78
 1137 075f 16       		.uleb128 0x16
 1138 0760 E6000000 		.4byte	.LASF113
 1139 0764 06       		.byte	0x6
 1140 0765 6402     		.2byte	0x264
 1141 0767 E5070000 		.4byte	0x7e5
 1142 076b 80       		.byte	0x80
 1143 076c 16       		.uleb128 0x16
 1144 076d 5D040000 		.4byte	.LASF114
 1145 0771 06       		.byte	0x6
 1146 0772 6502     		.2byte	0x265
 1147 0774 F5070000 		.4byte	0x7f5
 1148 0778 88       		.byte	0x88
 1149 0779 16       		.uleb128 0x16
 1150 077a 370A0000 		.4byte	.LASF115
 1151 077e 06       		.byte	0x6
 1152 077f 6602     		.2byte	0x266
 1153 0781 37000000 		.4byte	0x37
 1154 0785 A0       		.byte	0xa0
 1155 0786 16       		.uleb128 0x16
 1156 0787 5D010000 		.4byte	.LASF116
 1157 078b 06       		.byte	0x6
 1158 078c 6702     		.2byte	0x267
 1159 078e 47010000 		.4byte	0x147
 1160 0792 A4       		.byte	0xa4
 1161 0793 16       		.uleb128 0x16
 1162 0794 28080000 		.4byte	.LASF117
 1163 0798 06       		.byte	0x6
 1164 0799 6802     		.2byte	0x268
 1165 079b 47010000 		.4byte	0x147
 1166 079f AC       		.byte	0xac
 1167 07a0 16       		.uleb128 0x16
 1168 07a1 D3090000 		.4byte	.LASF118
 1169 07a5 06       		.byte	0x6
 1170 07a6 6902     		.2byte	0x269
 1171 07a8 47010000 		.4byte	0x147
 1172 07ac B4       		.byte	0xb4
 1173 07ad 16       		.uleb128 0x16
 1174 07ae 87060000 		.4byte	.LASF119
 1175 07b2 06       		.byte	0x6
 1176 07b3 6A02     		.2byte	0x26a
 1177 07b5 47010000 		.4byte	0x147
 1178 07b9 BC       		.byte	0xbc
 1179 07ba 16       		.uleb128 0x16
 1180 07bb C6000000 		.4byte	.LASF120
 1181 07bf 06       		.byte	0x6
 1182 07c0 6B02     		.2byte	0x26b
 1183 07c2 47010000 		.4byte	0x147
 1184 07c6 C4       		.byte	0xc4
 1185 07c7 16       		.uleb128 0x16
 1186 07c8 72060000 		.4byte	.LASF121
ARM GAS  /tmp/cc0zjQRA.s 			page 22


 1187 07cc 06       		.byte	0x6
 1188 07cd 6C02     		.2byte	0x26c
 1189 07cf 37000000 		.4byte	0x37
 1190 07d3 CC       		.byte	0xcc
 1191 07d4 00       		.byte	0
 1192 07d5 08       		.uleb128 0x8
 1193 07d6 A8050000 		.4byte	0x5a8
 1194 07da E5070000 		.4byte	0x7e5
 1195 07de 09       		.uleb128 0x9
 1196 07df 1F010000 		.4byte	0x11f
 1197 07e3 19       		.byte	0x19
 1198 07e4 00       		.byte	0
 1199 07e5 08       		.uleb128 0x8
 1200 07e6 A8050000 		.4byte	0x5a8
 1201 07ea F5070000 		.4byte	0x7f5
 1202 07ee 09       		.uleb128 0x9
 1203 07ef 1F010000 		.4byte	0x11f
 1204 07f3 07       		.byte	0x7
 1205 07f4 00       		.byte	0
 1206 07f5 08       		.uleb128 0x8
 1207 07f6 A8050000 		.4byte	0x5a8
 1208 07fa 05080000 		.4byte	0x805
 1209 07fe 09       		.uleb128 0x9
 1210 07ff 1F010000 		.4byte	0x11f
 1211 0803 17       		.byte	0x17
 1212 0804 00       		.byte	0
 1213 0805 1A       		.uleb128 0x1a
 1214 0806 F0       		.byte	0xf0
 1215 0807 06       		.byte	0x6
 1216 0808 7102     		.2byte	0x271
 1217 080a 29080000 		.4byte	0x829
 1218 080e 16       		.uleb128 0x16
 1219 080f 52090000 		.4byte	.LASF122
 1220 0813 06       		.byte	0x6
 1221 0814 7402     		.2byte	0x274
 1222 0816 29080000 		.4byte	0x829
 1223 081a 00       		.byte	0
 1224 081b 16       		.uleb128 0x16
 1225 081c F8040000 		.4byte	.LASF123
 1226 0820 06       		.byte	0x6
 1227 0821 7502     		.2byte	0x275
 1228 0823 39080000 		.4byte	0x839
 1229 0827 78       		.byte	0x78
 1230 0828 00       		.byte	0
 1231 0829 08       		.uleb128 0x8
 1232 082a 1C030000 		.4byte	0x31c
 1233 082e 39080000 		.4byte	0x839
 1234 0832 09       		.uleb128 0x9
 1235 0833 1F010000 		.4byte	0x11f
 1236 0837 1D       		.byte	0x1d
 1237 0838 00       		.byte	0
 1238 0839 08       		.uleb128 0x8
 1239 083a 30000000 		.4byte	0x30
 1240 083e 49080000 		.4byte	0x849
 1241 0842 09       		.uleb128 0x9
 1242 0843 1F010000 		.4byte	0x11f
 1243 0847 1D       		.byte	0x1d
ARM GAS  /tmp/cc0zjQRA.s 			page 23


 1244 0848 00       		.byte	0
 1245 0849 1B       		.uleb128 0x1b
 1246 084a F0       		.byte	0xf0
 1247 084b 06       		.byte	0x6
 1248 084c 5602     		.2byte	0x256
 1249 084e 6B080000 		.4byte	0x86b
 1250 0852 1C       		.uleb128 0x1c
 1251 0853 77020000 		.4byte	.LASF72
 1252 0857 06       		.byte	0x6
 1253 0858 6D02     		.2byte	0x26d
 1254 085a D4060000 		.4byte	0x6d4
 1255 085e 1C       		.uleb128 0x1c
 1256 085f B9000000 		.4byte	.LASF124
 1257 0863 06       		.byte	0x6
 1258 0864 7602     		.2byte	0x276
 1259 0866 05080000 		.4byte	0x805
 1260 086a 00       		.byte	0
 1261 086b 08       		.uleb128 0x8
 1262 086c A8050000 		.4byte	0x5a8
 1263 0870 7B080000 		.4byte	0x87b
 1264 0874 09       		.uleb128 0x9
 1265 0875 1F010000 		.4byte	0x11f
 1266 0879 18       		.byte	0x18
 1267 087a 00       		.byte	0
 1268 087b 1D       		.uleb128 0x1d
 1269 087c 86080000 		.4byte	0x886
 1270 0880 14       		.uleb128 0x14
 1271 0881 6A040000 		.4byte	0x46a
 1272 0885 00       		.byte	0
 1273 0886 0F       		.uleb128 0xf
 1274 0887 04       		.byte	0x4
 1275 0888 7B080000 		.4byte	0x87b
 1276 088c 0F       		.uleb128 0xf
 1277 088d 04       		.byte	0x4
 1278 088e BD010000 		.4byte	0x1bd
 1279 0892 1D       		.uleb128 0x1d
 1280 0893 9D080000 		.4byte	0x89d
 1281 0897 14       		.uleb128 0x14
 1282 0898 37000000 		.4byte	0x37
 1283 089c 00       		.byte	0
 1284 089d 0F       		.uleb128 0xf
 1285 089e 04       		.byte	0x4
 1286 089f A3080000 		.4byte	0x8a3
 1287 08a3 0F       		.uleb128 0xf
 1288 08a4 04       		.byte	0x4
 1289 08a5 92080000 		.4byte	0x892
 1290 08a9 08       		.uleb128 0x8
 1291 08aa 42060000 		.4byte	0x642
 1292 08ae B9080000 		.4byte	0x8b9
 1293 08b2 09       		.uleb128 0x9
 1294 08b3 1F010000 		.4byte	0x11f
 1295 08b7 02       		.byte	0x2
 1296 08b8 00       		.byte	0
 1297 08b9 02       		.uleb128 0x2
 1298 08ba F0000000 		.4byte	.LASF125
 1299 08be 07       		.byte	0x7
 1300 08bf 7A       		.byte	0x7a
ARM GAS  /tmp/cc0zjQRA.s 			page 24


 1301 08c0 70000000 		.4byte	0x70
 1302 08c4 02       		.uleb128 0x2
 1303 08c5 5A060000 		.4byte	.LASF126
 1304 08c9 07       		.byte	0x7
 1305 08ca 92       		.byte	0x92
 1306 08cb A2050000 		.4byte	0x5a2
 1307 08cf 02       		.uleb128 0x2
 1308 08d0 60030000 		.4byte	.LASF127
 1309 08d4 07       		.byte	0x7
 1310 08d5 9B       		.byte	0x9b
 1311 08d6 5E000000 		.4byte	0x5e
 1312 08da 02       		.uleb128 0x2
 1313 08db 0F070000 		.4byte	.LASF128
 1314 08df 07       		.byte	0x7
 1315 08e0 B8       		.byte	0xb8
 1316 08e1 AD000000 		.4byte	0xad
 1317 08e5 02       		.uleb128 0x2
 1318 08e6 A3000000 		.4byte	.LASF129
 1319 08ea 07       		.byte	0x7
 1320 08eb B9       		.byte	0xb9
 1321 08ec B8000000 		.4byte	0xb8
 1322 08f0 02       		.uleb128 0x2
 1323 08f1 3B010000 		.4byte	.LASF130
 1324 08f5 07       		.byte	0x7
 1325 08f6 BA       		.byte	0xba
 1326 08f7 C3000000 		.4byte	0xc3
 1327 08fb 02       		.uleb128 0x2
 1328 08fc 210A0000 		.4byte	.LASF131
 1329 0900 07       		.byte	0x7
 1330 0901 BB       		.byte	0xbb
 1331 0902 CE000000 		.4byte	0xce
 1332 0906 02       		.uleb128 0x2
 1333 0907 15070000 		.4byte	.LASF132
 1334 090b 07       		.byte	0x7
 1335 090c D9       		.byte	0xd9
 1336 090d 30000000 		.4byte	0x30
 1337 0911 02       		.uleb128 0x2
 1338 0912 A9000000 		.4byte	.LASF133
 1339 0916 07       		.byte	0x7
 1340 0917 DE       		.byte	0xde
 1341 0918 5E000000 		.4byte	0x5e
 1342 091c 0D       		.uleb128 0xd
 1343 091d A5040000 		.4byte	.LASF134
 1344 0921 3C       		.byte	0x3c
 1345 0922 08       		.byte	0x8
 1346 0923 19       		.byte	0x19
 1347 0924 F5090000 		.4byte	0x9f5
 1348 0928 0B       		.uleb128 0xb
 1349 0929 6D070000 		.4byte	.LASF135
 1350 092d 08       		.byte	0x8
 1351 092e 1B       		.byte	0x1b
 1352 092f E5080000 		.4byte	0x8e5
 1353 0933 00       		.byte	0
 1354 0934 0B       		.uleb128 0xb
 1355 0935 F6090000 		.4byte	.LASF136
 1356 0939 08       		.byte	0x8
 1357 093a 1C       		.byte	0x1c
ARM GAS  /tmp/cc0zjQRA.s 			page 25


 1358 093b CF080000 		.4byte	0x8cf
 1359 093f 02       		.byte	0x2
 1360 0940 0B       		.uleb128 0xb
 1361 0941 42090000 		.4byte	.LASF137
 1362 0945 08       		.byte	0x8
 1363 0946 1D       		.byte	0x1d
 1364 0947 06090000 		.4byte	0x906
 1365 094b 04       		.byte	0x4
 1366 094c 0B       		.uleb128 0xb
 1367 094d 06070000 		.4byte	.LASF138
 1368 0951 08       		.byte	0x8
 1369 0952 1E       		.byte	0x1e
 1370 0953 11090000 		.4byte	0x911
 1371 0957 08       		.byte	0x8
 1372 0958 0B       		.uleb128 0xb
 1373 0959 1A020000 		.4byte	.LASF139
 1374 095d 08       		.byte	0x8
 1375 095e 1F       		.byte	0x1f
 1376 095f F0080000 		.4byte	0x8f0
 1377 0963 0A       		.byte	0xa
 1378 0964 0B       		.uleb128 0xb
 1379 0965 4E030000 		.4byte	.LASF140
 1380 0969 08       		.byte	0x8
 1381 096a 20       		.byte	0x20
 1382 096b FB080000 		.4byte	0x8fb
 1383 096f 0C       		.byte	0xc
 1384 0970 0B       		.uleb128 0xb
 1385 0971 5D020000 		.4byte	.LASF141
 1386 0975 08       		.byte	0x8
 1387 0976 21       		.byte	0x21
 1388 0977 E5080000 		.4byte	0x8e5
 1389 097b 0E       		.byte	0xe
 1390 097c 0B       		.uleb128 0xb
 1391 097d B9030000 		.4byte	.LASF142
 1392 0981 08       		.byte	0x8
 1393 0982 22       		.byte	0x22
 1394 0983 DA080000 		.4byte	0x8da
 1395 0987 10       		.byte	0x10
 1396 0988 0B       		.uleb128 0xb
 1397 0989 2F070000 		.4byte	.LASF143
 1398 098d 08       		.byte	0x8
 1399 098e 30       		.byte	0x30
 1400 098f B9080000 		.4byte	0x8b9
 1401 0993 14       		.byte	0x14
 1402 0994 0B       		.uleb128 0xb
 1403 0995 10020000 		.4byte	.LASF144
 1404 0999 08       		.byte	0x8
 1405 099a 31       		.byte	0x31
 1406 099b 70000000 		.4byte	0x70
 1407 099f 18       		.byte	0x18
 1408 09a0 0B       		.uleb128 0xb
 1409 09a1 8B080000 		.4byte	.LASF145
 1410 09a5 08       		.byte	0x8
 1411 09a6 32       		.byte	0x32
 1412 09a7 B9080000 		.4byte	0x8b9
 1413 09ab 1C       		.byte	0x1c
 1414 09ac 0B       		.uleb128 0xb
ARM GAS  /tmp/cc0zjQRA.s 			page 26


 1415 09ad 53040000 		.4byte	.LASF146
 1416 09b1 08       		.byte	0x8
 1417 09b2 33       		.byte	0x33
 1418 09b3 70000000 		.4byte	0x70
 1419 09b7 20       		.byte	0x20
 1420 09b8 0B       		.uleb128 0xb
 1421 09b9 DF020000 		.4byte	.LASF147
 1422 09bd 08       		.byte	0x8
 1423 09be 34       		.byte	0x34
 1424 09bf B9080000 		.4byte	0x8b9
 1425 09c3 24       		.byte	0x24
 1426 09c4 0B       		.uleb128 0xb
 1427 09c5 21020000 		.4byte	.LASF148
 1428 09c9 08       		.byte	0x8
 1429 09ca 35       		.byte	0x35
 1430 09cb 70000000 		.4byte	0x70
 1431 09cf 28       		.byte	0x28
 1432 09d0 0B       		.uleb128 0xb
 1433 09d1 AA040000 		.4byte	.LASF149
 1434 09d5 08       		.byte	0x8
 1435 09d6 36       		.byte	0x36
 1436 09d7 70000000 		.4byte	0x70
 1437 09db 2C       		.byte	0x2c
 1438 09dc 0B       		.uleb128 0xb
 1439 09dd 3B000000 		.4byte	.LASF150
 1440 09e1 08       		.byte	0x8
 1441 09e2 37       		.byte	0x37
 1442 09e3 70000000 		.4byte	0x70
 1443 09e7 30       		.byte	0x30
 1444 09e8 0B       		.uleb128 0xb
 1445 09e9 2B020000 		.4byte	.LASF151
 1446 09ed 08       		.byte	0x8
 1447 09ee 38       		.byte	0x38
 1448 09ef F5090000 		.4byte	0x9f5
 1449 09f3 34       		.byte	0x34
 1450 09f4 00       		.byte	0
 1451 09f5 08       		.uleb128 0x8
 1452 09f6 70000000 		.4byte	0x70
 1453 09fa 050A0000 		.4byte	0xa05
 1454 09fe 09       		.uleb128 0x9
 1455 09ff 1F010000 		.4byte	0x11f
 1456 0a03 01       		.byte	0x1
 1457 0a04 00       		.byte	0
 1458 0a05 02       		.uleb128 0x2
 1459 0a06 08020000 		.4byte	.LASF152
 1460 0a0a 09       		.byte	0x9
 1461 0a0b 2A       		.byte	0x2a
 1462 0a0c 45000000 		.4byte	0x45
 1463 0a10 02       		.uleb128 0x2
 1464 0a11 5D000000 		.4byte	.LASF153
 1465 0a15 09       		.byte	0x9
 1466 0a16 41       		.byte	0x41
 1467 0a17 65000000 		.4byte	0x65
 1468 0a1b 02       		.uleb128 0x2
 1469 0a1c 7A090000 		.4byte	.LASF154
 1470 0a20 09       		.byte	0x9
 1471 0a21 42       		.byte	0x42
ARM GAS  /tmp/cc0zjQRA.s 			page 27


 1472 0a22 77000000 		.4byte	0x77
 1473 0a26 02       		.uleb128 0x2
 1474 0a27 CC080000 		.4byte	.LASF155
 1475 0a2b 09       		.byte	0x9
 1476 0a2c 4E       		.byte	0x4e
 1477 0a2d 90000000 		.4byte	0x90
 1478 0a31 02       		.uleb128 0x2
 1479 0a32 62060000 		.4byte	.LASF156
 1480 0a36 0A       		.byte	0xa
 1481 0a37 39       		.byte	0x39
 1482 0a38 1B0A0000 		.4byte	0xa1b
 1483 0a3c 02       		.uleb128 0x2
 1484 0a3d 83080000 		.4byte	.LASF157
 1485 0a41 0A       		.byte	0xa
 1486 0a42 3C       		.byte	0x3c
 1487 0a43 050A0000 		.4byte	0xa05
 1488 0a47 02       		.uleb128 0x2
 1489 0a48 A1010000 		.4byte	.LASF158
 1490 0a4c 0A       		.byte	0xa
 1491 0a4d 3D       		.byte	0x3d
 1492 0a4e 050A0000 		.4byte	0xa05
 1493 0a52 02       		.uleb128 0x2
 1494 0a53 D7020000 		.4byte	.LASF159
 1495 0a57 0A       		.byte	0xa
 1496 0a58 3E       		.byte	0x3e
 1497 0a59 050A0000 		.4byte	0xa05
 1498 0a5d 02       		.uleb128 0x2
 1499 0a5e 33000000 		.4byte	.LASF160
 1500 0a62 0A       		.byte	0xa
 1501 0a63 40       		.byte	0x40
 1502 0a64 1B0A0000 		.4byte	0xa1b
 1503 0a68 02       		.uleb128 0x2
 1504 0a69 DC070000 		.4byte	.LASF161
 1505 0a6d 0A       		.byte	0xa
 1506 0a6e 41       		.byte	0x41
 1507 0a6f 100A0000 		.4byte	0xa10
 1508 0a73 02       		.uleb128 0x2
 1509 0a74 35020000 		.4byte	.LASF162
 1510 0a78 0A       		.byte	0xa
 1511 0a79 43       		.byte	0x43
 1512 0a7a 1B0A0000 		.4byte	0xa1b
 1513 0a7e 02       		.uleb128 0x2
 1514 0a7f ED020000 		.4byte	.LASF163
 1515 0a83 0A       		.byte	0xa
 1516 0a84 45       		.byte	0x45
 1517 0a85 100A0000 		.4byte	0xa10
 1518 0a89 02       		.uleb128 0x2
 1519 0a8a 18000000 		.4byte	.LASF164
 1520 0a8e 0B       		.byte	0xb
 1521 0a8f 33       		.byte	0x33
 1522 0a90 1B0A0000 		.4byte	0xa1b
 1523 0a94 02       		.uleb128 0x2
 1524 0a95 26070000 		.4byte	.LASF165
 1525 0a99 0B       		.byte	0xb
 1526 0a9a 3F       		.byte	0x3f
 1527 0a9b 9F0A0000 		.4byte	0xa9f
 1528 0a9f 0D       		.uleb128 0xd
ARM GAS  /tmp/cc0zjQRA.s 			page 28


 1529 0aa0 CE030000 		.4byte	.LASF166
 1530 0aa4 40       		.byte	0x40
 1531 0aa5 0C       		.byte	0xc
 1532 0aa6 C2       		.byte	0xc2
 1533 0aa7 7F0B0000 		.4byte	0xb7f
 1534 0aab 0B       		.uleb128 0xb
 1535 0aac 74010000 		.4byte	.LASF167
 1536 0ab0 0C       		.byte	0xc
 1537 0ab1 C3       		.byte	0xc3
 1538 0ab2 8A0B0000 		.4byte	0xb8a
 1539 0ab6 00       		.byte	0
 1540 0ab7 0B       		.uleb128 0xb
 1541 0ab8 8B010000 		.4byte	.LASF168
 1542 0abc 0C       		.byte	0xc
 1543 0abd C5       		.byte	0xc5
 1544 0abe 8A0B0000 		.4byte	0xb8a
 1545 0ac2 04       		.byte	0x4
 1546 0ac3 0B       		.uleb128 0xb
 1547 0ac4 AD020000 		.4byte	.LASF169
 1548 0ac8 0C       		.byte	0xc
 1549 0ac9 C7       		.byte	0xc7
 1550 0aca 5D0A0000 		.4byte	0xa5d
 1551 0ace 08       		.byte	0x8
 1552 0acf 0B       		.uleb128 0xb
 1553 0ad0 27000000 		.4byte	.LASF170
 1554 0ad4 0C       		.byte	0xc
 1555 0ad5 C8       		.byte	0xc8
 1556 0ad6 B10D0000 		.4byte	0xdb1
 1557 0ada 0C       		.byte	0xc
 1558 0adb 0B       		.uleb128 0xb
 1559 0adc 55010000 		.4byte	.LASF171
 1560 0ae0 0C       		.byte	0xc
 1561 0ae1 CA       		.byte	0xca
 1562 0ae2 8A0B0000 		.4byte	0xb8a
 1563 0ae6 10       		.byte	0x10
 1564 0ae7 0B       		.uleb128 0xb
 1565 0ae8 C8070000 		.4byte	.LASF172
 1566 0aec 0C       		.byte	0xc
 1567 0aed CB       		.byte	0xcb
 1568 0aee 8A0B0000 		.4byte	0xb8a
 1569 0af2 14       		.byte	0x14
 1570 0af3 0B       		.uleb128 0xb
 1571 0af4 1A0A0000 		.4byte	.LASF173
 1572 0af8 0C       		.byte	0xc
 1573 0af9 D2       		.byte	0xd2
 1574 0afa D3050000 		.4byte	0x5d3
 1575 0afe 18       		.byte	0x18
 1576 0aff 0B       		.uleb128 0xb
 1577 0b00 4B0A0000 		.4byte	.LASF174
 1578 0b04 0C       		.byte	0xc
 1579 0b05 DD       		.byte	0xdd
 1580 0b06 470A0000 		.4byte	0xa47
 1581 0b0a 1C       		.byte	0x1c
 1582 0b0b 0B       		.uleb128 0xb
 1583 0b0c 12010000 		.4byte	.LASF175
 1584 0b10 0C       		.byte	0xc
 1585 0b11 E1       		.byte	0xe1
ARM GAS  /tmp/cc0zjQRA.s 			page 29


 1586 0b12 3C0A0000 		.4byte	0xa3c
 1587 0b16 1D       		.byte	0x1d
 1588 0b17 0B       		.uleb128 0xb
 1589 0b18 80060000 		.4byte	.LASF176
 1590 0b1c 0C       		.byte	0xc
 1591 0b1d E6       		.byte	0xe6
 1592 0b1e 520A0000 		.4byte	0xa52
 1593 0b22 1E       		.byte	0x1e
 1594 0b23 1E       		.uleb128 0x1e
 1595 0b24 705F7500 		.ascii	"p_u\000"
 1596 0b28 0C       		.byte	0xc
 1597 0b29 3701     		.2byte	0x137
 1598 0b2b 6B0E0000 		.4byte	0xe6b
 1599 0b2f 20       		.byte	0x20
 1600 0b30 16       		.uleb128 0x16
 1601 0b31 2B060000 		.4byte	.LASF177
 1602 0b35 0C       		.byte	0xc
 1603 0b36 3C01     		.2byte	0x13c
 1604 0b38 900B0000 		.4byte	0xb90
 1605 0b3c 24       		.byte	0x24
 1606 0b3d 16       		.uleb128 0x16
 1607 0b3e 45000000 		.4byte	.LASF178
 1608 0b42 0C       		.byte	0xc
 1609 0b43 4201     		.2byte	0x142
 1610 0b45 B40B0000 		.4byte	0xbb4
 1611 0b49 28       		.byte	0x28
 1612 0b4a 16       		.uleb128 0x16
 1613 0b4b 0F030000 		.4byte	.LASF179
 1614 0b4f 0C       		.byte	0xc
 1615 0b50 4801     		.2byte	0x148
 1616 0b52 730A0000 		.4byte	0xa73
 1617 0b56 30       		.byte	0x30
 1618 0b57 16       		.uleb128 0x16
 1619 0b58 BA010000 		.4byte	.LASF180
 1620 0b5c 0C       		.byte	0xc
 1621 0b5d 4F01     		.2byte	0x14f
 1622 0b5f 360F0000 		.4byte	0xf36
 1623 0b63 34       		.byte	0x34
 1624 0b64 16       		.uleb128 0x16
 1625 0b65 42070000 		.4byte	.LASF181
 1626 0b69 0C       		.byte	0xc
 1627 0b6a 5301     		.2byte	0x153
 1628 0b6c 5D0A0000 		.4byte	0xa5d
 1629 0b70 38       		.byte	0x38
 1630 0b71 16       		.uleb128 0x16
 1631 0b72 6A060000 		.4byte	.LASF182
 1632 0b76 0C       		.byte	0xc
 1633 0b77 5A01     		.2byte	0x15a
 1634 0b79 5D010000 		.4byte	0x15d
 1635 0b7d 3C       		.byte	0x3c
 1636 0b7e 00       		.byte	0
 1637 0b7f 02       		.uleb128 0x2
 1638 0b80 E3060000 		.4byte	.LASF183
 1639 0b84 0B       		.byte	0xb
 1640 0b85 44       		.byte	0x44
 1641 0b86 8A0B0000 		.4byte	0xb8a
 1642 0b8a 0F       		.uleb128 0xf
ARM GAS  /tmp/cc0zjQRA.s 			page 30


 1643 0b8b 04       		.byte	0x4
 1644 0b8c 940A0000 		.4byte	0xa94
 1645 0b90 02       		.uleb128 0x2
 1646 0b91 59090000 		.4byte	.LASF184
 1647 0b95 0B       		.byte	0xb
 1648 0b96 49       		.byte	0x49
 1649 0b97 9B0B0000 		.4byte	0xb9b
 1650 0b9b 0D       		.uleb128 0xd
 1651 0b9c 7A040000 		.4byte	.LASF185
 1652 0ba0 04       		.byte	0x4
 1653 0ba1 0C       		.byte	0xc
 1654 0ba2 B0       		.byte	0xb0
 1655 0ba3 B40B0000 		.4byte	0xbb4
 1656 0ba7 0B       		.uleb128 0xb
 1657 0ba8 74010000 		.4byte	.LASF167
 1658 0bac 0C       		.byte	0xc
 1659 0bad B1       		.byte	0xb1
 1660 0bae 8A0B0000 		.4byte	0xb8a
 1661 0bb2 00       		.byte	0
 1662 0bb3 00       		.byte	0
 1663 0bb4 02       		.uleb128 0x2
 1664 0bb5 AA010000 		.4byte	.LASF186
 1665 0bb9 0B       		.byte	0xb
 1666 0bba 50       		.byte	0x50
 1667 0bbb BF0B0000 		.4byte	0xbbf
 1668 0bbf 0D       		.uleb128 0xd
 1669 0bc0 E2070000 		.4byte	.LASF187
 1670 0bc4 08       		.byte	0x8
 1671 0bc5 0C       		.byte	0xc
 1672 0bc6 B7       		.byte	0xb7
 1673 0bc7 E40B0000 		.4byte	0xbe4
 1674 0bcb 0B       		.uleb128 0xb
 1675 0bcc 74010000 		.4byte	.LASF167
 1676 0bd0 0C       		.byte	0xc
 1677 0bd1 B8       		.byte	0xb8
 1678 0bd2 8A0B0000 		.4byte	0xb8a
 1679 0bd6 00       		.byte	0
 1680 0bd7 0B       		.uleb128 0xb
 1681 0bd8 8B010000 		.4byte	.LASF168
 1682 0bdc 0C       		.byte	0xc
 1683 0bdd B9       		.byte	0xb9
 1684 0bde 8A0B0000 		.4byte	0xb8a
 1685 0be2 04       		.byte	0x4
 1686 0be3 00       		.byte	0
 1687 0be4 02       		.uleb128 0x2
 1688 0be5 46040000 		.4byte	.LASF188
 1689 0be9 0B       		.byte	0xb
 1690 0bea 57       		.byte	0x57
 1691 0beb EF0B0000 		.4byte	0xbef
 1692 0bef 19       		.uleb128 0x19
 1693 0bf0 26030000 		.4byte	.LASF189
 1694 0bf4 1C       		.byte	0x1c
 1695 0bf5 0C       		.byte	0xc
 1696 0bf6 9201     		.2byte	0x192
 1697 0bf8 4B0C0000 		.4byte	0xc4b
 1698 0bfc 16       		.uleb128 0x16
 1699 0bfd 5D080000 		.4byte	.LASF190
ARM GAS  /tmp/cc0zjQRA.s 			page 31


 1700 0c01 0C       		.byte	0xc
 1701 0c02 9301     		.2byte	0x193
 1702 0c04 B40B0000 		.4byte	0xbb4
 1703 0c08 00       		.byte	0
 1704 0c09 16       		.uleb128 0x16
 1705 0c0a E7080000 		.4byte	.LASF191
 1706 0c0e 0C       		.byte	0xc
 1707 0c0f 9401     		.2byte	0x194
 1708 0c11 5D0A0000 		.4byte	0xa5d
 1709 0c15 08       		.byte	0x8
 1710 0c16 16       		.uleb128 0x16
 1711 0c17 57000000 		.4byte	.LASF192
 1712 0c1b 0C       		.byte	0xc
 1713 0c1c 9601     		.2byte	0x196
 1714 0c1e B10D0000 		.4byte	0xdb1
 1715 0c22 0C       		.byte	0xc
 1716 0c23 16       		.uleb128 0x16
 1717 0c24 7E020000 		.4byte	.LASF193
 1718 0c28 0C       		.byte	0xc
 1719 0c29 9901     		.2byte	0x199
 1720 0c2b 8A0B0000 		.4byte	0xb8a
 1721 0c2f 10       		.byte	0x10
 1722 0c30 16       		.uleb128 0x16
 1723 0c31 94080000 		.4byte	.LASF194
 1724 0c35 0C       		.byte	0xc
 1725 0c36 9A01     		.2byte	0x19a
 1726 0c38 8A0B0000 		.4byte	0xb8a
 1727 0c3c 14       		.byte	0x14
 1728 0c3d 16       		.uleb128 0x16
 1729 0c3e FD090000 		.4byte	.LASF195
 1730 0c42 0C       		.byte	0xc
 1731 0c43 9D01     		.2byte	0x19d
 1732 0c45 8A0B0000 		.4byte	0xb8a
 1733 0c49 18       		.byte	0x18
 1734 0c4a 00       		.byte	0
 1735 0c4b 02       		.uleb128 0x2
 1736 0c4c 7A000000 		.4byte	.LASF196
 1737 0c50 0B       		.byte	0xb
 1738 0c51 5C       		.byte	0x5c
 1739 0c52 560C0000 		.4byte	0xc56
 1740 0c56 0F       		.uleb128 0xf
 1741 0c57 04       		.byte	0x4
 1742 0c58 5C0C0000 		.4byte	0xc5c
 1743 0c5c 1D       		.uleb128 0x1d
 1744 0c5d 670C0000 		.4byte	0xc67
 1745 0c61 14       		.uleb128 0x14
 1746 0c62 5D010000 		.4byte	0x15d
 1747 0c66 00       		.byte	0
 1748 0c67 02       		.uleb128 0x2
 1749 0c68 36040000 		.4byte	.LASF197
 1750 0c6c 0B       		.byte	0xb
 1751 0c6d 61       		.byte	0x61
 1752 0c6e 720C0000 		.4byte	0xc72
 1753 0c72 19       		.uleb128 0x19
 1754 0c73 8C070000 		.4byte	.LASF198
 1755 0c77 14       		.byte	0x14
 1756 0c78 0C       		.byte	0xc
ARM GAS  /tmp/cc0zjQRA.s 			page 32


 1757 0c79 6D01     		.2byte	0x16d
 1758 0c7b C10C0000 		.4byte	0xcc1
 1759 0c7f 16       		.uleb128 0x16
 1760 0c80 E8040000 		.4byte	.LASF199
 1761 0c84 0C       		.byte	0xc
 1762 0c85 6E01     		.2byte	0x16e
 1763 0c87 3C0F0000 		.4byte	0xf3c
 1764 0c8b 00       		.byte	0
 1765 0c8c 16       		.uleb128 0x16
 1766 0c8d 01050000 		.4byte	.LASF200
 1767 0c91 0C       		.byte	0xc
 1768 0c92 6F01     		.2byte	0x16f
 1769 0c94 3C0F0000 		.4byte	0xf3c
 1770 0c98 04       		.byte	0x4
 1771 0c99 16       		.uleb128 0x16
 1772 0c9a 74070000 		.4byte	.LASF201
 1773 0c9e 0C       		.byte	0xc
 1774 0c9f 7001     		.2byte	0x170
 1775 0ca1 890A0000 		.4byte	0xa89
 1776 0ca5 08       		.byte	0x8
 1777 0ca6 16       		.uleb128 0x16
 1778 0ca7 F3020000 		.4byte	.LASF202
 1779 0cab 0C       		.byte	0xc
 1780 0cac 7101     		.2byte	0x171
 1781 0cae 4B0C0000 		.4byte	0xc4b
 1782 0cb2 0C       		.byte	0xc
 1783 0cb3 16       		.uleb128 0x16
 1784 0cb4 0B010000 		.4byte	.LASF203
 1785 0cb8 0C       		.byte	0xc
 1786 0cb9 7301     		.2byte	0x173
 1787 0cbb 5D010000 		.4byte	0x15d
 1788 0cbf 10       		.byte	0x10
 1789 0cc0 00       		.byte	0
 1790 0cc1 02       		.uleb128 0x2
 1791 0cc2 D8030000 		.4byte	.LASF204
 1792 0cc6 0B       		.byte	0xb
 1793 0cc7 66       		.byte	0x66
 1794 0cc8 CC0C0000 		.4byte	0xccc
 1795 0ccc 19       		.uleb128 0x19
 1796 0ccd 8C000000 		.4byte	.LASF205
 1797 0cd1 10       		.byte	0x10
 1798 0cd2 0C       		.byte	0xc
 1799 0cd3 7D01     		.2byte	0x17d
 1800 0cd5 0E0D0000 		.4byte	0xd0e
 1801 0cd9 16       		.uleb128 0x16
 1802 0cda E8040000 		.4byte	.LASF199
 1803 0cde 0C       		.byte	0xc
 1804 0cdf 7E01     		.2byte	0x17e
 1805 0ce1 3C0F0000 		.4byte	0xf3c
 1806 0ce5 00       		.byte	0
 1807 0ce6 16       		.uleb128 0x16
 1808 0ce7 01050000 		.4byte	.LASF200
 1809 0ceb 0C       		.byte	0xc
 1810 0cec 8001     		.2byte	0x180
 1811 0cee 3C0F0000 		.4byte	0xf3c
 1812 0cf2 04       		.byte	0x4
 1813 0cf3 16       		.uleb128 0x16
ARM GAS  /tmp/cc0zjQRA.s 			page 33


 1814 0cf4 74070000 		.4byte	.LASF201
 1815 0cf8 0C       		.byte	0xc
 1816 0cf9 8201     		.2byte	0x182
 1817 0cfb 890A0000 		.4byte	0xa89
 1818 0cff 08       		.byte	0x8
 1819 0d00 16       		.uleb128 0x16
 1820 0d01 9E090000 		.4byte	.LASF206
 1821 0d05 0C       		.byte	0xc
 1822 0d06 8A01     		.2byte	0x18a
 1823 0d08 890A0000 		.4byte	0xa89
 1824 0d0c 0C       		.byte	0xc
 1825 0d0d 00       		.byte	0
 1826 0d0e 02       		.uleb128 0x2
 1827 0d0f 86020000 		.4byte	.LASF207
 1828 0d13 0B       		.byte	0xb
 1829 0d14 6B       		.byte	0x6b
 1830 0d15 190D0000 		.4byte	0xd19
 1831 0d19 19       		.uleb128 0x19
 1832 0d1a EE080000 		.4byte	.LASF208
 1833 0d1e 04       		.byte	0x4
 1834 0d1f 0C       		.byte	0xc
 1835 0d20 A401     		.2byte	0x1a4
 1836 0d22 340D0000 		.4byte	0xd34
 1837 0d26 16       		.uleb128 0x16
 1838 0d27 65020000 		.4byte	.LASF209
 1839 0d2b 0C       		.byte	0xc
 1840 0d2c AC01     		.2byte	0x1ac
 1841 0d2e 420F0000 		.4byte	0xf42
 1842 0d32 00       		.byte	0
 1843 0d33 00       		.byte	0
 1844 0d34 02       		.uleb128 0x2
 1845 0d35 C7090000 		.4byte	.LASF210
 1846 0d39 0B       		.byte	0xb
 1847 0d3a 70       		.byte	0x70
 1848 0d3b 3F0D0000 		.4byte	0xd3f
 1849 0d3f 15       		.uleb128 0x15
 1850 0d40 68090000 		.4byte	.LASF211
 1851 0d44 5001     		.2byte	0x150
 1852 0d46 0C       		.byte	0xc
 1853 0d47 C401     		.2byte	0x1c4
 1854 0d49 9B0D0000 		.4byte	0xd9b
 1855 0d4d 16       		.uleb128 0x16
 1856 0d4e 7D080000 		.4byte	.LASF212
 1857 0d52 0C       		.byte	0xc
 1858 0d53 C801     		.2byte	0x1c8
 1859 0d55 E40B0000 		.4byte	0xbe4
 1860 0d59 00       		.byte	0
 1861 0d5a 16       		.uleb128 0x16
 1862 0d5b 11090000 		.4byte	.LASF213
 1863 0d5f 0C       		.byte	0xc
 1864 0d60 CC01     		.2byte	0x1cc
 1865 0d62 C10C0000 		.4byte	0xcc1
 1866 0d66 1C       		.byte	0x1c
 1867 0d67 1E       		.uleb128 0x1e
 1868 0d68 64626700 		.ascii	"dbg\000"
 1869 0d6c 0C       		.byte	0xc
 1870 0d6d D001     		.2byte	0x1d0
ARM GAS  /tmp/cc0zjQRA.s 			page 34


 1871 0d6f 0E0D0000 		.4byte	0xd0e
 1872 0d73 2C       		.byte	0x2c
 1873 0d74 16       		.uleb128 0x16
 1874 0d75 37080000 		.4byte	.LASF214
 1875 0d79 0C       		.byte	0xc
 1876 0d7a D401     		.2byte	0x1d4
 1877 0d7c 940A0000 		.4byte	0xa94
 1878 0d80 30       		.byte	0x30
 1879 0d81 1E       		.uleb128 0x1e
 1880 0d82 746D00   		.ascii	"tm\000"
 1881 0d85 0C       		.byte	0xc
 1882 0d86 D901     		.2byte	0x1d9
 1883 0d88 600E0000 		.4byte	0xe60
 1884 0d8c 70       		.byte	0x70
 1885 0d8d 16       		.uleb128 0x16
 1886 0d8e 35060000 		.4byte	.LASF215
 1887 0d92 0C       		.byte	0xc
 1888 0d93 E501     		.2byte	0x1e5
 1889 0d95 470F0000 		.4byte	0xf47
 1890 0d99 78       		.byte	0x78
 1891 0d9a 00       		.byte	0
 1892 0d9b 02       		.uleb128 0x2
 1893 0d9c C4010000 		.4byte	.LASF216
 1894 0da0 0D       		.byte	0xd
 1895 0da1 65       		.byte	0x65
 1896 0da2 5D010000 		.4byte	0x15d
 1897 0da6 02       		.uleb128 0x2
 1898 0da7 CC020000 		.4byte	.LASF217
 1899 0dab 0D       		.byte	0xd
 1900 0dac 6D       		.byte	0x6d
 1901 0dad 260A0000 		.4byte	0xa26
 1902 0db1 0D       		.uleb128 0xd
 1903 0db2 41020000 		.4byte	.LASF218
 1904 0db6 04       		.byte	0x4
 1905 0db7 0D       		.byte	0xd
 1906 0db8 89       		.byte	0x89
 1907 0db9 CA0D0000 		.4byte	0xdca
 1908 0dbd 0E       		.uleb128 0xe
 1909 0dbe 72313300 		.ascii	"r13\000"
 1910 0dc2 0D       		.byte	0xd
 1911 0dc3 8A       		.byte	0x8a
 1912 0dc4 450E0000 		.4byte	0xe45
 1913 0dc8 00       		.byte	0
 1914 0dc9 00       		.byte	0
 1915 0dca 0D       		.uleb128 0xd
 1916 0dcb 55070000 		.4byte	.LASF219
 1917 0dcf 24       		.byte	0x24
 1918 0dd0 0E       		.byte	0xe
 1919 0dd1 FD       		.byte	0xfd
 1920 0dd2 450E0000 		.4byte	0xe45
 1921 0dd6 1E       		.uleb128 0x1e
 1922 0dd7 723400   		.ascii	"r4\000"
 1923 0dda 0E       		.byte	0xe
 1924 0ddb 1001     		.2byte	0x110
 1925 0ddd 9B0D0000 		.4byte	0xd9b
 1926 0de1 00       		.byte	0
 1927 0de2 1E       		.uleb128 0x1e
ARM GAS  /tmp/cc0zjQRA.s 			page 35


 1928 0de3 723500   		.ascii	"r5\000"
 1929 0de6 0E       		.byte	0xe
 1930 0de7 1101     		.2byte	0x111
 1931 0de9 9B0D0000 		.4byte	0xd9b
 1932 0ded 04       		.byte	0x4
 1933 0dee 1E       		.uleb128 0x1e
 1934 0def 723600   		.ascii	"r6\000"
 1935 0df2 0E       		.byte	0xe
 1936 0df3 1201     		.2byte	0x112
 1937 0df5 9B0D0000 		.4byte	0xd9b
 1938 0df9 08       		.byte	0x8
 1939 0dfa 1E       		.uleb128 0x1e
 1940 0dfb 723700   		.ascii	"r7\000"
 1941 0dfe 0E       		.byte	0xe
 1942 0dff 1301     		.2byte	0x113
 1943 0e01 9B0D0000 		.4byte	0xd9b
 1944 0e05 0C       		.byte	0xc
 1945 0e06 1E       		.uleb128 0x1e
 1946 0e07 723800   		.ascii	"r8\000"
 1947 0e0a 0E       		.byte	0xe
 1948 0e0b 1401     		.2byte	0x114
 1949 0e0d 9B0D0000 		.4byte	0xd9b
 1950 0e11 10       		.byte	0x10
 1951 0e12 1E       		.uleb128 0x1e
 1952 0e13 723900   		.ascii	"r9\000"
 1953 0e16 0E       		.byte	0xe
 1954 0e17 1501     		.2byte	0x115
 1955 0e19 9B0D0000 		.4byte	0xd9b
 1956 0e1d 14       		.byte	0x14
 1957 0e1e 1E       		.uleb128 0x1e
 1958 0e1f 72313000 		.ascii	"r10\000"
 1959 0e23 0E       		.byte	0xe
 1960 0e24 1601     		.2byte	0x116
 1961 0e26 9B0D0000 		.4byte	0xd9b
 1962 0e2a 18       		.byte	0x18
 1963 0e2b 1E       		.uleb128 0x1e
 1964 0e2c 72313100 		.ascii	"r11\000"
 1965 0e30 0E       		.byte	0xe
 1966 0e31 1701     		.2byte	0x117
 1967 0e33 9B0D0000 		.4byte	0xd9b
 1968 0e37 1C       		.byte	0x1c
 1969 0e38 1E       		.uleb128 0x1e
 1970 0e39 6C7200   		.ascii	"lr\000"
 1971 0e3c 0E       		.byte	0xe
 1972 0e3d 1801     		.2byte	0x118
 1973 0e3f 9B0D0000 		.4byte	0xd9b
 1974 0e43 20       		.byte	0x20
 1975 0e44 00       		.byte	0
 1976 0e45 0F       		.uleb128 0xf
 1977 0e46 04       		.byte	0x4
 1978 0e47 CA0D0000 		.4byte	0xdca
 1979 0e4b 0A       		.uleb128 0xa
 1980 0e4c 04       		.byte	0x4
 1981 0e4d 0F       		.byte	0xf
 1982 0e4e 38       		.byte	0x38
 1983 0e4f 600E0000 		.4byte	0xe60
 1984 0e53 0B       		.uleb128 0xb
ARM GAS  /tmp/cc0zjQRA.s 			page 36


 1985 0e54 DC060000 		.4byte	.LASF220
 1986 0e58 0F       		.byte	0xf
 1987 0e59 3C       		.byte	0x3c
 1988 0e5a 310A0000 		.4byte	0xa31
 1989 0e5e 00       		.byte	0
 1990 0e5f 00       		.byte	0
 1991 0e60 02       		.uleb128 0x2
 1992 0e61 9C080000 		.4byte	.LASF221
 1993 0e65 0F       		.byte	0xf
 1994 0e66 3D       		.byte	0x3d
 1995 0e67 4B0E0000 		.4byte	0xe4b
 1996 0e6b 06       		.uleb128 0x6
 1997 0e6c 04       		.byte	0x4
 1998 0e6d 0C       		.byte	0xc
 1999 0e6e FA       		.byte	0xfa
 2000 0e6f D40E0000 		.4byte	0xed4
 2001 0e73 1C       		.uleb128 0x1c
 2002 0e74 92090000 		.4byte	.LASF222
 2003 0e78 0C       		.byte	0xc
 2004 0e79 0101     		.2byte	0x101
 2005 0e7b 680A0000 		.4byte	0xa68
 2006 0e7f 1C       		.uleb128 0x1c
 2007 0e80 20010000 		.4byte	.LASF223
 2008 0e84 0C       		.byte	0xc
 2009 0e85 0801     		.2byte	0x108
 2010 0e87 680A0000 		.4byte	0xa68
 2011 0e8b 1C       		.uleb128 0x1c
 2012 0e8c B4020000 		.4byte	.LASF224
 2013 0e90 0C       		.byte	0xc
 2014 0e91 0F01     		.2byte	0x10f
 2015 0e93 5D010000 		.4byte	0x15d
 2016 0e97 1C       		.uleb128 0x1c
 2017 0e98 49020000 		.4byte	.LASF225
 2018 0e9c 0C       		.byte	0xc
 2019 0e9d 1601     		.2byte	0x116
 2020 0e9f D40E0000 		.4byte	0xed4
 2021 0ea3 1C       		.uleb128 0x1c
 2022 0ea4 4D070000 		.4byte	.LASF226
 2023 0ea8 0C       		.byte	0xc
 2024 0ea9 1B01     		.2byte	0x11b
 2025 0eab 680A0000 		.4byte	0xa68
 2026 0eaf 1C       		.uleb128 0x1c
 2027 0eb0 440A0000 		.4byte	.LASF227
 2028 0eb4 0C       		.byte	0xc
 2029 0eb5 2401     		.2byte	0x124
 2030 0eb7 FF0E0000 		.4byte	0xeff
 2031 0ebb 1C       		.uleb128 0x1c
 2032 0ebc 1A030000 		.4byte	.LASF228
 2033 0ec0 0C       		.byte	0xc
 2034 0ec1 2D01     		.2byte	0x12d
 2035 0ec3 360F0000 		.4byte	0xf36
 2036 0ec7 1C       		.uleb128 0x1c
 2037 0ec8 01020000 		.4byte	.LASF229
 2038 0ecc 0C       		.byte	0xc
 2039 0ecd 3501     		.2byte	0x135
 2040 0ecf 730A0000 		.4byte	0xa73
 2041 0ed3 00       		.byte	0
ARM GAS  /tmp/cc0zjQRA.s 			page 37


 2042 0ed4 0F       		.uleb128 0xf
 2043 0ed5 04       		.byte	0x4
 2044 0ed6 7F0B0000 		.4byte	0xb7f
 2045 0eda 0D       		.uleb128 0xd
 2046 0edb C1030000 		.4byte	.LASF230
 2047 0edf 0C       		.byte	0xc
 2048 0ee0 10       		.byte	0x10
 2049 0ee1 34       		.byte	0x34
 2050 0ee2 FF0E0000 		.4byte	0xeff
 2051 0ee6 0B       		.uleb128 0xb
 2052 0ee7 AD080000 		.4byte	.LASF231
 2053 0eeb 10       		.byte	0x10
 2054 0eec 35       		.byte	0x35
 2055 0eed B40B0000 		.4byte	0xbb4
 2056 0ef1 00       		.byte	0
 2057 0ef2 0B       		.uleb128 0xb
 2058 0ef3 9D070000 		.4byte	.LASF232
 2059 0ef7 10       		.byte	0x10
 2060 0ef8 37       		.byte	0x37
 2061 0ef9 7E0A0000 		.4byte	0xa7e
 2062 0efd 08       		.byte	0x8
 2063 0efe 00       		.byte	0
 2064 0eff 0F       		.uleb128 0xf
 2065 0f00 04       		.byte	0x4
 2066 0f01 DA0E0000 		.4byte	0xeda
 2067 0f05 0D       		.uleb128 0xd
 2068 0f06 D5080000 		.4byte	.LASF233
 2069 0f0a 10       		.byte	0x10
 2070 0f0b 11       		.byte	0x11
 2071 0f0c 39       		.byte	0x39
 2072 0f0d 360F0000 		.4byte	0xf36
 2073 0f11 0B       		.uleb128 0xb
 2074 0f12 D9040000 		.4byte	.LASF234
 2075 0f16 11       		.byte	0x11
 2076 0f17 3A       		.byte	0x3a
 2077 0f18 B40B0000 		.4byte	0xbb4
 2078 0f1c 00       		.byte	0
 2079 0f1d 0B       		.uleb128 0xb
 2080 0f1e 03010000 		.4byte	.LASF235
 2081 0f22 11       		.byte	0x11
 2082 0f23 3C       		.byte	0x3c
 2083 0f24 8A0B0000 		.4byte	0xb8a
 2084 0f28 08       		.byte	0x8
 2085 0f29 0B       		.uleb128 0xb
 2086 0f2a 270A0000 		.4byte	.LASF236
 2087 0f2e 11       		.byte	0x11
 2088 0f2f 3E       		.byte	0x3e
 2089 0f30 620F0000 		.4byte	0xf62
 2090 0f34 0C       		.byte	0xc
 2091 0f35 00       		.byte	0
 2092 0f36 0F       		.uleb128 0xf
 2093 0f37 04       		.byte	0x4
 2094 0f38 050F0000 		.4byte	0xf05
 2095 0f3c 0F       		.uleb128 0xf
 2096 0f3d 04       		.byte	0x4
 2097 0f3e 670C0000 		.4byte	0xc67
 2098 0f42 1F       		.uleb128 0x1f
ARM GAS  /tmp/cc0zjQRA.s 			page 38


 2099 0f43 D3050000 		.4byte	0x5d3
 2100 0f47 08       		.uleb128 0x8
 2101 0f48 A60D0000 		.4byte	0xda6
 2102 0f4c 570F0000 		.4byte	0xf57
 2103 0f50 09       		.uleb128 0x9
 2104 0f51 1F010000 		.4byte	0x11f
 2105 0f55 1A       		.byte	0x1a
 2106 0f56 00       		.byte	0
 2107 0f57 02       		.uleb128 0x2
 2108 0f58 3A090000 		.4byte	.LASF237
 2109 0f5c 11       		.byte	0x11
 2110 0f5d 34       		.byte	0x34
 2111 0f5e 050F0000 		.4byte	0xf05
 2112 0f62 0F       		.uleb128 0xf
 2113 0f63 04       		.byte	0x4
 2114 0f64 570F0000 		.4byte	0xf57
 2115 0f68 20       		.uleb128 0x20
 2116 0f69 EE090000 		.4byte	.LASF239
 2117 0f6d 01       		.byte	0x1
 2118 0f6e 46       		.byte	0x46
 2119 0f6f 37000000 		.4byte	0x37
 2120 0f73 00000000 		.4byte	.LFB241
 2121 0f77 0A000000 		.4byte	.LFE241-.LFB241
 2122 0f7b 01       		.uleb128 0x1
 2123 0f7c 9C       		.byte	0x9c
 2124 0f7d B80F0000 		.4byte	0xfb8
 2125 0f81 21       		.uleb128 0x21
 2126 0f82 7200     		.ascii	"r\000"
 2127 0f84 01       		.byte	0x1
 2128 0f85 46       		.byte	0x46
 2129 0f86 6A040000 		.4byte	0x46a
 2130 0f8a 00000000 		.4byte	.LLST0
 2131 0f8e 22       		.uleb128 0x22
 2132 0f8f E8020000 		.4byte	.LASF238
 2133 0f93 01       		.byte	0x1
 2134 0f94 46       		.byte	0x46
 2135 0f95 37000000 		.4byte	0x37
 2136 0f99 01       		.uleb128 0x1
 2137 0f9a 51       		.byte	0x51
 2138 0f9b 23       		.uleb128 0x23
 2139 0f9c 70747200 		.ascii	"ptr\000"
 2140 0fa0 01       		.byte	0x1
 2141 0fa1 46       		.byte	0x46
 2142 0fa2 A2050000 		.4byte	0x5a2
 2143 0fa6 01       		.uleb128 0x1
 2144 0fa7 52       		.byte	0x52
 2145 0fa8 21       		.uleb128 0x21
 2146 0fa9 6C656E00 		.ascii	"len\000"
 2147 0fad 01       		.byte	0x1
 2148 0fae 46       		.byte	0x46
 2149 0faf 37000000 		.4byte	0x37
 2150 0fb3 21000000 		.4byte	.LLST1
 2151 0fb7 00       		.byte	0
 2152 0fb8 20       		.uleb128 0x20
 2153 0fb9 29090000 		.4byte	.LASF240
 2154 0fbd 01       		.byte	0x1
 2155 0fbe 5B       		.byte	0x5b
ARM GAS  /tmp/cc0zjQRA.s 			page 39


 2156 0fbf 37000000 		.4byte	0x37
 2157 0fc3 00000000 		.4byte	.LFB242
 2158 0fc7 04000000 		.4byte	.LFE242-.LFB242
 2159 0fcb 01       		.uleb128 0x1
 2160 0fcc 9C       		.byte	0x9c
 2161 0fcd 06100000 		.4byte	0x1006
 2162 0fd1 21       		.uleb128 0x21
 2163 0fd2 7200     		.ascii	"r\000"
 2164 0fd4 01       		.byte	0x1
 2165 0fd5 5B       		.byte	0x5b
 2166 0fd6 6A040000 		.4byte	0x46a
 2167 0fda 42000000 		.4byte	.LLST2
 2168 0fde 22       		.uleb128 0x22
 2169 0fdf E8020000 		.4byte	.LASF238
 2170 0fe3 01       		.byte	0x1
 2171 0fe4 5B       		.byte	0x5b
 2172 0fe5 37000000 		.4byte	0x37
 2173 0fe9 01       		.uleb128 0x1
 2174 0fea 51       		.byte	0x51
 2175 0feb 23       		.uleb128 0x23
 2176 0fec 70747200 		.ascii	"ptr\000"
 2177 0ff0 01       		.byte	0x1
 2178 0ff1 5B       		.byte	0x5b
 2179 0ff2 37000000 		.4byte	0x37
 2180 0ff6 01       		.uleb128 0x1
 2181 0ff7 52       		.byte	0x52
 2182 0ff8 23       		.uleb128 0x23
 2183 0ff9 64697200 		.ascii	"dir\000"
 2184 0ffd 01       		.byte	0x1
 2185 0ffe 5B       		.byte	0x5b
 2186 0fff 37000000 		.4byte	0x37
 2187 1003 01       		.uleb128 0x1
 2188 1004 53       		.byte	0x53
 2189 1005 00       		.byte	0
 2190 1006 20       		.uleb128 0x20
 2191 1007 51060000 		.4byte	.LASF241
 2192 100b 01       		.byte	0x1
 2193 100c 67       		.byte	0x67
 2194 100d 37000000 		.4byte	0x37
 2195 1011 00000000 		.4byte	.LFB243
 2196 1015 04000000 		.4byte	.LFE243-.LFB243
 2197 1019 01       		.uleb128 0x1
 2198 101a 9C       		.byte	0x9c
 2199 101b 54100000 		.4byte	0x1054
 2200 101f 21       		.uleb128 0x21
 2201 1020 7200     		.ascii	"r\000"
 2202 1022 01       		.byte	0x1
 2203 1023 67       		.byte	0x67
 2204 1024 6A040000 		.4byte	0x46a
 2205 1028 63000000 		.4byte	.LLST3
 2206 102c 22       		.uleb128 0x22
 2207 102d E8020000 		.4byte	.LASF238
 2208 1031 01       		.byte	0x1
 2209 1032 67       		.byte	0x67
 2210 1033 37000000 		.4byte	0x37
 2211 1037 01       		.uleb128 0x1
 2212 1038 51       		.byte	0x51
ARM GAS  /tmp/cc0zjQRA.s 			page 40


 2213 1039 23       		.uleb128 0x23
 2214 103a 70747200 		.ascii	"ptr\000"
 2215 103e 01       		.byte	0x1
 2216 103f 67       		.byte	0x67
 2217 1040 A2050000 		.4byte	0x5a2
 2218 1044 01       		.uleb128 0x1
 2219 1045 52       		.byte	0x52
 2220 1046 23       		.uleb128 0x23
 2221 1047 6C656E00 		.ascii	"len\000"
 2222 104b 01       		.byte	0x1
 2223 104c 67       		.byte	0x67
 2224 104d 37000000 		.4byte	0x37
 2225 1051 01       		.uleb128 0x1
 2226 1052 53       		.byte	0x53
 2227 1053 00       		.byte	0
 2228 1054 20       		.uleb128 0x20
 2229 1055 69040000 		.4byte	.LASF242
 2230 1059 01       		.byte	0x1
 2231 105a 78       		.byte	0x78
 2232 105b 37000000 		.4byte	0x37
 2233 105f 00000000 		.4byte	.LFB244
 2234 1063 04000000 		.4byte	.LFE244-.LFB244
 2235 1067 01       		.uleb128 0x1
 2236 1068 9C       		.byte	0x9c
 2237 1069 88100000 		.4byte	0x1088
 2238 106d 21       		.uleb128 0x21
 2239 106e 7200     		.ascii	"r\000"
 2240 1070 01       		.byte	0x1
 2241 1071 78       		.byte	0x78
 2242 1072 6A040000 		.4byte	0x46a
 2243 1076 84000000 		.4byte	.LLST4
 2244 107a 22       		.uleb128 0x22
 2245 107b E8020000 		.4byte	.LASF238
 2246 107f 01       		.byte	0x1
 2247 1080 78       		.byte	0x78
 2248 1081 37000000 		.4byte	0x37
 2249 1085 01       		.uleb128 0x1
 2250 1086 51       		.byte	0x51
 2251 1087 00       		.byte	0
 2252 1088 20       		.uleb128 0x20
 2253 1089 6F020000 		.4byte	.LASF243
 2254 108d 01       		.byte	0x1
 2255 108e 82       		.byte	0x82
 2256 108f C4080000 		.4byte	0x8c4
 2257 1093 00000000 		.4byte	.LFB245
 2258 1097 18000000 		.4byte	.LFE245-.LFB245
 2259 109b 01       		.uleb128 0x1
 2260 109c 9C       		.byte	0x9c
 2261 109d E5100000 		.4byte	0x10e5
 2262 10a1 21       		.uleb128 0x21
 2263 10a2 7200     		.ascii	"r\000"
 2264 10a4 01       		.byte	0x1
 2265 10a5 82       		.byte	0x82
 2266 10a6 6A040000 		.4byte	0x46a
 2267 10aa A5000000 		.4byte	.LLST5
 2268 10ae 24       		.uleb128 0x24
 2269 10af 7B060000 		.4byte	.LASF244
ARM GAS  /tmp/cc0zjQRA.s 			page 41


 2270 10b3 01       		.byte	0x1
 2271 10b4 82       		.byte	0x82
 2272 10b5 37000000 		.4byte	0x37
 2273 10b9 C3000000 		.4byte	.LLST6
 2274 10bd 25       		.uleb128 0x25
 2275 10be 7000     		.ascii	"p\000"
 2276 10c0 01       		.byte	0x1
 2277 10c1 85       		.byte	0x85
 2278 10c2 5D010000 		.4byte	0x15d
 2279 10c6 E4000000 		.4byte	.LLST7
 2280 10ca 26       		.uleb128 0x26
 2281 10cb 83000000 		.4byte	.LASF251
 2282 10cf E5100000 		.4byte	0x10e5
 2283 10d3 27       		.uleb128 0x27
 2284 10d4 0A000000 		.4byte	.LVL11
 2285 10d8 9E110000 		.4byte	0x119e
 2286 10dc 28       		.uleb128 0x28
 2287 10dd 01       		.uleb128 0x1
 2288 10de 50       		.byte	0x50
 2289 10df 03       		.uleb128 0x3
 2290 10e0 F3       		.byte	0xf3
 2291 10e1 01       		.uleb128 0x1
 2292 10e2 51       		.byte	0x51
 2293 10e3 00       		.byte	0
 2294 10e4 00       		.byte	0
 2295 10e5 18       		.uleb128 0x18
 2296 10e6 E5070000 		.4byte	0x7e5
 2297 10ea 20       		.uleb128 0x20
 2298 10eb 12080000 		.4byte	.LASF245
 2299 10ef 01       		.byte	0x1
 2300 10f0 98       		.byte	0x98
 2301 10f1 37000000 		.4byte	0x37
 2302 10f5 00000000 		.4byte	.LFB246
 2303 10f9 18000000 		.4byte	.LFE246-.LFB246
 2304 10fd 01       		.uleb128 0x1
 2305 10fe 9C       		.byte	0x9c
 2306 10ff 49110000 		.4byte	0x1149
 2307 1103 21       		.uleb128 0x21
 2308 1104 7200     		.ascii	"r\000"
 2309 1106 01       		.byte	0x1
 2310 1107 98       		.byte	0x98
 2311 1108 6A040000 		.4byte	0x46a
 2312 110c F7000000 		.4byte	.LLST8
 2313 1110 24       		.uleb128 0x24
 2314 1111 E8020000 		.4byte	.LASF238
 2315 1115 01       		.byte	0x1
 2316 1116 98       		.byte	0x98
 2317 1117 37000000 		.4byte	0x37
 2318 111b 18010000 		.4byte	.LLST9
 2319 111f 21       		.uleb128 0x21
 2320 1120 737400   		.ascii	"st\000"
 2321 1123 01       		.byte	0x1
 2322 1124 98       		.byte	0x98
 2323 1125 49110000 		.4byte	0x1149
 2324 1129 39010000 		.4byte	.LLST10
 2325 112d 27       		.uleb128 0x27
 2326 112e 0E000000 		.4byte	.LVL18
ARM GAS  /tmp/cc0zjQRA.s 			page 42


 2327 1132 B3110000 		.4byte	0x11b3
 2328 1136 28       		.uleb128 0x28
 2329 1137 01       		.uleb128 0x1
 2330 1138 52       		.byte	0x52
 2331 1139 02       		.uleb128 0x2
 2332 113a 08       		.byte	0x8
 2333 113b 3C       		.byte	0x3c
 2334 113c 28       		.uleb128 0x28
 2335 113d 01       		.uleb128 0x1
 2336 113e 51       		.byte	0x51
 2337 113f 01       		.uleb128 0x1
 2338 1140 30       		.byte	0x30
 2339 1141 28       		.uleb128 0x28
 2340 1142 01       		.uleb128 0x1
 2341 1143 50       		.byte	0x50
 2342 1144 02       		.uleb128 0x2
 2343 1145 74       		.byte	0x74
 2344 1146 00       		.sleb128 0
 2345 1147 00       		.byte	0
 2346 1148 00       		.byte	0
 2347 1149 0F       		.uleb128 0xf
 2348 114a 04       		.byte	0x4
 2349 114b 1C090000 		.4byte	0x91c
 2350 114f 20       		.uleb128 0x20
 2351 1150 C2020000 		.4byte	.LASF246
 2352 1154 01       		.byte	0x1
 2353 1155 A4       		.byte	0xa4
 2354 1156 37000000 		.4byte	0x37
 2355 115a 00000000 		.4byte	.LFB247
 2356 115e 04000000 		.4byte	.LFE247-.LFB247
 2357 1162 01       		.uleb128 0x1
 2358 1163 9C       		.byte	0x9c
 2359 1164 82110000 		.4byte	0x1182
 2360 1168 21       		.uleb128 0x21
 2361 1169 7200     		.ascii	"r\000"
 2362 116b 01       		.byte	0x1
 2363 116c A4       		.byte	0xa4
 2364 116d 6A040000 		.4byte	0x46a
 2365 1171 62010000 		.4byte	.LLST11
 2366 1175 23       		.uleb128 0x23
 2367 1176 666400   		.ascii	"fd\000"
 2368 1179 01       		.byte	0x1
 2369 117a A4       		.byte	0xa4
 2370 117b 37000000 		.4byte	0x37
 2371 117f 01       		.uleb128 0x1
 2372 1180 51       		.byte	0x51
 2373 1181 00       		.byte	0
 2374 1182 29       		.uleb128 0x29
 2375 1183 18060000 		.4byte	.LASF247
 2376 1187 12       		.byte	0x12
 2377 1188 FA06     		.2byte	0x6fa
 2378 118a 8E110000 		.4byte	0x118e
 2379 118e 1F       		.uleb128 0x1f
 2380 118f 100A0000 		.4byte	0xa10
 2381 1193 2A       		.uleb128 0x2a
 2382 1194 636800   		.ascii	"ch\000"
 2383 1197 0C       		.byte	0xc
ARM GAS  /tmp/cc0zjQRA.s 			page 43


 2384 1198 0B02     		.2byte	0x20b
 2385 119a 340D0000 		.4byte	0xd34
 2386 119e 2B       		.uleb128 0x2b
 2387 119f 03030000 		.4byte	.LASF252
 2388 11a3 13       		.byte	0x13
 2389 11a4 62       		.byte	0x62
 2390 11a5 5D010000 		.4byte	0x15d
 2391 11a9 B3110000 		.4byte	0x11b3
 2392 11ad 14       		.uleb128 0x14
 2393 11ae 25000000 		.4byte	0x25
 2394 11b2 00       		.byte	0
 2395 11b3 2C       		.uleb128 0x2c
 2396 11b4 9A020000 		.4byte	.LASF253
 2397 11b8 5D010000 		.4byte	0x15d
 2398 11bc 14       		.uleb128 0x14
 2399 11bd 5D010000 		.4byte	0x15d
 2400 11c1 14       		.uleb128 0x14
 2401 11c2 37000000 		.4byte	0x37
 2402 11c6 14       		.uleb128 0x14
 2403 11c7 1F010000 		.4byte	0x11f
 2404 11cb 00       		.byte	0
 2405 11cc 00       		.byte	0
 2406              		.section	.debug_abbrev,"",%progbits
 2407              	.Ldebug_abbrev0:
 2408 0000 01       		.uleb128 0x1
 2409 0001 11       		.uleb128 0x11
 2410 0002 01       		.byte	0x1
 2411 0003 25       		.uleb128 0x25
 2412 0004 0E       		.uleb128 0xe
 2413 0005 13       		.uleb128 0x13
 2414 0006 0B       		.uleb128 0xb
 2415 0007 03       		.uleb128 0x3
 2416 0008 0E       		.uleb128 0xe
 2417 0009 1B       		.uleb128 0x1b
 2418 000a 0E       		.uleb128 0xe
 2419 000b 55       		.uleb128 0x55
 2420 000c 17       		.uleb128 0x17
 2421 000d 11       		.uleb128 0x11
 2422 000e 01       		.uleb128 0x1
 2423 000f 10       		.uleb128 0x10
 2424 0010 17       		.uleb128 0x17
 2425 0011 00       		.byte	0
 2426 0012 00       		.byte	0
 2427 0013 02       		.uleb128 0x2
 2428 0014 16       		.uleb128 0x16
 2429 0015 00       		.byte	0
 2430 0016 03       		.uleb128 0x3
 2431 0017 0E       		.uleb128 0xe
 2432 0018 3A       		.uleb128 0x3a
 2433 0019 0B       		.uleb128 0xb
 2434 001a 3B       		.uleb128 0x3b
 2435 001b 0B       		.uleb128 0xb
 2436 001c 49       		.uleb128 0x49
 2437 001d 13       		.uleb128 0x13
 2438 001e 00       		.byte	0
 2439 001f 00       		.byte	0
 2440 0020 03       		.uleb128 0x3
ARM GAS  /tmp/cc0zjQRA.s 			page 44


 2441 0021 24       		.uleb128 0x24
 2442 0022 00       		.byte	0
 2443 0023 0B       		.uleb128 0xb
 2444 0024 0B       		.uleb128 0xb
 2445 0025 3E       		.uleb128 0x3e
 2446 0026 0B       		.uleb128 0xb
 2447 0027 03       		.uleb128 0x3
 2448 0028 0E       		.uleb128 0xe
 2449 0029 00       		.byte	0
 2450 002a 00       		.byte	0
 2451 002b 04       		.uleb128 0x4
 2452 002c 24       		.uleb128 0x24
 2453 002d 00       		.byte	0
 2454 002e 0B       		.uleb128 0xb
 2455 002f 0B       		.uleb128 0xb
 2456 0030 3E       		.uleb128 0x3e
 2457 0031 0B       		.uleb128 0xb
 2458 0032 03       		.uleb128 0x3
 2459 0033 08       		.uleb128 0x8
 2460 0034 00       		.byte	0
 2461 0035 00       		.byte	0
 2462 0036 05       		.uleb128 0x5
 2463 0037 16       		.uleb128 0x16
 2464 0038 00       		.byte	0
 2465 0039 03       		.uleb128 0x3
 2466 003a 0E       		.uleb128 0xe
 2467 003b 3A       		.uleb128 0x3a
 2468 003c 0B       		.uleb128 0xb
 2469 003d 3B       		.uleb128 0x3b
 2470 003e 05       		.uleb128 0x5
 2471 003f 49       		.uleb128 0x49
 2472 0040 13       		.uleb128 0x13
 2473 0041 00       		.byte	0
 2474 0042 00       		.byte	0
 2475 0043 06       		.uleb128 0x6
 2476 0044 17       		.uleb128 0x17
 2477 0045 01       		.byte	0x1
 2478 0046 0B       		.uleb128 0xb
 2479 0047 0B       		.uleb128 0xb
 2480 0048 3A       		.uleb128 0x3a
 2481 0049 0B       		.uleb128 0xb
 2482 004a 3B       		.uleb128 0x3b
 2483 004b 0B       		.uleb128 0xb
 2484 004c 01       		.uleb128 0x1
 2485 004d 13       		.uleb128 0x13
 2486 004e 00       		.byte	0
 2487 004f 00       		.byte	0
 2488 0050 07       		.uleb128 0x7
 2489 0051 0D       		.uleb128 0xd
 2490 0052 00       		.byte	0
 2491 0053 03       		.uleb128 0x3
 2492 0054 0E       		.uleb128 0xe
 2493 0055 3A       		.uleb128 0x3a
 2494 0056 0B       		.uleb128 0xb
 2495 0057 3B       		.uleb128 0x3b
 2496 0058 0B       		.uleb128 0xb
 2497 0059 49       		.uleb128 0x49
ARM GAS  /tmp/cc0zjQRA.s 			page 45


 2498 005a 13       		.uleb128 0x13
 2499 005b 00       		.byte	0
 2500 005c 00       		.byte	0
 2501 005d 08       		.uleb128 0x8
 2502 005e 01       		.uleb128 0x1
 2503 005f 01       		.byte	0x1
 2504 0060 49       		.uleb128 0x49
 2505 0061 13       		.uleb128 0x13
 2506 0062 01       		.uleb128 0x1
 2507 0063 13       		.uleb128 0x13
 2508 0064 00       		.byte	0
 2509 0065 00       		.byte	0
 2510 0066 09       		.uleb128 0x9
 2511 0067 21       		.uleb128 0x21
 2512 0068 00       		.byte	0
 2513 0069 49       		.uleb128 0x49
 2514 006a 13       		.uleb128 0x13
 2515 006b 2F       		.uleb128 0x2f
 2516 006c 0B       		.uleb128 0xb
 2517 006d 00       		.byte	0
 2518 006e 00       		.byte	0
 2519 006f 0A       		.uleb128 0xa
 2520 0070 13       		.uleb128 0x13
 2521 0071 01       		.byte	0x1
 2522 0072 0B       		.uleb128 0xb
 2523 0073 0B       		.uleb128 0xb
 2524 0074 3A       		.uleb128 0x3a
 2525 0075 0B       		.uleb128 0xb
 2526 0076 3B       		.uleb128 0x3b
 2527 0077 0B       		.uleb128 0xb
 2528 0078 01       		.uleb128 0x1
 2529 0079 13       		.uleb128 0x13
 2530 007a 00       		.byte	0
 2531 007b 00       		.byte	0
 2532 007c 0B       		.uleb128 0xb
 2533 007d 0D       		.uleb128 0xd
 2534 007e 00       		.byte	0
 2535 007f 03       		.uleb128 0x3
 2536 0080 0E       		.uleb128 0xe
 2537 0081 3A       		.uleb128 0x3a
 2538 0082 0B       		.uleb128 0xb
 2539 0083 3B       		.uleb128 0x3b
 2540 0084 0B       		.uleb128 0xb
 2541 0085 49       		.uleb128 0x49
 2542 0086 13       		.uleb128 0x13
 2543 0087 38       		.uleb128 0x38
 2544 0088 0B       		.uleb128 0xb
 2545 0089 00       		.byte	0
 2546 008a 00       		.byte	0
 2547 008b 0C       		.uleb128 0xc
 2548 008c 0F       		.uleb128 0xf
 2549 008d 00       		.byte	0
 2550 008e 0B       		.uleb128 0xb
 2551 008f 0B       		.uleb128 0xb
 2552 0090 00       		.byte	0
 2553 0091 00       		.byte	0
 2554 0092 0D       		.uleb128 0xd
ARM GAS  /tmp/cc0zjQRA.s 			page 46


 2555 0093 13       		.uleb128 0x13
 2556 0094 01       		.byte	0x1
 2557 0095 03       		.uleb128 0x3
 2558 0096 0E       		.uleb128 0xe
 2559 0097 0B       		.uleb128 0xb
 2560 0098 0B       		.uleb128 0xb
 2561 0099 3A       		.uleb128 0x3a
 2562 009a 0B       		.uleb128 0xb
 2563 009b 3B       		.uleb128 0x3b
 2564 009c 0B       		.uleb128 0xb
 2565 009d 01       		.uleb128 0x1
 2566 009e 13       		.uleb128 0x13
 2567 009f 00       		.byte	0
 2568 00a0 00       		.byte	0
 2569 00a1 0E       		.uleb128 0xe
 2570 00a2 0D       		.uleb128 0xd
 2571 00a3 00       		.byte	0
 2572 00a4 03       		.uleb128 0x3
 2573 00a5 08       		.uleb128 0x8
 2574 00a6 3A       		.uleb128 0x3a
 2575 00a7 0B       		.uleb128 0xb
 2576 00a8 3B       		.uleb128 0x3b
 2577 00a9 0B       		.uleb128 0xb
 2578 00aa 49       		.uleb128 0x49
 2579 00ab 13       		.uleb128 0x13
 2580 00ac 38       		.uleb128 0x38
 2581 00ad 0B       		.uleb128 0xb
 2582 00ae 00       		.byte	0
 2583 00af 00       		.byte	0
 2584 00b0 0F       		.uleb128 0xf
 2585 00b1 0F       		.uleb128 0xf
 2586 00b2 00       		.byte	0
 2587 00b3 0B       		.uleb128 0xb
 2588 00b4 0B       		.uleb128 0xb
 2589 00b5 49       		.uleb128 0x49
 2590 00b6 13       		.uleb128 0x13
 2591 00b7 00       		.byte	0
 2592 00b8 00       		.byte	0
 2593 00b9 10       		.uleb128 0x10
 2594 00ba 13       		.uleb128 0x13
 2595 00bb 01       		.byte	0x1
 2596 00bc 03       		.uleb128 0x3
 2597 00bd 0E       		.uleb128 0xe
 2598 00be 0B       		.uleb128 0xb
 2599 00bf 05       		.uleb128 0x5
 2600 00c0 3A       		.uleb128 0x3a
 2601 00c1 0B       		.uleb128 0xb
 2602 00c2 3B       		.uleb128 0x3b
 2603 00c3 0B       		.uleb128 0xb
 2604 00c4 01       		.uleb128 0x1
 2605 00c5 13       		.uleb128 0x13
 2606 00c6 00       		.byte	0
 2607 00c7 00       		.byte	0
 2608 00c8 11       		.uleb128 0x11
 2609 00c9 0D       		.uleb128 0xd
 2610 00ca 00       		.byte	0
 2611 00cb 03       		.uleb128 0x3
ARM GAS  /tmp/cc0zjQRA.s 			page 47


 2612 00cc 0E       		.uleb128 0xe
 2613 00cd 3A       		.uleb128 0x3a
 2614 00ce 0B       		.uleb128 0xb
 2615 00cf 3B       		.uleb128 0x3b
 2616 00d0 0B       		.uleb128 0xb
 2617 00d1 49       		.uleb128 0x49
 2618 00d2 13       		.uleb128 0x13
 2619 00d3 38       		.uleb128 0x38
 2620 00d4 05       		.uleb128 0x5
 2621 00d5 00       		.byte	0
 2622 00d6 00       		.byte	0
 2623 00d7 12       		.uleb128 0x12
 2624 00d8 15       		.uleb128 0x15
 2625 00d9 00       		.byte	0
 2626 00da 27       		.uleb128 0x27
 2627 00db 19       		.uleb128 0x19
 2628 00dc 00       		.byte	0
 2629 00dd 00       		.byte	0
 2630 00de 13       		.uleb128 0x13
 2631 00df 15       		.uleb128 0x15
 2632 00e0 01       		.byte	0x1
 2633 00e1 27       		.uleb128 0x27
 2634 00e2 19       		.uleb128 0x19
 2635 00e3 49       		.uleb128 0x49
 2636 00e4 13       		.uleb128 0x13
 2637 00e5 01       		.uleb128 0x1
 2638 00e6 13       		.uleb128 0x13
 2639 00e7 00       		.byte	0
 2640 00e8 00       		.byte	0
 2641 00e9 14       		.uleb128 0x14
 2642 00ea 05       		.uleb128 0x5
 2643 00eb 00       		.byte	0
 2644 00ec 49       		.uleb128 0x49
 2645 00ed 13       		.uleb128 0x13
 2646 00ee 00       		.byte	0
 2647 00ef 00       		.byte	0
 2648 00f0 15       		.uleb128 0x15
 2649 00f1 13       		.uleb128 0x13
 2650 00f2 01       		.byte	0x1
 2651 00f3 03       		.uleb128 0x3
 2652 00f4 0E       		.uleb128 0xe
 2653 00f5 0B       		.uleb128 0xb
 2654 00f6 05       		.uleb128 0x5
 2655 00f7 3A       		.uleb128 0x3a
 2656 00f8 0B       		.uleb128 0xb
 2657 00f9 3B       		.uleb128 0x3b
 2658 00fa 05       		.uleb128 0x5
 2659 00fb 01       		.uleb128 0x1
 2660 00fc 13       		.uleb128 0x13
 2661 00fd 00       		.byte	0
 2662 00fe 00       		.byte	0
 2663 00ff 16       		.uleb128 0x16
 2664 0100 0D       		.uleb128 0xd
 2665 0101 00       		.byte	0
 2666 0102 03       		.uleb128 0x3
 2667 0103 0E       		.uleb128 0xe
 2668 0104 3A       		.uleb128 0x3a
ARM GAS  /tmp/cc0zjQRA.s 			page 48


 2669 0105 0B       		.uleb128 0xb
 2670 0106 3B       		.uleb128 0x3b
 2671 0107 05       		.uleb128 0x5
 2672 0108 49       		.uleb128 0x49
 2673 0109 13       		.uleb128 0x13
 2674 010a 38       		.uleb128 0x38
 2675 010b 0B       		.uleb128 0xb
 2676 010c 00       		.byte	0
 2677 010d 00       		.byte	0
 2678 010e 17       		.uleb128 0x17
 2679 010f 0D       		.uleb128 0xd
 2680 0110 00       		.byte	0
 2681 0111 03       		.uleb128 0x3
 2682 0112 0E       		.uleb128 0xe
 2683 0113 3A       		.uleb128 0x3a
 2684 0114 0B       		.uleb128 0xb
 2685 0115 3B       		.uleb128 0x3b
 2686 0116 05       		.uleb128 0x5
 2687 0117 49       		.uleb128 0x49
 2688 0118 13       		.uleb128 0x13
 2689 0119 38       		.uleb128 0x38
 2690 011a 05       		.uleb128 0x5
 2691 011b 00       		.byte	0
 2692 011c 00       		.byte	0
 2693 011d 18       		.uleb128 0x18
 2694 011e 26       		.uleb128 0x26
 2695 011f 00       		.byte	0
 2696 0120 49       		.uleb128 0x49
 2697 0121 13       		.uleb128 0x13
 2698 0122 00       		.byte	0
 2699 0123 00       		.byte	0
 2700 0124 19       		.uleb128 0x19
 2701 0125 13       		.uleb128 0x13
 2702 0126 01       		.byte	0x1
 2703 0127 03       		.uleb128 0x3
 2704 0128 0E       		.uleb128 0xe
 2705 0129 0B       		.uleb128 0xb
 2706 012a 0B       		.uleb128 0xb
 2707 012b 3A       		.uleb128 0x3a
 2708 012c 0B       		.uleb128 0xb
 2709 012d 3B       		.uleb128 0x3b
 2710 012e 05       		.uleb128 0x5
 2711 012f 01       		.uleb128 0x1
 2712 0130 13       		.uleb128 0x13
 2713 0131 00       		.byte	0
 2714 0132 00       		.byte	0
 2715 0133 1A       		.uleb128 0x1a
 2716 0134 13       		.uleb128 0x13
 2717 0135 01       		.byte	0x1
 2718 0136 0B       		.uleb128 0xb
 2719 0137 0B       		.uleb128 0xb
 2720 0138 3A       		.uleb128 0x3a
 2721 0139 0B       		.uleb128 0xb
 2722 013a 3B       		.uleb128 0x3b
 2723 013b 05       		.uleb128 0x5
 2724 013c 01       		.uleb128 0x1
 2725 013d 13       		.uleb128 0x13
ARM GAS  /tmp/cc0zjQRA.s 			page 49


 2726 013e 00       		.byte	0
 2727 013f 00       		.byte	0
 2728 0140 1B       		.uleb128 0x1b
 2729 0141 17       		.uleb128 0x17
 2730 0142 01       		.byte	0x1
 2731 0143 0B       		.uleb128 0xb
 2732 0144 0B       		.uleb128 0xb
 2733 0145 3A       		.uleb128 0x3a
 2734 0146 0B       		.uleb128 0xb
 2735 0147 3B       		.uleb128 0x3b
 2736 0148 05       		.uleb128 0x5
 2737 0149 01       		.uleb128 0x1
 2738 014a 13       		.uleb128 0x13
 2739 014b 00       		.byte	0
 2740 014c 00       		.byte	0
 2741 014d 1C       		.uleb128 0x1c
 2742 014e 0D       		.uleb128 0xd
 2743 014f 00       		.byte	0
 2744 0150 03       		.uleb128 0x3
 2745 0151 0E       		.uleb128 0xe
 2746 0152 3A       		.uleb128 0x3a
 2747 0153 0B       		.uleb128 0xb
 2748 0154 3B       		.uleb128 0x3b
 2749 0155 05       		.uleb128 0x5
 2750 0156 49       		.uleb128 0x49
 2751 0157 13       		.uleb128 0x13
 2752 0158 00       		.byte	0
 2753 0159 00       		.byte	0
 2754 015a 1D       		.uleb128 0x1d
 2755 015b 15       		.uleb128 0x15
 2756 015c 01       		.byte	0x1
 2757 015d 27       		.uleb128 0x27
 2758 015e 19       		.uleb128 0x19
 2759 015f 01       		.uleb128 0x1
 2760 0160 13       		.uleb128 0x13
 2761 0161 00       		.byte	0
 2762 0162 00       		.byte	0
 2763 0163 1E       		.uleb128 0x1e
 2764 0164 0D       		.uleb128 0xd
 2765 0165 00       		.byte	0
 2766 0166 03       		.uleb128 0x3
 2767 0167 08       		.uleb128 0x8
 2768 0168 3A       		.uleb128 0x3a
 2769 0169 0B       		.uleb128 0xb
 2770 016a 3B       		.uleb128 0x3b
 2771 016b 05       		.uleb128 0x5
 2772 016c 49       		.uleb128 0x49
 2773 016d 13       		.uleb128 0x13
 2774 016e 38       		.uleb128 0x38
 2775 016f 0B       		.uleb128 0xb
 2776 0170 00       		.byte	0
 2777 0171 00       		.byte	0
 2778 0172 1F       		.uleb128 0x1f
 2779 0173 35       		.uleb128 0x35
 2780 0174 00       		.byte	0
 2781 0175 49       		.uleb128 0x49
 2782 0176 13       		.uleb128 0x13
ARM GAS  /tmp/cc0zjQRA.s 			page 50


 2783 0177 00       		.byte	0
 2784 0178 00       		.byte	0
 2785 0179 20       		.uleb128 0x20
 2786 017a 2E       		.uleb128 0x2e
 2787 017b 01       		.byte	0x1
 2788 017c 3F       		.uleb128 0x3f
 2789 017d 19       		.uleb128 0x19
 2790 017e 03       		.uleb128 0x3
 2791 017f 0E       		.uleb128 0xe
 2792 0180 3A       		.uleb128 0x3a
 2793 0181 0B       		.uleb128 0xb
 2794 0182 3B       		.uleb128 0x3b
 2795 0183 0B       		.uleb128 0xb
 2796 0184 27       		.uleb128 0x27
 2797 0185 19       		.uleb128 0x19
 2798 0186 49       		.uleb128 0x49
 2799 0187 13       		.uleb128 0x13
 2800 0188 11       		.uleb128 0x11
 2801 0189 01       		.uleb128 0x1
 2802 018a 12       		.uleb128 0x12
 2803 018b 06       		.uleb128 0x6
 2804 018c 40       		.uleb128 0x40
 2805 018d 18       		.uleb128 0x18
 2806 018e 9742     		.uleb128 0x2117
 2807 0190 19       		.uleb128 0x19
 2808 0191 01       		.uleb128 0x1
 2809 0192 13       		.uleb128 0x13
 2810 0193 00       		.byte	0
 2811 0194 00       		.byte	0
 2812 0195 21       		.uleb128 0x21
 2813 0196 05       		.uleb128 0x5
 2814 0197 00       		.byte	0
 2815 0198 03       		.uleb128 0x3
 2816 0199 08       		.uleb128 0x8
 2817 019a 3A       		.uleb128 0x3a
 2818 019b 0B       		.uleb128 0xb
 2819 019c 3B       		.uleb128 0x3b
 2820 019d 0B       		.uleb128 0xb
 2821 019e 49       		.uleb128 0x49
 2822 019f 13       		.uleb128 0x13
 2823 01a0 02       		.uleb128 0x2
 2824 01a1 17       		.uleb128 0x17
 2825 01a2 00       		.byte	0
 2826 01a3 00       		.byte	0
 2827 01a4 22       		.uleb128 0x22
 2828 01a5 05       		.uleb128 0x5
 2829 01a6 00       		.byte	0
 2830 01a7 03       		.uleb128 0x3
 2831 01a8 0E       		.uleb128 0xe
 2832 01a9 3A       		.uleb128 0x3a
 2833 01aa 0B       		.uleb128 0xb
 2834 01ab 3B       		.uleb128 0x3b
 2835 01ac 0B       		.uleb128 0xb
 2836 01ad 49       		.uleb128 0x49
 2837 01ae 13       		.uleb128 0x13
 2838 01af 02       		.uleb128 0x2
 2839 01b0 18       		.uleb128 0x18
ARM GAS  /tmp/cc0zjQRA.s 			page 51


 2840 01b1 00       		.byte	0
 2841 01b2 00       		.byte	0
 2842 01b3 23       		.uleb128 0x23
 2843 01b4 05       		.uleb128 0x5
 2844 01b5 00       		.byte	0
 2845 01b6 03       		.uleb128 0x3
 2846 01b7 08       		.uleb128 0x8
 2847 01b8 3A       		.uleb128 0x3a
 2848 01b9 0B       		.uleb128 0xb
 2849 01ba 3B       		.uleb128 0x3b
 2850 01bb 0B       		.uleb128 0xb
 2851 01bc 49       		.uleb128 0x49
 2852 01bd 13       		.uleb128 0x13
 2853 01be 02       		.uleb128 0x2
 2854 01bf 18       		.uleb128 0x18
 2855 01c0 00       		.byte	0
 2856 01c1 00       		.byte	0
 2857 01c2 24       		.uleb128 0x24
 2858 01c3 05       		.uleb128 0x5
 2859 01c4 00       		.byte	0
 2860 01c5 03       		.uleb128 0x3
 2861 01c6 0E       		.uleb128 0xe
 2862 01c7 3A       		.uleb128 0x3a
 2863 01c8 0B       		.uleb128 0xb
 2864 01c9 3B       		.uleb128 0x3b
 2865 01ca 0B       		.uleb128 0xb
 2866 01cb 49       		.uleb128 0x49
 2867 01cc 13       		.uleb128 0x13
 2868 01cd 02       		.uleb128 0x2
 2869 01ce 17       		.uleb128 0x17
 2870 01cf 00       		.byte	0
 2871 01d0 00       		.byte	0
 2872 01d1 25       		.uleb128 0x25
 2873 01d2 34       		.uleb128 0x34
 2874 01d3 00       		.byte	0
 2875 01d4 03       		.uleb128 0x3
 2876 01d5 08       		.uleb128 0x8
 2877 01d6 3A       		.uleb128 0x3a
 2878 01d7 0B       		.uleb128 0xb
 2879 01d8 3B       		.uleb128 0x3b
 2880 01d9 0B       		.uleb128 0xb
 2881 01da 49       		.uleb128 0x49
 2882 01db 13       		.uleb128 0x13
 2883 01dc 02       		.uleb128 0x2
 2884 01dd 17       		.uleb128 0x17
 2885 01de 00       		.byte	0
 2886 01df 00       		.byte	0
 2887 01e0 26       		.uleb128 0x26
 2888 01e1 34       		.uleb128 0x34
 2889 01e2 00       		.byte	0
 2890 01e3 03       		.uleb128 0x3
 2891 01e4 0E       		.uleb128 0xe
 2892 01e5 49       		.uleb128 0x49
 2893 01e6 13       		.uleb128 0x13
 2894 01e7 34       		.uleb128 0x34
 2895 01e8 19       		.uleb128 0x19
 2896 01e9 00       		.byte	0
ARM GAS  /tmp/cc0zjQRA.s 			page 52


 2897 01ea 00       		.byte	0
 2898 01eb 27       		.uleb128 0x27
 2899 01ec 898201   		.uleb128 0x4109
 2900 01ef 01       		.byte	0x1
 2901 01f0 11       		.uleb128 0x11
 2902 01f1 01       		.uleb128 0x1
 2903 01f2 31       		.uleb128 0x31
 2904 01f3 13       		.uleb128 0x13
 2905 01f4 00       		.byte	0
 2906 01f5 00       		.byte	0
 2907 01f6 28       		.uleb128 0x28
 2908 01f7 8A8201   		.uleb128 0x410a
 2909 01fa 00       		.byte	0
 2910 01fb 02       		.uleb128 0x2
 2911 01fc 18       		.uleb128 0x18
 2912 01fd 9142     		.uleb128 0x2111
 2913 01ff 18       		.uleb128 0x18
 2914 0200 00       		.byte	0
 2915 0201 00       		.byte	0
 2916 0202 29       		.uleb128 0x29
 2917 0203 34       		.uleb128 0x34
 2918 0204 00       		.byte	0
 2919 0205 03       		.uleb128 0x3
 2920 0206 0E       		.uleb128 0xe
 2921 0207 3A       		.uleb128 0x3a
 2922 0208 0B       		.uleb128 0xb
 2923 0209 3B       		.uleb128 0x3b
 2924 020a 05       		.uleb128 0x5
 2925 020b 49       		.uleb128 0x49
 2926 020c 13       		.uleb128 0x13
 2927 020d 3F       		.uleb128 0x3f
 2928 020e 19       		.uleb128 0x19
 2929 020f 3C       		.uleb128 0x3c
 2930 0210 19       		.uleb128 0x19
 2931 0211 00       		.byte	0
 2932 0212 00       		.byte	0
 2933 0213 2A       		.uleb128 0x2a
 2934 0214 34       		.uleb128 0x34
 2935 0215 00       		.byte	0
 2936 0216 03       		.uleb128 0x3
 2937 0217 08       		.uleb128 0x8
 2938 0218 3A       		.uleb128 0x3a
 2939 0219 0B       		.uleb128 0xb
 2940 021a 3B       		.uleb128 0x3b
 2941 021b 05       		.uleb128 0x5
 2942 021c 49       		.uleb128 0x49
 2943 021d 13       		.uleb128 0x13
 2944 021e 3F       		.uleb128 0x3f
 2945 021f 19       		.uleb128 0x19
 2946 0220 3C       		.uleb128 0x3c
 2947 0221 19       		.uleb128 0x19
 2948 0222 00       		.byte	0
 2949 0223 00       		.byte	0
 2950 0224 2B       		.uleb128 0x2b
 2951 0225 2E       		.uleb128 0x2e
 2952 0226 01       		.byte	0x1
 2953 0227 3F       		.uleb128 0x3f
ARM GAS  /tmp/cc0zjQRA.s 			page 53


 2954 0228 19       		.uleb128 0x19
 2955 0229 03       		.uleb128 0x3
 2956 022a 0E       		.uleb128 0xe
 2957 022b 3A       		.uleb128 0x3a
 2958 022c 0B       		.uleb128 0xb
 2959 022d 3B       		.uleb128 0x3b
 2960 022e 0B       		.uleb128 0xb
 2961 022f 27       		.uleb128 0x27
 2962 0230 19       		.uleb128 0x19
 2963 0231 49       		.uleb128 0x49
 2964 0232 13       		.uleb128 0x13
 2965 0233 3C       		.uleb128 0x3c
 2966 0234 19       		.uleb128 0x19
 2967 0235 01       		.uleb128 0x1
 2968 0236 13       		.uleb128 0x13
 2969 0237 00       		.byte	0
 2970 0238 00       		.byte	0
 2971 0239 2C       		.uleb128 0x2c
 2972 023a 2E       		.uleb128 0x2e
 2973 023b 01       		.byte	0x1
 2974 023c 3F       		.uleb128 0x3f
 2975 023d 19       		.uleb128 0x19
 2976 023e 03       		.uleb128 0x3
 2977 023f 0E       		.uleb128 0xe
 2978 0240 27       		.uleb128 0x27
 2979 0241 19       		.uleb128 0x19
 2980 0242 49       		.uleb128 0x49
 2981 0243 13       		.uleb128 0x13
 2982 0244 34       		.uleb128 0x34
 2983 0245 19       		.uleb128 0x19
 2984 0246 3C       		.uleb128 0x3c
 2985 0247 19       		.uleb128 0x19
 2986 0248 00       		.byte	0
 2987 0249 00       		.byte	0
 2988 024a 00       		.byte	0
 2989              		.section	.debug_loc,"",%progbits
 2990              	.Ldebug_loc0:
 2991              	.LLST0:
 2992 0000 00000000 		.4byte	.LVL0
 2993 0004 08000000 		.4byte	.LVL2
 2994 0008 0100     		.2byte	0x1
 2995 000a 50       		.byte	0x50
 2996 000b 08000000 		.4byte	.LVL2
 2997 000f 0A000000 		.4byte	.LFE241
 2998 0013 0400     		.2byte	0x4
 2999 0015 F3       		.byte	0xf3
 3000 0016 01       		.uleb128 0x1
 3001 0017 50       		.byte	0x50
 3002 0018 9F       		.byte	0x9f
 3003 0019 00000000 		.4byte	0
 3004 001d 00000000 		.4byte	0
 3005              	.LLST1:
 3006 0021 00000000 		.4byte	.LVL0
 3007 0025 02000000 		.4byte	.LVL1
 3008 0029 0100     		.2byte	0x1
 3009 002b 53       		.byte	0x53
 3010 002c 02000000 		.4byte	.LVL1
ARM GAS  /tmp/cc0zjQRA.s 			page 54


 3011 0030 0A000000 		.4byte	.LFE241
 3012 0034 0400     		.2byte	0x4
 3013 0036 F3       		.byte	0xf3
 3014 0037 01       		.uleb128 0x1
 3015 0038 53       		.byte	0x53
 3016 0039 9F       		.byte	0x9f
 3017 003a 00000000 		.4byte	0
 3018 003e 00000000 		.4byte	0
 3019              	.LLST2:
 3020 0042 00000000 		.4byte	.LVL3
 3021 0046 02000000 		.4byte	.LVL4
 3022 004a 0100     		.2byte	0x1
 3023 004c 50       		.byte	0x50
 3024 004d 02000000 		.4byte	.LVL4
 3025 0051 04000000 		.4byte	.LFE242
 3026 0055 0400     		.2byte	0x4
 3027 0057 F3       		.byte	0xf3
 3028 0058 01       		.uleb128 0x1
 3029 0059 50       		.byte	0x50
 3030 005a 9F       		.byte	0x9f
 3031 005b 00000000 		.4byte	0
 3032 005f 00000000 		.4byte	0
 3033              	.LLST3:
 3034 0063 00000000 		.4byte	.LVL5
 3035 0067 02000000 		.4byte	.LVL6
 3036 006b 0100     		.2byte	0x1
 3037 006d 50       		.byte	0x50
 3038 006e 02000000 		.4byte	.LVL6
 3039 0072 04000000 		.4byte	.LFE243
 3040 0076 0400     		.2byte	0x4
 3041 0078 F3       		.byte	0xf3
 3042 0079 01       		.uleb128 0x1
 3043 007a 50       		.byte	0x50
 3044 007b 9F       		.byte	0x9f
 3045 007c 00000000 		.4byte	0
 3046 0080 00000000 		.4byte	0
 3047              	.LLST4:
 3048 0084 00000000 		.4byte	.LVL7
 3049 0088 02000000 		.4byte	.LVL8
 3050 008c 0100     		.2byte	0x1
 3051 008e 50       		.byte	0x50
 3052 008f 02000000 		.4byte	.LVL8
 3053 0093 04000000 		.4byte	.LFE244
 3054 0097 0400     		.2byte	0x4
 3055 0099 F3       		.byte	0xf3
 3056 009a 01       		.uleb128 0x1
 3057 009b 50       		.byte	0x50
 3058 009c 9F       		.byte	0x9f
 3059 009d 00000000 		.4byte	0
 3060 00a1 00000000 		.4byte	0
 3061              	.LLST5:
 3062 00a5 00000000 		.4byte	.LVL9
 3063 00a9 06000000 		.4byte	.LVL10
 3064 00ad 0100     		.2byte	0x1
 3065 00af 50       		.byte	0x50
 3066 00b0 06000000 		.4byte	.LVL10
 3067 00b4 18000000 		.4byte	.LFE245
ARM GAS  /tmp/cc0zjQRA.s 			page 55


 3068 00b8 0100     		.2byte	0x1
 3069 00ba 54       		.byte	0x54
 3070 00bb 00000000 		.4byte	0
 3071 00bf 00000000 		.4byte	0
 3072              	.LLST6:
 3073 00c3 00000000 		.4byte	.LVL9
 3074 00c7 09000000 		.4byte	.LVL11-1
 3075 00cb 0100     		.2byte	0x1
 3076 00cd 51       		.byte	0x51
 3077 00ce 09000000 		.4byte	.LVL11-1
 3078 00d2 18000000 		.4byte	.LFE245
 3079 00d6 0400     		.2byte	0x4
 3080 00d8 F3       		.byte	0xf3
 3081 00d9 01       		.uleb128 0x1
 3082 00da 51       		.byte	0x51
 3083 00db 9F       		.byte	0x9f
 3084 00dc 00000000 		.4byte	0
 3085 00e0 00000000 		.4byte	0
 3086              	.LLST7:
 3087 00e4 0A000000 		.4byte	.LVL11
 3088 00e8 16000000 		.4byte	.LVL13
 3089 00ec 0100     		.2byte	0x1
 3090 00ee 50       		.byte	0x50
 3091 00ef 00000000 		.4byte	0
 3092 00f3 00000000 		.4byte	0
 3093              	.LLST8:
 3094 00f7 00000000 		.4byte	.LVL14
 3095 00fb 04000000 		.4byte	.LVL15
 3096 00ff 0100     		.2byte	0x1
 3097 0101 50       		.byte	0x50
 3098 0102 04000000 		.4byte	.LVL15
 3099 0106 18000000 		.4byte	.LFE246
 3100 010a 0400     		.2byte	0x4
 3101 010c F3       		.byte	0xf3
 3102 010d 01       		.uleb128 0x1
 3103 010e 50       		.byte	0x50
 3104 010f 9F       		.byte	0x9f
 3105 0110 00000000 		.4byte	0
 3106 0114 00000000 		.4byte	0
 3107              	.LLST9:
 3108 0118 00000000 		.4byte	.LVL14
 3109 011c 08000000 		.4byte	.LVL16
 3110 0120 0100     		.2byte	0x1
 3111 0122 51       		.byte	0x51
 3112 0123 08000000 		.4byte	.LVL16
 3113 0127 18000000 		.4byte	.LFE246
 3114 012b 0400     		.2byte	0x4
 3115 012d F3       		.byte	0xf3
 3116 012e 01       		.uleb128 0x1
 3117 012f 51       		.byte	0x51
 3118 0130 9F       		.byte	0x9f
 3119 0131 00000000 		.4byte	0
 3120 0135 00000000 		.4byte	0
 3121              	.LLST10:
 3122 0139 00000000 		.4byte	.LVL14
 3123 013d 0A000000 		.4byte	.LVL17
 3124 0141 0100     		.2byte	0x1
ARM GAS  /tmp/cc0zjQRA.s 			page 56


 3125 0143 52       		.byte	0x52
 3126 0144 0A000000 		.4byte	.LVL17
 3127 0148 0D000000 		.4byte	.LVL18-1
 3128 014c 0100     		.2byte	0x1
 3129 014e 50       		.byte	0x50
 3130 014f 0D000000 		.4byte	.LVL18-1
 3131 0153 18000000 		.4byte	.LFE246
 3132 0157 0100     		.2byte	0x1
 3133 0159 54       		.byte	0x54
 3134 015a 00000000 		.4byte	0
 3135 015e 00000000 		.4byte	0
 3136              	.LLST11:
 3137 0162 00000000 		.4byte	.LVL19
 3138 0166 02000000 		.4byte	.LVL20
 3139 016a 0100     		.2byte	0x1
 3140 016c 50       		.byte	0x50
 3141 016d 02000000 		.4byte	.LVL20
 3142 0171 04000000 		.4byte	.LFE247
 3143 0175 0400     		.2byte	0x4
 3144 0177 F3       		.byte	0xf3
 3145 0178 01       		.uleb128 0x1
 3146 0179 50       		.byte	0x50
 3147 017a 9F       		.byte	0x9f
 3148 017b 00000000 		.4byte	0
 3149 017f 00000000 		.4byte	0
 3150              		.section	.debug_aranges,"",%progbits
 3151 0000 4C000000 		.4byte	0x4c
 3152 0004 0200     		.2byte	0x2
 3153 0006 00000000 		.4byte	.Ldebug_info0
 3154 000a 04       		.byte	0x4
 3155 000b 00       		.byte	0
 3156 000c 0000     		.2byte	0
 3157 000e 0000     		.2byte	0
 3158 0010 00000000 		.4byte	.LFB241
 3159 0014 0A000000 		.4byte	.LFE241-.LFB241
 3160 0018 00000000 		.4byte	.LFB242
 3161 001c 04000000 		.4byte	.LFE242-.LFB242
 3162 0020 00000000 		.4byte	.LFB243
 3163 0024 04000000 		.4byte	.LFE243-.LFB243
 3164 0028 00000000 		.4byte	.LFB244
 3165 002c 04000000 		.4byte	.LFE244-.LFB244
 3166 0030 00000000 		.4byte	.LFB245
 3167 0034 18000000 		.4byte	.LFE245-.LFB245
 3168 0038 00000000 		.4byte	.LFB246
 3169 003c 18000000 		.4byte	.LFE246-.LFB246
 3170 0040 00000000 		.4byte	.LFB247
 3171 0044 04000000 		.4byte	.LFE247-.LFB247
 3172 0048 00000000 		.4byte	0
 3173 004c 00000000 		.4byte	0
 3174              		.section	.debug_ranges,"",%progbits
 3175              	.Ldebug_ranges0:
 3176 0000 00000000 		.4byte	.LFB241
 3177 0004 0A000000 		.4byte	.LFE241
 3178 0008 00000000 		.4byte	.LFB242
 3179 000c 04000000 		.4byte	.LFE242
 3180 0010 00000000 		.4byte	.LFB243
 3181 0014 04000000 		.4byte	.LFE243
ARM GAS  /tmp/cc0zjQRA.s 			page 57


 3182 0018 00000000 		.4byte	.LFB244
 3183 001c 04000000 		.4byte	.LFE244
 3184 0020 00000000 		.4byte	.LFB245
 3185 0024 18000000 		.4byte	.LFE245
 3186 0028 00000000 		.4byte	.LFB246
 3187 002c 18000000 		.4byte	.LFE246
 3188 0030 00000000 		.4byte	.LFB247
 3189 0034 04000000 		.4byte	.LFE247
 3190 0038 00000000 		.4byte	0
 3191 003c 00000000 		.4byte	0
 3192              		.section	.debug_line,"",%progbits
 3193              	.Ldebug_line0:
 3194 0000 F0030000 		.section	.debug_str,"MS",%progbits,1
 3194      02006003 
 3194      00000201 
 3194      FB0E0D00 
 3194      01010101 
 3195              	.LASF2:
 3196 0000 73697A65 		.ascii	"size_t\000"
 3196      5F7400
 3197              	.LASF23:
 3198 0007 73697A65 		.ascii	"sizetype\000"
 3198      74797065 
 3198      00
 3199              	.LASF25:
 3200 0010 5F5F7661 		.ascii	"__value\000"
 3200      6C756500 
 3201              	.LASF164:
 3202 0018 73797374 		.ascii	"systime_t\000"
 3202      696D655F 
 3202      7400
 3203              	.LASF93:
 3204 0022 5F5F7366 		.ascii	"__sf\000"
 3204      00
 3205              	.LASF170:
 3206 0027 705F6374 		.ascii	"p_ctx\000"
 3206      7800
 3207              	.LASF60:
 3208 002d 5F726561 		.ascii	"_read\000"
 3208      6400
 3209              	.LASF160:
 3210 0033 74707269 		.ascii	"tprio_t\000"
 3210      6F5F7400 
 3211              	.LASF150:
 3212 003b 73745F62 		.ascii	"st_blocks\000"
 3212      6C6F636B 
 3212      7300
 3213              	.LASF178:
 3214 0045 705F6D73 		.ascii	"p_msgqueue\000"
 3214      67717565 
 3214      756500
 3215              	.LASF61:
 3216 0050 5F777269 		.ascii	"_write\000"
 3216      746500
 3217              	.LASF192:
 3218 0057 725F6374 		.ascii	"r_ctx\000"
 3218      7800
ARM GAS  /tmp/cc0zjQRA.s 			page 58


 3219              	.LASF153:
 3220 005d 696E7433 		.ascii	"int32_t\000"
 3220      325F7400 
 3221              	.LASF105:
 3222 0065 5F617363 		.ascii	"_asctime_buf\000"
 3222      74696D65 
 3222      5F627566 
 3222      00
 3223              	.LASF87:
 3224 0072 5F637674 		.ascii	"_cvtlen\000"
 3224      6C656E00 
 3225              	.LASF196:
 3226 007a 76746675 		.ascii	"vtfunc_t\000"
 3226      6E635F74 
 3226      00
 3227              	.LASF251:
 3228 0083 5F5F6675 		.ascii	"__func__\000"
 3228      6E635F5F 
 3228      00
 3229              	.LASF205:
 3230 008c 63685F76 		.ascii	"ch_virtual_timers_list\000"
 3230      69727475 
 3230      616C5F74 
 3230      696D6572 
 3230      735F6C69 
 3231              	.LASF129:
 3232 00a3 6465765F 		.ascii	"dev_t\000"
 3232      7400
 3233              	.LASF133:
 3234 00a9 6E6C696E 		.ascii	"nlink_t\000"
 3234      6B5F7400 
 3235              	.LASF18:
 3236 00b1 5F5F6769 		.ascii	"__gid_t\000"
 3236      645F7400 
 3237              	.LASF124:
 3238 00b9 5F756E75 		.ascii	"_unused\000"
 3238      73656400 
 3239              	.LASF34:
 3240 00c1 5F5F746D 		.ascii	"__tm\000"
 3240      00
 3241              	.LASF120:
 3242 00c6 5F776373 		.ascii	"_wcsrtombs_state\000"
 3242      72746F6D 
 3242      62735F73 
 3242      74617465 
 3242      00
 3243              	.LASF65:
 3244 00d7 5F6E6275 		.ascii	"_nbuf\000"
 3244      6600
 3245              	.LASF35:
 3246 00dd 5F5F746D 		.ascii	"__tm_sec\000"
 3246      5F736563 
 3246      00
 3247              	.LASF113:
 3248 00e6 5F6C3634 		.ascii	"_l64a_buf\000"
 3248      615F6275 
 3248      6600
ARM GAS  /tmp/cc0zjQRA.s 			page 59


 3249              	.LASF125:
 3250 00f0 74696D65 		.ascii	"time_t\000"
 3250      5F7400
 3251              	.LASF69:
 3252 00f7 5F6C6F63 		.ascii	"_lock\000"
 3252      6B00
 3253              	.LASF101:
 3254 00fd 5F6D756C 		.ascii	"_mult\000"
 3254      7400
 3255              	.LASF235:
 3256 0103 6D5F6F77 		.ascii	"m_owner\000"
 3256      6E657200 
 3257              	.LASF203:
 3258 010b 76745F70 		.ascii	"vt_par\000"
 3258      617200
 3259              	.LASF175:
 3260 0112 705F666C 		.ascii	"p_flags\000"
 3260      61677300 
 3261              	.LASF21:
 3262 011a 5F5F7763 		.ascii	"__wch\000"
 3262      6800
 3263              	.LASF223:
 3264 0120 65786974 		.ascii	"exitcode\000"
 3264      636F6465 
 3264      00
 3265              	.LASF3:
 3266 0129 5F5F7569 		.ascii	"__uint8_t\000"
 3266      6E74385F 
 3266      7400
 3267              	.LASF16:
 3268 0133 5F5F6465 		.ascii	"__dev_t\000"
 3268      765F7400 
 3269              	.LASF130:
 3270 013b 7569645F 		.ascii	"uid_t\000"
 3270      7400
 3271              	.LASF57:
 3272 0141 5F66696C 		.ascii	"_file\000"
 3272      6500
 3273              	.LASF44:
 3274 0147 5F6F6E5F 		.ascii	"_on_exit_args\000"
 3274      65786974 
 3274      5F617267 
 3274      7300
 3275              	.LASF171:
 3276 0155 705F6E65 		.ascii	"p_newer\000"
 3276      77657200 
 3277              	.LASF116:
 3278 015d 5F6D6272 		.ascii	"_mbrlen_state\000"
 3278      6C656E5F 
 3278      73746174 
 3278      6500
 3279              	.LASF8:
 3280 016b 6C6F6E67 		.ascii	"long int\000"
 3280      20696E74 
 3280      00
 3281              	.LASF167:
 3282 0174 705F6E65 		.ascii	"p_next\000"
ARM GAS  /tmp/cc0zjQRA.s 			page 60


 3282      787400
 3283              	.LASF84:
 3284 017b 5F726573 		.ascii	"_result_k\000"
 3284      756C745F 
 3284      6B00
 3285              	.LASF54:
 3286 0185 5F73697A 		.ascii	"_size\000"
 3286      6500
 3287              	.LASF168:
 3288 018b 705F7072 		.ascii	"p_prev\000"
 3288      657600
 3289              	.LASF106:
 3290 0192 5F6C6F63 		.ascii	"_localtime_buf\000"
 3290      616C7469 
 3290      6D655F62 
 3290      756600
 3291              	.LASF158:
 3292 01a1 74737461 		.ascii	"tstate_t\000"
 3292      74655F74 
 3292      00
 3293              	.LASF186:
 3294 01aa 74687265 		.ascii	"threads_queue_t\000"
 3294      6164735F 
 3294      71756575 
 3294      655F7400 
 3295              	.LASF180:
 3296 01ba 705F6D74 		.ascii	"p_mtxlist\000"
 3296      786C6973 
 3296      7400
 3297              	.LASF216:
 3298 01c4 72656761 		.ascii	"regarm_t\000"
 3298      726D5F74 
 3298      00
 3299              	.LASF39:
 3300 01cd 5F5F746D 		.ascii	"__tm_mon\000"
 3300      5F6D6F6E 
 3300      00
 3301              	.LASF79:
 3302 01d6 5F637572 		.ascii	"_current_category\000"
 3302      72656E74 
 3302      5F636174 
 3302      65676F72 
 3302      7900
 3303              	.LASF103:
 3304 01e8 5F756E75 		.ascii	"_unused_rand\000"
 3304      7365645F 
 3304      72616E64 
 3304      00
 3305              	.LASF1:
 3306 01f5 7369676E 		.ascii	"signed char\000"
 3306      65642063 
 3306      68617200 
 3307              	.LASF229:
 3308 0201 65776D61 		.ascii	"ewmask\000"
 3308      736B00
 3309              	.LASF152:
 3310 0208 75696E74 		.ascii	"uint8_t\000"
ARM GAS  /tmp/cc0zjQRA.s 			page 61


 3310      385F7400 
 3311              	.LASF144:
 3312 0210 73745F73 		.ascii	"st_spare1\000"
 3312      70617265 
 3312      3100
 3313              	.LASF139:
 3314 021a 73745F75 		.ascii	"st_uid\000"
 3314      696400
 3315              	.LASF148:
 3316 0221 73745F73 		.ascii	"st_spare3\000"
 3316      70617265 
 3316      3300
 3317              	.LASF151:
 3318 022b 73745F73 		.ascii	"st_spare4\000"
 3318      70617265 
 3318      3400
 3319              	.LASF162:
 3320 0235 6576656E 		.ascii	"eventmask_t\000"
 3320      746D6173 
 3320      6B5F7400 
 3321              	.LASF218:
 3322 0241 636F6E74 		.ascii	"context\000"
 3322      65787400 
 3323              	.LASF225:
 3324 0249 77747472 		.ascii	"wttrp\000"
 3324      7000
 3325              	.LASF4:
 3326 024f 756E7369 		.ascii	"unsigned char\000"
 3326      676E6564 
 3326      20636861 
 3326      7200
 3327              	.LASF141:
 3328 025d 73745F72 		.ascii	"st_rdev\000"
 3328      64657600 
 3329              	.LASF209:
 3330 0265 70616E69 		.ascii	"panic_msg\000"
 3330      635F6D73 
 3330      6700
 3331              	.LASF243:
 3332 026f 5F736272 		.ascii	"_sbrk_r\000"
 3332      6B5F7200 
 3333              	.LASF72:
 3334 0277 5F726565 		.ascii	"_reent\000"
 3334      6E7400
 3335              	.LASF193:
 3336 027e 725F6E65 		.ascii	"r_newer\000"
 3336      77657200 
 3337              	.LASF207:
 3338 0286 73797374 		.ascii	"system_debug_t\000"
 3338      656D5F64 
 3338      65627567 
 3338      5F7400
 3339              	.LASF94:
 3340 0295 63686172 		.ascii	"char\000"
 3340      00
 3341              	.LASF253:
 3342 029a 6D656D73 		.ascii	"memset\000"
ARM GAS  /tmp/cc0zjQRA.s 			page 62


 3342      657400
 3343              	.LASF51:
 3344 02a1 5F666E73 		.ascii	"_fns\000"
 3344      00
 3345              	.LASF63:
 3346 02a6 5F636C6F 		.ascii	"_close\000"
 3346      736500
 3347              	.LASF169:
 3348 02ad 705F7072 		.ascii	"p_prio\000"
 3348      696F00
 3349              	.LASF224:
 3350 02b4 77746F62 		.ascii	"wtobjp\000"
 3350      6A7000
 3351              	.LASF74:
 3352 02bb 5F737464 		.ascii	"_stdin\000"
 3352      696E00
 3353              	.LASF246:
 3354 02c2 5F697361 		.ascii	"_isatty_r\000"
 3354      7474795F 
 3354      7200
 3355              	.LASF217:
 3356 02cc 73746B61 		.ascii	"stkalign_t\000"
 3356      6C69676E 
 3356      5F7400
 3357              	.LASF159:
 3358 02d7 74726566 		.ascii	"trefs_t\000"
 3358      735F7400 
 3359              	.LASF147:
 3360 02df 73745F63 		.ascii	"st_ctime\000"
 3360      74696D65 
 3360      00
 3361              	.LASF238:
 3362 02e8 66696C65 		.ascii	"file\000"
 3362      00
 3363              	.LASF163:
 3364 02ed 636E745F 		.ascii	"cnt_t\000"
 3364      7400
 3365              	.LASF202:
 3366 02f3 76745F66 		.ascii	"vt_func\000"
 3366      756E6300 
 3367              	.LASF59:
 3368 02fb 5F636F6F 		.ascii	"_cookie\000"
 3368      6B696500 
 3369              	.LASF252:
 3370 0303 6368436F 		.ascii	"chCoreAlloc\000"
 3370      7265416C 
 3370      6C6F6300 
 3371              	.LASF179:
 3372 030f 705F6570 		.ascii	"p_epending\000"
 3372      656E6469 
 3372      6E6700
 3373              	.LASF228:
 3374 031a 77746D74 		.ascii	"wtmtxp\000"
 3374      787000
 3375              	.LASF32:
 3376 0321 5F776473 		.ascii	"_wds\000"
 3376      00
ARM GAS  /tmp/cc0zjQRA.s 			page 63


 3377              	.LASF189:
 3378 0326 63685F72 		.ascii	"ch_ready_list\000"
 3378      65616479 
 3378      5F6C6973 
 3378      7400
 3379              	.LASF91:
 3380 0334 5F736967 		.ascii	"_sig_func\000"
 3380      5F66756E 
 3380      6300
 3381              	.LASF67:
 3382 033e 5F6F6666 		.ascii	"_offset\000"
 3382      73657400 
 3383              	.LASF88:
 3384 0346 5F637674 		.ascii	"_cvtbuf\000"
 3384      62756600 
 3385              	.LASF140:
 3386 034e 73745F67 		.ascii	"st_gid\000"
 3386      696400
 3387              	.LASF12:
 3388 0355 5F5F7569 		.ascii	"__uint64_t\000"
 3388      6E743634 
 3388      5F7400
 3389              	.LASF127:
 3390 0360 696E6F5F 		.ascii	"ino_t\000"
 3390      7400
 3391              	.LASF249:
 3392 0366 2E2E2F43 		.ascii	"../ChibiOS/os/various/syscalls.c\000"
 3392      68696269 
 3392      4F532F6F 
 3392      732F7661 
 3392      72696F75 
 3393              	.LASF85:
 3394 0387 5F703573 		.ascii	"_p5s\000"
 3394      00
 3395              	.LASF10:
 3396 038c 6C6F6E67 		.ascii	"long unsigned int\000"
 3396      20756E73 
 3396      69676E65 
 3396      6420696E 
 3396      7400
 3397              	.LASF55:
 3398 039e 5F5F7346 		.ascii	"__sFILE\000"
 3398      494C4500 
 3399              	.LASF81:
 3400 03a6 5F5F7364 		.ascii	"__sdidinit\000"
 3400      6964696E 
 3400      697400
 3401              	.LASF71:
 3402 03b1 5F666C61 		.ascii	"_flags2\000"
 3402      67733200 
 3403              	.LASF142:
 3404 03b9 73745F73 		.ascii	"st_size\000"
 3404      697A6500 
 3405              	.LASF230:
 3406 03c1 63685F73 		.ascii	"ch_semaphore\000"
 3406      656D6170 
 3406      686F7265 
ARM GAS  /tmp/cc0zjQRA.s 			page 64


 3406      00
 3407              	.LASF166:
 3408 03ce 63685F74 		.ascii	"ch_thread\000"
 3408      68726561 
 3408      6400
 3409              	.LASF204:
 3410 03d8 76697274 		.ascii	"virtual_timers_list_t\000"
 3410      75616C5F 
 3410      74696D65 
 3410      72735F6C 
 3410      6973745F 
 3411              	.LASF14:
 3412 03ee 5F4C4F43 		.ascii	"_LOCK_RECURSIVE_T\000"
 3412      4B5F5245 
 3412      43555253 
 3412      4956455F 
 3412      5400
 3413              	.LASF250:
 3414 0400 2F6E6673 		.ascii	"/nfs/nfs4/home/cojthack/442FinalProject/sensor\000"
 3414      2F6E6673 
 3414      342F686F 
 3414      6D652F63 
 3414      6F6A7468 
 3415              	.LASF73:
 3416 042f 5F657272 		.ascii	"_errno\000"
 3416      6E6F00
 3417              	.LASF197:
 3418 0436 76697274 		.ascii	"virtual_timer_t\000"
 3418      75616C5F 
 3418      74696D65 
 3418      725F7400 
 3419              	.LASF188:
 3420 0446 72656164 		.ascii	"ready_list_t\000"
 3420      795F6C69 
 3420      73745F74 
 3420      00
 3421              	.LASF146:
 3422 0453 73745F73 		.ascii	"st_spare2\000"
 3422      70617265 
 3422      3200
 3423              	.LASF114:
 3424 045d 5F736967 		.ascii	"_signal_buf\000"
 3424      6E616C5F 
 3424      62756600 
 3425              	.LASF242:
 3426 0469 5F636C6F 		.ascii	"_close_r\000"
 3426      73655F72 
 3426      00
 3427              	.LASF33:
 3428 0472 5F426967 		.ascii	"_Bigint\000"
 3428      696E7400 
 3429              	.LASF185:
 3430 047a 63685F74 		.ascii	"ch_threads_list\000"
 3430      68726561 
 3430      64735F6C 
 3430      69737400 
 3431              	.LASF30:
ARM GAS  /tmp/cc0zjQRA.s 			page 65


 3432 048a 5F6D6178 		.ascii	"_maxwds\000"
 3432      77647300 
 3433              	.LASF82:
 3434 0492 5F5F636C 		.ascii	"__cleanup\000"
 3434      65616E75 
 3434      7000
 3435              	.LASF90:
 3436 049c 5F617465 		.ascii	"_atexit0\000"
 3436      78697430 
 3436      00
 3437              	.LASF134:
 3438 04a5 73746174 		.ascii	"stat\000"
 3438      00
 3439              	.LASF149:
 3440 04aa 73745F62 		.ascii	"st_blksize\000"
 3440      6C6B7369 
 3440      7A6500
 3441              	.LASF9:
 3442 04b5 5F5F7569 		.ascii	"__uint32_t\000"
 3442      6E743332 
 3442      5F7400
 3443              	.LASF78:
 3444 04c0 5F656D65 		.ascii	"_emergency\000"
 3444      7267656E 
 3444      637900
 3445              	.LASF11:
 3446 04cb 6C6F6E67 		.ascii	"long long int\000"
 3446      206C6F6E 
 3446      6720696E 
 3446      7400
 3447              	.LASF234:
 3448 04d9 6D5F7175 		.ascii	"m_queue\000"
 3448      65756500 
 3449              	.LASF97:
 3450 04e1 5F6E696F 		.ascii	"_niobs\000"
 3450      627300
 3451              	.LASF199:
 3452 04e8 76745F6E 		.ascii	"vt_next\000"
 3452      65787400 
 3453              	.LASF92:
 3454 04f0 5F5F7367 		.ascii	"__sglue\000"
 3454      6C756500 
 3455              	.LASF123:
 3456 04f8 5F6E6D61 		.ascii	"_nmalloc\000"
 3456      6C6C6F63 
 3456      00
 3457              	.LASF200:
 3458 0501 76745F70 		.ascii	"vt_prev\000"
 3458      72657600 
 3459              	.LASF107:
 3460 0509 5F67616D 		.ascii	"_gamma_signgam\000"
 3460      6D615F73 
 3460      69676E67 
 3460      616D00
 3461              	.LASF248:
 3462 0518 474E5520 		.ascii	"GNU C 4.8.4 20140526 (release) [ARM/embedded-4_8-br"
 3462      4320342E 
ARM GAS  /tmp/cc0zjQRA.s 			page 66


 3462      382E3420 
 3462      32303134 
 3462      30353236 
 3463 054b 616E6368 		.ascii	"anch revision 211358] -mcpu=cortex-m4 -mno-thumb-in"
 3463      20726576 
 3463      6973696F 
 3463      6E203231 
 3463      31333538 
 3464 057e 74657277 		.ascii	"terwork -mthumb -ggdb -O2 -fomit-frame-pointer -fal"
 3464      6F726B20 
 3464      2D6D7468 
 3464      756D6220 
 3464      2D676764 
 3465 05b1 69676E2D 		.ascii	"ign-functions=16 -ffunction-sections -fdata-section"
 3465      66756E63 
 3465      74696F6E 
 3465      733D3136 
 3465      202D6666 
 3466 05e4 73202D66 		.ascii	"s -fno-common\000"
 3466      6E6F2D63 
 3466      6F6D6D6F 
 3466      6E00
 3467              	.LASF80:
 3468 05f2 5F637572 		.ascii	"_current_locale\000"
 3468      72656E74 
 3468      5F6C6F63 
 3468      616C6500 
 3469              	.LASF86:
 3470 0602 5F667265 		.ascii	"_freelist\000"
 3470      656C6973 
 3470      7400
 3471              	.LASF98:
 3472 060c 5F696F62 		.ascii	"_iobs\000"
 3472      7300
 3473              	.LASF96:
 3474 0612 5F676C75 		.ascii	"_glue\000"
 3474      6500
 3475              	.LASF247:
 3476 0618 49544D5F 		.ascii	"ITM_RxBuffer\000"
 3476      52784275 
 3476      66666572 
 3476      00
 3477              	.LASF31:
 3478 0625 5F736967 		.ascii	"_sign\000"
 3478      6E00
 3479              	.LASF177:
 3480 062b 705F7761 		.ascii	"p_waiting\000"
 3480      6974696E 
 3480      6700
 3481              	.LASF215:
 3482 0635 69646C65 		.ascii	"idle_thread_wa\000"
 3482      5F746872 
 3482      6561645F 
 3482      776100
 3483              	.LASF0:
 3484 0644 756E7369 		.ascii	"unsigned int\000"
 3484      676E6564 
ARM GAS  /tmp/cc0zjQRA.s 			page 67


 3484      20696E74 
 3484      00
 3485              	.LASF241:
 3486 0651 5F777269 		.ascii	"_write_r\000"
 3486      74655F72 
 3486      00
 3487              	.LASF126:
 3488 065a 63616464 		.ascii	"caddr_t\000"
 3488      725F7400 
 3489              	.LASF156:
 3490 0662 7274636E 		.ascii	"rtcnt_t\000"
 3490      745F7400 
 3491              	.LASF182:
 3492 066a 705F6D70 		.ascii	"p_mpool\000"
 3492      6F6F6C00 
 3493              	.LASF121:
 3494 0672 5F685F65 		.ascii	"_h_errno\000"
 3494      72726E6F 
 3494      00
 3495              	.LASF244:
 3496 067b 696E6372 		.ascii	"incr\000"
 3496      00
 3497              	.LASF176:
 3498 0680 705F7265 		.ascii	"p_refs\000"
 3498      667300
 3499              	.LASF119:
 3500 0687 5F776372 		.ascii	"_wcrtomb_state\000"
 3500      746F6D62 
 3500      5F737461 
 3500      746500
 3501              	.LASF38:
 3502 0696 5F5F746D 		.ascii	"__tm_mday\000"
 3502      5F6D6461 
 3502      7900
 3503              	.LASF89:
 3504 06a0 5F6E6577 		.ascii	"_new\000"
 3504      00
 3505              	.LASF64:
 3506 06a5 5F756275 		.ascii	"_ubuf\000"
 3506      6600
 3507              	.LASF76:
 3508 06ab 5F737464 		.ascii	"_stderr\000"
 3508      65727200 
 3509              	.LASF112:
 3510 06b3 5F776374 		.ascii	"_wctomb_state\000"
 3510      6F6D625F 
 3510      73746174 
 3510      6500
 3511              	.LASF70:
 3512 06c1 5F6D6273 		.ascii	"_mbstate\000"
 3512      74617465 
 3512      00
 3513              	.LASF108:
 3514 06ca 5F72616E 		.ascii	"_rand_next\000"
 3514      645F6E65 
 3514      787400
 3515              	.LASF56:
ARM GAS  /tmp/cc0zjQRA.s 			page 68


 3516 06d5 5F666C61 		.ascii	"_flags\000"
 3516      677300
 3517              	.LASF220:
 3518 06dc 6F666673 		.ascii	"offset\000"
 3518      657400
 3519              	.LASF183:
 3520 06e3 74687265 		.ascii	"thread_reference_t\000"
 3520      61645F72 
 3520      65666572 
 3520      656E6365 
 3520      5F7400
 3521              	.LASF49:
 3522 06f6 5F617465 		.ascii	"_atexit\000"
 3522      78697400 
 3523              	.LASF24:
 3524 06fe 5F5F636F 		.ascii	"__count\000"
 3524      756E7400 
 3525              	.LASF138:
 3526 0706 73745F6E 		.ascii	"st_nlink\000"
 3526      6C696E6B 
 3526      00
 3527              	.LASF128:
 3528 070f 6F66665F 		.ascii	"off_t\000"
 3528      7400
 3529              	.LASF132:
 3530 0715 6D6F6465 		.ascii	"mode_t\000"
 3530      5F7400
 3531              	.LASF41:
 3532 071c 5F5F746D 		.ascii	"__tm_wday\000"
 3532      5F776461 
 3532      7900
 3533              	.LASF165:
 3534 0726 74687265 		.ascii	"thread_t\000"
 3534      61645F74 
 3534      00
 3535              	.LASF143:
 3536 072f 73745F61 		.ascii	"st_atime\000"
 3536      74696D65 
 3536      00
 3537              	.LASF42:
 3538 0738 5F5F746D 		.ascii	"__tm_yday\000"
 3538      5F796461 
 3538      7900
 3539              	.LASF181:
 3540 0742 705F7265 		.ascii	"p_realprio\000"
 3540      616C7072 
 3540      696F00
 3541              	.LASF226:
 3542 074d 73656E74 		.ascii	"sentmsg\000"
 3542      6D736700 
 3543              	.LASF219:
 3544 0755 706F7274 		.ascii	"port_intctx\000"
 3544      5F696E74 
 3544      63747800 
 3545              	.LASF100:
 3546 0761 5F736565 		.ascii	"_seed\000"
 3546      6400
ARM GAS  /tmp/cc0zjQRA.s 			page 69


 3547              	.LASF62:
 3548 0767 5F736565 		.ascii	"_seek\000"
 3548      6B00
 3549              	.LASF135:
 3550 076d 73745F64 		.ascii	"st_dev\000"
 3550      657600
 3551              	.LASF201:
 3552 0774 76745F64 		.ascii	"vt_delta\000"
 3552      656C7461 
 3552      00
 3553              	.LASF19:
 3554 077d 5F66706F 		.ascii	"_fpos_t\000"
 3554      735F7400 
 3555              	.LASF22:
 3556 0785 5F5F7763 		.ascii	"__wchb\000"
 3556      686200
 3557              	.LASF198:
 3558 078c 63685F76 		.ascii	"ch_virtual_timer\000"
 3558      69727475 
 3558      616C5F74 
 3558      696D6572 
 3558      00
 3559              	.LASF232:
 3560 079d 735F636E 		.ascii	"s_cnt\000"
 3560      7400
 3561              	.LASF111:
 3562 07a3 5F6D6274 		.ascii	"_mbtowc_state\000"
 3562      6F77635F 
 3562      73746174 
 3562      6500
 3563              	.LASF13:
 3564 07b1 6C6F6E67 		.ascii	"long long unsigned int\000"
 3564      206C6F6E 
 3564      6720756E 
 3564      7369676E 
 3564      65642069 
 3565              	.LASF172:
 3566 07c8 705F6F6C 		.ascii	"p_older\000"
 3566      64657200 
 3567              	.LASF46:
 3568 07d0 5F64736F 		.ascii	"_dso_handle\000"
 3568      5F68616E 
 3568      646C6500 
 3569              	.LASF161:
 3570 07dc 6D73675F 		.ascii	"msg_t\000"
 3570      7400
 3571              	.LASF187:
 3572 07e2 63685F74 		.ascii	"ch_threads_queue\000"
 3572      68726561 
 3572      64735F71 
 3572      75657565 
 3572      00
 3573              	.LASF99:
 3574 07f3 5F72616E 		.ascii	"_rand48\000"
 3574      64343800 
 3575              	.LASF75:
 3576 07fb 5F737464 		.ascii	"_stdout\000"
ARM GAS  /tmp/cc0zjQRA.s 			page 70


 3576      6F757400 
 3577              	.LASF66:
 3578 0803 5F626C6B 		.ascii	"_blksize\000"
 3578      73697A65 
 3578      00
 3579              	.LASF53:
 3580 080c 5F626173 		.ascii	"_base\000"
 3580      6500
 3581              	.LASF245:
 3582 0812 5F667374 		.ascii	"_fstat_r\000"
 3582      61745F72 
 3582      00
 3583              	.LASF104:
 3584 081b 5F737472 		.ascii	"_strtok_last\000"
 3584      746F6B5F 
 3584      6C617374 
 3584      00
 3585              	.LASF117:
 3586 0828 5F6D6272 		.ascii	"_mbrtowc_state\000"
 3586      746F7763 
 3586      5F737461 
 3586      746500
 3587              	.LASF214:
 3588 0837 6D61696E 		.ascii	"mainthread\000"
 3588      74687265 
 3588      616400
 3589              	.LASF27:
 3590 0842 5F666C6F 		.ascii	"_flock_t\000"
 3590      636B5F74 
 3590      00
 3591              	.LASF95:
 3592 084b 5F5F4649 		.ascii	"__FILE\000"
 3592      4C4500
 3593              	.LASF26:
 3594 0852 5F6D6273 		.ascii	"_mbstate_t\000"
 3594      74617465 
 3594      5F7400
 3595              	.LASF190:
 3596 085d 725F7175 		.ascii	"r_queue\000"
 3596      65756500 
 3597              	.LASF109:
 3598 0865 5F723438 		.ascii	"_r48\000"
 3598      00
 3599              	.LASF20:
 3600 086a 77696E74 		.ascii	"wint_t\000"
 3600      5F7400
 3601              	.LASF29:
 3602 0871 5F6E6578 		.ascii	"_next\000"
 3602      7400
 3603              	.LASF68:
 3604 0877 5F646174 		.ascii	"_data\000"
 3604      6100
 3605              	.LASF212:
 3606 087d 726C6973 		.ascii	"rlist\000"
 3606      7400
 3607              	.LASF157:
 3608 0883 746D6F64 		.ascii	"tmode_t\000"
ARM GAS  /tmp/cc0zjQRA.s 			page 71


 3608      655F7400 
 3609              	.LASF145:
 3610 088b 73745F6D 		.ascii	"st_mtime\000"
 3610      74696D65 
 3610      00
 3611              	.LASF194:
 3612 0894 725F6F6C 		.ascii	"r_older\000"
 3612      64657200 
 3613              	.LASF221:
 3614 089c 746D5F63 		.ascii	"tm_calibration_t\000"
 3614      616C6962 
 3614      72617469 
 3614      6F6E5F74 
 3614      00
 3615              	.LASF231:
 3616 08ad 735F7175 		.ascii	"s_queue\000"
 3616      65756500 
 3617              	.LASF110:
 3618 08b5 5F6D626C 		.ascii	"_mblen_state\000"
 3618      656E5F73 
 3618      74617465 
 3618      00
 3619              	.LASF5:
 3620 08c2 73686F72 		.ascii	"short int\000"
 3620      7420696E 
 3620      7400
 3621              	.LASF155:
 3622 08cc 75696E74 		.ascii	"uint64_t\000"
 3622      36345F74 
 3622      00
 3623              	.LASF233:
 3624 08d5 63685F6D 		.ascii	"ch_mutex\000"
 3624      75746578 
 3624      00
 3625              	.LASF47:
 3626 08de 5F666E74 		.ascii	"_fntypes\000"
 3626      79706573 
 3626      00
 3627              	.LASF191:
 3628 08e7 725F7072 		.ascii	"r_prio\000"
 3628      696F00
 3629              	.LASF208:
 3630 08ee 63685F73 		.ascii	"ch_system_debug\000"
 3630      79737465 
 3630      6D5F6465 
 3630      62756700 
 3631              	.LASF40:
 3632 08fe 5F5F746D 		.ascii	"__tm_year\000"
 3632      5F796561 
 3632      7200
 3633              	.LASF58:
 3634 0908 5F6C6266 		.ascii	"_lbfsize\000"
 3634      73697A65 
 3634      00
 3635              	.LASF213:
 3636 0911 76746C69 		.ascii	"vtlist\000"
 3636      737400
ARM GAS  /tmp/cc0zjQRA.s 			page 72


 3637              	.LASF77:
 3638 0918 5F696E63 		.ascii	"_inc\000"
 3638      00
 3639              	.LASF50:
 3640 091d 5F696E64 		.ascii	"_ind\000"
 3640      00
 3641              	.LASF52:
 3642 0922 5F5F7362 		.ascii	"__sbuf\000"
 3642      756600
 3643              	.LASF240:
 3644 0929 5F6C7365 		.ascii	"_lseek_r\000"
 3644      656B5F72 
 3644      00
 3645              	.LASF48:
 3646 0932 5F69735F 		.ascii	"_is_cxa\000"
 3646      63786100 
 3647              	.LASF237:
 3648 093a 6D757465 		.ascii	"mutex_t\000"
 3648      785F7400 
 3649              	.LASF137:
 3650 0942 73745F6D 		.ascii	"st_mode\000"
 3650      6F646500 
 3651              	.LASF17:
 3652 094a 5F5F7569 		.ascii	"__uid_t\000"
 3652      645F7400 
 3653              	.LASF122:
 3654 0952 5F6E6578 		.ascii	"_nextf\000"
 3654      746600
 3655              	.LASF184:
 3656 0959 74687265 		.ascii	"threads_list_t\000"
 3656      6164735F 
 3656      6C697374 
 3656      5F7400
 3657              	.LASF211:
 3658 0968 63685F73 		.ascii	"ch_system\000"
 3658      79737465 
 3658      6D00
 3659              	.LASF28:
 3660 0972 5F5F554C 		.ascii	"__ULong\000"
 3660      6F6E6700 
 3661              	.LASF154:
 3662 097a 75696E74 		.ascii	"uint32_t\000"
 3662      33325F74 
 3662      00
 3663              	.LASF83:
 3664 0983 5F726573 		.ascii	"_result\000"
 3664      756C7400 
 3665              	.LASF15:
 3666 098b 5F6F6666 		.ascii	"_off_t\000"
 3666      5F7400
 3667              	.LASF222:
 3668 0992 7264796D 		.ascii	"rdymsg\000"
 3668      736700
 3669              	.LASF102:
 3670 0999 5F616464 		.ascii	"_add\000"
 3670      00
 3671              	.LASF206:
ARM GAS  /tmp/cc0zjQRA.s 			page 73


 3672 099e 76745F6C 		.ascii	"vt_lasttime\000"
 3672      61737474 
 3672      696D6500 
 3673              	.LASF6:
 3674 09aa 73686F72 		.ascii	"short unsigned int\000"
 3674      7420756E 
 3674      7369676E 
 3674      65642069 
 3674      6E7400
 3675              	.LASF37:
 3676 09bd 5F5F746D 		.ascii	"__tm_hour\000"
 3676      5F686F75 
 3676      7200
 3677              	.LASF210:
 3678 09c7 63685F73 		.ascii	"ch_system_t\000"
 3678      79737465 
 3678      6D5F7400 
 3679              	.LASF118:
 3680 09d3 5F6D6273 		.ascii	"_mbsrtowcs_state\000"
 3680      72746F77 
 3680      63735F73 
 3680      74617465 
 3680      00
 3681              	.LASF7:
 3682 09e4 5F5F696E 		.ascii	"__int32_t\000"
 3682      7433325F 
 3682      7400
 3683              	.LASF239:
 3684 09ee 5F726561 		.ascii	"_read_r\000"
 3684      645F7200 
 3685              	.LASF136:
 3686 09f6 73745F69 		.ascii	"st_ino\000"
 3686      6E6F00
 3687              	.LASF195:
 3688 09fd 725F6375 		.ascii	"r_current\000"
 3688      7272656E 
 3688      7400
 3689              	.LASF45:
 3690 0a07 5F666E61 		.ascii	"_fnargs\000"
 3690      72677300 
 3691              	.LASF43:
 3692 0a0f 5F5F746D 		.ascii	"__tm_isdst\000"
 3692      5F697364 
 3692      737400
 3693              	.LASF173:
 3694 0a1a 705F6E61 		.ascii	"p_name\000"
 3694      6D6500
 3695              	.LASF131:
 3696 0a21 6769645F 		.ascii	"gid_t\000"
 3696      7400
 3697              	.LASF236:
 3698 0a27 6D5F6E65 		.ascii	"m_next\000"
 3698      787400
 3699              	.LASF36:
 3700 0a2e 5F5F746D 		.ascii	"__tm_min\000"
 3700      5F6D696E 
 3700      00
ARM GAS  /tmp/cc0zjQRA.s 			page 74


 3701              	.LASF115:
 3702 0a37 5F676574 		.ascii	"_getdate_err\000"
 3702      64617465 
 3702      5F657272 
 3702      00
 3703              	.LASF227:
 3704 0a44 77747365 		.ascii	"wtsemp\000"
 3704      6D7000
 3705              	.LASF174:
 3706 0a4b 705F7374 		.ascii	"p_state\000"
 3706      61746500 
 3707              		.ident	"GCC: (GNU Tools for ARM Embedded Processors) 4.8.4 20140526 (release) [ARM/embedded-4_8-br
ARM GAS  /tmp/cc0zjQRA.s 			page 75


DEFINED SYMBOLS
                            *ABS*:00000000 syscalls.c
     /tmp/cc0zjQRA.s:19     .text._read_r:00000000 $t
     /tmp/cc0zjQRA.s:25     .text._read_r:00000000 _read_r
     /tmp/cc0zjQRA.s:46     .text._lseek_r:00000000 $t
     /tmp/cc0zjQRA.s:52     .text._lseek_r:00000000 _lseek_r
     /tmp/cc0zjQRA.s:68     .text._write_r:00000000 $t
     /tmp/cc0zjQRA.s:74     .text._write_r:00000000 _write_r
     /tmp/cc0zjQRA.s:90     .text._close_r:00000000 $t
     /tmp/cc0zjQRA.s:96     .text._close_r:00000000 _close_r
     /tmp/cc0zjQRA.s:112    .text._sbrk_r:00000000 $t
     /tmp/cc0zjQRA.s:118    .text._sbrk_r:00000000 _sbrk_r
     /tmp/cc0zjQRA.s:154    .text._fstat_r:00000000 $t
     /tmp/cc0zjQRA.s:160    .text._fstat_r:00000000 _fstat_r
     /tmp/cc0zjQRA.s:193    .text._isatty_r:00000000 $t
     /tmp/cc0zjQRA.s:199    .text._isatty_r:00000000 _isatty_r
                     .debug_frame:00000010 $d

UNDEFINED SYMBOLS
chCoreAlloc
memset
