ARM GAS  /tmp/cccUAoCy.s 			page 1


   1              		.syntax unified
   2              		.cpu cortex-m4
   3              		.fpu softvfp
   4              		.eabi_attribute 20, 1
   5              		.eabi_attribute 21, 1
   6              		.eabi_attribute 23, 3
   7              		.eabi_attribute 24, 1
   8              		.eabi_attribute 25, 1
   9              		.eabi_attribute 26, 1
  10              		.eabi_attribute 30, 2
  11              		.eabi_attribute 34, 1
  12              		.eabi_attribute 18, 4
  13              		.thumb
  14              		.file	"testsem.c"
  15              		.text
  16              	.Ltext0:
  17              		.cfi_sections	.debug_frame
  18              		.section	.text.sem1_execute,"ax",%progbits
  19              		.align	2
  20              		.p2align 4,,15
  21              		.thumb
  22              		.thumb_func
  23              		.type	sem1_execute, %function
  24              	sem1_execute:
  25              	.LFB243:
  26              		.file 1 "../ChibiOS/test/rt/testsem.c"
  27              		.loc 1 83 0
  28              		.cfi_startproc
  29              		@ args = 0, pretend = 0, frame = 0
  30              		@ frame_needed = 0, uses_anonymous_args = 0
  31 0000 2DE9F043 		push	{r4, r5, r6, r7, r8, r9, lr}
  32              		.cfi_def_cfa_offset 28
  33              		.cfi_offset 4, -28
  34              		.cfi_offset 5, -24
  35              		.cfi_offset 6, -20
  36              		.cfi_offset 7, -16
  37              		.cfi_offset 8, -12
  38              		.cfi_offset 9, -8
  39              		.cfi_offset 14, -4
  40              	.LBB288:
  41              	.LBB289:
  42              	.LBB290:
  43              	.LBB291:
  44              		.file 2 "../ChibiOS/os/rt/include/chthreads.h"
  45              		.loc 2 176 0
  46 0004 474E     		ldr	r6, .L7
  47              	.LBE291:
  48              	.LBE290:
  49              	.LBE289:
  50              	.LBE288:
  51              		.loc 1 85 0
  52 0006 484F     		ldr	r7, .L7+4
  53              	.LBB293:
  54              	.LBB292:
  55              		.loc 2 189 0
  56 0008 B369     		ldr	r3, [r6, #24]
  57              	.LBE292:
ARM GAS  /tmp/cccUAoCy.s 			page 2


  58              	.LBE293:
  59              		.loc 1 85 0
  60 000a D7F80080 		ldr	r8, [r7]
  61 000e 9A68     		ldr	r2, [r3, #8]
  62 0010 DFF83891 		ldr	r9, .L7+40
  63 0014 454B     		ldr	r3, .L7+8
  64 0016 464D     		ldr	r5, .L7+12
  65              		.loc 1 90 0
  66 0018 464C     		ldr	r4, .L7+16
  67              		.loc 1 83 0
  68 001a 83B0     		sub	sp, sp, #12
  69              		.cfi_def_cfa_offset 40
  70              		.loc 1 85 0
  71 001c 0532     		adds	r2, r2, #5
  72 001e 4FF4A471 		mov	r1, #328
  73 0022 CDF80090 		str	r9, [sp]
  74 0026 4046     		mov	r0, r8
  75 0028 FFF7FEFF 		bl	chThdCreateStatic
  76              	.LVL0:
  77              	.LBB294:
  78              	.LBB295:
  79              		.loc 2 189 0
  80 002c B269     		ldr	r2, [r6, #24]
  81              	.LBE295:
  82              	.LBE294:
  83              		.loc 1 86 0
  84 002e 7B68     		ldr	r3, [r7, #4]
  85 0030 9268     		ldr	r2, [r2, #8]
  86 0032 4149     		ldr	r1, .L7+20
  87              		.loc 1 85 0
  88 0034 2860     		str	r0, [r5]
  89              		.loc 1 86 0
  90 0036 0132     		adds	r2, r2, #1
  91 0038 1846     		mov	r0, r3
  92 003a 0091     		str	r1, [sp]
  93 003c 3B4B     		ldr	r3, .L7+8
  94 003e 4FF4A471 		mov	r1, #328
  95 0042 FFF7FEFF 		bl	chThdCreateStatic
  96              	.LVL1:
  97              	.LBB296:
  98              	.LBB297:
  99              		.loc 2 189 0
 100 0046 B269     		ldr	r2, [r6, #24]
 101              	.LBE297:
 102              	.LBE296:
 103              		.loc 1 87 0
 104 0048 BB68     		ldr	r3, [r7, #8]
 105 004a 9268     		ldr	r2, [r2, #8]
 106 004c 3B49     		ldr	r1, .L7+24
 107              		.loc 1 86 0
 108 004e 6860     		str	r0, [r5, #4]
 109              		.loc 1 87 0
 110 0050 0332     		adds	r2, r2, #3
 111 0052 1846     		mov	r0, r3
 112 0054 0091     		str	r1, [sp]
 113 0056 354B     		ldr	r3, .L7+8
 114 0058 4FF4A471 		mov	r1, #328
ARM GAS  /tmp/cccUAoCy.s 			page 3


 115 005c FFF7FEFF 		bl	chThdCreateStatic
 116              	.LVL2:
 117              	.LBB298:
 118              	.LBB299:
 119              		.loc 2 189 0
 120 0060 B269     		ldr	r2, [r6, #24]
 121              	.LBE299:
 122              	.LBE298:
 123              		.loc 1 88 0
 124 0062 FB68     		ldr	r3, [r7, #12]
 125 0064 9268     		ldr	r2, [r2, #8]
 126 0066 3649     		ldr	r1, .L7+28
 127              		.loc 1 87 0
 128 0068 A860     		str	r0, [r5, #8]
 129              		.loc 1 88 0
 130 006a 0432     		adds	r2, r2, #4
 131 006c 1846     		mov	r0, r3
 132 006e 0091     		str	r1, [sp]
 133 0070 2E4B     		ldr	r3, .L7+8
 134 0072 4FF4A471 		mov	r1, #328
 135 0076 FFF7FEFF 		bl	chThdCreateStatic
 136              	.LVL3:
 137              	.LBB300:
 138              	.LBB301:
 139              		.loc 2 189 0
 140 007a B269     		ldr	r2, [r6, #24]
 141              	.LBE301:
 142              	.LBE300:
 143              		.loc 1 89 0
 144 007c 3B69     		ldr	r3, [r7, #16]
 145 007e 9268     		ldr	r2, [r2, #8]
 146 0080 3049     		ldr	r1, .L7+32
 147              		.loc 1 88 0
 148 0082 E860     		str	r0, [r5, #12]
 149              		.loc 1 89 0
 150 0084 0232     		adds	r2, r2, #2
 151 0086 1846     		mov	r0, r3
 152 0088 0091     		str	r1, [sp]
 153 008a 284B     		ldr	r3, .L7+8
 154 008c 4FF4A471 		mov	r1, #328
 155 0090 FFF7FEFF 		bl	chThdCreateStatic
 156              	.LVL4:
 157 0094 2861     		str	r0, [r5, #16]
 158              		.loc 1 90 0
 159 0096 2046     		mov	r0, r4
 160 0098 FFF7FEFF 		bl	chSemSignal
 161              	.LVL5:
 162              		.loc 1 91 0
 163 009c 2046     		mov	r0, r4
 164 009e FFF7FEFF 		bl	chSemSignal
 165              	.LVL6:
 166              		.loc 1 92 0
 167 00a2 2046     		mov	r0, r4
 168 00a4 FFF7FEFF 		bl	chSemSignal
 169              	.LVL7:
 170              		.loc 1 93 0
 171 00a8 2046     		mov	r0, r4
ARM GAS  /tmp/cccUAoCy.s 			page 4


 172 00aa FFF7FEFF 		bl	chSemSignal
 173              	.LVL8:
 174              		.loc 1 94 0
 175 00ae 2046     		mov	r0, r4
 176 00b0 FFF7FEFF 		bl	chSemSignal
 177              	.LVL9:
 178              		.loc 1 95 0
 179 00b4 FFF7FEFF 		bl	test_wait_threads
 180              	.LVL10:
 181              		.loc 1 99 0
 182 00b8 0120     		movs	r0, #1
 183 00ba 2349     		ldr	r1, .L7+36
 184 00bc FFF7FEFF 		bl	_test_assert_sequence
 185              	.LVL11:
 186 00c0 0746     		mov	r7, r0
 187 00c2 10B1     		cbz	r0, .L5
 188              		.loc 1 108 0
 189 00c4 03B0     		add	sp, sp, #12
 190              		@ sp needed
 191 00c6 BDE8F083 		pop	{r4, r5, r6, r7, r8, r9, pc}
 192              	.L5:
 193              	.LBB302:
 194              	.LBB303:
 195              		.loc 2 189 0
 196 00ca B269     		ldr	r2, [r6, #24]
 197              	.LBE303:
 198              	.LBE302:
 199              		.loc 1 101 0
 200 00cc 174B     		ldr	r3, .L7+8
 201 00ce 9268     		ldr	r2, [r2, #8]
 202 00d0 CDF80090 		str	r9, [sp]
 203 00d4 0532     		adds	r2, r2, #5
 204 00d6 4046     		mov	r0, r8
 205 00d8 4FF4A471 		mov	r1, #328
 206 00dc FFF7FEFF 		bl	chThdCreateStatic
 207              	.LVL12:
 208              	.LBB304:
 209              	.LBB305:
 210              	.LBB306:
 211              	.LBB307:
 212              		.file 3 "../ChibiOS/os/ext/CMSIS/include/core_cmFunc.h"
 213              		.loc 3 548 0
 214 00e0 2026     		movs	r6, #32
 215              	.LBE307:
 216              	.LBE306:
 217              	.LBE305:
 218              	.LBE304:
 219              		.loc 1 101 0
 220 00e2 2860     		str	r0, [r5]
 221              	.LVL13:
 222              	.LBB311:
 223              	.LBB310:
 224              	.LBB309:
 225              	.LBB308:
 226              		.loc 3 548 0
 227              	@ 548 "../ChibiOS/os/ext/CMSIS/include/core_cmFunc.h" 1
 228 00e4 86F31188 		MSR basepri, r6
ARM GAS  /tmp/cccUAoCy.s 			page 5


 229              	@ 0 "" 2
 230              		.thumb
 231              	.LBE308:
 232              	.LBE309:
 233              	.LBE310:
 234              	.LBE311:
 235              		.loc 1 103 0
 236 00e8 0221     		movs	r1, #2
 237 00ea 2046     		mov	r0, r4
 238 00ec FFF7FEFF 		bl	chSemAddCounterI
 239              	.LVL14:
 240              		.loc 1 104 0
 241 00f0 FFF7FEFF 		bl	chSchRescheduleS
 242              	.LVL15:
 243              	.LBB312:
 244              	.LBB313:
 245              	.LBB314:
 246              	.LBB315:
 247              	.LBB316:
 248              		.loc 3 548 0
 249              	@ 548 "../ChibiOS/os/ext/CMSIS/include/core_cmFunc.h" 1
 250 00f4 87F31188 		MSR basepri, r7
 251              	@ 0 "" 2
 252              		.thumb
 253              	.LBE316:
 254              	.LBE315:
 255              	.LBE314:
 256              	.LBE313:
 257              	.LBE312:
 258              		.loc 1 106 0
 259 00f8 FFF7FEFF 		bl	test_wait_threads
 260              	.LVL16:
 261              	.LBB317:
 262              	.LBB318:
 263              	.LBB319:
 264              	.LBB320:
 265              		.loc 3 548 0
 266              	@ 548 "../ChibiOS/os/ext/CMSIS/include/core_cmFunc.h" 1
 267 00fc 86F31188 		MSR basepri, r6
 268              	@ 0 "" 2
 269              	.LVL17:
 270              		.thumb
 271              	.LBE320:
 272              	.LBE319:
 273              	.LBE318:
 274              	.LBE317:
 275              		.loc 1 107 0
 276 0100 A168     		ldr	r1, [r4, #8]
 277 0102 4B1E     		subs	r3, r1, #1
 278 0104 5942     		rsbs	r1, r3, #0
 279 0106 5941     		adcs	r1, r1, r3
 280 0108 0220     		movs	r0, #2
 281 010a FFF7FEFF 		bl	_test_assert
 282              	.LVL18:
 283 010e 20B9     		cbnz	r0, .L6
 284              	.LVL19:
 285              	.LBB321:
ARM GAS  /tmp/cccUAoCy.s 			page 6


 286              	.LBB322:
 287              	.LBB323:
 288              	.LBB324:
 289              	.LBB325:
 290              		.loc 3 548 0
 291              	@ 548 "../ChibiOS/os/ext/CMSIS/include/core_cmFunc.h" 1
 292 0110 80F31188 		MSR basepri, r0
 293              	@ 0 "" 2
 294              		.thumb
 295              	.LBE325:
 296              	.LBE324:
 297              	.LBE323:
 298              	.LBE322:
 299              	.LBE321:
 300              		.loc 1 108 0
 301 0114 03B0     		add	sp, sp, #12
 302              		@ sp needed
 303 0116 BDE8F083 		pop	{r4, r5, r6, r7, r8, r9, pc}
 304              	.LVL20:
 305              	.L6:
 306              	.LBB326:
 307              	.LBB327:
 308              	.LBB328:
 309              	.LBB329:
 310              	.LBB330:
 311              		.loc 3 548 0
 312              	@ 548 "../ChibiOS/os/ext/CMSIS/include/core_cmFunc.h" 1
 313 011a 87F31188 		MSR basepri, r7
 314              	@ 0 "" 2
 315              		.thumb
 316              	.LBE330:
 317              	.LBE329:
 318              	.LBE328:
 319              	.LBE327:
 320              	.LBE326:
 321              		.loc 1 108 0
 322 011e 03B0     		add	sp, sp, #12
 323              		@ sp needed
 324 0120 BDE8F083 		pop	{r4, r5, r6, r7, r8, r9, pc}
 325              	.L8:
 326              		.align	2
 327              	.L7:
 328 0124 00000000 		.word	ch
 329 0128 00000000 		.word	wa
 330 012c 00000000 		.word	thread1
 331 0130 00000000 		.word	threads
 332 0134 00000000 		.word	.LANCHOR0
 333 0138 04000000 		.word	.LC1
 334 013c 08000000 		.word	.LC2
 335 0140 0C000000 		.word	.LC3
 336 0144 10000000 		.word	.LC4
 337 0148 14000000 		.word	.LC5
 338 014c 00000000 		.word	.LC0
 339              		.cfi_endproc
 340              	.LFE243:
 341              		.size	sem1_execute, .-sem1_execute
 342              		.section	.text.thread3,"ax",%progbits
ARM GAS  /tmp/cccUAoCy.s 			page 7


 343              		.align	2
 344              		.p2align 4,,15
 345              		.thumb
 346              		.thumb_func
 347              		.type	thread3, %function
 348              	thread3:
 349              	.LFB248:
 350              		.loc 1 207 0
 351              		.cfi_startproc
 352              		@ args = 0, pretend = 0, frame = 0
 353              		@ frame_needed = 0, uses_anonymous_args = 0
 354              	.LVL21:
 355 0000 10B5     		push	{r4, lr}
 356              		.cfi_def_cfa_offset 8
 357              		.cfi_offset 4, -8
 358              		.cfi_offset 14, -4
 359              		.loc 1 210 0
 360 0002 044C     		ldr	r4, .L10
 361 0004 2046     		mov	r0, r4
 362              	.LVL22:
 363 0006 FFF7FEFF 		bl	chSemWait
 364              	.LVL23:
 365              		.loc 1 211 0
 366 000a 2046     		mov	r0, r4
 367              		.loc 1 212 0
 368 000c BDE81040 		pop	{r4, lr}
 369              		.loc 1 211 0
 370 0010 FFF7FEBF 		b	chSemSignal
 371              	.LVL24:
 372              	.L11:
 373              		.align	2
 374              	.L10:
 375 0014 00000000 		.word	.LANCHOR0
 376              		.cfi_endproc
 377              	.LFE248:
 378              		.size	thread3, .-thread3
 379 0018 AFF30080 		.section	.text.thread1,"ax",%progbits
 379      AFF30080 
 380              		.align	2
 381              		.p2align 4,,15
 382              		.thumb
 383              		.thumb_func
 384              		.type	thread1, %function
 385              	thread1:
 386              	.LFB242:
 387              		.loc 1 77 0
 388              		.cfi_startproc
 389              		@ args = 0, pretend = 0, frame = 0
 390              		@ frame_needed = 0, uses_anonymous_args = 0
 391              	.LVL25:
 392 0000 10B5     		push	{r4, lr}
 393              		.cfi_def_cfa_offset 8
 394              		.cfi_offset 4, -8
 395              		.cfi_offset 14, -4
 396              		.loc 1 77 0
 397 0002 0446     		mov	r4, r0
 398              		.loc 1 79 0
ARM GAS  /tmp/cccUAoCy.s 			page 8


 399 0004 0348     		ldr	r0, .L13
 400              	.LVL26:
 401 0006 FFF7FEFF 		bl	chSemWait
 402              	.LVL27:
 403              		.loc 1 80 0
 404 000a 2078     		ldrb	r0, [r4]	@ zero_extendqisi2
 405              		.loc 1 81 0
 406 000c BDE81040 		pop	{r4, lr}
 407              	.LVL28:
 408              		.loc 1 80 0
 409 0010 FFF7FEBF 		b	test_emit_token
 410              	.LVL29:
 411              	.L14:
 412              		.align	2
 413              	.L13:
 414 0014 00000000 		.word	.LANCHOR0
 415              		.cfi_endproc
 416              	.LFE242:
 417              		.size	thread1, .-thread1
 418 0018 AFF30080 		.section	.text.sem1_setup,"ax",%progbits
 418      AFF30080 
 419              		.align	2
 420              		.p2align 4,,15
 421              		.thumb
 422              		.thumb_func
 423              		.type	sem1_setup, %function
 424              	sem1_setup:
 425              	.LFB241:
 426              		.loc 1 72 0
 427              		.cfi_startproc
 428              		@ args = 0, pretend = 0, frame = 0
 429              		@ frame_needed = 0, uses_anonymous_args = 0
 430              		@ link register save eliminated.
 431              		.loc 1 74 0
 432 0000 0148     		ldr	r0, .L16
 433 0002 0021     		movs	r1, #0
 434 0004 FFF7FEBF 		b	chSemObjectInit
 435              	.LVL30:
 436              	.L17:
 437              		.align	2
 438              	.L16:
 439 0008 00000000 		.word	.LANCHOR0
 440              		.cfi_endproc
 441              	.LFE241:
 442              		.size	sem1_setup, .-sem1_setup
 443 000c AFF30080 		.section	.text.sem2_setup,"ax",%progbits
 444              		.align	2
 445              		.p2align 4,,15
 446              		.thumb
 447              		.thumb_func
 448              		.type	sem2_setup, %function
 449              	sem2_setup:
 450              	.LFB244:
 451              		.loc 1 128 0
 452              		.cfi_startproc
 453              		@ args = 0, pretend = 0, frame = 0
 454              		@ frame_needed = 0, uses_anonymous_args = 0
ARM GAS  /tmp/cccUAoCy.s 			page 9


 455              		@ link register save eliminated.
 456              		.loc 1 130 0
 457 0000 0148     		ldr	r0, .L19
 458 0002 0021     		movs	r1, #0
 459 0004 FFF7FEBF 		b	chSemObjectInit
 460              	.LVL31:
 461              	.L20:
 462              		.align	2
 463              	.L19:
 464 0008 00000000 		.word	.LANCHOR0
 465              		.cfi_endproc
 466              	.LFE244:
 467              		.size	sem2_setup, .-sem2_setup
 468 000c AFF30080 		.section	.text.sem3_setup,"ax",%progbits
 469              		.align	2
 470              		.p2align 4,,15
 471              		.thumb
 472              		.thumb_func
 473              		.type	sem3_setup, %function
 474              	sem3_setup:
 475              	.LFB247:
 476              		.loc 1 202 0
 477              		.cfi_startproc
 478              		@ args = 0, pretend = 0, frame = 0
 479              		@ frame_needed = 0, uses_anonymous_args = 0
 480              		@ link register save eliminated.
 481              		.loc 1 204 0
 482 0000 0148     		ldr	r0, .L22
 483 0002 0021     		movs	r1, #0
 484 0004 FFF7FEBF 		b	chSemObjectInit
 485              	.LVL32:
 486              	.L23:
 487              		.align	2
 488              	.L22:
 489 0008 00000000 		.word	.LANCHOR0
 490              		.cfi_endproc
 491              	.LFE247:
 492              		.size	sem3_setup, .-sem3_setup
 493 000c AFF30080 		.section	.text.thread2,"ax",%progbits
 494              		.align	2
 495              		.p2align 4,,15
 496              		.thumb
 497              		.thumb_func
 498              		.type	thread2, %function
 499              	thread2:
 500              	.LFB245:
 501              		.loc 1 133 0
 502              		.cfi_startproc
 503              		@ args = 0, pretend = 0, frame = 0
 504              		@ frame_needed = 0, uses_anonymous_args = 0
 505              	.LVL33:
 506 0000 08B5     		push	{r3, lr}
 507              		.cfi_def_cfa_offset 8
 508              		.cfi_offset 3, -8
 509              		.cfi_offset 14, -4
 510              		.loc 1 136 0
 511 0002 4FF4FA70 		mov	r0, #500
ARM GAS  /tmp/cccUAoCy.s 			page 10


 512              	.LVL34:
 513 0006 FFF7FEFF 		bl	chThdSleep
 514              	.LVL35:
 515              	.LBB331:
 516              	.LBB332:
 517              	.LBB333:
 518              	.LBB334:
 519              		.loc 3 548 0
 520 000a 2023     		movs	r3, #32
 521              	@ 548 "../ChibiOS/os/ext/CMSIS/include/core_cmFunc.h" 1
 522 000c 83F31188 		MSR basepri, r3
 523              	@ 0 "" 2
 524              		.thumb
 525              	.LBE334:
 526              	.LBE333:
 527              	.LBE332:
 528              	.LBE331:
 529              		.loc 1 138 0
 530 0010 0448     		ldr	r0, .L25
 531 0012 FFF7FEFF 		bl	chSemSignalI
 532              	.LVL36:
 533              		.loc 1 139 0
 534 0016 FFF7FEFF 		bl	chSchRescheduleS
 535              	.LVL37:
 536              	.LBB335:
 537              	.LBB336:
 538              	.LBB337:
 539              	.LBB338:
 540              	.LBB339:
 541              		.loc 3 548 0
 542 001a 0023     		movs	r3, #0
 543              	@ 548 "../ChibiOS/os/ext/CMSIS/include/core_cmFunc.h" 1
 544 001c 83F31188 		MSR basepri, r3
 545              	@ 0 "" 2
 546              		.thumb
 547 0020 08BD     		pop	{r3, pc}
 548              	.L26:
 549 0022 00BF     		.align	2
 550              	.L25:
 551 0024 00000000 		.word	.LANCHOR0
 552              	.LBE339:
 553              	.LBE338:
 554              	.LBE337:
 555              	.LBE336:
 556              	.LBE335:
 557              		.cfi_endproc
 558              	.LFE245:
 559              		.size	thread2, .-thread2
 560 0028 AFF30080 		.section	.text.sem2_execute,"ax",%progbits
 560      AFF30080 
 561              		.align	2
 562              		.p2align 4,,15
 563              		.thumb
 564              		.thumb_func
 565              		.type	sem2_execute, %function
 566              	sem2_execute:
 567              	.LFB246:
ARM GAS  /tmp/cccUAoCy.s 			page 11


 568              		.loc 1 143 0
 569              		.cfi_startproc
 570              		@ args = 0, pretend = 0, frame = 0
 571              		@ frame_needed = 0, uses_anonymous_args = 0
 572 0000 70B5     		push	{r4, r5, r6, lr}
 573              		.cfi_def_cfa_offset 16
 574              		.cfi_offset 4, -16
 575              		.cfi_offset 5, -12
 576              		.cfi_offset 6, -8
 577              		.cfi_offset 14, -4
 578              		.loc 1 151 0
 579 0002 4F4C     		ldr	r4, .L34
 580              		.loc 1 143 0
 581 0004 82B0     		sub	sp, sp, #8
 582              		.cfi_def_cfa_offset 24
 583              		.loc 1 151 0
 584 0006 0021     		movs	r1, #0
 585 0008 2046     		mov	r0, r4
 586 000a FFF7FEFF 		bl	chSemWaitTimeout
 587              	.LVL38:
 588              		.loc 1 152 0
 589 000e B0F1FF3E 		subs	lr, r0, #-1
 590 0012 DEF10001 		rsbs	r1, lr, #0
 591 0016 51EB0E01 		adcs	r1, r1, lr
 592 001a 0120     		movs	r0, #1
 593              	.LVL39:
 594 001c FFF7FEFF 		bl	_test_assert
 595              	.LVL40:
 596 0020 08B1     		cbz	r0, .L33
 597              	.L27:
 598              		.loc 1 181 0
 599 0022 02B0     		add	sp, sp, #8
 600              		@ sp needed
 601 0024 70BD     		pop	{r4, r5, r6, pc}
 602              	.L33:
 603              	.LVL41:
 604              	.LBB369:
 605              	.LBB370:
 606              		.file 4 "../ChibiOS/os/rt/include/chschd.h"
 607              		.loc 4 620 0
 608 0026 2168     		ldr	r1, [r4]
 609              	.LBE370:
 610              	.LBE369:
 611              		.loc 1 153 0
 612 0028 0E1B     		subs	r6, r1, r4
 613 002a 7142     		rsbs	r1, r6, #0
 614 002c 7141     		adcs	r1, r1, r6
 615 002e 0220     		movs	r0, #2
 616 0030 FFF7FEFF 		bl	_test_assert
 617              	.LVL42:
 618 0034 0028     		cmp	r0, #0
 619 0036 F4D1     		bne	.L27
 620              		.loc 1 154 0
 621 0038 A168     		ldr	r1, [r4, #8]
 622 003a D1F10101 		rsbs	r1, r1, #1
 623 003e 38BF     		it	cc
 624 0040 0021     		movcc	r1, #0
ARM GAS  /tmp/cccUAoCy.s 			page 12


 625 0042 0320     		movs	r0, #3
 626 0044 FFF7FEFF 		bl	_test_assert
 627              	.LVL43:
 628 0048 0028     		cmp	r0, #0
 629 004a EAD1     		bne	.L27
 630              	.LBB371:
 631              	.LBB372:
 632              	.LBB373:
 633              	.LBB374:
 634              	.LBB375:
 635              	.LBB376:
 636              		.loc 2 176 0
 637 004c 3D4B     		ldr	r3, .L34+4
 638              	.LBE376:
 639              	.LBE375:
 640              	.LBE374:
 641              	.LBE373:
 642              		.loc 1 159 0
 643 004e 3E4A     		ldr	r2, .L34+8
 644              	.LBB378:
 645              	.LBB377:
 646              		.loc 2 189 0
 647 0050 9B69     		ldr	r3, [r3, #24]
 648              	.LBE377:
 649              	.LBE378:
 650              		.loc 1 159 0
 651 0052 1168     		ldr	r1, [r2]
 652 0054 9A68     		ldr	r2, [r3, #8]
 653 0056 3D4B     		ldr	r3, .L34+12
 654 0058 0090     		str	r0, [sp]
 655 005a 013A     		subs	r2, r2, #1
 656 005c 0846     		mov	r0, r1
 657 005e 4FF4A471 		mov	r1, #328
 658 0062 FFF7FEFF 		bl	chThdCreateStatic
 659              	.LVL44:
 660 0066 3A4B     		ldr	r3, .L34+16
 661              		.loc 1 161 0
 662 0068 41F28831 		movw	r1, #5000
 663              		.loc 1 159 0
 664 006c 1860     		str	r0, [r3]
 665              		.loc 1 161 0
 666 006e 2046     		mov	r0, r4
 667 0070 FFF7FEFF 		bl	chSemWaitTimeout
 668              	.LVL45:
 669 0074 0546     		mov	r5, r0
 670              	.LVL46:
 671              		.loc 1 162 0
 672 0076 FFF7FEFF 		bl	test_wait_threads
 673              	.LVL47:
 674              		.loc 1 163 0
 675 007a D5F10101 		rsbs	r1, r5, #1
 676 007e 38BF     		it	cc
 677 0080 0021     		movcc	r1, #0
 678 0082 0420     		movs	r0, #4
 679 0084 FFF7FEFF 		bl	_test_assert
 680              	.LVL48:
 681 0088 0028     		cmp	r0, #0
ARM GAS  /tmp/cccUAoCy.s 			page 13


 682 008a CAD1     		bne	.L27
 683              	.LVL49:
 684              	.LBB379:
 685              	.LBB380:
 686              		.loc 4 620 0
 687 008c 2168     		ldr	r1, [r4]
 688              	.LBE380:
 689              	.LBE379:
 690              		.loc 1 164 0
 691 008e 0D1B     		subs	r5, r1, r4
 692              	.LVL50:
 693 0090 6942     		rsbs	r1, r5, #0
 694 0092 6941     		adcs	r1, r1, r5
 695 0094 0520     		movs	r0, #5
 696 0096 FFF7FEFF 		bl	_test_assert
 697              	.LVL51:
 698 009a 0028     		cmp	r0, #0
 699 009c C1D1     		bne	.L27
 700              		.loc 1 165 0
 701 009e A168     		ldr	r1, [r4, #8]
 702 00a0 D1F10101 		rsbs	r1, r1, #1
 703 00a4 4FF00600 		mov	r0, #6
 704 00a8 38BF     		it	cc
 705 00aa 0021     		movcc	r1, #0
 706 00ac FFF7FEFF 		bl	_test_assert
 707              	.LVL52:
 708 00b0 0546     		mov	r5, r0
 709 00b2 0028     		cmp	r0, #0
 710 00b4 B5D1     		bne	.L27
 711              		.loc 1 170 0
 712 00b6 FFF7FEFF 		bl	test_wait_tick
 713              	.LVL53:
 714              	.LBB381:
 715              	.LBB382:
 716              	.LBB383:
 717              	.LBB384:
 718              	.LBB385:
 719              	.LBB386:
 720              		.loc 3 548 0
 721 00ba 2023     		movs	r3, #32
 722              	@ 548 "../ChibiOS/os/ext/CMSIS/include/core_cmFunc.h" 1
 723 00bc 83F31188 		MSR basepri, r3
 724              	@ 0 "" 2
 725              		.thumb
 726              	.LBE386:
 727              	.LBE385:
 728              	.LBE384:
 729              	.LBE383:
 730              	.LBB387:
 731              	.LBB388:
 732              	.LBB389:
 733              	.LBB390:
 734              		.file 5 "../ChibiOS/os/hal/ports/STM32/LLD/TIMv1/st_lld.h"
 735              		.loc 5 141 0
 736 00c0 4FF08043 		mov	r3, #1073741824
 737 00c4 5E6A     		ldr	r6, [r3, #36]
 738              	.LVL54:
ARM GAS  /tmp/cccUAoCy.s 			page 14


 739              	.LBE390:
 740              	.LBE389:
 741              	.LBE388:
 742              	.LBE387:
 743              	.LBB391:
 744              	.LBB392:
 745              	.LBB393:
 746              	.LBB394:
 747              	.LBB395:
 748              		.loc 3 548 0
 749              	@ 548 "../ChibiOS/os/ext/CMSIS/include/core_cmFunc.h" 1
 750 00c6 85F31188 		MSR basepri, r5
 751              	@ 0 "" 2
 752              	.LVL55:
 753              		.thumb
 754 00ca 4125     		movs	r5, #65
 755              	.LVL56:
 756              	.L32:
 757              	.LBE395:
 758              	.LBE394:
 759              	.LBE393:
 760              	.LBE392:
 761              	.LBE391:
 762              	.LBE382:
 763              	.LBE381:
 764              		.loc 1 173 0
 765 00cc 2846     		mov	r0, r5
 766 00ce FFF7FEFF 		bl	test_emit_token
 767              	.LVL57:
 768              		.loc 1 174 0
 769 00d2 4FF4FA71 		mov	r1, #500
 770 00d6 1A48     		ldr	r0, .L34
 771 00d8 FFF7FEFF 		bl	chSemWaitTimeout
 772              	.LVL58:
 773              		.loc 1 175 0
 774 00dc B0F1FF32 		subs	r2, r0, #-1
 775 00e0 5142     		rsbs	r1, r2, #0
 776 00e2 5141     		adcs	r1, r1, r2
 777 00e4 0720     		movs	r0, #7
 778              	.LVL59:
 779 00e6 FFF7FEFF 		bl	_test_assert
 780              	.LVL60:
 781 00ea 0028     		cmp	r0, #0
 782 00ec 99D1     		bne	.L27
 783              	.LBB396:
 784              	.LBB397:
 785              		.loc 4 620 0
 786 00ee 2168     		ldr	r1, [r4]
 787              	.LBE397:
 788              	.LBE396:
 789              		.loc 1 176 0
 790 00f0 0B1B     		subs	r3, r1, r4
 791 00f2 5942     		rsbs	r1, r3, #0
 792 00f4 5941     		adcs	r1, r1, r3
 793 00f6 0820     		movs	r0, #8
 794 00f8 FFF7FEFF 		bl	_test_assert
 795              	.LVL61:
ARM GAS  /tmp/cccUAoCy.s 			page 15


 796 00fc 0028     		cmp	r0, #0
 797 00fe 90D1     		bne	.L27
 798              		.loc 1 177 0
 799 0100 A168     		ldr	r1, [r4, #8]
 800 0102 D1F10101 		rsbs	r1, r1, #1
 801 0106 4FF00900 		mov	r0, #9
 802 010a 38BF     		it	cc
 803 010c 0021     		movcc	r1, #0
 804 010e FFF7FEFF 		bl	_test_assert
 805              	.LVL62:
 806 0112 0135     		adds	r5, r5, #1
 807 0114 EDB2     		uxtb	r5, r5
 808 0116 0028     		cmp	r0, #0
 809 0118 83D1     		bne	.L27
 810              		.loc 1 172 0
 811 011a 462D     		cmp	r5, #70
 812 011c D6D1     		bne	.L32
 813              		.loc 1 179 0
 814 011e 0A20     		movs	r0, #10
 815 0120 0C49     		ldr	r1, .L34+20
 816 0122 FFF7FEFF 		bl	_test_assert_sequence
 817              	.LVL63:
 818 0126 0028     		cmp	r0, #0
 819 0128 7FF47BAF 		bne	.L27
 820              		.loc 1 180 0
 821 012c 0B20     		movs	r0, #11
 822 012e 06F6C411 		addw	r1, r6, #2500
 823 0132 06F6D812 		addw	r2, r6, #2520
 824              	.LBE372:
 825              	.LBE371:
 826              		.loc 1 181 0
 827 0136 02B0     		add	sp, sp, #8
 828              		@ sp needed
 829 0138 BDE87040 		pop	{r4, r5, r6, lr}
 830              	.LVL64:
 831              	.LBB399:
 832              	.LBB398:
 833              		.loc 1 180 0
 834 013c FFF7FEBF 		b	_test_assert_time_window
 835              	.LVL65:
 836              	.L35:
 837              		.align	2
 838              	.L34:
 839 0140 00000000 		.word	.LANCHOR0
 840 0144 00000000 		.word	ch
 841 0148 00000000 		.word	wa
 842 014c 00000000 		.word	thread2
 843 0150 00000000 		.word	threads
 844 0154 14000000 		.word	.LC5
 845              	.LBE398:
 846              	.LBE399:
 847              		.cfi_endproc
 848              	.LFE246:
 849              		.size	sem2_execute, .-sem2_execute
 850 0158 AFF30080 		.section	.text.sem3_execute,"ax",%progbits
 850      AFF30080 
 851              		.align	2
ARM GAS  /tmp/cccUAoCy.s 			page 16


 852              		.p2align 4,,15
 853              		.thumb
 854              		.thumb_func
 855              		.type	sem3_execute, %function
 856              	sem3_execute:
 857              	.LFB249:
 858              		.loc 1 214 0
 859              		.cfi_startproc
 860              		@ args = 0, pretend = 0, frame = 0
 861              		@ frame_needed = 0, uses_anonymous_args = 0
 862 0000 10B5     		push	{r4, lr}
 863              		.cfi_def_cfa_offset 8
 864              		.cfi_offset 4, -8
 865              		.cfi_offset 14, -4
 866              	.LBB416:
 867              	.LBB417:
 868              	.LBB418:
 869              	.LBB419:
 870              		.loc 2 176 0
 871 0002 214B     		ldr	r3, .L41
 872              	.LBE419:
 873              	.LBE418:
 874              	.LBE417:
 875              	.LBE416:
 876              		.loc 1 216 0
 877 0004 214A     		ldr	r2, .L41+4
 878              	.LBB421:
 879              	.LBB420:
 880              		.loc 2 189 0
 881 0006 9B69     		ldr	r3, [r3, #24]
 882              	.LBE420:
 883              	.LBE421:
 884              		.loc 1 216 0
 885 0008 1068     		ldr	r0, [r2]
 886 000a 9A68     		ldr	r2, [r3, #8]
 887 000c 204B     		ldr	r3, .L41+8
 888              		.loc 1 217 0
 889 000e 214C     		ldr	r4, .L41+12
 890              		.loc 1 214 0
 891 0010 82B0     		sub	sp, sp, #8
 892              		.cfi_def_cfa_offset 16
 893              		.loc 1 216 0
 894 0012 0021     		movs	r1, #0
 895 0014 0132     		adds	r2, r2, #1
 896 0016 0091     		str	r1, [sp]
 897 0018 4FF4A471 		mov	r1, #328
 898 001c FFF7FEFF 		bl	chThdCreateStatic
 899              	.LVL66:
 900 0020 1D4B     		ldr	r3, .L41+16
 901              		.loc 1 217 0
 902 0022 2146     		mov	r1, r4
 903              		.loc 1 216 0
 904 0024 1860     		str	r0, [r3]
 905              		.loc 1 217 0
 906 0026 2046     		mov	r0, r4
 907 0028 FFF7FEFF 		bl	chSemSignalWait
 908              	.LVL67:
ARM GAS  /tmp/cccUAoCy.s 			page 17


 909              	.LBB422:
 910              	.LBB423:
 911              		.loc 4 620 0
 912 002c 2168     		ldr	r1, [r4]
 913              	.LBE423:
 914              	.LBE422:
 915              		.loc 1 218 0
 916 002e 0A1B     		subs	r2, r1, r4
 917 0030 5142     		rsbs	r1, r2, #0
 918 0032 5141     		adcs	r1, r1, r2
 919 0034 0120     		movs	r0, #1
 920 0036 FFF7FEFF 		bl	_test_assert
 921              	.LVL68:
 922 003a 08B1     		cbz	r0, .L40
 923              	.L36:
 924              		.loc 1 224 0
 925 003c 02B0     		add	sp, sp, #8
 926              		@ sp needed
 927 003e 10BD     		pop	{r4, pc}
 928              	.L40:
 929              		.loc 1 219 0
 930 0040 A168     		ldr	r1, [r4, #8]
 931 0042 D1F10101 		rsbs	r1, r1, #1
 932 0046 38BF     		it	cc
 933 0048 0021     		movcc	r1, #0
 934 004a 0220     		movs	r0, #2
 935 004c FFF7FEFF 		bl	_test_assert
 936              	.LVL69:
 937 0050 0028     		cmp	r0, #0
 938 0052 F3D1     		bne	.L36
 939              	.LBB424:
 940              	.LBB425:
 941              		.loc 1 221 0
 942 0054 2146     		mov	r1, r4
 943 0056 2046     		mov	r0, r4
 944 0058 FFF7FEFF 		bl	chSemSignalWait
 945              	.LVL70:
 946              	.LBB426:
 947              	.LBB427:
 948              		.loc 4 620 0
 949 005c 2168     		ldr	r1, [r4]
 950              	.LBE427:
 951              	.LBE426:
 952              		.loc 1 222 0
 953 005e 0B1B     		subs	r3, r1, r4
 954 0060 5942     		rsbs	r1, r3, #0
 955 0062 5941     		adcs	r1, r1, r3
 956 0064 0320     		movs	r0, #3
 957 0066 FFF7FEFF 		bl	_test_assert
 958              	.LVL71:
 959 006a 0028     		cmp	r0, #0
 960 006c E6D1     		bne	.L36
 961              		.loc 1 223 0
 962 006e A168     		ldr	r1, [r4, #8]
 963 0070 D1F10101 		rsbs	r1, r1, #1
 964 0074 4FF00400 		mov	r0, #4
 965 0078 38BF     		it	cc
ARM GAS  /tmp/cccUAoCy.s 			page 18


 966 007a 0021     		movcc	r1, #0
 967              	.LBE425:
 968              	.LBE424:
 969              		.loc 1 224 0
 970 007c 02B0     		add	sp, sp, #8
 971              		@ sp needed
 972 007e BDE81040 		pop	{r4, lr}
 973              	.LBB429:
 974              	.LBB428:
 975              		.loc 1 223 0
 976 0082 FFF7FEBF 		b	_test_assert
 977              	.LVL72:
 978              	.L42:
 979 0086 00BF     		.align	2
 980              	.L41:
 981 0088 00000000 		.word	ch
 982 008c 00000000 		.word	wa
 983 0090 00000000 		.word	thread3
 984 0094 00000000 		.word	.LANCHOR0
 985 0098 00000000 		.word	threads
 986              	.LBE428:
 987              	.LBE429:
 988              		.cfi_endproc
 989              	.LFE249:
 990              		.size	sem3_execute, .-sem3_execute
 991 009c AFF30080 		.section	.text.thread4,"ax",%progbits
 992              		.align	2
 993              		.p2align 4,,15
 994              		.thumb
 995              		.thumb_func
 996              		.type	thread4, %function
 997              	thread4:
 998              	.LFB250:
 999              		.loc 1 241 0
 1000              		.cfi_startproc
 1001              		@ args = 0, pretend = 0, frame = 0
 1002              		@ frame_needed = 0, uses_anonymous_args = 0
 1003              	.LVL73:
 1004 0000 08B5     		push	{r3, lr}
 1005              		.cfi_def_cfa_offset 8
 1006              		.cfi_offset 3, -8
 1007              		.cfi_offset 14, -4
 1008              	.LBB443:
 1009              	.LBB444:
 1010              	.LBB445:
 1011              	.LBB446:
 1012              	.LBB447:
 1013              	.LBB448:
 1014              		.loc 3 548 0
 1015 0002 2022     		movs	r2, #32
 1016              	@ 548 "../ChibiOS/os/ext/CMSIS/include/core_cmFunc.h" 1
 1017 0004 82F31188 		MSR basepri, r2
 1018              	@ 0 "" 2
 1019              	.LVL74:
 1020              		.thumb
 1021              	.LBE448:
 1022              	.LBE447:
ARM GAS  /tmp/cccUAoCy.s 			page 19


 1023              	.LBE446:
 1024              	.LBE445:
 1025              	.LBB449:
 1026              	.LBB450:
 1027              		.file 6 "../ChibiOS/os/rt/include/chbsem.h"
 1028              		.loc 6 270 0
 1029 0008 8368     		ldr	r3, [r0, #8]
 1030 000a 002B     		cmp	r3, #0
 1031 000c 05DD     		ble	.L45
 1032              	.LBE450:
 1033              	.LBE449:
 1034              		.loc 6 286 0
 1035 000e FFF7FEFF 		bl	chSchRescheduleS
 1036              	.LVL75:
 1037              	.LBB452:
 1038              	.LBB453:
 1039              	.LBB454:
 1040              	.LBB455:
 1041              	.LBB456:
 1042              		.loc 3 548 0
 1043 0012 0023     		movs	r3, #0
 1044              	@ 548 "../ChibiOS/os/ext/CMSIS/include/core_cmFunc.h" 1
 1045 0014 83F31188 		MSR basepri, r3
 1046              	@ 0 "" 2
 1047              		.thumb
 1048 0018 08BD     		pop	{r3, pc}
 1049              	.LVL76:
 1050              	.L45:
 1051              	.LBE456:
 1052              	.LBE455:
 1053              	.LBE454:
 1054              	.LBE453:
 1055              	.LBE452:
 1056              	.LBB461:
 1057              	.LBB451:
 1058              		.loc 6 271 0
 1059 001a FFF7FEFF 		bl	chSemSignalI
 1060              	.LVL77:
 1061              	.LBE451:
 1062              	.LBE461:
 1063              		.loc 6 286 0
 1064 001e FFF7FEFF 		bl	chSchRescheduleS
 1065              	.LVL78:
 1066              	.LBB462:
 1067              	.LBB460:
 1068              	.LBB459:
 1069              	.LBB458:
 1070              	.LBB457:
 1071              		.loc 3 548 0
 1072 0022 0023     		movs	r3, #0
 1073              	@ 548 "../ChibiOS/os/ext/CMSIS/include/core_cmFunc.h" 1
 1074 0024 83F31188 		MSR basepri, r3
 1075              	@ 0 "" 2
 1076              		.thumb
 1077 0028 08BD     		pop	{r3, pc}
 1078              	.LBE457:
 1079              	.LBE458:
ARM GAS  /tmp/cccUAoCy.s 			page 20


 1080              	.LBE459:
 1081              	.LBE460:
 1082              	.LBE462:
 1083              	.LBE444:
 1084              	.LBE443:
 1085              		.cfi_endproc
 1086              	.LFE250:
 1087              		.size	thread4, .-thread4
 1088 002a 00BFAFF3 		.section	.text.sem4_execute,"ax",%progbits
 1088      0080
 1089              		.align	2
 1090              		.p2align 4,,15
 1091              		.thumb
 1092              		.thumb_func
 1093              		.type	sem4_execute, %function
 1094              	sem4_execute:
 1095              	.LFB251:
 1096              		.loc 1 246 0
 1097              		.cfi_startproc
 1098              		@ args = 0, pretend = 0, frame = 16
 1099              		@ frame_needed = 0, uses_anonymous_args = 0
 1100 0000 70B5     		push	{r4, r5, r6, lr}
 1101              		.cfi_def_cfa_offset 16
 1102              		.cfi_offset 4, -16
 1103              		.cfi_offset 5, -12
 1104              		.cfi_offset 6, -8
 1105              		.cfi_offset 14, -4
 1106 0002 86B0     		sub	sp, sp, #24
 1107              		.cfi_def_cfa_offset 40
 1108              	.LVL79:
 1109              	.LBB591:
 1110              	.LBB592:
 1111              		.loc 6 126 0
 1112 0004 03A8     		add	r0, sp, #12
 1113              	.LVL80:
 1114 0006 0021     		movs	r1, #0
 1115 0008 FFF7FEFF 		bl	chSemObjectInit
 1116              	.LVL81:
 1117              	.LBE592:
 1118              	.LBE591:
 1119              	.LBB593:
 1120              	.LBB594:
 1121              		.loc 6 255 0
 1122 000c 03A8     		add	r0, sp, #12
 1123              	.LVL82:
 1124 000e 0021     		movs	r1, #0
 1125 0010 FFF7FEFF 		bl	chSemReset
 1126              	.LVL83:
 1127              	.LBE594:
 1128              	.LBE593:
 1129              	.LBB595:
 1130              	.LBB596:
 1131              	.LBB597:
 1132              	.LBB598:
 1133              		.loc 3 548 0
 1134 0014 2025     		movs	r5, #32
 1135              	@ 548 "../ChibiOS/os/ext/CMSIS/include/core_cmFunc.h" 1
ARM GAS  /tmp/cccUAoCy.s 			page 21


 1136 0016 85F31188 		MSR basepri, r5
 1137              	@ 0 "" 2
 1138              	.LVL84:
 1139              		.thumb
 1140              	.LBE598:
 1141              	.LBE597:
 1142              	.LBE596:
 1143              	.LBE595:
 1144              	.LBB599:
 1145              	.LBB600:
 1146              		.loc 6 304 0
 1147 001a 0599     		ldr	r1, [sp, #20]
 1148              	.LBE600:
 1149              	.LBE599:
 1150              		.loc 1 252 0
 1151 001c 0029     		cmp	r1, #0
 1152 001e 4FF00100 		mov	r0, #1
 1153 0022 CCBF     		ite	gt
 1154 0024 0021     		movgt	r1, #0
 1155 0026 0121     		movle	r1, #1
 1156 0028 FFF7FEFF 		bl	_test_assert
 1157              	.LVL85:
 1158 002c 0446     		mov	r4, r0
 1159 002e 20B1     		cbz	r0, .L47
 1160              	.LVL86:
 1161              	.LBB601:
 1162              	.LBB602:
 1163              	.LBB603:
 1164              	.LBB604:
 1165              	.LBB605:
 1166              		.loc 3 548 0
 1167 0030 0023     		movs	r3, #0
 1168              	@ 548 "../ChibiOS/os/ext/CMSIS/include/core_cmFunc.h" 1
 1169 0032 83F31188 		MSR basepri, r3
 1170              	@ 0 "" 2
 1171              	.LVL87:
 1172              		.thumb
 1173              	.L46:
 1174              	.LBE605:
 1175              	.LBE604:
 1176              	.LBE603:
 1177              	.LBE602:
 1178              	.LBE601:
 1179              		.loc 1 274 0
 1180 0036 06B0     		add	sp, sp, #24
 1181              		@ sp needed
 1182 0038 70BD     		pop	{r4, r5, r6, pc}
 1183              	.LVL88:
 1184              	.L47:
 1185              	.LBB606:
 1186              	.LBB607:
 1187              	.LBB608:
 1188              	.LBB609:
 1189              	.LBB610:
 1190              		.loc 3 548 0
 1191              	@ 548 "../ChibiOS/os/ext/CMSIS/include/core_cmFunc.h" 1
 1192 003a 80F31188 		MSR basepri, r0
ARM GAS  /tmp/cccUAoCy.s 			page 22


 1193              	@ 0 "" 2
 1194              		.thumb
 1195              	.LBE610:
 1196              	.LBE609:
 1197              	.LBE608:
 1198              	.LBE607:
 1199              	.LBE606:
 1200              	.LBB611:
 1201              	.LBB612:
 1202              	.LBB613:
 1203              	.LBB614:
 1204              		.loc 2 176 0
 1205 003e 3F4B     		ldr	r3, .L61
 1206              	.LBE614:
 1207              	.LBE613:
 1208              	.LBE612:
 1209              	.LBE611:
 1210              		.loc 1 255 0
 1211 0040 3F4A     		ldr	r2, .L61+4
 1212              	.LBB616:
 1213              	.LBB615:
 1214              		.loc 2 189 0
 1215 0042 9B69     		ldr	r3, [r3, #24]
 1216              	.LBE615:
 1217              	.LBE616:
 1218              		.loc 1 255 0
 1219 0044 1068     		ldr	r0, [r2]
 1220 0046 9A68     		ldr	r2, [r3, #8]
 1221 0048 3E4B     		ldr	r3, .L61+8
 1222 004a 03A9     		add	r1, sp, #12
 1223              	.LVL89:
 1224 004c 0091     		str	r1, [sp]
 1225 004e 013A     		subs	r2, r2, #1
 1226 0050 4FF4A471 		mov	r1, #328
 1227              	.LVL90:
 1228 0054 FFF7FEFF 		bl	chThdCreateStatic
 1229              	.LVL91:
 1230 0058 3B4B     		ldr	r3, .L61+12
 1231 005a 1860     		str	r0, [r3]
 1232              	.LVL92:
 1233              	.LBB617:
 1234              	.LBB618:
 1235              		.loc 6 143 0
 1236 005c 03A8     		add	r0, sp, #12
 1237              	.LVL93:
 1238 005e FFF7FEFF 		bl	chSemWait
 1239              	.LVL94:
 1240              	.LBE618:
 1241              	.LBE617:
 1242              	.LBB619:
 1243              	.LBB620:
 1244              	.LBB621:
 1245              	.LBB622:
 1246              		.loc 3 548 0
 1247              	@ 548 "../ChibiOS/os/ext/CMSIS/include/core_cmFunc.h" 1
 1248 0062 85F31188 		MSR basepri, r5
 1249              	@ 0 "" 2
ARM GAS  /tmp/cccUAoCy.s 			page 23


 1250              	.LVL95:
 1251              		.thumb
 1252              	.LBE622:
 1253              	.LBE621:
 1254              	.LBE620:
 1255              	.LBE619:
 1256              	.LBB623:
 1257              	.LBB624:
 1258              		.loc 6 304 0
 1259 0066 0599     		ldr	r1, [sp, #20]
 1260              	.LBE624:
 1261              	.LBE623:
 1262              		.loc 1 262 0
 1263 0068 0029     		cmp	r1, #0
 1264 006a CCBF     		ite	gt
 1265 006c 0021     		movgt	r1, #0
 1266 006e 0121     		movle	r1, #1
 1267 0070 0220     		movs	r0, #2
 1268 0072 FFF7FEFF 		bl	_test_assert
 1269              	.LVL96:
 1270 0076 18B1     		cbz	r0, .L49
 1271              	.L57:
 1272              	.LVL97:
 1273              	.LBB625:
 1274              	.LBB626:
 1275              	.LBB627:
 1276              	.LBB628:
 1277              	.LBB629:
 1278              		.loc 3 548 0
 1279              	@ 548 "../ChibiOS/os/ext/CMSIS/include/core_cmFunc.h" 1
 1280 0078 84F31188 		MSR basepri, r4
 1281              	@ 0 "" 2
 1282              		.thumb
 1283              	.LBE629:
 1284              	.LBE628:
 1285              	.LBE627:
 1286              	.LBE626:
 1287              	.LBE625:
 1288              		.loc 1 274 0
 1289 007c 06B0     		add	sp, sp, #24
 1290              		@ sp needed
 1291 007e 70BD     		pop	{r4, r5, r6, pc}
 1292              	.LVL98:
 1293              	.L49:
 1294              	.LBB630:
 1295              	.LBB631:
 1296              	.LBB632:
 1297              	.LBB633:
 1298              	.LBB634:
 1299              		.loc 3 548 0
 1300              	@ 548 "../ChibiOS/os/ext/CMSIS/include/core_cmFunc.h" 1
 1301 0080 80F31188 		MSR basepri, r0
 1302              	@ 0 "" 2
 1303              	.LVL99:
 1304              		.thumb
 1305              	.LBE634:
 1306              	.LBE633:
ARM GAS  /tmp/cccUAoCy.s 			page 24


 1307              	.LBE632:
 1308              	.LBE631:
 1309              	.LBE630:
 1310              	.LBB635:
 1311              	.LBB636:
 1312              	.LBB637:
 1313              	.LBB638:
 1314              	.LBB639:
 1315              	.LBB640:
 1316              	@ 548 "../ChibiOS/os/ext/CMSIS/include/core_cmFunc.h" 1
 1317 0084 85F31188 		MSR basepri, r5
 1318              	@ 0 "" 2
 1319              	.LVL100:
 1320              		.thumb
 1321              	.LBE640:
 1322              	.LBE639:
 1323              	.LBE638:
 1324              	.LBE637:
 1325              	.LBB641:
 1326              	.LBB642:
 1327              		.loc 6 270 0
 1328 0088 059B     		ldr	r3, [sp, #20]
 1329 008a 002B     		cmp	r3, #0
 1330 008c 22DD     		ble	.L59
 1331              	.L50:
 1332              	.LBE642:
 1333              	.LBE641:
 1334              		.loc 6 286 0
 1335 008e FFF7FEFF 		bl	chSchRescheduleS
 1336              	.LVL101:
 1337              	.LBB644:
 1338              	.LBB645:
 1339              	.LBB646:
 1340              	.LBB647:
 1341              	.LBB648:
 1342              		.loc 3 548 0
 1343 0092 0024     		movs	r4, #0
 1344              	@ 548 "../ChibiOS/os/ext/CMSIS/include/core_cmFunc.h" 1
 1345 0094 84F31188 		MSR basepri, r4
 1346              	@ 0 "" 2
 1347              	.LVL102:
 1348              		.thumb
 1349              	.LBE648:
 1350              	.LBE647:
 1351              	.LBE646:
 1352              	.LBE645:
 1353              	.LBE644:
 1354              	.LBE636:
 1355              	.LBE635:
 1356              	.LBB651:
 1357              	.LBB652:
 1358              	.LBB653:
 1359              	.LBB654:
 1360 0098 2026     		movs	r6, #32
 1361              	@ 548 "../ChibiOS/os/ext/CMSIS/include/core_cmFunc.h" 1
 1362 009a 86F31188 		MSR basepri, r6
 1363              	@ 0 "" 2
ARM GAS  /tmp/cccUAoCy.s 			page 25


 1364              	.LVL103:
 1365              		.thumb
 1366              	.LBE654:
 1367              	.LBE653:
 1368              	.LBE652:
 1369              	.LBE651:
 1370              		.loc 1 267 0
 1371 009e 0599     		ldr	r1, [sp, #20]
 1372 00a0 A142     		cmp	r1, r4
 1373 00a2 4FF00300 		mov	r0, #3
 1374 00a6 D4BF     		ite	le
 1375 00a8 0021     		movle	r1, #0
 1376 00aa 0121     		movgt	r1, #1
 1377 00ac FFF7FEFF 		bl	_test_assert
 1378              	.LVL104:
 1379 00b0 0546     		mov	r5, r0
 1380 00b2 0028     		cmp	r0, #0
 1381 00b4 E0D1     		bne	.L57
 1382              	.LVL105:
 1383              	.LBB655:
 1384              	.LBB656:
 1385              	.LBB657:
 1386              	.LBB658:
 1387              	.LBB659:
 1388              		.loc 3 548 0
 1389              	@ 548 "../ChibiOS/os/ext/CMSIS/include/core_cmFunc.h" 1
 1390 00b6 80F31188 		MSR basepri, r0
 1391              	@ 0 "" 2
 1392              	.LVL106:
 1393              		.thumb
 1394              	.LBE659:
 1395              	.LBE658:
 1396              	.LBE657:
 1397              	.LBE656:
 1398              	.LBE655:
 1399              	.LBB660:
 1400              	.LBB661:
 1401              	.LBB662:
 1402              	.LBB663:
 1403              	@ 548 "../ChibiOS/os/ext/CMSIS/include/core_cmFunc.h" 1
 1404 00ba 86F31188 		MSR basepri, r6
 1405              	@ 0 "" 2
 1406              	.LVL107:
 1407              		.thumb
 1408              	.LBE663:
 1409              	.LBE662:
 1410              	.LBE661:
 1411              	.LBE660:
 1412              		.loc 1 268 0
 1413 00be 0599     		ldr	r1, [sp, #20]
 1414 00c0 4A1E     		subs	r2, r1, #1
 1415 00c2 5142     		rsbs	r1, r2, #0
 1416 00c4 5141     		adcs	r1, r1, r2
 1417 00c6 0420     		movs	r0, #4
 1418 00c8 FFF7FEFF 		bl	_test_assert
 1419              	.LVL108:
 1420 00cc 30B1     		cbz	r0, .L52
ARM GAS  /tmp/cccUAoCy.s 			page 26


 1421              	.L58:
 1422              	.LVL109:
 1423              	.LBB664:
 1424              	.LBB665:
 1425              	.LBB666:
 1426              	.LBB667:
 1427              	.LBB668:
 1428              		.loc 3 548 0
 1429              	@ 548 "../ChibiOS/os/ext/CMSIS/include/core_cmFunc.h" 1
 1430 00ce 85F31188 		MSR basepri, r5
 1431              	@ 0 "" 2
 1432              		.thumb
 1433 00d2 B0E7     		b	.L46
 1434              	.LVL110:
 1435              	.L59:
 1436              	.LBE668:
 1437              	.LBE667:
 1438              	.LBE666:
 1439              	.LBE665:
 1440              	.LBE664:
 1441              	.LBB669:
 1442              	.LBB650:
 1443              	.LBB649:
 1444              	.LBB643:
 1445              		.loc 6 271 0
 1446 00d4 03A8     		add	r0, sp, #12
 1447              	.LVL111:
 1448 00d6 FFF7FEFF 		bl	chSemSignalI
 1449              	.LVL112:
 1450 00da D8E7     		b	.L50
 1451              	.LVL113:
 1452              	.L52:
 1453              	.LBE643:
 1454              	.LBE649:
 1455              	.LBE650:
 1456              	.LBE669:
 1457              	.LBB670:
 1458              	.LBB671:
 1459              	.LBB672:
 1460              	.LBB673:
 1461              	.LBB674:
 1462              		.loc 3 548 0
 1463              	@ 548 "../ChibiOS/os/ext/CMSIS/include/core_cmFunc.h" 1
 1464 00dc 80F31188 		MSR basepri, r0
 1465              	@ 0 "" 2
 1466              	.LVL114:
 1467              		.thumb
 1468              	.LBE674:
 1469              	.LBE673:
 1470              	.LBE672:
 1471              	.LBE671:
 1472              	.LBE670:
 1473              	.LBB675:
 1474              	.LBB676:
 1475              	.LBB677:
 1476              	.LBB678:
 1477              	.LBB679:
ARM GAS  /tmp/cccUAoCy.s 			page 27


 1478              	.LBB680:
 1479              	@ 548 "../ChibiOS/os/ext/CMSIS/include/core_cmFunc.h" 1
 1480 00e0 86F31188 		MSR basepri, r6
 1481              	@ 0 "" 2
 1482              	.LVL115:
 1483              		.thumb
 1484              	.LBE680:
 1485              	.LBE679:
 1486              	.LBE678:
 1487              	.LBE677:
 1488              	.LBB681:
 1489              	.LBB682:
 1490              		.loc 6 270 0
 1491 00e4 059B     		ldr	r3, [sp, #20]
 1492 00e6 002B     		cmp	r3, #0
 1493 00e8 23DD     		ble	.L60
 1494              	.L53:
 1495              	.LBE682:
 1496              	.LBE681:
 1497              		.loc 6 286 0
 1498 00ea FFF7FEFF 		bl	chSchRescheduleS
 1499              	.LVL116:
 1500              	.LBB684:
 1501              	.LBB685:
 1502              	.LBB686:
 1503              	.LBB687:
 1504              	.LBB688:
 1505              		.loc 3 548 0
 1506 00ee 0024     		movs	r4, #0
 1507              	@ 548 "../ChibiOS/os/ext/CMSIS/include/core_cmFunc.h" 1
 1508 00f0 84F31188 		MSR basepri, r4
 1509              	@ 0 "" 2
 1510              	.LVL117:
 1511              		.thumb
 1512              	.LBE688:
 1513              	.LBE687:
 1514              	.LBE686:
 1515              	.LBE685:
 1516              	.LBE684:
 1517              	.LBE676:
 1518              	.LBE675:
 1519              	.LBB691:
 1520              	.LBB692:
 1521              	.LBB693:
 1522              	.LBB694:
 1523 00f4 2026     		movs	r6, #32
 1524              	@ 548 "../ChibiOS/os/ext/CMSIS/include/core_cmFunc.h" 1
 1525 00f6 86F31188 		MSR basepri, r6
 1526              	@ 0 "" 2
 1527              	.LVL118:
 1528              		.thumb
 1529              	.LBE694:
 1530              	.LBE693:
 1531              	.LBE692:
 1532              	.LBE691:
 1533              		.loc 1 272 0
 1534 00fa 0599     		ldr	r1, [sp, #20]
ARM GAS  /tmp/cccUAoCy.s 			page 28


 1535 00fc A142     		cmp	r1, r4
 1536 00fe 4FF00300 		mov	r0, #3
 1537 0102 D4BF     		ite	le
 1538 0104 0021     		movle	r1, #0
 1539 0106 0121     		movgt	r1, #1
 1540 0108 FFF7FEFF 		bl	_test_assert
 1541              	.LVL119:
 1542 010c 0546     		mov	r5, r0
 1543 010e 0028     		cmp	r0, #0
 1544 0110 B2D1     		bne	.L57
 1545              	.LVL120:
 1546              	.LBB695:
 1547              	.LBB696:
 1548              	.LBB697:
 1549              	.LBB698:
 1550              	.LBB699:
 1551              		.loc 3 548 0
 1552              	@ 548 "../ChibiOS/os/ext/CMSIS/include/core_cmFunc.h" 1
 1553 0112 80F31188 		MSR basepri, r0
 1554              	@ 0 "" 2
 1555              	.LVL121:
 1556              		.thumb
 1557              	.LBE699:
 1558              	.LBE698:
 1559              	.LBE697:
 1560              	.LBE696:
 1561              	.LBE695:
 1562              	.LBB700:
 1563              	.LBB701:
 1564              	.LBB702:
 1565              	.LBB703:
 1566              	@ 548 "../ChibiOS/os/ext/CMSIS/include/core_cmFunc.h" 1
 1567 0116 86F31188 		MSR basepri, r6
 1568              	@ 0 "" 2
 1569              	.LVL122:
 1570              		.thumb
 1571              	.LBE703:
 1572              	.LBE702:
 1573              	.LBE701:
 1574              	.LBE700:
 1575              		.loc 1 273 0
 1576 011a 0599     		ldr	r1, [sp, #20]
 1577 011c 4B1E     		subs	r3, r1, #1
 1578 011e 5942     		rsbs	r1, r3, #0
 1579 0120 5941     		adcs	r1, r1, r3
 1580 0122 0520     		movs	r0, #5
 1581 0124 FFF7FEFF 		bl	_test_assert
 1582              	.LVL123:
 1583 0128 0028     		cmp	r0, #0
 1584 012a D0D1     		bne	.L58
 1585              	.LVL124:
 1586              	.LBB704:
 1587              	.LBB705:
 1588              	.LBB706:
 1589              	.LBB707:
 1590              	.LBB708:
 1591              		.loc 3 548 0
ARM GAS  /tmp/cccUAoCy.s 			page 29


 1592              	@ 548 "../ChibiOS/os/ext/CMSIS/include/core_cmFunc.h" 1
 1593 012c 80F31188 		MSR basepri, r0
 1594              	@ 0 "" 2
 1595              		.thumb
 1596              	.LBE708:
 1597              	.LBE707:
 1598              	.LBE706:
 1599              	.LBE705:
 1600              	.LBE704:
 1601 0130 81E7     		b	.L46
 1602              	.LVL125:
 1603              	.L60:
 1604              	.LBB709:
 1605              	.LBB690:
 1606              	.LBB689:
 1607              	.LBB683:
 1608              		.loc 6 271 0
 1609 0132 03A8     		add	r0, sp, #12
 1610              	.LVL126:
 1611 0134 FFF7FEFF 		bl	chSemSignalI
 1612              	.LVL127:
 1613 0138 D7E7     		b	.L53
 1614              	.L62:
 1615 013a 00BF     		.align	2
 1616              	.L61:
 1617 013c 00000000 		.word	ch
 1618 0140 00000000 		.word	wa
 1619 0144 00000000 		.word	thread4
 1620 0148 00000000 		.word	threads
 1621              	.LBE683:
 1622              	.LBE689:
 1623              	.LBE690:
 1624              	.LBE709:
 1625              		.cfi_endproc
 1626              	.LFE251:
 1627              		.size	sem4_execute, .-sem4_execute
 1628              		.global	patternsem
 1629              		.global	testsem4
 1630              		.global	testsem3
 1631              		.global	testsem2
 1632              		.global	testsem1
 1633 014c AFF30080 		.section	.rodata.testsem1,"a",%progbits
 1634              		.align	2
 1635              		.type	testsem1, %object
 1636              		.size	testsem1, 16
 1637              	testsem1:
 1638 0000 74000000 		.word	.LC9
 1639 0004 00000000 		.word	sem1_setup
 1640 0008 00000000 		.word	0
 1641 000c 00000000 		.word	sem1_execute
 1642              		.section	.rodata.testsem2,"a",%progbits
 1643              		.align	2
 1644              		.type	testsem2, %object
 1645              		.size	testsem2, 16
 1646              	testsem2:
 1647 0000 60000000 		.word	.LC8
 1648 0004 00000000 		.word	sem2_setup
ARM GAS  /tmp/cccUAoCy.s 			page 30


 1649 0008 00000000 		.word	0
 1650 000c 00000000 		.word	sem2_execute
 1651              		.section	.rodata.testsem3,"a",%progbits
 1652              		.align	2
 1653              		.type	testsem3, %object
 1654              		.size	testsem3, 16
 1655              	testsem3:
 1656 0000 40000000 		.word	.LC7
 1657 0004 00000000 		.word	sem3_setup
 1658 0008 00000000 		.word	0
 1659 000c 00000000 		.word	sem3_execute
 1660              		.section	.rodata.testsem4,"a",%progbits
 1661              		.align	2
 1662              		.type	testsem4, %object
 1663              		.size	testsem4, 16
 1664              	testsem4:
 1665 0000 1C000000 		.word	.LC6
 1666 0004 00000000 		.word	0
 1667 0008 00000000 		.word	0
 1668 000c 00000000 		.word	sem4_execute
 1669              		.section	.data.sem1,"aw",%progbits
 1670              		.align	2
 1671              		.set	.LANCHOR0,. + 0
 1672              		.type	sem1, %object
 1673              		.size	sem1, 12
 1674              	sem1:
 1675 0000 00000000 		.word	sem1
 1676 0004 00000000 		.word	sem1
 1677 0008 00000000 		.word	0
 1678              		.section	.rodata.patternsem,"a",%progbits
 1679              		.align	2
 1680              		.type	patternsem, %object
 1681              		.size	patternsem, 20
 1682              	patternsem:
 1683 0000 00000000 		.word	testsem1
 1684 0004 00000000 		.word	testsem2
 1685 0008 00000000 		.word	testsem3
 1686 000c 00000000 		.word	testsem4
 1687 0010 00000000 		.word	0
 1688              		.section	.rodata.str1.4,"aMS",%progbits,1
 1689              		.align	2
 1690              	.LC0:
 1691 0000 4100     		.ascii	"A\000"
 1692 0002 0000     		.space	2
 1693              	.LC1:
 1694 0004 4200     		.ascii	"B\000"
 1695 0006 0000     		.space	2
 1696              	.LC2:
 1697 0008 4300     		.ascii	"C\000"
 1698 000a 0000     		.space	2
 1699              	.LC3:
 1700 000c 4400     		.ascii	"D\000"
 1701 000e 0000     		.space	2
 1702              	.LC4:
 1703 0010 4500     		.ascii	"E\000"
 1704 0012 0000     		.space	2
 1705              	.LC5:
ARM GAS  /tmp/cccUAoCy.s 			page 31


 1706 0014 41424344 		.ascii	"ABCDE\000"
 1706      4500
 1707 001a 0000     		.space	2
 1708              	.LC6:
 1709 001c 42696E61 		.ascii	"Binary Semaphores, functionality\000"
 1709      72792053 
 1709      656D6170 
 1709      686F7265 
 1709      732C2066 
 1710 003d 000000   		.space	3
 1711              	.LC7:
 1712 0040 53656D61 		.ascii	"Semaphores, atomic signal-wait\000"
 1712      70686F72 
 1712      65732C20 
 1712      61746F6D 
 1712      69632073 
 1713 005f 00       		.space	1
 1714              	.LC8:
 1715 0060 53656D61 		.ascii	"Semaphores, timeout\000"
 1715      70686F72 
 1715      65732C20 
 1715      74696D65 
 1715      6F757400 
 1716              	.LC9:
 1717 0074 53656D61 		.ascii	"Semaphores, enqueuing\000"
 1717      70686F72 
 1717      65732C20 
 1717      656E7175 
 1717      6575696E 
 1718 008a 0000     		.text
 1719              	.Letext0:
 1720              		.file 7 "/nfs/nfs5/home/research/hardware/arm2/gcc-arm-embedded/gcc-arm-none-eabi-4_8-2014q2/lib/g
 1721              		.file 8 "/nfs/nfs5/home/research/hardware/arm2/gcc-arm-embedded/gcc-arm-none-eabi-4_8-2014q2/arm-n
 1722              		.file 9 "/nfs/nfs5/home/research/hardware/arm2/gcc-arm-embedded/gcc-arm-none-eabi-4_8-2014q2/arm-n
 1723              		.file 10 "../ChibiOS/os/rt/ports/ARMCMx/compilers/GCC/chtypes.h"
 1724              		.file 11 "../ChibiOS/os/rt/include/chsystypes.h"
 1725              		.file 12 "../ChibiOS/os/rt/ports/ARMCMx/chcore.h"
 1726              		.file 13 "../ChibiOS/os/rt/ports/ARMCMx/chcore_v7m.h"
 1727              		.file 14 "../ChibiOS/os/hal/ports/STM32/LLD/TIMv1/stm32_tim.h"
 1728              		.file 15 "../ChibiOS/os/rt/include/chtm.h"
 1729              		.file 16 "../ChibiOS/os/rt/include/chsem.h"
 1730              		.file 17 "../ChibiOS/os/rt/include/chmtx.h"
 1731              		.file 18 "../ChibiOS/test/rt/test.h"
 1732              		.file 19 "../ChibiOS/os/rt/ports/ARMCMx/chcore_timer.h"
 1733              		.file 20 "../ChibiOS/os/rt/include/chsys.h"
 1734              		.file 21 "../ChibiOS/os/rt/include/chvt.h"
 1735              		.file 22 "../ChibiOS/os/ext/CMSIS/include/core_cm4.h"