ARM GAS  /tmp/ccfGo11N.s 			page 1


   1              		.syntax unified
   2              		.cpu cortex-m4
   3              		.fpu softvfp
   4              		.eabi_attribute 20, 1
   5              		.eabi_attribute 21, 1
   6              		.eabi_attribute 23, 3
   7              		.eabi_attribute 24, 1
   8              		.eabi_attribute 25, 1
   9              		.eabi_attribute 26, 1
  10              		.eabi_attribute 30, 2
  11              		.eabi_attribute 34, 1
  12              		.eabi_attribute 18, 4
  13              		.thumb
  14              		.file	"test.c"
  15              		.text
  16              	.Ltext0:
  17              		.cfi_sections	.debug_frame
  18              		.section	.text.tmr,"ax",%progbits
  19              		.align	2
  20              		.p2align 4,,15
  21              		.thumb
  22              		.thumb_func
  23              		.type	tmr, %function
  24              	tmr:
  25              	.LFB285:
  26              		.file 1 "../ChibiOS/test/rt/test.c"
  27              		.loc 1 264 0
  28              		.cfi_startproc
  29              		@ args = 0, pretend = 0, frame = 0
  30              		@ frame_needed = 0, uses_anonymous_args = 0
  31              		@ link register save eliminated.
  32              	.LVL0:
  33              		.loc 1 267 0
  34 0000 014B     		ldr	r3, .L2
  35 0002 0122     		movs	r2, #1
  36 0004 1A70     		strb	r2, [r3]
  37 0006 7047     		bx	lr
  38              	.L3:
  39              		.align	2
  40              	.L2:
  41 0008 00000000 		.word	.LANCHOR0
  42              		.cfi_endproc
  43              	.LFE285:
  44              		.size	tmr, .-tmr
  45 000c AFF30080 		.section	.text.print_line,"ax",%progbits
  46              		.align	2
  47              		.p2align 4,,15
  48              		.thumb
  49              		.thumb_func
  50              		.type	print_line, %function
  51              	print_line:
  52              	.LFB288:
  53              		.loc 1 303 0
  54              		.cfi_startproc
  55              		@ args = 0, pretend = 0, frame = 0
  56              		@ frame_needed = 0, uses_anonymous_args = 0
  57              	.LVL1:
ARM GAS  /tmp/ccfGo11N.s 			page 2


  58 0000 70B5     		push	{r4, r5, r6, lr}
  59              		.cfi_def_cfa_offset 16
  60              		.cfi_offset 4, -16
  61              		.cfi_offset 5, -12
  62              		.cfi_offset 6, -8
  63              		.cfi_offset 14, -4
  64 0002 084E     		ldr	r6, .L8
  65              		.loc 1 303 0
  66 0004 4C24     		movs	r4, #76
  67              	.LVL2:
  68              	.L6:
  69              		.loc 1 307 0 discriminator 2
  70 0006 3068     		ldr	r0, [r6]
  71 0008 064D     		ldr	r5, .L8
  72 000a 0368     		ldr	r3, [r0]
  73 000c 2D21     		movs	r1, #45
  74 000e 9B68     		ldr	r3, [r3, #8]
  75 0010 9847     		blx	r3
  76              	.LVL3:
  77              		.loc 1 306 0 discriminator 2
  78 0012 013C     		subs	r4, r4, #1
  79              	.LVL4:
  80 0014 F7D1     		bne	.L6
  81              		.loc 1 308 0
  82 0016 2868     		ldr	r0, [r5]
  83 0018 0349     		ldr	r1, .L8+4
  84 001a 0368     		ldr	r3, [r0]
  85 001c 0222     		movs	r2, #2
  86 001e 1B68     		ldr	r3, [r3]
  87 0020 9847     		blx	r3
  88              	.LVL5:
  89 0022 70BD     		pop	{r4, r5, r6, pc}
  90              	.LVL6:
  91              	.L9:
  92              		.align	2
  93              	.L8:
  94 0024 00000000 		.word	.LANCHOR1
  95 0028 00000000 		.word	.LC0
  96              		.cfi_endproc
  97              	.LFE288:
  98              		.size	print_line, .-print_line
  99 002c AFF30080 		.section	.text.test_printn,"ax",%progbits
 100              		.align	2
 101              		.p2align 4,,15
 102              		.global	test_printn
 103              		.thumb
 104              		.thumb_func
 105              		.type	test_printn, %function
 106              	test_printn:
 107              	.LFB272:
 108              		.loc 1 94 0
 109              		.cfi_startproc
 110              		@ args = 0, pretend = 0, frame = 16
 111              		@ frame_needed = 0, uses_anonymous_args = 0
 112              	.LVL7:
 113 0000 70B5     		push	{r4, r5, r6, lr}
 114              		.cfi_def_cfa_offset 16
ARM GAS  /tmp/ccfGo11N.s 			page 3


 115              		.cfi_offset 4, -16
 116              		.cfi_offset 5, -12
 117              		.cfi_offset 6, -8
 118              		.cfi_offset 14, -4
 119 0002 84B0     		sub	sp, sp, #16
 120              		.cfi_def_cfa_offset 32
 121              		.loc 1 97 0
 122 0004 18B3     		cbz	r0, .L18
 123 0006 0DF10105 		add	r5, sp, #1
 124              		.loc 1 102 0
 125 000a 154E     		ldr	r6, .L20
 126 000c 2B46     		mov	r3, r5
 127              	.LVL8:
 128              	.L14:
 129 000e A6FB0012 		umull	r1, r2, r6, r0
 130 0012 D208     		lsrs	r2, r2, #3
 131 0014 02EB8201 		add	r1, r2, r2, lsl #2
 132 0018 A0EB4101 		sub	r1, r0, r1, lsl #1
 133 001c 3031     		adds	r1, r1, #48
 134 001e C9B2     		uxtb	r1, r1
 135 0020 03F8011C 		strb	r1, [r3, #-1]
 136 0024 1C46     		mov	r4, r3
 137              	.LVL9:
 138              		.loc 1 101 0
 139 0026 1046     		mov	r0, r2
 140 0028 0133     		adds	r3, r3, #1
 141              	.LVL10:
 142 002a 002A     		cmp	r2, #0
 143 002c EFD1     		bne	.L14
 144              		.loc 1 103 0 discriminator 1
 145 002e 6B46     		mov	r3, sp
 146 0030 9C42     		cmp	r4, r3
 147 0032 0AD9     		bls	.L10
 148 0034 0B4E     		ldr	r6, .L20+4
 149 0036 02E0     		b	.L17
 150              	.LVL11:
 151              	.L19:
 152 0038 14F8021C 		ldrb	r1, [r4, #-2]	@ zero_extendqisi2
 153 003c 013C     		subs	r4, r4, #1
 154              	.LVL12:
 155              	.L17:
 156              		.loc 1 104 0
 157 003e 3068     		ldr	r0, [r6]
 158              	.LVL13:
 159 0040 0368     		ldr	r3, [r0]
 160 0042 9B68     		ldr	r3, [r3, #8]
 161 0044 9847     		blx	r3
 162              	.LVL14:
 163              		.loc 1 103 0
 164 0046 AC42     		cmp	r4, r5
 165 0048 F6D1     		bne	.L19
 166              	.LVL15:
 167              	.L10:
 168              		.loc 1 106 0
 169 004a 04B0     		add	sp, sp, #16
 170              		@ sp needed
 171 004c 70BD     		pop	{r4, r5, r6, pc}
ARM GAS  /tmp/ccfGo11N.s 			page 4


 172              	.LVL16:
 173              	.L18:
 174              	.LBB171:
 175              	.LBB172:
 176              		.loc 1 98 0
 177 004e 054B     		ldr	r3, .L20+4
 178 0050 1868     		ldr	r0, [r3]
 179              	.LVL17:
 180 0052 0368     		ldr	r3, [r0]
 181 0054 3021     		movs	r1, #48
 182 0056 9B68     		ldr	r3, [r3, #8]
 183 0058 9847     		blx	r3
 184              	.LVL18:
 185              	.LBE172:
 186              	.LBE171:
 187              		.loc 1 106 0
 188 005a 04B0     		add	sp, sp, #16
 189              		@ sp needed
 190 005c 70BD     		pop	{r4, r5, r6, pc}
 191              	.L21:
 192 005e 00BF     		.align	2
 193              	.L20:
 194 0060 CDCCCCCC 		.word	-858993459
 195 0064 00000000 		.word	.LANCHOR1
 196              		.cfi_endproc
 197              	.LFE272:
 198              		.size	test_printn, .-test_printn
 199 0068 AFF30080 		.section	.text.test_print,"ax",%progbits
 199      AFF30080 
 200              		.align	2
 201              		.p2align 4,,15
 202              		.global	test_print
 203              		.thumb
 204              		.thumb_func
 205              		.type	test_print, %function
 206              	test_print:
 207              	.LFB273:
 208              		.loc 1 113 0
 209              		.cfi_startproc
 210              		@ args = 0, pretend = 0, frame = 0
 211              		@ frame_needed = 0, uses_anonymous_args = 0
 212              	.LVL19:
 213 0000 38B5     		push	{r3, r4, r5, lr}
 214              		.cfi_def_cfa_offset 16
 215              		.cfi_offset 3, -16
 216              		.cfi_offset 4, -12
 217              		.cfi_offset 5, -8
 218              		.cfi_offset 14, -4
 219              		.loc 1 115 0
 220 0002 0178     		ldrb	r1, [r0]	@ zero_extendqisi2
 221 0004 49B1     		cbz	r1, .L22
 222 0006 054D     		ldr	r5, .L29
 223 0008 0446     		mov	r4, r0
 224              	.LVL20:
 225              	.L25:
 226              		.loc 1 116 0
 227 000a 2868     		ldr	r0, [r5]
ARM GAS  /tmp/ccfGo11N.s 			page 5


 228              	.LVL21:
 229 000c 0368     		ldr	r3, [r0]
 230 000e 9B68     		ldr	r3, [r3, #8]
 231 0010 9847     		blx	r3
 232              	.LVL22:
 233              		.loc 1 115 0
 234 0012 14F8011F 		ldrb	r1, [r4, #1]!	@ zero_extendqisi2
 235              	.LVL23:
 236 0016 0029     		cmp	r1, #0
 237 0018 F7D1     		bne	.L25
 238              	.LVL24:
 239              	.L22:
 240 001a 38BD     		pop	{r3, r4, r5, pc}
 241              	.L30:
 242              		.align	2
 243              	.L29:
 244 001c 00000000 		.word	.LANCHOR1
 245              		.cfi_endproc
 246              	.LFE273:
 247              		.size	test_print, .-test_print
 248              		.section	.text.test_println,"ax",%progbits
 249              		.align	2
 250              		.p2align 4,,15
 251              		.global	test_println
 252              		.thumb
 253              		.thumb_func
 254              		.type	test_println, %function
 255              	test_println:
 256              	.LFB274:
 257              		.loc 1 124 0
 258              		.cfi_startproc
 259              		@ args = 0, pretend = 0, frame = 0
 260              		@ frame_needed = 0, uses_anonymous_args = 0
 261              	.LVL25:
 262 0000 38B5     		push	{r3, r4, r5, lr}
 263              		.cfi_def_cfa_offset 16
 264              		.cfi_offset 3, -16
 265              		.cfi_offset 4, -12
 266              		.cfi_offset 5, -8
 267              		.cfi_offset 14, -4
 268              	.LBB173:
 269              	.LBB174:
 270              		.loc 1 115 0
 271 0002 0178     		ldrb	r1, [r0]	@ zero_extendqisi2
 272 0004 084D     		ldr	r5, .L39
 273 0006 0446     		mov	r4, r0
 274 0008 39B1     		cbz	r1, .L33
 275              	.LVL26:
 276              	.L34:
 277              		.loc 1 116 0
 278 000a 2868     		ldr	r0, [r5]
 279              	.LVL27:
 280 000c 0368     		ldr	r3, [r0]
 281 000e 9B68     		ldr	r3, [r3, #8]
 282 0010 9847     		blx	r3
 283              	.LVL28:
 284              		.loc 1 115 0
ARM GAS  /tmp/ccfGo11N.s 			page 6


 285 0012 14F8011F 		ldrb	r1, [r4, #1]!	@ zero_extendqisi2
 286              	.LVL29:
 287 0016 0029     		cmp	r1, #0
 288 0018 F7D1     		bne	.L34
 289              	.LVL30:
 290              	.L33:
 291              	.LBE174:
 292              	.LBE173:
 293              		.loc 1 127 0
 294 001a 2868     		ldr	r0, [r5]
 295 001c 0349     		ldr	r1, .L39+4
 296 001e 0368     		ldr	r3, [r0]
 297 0020 0222     		movs	r2, #2
 298 0022 1B68     		ldr	r3, [r3]
 299 0024 9847     		blx	r3
 300              	.LVL31:
 301 0026 38BD     		pop	{r3, r4, r5, pc}
 302              	.L40:
 303              		.align	2
 304              	.L39:
 305 0028 00000000 		.word	.LANCHOR1
 306 002c 00000000 		.word	.LC0
 307              		.cfi_endproc
 308              	.LFE274:
 309              		.size	test_println, .-test_println
 310              		.section	.text.test_emit_token,"ax",%progbits
 311              		.align	2
 312              		.p2align 4,,15
 313              		.global	test_emit_token
 314              		.thumb
 315              		.thumb_func
 316              		.type	test_emit_token, %function
 317              	test_emit_token:
 318              	.LFB277:
 319              		.loc 1 150 0
 320              		.cfi_startproc
 321              		@ args = 0, pretend = 0, frame = 0
 322              		@ frame_needed = 0, uses_anonymous_args = 0
 323              		@ link register save eliminated.
 324              	.LVL32:
 325              	.LBB175:
 326              	.LBB176:
 327              	.LBB177:
 328              	.LBB178:
 329              		.file 2 "../ChibiOS/os/ext/CMSIS/include/core_cmFunc.h"
 330              		.loc 2 548 0
 331 0000 2023     		movs	r3, #32
 332              	@ 548 "../ChibiOS/os/ext/CMSIS/include/core_cmFunc.h" 1
 333 0002 83F31188 		MSR basepri, r3
 334              	@ 0 "" 2
 335              		.thumb
 336              	.LBE178:
 337              	.LBE177:
 338              	.LBE176:
 339              	.LBE175:
 340              		.loc 1 153 0
 341 0006 044B     		ldr	r3, .L42
ARM GAS  /tmp/ccfGo11N.s 			page 7


 342 0008 1A68     		ldr	r2, [r3]
 343 000a 511C     		adds	r1, r2, #1
 344 000c 1960     		str	r1, [r3]
 345 000e 1070     		strb	r0, [r2]
 346              	.LVL33:
 347              	.LBB179:
 348              	.LBB180:
 349              	.LBB181:
 350              	.LBB182:
 351              	.LBB183:
 352              		.loc 2 548 0
 353 0010 0023     		movs	r3, #0
 354              	@ 548 "../ChibiOS/os/ext/CMSIS/include/core_cmFunc.h" 1
 355 0012 83F31188 		MSR basepri, r3
 356              	@ 0 "" 2
 357              		.thumb
 358 0016 7047     		bx	lr
 359              	.L43:
 360              		.align	2
 361              	.L42:
 362 0018 00000000 		.word	.LANCHOR2
 363              	.LBE183:
 364              	.LBE182:
 365              	.LBE181:
 366              	.LBE180:
 367              	.LBE179:
 368              		.cfi_endproc
 369              	.LFE277:
 370              		.size	test_emit_token, .-test_emit_token
 371 001c AFF30080 		.section	.text._test_fail,"ax",%progbits
 372              		.align	2
 373              		.p2align 4,,15
 374              		.global	_test_fail
 375              		.thumb
 376              		.thumb_func
 377              		.type	_test_fail, %function
 378              	_test_fail:
 379              	.LFB278:
 380              		.loc 1 160 0
 381              		.cfi_startproc
 382              		@ args = 0, pretend = 0, frame = 0
 383              		@ frame_needed = 0, uses_anonymous_args = 0
 384              		@ link register save eliminated.
 385              	.LVL34:
 386              		.loc 1 164 0
 387 0000 0349     		ldr	r1, .L45
 388              		.loc 1 162 0
 389 0002 044A     		ldr	r2, .L45+4
 390              		.loc 1 163 0
 391 0004 044B     		ldr	r3, .L45+8
 392              		.loc 1 164 0
 393 0006 0860     		str	r0, [r1]
 394              		.loc 1 162 0
 395 0008 0120     		movs	r0, #1
 396              	.LVL35:
 397 000a 1070     		strb	r0, [r2]
 398              		.loc 1 163 0
ARM GAS  /tmp/ccfGo11N.s 			page 8


 399 000c 1870     		strb	r0, [r3]
 400              		.loc 1 166 0
 401 000e 7047     		bx	lr
 402              	.L46:
 403              		.align	2
 404              	.L45:
 405 0010 00000000 		.word	.LANCHOR5
 406 0014 00000000 		.word	.LANCHOR3
 407 0018 00000000 		.word	.LANCHOR4
 408              		.cfi_endproc
 409              	.LFE278:
 410              		.size	_test_fail, .-_test_fail
 411 001c AFF30080 		.section	.text._test_assert,"ax",%progbits
 412              		.align	2
 413              		.p2align 4,,15
 414              		.global	_test_assert
 415              		.thumb
 416              		.thumb_func
 417              		.type	_test_assert, %function
 418              	_test_assert:
 419              	.LFB279:
 420              		.loc 1 168 0
 421              		.cfi_startproc
 422              		@ args = 0, pretend = 0, frame = 0
 423              		@ frame_needed = 0, uses_anonymous_args = 0
 424              		@ link register save eliminated.
 425              	.LVL36:
 426 0000 10B4     		push	{r4}
 427              		.cfi_def_cfa_offset 4
 428              		.cfi_offset 4, -4
 429              		.loc 1 170 0
 430 0002 51B9     		cbnz	r1, .L49
 431              	.LVL37:
 432              	.LBB184:
 433              	.LBB185:
 434              		.loc 1 162 0
 435 0004 074C     		ldr	r4, .L50
 436              		.loc 1 163 0
 437 0006 0849     		ldr	r1, .L50+4
 438              	.LVL38:
 439              		.loc 1 164 0
 440 0008 084A     		ldr	r2, .L50+8
 441              		.loc 1 162 0
 442 000a 0123     		movs	r3, #1
 443 000c 2370     		strb	r3, [r4]
 444              		.loc 1 164 0
 445 000e 1060     		str	r0, [r2]
 446              		.loc 1 163 0
 447 0010 0B70     		strb	r3, [r1]
 448              	.LBE185:
 449              	.LBE184:
 450              		.loc 1 173 0
 451 0012 1846     		mov	r0, r3
 452              	.LVL39:
 453 0014 5DF8044B 		ldr	r4, [sp], #4
 454 0018 7047     		bx	lr
 455              	.LVL40:
ARM GAS  /tmp/ccfGo11N.s 			page 9


 456              	.L49:
 457              		.loc 1 172 0
 458 001a 0023     		movs	r3, #0
 459              		.loc 1 173 0
 460 001c 1846     		mov	r0, r3
 461              	.LVL41:
 462 001e 5DF8044B 		ldr	r4, [sp], #4
 463 0022 7047     		bx	lr
 464              	.L51:
 465              		.align	2
 466              	.L50:
 467 0024 00000000 		.word	.LANCHOR3
 468 0028 00000000 		.word	.LANCHOR4
 469 002c 00000000 		.word	.LANCHOR5
 470              		.cfi_endproc
 471              	.LFE279:
 472              		.size	_test_assert, .-_test_assert
 473              		.section	.text._test_assert_sequence,"ax",%progbits
 474              		.align	2
 475              		.p2align 4,,15
 476              		.global	_test_assert_sequence
 477              		.thumb
 478              		.thumb_func
 479              		.type	_test_assert_sequence, %function
 480              	_test_assert_sequence:
 481              	.LFB280:
 482              		.loc 1 175 0
 483              		.cfi_startproc
 484              		@ args = 0, pretend = 0, frame = 0
 485              		@ frame_needed = 0, uses_anonymous_args = 0
 486              		@ link register save eliminated.
 487              	.LVL42:
 488 0000 F0B4     		push	{r4, r5, r6, r7}
 489              		.cfi_def_cfa_offset 16
 490              		.cfi_offset 4, -16
 491              		.cfi_offset 5, -12
 492              		.cfi_offset 6, -8
 493              		.cfi_offset 7, -4
 494 0002 0E4E     		ldr	r6, .L58
 495              		.loc 1 176 0
 496 0004 0E4F     		ldr	r7, .L58+4
 497 0006 3568     		ldr	r5, [r6]
 498 0008 3B46     		mov	r3, r7
 499              		.loc 1 177 0
 500 000a 05E0     		b	.L53
 501              	.LVL43:
 502              	.L56:
 503              		.loc 1 178 0
 504 000c 13F8014B 		ldrb	r4, [r3], #1	@ zero_extendqisi2
 505              	.LVL44:
 506 0010 11F8012B 		ldrb	r2, [r1], #1	@ zero_extendqisi2
 507              	.LVL45:
 508 0014 9442     		cmp	r4, r2
 509 0016 07D1     		bne	.L57
 510              	.LVL46:
 511              	.L53:
 512              		.loc 1 177 0 discriminator 1
ARM GAS  /tmp/ccfGo11N.s 			page 10


 513 0018 AB42     		cmp	r3, r5
 514 001a F7D3     		bcc	.L56
 515              		.loc 1 181 0
 516 001c 0B78     		ldrb	r3, [r1]	@ zero_extendqisi2
 517              	.LVL47:
 518 001e 1BB9     		cbnz	r3, .L57
 519              	.LBB186:
 520              	.LBB187:
 521              		.loc 1 135 0
 522 0020 3760     		str	r7, [r6]
 523              	.LBE187:
 524              	.LBE186:
 525              		.loc 1 185 0
 526 0022 1846     		mov	r0, r3
 527              	.LVL48:
 528 0024 F0BC     		pop	{r4, r5, r6, r7}
 529 0026 7047     		bx	lr
 530              	.LVL49:
 531              	.L57:
 532              	.LBB188:
 533              	.LBB189:
 534              		.loc 1 162 0
 535 0028 064C     		ldr	r4, .L58+8
 536              		.loc 1 163 0
 537 002a 0749     		ldr	r1, .L58+12
 538              		.loc 1 164 0
 539 002c 074A     		ldr	r2, .L58+16
 540              		.loc 1 162 0
 541 002e 0123     		movs	r3, #1
 542 0030 2370     		strb	r3, [r4]
 543              		.loc 1 164 0
 544 0032 1060     		str	r0, [r2]
 545              		.loc 1 163 0
 546 0034 0B70     		strb	r3, [r1]
 547              	.LBE189:
 548              	.LBE188:
 549              		.loc 1 185 0
 550 0036 1846     		mov	r0, r3
 551              	.LVL50:
 552 0038 F0BC     		pop	{r4, r5, r6, r7}
 553 003a 7047     		bx	lr
 554              	.L59:
 555              		.align	2
 556              	.L58:
 557 003c 00000000 		.word	.LANCHOR2
 558 0040 00000000 		.word	.LANCHOR6
 559 0044 00000000 		.word	.LANCHOR3
 560 0048 00000000 		.word	.LANCHOR4
 561 004c 00000000 		.word	.LANCHOR5
 562              		.cfi_endproc
 563              	.LFE280:
 564              		.size	_test_assert_sequence, .-_test_assert_sequence
 565              		.section	.text._test_assert_time_window,"ax",%progbits
 566              		.align	2
 567              		.p2align 4,,15
 568              		.global	_test_assert_time_window
 569              		.thumb
ARM GAS  /tmp/ccfGo11N.s 			page 11


 570              		.thumb_func
 571              		.type	_test_assert_time_window, %function
 572              	_test_assert_time_window:
 573              	.LFB281:
 574              		.loc 1 187 0
 575              		.cfi_startproc
 576              		@ args = 0, pretend = 0, frame = 0
 577              		@ frame_needed = 0, uses_anonymous_args = 0
 578              		@ link register save eliminated.
 579              	.LVL51:
 580 0000 10B4     		push	{r4}
 581              		.cfi_def_cfa_offset 4
 582              		.cfi_offset 4, -4
 583              	.LBB190:
 584              	.LBB191:
 585              	.LBB192:
 586              	.LBB193:
 587              	.LBB194:
 588              	.LBB195:
 589              	.LBB196:
 590              		.loc 2 548 0
 591 0002 2023     		movs	r3, #32
 592              	@ 548 "../ChibiOS/os/ext/CMSIS/include/core_cmFunc.h" 1
 593 0004 83F31188 		MSR basepri, r3
 594              	@ 0 "" 2
 595              		.thumb
 596              	.LBE196:
 597              	.LBE195:
 598              	.LBE194:
 599              	.LBE193:
 600              	.LBB197:
 601              	.LBB198:
 602              	.LBB199:
 603              	.LBB200:
 604              		.file 3 "../ChibiOS/os/hal/ports/STM32/LLD/TIMv1/st_lld.h"
 605              		.loc 3 141 0
 606 0008 4FF08044 		mov	r4, #1073741824
 607              	.LBE200:
 608              	.LBE199:
 609              	.LBE198:
 610              	.LBE197:
 611              	.LBB204:
 612              	.LBB205:
 613              	.LBB206:
 614              	.LBB207:
 615              	.LBB208:
 616              		.loc 2 548 0
 617 000c 0023     		movs	r3, #0
 618              	.LBE208:
 619              	.LBE207:
 620              	.LBE206:
 621              	.LBE205:
 622              	.LBE204:
 623              	.LBB213:
 624              	.LBB203:
 625              	.LBB202:
 626              	.LBB201:
ARM GAS  /tmp/ccfGo11N.s 			page 12


 627              		.loc 3 141 0
 628 000e 646A     		ldr	r4, [r4, #36]
 629              	.LVL52:
 630              	.LBE201:
 631              	.LBE202:
 632              	.LBE203:
 633              	.LBE213:
 634              	.LBB214:
 635              	.LBB212:
 636              	.LBB211:
 637              	.LBB210:
 638              	.LBB209:
 639              		.loc 2 548 0
 640              	@ 548 "../ChibiOS/os/ext/CMSIS/include/core_cmFunc.h" 1
 641 0010 83F31188 		MSR basepri, r3
 642              	@ 0 "" 2
 643              	.LVL53:
 644              		.thumb
 645              	.LBE209:
 646              	.LBE210:
 647              	.LBE211:
 648              	.LBE212:
 649              	.LBE214:
 650              	.LBE192:
 651              	.LBE191:
 652              	.LBB215:
 653              	.LBB216:
 654              		.file 4 "../ChibiOS/os/rt/include/chvt.h"
 655              		.loc 4 288 0
 656 0014 641A     		subs	r4, r4, r1
 657              	.LVL54:
 658 0016 511A     		subs	r1, r2, r1
 659              	.LVL55:
 660              	.LBE216:
 661              	.LBE215:
 662              	.LBE190:
 663              	.LBB217:
 664              	.LBB218:
 665              		.loc 1 170 0
 666 0018 8C42     		cmp	r4, r1
 667 001a 06D3     		bcc	.L61
 668              	.LVL56:
 669              	.LBB219:
 670              	.LBB220:
 671              		.loc 1 162 0
 672 001c 054C     		ldr	r4, .L63
 673              		.loc 1 163 0
 674 001e 0649     		ldr	r1, .L63+4
 675              		.loc 1 164 0
 676 0020 064A     		ldr	r2, .L63+8
 677              	.LVL57:
 678              		.loc 1 162 0
 679 0022 0123     		movs	r3, #1
 680 0024 2370     		strb	r3, [r4]
 681              		.loc 1 163 0
 682 0026 0B70     		strb	r3, [r1]
 683              		.loc 1 164 0
ARM GAS  /tmp/ccfGo11N.s 			page 13


 684 0028 1060     		str	r0, [r2]
 685              	.LVL58:
 686              	.L61:
 687              	.LBE220:
 688              	.LBE219:
 689              	.LBE218:
 690              	.LBE217:
 691              		.loc 1 190 0
 692 002a 1846     		mov	r0, r3
 693              	.LVL59:
 694 002c 5DF8044B 		ldr	r4, [sp], #4
 695 0030 7047     		bx	lr
 696              	.L64:
 697 0032 00BF     		.align	2
 698              	.L63:
 699 0034 00000000 		.word	.LANCHOR3
 700 0038 00000000 		.word	.LANCHOR4
 701 003c 00000000 		.word	.LANCHOR5
 702              		.cfi_endproc
 703              	.LFE281:
 704              		.size	_test_assert_time_window, .-_test_assert_time_window
 705              		.section	.text.test_terminate_threads,"ax",%progbits
 706              		.align	2
 707              		.p2align 4,,15
 708              		.global	test_terminate_threads
 709              		.thumb
 710              		.thumb_func
 711              		.type	test_terminate_threads, %function
 712              	test_terminate_threads:
 713              	.LFB282:
 714              		.loc 1 199 0
 715              		.cfi_startproc
 716              		@ args = 0, pretend = 0, frame = 0
 717              		@ frame_needed = 0, uses_anonymous_args = 0
 718              	.LVL60:
 719 0000 38B5     		push	{r3, r4, r5, lr}
 720              		.cfi_def_cfa_offset 16
 721              		.cfi_offset 3, -16
 722              		.cfi_offset 4, -12
 723              		.cfi_offset 5, -8
 724              		.cfi_offset 14, -4
 725 0002 064C     		ldr	r4, .L72
 726 0004 04F11405 		add	r5, r4, #20
 727              	.LVL61:
 728              	.L68:
 729              		.loc 1 203 0
 730 0008 54F8043F 		ldr	r3, [r4, #4]!
 731              		.loc 1 204 0
 732 000c 1846     		mov	r0, r3
 733              		.loc 1 203 0
 734 000e 0BB1     		cbz	r3, .L66
 735              		.loc 1 204 0
 736 0010 FFF7FEFF 		bl	chThdTerminate
 737              	.LVL62:
 738              	.L66:
 739              		.loc 1 202 0
 740 0014 AC42     		cmp	r4, r5
ARM GAS  /tmp/ccfGo11N.s 			page 14


 741 0016 F7D1     		bne	.L68
 742              		.loc 1 205 0
 743 0018 38BD     		pop	{r3, r4, r5, pc}
 744              	.L73:
 745 001a 00BF     		.align	2
 746              	.L72:
 747 001c FCFFFFFF 		.word	.LANCHOR7-4
 748              		.cfi_endproc
 749              	.LFE282:
 750              		.size	test_terminate_threads, .-test_terminate_threads
 751              		.section	.text.test_wait_threads,"ax",%progbits
 752              		.align	2
 753              		.p2align 4,,15
 754              		.global	test_wait_threads
 755              		.thumb
 756              		.thumb_func
 757              		.type	test_wait_threads, %function
 758              	test_wait_threads:
 759              	.LFB283:
 760              		.loc 1 210 0
 761              		.cfi_startproc
 762              		@ args = 0, pretend = 0, frame = 0
 763              		@ frame_needed = 0, uses_anonymous_args = 0
 764              	.LVL63:
 765 0000 70B5     		push	{r4, r5, r6, lr}
 766              		.cfi_def_cfa_offset 16
 767              		.cfi_offset 4, -16
 768              		.cfi_offset 5, -12
 769              		.cfi_offset 6, -8
 770              		.cfi_offset 14, -4
 771 0002 074C     		ldr	r4, .L81
 772              		.loc 1 216 0
 773 0004 0026     		movs	r6, #0
 774 0006 04F11405 		add	r5, r4, #20
 775              	.LVL64:
 776              	.L77:
 777              		.loc 1 214 0
 778 000a 54F8043B 		ldr	r3, [r4], #4
 779              		.loc 1 215 0
 780 000e 1846     		mov	r0, r3
 781              		.loc 1 214 0
 782 0010 1BB1     		cbz	r3, .L75
 783              		.loc 1 215 0
 784 0012 FFF7FEFF 		bl	chThdWait
 785              	.LVL65:
 786              		.loc 1 216 0
 787 0016 44F8046C 		str	r6, [r4, #-4]
 788              	.L75:
 789              		.loc 1 213 0
 790 001a AC42     		cmp	r4, r5
 791 001c F5D1     		bne	.L77
 792              		.loc 1 218 0
 793 001e 70BD     		pop	{r4, r5, r6, pc}
 794              	.L82:
 795              		.align	2
 796              	.L81:
 797 0020 00000000 		.word	.LANCHOR7
ARM GAS  /tmp/ccfGo11N.s 			page 15


 798              		.cfi_endproc
 799              	.LFE283:
 800              		.size	test_wait_threads, .-test_wait_threads
 801 0024 AFF30080 		.section	.text.test_wait_tick,"ax",%progbits
 801      AFF30080 
 801      AFF30080 
 802              		.align	2
 803              		.p2align 4,,15
 804              		.global	test_wait_tick
 805              		.thumb
 806              		.thumb_func
 807              		.type	test_wait_tick, %function
 808              	test_wait_tick:
 809              	.LFB284:
 810              		.loc 1 248 0
 811              		.cfi_startproc
 812              		@ args = 0, pretend = 0, frame = 0
 813              		@ frame_needed = 0, uses_anonymous_args = 0
 814 0000 08B5     		push	{r3, lr}
 815              		.cfi_def_cfa_offset 8
 816              		.cfi_offset 3, -8
 817              		.cfi_offset 14, -4
 818              		.loc 1 250 0
 819 0002 0120     		movs	r0, #1
 820 0004 FFF7FEFF 		bl	chThdSleep
 821              	.LVL66:
 822              	.LBB221:
 823              	.LBB222:
 824              	.LBB223:
 825              	.LBB224:
 826              	.LBB225:
 827              	.LBB226:
 828              		.loc 2 548 0
 829 0008 2023     		movs	r3, #32
 830              	@ 548 "../ChibiOS/os/ext/CMSIS/include/core_cmFunc.h" 1
 831 000a 83F31188 		MSR basepri, r3
 832              	@ 0 "" 2
 833              		.thumb
 834              	.LBE226:
 835              	.LBE225:
 836              	.LBE224:
 837              	.LBE223:
 838              	.LBB227:
 839              	.LBB228:
 840              	.LBB229:
 841              	.LBB230:
 842              		.loc 3 141 0
 843 000e 4FF08042 		mov	r2, #1073741824
 844              	.LBE230:
 845              	.LBE229:
 846              	.LBE228:
 847              	.LBE227:
 848              	.LBB234:
 849              	.LBB235:
 850              	.LBB236:
 851              	.LBB237:
 852              	.LBB238:
ARM GAS  /tmp/ccfGo11N.s 			page 16


 853              		.loc 2 548 0
 854 0012 0023     		movs	r3, #0
 855              	.LBE238:
 856              	.LBE237:
 857              	.LBE236:
 858              	.LBE235:
 859              	.LBE234:
 860              	.LBB243:
 861              	.LBB233:
 862              	.LBB232:
 863              	.LBB231:
 864              		.loc 3 141 0
 865 0014 506A     		ldr	r0, [r2, #36]
 866              	.LVL67:
 867              	.LBE231:
 868              	.LBE232:
 869              	.LBE233:
 870              	.LBE243:
 871              	.LBB244:
 872              	.LBB242:
 873              	.LBB241:
 874              	.LBB240:
 875              	.LBB239:
 876              		.loc 2 548 0
 877              	@ 548 "../ChibiOS/os/ext/CMSIS/include/core_cmFunc.h" 1
 878 0016 83F31188 		MSR basepri, r3
 879              	@ 0 "" 2
 880              		.thumb
 881              	.LBE239:
 882              	.LBE240:
 883              	.LBE241:
 884              	.LBE242:
 885              	.LBE244:
 886              	.LBE222:
 887              	.LBE221:
 888              		.loc 1 252 0
 889 001a 08BD     		pop	{r3, pc}
 890              		.cfi_endproc
 891              	.LFE284:
 892              		.size	test_wait_tick, .-test_wait_tick
 893 001c AFF30080 		.section	.text.test_start_timer,"ax",%progbits
 894              		.align	2
 895              		.p2align 4,,15
 896              		.global	test_start_timer
 897              		.thumb
 898              		.thumb_func
 899              		.type	test_start_timer, %function
 900              	test_start_timer:
 901              	.LFB286:
 902              		.loc 1 275 0
 903              		.cfi_startproc
 904              		@ args = 0, pretend = 0, frame = 0
 905              		@ frame_needed = 0, uses_anonymous_args = 0
 906              	.LVL68:
 907 0000 10B5     		push	{r4, lr}
 908              		.cfi_def_cfa_offset 8
 909              		.cfi_offset 4, -8
ARM GAS  /tmp/ccfGo11N.s 			page 17


 910              		.cfi_offset 14, -4
 911              		.loc 1 277 0
 912 0002 42F21074 		movw	r4, #10000
 913 0006 04FB00F0 		mul	r0, r4, r0
 914              	.LVL69:
 915 000a 0D4A     		ldr	r2, .L89
 916              		.loc 1 278 0
 917 000c 0D4B     		ldr	r3, .L89+4
 918              		.loc 1 277 0
 919 000e 00F2E734 		addw	r4, r0, #999
 920 0012 A2FB0414 		umull	r1, r4, r2, r4
 921              		.loc 1 278 0
 922 0016 0022     		movs	r2, #0
 923 0018 1A70     		strb	r2, [r3]
 924              		.loc 1 277 0
 925 001a A409     		lsrs	r4, r4, #6
 926              	.LVL70:
 927              	.LBB260:
 928              	.LBB261:
 929              	.LBB262:
 930              	.LBB263:
 931              	.LBB264:
 932              		.loc 2 548 0
 933 001c 2023     		movs	r3, #32
 934              	@ 548 "../ChibiOS/os/ext/CMSIS/include/core_cmFunc.h" 1
 935 001e 83F31188 		MSR basepri, r3
 936              	@ 0 "" 2
 937              	.LVL71:
 938              		.thumb
 939              	.LBE264:
 940              	.LBE263:
 941              	.LBE262:
 942              	.LBE261:
 943              	.LBE260:
 944              		.loc 4 410 0
 945 0022 0948     		ldr	r0, .L89+8
 946              	.LBB274:
 947              	.LBB265:
 948              	.LBB266:
 949              	.LBB267:
 950              	.LBB268:
 951              		.loc 4 412 0
 952 0024 C368     		ldr	r3, [r0, #12]
 953 0026 0BB1     		cbz	r3, .L85
 954              		.loc 4 413 0
 955 0028 FFF7FEFF 		bl	chVTDoResetI
 956              	.LVL72:
 957              	.L85:
 958              	.LBE268:
 959              	.LBE267:
 960              		.loc 4 460 0
 961 002c 2146     		mov	r1, r4
 962 002e 0648     		ldr	r0, .L89+8
 963 0030 064A     		ldr	r2, .L89+12
 964 0032 0023     		movs	r3, #0
 965 0034 FFF7FEFF 		bl	chVTDoSetI
 966              	.LVL73:
ARM GAS  /tmp/ccfGo11N.s 			page 18


 967              	.LBE266:
 968              	.LBE265:
 969              	.LBB269:
 970              	.LBB270:
 971              	.LBB271:
 972              	.LBB272:
 973              	.LBB273:
 974              		.loc 2 548 0
 975 0038 0023     		movs	r3, #0
 976              	@ 548 "../ChibiOS/os/ext/CMSIS/include/core_cmFunc.h" 1
 977 003a 83F31188 		MSR basepri, r3
 978              	@ 0 "" 2
 979              		.thumb
 980 003e 10BD     		pop	{r4, pc}
 981              	.LVL74:
 982              	.L90:
 983              		.align	2
 984              	.L89:
 985 0040 D34D6210 		.word	274877907
 986 0044 00000000 		.word	.LANCHOR0
 987 0048 00000000 		.word	.LANCHOR8
 988 004c 00000000 		.word	tmr
 989              	.LBE273:
 990              	.LBE272:
 991              	.LBE271:
 992              	.LBE270:
 993              	.LBE269:
 994              	.LBE274:
 995              		.cfi_endproc
 996              	.LFE286:
 997              		.size	test_start_timer, .-test_start_timer
 998              		.section	.text.TestThread,"ax",%progbits
 999              		.align	2
 1000              		.p2align 4,,15
 1001              		.global	TestThread
 1002              		.thumb
 1003              		.thumb_func
 1004              		.type	TestThread, %function
 1005              	TestThread:
 1006              	.LFB289:
 1007              		.loc 1 316 0
 1008              		.cfi_startproc
 1009              		@ args = 0, pretend = 0, frame = 16
 1010              		@ frame_needed = 0, uses_anonymous_args = 0
 1011              	.LVL75:
 1012 0000 2DE9F04F 		push	{r4, r5, r6, r7, r8, r9, r10, fp, lr}
 1013              		.cfi_def_cfa_offset 36
 1014              		.cfi_offset 4, -36
 1015              		.cfi_offset 5, -32
 1016              		.cfi_offset 6, -28
 1017              		.cfi_offset 7, -24
 1018              		.cfi_offset 8, -20
 1019              		.cfi_offset 9, -16
 1020              		.cfi_offset 10, -12
 1021              		.cfi_offset 11, -8
 1022              		.cfi_offset 14, -4
 1023              		.loc 1 319 0
ARM GAS  /tmp/ccfGo11N.s 			page 19


 1024 0004 9D4C     		ldr	r4, .L157
 1025 0006 9E4D     		ldr	r5, .L157+4
 1026 0008 2060     		str	r0, [r4]
 1027              		.loc 1 316 0
 1028 000a 85B0     		sub	sp, sp, #20
 1029              		.cfi_def_cfa_offset 56
 1030              		.loc 1 320 0
 1031 000c 9D48     		ldr	r0, .L157+8
 1032              	.LVL76:
 1033 000e FFF7FEFF 		bl	test_println
 1034              	.LVL77:
 1035              		.loc 1 321 0
 1036 0012 9D48     		ldr	r0, .L157+12
 1037 0014 FFF7FEFF 		bl	test_println
 1038              	.LVL78:
 1039              		.loc 1 322 0
 1040 0018 9C48     		ldr	r0, .L157+16
 1041 001a FFF7FEFF 		bl	test_println
 1042              	.LVL79:
 1043              	.LBB311:
 1044              	.LBB312:
 1045              		.loc 1 115 0
 1046 001e 2A21     		movs	r1, #42
 1047              	.LVL80:
 1048              	.L93:
 1049              		.loc 1 116 0
 1050 0020 2068     		ldr	r0, [r4]
 1051              	.LVL81:
 1052 0022 0368     		ldr	r3, [r0]
 1053 0024 9B68     		ldr	r3, [r3, #8]
 1054 0026 9847     		blx	r3
 1055              	.LVL82:
 1056              		.loc 1 115 0
 1057 0028 15F8011F 		ldrb	r1, [r5, #1]!	@ zero_extendqisi2
 1058              	.LVL83:
 1059 002c 0029     		cmp	r1, #0
 1060 002e F7D1     		bne	.L93
 1061              	.LBE312:
 1062              	.LBE311:
 1063              		.loc 1 324 0
 1064 0030 9748     		ldr	r0, .L157+20
 1065 0032 984D     		ldr	r5, .L157+24
 1066              	.LVL84:
 1067 0034 FFF7FEFF 		bl	test_println
 1068              	.LVL85:
 1069              	.LBB313:
 1070              	.LBB314:
 1071              		.loc 1 115 0
 1072 0038 2A21     		movs	r1, #42
 1073              	.LVL86:
 1074              	.L130:
 1075              		.loc 1 116 0
 1076 003a 2068     		ldr	r0, [r4]
 1077              	.LVL87:
 1078 003c 0368     		ldr	r3, [r0]
 1079 003e 9B68     		ldr	r3, [r3, #8]
 1080 0040 9847     		blx	r3
ARM GAS  /tmp/ccfGo11N.s 			page 20


 1081              	.LVL88:
 1082              		.loc 1 115 0
 1083 0042 15F8011F 		ldrb	r1, [r5, #1]!	@ zero_extendqisi2
 1084              	.LVL89:
 1085 0046 0029     		cmp	r1, #0
 1086 0048 F7D1     		bne	.L130
 1087              	.LBE314:
 1088              	.LBE313:
 1089              		.loc 1 326 0
 1090 004a 9348     		ldr	r0, .L157+28
 1091 004c 934D     		ldr	r5, .L157+32
 1092              	.LVL90:
 1093 004e FFF7FEFF 		bl	test_println
 1094              	.LVL91:
 1095              	.LBB315:
 1096              	.LBB316:
 1097              		.loc 1 115 0
 1098 0052 2A21     		movs	r1, #42
 1099              	.LVL92:
 1100              	.L131:
 1101              		.loc 1 116 0
 1102 0054 2068     		ldr	r0, [r4]
 1103              	.LVL93:
 1104 0056 0368     		ldr	r3, [r0]
 1105 0058 9B68     		ldr	r3, [r3, #8]
 1106 005a 9847     		blx	r3
 1107              	.LVL94:
 1108              		.loc 1 115 0
 1109 005c 15F8011F 		ldrb	r1, [r5, #1]!	@ zero_extendqisi2
 1110              	.LVL95:
 1111 0060 0029     		cmp	r1, #0
 1112 0062 F7D1     		bne	.L131
 1113              	.LBE316:
 1114              	.LBE315:
 1115              		.loc 1 329 0
 1116 0064 8E48     		ldr	r0, .L157+36
 1117 0066 8F4D     		ldr	r5, .L157+40
 1118              	.LVL96:
 1119 0068 FFF7FEFF 		bl	test_println
 1120              	.LVL97:
 1121              	.LBB317:
 1122              	.LBB318:
 1123              		.loc 1 115 0
 1124 006c 2A21     		movs	r1, #42
 1125              	.LVL98:
 1126              	.L132:
 1127              		.loc 1 116 0
 1128 006e 2068     		ldr	r0, [r4]
 1129              	.LVL99:
 1130 0070 0368     		ldr	r3, [r0]
 1131 0072 9B68     		ldr	r3, [r3, #8]
 1132 0074 9847     		blx	r3
 1133              	.LVL100:
 1134              		.loc 1 115 0
 1135 0076 15F8011F 		ldrb	r1, [r5, #1]!	@ zero_extendqisi2
 1136              	.LVL101:
 1137 007a 0029     		cmp	r1, #0
ARM GAS  /tmp/ccfGo11N.s 			page 21


 1138 007c F7D1     		bne	.L132
 1139              	.LBE318:
 1140              	.LBE317:
 1141              		.loc 1 332 0
 1142 007e 8A48     		ldr	r0, .L157+44
 1143 0080 8A4D     		ldr	r5, .L157+48
 1144              	.LVL102:
 1145 0082 FFF7FEFF 		bl	test_println
 1146              	.LVL103:
 1147              	.LBB319:
 1148              	.LBB320:
 1149              		.loc 1 115 0
 1150 0086 2A21     		movs	r1, #42
 1151              	.LVL104:
 1152              	.L133:
 1153              		.loc 1 116 0
 1154 0088 2068     		ldr	r0, [r4]
 1155              	.LVL105:
 1156 008a 0368     		ldr	r3, [r0]
 1157 008c 9B68     		ldr	r3, [r3, #8]
 1158 008e 9847     		blx	r3
 1159              	.LVL106:
 1160              		.loc 1 115 0
 1161 0090 15F8011F 		ldrb	r1, [r5, #1]!	@ zero_extendqisi2
 1162              	.LVL107:
 1163 0094 0029     		cmp	r1, #0
 1164 0096 F7D1     		bne	.L133
 1165              	.LBE320:
 1166              	.LBE319:
 1167              		.loc 1 335 0
 1168 0098 8548     		ldr	r0, .L157+52
 1169 009a 864D     		ldr	r5, .L157+56
 1170              	.LVL108:
 1171 009c FFF7FEFF 		bl	test_println
 1172              	.LVL109:
 1173              	.LBB321:
 1174              	.LBB322:
 1175              		.loc 1 115 0
 1176 00a0 2A21     		movs	r1, #42
 1177              	.LVL110:
 1178              	.L134:
 1179              		.loc 1 116 0
 1180 00a2 2068     		ldr	r0, [r4]
 1181              	.LVL111:
 1182 00a4 0368     		ldr	r3, [r0]
 1183 00a6 9B68     		ldr	r3, [r3, #8]
 1184 00a8 9847     		blx	r3
 1185              	.LVL112:
 1186              		.loc 1 115 0
 1187 00aa 15F8011F 		ldrb	r1, [r5, #1]!	@ zero_extendqisi2
 1188              	.LVL113:
 1189 00ae 0029     		cmp	r1, #0
 1190 00b0 F7D1     		bne	.L134
 1191              	.LBE322:
 1192              	.LBE321:
 1193              		.loc 1 339 0
 1194 00b2 8148     		ldr	r0, .L157+60
ARM GAS  /tmp/ccfGo11N.s 			page 22


 1195 00b4 814D     		ldr	r5, .L157+64
 1196              	.LVL114:
 1197 00b6 FFF7FEFF 		bl	test_println
 1198              	.LVL115:
 1199              	.LBB323:
 1200              	.LBB324:
 1201              		.loc 1 115 0
 1202 00ba 2A21     		movs	r1, #42
 1203              	.LVL116:
 1204              	.L135:
 1205              		.loc 1 116 0
 1206 00bc 2068     		ldr	r0, [r4]
 1207              	.LVL117:
 1208 00be 0368     		ldr	r3, [r0]
 1209 00c0 9B68     		ldr	r3, [r3, #8]
 1210 00c2 9847     		blx	r3
 1211              	.LVL118:
 1212              		.loc 1 115 0
 1213 00c4 15F8011F 		ldrb	r1, [r5, #1]!	@ zero_extendqisi2
 1214              	.LVL119:
 1215 00c8 0029     		cmp	r1, #0
 1216 00ca F7D1     		bne	.L135
 1217              	.LBE324:
 1218              	.LBE323:
 1219              		.loc 1 343 0
 1220 00cc 7C48     		ldr	r0, .L157+68
 1221 00ce 7D4D     		ldr	r5, .L157+72
 1222              	.LVL120:
 1223 00d0 FFF7FEFF 		bl	test_println
 1224              	.LVL121:
 1225              	.LBB325:
 1226              	.LBB326:
 1227              		.loc 1 115 0
 1228 00d4 2A21     		movs	r1, #42
 1229              	.LVL122:
 1230              	.L136:
 1231              		.loc 1 116 0
 1232 00d6 2068     		ldr	r0, [r4]
 1233              	.LVL123:
 1234 00d8 0368     		ldr	r3, [r0]
 1235 00da 9B68     		ldr	r3, [r3, #8]
 1236 00dc 9847     		blx	r3
 1237              	.LVL124:
 1238              		.loc 1 115 0
 1239 00de 15F8011F 		ldrb	r1, [r5, #1]!	@ zero_extendqisi2
 1240              	.LVL125:
 1241 00e2 0029     		cmp	r1, #0
 1242 00e4 F7D1     		bne	.L136
 1243 00e6 784B     		ldr	r3, .L157+76
 1244              	.LBE326:
 1245              	.LBE325:
 1246              		.loc 1 347 0
 1247 00e8 7848     		ldr	r0, .L157+80
 1248 00ea 0191     		str	r1, [sp, #4]
 1249 00ec 0393     		str	r3, [sp, #12]
 1250 00ee FFF7FEFF 		bl	test_println
 1251              	.LVL126:
ARM GAS  /tmp/ccfGo11N.s 			page 23


 1252              		.loc 1 349 0
 1253 00f2 6448     		ldr	r0, .L157+8
 1254              	.LBB327:
 1255              	.LBB328:
 1256              		.loc 1 116 0
 1257 00f4 DFF884B1 		ldr	fp, .L157
 1258              	.LBE328:
 1259              	.LBE327:
 1260              		.loc 1 351 0
 1261 00f8 754F     		ldr	r7, .L157+84
 1262              		.loc 1 349 0
 1263 00fa FFF7FEFF 		bl	test_println
 1264              	.LVL127:
 1265              		.loc 1 351 0
 1266 00fe 754A     		ldr	r2, .L157+88
 1267              		.loc 1 352 0
 1268 0100 0199     		ldr	r1, [sp, #4]
 1269 0102 0291     		str	r1, [sp, #8]
 1270              		.loc 1 351 0
 1271 0104 1170     		strb	r1, [r2]
 1272              	.LVL128:
 1273              	.L137:
 1274 0106 029B     		ldr	r3, [sp, #8]
 1275 0108 0133     		adds	r3, r3, #1
 1276 010a 0293     		str	r3, [sp, #8]
 1277              	.LVL129:
 1278              	.LBB330:
 1279              	.LBB331:
 1280              		.loc 1 115 0 discriminator 1
 1281 010c 4FF00008 		mov	r8, #0
 1282              	.LVL130:
 1283              	.L127:
 1284              	.LBE331:
 1285              	.LBE330:
 1286              		.loc 1 355 0 discriminator 1
 1287 0110 57F8043B 		ldr	r3, [r7], #4
 1288 0114 002B     		cmp	r3, #0
 1289 0116 00F08780 		beq	.L155
 1290              	.L125:
 1291 011a 6F4D     		ldr	r5, .L157+92
 1292              		.loc 1 356 0
 1293 011c FFF7FEFF 		bl	print_line
 1294              	.LVL131:
 1295              	.LBB333:
 1296              	.LBB329:
 1297              		.loc 1 115 0
 1298 0120 2D21     		movs	r1, #45
 1299              	.LVL132:
 1300              	.L109:
 1301              		.loc 1 116 0
 1302 0122 2068     		ldr	r0, [r4]
 1303              	.LVL133:
 1304 0124 0368     		ldr	r3, [r0]
 1305 0126 9B68     		ldr	r3, [r3, #8]
 1306 0128 9847     		blx	r3
 1307              	.LVL134:
 1308              		.loc 1 115 0
ARM GAS  /tmp/ccfGo11N.s 			page 24


 1309 012a 15F8011F 		ldrb	r1, [r5, #1]!	@ zero_extendqisi2
 1310              	.LVL135:
 1311 012e 0029     		cmp	r1, #0
 1312 0130 F7D1     		bne	.L109
 1313              	.LBE329:
 1314              	.LBE333:
 1315              		.loc 1 358 0
 1316 0132 0298     		ldr	r0, [sp, #8]
 1317 0134 694D     		ldr	r5, .L157+96
 1318              	.LVL136:
 1319 0136 FFF7FEFF 		bl	test_printn
 1320              	.LVL137:
 1321              	.LBB334:
 1322              	.LBB335:
 1323              		.loc 1 116 0
 1324 013a DBF80000 		ldr	r0, [fp]
 1325              	.LVL138:
 1326 013e 0368     		ldr	r3, [r0]
 1327 0140 2E21     		movs	r1, #46
 1328 0142 9B68     		ldr	r3, [r3, #8]
 1329              	.LBE335:
 1330              	.LBE334:
 1331              		.loc 1 360 0
 1332 0144 08F10108 		add	r8, r8, #1
 1333              	.LVL139:
 1334              	.LBB337:
 1335              	.LBB336:
 1336              		.loc 1 116 0
 1337 0148 9847     		blx	r3
 1338              	.LVL140:
 1339              	.LBE336:
 1340              	.LBE337:
 1341              		.loc 1 360 0
 1342 014a 4046     		mov	r0, r8
 1343 014c FFF7FEFF 		bl	test_printn
 1344              	.LVL141:
 1345              	.LBB338:
 1346              	.LBB339:
 1347              		.loc 1 115 0
 1348 0150 2021     		movs	r1, #32
 1349              	.LVL142:
 1350              	.L138:
 1351              		.loc 1 116 0
 1352 0152 2068     		ldr	r0, [r4]
 1353              	.LVL143:
 1354 0154 0368     		ldr	r3, [r0]
 1355 0156 9B68     		ldr	r3, [r3, #8]
 1356 0158 9847     		blx	r3
 1357              	.LVL144:
 1358              		.loc 1 115 0
 1359 015a 15F8011F 		ldrb	r1, [r5, #1]!	@ zero_extendqisi2
 1360              	.LVL145:
 1361 015e 0029     		cmp	r1, #0
 1362 0160 F7D1     		bne	.L138
 1363              	.LBE339:
 1364              	.LBE338:
 1365              		.loc 1 362 0
ARM GAS  /tmp/ccfGo11N.s 			page 25


 1366 0162 57F8043C 		ldr	r3, [r7, #-4]
 1367 0166 1D68     		ldr	r5, [r3]
 1368              	.LVL146:
 1369              	.LBB340:
 1370              	.LBB341:
 1371              		.loc 1 115 0
 1372 0168 2978     		ldrb	r1, [r5]	@ zero_extendqisi2
 1373 016a 39B1     		cbz	r1, .L114
 1374              	.LVL147:
 1375              	.L115:
 1376              		.loc 1 116 0
 1377 016c 2068     		ldr	r0, [r4]
 1378              	.LVL148:
 1379 016e 0368     		ldr	r3, [r0]
 1380 0170 9B68     		ldr	r3, [r3, #8]
 1381 0172 9847     		blx	r3
 1382              	.LVL149:
 1383              		.loc 1 115 0
 1384 0174 15F8011F 		ldrb	r1, [r5, #1]!	@ zero_extendqisi2
 1385              	.LVL150:
 1386 0178 0029     		cmp	r1, #0
 1387 017a F7D1     		bne	.L115
 1388              	.LVL151:
 1389              	.L114:
 1390              	.LBE341:
 1391              	.LBE340:
 1392              		.loc 1 363 0
 1393 017c 5848     		ldr	r0, .L157+100
 1394              	.LBB342:
 1395              	.LBB343:
 1396              		.loc 1 290 0
 1397 017e 594D     		ldr	r5, .L157+104
 1398              	.LBB344:
 1399              	.LBB345:
 1400              		.loc 1 135 0
 1401 0180 594E     		ldr	r6, .L157+108
 1402 0182 DFF89091 		ldr	r9, .L157+152
 1403              	.LBE345:
 1404              	.LBE344:
 1405              	.LBE343:
 1406              	.LBE342:
 1407              		.loc 1 363 0
 1408 0186 FFF7FEFF 		bl	test_println
 1409              	.LVL152:
 1410              		.loc 1 365 0
 1411 018a 4FF4FA60 		mov	r0, #2000
 1412 018e FFF7FEFF 		bl	chThdSleep
 1413              	.LVL153:
 1414              	.LBB350:
 1415              	.LBB348:
 1416              		.loc 1 292 0
 1417 0192 564A     		ldr	r2, .L157+112
 1418              	.LBE348:
 1419              	.LBE350:
 1420              		.loc 1 367 0
 1421 0194 57F804AC 		ldr	r10, [r7, #-4]
 1422              	.LVL154:
ARM GAS  /tmp/ccfGo11N.s 			page 26


 1423              	.LBB351:
 1424              	.LBB349:
 1425              	.LBB347:
 1426              	.LBB346:
 1427              		.loc 1 135 0
 1428 0198 C6F80090 		str	r9, [r6]
 1429              	.LBE346:
 1430              	.LBE347:
 1431              		.loc 1 290 0
 1432 019c 0023     		movs	r3, #0
 1433              		.loc 1 292 0
 1434 019e 1360     		str	r3, [r2]
 1435 01a0 5360     		str	r3, [r2, #4]
 1436 01a2 9360     		str	r3, [r2, #8]
 1437 01a4 D360     		str	r3, [r2, #12]
 1438 01a6 1361     		str	r3, [r2, #16]
 1439              		.loc 1 294 0
 1440 01a8 DAF80420 		ldr	r2, [r10, #4]
 1441              		.loc 1 290 0
 1442 01ac 2B70     		strb	r3, [r5]
 1443              	.LVL155:
 1444              		.loc 1 294 0
 1445 01ae 02B1     		cbz	r2, .L113
 1446              		.loc 1 295 0
 1447 01b0 9047     		blx	r2
 1448              	.LVL156:
 1449              	.L113:
 1450              		.loc 1 296 0
 1451 01b2 DAF80C30 		ldr	r3, [r10, #12]
 1452 01b6 9847     		blx	r3
 1453              	.LVL157:
 1454              		.loc 1 297 0
 1455 01b8 DAF80830 		ldr	r3, [r10, #8]
 1456 01bc 03B1     		cbz	r3, .L116
 1457              		.loc 1 298 0
 1458 01be 9847     		blx	r3
 1459              	.LVL158:
 1460              	.L116:
 1461              		.loc 1 300 0
 1462 01c0 FFF7FEFF 		bl	test_wait_threads
 1463              	.LVL159:
 1464              	.LBE349:
 1465              	.LBE351:
 1466              		.loc 1 368 0
 1467 01c4 2B78     		ldrb	r3, [r5]	@ zero_extendqisi2
 1468 01c6 002B     		cmp	r3, #0
 1469 01c8 4DD0     		beq	.L117
 1470 01ca 494D     		ldr	r5, .L157+116
 1471              	.LBB352:
 1472              	.LBB353:
 1473              		.loc 1 115 0
 1474 01cc 2D21     		movs	r1, #45
 1475              	.L119:
 1476              	.LVL160:
 1477              		.loc 1 116 0
 1478 01ce 2068     		ldr	r0, [r4]
 1479              	.LVL161:
ARM GAS  /tmp/ccfGo11N.s 			page 27


 1480 01d0 0368     		ldr	r3, [r0]
 1481 01d2 9B68     		ldr	r3, [r3, #8]
 1482 01d4 9847     		blx	r3
 1483              	.LVL162:
 1484              		.loc 1 115 0
 1485 01d6 15F8011F 		ldrb	r1, [r5, #1]!	@ zero_extendqisi2
 1486              	.LVL163:
 1487 01da 0029     		cmp	r1, #0
 1488 01dc F7D1     		bne	.L119
 1489              	.LBE353:
 1490              	.LBE352:
 1491              		.loc 1 370 0
 1492 01de 454B     		ldr	r3, .L157+120
 1493 01e0 454D     		ldr	r5, .L157+124
 1494              	.LVL164:
 1495 01e2 1868     		ldr	r0, [r3]
 1496 01e4 FFF7FEFF 		bl	test_printn
 1497              	.LVL165:
 1498              	.LBB354:
 1499              	.LBB332:
 1500              		.loc 1 115 0
 1501 01e8 2021     		movs	r1, #32
 1502              	.LVL166:
 1503              	.L139:
 1504              		.loc 1 116 0
 1505 01ea 2068     		ldr	r0, [r4]
 1506              	.LVL167:
 1507 01ec 0368     		ldr	r3, [r0]
 1508 01ee 9B68     		ldr	r3, [r3, #8]
 1509 01f0 9847     		blx	r3
 1510              	.LVL168:
 1511              		.loc 1 115 0
 1512 01f2 15F8011F 		ldrb	r1, [r5, #1]!	@ zero_extendqisi2
 1513              	.LVL169:
 1514 01f6 0029     		cmp	r1, #0
 1515 01f8 F7D1     		bne	.L139
 1516              	.LVL170:
 1517              	.LBE332:
 1518              	.LBE354:
 1519              	.LBB355:
 1520              	.LBB356:
 1521              		.loc 1 141 0
 1522 01fa 3368     		ldr	r3, [r6]
 1523 01fc 4B45     		cmp	r3, r9
 1524 01fe 0BD9     		bls	.L123
 1525 0200 3E4D     		ldr	r5, .L157+128
 1526              	.LVL171:
 1527              	.L124:
 1528              		.loc 1 142 0
 1529 0202 2068     		ldr	r0, [r4]
 1530 0204 15F8011C 		ldrb	r1, [r5, #-1]	@ zero_extendqisi2
 1531 0208 0368     		ldr	r3, [r0]
 1532 020a 9B68     		ldr	r3, [r3, #8]
 1533 020c 9847     		blx	r3
 1534              	.LVL172:
 1535              		.loc 1 141 0
 1536 020e 3368     		ldr	r3, [r6]
ARM GAS  /tmp/ccfGo11N.s 			page 28


 1537              	.LVL173:
 1538 0210 9D42     		cmp	r5, r3
 1539 0212 05F10105 		add	r5, r5, #1
 1540              	.LVL174:
 1541 0216 F4D3     		bcc	.L124
 1542              	.LVL175:
 1543              	.L123:
 1544              	.LBE356:
 1545              	.LBE355:
 1546              		.loc 1 373 0
 1547 0218 3948     		ldr	r0, .L157+132
 1548 021a FFF7FEFF 		bl	test_println
 1549              	.LVL176:
 1550              		.loc 1 355 0
 1551 021e 57F8043B 		ldr	r3, [r7], #4
 1552 0222 002B     		cmp	r3, #0
 1553 0224 7FF479AF 		bne	.L125
 1554              	.LVL177:
 1555              	.L155:
 1556              		.loc 1 353 0
 1557 0228 039A     		ldr	r2, [sp, #12]
 1558 022a 52F8047F 		ldr	r7, [r2, #4]!
 1559 022e 0392     		str	r2, [sp, #12]
 1560 0230 002F     		cmp	r7, #0
 1561 0232 7FF468AF 		bne	.L137
 1562              		.loc 1 381 0
 1563 0236 FFF7FEFF 		bl	print_line
 1564              	.LVL178:
 1565 023a 324D     		ldr	r5, .L157+136
 1566              		.loc 1 382 0
 1567 023c 1148     		ldr	r0, .L157+8
 1568 023e FFF7FEFF 		bl	test_println
 1569              	.LVL179:
 1570              	.LBB357:
 1571              	.LBB358:
 1572              		.loc 1 115 0
 1573 0242 4621     		movs	r1, #70
 1574              	.LVL180:
 1575              	.L140:
 1576              		.loc 1 116 0
 1577 0244 2068     		ldr	r0, [r4]
 1578              	.LVL181:
 1579 0246 0368     		ldr	r3, [r0]
 1580 0248 9B68     		ldr	r3, [r3, #8]
 1581 024a 9847     		blx	r3
 1582              	.LVL182:
 1583              		.loc 1 115 0
 1584 024c 15F8011F 		ldrb	r1, [r5, #1]!	@ zero_extendqisi2
 1585              	.LVL183:
 1586 0250 0029     		cmp	r1, #0
 1587 0252 F7D1     		bne	.L140
 1588              	.LBE358:
 1589              	.LBE357:
 1590              		.loc 1 384 0
 1591 0254 1F4A     		ldr	r2, .L157+88
 1592 0256 1378     		ldrb	r3, [r2]	@ zero_extendqisi2
 1593 0258 4BB9     		cbnz	r3, .L156
ARM GAS  /tmp/ccfGo11N.s 			page 29


 1594              		.loc 1 387 0
 1595 025a 2B48     		ldr	r0, .L157+140
 1596              		.loc 1 388 0
 1597 025c 05B0     		add	sp, sp, #20
 1598              		@ sp needed
 1599 025e BDE8F04F 		pop	{r4, r5, r6, r7, r8, r9, r10, fp, lr}
 1600              	.LVL184:
 1601              		.loc 1 387 0
 1602 0262 FFF7FEBF 		b	test_println
 1603              	.LVL185:
 1604              	.L117:
 1605              		.loc 1 376 0
 1606 0266 2948     		ldr	r0, .L157+144
 1607 0268 FFF7FEFF 		bl	test_println
 1608              	.LVL186:
 1609 026c 50E7     		b	.L127
 1610              	.LVL187:
 1611              	.L156:
 1612              		.loc 1 385 0
 1613 026e 2848     		ldr	r0, .L157+148
 1614              		.loc 1 388 0
 1615 0270 05B0     		add	sp, sp, #20
 1616              		@ sp needed
 1617 0272 BDE8F04F 		pop	{r4, r5, r6, r7, r8, r9, r10, fp, lr}
 1618              	.LVL188:
 1619              		.loc 1 387 0
 1620 0276 FFF7FEBF 		b	test_println
 1621              	.LVL189:
 1622              	.L158:
 1623 027a 00BF     		.align	2
 1624              	.L157:
 1625 027c 00000000 		.word	.LANCHOR1
 1626 0280 28000000 		.word	.LC4
 1627 0284 04000000 		.word	.LC1
 1628 0288 08000000 		.word	.LC2
 1629 028c 24000000 		.word	.LC3
 1630 0290 90000000 		.word	.LC12
 1631 0294 98000000 		.word	.LC13
 1632 0298 AC000000 		.word	.LC14
 1633 029c C4000000 		.word	.LC15
 1634 02a0 D8000000 		.word	.LC16
 1635 02a4 20010000 		.word	.LC17
 1636 02a8 34010000 		.word	.LC18
 1637 02ac 40010000 		.word	.LC19
 1638 02b0 54010000 		.word	.LC20
 1639 02b4 60010000 		.word	.LC21
 1640 02b8 74010000 		.word	.LC22
 1641 02bc 8C010000 		.word	.LC23
 1642 02c0 A0010000 		.word	.LC24
 1643 02c4 BC010000 		.word	.LC25
 1644 02c8 00000000 		.word	.LANCHOR9
 1645 02cc D0010000 		.word	.LC26
 1646 02d0 00000000 		.word	patternsys
 1647 02d4 00000000 		.word	.LANCHOR3
 1648 02d8 3C000000 		.word	.LC5
 1649 02dc F8010000 		.word	.LC27
 1650 02e0 4C000000 		.word	.LC6
ARM GAS  /tmp/ccfGo11N.s 			page 30


 1651 02e4 00000000 		.word	.LANCHOR4
 1652 02e8 00000000 		.word	.LANCHOR2
 1653 02ec 00000000 		.word	.LANCHOR7
 1654 02f0 50000000 		.word	.LC7
 1655 02f4 00000000 		.word	.LANCHOR5
 1656 02f8 FC010000 		.word	.LC28
 1657 02fc 01000000 		.word	.LANCHOR6+1
 1658 0300 68000000 		.word	.LC8
 1659 0304 00020000 		.word	.LC29
 1660 0308 88000000 		.word	.LC11
 1661 030c 6C000000 		.word	.LC9
 1662 0310 80000000 		.word	.LC10
 1663 0314 00000000 		.word	.LANCHOR6
 1664              		.cfi_endproc
 1665              	.LFE289:
 1666              		.size	TestThread, .-TestThread
 1667              		.global	test_timer_done
 1668              		.global	wa
 1669              		.global	threads
 1670              		.global	test
 1671              		.global	test_global_fail
 1672 0318 AFF30080 		.section	.bss.test,"aw",%nobits
 1672      AFF30080 
 1673              		.align	3
 1674              		.type	test, %object
 1675              		.size	test, 1640
 1676              	test:
 1677 0000 00000000 		.space	1640
 1677      00000000 
 1677      00000000 
 1677      00000000 
 1677      00000000 
 1678              		.section	.bss.failpoint,"aw",%nobits
 1679              		.align	2
 1680              		.set	.LANCHOR5,. + 0
 1681              		.type	failpoint, %object
 1682              		.size	failpoint, 4
 1683              	failpoint:
 1684 0000 00000000 		.space	4
 1685              		.section	.bss.local_fail,"aw",%nobits
 1686              		.set	.LANCHOR4,. + 0
 1687              		.type	local_fail, %object
 1688              		.size	local_fail, 1
 1689              	local_fail:
 1690 0000 00       		.space	1
 1691              		.section	.bss.test_timer_done,"aw",%nobits
 1692              		.set	.LANCHOR0,. + 0
 1693              		.type	test_timer_done, %object
 1694              		.size	test_timer_done, 1
 1695              	test_timer_done:
 1696 0000 00       		.space	1
 1697              		.section	.rodata.wa,"a",%progbits
 1698              		.align	2
 1699              		.type	wa, %object
 1700              		.size	wa, 20
 1701              	wa:
 1702 0000 00000000 		.word	test
ARM GAS  /tmp/ccfGo11N.s 			page 31


 1703 0004 48010000 		.word	test+328
 1704 0008 90020000 		.word	test+656
 1705 000c D8030000 		.word	test+984
 1706 0010 20050000 		.word	test+1312
 1707              		.section	.bss.tokp,"aw",%nobits
 1708              		.align	2
 1709              		.set	.LANCHOR2,. + 0
 1710              		.type	tokp, %object
 1711              		.size	tokp, 4
 1712              	tokp:
 1713 0000 00000000 		.space	4
 1714              		.section	.rodata.patterns,"a",%progbits
 1715              		.align	2
 1716              		.set	.LANCHOR9,. + 0
 1717              		.type	patterns, %object
 1718              		.size	patterns, 52
 1719              	patterns:
 1720 0000 00000000 		.word	patternsys
 1721 0004 00000000 		.word	patternthd
 1722 0008 00000000 		.word	patternsem
 1723 000c 00000000 		.word	patternmtx
 1724 0010 00000000 		.word	patternmsg
 1725 0014 00000000 		.word	patternmbox
 1726 0018 00000000 		.word	patternevt
 1727 001c 00000000 		.word	patternheap
 1728 0020 00000000 		.word	patternpools
 1729 0024 00000000 		.word	patterndyn
 1730 0028 00000000 		.word	patternqueues
 1731 002c 00000000 		.word	patternbmk
 1732 0030 00000000 		.word	0
 1733              		.section	.rodata.str1.4,"aMS",%progbits,1
 1734              		.align	2
 1735              	.LC0:
 1736 0000 0D0A00   		.ascii	"\015\012\000"
 1737 0003 00       		.space	1
 1738              	.LC1:
 1739 0004 00       		.ascii	"\000"
 1740 0005 000000   		.space	3
 1741              	.LC2:
 1742 0008 2A2A2A20 		.ascii	"*** ChibiOS/RT test suite\000"
 1742      43686962 
 1742      694F532F 
 1742      52542074 
 1742      65737420 
 1743 0022 0000     		.space	2
 1744              	.LC3:
 1745 0024 2A2A2A00 		.ascii	"***\000"
 1746              	.LC4:
 1747 0028 2A2A2A20 		.ascii	"*** Kernel:       \000"
 1747      4B65726E 
 1747      656C3A20 
 1747      20202020 
 1747      202000
 1748 003b 00       		.space	1
 1749              	.LC5:
 1750 003c 2D2D2D20 		.ascii	"--- Test Case \000"
 1750      54657374 
ARM GAS  /tmp/ccfGo11N.s 			page 32


 1750      20436173 
 1750      652000
 1751 004b 00       		.space	1
 1752              	.LC6:
 1753 004c 2900     		.ascii	")\000"
 1754 004e 0000     		.space	2
 1755              	.LC7:
 1756 0050 2D2D2D20 		.ascii	"--- Result: FAILURE (#\000"
 1756      52657375 
 1756      6C743A20 
 1756      4641494C 
 1756      55524520 
 1757 0067 00       		.space	1
 1758              	.LC8:
 1759 0068 5D2900   		.ascii	"])\000"
 1760 006b 00       		.space	1
 1761              	.LC9:
 1762 006c 2D2D2D20 		.ascii	"--- Result: SUCCESS\000"
 1762      52657375 
 1762      6C743A20 
 1762      53554343 
 1762      45535300 
 1763              	.LC10:
 1764 0080 4641494C 		.ascii	"FAILURE\000"
 1764      55524500 
 1765              	.LC11:
 1766 0088 53554343 		.ascii	"SUCCESS\000"
 1766      45535300 
 1767              	.LC12:
 1768 0090 332E322E 		.ascii	"3.2.0\000"
 1768      3000
 1769 0096 0000     		.space	2
 1770              	.LC13:
 1771 0098 2A2A2A20 		.ascii	"*** Compiled:     \000"
 1771      436F6D70 
 1771      696C6564 
 1771      3A202020 
 1771      202000
 1772 00ab 00       		.space	1
 1773              	.LC14:
 1774 00ac 41707220 		.ascii	"Apr 21 2016 - 17:12:41\000"
 1774      32312032 
 1774      30313620 
 1774      2D203137 
 1774      3A31323A 
 1775 00c3 00       		.space	1
 1776              	.LC15:
 1777 00c4 2A2A2A20 		.ascii	"*** Compiler:     \000"
 1777      436F6D70 
 1777      696C6572 
 1777      3A202020 
 1777      202000
 1778 00d7 00       		.space	1
 1779              	.LC16:
 1780 00d8 47434320 		.ascii	"GCC 4.8.4 20140526 (release) [ARM/embedded-4_8-bran"
 1780      342E382E 
 1780      34203230 
ARM GAS  /tmp/ccfGo11N.s 			page 33


 1780      31343035 
 1780      32362028 
 1781 010b 63682072 		.ascii	"ch revision 211358]\000"
 1781      65766973 
 1781      696F6E20 
 1781      32313133 
 1781      35385D00 
 1782 011f 00       		.space	1
 1783              	.LC17:
 1784 0120 2A2A2A20 		.ascii	"*** Architecture: \000"
 1784      41726368 
 1784      69746563 
 1784      74757265 
 1784      3A2000
 1785 0133 00       		.space	1
 1786              	.LC18:
 1787 0134 41524D76 		.ascii	"ARMv7E-M\000"
 1787      37452D4D 
 1787      00
 1788 013d 000000   		.space	3
 1789              	.LC19:
 1790 0140 2A2A2A20 		.ascii	"*** Core Variant: \000"
 1790      436F7265 
 1790      20566172 
 1790      69616E74 
 1790      3A2000
 1791 0153 00       		.space	1
 1792              	.LC20:
 1793 0154 436F7274 		.ascii	"Cortex-M4\000"
 1793      65782D4D 
 1793      3400
 1794 015e 0000     		.space	2
 1795              	.LC21:
 1796 0160 2A2A2A20 		.ascii	"*** Port Info:    \000"
 1796      506F7274 
 1796      20496E66 
 1796      6F3A2020 
 1796      202000
 1797 0173 00       		.space	1
 1798              	.LC22:
 1799 0174 41647661 		.ascii	"Advanced kernel mode\000"
 1799      6E636564 
 1799      206B6572 
 1799      6E656C20 
 1799      6D6F6465 
 1800 0189 000000   		.space	3
 1801              	.LC23:
 1802 018c 2A2A2A20 		.ascii	"*** Platform:     \000"
 1802      506C6174 
 1802      666F726D 
 1802      3A202020 
 1802      202000
 1803 019f 00       		.space	1
 1804              	.LC24:
 1805 01a0 53544D33 		.ascii	"STM32F303xC Analog & DSP\000"
 1805      32463330 
 1805      33784320 
ARM GAS  /tmp/ccfGo11N.s 			page 34


 1805      416E616C 
 1805      6F672026 
 1806 01b9 000000   		.space	3
 1807              	.LC25:
 1808 01bc 2A2A2A20 		.ascii	"*** Test Board:   \000"
 1808      54657374 
 1808      20426F61 
 1808      72643A20 
 1808      202000
 1809 01cf 00       		.space	1
 1810              	.LC26:
 1811 01d0 53544D69 		.ascii	"STMicroelectronics STM32F3-Discovery\000"
 1811      63726F65 
 1811      6C656374 
 1811      726F6E69 
 1811      63732053 
 1812 01f5 000000   		.space	3
 1813              	.LC27:
 1814 01f8 202800   		.ascii	" (\000"
 1815 01fb 00       		.space	1
 1816              	.LC28:
 1817 01fc 205B00   		.ascii	" [\000"
 1818 01ff 00       		.space	1
 1819              	.LC29:
 1820 0200 46696E61 		.ascii	"Final result: \000"
 1820      6C207265 
 1820      73756C74 
 1820      3A2000
 1821 020f 00       		.section	.bss.vt,"aw",%nobits
 1822              		.align	2
 1823              		.set	.LANCHOR8,. + 0
 1824              		.type	vt, %object
 1825              		.size	vt, 20
 1826              	vt:
 1827 0000 00000000 		.space	20
 1827      00000000 
 1827      00000000 
 1827      00000000 
 1827      00000000 
 1828              		.section	.bss.threads,"aw",%nobits
 1829              		.align	2
 1830              		.set	.LANCHOR7,. + 0
 1831              		.type	threads, %object
 1832              		.size	threads, 20
 1833              	threads:
 1834 0000 00000000 		.space	20
 1834      00000000 
 1834      00000000 
 1834      00000000 
 1834      00000000 
 1835              		.section	.bss.chp,"aw",%nobits
 1836              		.align	2
 1837              		.set	.LANCHOR1,. + 0
 1838              		.type	chp, %object
 1839              		.size	chp, 4
 1840              	chp:
 1841 0000 00000000 		.space	4
ARM GAS  /tmp/ccfGo11N.s 			page 35


 1842              		.section	.bss.tokens_buffer,"aw",%nobits
 1843              		.align	2
 1844              		.set	.LANCHOR6,. + 0
 1845              		.type	tokens_buffer, %object
 1846              		.size	tokens_buffer, 16
 1847              	tokens_buffer:
 1848 0000 00000000 		.space	16
 1848      00000000 
 1848      00000000 
 1848      00000000 
 1849              		.section	.bss.test_global_fail,"aw",%nobits
 1850              		.set	.LANCHOR3,. + 0
 1851              		.type	test_global_fail, %object
 1852              		.size	test_global_fail, 1
 1853              	test_global_fail:
 1854 0000 00       		.space	1
 1855              		.text
 1856              	.Letext0:
 1857              		.file 5 "/nfs/nfs5/home/research/hardware/arm2/gcc-arm-embedded/gcc-arm-none-eabi-4_8-2014q2/lib/g
 1858              		.file 6 "/nfs/nfs5/home/research/hardware/arm2/gcc-arm-embedded/gcc-arm-none-eabi-4_8-2014q2/arm-n
 1859              		.file 7 "/nfs/nfs5/home/research/hardware/arm2/gcc-arm-embedded/gcc-arm-none-eabi-4_8-2014q2/arm-n
 1860              		.file 8 "../ChibiOS/os/rt/ports/ARMCMx/compilers/GCC/chtypes.h"
 1861              		.file 9 "../ChibiOS/os/rt/include/chsystypes.h"
 1862              		.file 10 "../ChibiOS/os/rt/include/chschd.h"
 1863              		.file 11 "../ChibiOS/os/rt/ports/ARMCMx/chcore.h"
 1864              		.file 12 "../ChibiOS/os/rt/ports/ARMCMx/chcore_v7m.h"
 1865              		.file 13 "../ChibiOS/os/hal/ports/STM32/LLD/TIMv1/stm32_tim.h"
 1866              		.file 14 "../ChibiOS/os/rt/include/chtm.h"
 1867              		.file 15 "../ChibiOS/os/rt/include/chsem.h"
 1868              		.file 16 "../ChibiOS/os/rt/include/chmtx.h"
 1869              		.file 17 "../ChibiOS/os/rt/include/chstreams.h"
 1870              		.file 18 "../ChibiOS/test/rt/test.h"
 1871              		.file 19 "../ChibiOS/os/rt/ports/ARMCMx/chcore_timer.h"
 1872              		.file 20 "../ChibiOS/os/rt/include/chsys.h"
 1873              		.file 21 "../ChibiOS/os/ext/CMSIS/include/core_cm4.h"
 1874              		.file 22 "../ChibiOS/test/rt/testsys.h"
 1875              		.file 23 "../ChibiOS/test/rt/testthd.h"
 1876              		.file 24 "../ChibiOS/test/rt/testsem.h"
 1877              		.file 25 "../ChibiOS/test/rt/testmtx.h"
 1878              		.file 26 "../ChibiOS/test/rt/testmsg.h"
 1879              		.file 27 "../ChibiOS/test/rt/testmbox.h"
 1880              		.file 28 "../ChibiOS/test/rt/testevt.h"
 1881              		.file 29 "../ChibiOS/test/rt/testheap.h"
 1882              		.file 30 "../ChibiOS/test/rt/testpools.h"
 1883              		.file 31 "../ChibiOS/test/rt/testdyn.h"
 1884              		.file 32 "../ChibiOS/test/rt/testqueues.h"
 1885              		.file 33 "../ChibiOS/test/rt/testbmk.h"
 1886              		.file 34 "../ChibiOS/os/rt/include/chthreads.h"