ARM GAS  /tmp/cc3AzKDg.s 			page 1


   1              		.syntax unified
   2              		.cpu cortex-m4
   3              		.fpu softvfp
   4              		.eabi_attribute 20, 1
   5              		.eabi_attribute 21, 1
   6              		.eabi_attribute 23, 3
   7              		.eabi_attribute 24, 1
   8              		.eabi_attribute 25, 1
   9              		.eabi_attribute 26, 1
  10              		.eabi_attribute 30, 2
  11              		.eabi_attribute 34, 1
  12              		.eabi_attribute 18, 4
  13              		.thumb
  14              		.file	"testmsg.c"
  15              		.text
  16              	.Ltext0:
  17              		.cfi_sections	.debug_frame
  18              		.section	.text.msg1_execute,"ax",%progbits
  19              		.align	2
  20              		.p2align 4,,15
  21              		.thumb
  22              		.thumb_func
  23              		.type	msg1_execute, %function
  24              	msg1_execute:
  25              	.LFB242:
  26              		.file 1 "../ChibiOS/test/rt/testmsg.c"
  27              		.loc 1 66 0
  28              		.cfi_startproc
  29              		@ args = 0, pretend = 0, frame = 0
  30              		@ frame_needed = 0, uses_anonymous_args = 0
  31 0000 10B5     		push	{r4, lr}
  32              		.cfi_def_cfa_offset 8
  33              		.cfi_offset 4, -8
  34              		.cfi_offset 14, -4
  35              	.LBB16:
  36              	.LBB17:
  37              	.LBB18:
  38              	.LBB19:
  39              		.file 2 "../ChibiOS/os/rt/include/chthreads.h"
  40              		.loc 2 176 0
  41 0002 184A     		ldr	r2, .L2
  42              	.LBE19:
  43              	.LBE18:
  44              	.LBE17:
  45              	.LBE16:
  46              		.loc 1 73 0
  47 0004 184B     		ldr	r3, .L2+4
  48              	.LBB23:
  49              	.LBB22:
  50              	.LBB21:
  51              	.LBB20:
  52              		.loc 2 176 0
  53 0006 9169     		ldr	r1, [r2, #24]
  54              	.LBE20:
  55              	.LBE21:
  56              	.LBE22:
  57              	.LBE23:
ARM GAS  /tmp/cc3AzKDg.s 			page 2


  58              		.loc 1 73 0
  59 0008 1868     		ldr	r0, [r3]
  60 000a 8A68     		ldr	r2, [r1, #8]
  61 000c 174B     		ldr	r3, .L2+8
  62              		.loc 1 66 0
  63 000e 82B0     		sub	sp, sp, #8
  64              		.cfi_def_cfa_offset 16
  65              		.loc 1 73 0
  66 0010 0132     		adds	r2, r2, #1
  67 0012 0091     		str	r1, [sp]
  68 0014 4FF4A471 		mov	r1, #328
  69 0018 FFF7FEFF 		bl	chThdCreateStatic
  70              	.LVL0:
  71 001c 144B     		ldr	r3, .L2+12
  72 001e 1860     		str	r0, [r3]
  73              		.loc 1 75 0
  74 0020 FFF7FEFF 		bl	chMsgWait
  75              	.LVL1:
  76              		.loc 1 67 0
  77 0024 046A     		ldr	r4, [r0, #32]
  78              	.LVL2:
  79              		.loc 1 77 0
  80 0026 2146     		mov	r1, r4
  81 0028 FFF7FEFF 		bl	chMsgRelease
  82              	.LVL3:
  83              		.loc 1 78 0
  84 002c E0B2     		uxtb	r0, r4
  85 002e FFF7FEFF 		bl	test_emit_token
  86              	.LVL4:
  87              		.loc 1 79 0
  88 0032 FFF7FEFF 		bl	chMsgWait
  89              	.LVL5:
  90              		.loc 1 67 0
  91 0036 046A     		ldr	r4, [r0, #32]
  92              	.LVL6:
  93              		.loc 1 81 0
  94 0038 2146     		mov	r1, r4
  95 003a FFF7FEFF 		bl	chMsgRelease
  96              	.LVL7:
  97              		.loc 1 82 0
  98 003e E0B2     		uxtb	r0, r4
  99 0040 FFF7FEFF 		bl	test_emit_token
 100              	.LVL8:
 101              		.loc 1 83 0
 102 0044 FFF7FEFF 		bl	chMsgWait
 103              	.LVL9:
 104              		.loc 1 67 0
 105 0048 046A     		ldr	r4, [r0, #32]
 106              	.LVL10:
 107              		.loc 1 85 0
 108 004a 2146     		mov	r1, r4
 109 004c FFF7FEFF 		bl	chMsgRelease
 110              	.LVL11:
 111              		.loc 1 86 0
 112 0050 E0B2     		uxtb	r0, r4
 113 0052 FFF7FEFF 		bl	test_emit_token
 114              	.LVL12:
ARM GAS  /tmp/cc3AzKDg.s 			page 3


 115              		.loc 1 87 0
 116 0056 0749     		ldr	r1, .L2+16
 117 0058 0120     		movs	r0, #1
 118              		.loc 1 88 0
 119 005a 02B0     		add	sp, sp, #8
 120              		@ sp needed
 121 005c BDE81040 		pop	{r4, lr}
 122              		.loc 1 87 0
 123 0060 FFF7FEBF 		b	_test_assert_sequence
 124              	.LVL13:
 125              	.L3:
 126              		.align	2
 127              	.L2:
 128 0064 00000000 		.word	ch
 129 0068 00000000 		.word	wa
 130 006c 00000000 		.word	thread
 131 0070 00000000 		.word	threads
 132 0074 00000000 		.word	.LC0
 133              		.cfi_endproc
 134              	.LFE242:
 135              		.size	msg1_execute, .-msg1_execute
 136 0078 AFF30080 		.section	.text.thread,"ax",%progbits
 136      AFF30080 
 137              		.align	2
 138              		.p2align 4,,15
 139              		.thumb
 140              		.thumb_func
 141              		.type	thread, %function
 142              	thread:
 143              	.LFB241:
 144              		.loc 1 59 0
 145              		.cfi_startproc
 146              		@ args = 0, pretend = 0, frame = 0
 147              		@ frame_needed = 0, uses_anonymous_args = 0
 148              	.LVL14:
 149 0000 10B5     		push	{r4, lr}
 150              		.cfi_def_cfa_offset 8
 151              		.cfi_offset 4, -8
 152              		.cfi_offset 14, -4
 153              		.loc 1 61 0
 154 0002 4121     		movs	r1, #65
 155              		.loc 1 59 0
 156 0004 0446     		mov	r4, r0
 157              		.loc 1 61 0
 158 0006 FFF7FEFF 		bl	chMsgSend
 159              	.LVL15:
 160              		.loc 1 62 0
 161 000a 2046     		mov	r0, r4
 162 000c 4221     		movs	r1, #66
 163 000e FFF7FEFF 		bl	chMsgSend
 164              	.LVL16:
 165              		.loc 1 63 0
 166 0012 2046     		mov	r0, r4
 167 0014 4321     		movs	r1, #67
 168              		.loc 1 64 0
 169 0016 BDE81040 		pop	{r4, lr}
 170              	.LVL17:
ARM GAS  /tmp/cc3AzKDg.s 			page 4


 171              		.loc 1 63 0
 172 001a FFF7FEBF 		b	chMsgSend
 173              	.LVL18:
 174              		.cfi_endproc
 175              	.LFE241:
 176              		.size	thread, .-thread
 177              		.global	patternmsg
 178              		.global	testmsg1
 179 001e 00BF     		.section	.rodata.testmsg1,"a",%progbits
 180              		.align	2
 181              		.type	testmsg1, %object
 182              		.size	testmsg1, 16
 183              	testmsg1:
 184 0000 04000000 		.word	.LC1
 185 0004 00000000 		.word	0
 186 0008 00000000 		.word	0
 187 000c 00000000 		.word	msg1_execute
 188              		.section	.rodata.str1.4,"aMS",%progbits,1
 189              		.align	2
 190              	.LC0:
 191 0000 41424300 		.ascii	"ABC\000"
 192              	.LC1:
 193 0004 4D657373 		.ascii	"Messages, loop\000"
 193      61676573 
 193      2C206C6F 
 193      6F7000
 194 0013 00       		.section	.rodata.patternmsg,"a",%progbits
 195              		.align	2
 196              		.type	patternmsg, %object
 197              		.size	patternmsg, 8
 198              	patternmsg:
 199 0000 00000000 		.word	testmsg1
 200 0004 00000000 		.word	0
 201              		.text
 202              	.Letext0:
 203              		.file 3 "/nfs/nfs5/home/research/hardware/arm2/gcc-arm-embedded/gcc-arm-none-eabi-4_8-2014q2/lib/g
 204              		.file 4 "/nfs/nfs5/home/research/hardware/arm2/gcc-arm-embedded/gcc-arm-none-eabi-4_8-2014q2/arm-n
 205              		.file 5 "/nfs/nfs5/home/research/hardware/arm2/gcc-arm-embedded/gcc-arm-none-eabi-4_8-2014q2/arm-n
 206              		.file 6 "../ChibiOS/os/rt/ports/ARMCMx/compilers/GCC/chtypes.h"
 207              		.file 7 "../ChibiOS/os/rt/include/chsystypes.h"
 208              		.file 8 "../ChibiOS/os/rt/include/chschd.h"
 209              		.file 9 "../ChibiOS/os/rt/ports/ARMCMx/chcore.h"
 210              		.file 10 "../ChibiOS/os/rt/ports/ARMCMx/chcore_v7m.h"
 211              		.file 11 "../ChibiOS/os/rt/include/chtm.h"
 212              		.file 12 "../ChibiOS/os/rt/include/chsem.h"
 213              		.file 13 "../ChibiOS/os/rt/include/chmtx.h"
 214              		.file 14 "../ChibiOS/test/rt/test.h"
 215              		.file 15 "../ChibiOS/os/ext/CMSIS/include/core_cm4.h"
 216              		.file 16 "../ChibiOS/os/rt/include/chmsg.h"