ARM GAS  /tmp/cc7UhJBb.s 			page 1


   1              		.syntax unified
   2              		.cpu cortex-m4
   3              		.fpu softvfp
   4              		.eabi_attribute 20, 1
   5              		.eabi_attribute 21, 1
   6              		.eabi_attribute 23, 3
   7              		.eabi_attribute 24, 1
   8              		.eabi_attribute 25, 1
   9              		.eabi_attribute 26, 1
  10              		.eabi_attribute 30, 2
  11              		.eabi_attribute 34, 1
  12              		.eabi_attribute 18, 4
  13              		.thumb
  14              		.file	"testbmk.c"
  15              		.text
  16              	.Ltext0:
  17              		.cfi_sections	.debug_frame
  18              		.section	.text.tmo,"ax",%progbits
  19              		.align	2
  20              		.p2align 4,,15
  21              		.thumb
  22              		.thumb_func
  23              		.type	tmo, %function
  24              	tmo:
  25              	.LFB257:
  26              		.file 1 "../ChibiOS/test/rt/testbmk.c"
  27              		.loc 1 505 0
  28              		.cfi_startproc
  29              		@ args = 0, pretend = 0, frame = 0
  30              		@ frame_needed = 0, uses_anonymous_args = 0
  31              		@ link register save eliminated.
  32              	.LVL0:
  33 0000 7047     		bx	lr
  34              		.cfi_endproc
  35              	.LFE257:
  36              		.size	tmo, .-tmo
  37 0002 00BFAFF3 		.section	.text.bmk13_execute,"ax",%progbits
  37      0080AFF3 
  37      0080AFF3 
  37      0080
  38              		.align	2
  39              		.p2align 4,,15
  40              		.thumb
  41              		.thumb_func
  42              		.type	bmk13_execute, %function
  43              	bmk13_execute:
  44              	.LFB263:
  45              		.loc 1 640 0
  46              		.cfi_startproc
  47              		@ args = 0, pretend = 0, frame = 0
  48              		@ frame_needed = 0, uses_anonymous_args = 0
  49              		.loc 1 640 0
  50 0000 10B5     		push	{r4, lr}
  51              		.cfi_def_cfa_offset 8
  52              		.cfi_offset 4, -8
  53              		.cfi_offset 14, -4
  54              		.loc 1 642 0
ARM GAS  /tmp/cc7UhJBb.s 			page 2


  55 0002 2F48     		ldr	r0, .L3
  56              		.loc 1 644 0
  57 0004 2F4C     		ldr	r4, .L3+4
  58              		.loc 1 642 0
  59 0006 FFF7FEFF 		bl	test_print
  60              	.LVL1:
  61              		.loc 1 643 0
  62 000a 4FF4A870 		mov	r0, #336
  63 000e FFF7FEFF 		bl	test_printn
  64              	.LVL2:
  65              		.loc 1 644 0
  66 0012 2046     		mov	r0, r4
  67 0014 FFF7FEFF 		bl	test_println
  68              	.LVL3:
  69              		.loc 1 645 0
  70 0018 2B48     		ldr	r0, .L3+8
  71 001a FFF7FEFF 		bl	test_print
  72              	.LVL4:
  73              		.loc 1 646 0
  74 001e 4020     		movs	r0, #64
  75 0020 FFF7FEFF 		bl	test_printn
  76              	.LVL5:
  77              		.loc 1 647 0
  78 0024 2046     		mov	r0, r4
  79 0026 FFF7FEFF 		bl	test_println
  80              	.LVL6:
  81              		.loc 1 648 0
  82 002a 2848     		ldr	r0, .L3+12
  83 002c FFF7FEFF 		bl	test_print
  84              	.LVL7:
  85              		.loc 1 649 0
  86 0030 1420     		movs	r0, #20
  87 0032 FFF7FEFF 		bl	test_printn
  88              	.LVL8:
  89              		.loc 1 650 0
  90 0036 2046     		mov	r0, r4
  91 0038 FFF7FEFF 		bl	test_println
  92              	.LVL9:
  93              		.loc 1 652 0
  94 003c 2448     		ldr	r0, .L3+16
  95 003e FFF7FEFF 		bl	test_print
  96              	.LVL10:
  97              		.loc 1 653 0
  98 0042 0C20     		movs	r0, #12
  99 0044 FFF7FEFF 		bl	test_printn
 100              	.LVL11:
 101              		.loc 1 654 0
 102 0048 2046     		mov	r0, r4
 103 004a FFF7FEFF 		bl	test_println
 104              	.LVL12:
 105              		.loc 1 657 0
 106 004e 2148     		ldr	r0, .L3+20
 107 0050 FFF7FEFF 		bl	test_print
 108              	.LVL13:
 109              		.loc 1 658 0
 110 0054 0420     		movs	r0, #4
 111 0056 FFF7FEFF 		bl	test_printn
ARM GAS  /tmp/cc7UhJBb.s 			page 3


 112              	.LVL14:
 113              		.loc 1 659 0
 114 005a 2046     		mov	r0, r4
 115 005c FFF7FEFF 		bl	test_println
 116              	.LVL15:
 117              		.loc 1 660 0
 118 0060 1D48     		ldr	r0, .L3+24
 119 0062 FFF7FEFF 		bl	test_print
 120              	.LVL16:
 121              		.loc 1 661 0
 122 0066 1420     		movs	r0, #20
 123 0068 FFF7FEFF 		bl	test_printn
 124              	.LVL17:
 125              		.loc 1 662 0
 126 006c 2046     		mov	r0, r4
 127 006e FFF7FEFF 		bl	test_println
 128              	.LVL18:
 129              		.loc 1 665 0
 130 0072 1A48     		ldr	r0, .L3+28
 131 0074 FFF7FEFF 		bl	test_print
 132              	.LVL19:
 133              		.loc 1 666 0
 134 0078 1020     		movs	r0, #16
 135 007a FFF7FEFF 		bl	test_printn
 136              	.LVL20:
 137              		.loc 1 667 0
 138 007e 2046     		mov	r0, r4
 139 0080 FFF7FEFF 		bl	test_println
 140              	.LVL21:
 141              		.loc 1 670 0
 142 0084 1648     		ldr	r0, .L3+32
 143 0086 FFF7FEFF 		bl	test_print
 144              	.LVL22:
 145              		.loc 1 671 0
 146 008a 0820     		movs	r0, #8
 147 008c FFF7FEFF 		bl	test_printn
 148              	.LVL23:
 149              		.loc 1 672 0
 150 0090 2046     		mov	r0, r4
 151 0092 FFF7FEFF 		bl	test_println
 152              	.LVL24:
 153              		.loc 1 675 0
 154 0096 1348     		ldr	r0, .L3+36
 155 0098 FFF7FEFF 		bl	test_print
 156              	.LVL25:
 157              		.loc 1 676 0
 158 009c 2420     		movs	r0, #36
 159 009e FFF7FEFF 		bl	test_printn
 160              	.LVL26:
 161              		.loc 1 677 0
 162 00a2 2046     		mov	r0, r4
 163 00a4 FFF7FEFF 		bl	test_println
 164              	.LVL27:
 165              		.loc 1 680 0
 166 00a8 0F48     		ldr	r0, .L3+40
 167 00aa FFF7FEFF 		bl	test_print
 168              	.LVL28:
ARM GAS  /tmp/cc7UhJBb.s 			page 4


 169              		.loc 1 681 0
 170 00ae 2820     		movs	r0, #40
 171 00b0 FFF7FEFF 		bl	test_printn
 172              	.LVL29:
 173              		.loc 1 682 0
 174 00b4 2046     		mov	r0, r4
 175              		.loc 1 684 0
 176 00b6 BDE81040 		pop	{r4, lr}
 177              		.loc 1 682 0
 178 00ba FFF7FEBF 		b	test_println
 179              	.LVL30:
 180              	.L4:
 181 00be 00BF     		.align	2
 182              	.L3:
 183 00c0 00000000 		.word	.LC0
 184 00c4 10000000 		.word	.LC1
 185 00c8 18000000 		.word	.LC2
 186 00cc 28000000 		.word	.LC3
 187 00d0 38000000 		.word	.LC4
 188 00d4 48000000 		.word	.LC5
 189 00d8 58000000 		.word	.LC6
 190 00dc 68000000 		.word	.LC7
 191 00e0 78000000 		.word	.LC8
 192 00e4 88000000 		.word	.LC9
 193 00e8 98000000 		.word	.LC10
 194              		.cfi_endproc
 195              	.LFE263:
 196              		.size	bmk13_execute, .-bmk13_execute
 197 00ec AFF30080 		.section	.text.thread2,"ax",%progbits
 198              		.align	2
 199              		.p2align 4,,15
 200              		.thumb
 201              		.thumb_func
 202              		.type	thread2, %function
 203              	thread2:
 204              	.LFB242:
 205              		.loc 1 72 0
 206              		.cfi_startproc
 207              		@ args = 0, pretend = 0, frame = 0
 208              		@ frame_needed = 0, uses_anonymous_args = 0
 209              	.LVL31:
 210 0000 10B5     		push	{r4, lr}
 211              		.cfi_def_cfa_offset 8
 212              		.cfi_offset 4, -8
 213              		.cfi_offset 14, -4
 214              	.LVL32:
 215              	.L7:
 216              		.loc 1 78 0 discriminator 1
 217 0002 FFF7FEFF 		bl	chMsgWait
 218              	.LVL33:
 219              		.loc 1 73 0 discriminator 1
 220 0006 046A     		ldr	r4, [r0, #32]
 221              	.LVL34:
 222              		.loc 1 80 0 discriminator 1
 223 0008 2146     		mov	r1, r4
 224 000a FFF7FEFF 		bl	chMsgRelease
 225              	.LVL35:
ARM GAS  /tmp/cc7UhJBb.s 			page 5


 226              		.loc 1 81 0 discriminator 1
 227 000e 002C     		cmp	r4, #0
 228 0010 F7D1     		bne	.L7
 229              		.loc 1 82 0
 230 0012 10BD     		pop	{r4, pc}
 231              		.cfi_endproc
 232              	.LFE242:
 233              		.size	thread2, .-thread2
 234 0014 AFF30080 		.section	.text.bmk6_execute,"ax",%progbits
 234      AFF30080 
 234      AFF30080 
 235              		.align	2
 236              		.p2align 4,,15
 237              		.thumb
 238              		.thumb_func
 239              		.type	bmk6_execute, %function
 240              	bmk6_execute:
 241              	.LFB250:
 242              		.loc 1 307 0
 243              		.cfi_startproc
 244              		@ args = 0, pretend = 0, frame = 0
 245              		@ frame_needed = 0, uses_anonymous_args = 0
 246              	.LVL36:
 247 0000 2DE9F041 		push	{r4, r5, r6, r7, r8, lr}
 248              		.cfi_def_cfa_offset 24
 249              		.cfi_offset 4, -24
 250              		.cfi_offset 5, -20
 251              		.cfi_offset 6, -16
 252              		.cfi_offset 7, -12
 253              		.cfi_offset 8, -8
 254              		.cfi_offset 14, -4
 255              	.LBB168:
 256              	.LBB169:
 257              	.LBB170:
 258              	.LBB171:
 259              		.file 2 "../ChibiOS/os/rt/include/chthreads.h"
 260              		.loc 2 176 0
 261 0004 144B     		ldr	r3, .L12
 262              	.LBE171:
 263              	.LBE170:
 264              	.LBE169:
 265              	.LBE168:
 266              		.loc 1 310 0
 267 0006 154A     		ldr	r2, .L12+4
 268              	.LBB173:
 269              	.LBB172:
 270              		.loc 2 189 0
 271 0008 9B69     		ldr	r3, [r3, #24]
 272              	.LBE172:
 273              	.LBE173:
 274              		.loc 1 310 0
 275 000a D2F80080 		ldr	r8, [r2]
 276              	.LVL37:
 277              		.loc 1 311 0
 278 000e 9E68     		ldr	r6, [r3, #8]
 279 0010 134F     		ldr	r7, .L12+8
 280              		.loc 1 307 0
ARM GAS  /tmp/cc7UhJBb.s 			page 6


 281 0012 82B0     		sub	sp, sp, #8
 282              		.cfi_def_cfa_offset 32
 283              		.loc 1 312 0
 284 0014 FFF7FEFF 		bl	test_wait_tick
 285              	.LVL38:
 286              		.loc 1 313 0
 287 0018 4FF47A70 		mov	r0, #1000
 288 001c FFF7FEFF 		bl	test_start_timer
 289              	.LVL39:
 290              		.loc 1 309 0
 291 0020 0024     		movs	r4, #0
 292              		.loc 1 311 0
 293 0022 0136     		adds	r6, r6, #1
 294              	.LVL40:
 295              		.loc 1 315 0
 296 0024 2546     		mov	r5, r4
 297              	.LVL41:
 298              	.L11:
 299              		.loc 1 315 0 is_stmt 0 discriminator 1
 300 0026 0F4B     		ldr	r3, .L12+12
 301 0028 0095     		str	r5, [sp]
 302 002a 4046     		mov	r0, r8
 303 002c 4FF4A471 		mov	r1, #328
 304 0030 3246     		mov	r2, r6
 305 0032 FFF7FEFF 		bl	chThdCreateStatic
 306              	.LVL42:
 307              		.loc 1 320 0 is_stmt 1 discriminator 1
 308 0036 3B78     		ldrb	r3, [r7]	@ zero_extendqisi2
 309              		.loc 1 316 0 discriminator 1
 310 0038 0134     		adds	r4, r4, #1
 311              	.LVL43:
 312              		.loc 1 320 0 discriminator 1
 313 003a 002B     		cmp	r3, #0
 314 003c F3D0     		beq	.L11
 315              		.loc 1 321 0
 316 003e 0A48     		ldr	r0, .L12+16
 317 0040 FFF7FEFF 		bl	test_print
 318              	.LVL44:
 319              		.loc 1 322 0
 320 0044 2046     		mov	r0, r4
 321 0046 FFF7FEFF 		bl	test_printn
 322              	.LVL45:
 323              		.loc 1 323 0
 324 004a 0848     		ldr	r0, .L12+20
 325              		.loc 1 324 0
 326 004c 02B0     		add	sp, sp, #8
 327              		@ sp needed
 328 004e BDE8F041 		pop	{r4, r5, r6, r7, r8, lr}
 329              	.LVL46:
 330              		.loc 1 323 0
 331 0052 FFF7FEBF 		b	test_println
 332              	.LVL47:
 333              	.L13:
 334 0056 00BF     		.align	2
 335              	.L12:
 336 0058 00000000 		.word	ch
 337 005c 00000000 		.word	wa
ARM GAS  /tmp/cc7UhJBb.s 			page 7


 338 0060 00000000 		.word	test_timer_done
 339 0064 00000000 		.word	thread1
 340 0068 A8000000 		.word	.LC11
 341 006c B8000000 		.word	.LC12
 342              		.cfi_endproc
 343              	.LFE250:
 344              		.size	bmk6_execute, .-bmk6_execute
 345              		.section	.text.msg_loop_test,"ax",%progbits
 346              		.align	2
 347              		.p2align 4,,15
 348              		.thumb
 349              		.thumb_func
 350              		.type	msg_loop_test, %function
 351              	msg_loop_test:
 352              	.LFB243:
 353              		.loc 1 87 0
 354              		.cfi_startproc
 355              		@ args = 0, pretend = 0, frame = 0
 356              		@ frame_needed = 0, uses_anonymous_args = 0
 357              	.LVL48:
 358 0000 70B5     		push	{r4, r5, r6, lr}
 359              		.cfi_def_cfa_offset 16
 360              		.cfi_offset 4, -16
 361              		.cfi_offset 5, -12
 362              		.cfi_offset 6, -8
 363              		.cfi_offset 14, -4
 364              		.loc 1 87 0
 365 0002 0546     		mov	r5, r0
 366              		.loc 1 90 0
 367 0004 FFF7FEFF 		bl	test_wait_tick
 368              	.LVL49:
 369              		.loc 1 91 0
 370 0008 4FF47A70 		mov	r0, #1000
 371 000c FFF7FEFF 		bl	test_start_timer
 372              	.LVL50:
 373 0010 074E     		ldr	r6, .L17
 374              		.loc 1 89 0
 375 0012 0024     		movs	r4, #0
 376              	.LVL51:
 377              	.L16:
 378              		.loc 1 93 0 discriminator 1
 379 0014 2846     		mov	r0, r5
 380 0016 0121     		movs	r1, #1
 381 0018 FFF7FEFF 		bl	chMsgSend
 382              	.LVL52:
 383              		.loc 1 98 0 discriminator 1
 384 001c 3378     		ldrb	r3, [r6]	@ zero_extendqisi2
 385              		.loc 1 94 0 discriminator 1
 386 001e 0134     		adds	r4, r4, #1
 387              	.LVL53:
 388              		.loc 1 98 0 discriminator 1
 389 0020 002B     		cmp	r3, #0
 390 0022 F7D0     		beq	.L16
 391              		.loc 1 99 0
 392 0024 2846     		mov	r0, r5
 393 0026 0021     		movs	r1, #0
 394 0028 FFF7FEFF 		bl	chMsgSend
ARM GAS  /tmp/cc7UhJBb.s 			page 8


 395              	.LVL54:
 396              		.loc 1 101 0
 397 002c 2046     		mov	r0, r4
 398 002e 70BD     		pop	{r4, r5, r6, pc}
 399              	.LVL55:
 400              	.L18:
 401              		.align	2
 402              	.L17:
 403 0030 00000000 		.word	test_timer_done
 404              		.cfi_endproc
 405              	.LFE243:
 406              		.size	msg_loop_test, .-msg_loop_test
 407 0034 AFF30080 		.section	.text.bmk1_execute,"ax",%progbits
 407      AFF30080 
 407      AFF30080 
 408              		.align	2
 409              		.p2align 4,,15
 410              		.thumb
 411              		.thumb_func
 412              		.type	bmk1_execute, %function
 413              	bmk1_execute:
 414              	.LFB244:
 415              		.loc 1 112 0
 416              		.cfi_startproc
 417              		@ args = 0, pretend = 0, frame = 0
 418              		@ frame_needed = 0, uses_anonymous_args = 0
 419 0000 10B5     		push	{r4, lr}
 420              		.cfi_def_cfa_offset 8
 421              		.cfi_offset 4, -8
 422              		.cfi_offset 14, -4
 423              	.LBB174:
 424              	.LBB175:
 425              	.LBB176:
 426              	.LBB177:
 427              		.loc 2 176 0
 428 0002 134B     		ldr	r3, .L20
 429              	.LBE177:
 430              	.LBE176:
 431              	.LBE175:
 432              	.LBE174:
 433              		.loc 1 115 0
 434 0004 134A     		ldr	r2, .L20+4
 435              	.LBB179:
 436              	.LBB178:
 437              		.loc 2 189 0
 438 0006 9B69     		ldr	r3, [r3, #24]
 439              	.LBE178:
 440              	.LBE179:
 441              		.loc 1 115 0
 442 0008 1068     		ldr	r0, [r2]
 443 000a 9A68     		ldr	r2, [r3, #8]
 444 000c 124B     		ldr	r3, .L20+8
 445              		.loc 1 112 0
 446 000e 82B0     		sub	sp, sp, #8
 447              		.cfi_def_cfa_offset 16
 448              		.loc 1 115 0
 449 0010 0021     		movs	r1, #0
ARM GAS  /tmp/cc7UhJBb.s 			page 9


 450 0012 013A     		subs	r2, r2, #1
 451 0014 0091     		str	r1, [sp]
 452 0016 4FF4A471 		mov	r1, #328
 453 001a FFF7FEFF 		bl	chThdCreateStatic
 454              	.LVL56:
 455 001e 0F4B     		ldr	r3, .L20+12
 456 0020 1860     		str	r0, [r3]
 457              		.loc 1 116 0
 458 0022 FFF7FEFF 		bl	msg_loop_test
 459              	.LVL57:
 460 0026 0446     		mov	r4, r0
 461              	.LVL58:
 462              		.loc 1 117 0
 463 0028 FFF7FEFF 		bl	test_wait_threads
 464              	.LVL59:
 465              		.loc 1 118 0
 466 002c 0C48     		ldr	r0, .L20+16
 467 002e FFF7FEFF 		bl	test_print
 468              	.LVL60:
 469              		.loc 1 119 0
 470 0032 2046     		mov	r0, r4
 471 0034 FFF7FEFF 		bl	test_printn
 472              	.LVL61:
 473              		.loc 1 120 0
 474 0038 0A48     		ldr	r0, .L20+20
 475 003a FFF7FEFF 		bl	test_print
 476              	.LVL62:
 477              		.loc 1 121 0
 478 003e 6000     		lsls	r0, r4, #1
 479 0040 FFF7FEFF 		bl	test_printn
 480              	.LVL63:
 481              		.loc 1 122 0
 482 0044 0848     		ldr	r0, .L20+24
 483              		.loc 1 123 0
 484 0046 02B0     		add	sp, sp, #8
 485              		@ sp needed
 486 0048 BDE81040 		pop	{r4, lr}
 487              	.LVL64:
 488              		.loc 1 122 0
 489 004c FFF7FEBF 		b	test_println
 490              	.LVL65:
 491              	.L21:
 492              		.align	2
 493              	.L20:
 494 0050 00000000 		.word	ch
 495 0054 00000000 		.word	wa
 496 0058 00000000 		.word	thread2
 497 005c 00000000 		.word	threads
 498 0060 A8000000 		.word	.LC11
 499 0064 C4000000 		.word	.LC13
 500 0068 D0000000 		.word	.LC14
 501              		.cfi_endproc
 502              	.LFE244:
 503              		.size	bmk1_execute, .-bmk1_execute
 504 006c AFF30080 		.section	.text.bmk2_execute,"ax",%progbits
 505              		.align	2
 506              		.p2align 4,,15
ARM GAS  /tmp/cc7UhJBb.s 			page 10


 507              		.thumb
 508              		.thumb_func
 509              		.type	bmk2_execute, %function
 510              	bmk2_execute:
 511              	.LFB245:
 512              		.loc 1 141 0
 513              		.cfi_startproc
 514              		@ args = 0, pretend = 0, frame = 0
 515              		@ frame_needed = 0, uses_anonymous_args = 0
 516 0000 10B5     		push	{r4, lr}
 517              		.cfi_def_cfa_offset 8
 518              		.cfi_offset 4, -8
 519              		.cfi_offset 14, -4
 520              	.LBB180:
 521              	.LBB181:
 522              	.LBB182:
 523              	.LBB183:
 524              		.loc 2 176 0
 525 0002 134B     		ldr	r3, .L23
 526              	.LBE183:
 527              	.LBE182:
 528              	.LBE181:
 529              	.LBE180:
 530              		.loc 1 144 0
 531 0004 134A     		ldr	r2, .L23+4
 532              	.LBB185:
 533              	.LBB184:
 534              		.loc 2 189 0
 535 0006 9B69     		ldr	r3, [r3, #24]
 536              	.LBE184:
 537              	.LBE185:
 538              		.loc 1 144 0
 539 0008 1068     		ldr	r0, [r2]
 540 000a 9A68     		ldr	r2, [r3, #8]
 541 000c 124B     		ldr	r3, .L23+8
 542              		.loc 1 141 0
 543 000e 82B0     		sub	sp, sp, #8
 544              		.cfi_def_cfa_offset 16
 545              		.loc 1 144 0
 546 0010 0021     		movs	r1, #0
 547 0012 0132     		adds	r2, r2, #1
 548 0014 0091     		str	r1, [sp]
 549 0016 4FF4A471 		mov	r1, #328
 550 001a FFF7FEFF 		bl	chThdCreateStatic
 551              	.LVL66:
 552 001e 0F4B     		ldr	r3, .L23+12
 553 0020 1860     		str	r0, [r3]
 554              		.loc 1 145 0
 555 0022 FFF7FEFF 		bl	msg_loop_test
 556              	.LVL67:
 557 0026 0446     		mov	r4, r0
 558              	.LVL68:
 559              		.loc 1 146 0
 560 0028 FFF7FEFF 		bl	test_wait_threads
 561              	.LVL69:
 562              		.loc 1 147 0
 563 002c 0C48     		ldr	r0, .L23+16
ARM GAS  /tmp/cc7UhJBb.s 			page 11


 564 002e FFF7FEFF 		bl	test_print
 565              	.LVL70:
 566              		.loc 1 148 0
 567 0032 2046     		mov	r0, r4
 568 0034 FFF7FEFF 		bl	test_printn
 569              	.LVL71:
 570              		.loc 1 149 0
 571 0038 0A48     		ldr	r0, .L23+20
 572 003a FFF7FEFF 		bl	test_print
 573              	.LVL72:
 574              		.loc 1 150 0
 575 003e 6000     		lsls	r0, r4, #1
 576 0040 FFF7FEFF 		bl	test_printn
 577              	.LVL73:
 578              		.loc 1 151 0
 579 0044 0848     		ldr	r0, .L23+24
 580              		.loc 1 152 0
 581 0046 02B0     		add	sp, sp, #8
 582              		@ sp needed
 583 0048 BDE81040 		pop	{r4, lr}
 584              	.LVL74:
 585              		.loc 1 151 0
 586 004c FFF7FEBF 		b	test_println
 587              	.LVL75:
 588              	.L24:
 589              		.align	2
 590              	.L23:
 591 0050 00000000 		.word	ch
 592 0054 00000000 		.word	wa
 593 0058 00000000 		.word	thread2
 594 005c 00000000 		.word	threads
 595 0060 A8000000 		.word	.LC11
 596 0064 C4000000 		.word	.LC13
 597 0068 D0000000 		.word	.LC14
 598              		.cfi_endproc
 599              	.LFE245:
 600              		.size	bmk2_execute, .-bmk2_execute
 601 006c AFF30080 		.section	.text.bmk3_execute,"ax",%progbits
 602              		.align	2
 603              		.p2align 4,,15
 604              		.thumb
 605              		.thumb_func
 606              		.type	bmk3_execute, %function
 607              	bmk3_execute:
 608              	.LFB246:
 609              		.loc 1 171 0
 610              		.cfi_startproc
 611              		@ args = 0, pretend = 0, frame = 0
 612              		@ frame_needed = 0, uses_anonymous_args = 0
 613 0000 2DE9F041 		push	{r4, r5, r6, r7, r8, lr}
 614              		.cfi_def_cfa_offset 24
 615              		.cfi_offset 4, -24
 616              		.cfi_offset 5, -20
 617              		.cfi_offset 6, -16
 618              		.cfi_offset 7, -12
 619              		.cfi_offset 8, -8
 620              		.cfi_offset 14, -4
ARM GAS  /tmp/cc7UhJBb.s 			page 12


 621              	.LBB186:
 622              	.LBB187:
 623              	.LBB188:
 624              	.LBB189:
 625              		.loc 2 176 0
 626 0004 2C4F     		ldr	r7, .L26
 627              	.LBE189:
 628              	.LBE188:
 629              	.LBE187:
 630              	.LBE186:
 631              		.loc 1 174 0
 632 0006 2D4E     		ldr	r6, .L26+4
 633              	.LBB191:
 634              	.LBB190:
 635              		.loc 2 189 0
 636 0008 BB69     		ldr	r3, [r7, #24]
 637              	.LBE190:
 638              	.LBE191:
 639              		.loc 1 174 0
 640 000a 3068     		ldr	r0, [r6]
 641 000c 9A68     		ldr	r2, [r3, #8]
 642 000e 2C4B     		ldr	r3, .L26+8
 643 0010 2C4C     		ldr	r4, .L26+12
 644              		.loc 1 175 0
 645 0012 DFF8C080 		ldr	r8, .L26+28
 646              		.loc 1 171 0
 647 0016 82B0     		sub	sp, sp, #8
 648              		.cfi_def_cfa_offset 32
 649              		.loc 1 174 0
 650 0018 0025     		movs	r5, #0
 651 001a 0132     		adds	r2, r2, #1
 652 001c 0095     		str	r5, [sp]
 653 001e 4FF4A471 		mov	r1, #328
 654 0022 FFF7FEFF 		bl	chThdCreateStatic
 655              	.LVL76:
 656              	.LBB192:
 657              	.LBB193:
 658              		.loc 2 189 0
 659 0026 BA69     		ldr	r2, [r7, #24]
 660              	.LBE193:
 661              	.LBE192:
 662              		.loc 1 175 0
 663 0028 7368     		ldr	r3, [r6, #4]
 664 002a 9268     		ldr	r2, [r2, #8]
 665              		.loc 1 174 0
 666 002c 2060     		str	r0, [r4]
 667              		.loc 1 175 0
 668 002e 023A     		subs	r2, r2, #2
 669 0030 0095     		str	r5, [sp]
 670 0032 1846     		mov	r0, r3
 671 0034 4FF4A471 		mov	r1, #328
 672 0038 4346     		mov	r3, r8
 673 003a FFF7FEFF 		bl	chThdCreateStatic
 674              	.LVL77:
 675              	.LBB194:
 676              	.LBB195:
 677              		.loc 2 189 0
ARM GAS  /tmp/cc7UhJBb.s 			page 13


 678 003e BA69     		ldr	r2, [r7, #24]
 679              	.LBE195:
 680              	.LBE194:
 681              		.loc 1 176 0
 682 0040 B368     		ldr	r3, [r6, #8]
 683 0042 9268     		ldr	r2, [r2, #8]
 684              		.loc 1 175 0
 685 0044 6060     		str	r0, [r4, #4]
 686              		.loc 1 176 0
 687 0046 033A     		subs	r2, r2, #3
 688 0048 0095     		str	r5, [sp]
 689 004a 1846     		mov	r0, r3
 690 004c 4FF4A471 		mov	r1, #328
 691 0050 4346     		mov	r3, r8
 692 0052 FFF7FEFF 		bl	chThdCreateStatic
 693              	.LVL78:
 694              	.LBB196:
 695              	.LBB197:
 696              		.loc 2 189 0
 697 0056 BA69     		ldr	r2, [r7, #24]
 698              	.LBE197:
 699              	.LBE196:
 700              		.loc 1 177 0
 701 0058 F368     		ldr	r3, [r6, #12]
 702 005a 9268     		ldr	r2, [r2, #8]
 703              		.loc 1 176 0
 704 005c A060     		str	r0, [r4, #8]
 705              		.loc 1 177 0
 706 005e 043A     		subs	r2, r2, #4
 707 0060 0095     		str	r5, [sp]
 708 0062 1846     		mov	r0, r3
 709 0064 4FF4A471 		mov	r1, #328
 710 0068 4346     		mov	r3, r8
 711 006a FFF7FEFF 		bl	chThdCreateStatic
 712              	.LVL79:
 713              	.LBB198:
 714              	.LBB199:
 715              		.loc 2 189 0
 716 006e BA69     		ldr	r2, [r7, #24]
 717              	.LBE199:
 718              	.LBE198:
 719              		.loc 1 178 0
 720 0070 3369     		ldr	r3, [r6, #16]
 721 0072 9268     		ldr	r2, [r2, #8]
 722              		.loc 1 177 0
 723 0074 E060     		str	r0, [r4, #12]
 724              		.loc 1 178 0
 725 0076 053A     		subs	r2, r2, #5
 726 0078 4FF4A471 		mov	r1, #328
 727 007c 1846     		mov	r0, r3
 728 007e 0095     		str	r5, [sp]
 729 0080 4346     		mov	r3, r8
 730 0082 FFF7FEFF 		bl	chThdCreateStatic
 731              	.LVL80:
 732 0086 2061     		str	r0, [r4, #16]
 733              		.loc 1 179 0
 734 0088 2068     		ldr	r0, [r4]
ARM GAS  /tmp/cc7UhJBb.s 			page 14


 735 008a FFF7FEFF 		bl	msg_loop_test
 736              	.LVL81:
 737 008e 0446     		mov	r4, r0
 738              	.LVL82:
 739              		.loc 1 180 0
 740 0090 FFF7FEFF 		bl	test_wait_threads
 741              	.LVL83:
 742              		.loc 1 181 0
 743 0094 0C48     		ldr	r0, .L26+16
 744 0096 FFF7FEFF 		bl	test_print
 745              	.LVL84:
 746              		.loc 1 182 0
 747 009a 2046     		mov	r0, r4
 748 009c FFF7FEFF 		bl	test_printn
 749              	.LVL85:
 750              		.loc 1 183 0
 751 00a0 0A48     		ldr	r0, .L26+20
 752 00a2 FFF7FEFF 		bl	test_print
 753              	.LVL86:
 754              		.loc 1 184 0
 755 00a6 6000     		lsls	r0, r4, #1
 756 00a8 FFF7FEFF 		bl	test_printn
 757              	.LVL87:
 758              		.loc 1 185 0
 759 00ac 0848     		ldr	r0, .L26+24
 760              		.loc 1 186 0
 761 00ae 02B0     		add	sp, sp, #8
 762              		@ sp needed
 763 00b0 BDE8F041 		pop	{r4, r5, r6, r7, r8, lr}
 764              	.LVL88:
 765              		.loc 1 185 0
 766 00b4 FFF7FEBF 		b	test_println
 767              	.LVL89:
 768              	.L27:
 769              		.align	2
 770              	.L26:
 771 00b8 00000000 		.word	ch
 772 00bc 00000000 		.word	wa
 773 00c0 00000000 		.word	thread2
 774 00c4 00000000 		.word	threads
 775 00c8 A8000000 		.word	.LC11
 776 00cc C4000000 		.word	.LC13
 777 00d0 D0000000 		.word	.LC14
 778 00d4 00000000 		.word	thread1
 779              		.cfi_endproc
 780              	.LFE246:
 781              		.size	bmk3_execute, .-bmk3_execute
 782 00d8 AFF30080 		.section	.text.thread1,"ax",%progbits
 782      AFF30080 
 783              		.align	2
 784              		.p2align 4,,15
 785              		.thumb
 786              		.thumb_func
 787              		.type	thread1, %function
 788              	thread1:
 789              	.LFB241:
 790              		.loc 1 66 0
ARM GAS  /tmp/cc7UhJBb.s 			page 15


 791              		.cfi_startproc
 792              		@ args = 0, pretend = 0, frame = 0
 793              		@ frame_needed = 0, uses_anonymous_args = 0
 794              		@ link register save eliminated.
 795              	.LVL90:
 796              		.loc 1 68 0
 797 0000 FFF7FEBF 		b	chThdExit
 798              	.LVL91:
 799              		.cfi_endproc
 800              	.LFE241:
 801              		.size	thread1, .-thread1
 802 0004 AFF30080 		.section	.text.bmk4_execute,"ax",%progbits
 802      AFF30080 
 802      AFF30080 
 803              		.align	2
 804              		.p2align 4,,15
 805              		.thumb
 806              		.thumb_func
 807              		.type	bmk4_execute, %function
 808              	bmk4_execute:
 809              	.LFB248:
 810              		.loc 1 219 0
 811              		.cfi_startproc
 812              		@ args = 0, pretend = 0, frame = 0
 813              		@ frame_needed = 0, uses_anonymous_args = 0
 814 0000 2DE9F047 		push	{r4, r5, r6, r7, r8, r9, r10, lr}
 815              		.cfi_def_cfa_offset 32
 816              		.cfi_offset 4, -32
 817              		.cfi_offset 5, -28
 818              		.cfi_offset 6, -24
 819              		.cfi_offset 7, -20
 820              		.cfi_offset 8, -16
 821              		.cfi_offset 9, -12
 822              		.cfi_offset 10, -8
 823              		.cfi_offset 14, -4
 824              	.LBB200:
 825              	.LBB201:
 826              	.LBB202:
 827              	.LBB203:
 828              		.loc 2 176 0
 829 0004 264B     		ldr	r3, .L32
 830              	.LBE203:
 831              	.LBE202:
 832              	.LBE201:
 833              	.LBE200:
 834              		.loc 1 223 0
 835 0006 274A     		ldr	r2, .L32+4
 836              	.LBB205:
 837              	.LBB204:
 838              		.loc 2 189 0
 839 0008 9B69     		ldr	r3, [r3, #24]
 840              	.LBE204:
 841              	.LBE205:
 842              		.loc 1 223 0
 843 000a 1068     		ldr	r0, [r2]
 844 000c 9A68     		ldr	r2, [r3, #8]
 845 000e 264B     		ldr	r3, .L32+8
ARM GAS  /tmp/cc7UhJBb.s 			page 16


 846 0010 DFF8A490 		ldr	r9, .L32+24
 847              		.loc 1 219 0
 848 0014 82B0     		sub	sp, sp, #8
 849              		.cfi_def_cfa_offset 40
 850              		.loc 1 223 0
 851 0016 0025     		movs	r5, #0
 852 0018 0132     		adds	r2, r2, #1
 853 001a 4FF4A471 		mov	r1, #328
 854 001e 0095     		str	r5, [sp]
 855 0020 FFF7FEFF 		bl	chThdCreateStatic
 856              	.LVL92:
 857 0024 214B     		ldr	r3, .L32+12
 858 0026 0446     		mov	r4, r0
 859 0028 1860     		str	r0, [r3]
 860              	.LVL93:
 861              		.loc 1 226 0
 862 002a FFF7FEFF 		bl	test_wait_tick
 863              	.LVL94:
 864              		.loc 1 227 0
 865 002e 4FF47A70 		mov	r0, #1000
 866 0032 FFF7FEFF 		bl	test_start_timer
 867              	.LVL95:
 868              		.loc 1 230 0
 869 0036 A846     		mov	r8, r5
 870              	.LBB206:
 871              	.LBB207:
 872              	.LBB208:
 873              	.LBB209:
 874              		.file 3 "../ChibiOS/os/ext/CMSIS/include/core_cmFunc.h"
 875              		.loc 3 548 0
 876 0038 2027     		movs	r7, #32
 877              	.LVL96:
 878              	.L31:
 879              		.loc 3 548 0 is_stmt 0 discriminator 1
 880 003a 2026     		movs	r6, #32
 881              	@ 548 "../ChibiOS/os/ext/CMSIS/include/core_cmFunc.h" 1
 882 003c 87F31188 		MSR basepri, r7
 883              	@ 0 "" 2
 884              		.thumb
 885              	.LBE209:
 886              	.LBE208:
 887              	.LBE207:
 888              	.LBE206:
 889              		.loc 1 230 0 is_stmt 1 discriminator 1
 890 0040 0021     		movs	r1, #0
 891 0042 2046     		mov	r0, r4
 892 0044 FFF7FEFF 		bl	chSchWakeupS
 893              	.LVL97:
 894              		.loc 1 231 0 discriminator 1
 895 0048 2046     		mov	r0, r4
 896 004a 0021     		movs	r1, #0
 897 004c FFF7FEFF 		bl	chSchWakeupS
 898              	.LVL98:
 899              		.loc 1 232 0 discriminator 1
 900 0050 2046     		mov	r0, r4
 901 0052 0021     		movs	r1, #0
 902 0054 FFF7FEFF 		bl	chSchWakeupS
ARM GAS  /tmp/cc7UhJBb.s 			page 17


 903              	.LVL99:
 904              		.loc 1 233 0 discriminator 1
 905 0058 2046     		mov	r0, r4
 906 005a 0021     		movs	r1, #0
 907 005c FFF7FEFF 		bl	chSchWakeupS
 908              	.LVL100:
 909              	.LBB210:
 910              	.LBB211:
 911              	.LBB212:
 912              	.LBB213:
 913              	.LBB214:
 914              		.loc 3 548 0 discriminator 1
 915 0060 4FF0000A 		mov	r10, #0
 916              	@ 548 "../ChibiOS/os/ext/CMSIS/include/core_cmFunc.h" 1
 917 0064 88F31188 		MSR basepri, r8
 918              	@ 0 "" 2
 919              		.thumb
 920              	.LBE214:
 921              	.LBE213:
 922              	.LBE212:
 923              	.LBE211:
 924              	.LBE210:
 925              		.loc 1 239 0 discriminator 1
 926 0068 99F80030 		ldrb	r3, [r9]	@ zero_extendqisi2
 927              		.loc 1 235 0 discriminator 1
 928 006c 0435     		adds	r5, r5, #4
 929              	.LVL101:
 930              		.loc 1 239 0 discriminator 1
 931 006e 002B     		cmp	r3, #0
 932 0070 E3D0     		beq	.L31
 933              	.LVL102:
 934              	.LBB215:
 935              	.LBB216:
 936              	.LBB217:
 937              	.LBB218:
 938              		.loc 3 548 0
 939              	@ 548 "../ChibiOS/os/ext/CMSIS/include/core_cmFunc.h" 1
 940 0072 86F31188 		MSR basepri, r6
 941              	@ 0 "" 2
 942              		.thumb
 943              	.LBE218:
 944              	.LBE217:
 945              	.LBE216:
 946              	.LBE215:
 947              		.loc 1 241 0
 948 0076 4FF0FF31 		mov	r1, #-1
 949 007a 2046     		mov	r0, r4
 950 007c FFF7FEFF 		bl	chSchWakeupS
 951              	.LVL103:
 952              	.LBB219:
 953              	.LBB220:
 954              	.LBB221:
 955              	.LBB222:
 956              	.LBB223:
 957              		.loc 3 548 0
 958              	@ 548 "../ChibiOS/os/ext/CMSIS/include/core_cmFunc.h" 1
 959 0080 8AF31188 		MSR basepri, r10
ARM GAS  /tmp/cc7UhJBb.s 			page 18


 960              	@ 0 "" 2
 961              		.thumb
 962              	.LBE223:
 963              	.LBE222:
 964              	.LBE221:
 965              	.LBE220:
 966              	.LBE219:
 967              		.loc 1 244 0
 968 0084 FFF7FEFF 		bl	test_wait_threads
 969              	.LVL104:
 970              		.loc 1 245 0
 971 0088 0948     		ldr	r0, .L32+16
 972 008a FFF7FEFF 		bl	test_print
 973              	.LVL105:
 974              		.loc 1 246 0
 975 008e 6800     		lsls	r0, r5, #1
 976 0090 FFF7FEFF 		bl	test_printn
 977              	.LVL106:
 978              		.loc 1 247 0
 979 0094 0748     		ldr	r0, .L32+20
 980              		.loc 1 248 0
 981 0096 02B0     		add	sp, sp, #8
 982              		@ sp needed
 983 0098 BDE8F047 		pop	{r4, r5, r6, r7, r8, r9, r10, lr}
 984              	.LVL107:
 985              		.loc 1 247 0
 986 009c FFF7FEBF 		b	test_println
 987              	.LVL108:
 988              	.L33:
 989              		.align	2
 990              	.L32:
 991 00a0 00000000 		.word	ch
 992 00a4 00000000 		.word	wa
 993 00a8 00000000 		.word	thread4
 994 00ac 00000000 		.word	threads
 995 00b0 A8000000 		.word	.LC11
 996 00b4 D0000000 		.word	.LC14
 997 00b8 00000000 		.word	test_timer_done
 998              		.cfi_endproc
 999              	.LFE248:
 1000              		.size	bmk4_execute, .-bmk4_execute
 1001 00bc AFF30080 		.section	.text.thread4,"ax",%progbits
 1002              		.align	2
 1003              		.p2align 4,,15
 1004              		.thumb
 1005              		.thumb_func
 1006              		.type	thread4, %function
 1007              	thread4:
 1008              	.LFB247:
 1009              		.loc 1 206 0
 1010              		.cfi_startproc
 1011              		@ args = 0, pretend = 0, frame = 0
 1012              		@ frame_needed = 0, uses_anonymous_args = 0
 1013              	.LVL109:
 1014              	.LBB224:
 1015              	.LBB225:
 1016              		.loc 2 176 0
ARM GAS  /tmp/cc7UhJBb.s 			page 19


 1017 0000 074A     		ldr	r2, .L37
 1018              	.LBE225:
 1019              	.LBE224:
 1020              		.loc 1 206 0
 1021 0002 10B5     		push	{r4, lr}
 1022              		.cfi_def_cfa_offset 8
 1023              		.cfi_offset 4, -8
 1024              		.cfi_offset 14, -4
 1025              	.LBB227:
 1026              	.LBB228:
 1027              	.LBB229:
 1028              	.LBB230:
 1029              		.loc 3 548 0
 1030 0004 2023     		movs	r3, #32
 1031              	.LBE230:
 1032              	.LBE229:
 1033              	.LBE228:
 1034              	.LBE227:
 1035              	.LBB234:
 1036              	.LBB226:
 1037              		.loc 2 176 0
 1038 0006 9469     		ldr	r4, [r2, #24]
 1039              	.LVL110:
 1040              	.LBE226:
 1041              	.LBE234:
 1042              	.LBB235:
 1043              	.LBB233:
 1044              	.LBB232:
 1045              	.LBB231:
 1046              		.loc 3 548 0
 1047              	@ 548 "../ChibiOS/os/ext/CMSIS/include/core_cmFunc.h" 1
 1048 0008 83F31188 		MSR basepri, r3
 1049              	@ 0 "" 2
 1050              	.LVL111:
 1051              		.thumb
 1052              	.L36:
 1053              	.LBE231:
 1054              	.LBE232:
 1055              	.LBE233:
 1056              	.LBE235:
 1057              		.loc 1 213 0 discriminator 1
 1058 000c 0320     		movs	r0, #3
 1059 000e FFF7FEFF 		bl	chSchGoSleepS
 1060              	.LVL112:
 1061              		.loc 1 215 0 discriminator 1
 1062 0012 236A     		ldr	r3, [r4, #32]
 1063 0014 002B     		cmp	r3, #0
 1064 0016 F9D0     		beq	.L36
 1065              	.LVL113:
 1066              	.LBB236:
 1067              	.LBB237:
 1068              	.LBB238:
 1069              	.LBB239:
 1070              	.LBB240:
 1071              		.loc 3 548 0
 1072 0018 0023     		movs	r3, #0
 1073              	@ 548 "../ChibiOS/os/ext/CMSIS/include/core_cmFunc.h" 1
ARM GAS  /tmp/cc7UhJBb.s 			page 20


 1074 001a 83F31188 		MSR basepri, r3
 1075              	@ 0 "" 2
 1076              		.thumb
 1077 001e 10BD     		pop	{r4, pc}
 1078              	.LVL114:
 1079              	.L38:
 1080              		.align	2
 1081              	.L37:
 1082 0020 00000000 		.word	ch
 1083              	.LBE240:
 1084              	.LBE239:
 1085              	.LBE238:
 1086              	.LBE237:
 1087              	.LBE236:
 1088              		.cfi_endproc
 1089              	.LFE247:
 1090              		.size	thread4, .-thread4
 1091 0024 AFF30080 		.section	.text.bmk5_execute,"ax",%progbits
 1091      AFF30080 
 1091      AFF30080 
 1092              		.align	2
 1093              		.p2align 4,,15
 1094              		.thumb
 1095              		.thumb_func
 1096              		.type	bmk5_execute, %function
 1097              	bmk5_execute:
 1098              	.LFB249:
 1099              		.loc 1 268 0
 1100              		.cfi_startproc
 1101              		@ args = 0, pretend = 0, frame = 0
 1102              		@ frame_needed = 0, uses_anonymous_args = 0
 1103              	.LVL115:
 1104 0000 2DE9F041 		push	{r4, r5, r6, r7, r8, lr}
 1105              		.cfi_def_cfa_offset 24
 1106              		.cfi_offset 4, -24
 1107              		.cfi_offset 5, -20
 1108              		.cfi_offset 6, -16
 1109              		.cfi_offset 7, -12
 1110              		.cfi_offset 8, -8
 1111              		.cfi_offset 14, -4
 1112              	.LBB241:
 1113              	.LBB242:
 1114              	.LBB243:
 1115              	.LBB244:
 1116              		.loc 2 176 0
 1117 0004 154B     		ldr	r3, .L42
 1118              	.LBE244:
 1119              	.LBE243:
 1120              	.LBE242:
 1121              	.LBE241:
 1122              		.loc 1 271 0
 1123 0006 164A     		ldr	r2, .L42+4
 1124              	.LBB246:
 1125              	.LBB245:
 1126              		.loc 2 189 0
 1127 0008 9B69     		ldr	r3, [r3, #24]
 1128              	.LBE245:
ARM GAS  /tmp/cc7UhJBb.s 			page 21


 1129              	.LBE246:
 1130              		.loc 1 271 0
 1131 000a D2F80080 		ldr	r8, [r2]
 1132              	.LVL116:
 1133              		.loc 1 272 0
 1134 000e 9E68     		ldr	r6, [r3, #8]
 1135 0010 144F     		ldr	r7, .L42+8
 1136              		.loc 1 268 0
 1137 0012 82B0     		sub	sp, sp, #8
 1138              		.cfi_def_cfa_offset 32
 1139              		.loc 1 273 0
 1140 0014 FFF7FEFF 		bl	test_wait_tick
 1141              	.LVL117:
 1142              		.loc 1 274 0
 1143 0018 4FF47A70 		mov	r0, #1000
 1144 001c FFF7FEFF 		bl	test_start_timer
 1145              	.LVL118:
 1146              		.loc 1 270 0
 1147 0020 0024     		movs	r4, #0
 1148              		.loc 1 272 0
 1149 0022 013E     		subs	r6, r6, #1
 1150              	.LVL119:
 1151              		.loc 1 276 0
 1152 0024 2546     		mov	r5, r4
 1153              	.LVL120:
 1154              	.L41:
 1155              		.loc 1 276 0 is_stmt 0 discriminator 1
 1156 0026 104B     		ldr	r3, .L42+12
 1157 0028 0095     		str	r5, [sp]
 1158 002a 4FF4A471 		mov	r1, #328
 1159 002e 3246     		mov	r2, r6
 1160 0030 4046     		mov	r0, r8
 1161 0032 FFF7FEFF 		bl	chThdCreateStatic
 1162              	.LVL121:
 1163 0036 FFF7FEFF 		bl	chThdWait
 1164              	.LVL122:
 1165              		.loc 1 281 0 is_stmt 1 discriminator 1
 1166 003a 3B78     		ldrb	r3, [r7]	@ zero_extendqisi2
 1167              		.loc 1 277 0 discriminator 1
 1168 003c 0134     		adds	r4, r4, #1
 1169              	.LVL123:
 1170              		.loc 1 281 0 discriminator 1
 1171 003e 002B     		cmp	r3, #0
 1172 0040 F1D0     		beq	.L41
 1173              		.loc 1 282 0
 1174 0042 0A48     		ldr	r0, .L42+16
 1175 0044 FFF7FEFF 		bl	test_print
 1176              	.LVL124:
 1177              		.loc 1 283 0
 1178 0048 2046     		mov	r0, r4
 1179 004a FFF7FEFF 		bl	test_printn
 1180              	.LVL125:
 1181              		.loc 1 284 0
 1182 004e 0848     		ldr	r0, .L42+20
 1183              		.loc 1 285 0
 1184 0050 02B0     		add	sp, sp, #8
 1185              		@ sp needed
ARM GAS  /tmp/cc7UhJBb.s 			page 22


 1186 0052 BDE8F041 		pop	{r4, r5, r6, r7, r8, lr}
 1187              	.LVL126:
 1188              		.loc 1 284 0
 1189 0056 FFF7FEBF 		b	test_println
 1190              	.LVL127:
 1191              	.L43:
 1192 005a 00BF     		.align	2
 1193              	.L42:
 1194 005c 00000000 		.word	ch
 1195 0060 00000000 		.word	wa
 1196 0064 00000000 		.word	test_timer_done
 1197 0068 00000000 		.word	thread1
 1198 006c A8000000 		.word	.LC11
 1199 0070 B8000000 		.word	.LC12
 1200              		.cfi_endproc
 1201              	.LFE249:
 1202              		.size	bmk5_execute, .-bmk5_execute
 1203 0074 AFF30080 		.section	.text.bmk7_execute,"ax",%progbits
 1203      AFF30080 
 1203      AFF30080 
 1204              		.align	2
 1205              		.p2align 4,,15
 1206              		.thumb
 1207              		.thumb_func
 1208              		.type	bmk7_execute, %function
 1209              	bmk7_execute:
 1210              	.LFB253:
 1211              		.loc 1 357 0
 1212              		.cfi_startproc
 1213              		@ args = 0, pretend = 0, frame = 0
 1214              		@ frame_needed = 0, uses_anonymous_args = 0
 1215 0000 2DE9F041 		push	{r4, r5, r6, r7, r8, lr}
 1216              		.cfi_def_cfa_offset 24
 1217              		.cfi_offset 4, -24
 1218              		.cfi_offset 5, -20
 1219              		.cfi_offset 6, -16
 1220              		.cfi_offset 7, -12
 1221              		.cfi_offset 8, -8
 1222              		.cfi_offset 14, -4
 1223              	.LBB247:
 1224              	.LBB248:
 1225              	.LBB249:
 1226              	.LBB250:
 1227              		.loc 2 176 0
 1228 0004 DFF80081 		ldr	r8, .L47+32
 1229              	.LBE250:
 1230              	.LBE249:
 1231              	.LBE248:
 1232              	.LBE247:
 1233              		.loc 1 360 0
 1234 0008 374F     		ldr	r7, .L47
 1235              	.LBB252:
 1236              	.LBB251:
 1237              		.loc 2 189 0
 1238 000a D8F81830 		ldr	r3, [r8, #24]
 1239              	.LBE251:
 1240              	.LBE252:
ARM GAS  /tmp/cc7UhJBb.s 			page 23


 1241              		.loc 1 360 0
 1242 000e 3868     		ldr	r0, [r7]
 1243 0010 9A68     		ldr	r2, [r3, #8]
 1244 0012 364B     		ldr	r3, .L47+4
 1245 0014 364E     		ldr	r6, .L47+8
 1246 0016 374D     		ldr	r5, .L47+12
 1247              		.loc 1 357 0
 1248 0018 82B0     		sub	sp, sp, #8
 1249              		.cfi_def_cfa_offset 32
 1250              		.loc 1 360 0
 1251 001a 0024     		movs	r4, #0
 1252 001c 0532     		adds	r2, r2, #5
 1253 001e 4FF4A471 		mov	r1, #328
 1254 0022 0094     		str	r4, [sp]
 1255 0024 FFF7FEFF 		bl	chThdCreateStatic
 1256              	.LVL128:
 1257              	.LBB253:
 1258              	.LBB254:
 1259              		.loc 2 189 0
 1260 0028 D8F81820 		ldr	r2, [r8, #24]
 1261              	.LBE254:
 1262              	.LBE253:
 1263              		.loc 1 361 0
 1264 002c 7B68     		ldr	r3, [r7, #4]
 1265 002e 9268     		ldr	r2, [r2, #8]
 1266              		.loc 1 360 0
 1267 0030 3060     		str	r0, [r6]
 1268              		.loc 1 361 0
 1269 0032 0432     		adds	r2, r2, #4
 1270 0034 1846     		mov	r0, r3
 1271 0036 4FF4A471 		mov	r1, #328
 1272 003a 2C4B     		ldr	r3, .L47+4
 1273 003c 0094     		str	r4, [sp]
 1274 003e FFF7FEFF 		bl	chThdCreateStatic
 1275              	.LVL129:
 1276              	.LBB255:
 1277              	.LBB256:
 1278              		.loc 2 189 0
 1279 0042 D8F81820 		ldr	r2, [r8, #24]
 1280              	.LBE256:
 1281              	.LBE255:
 1282              		.loc 1 362 0
 1283 0046 BB68     		ldr	r3, [r7, #8]
 1284 0048 9268     		ldr	r2, [r2, #8]
 1285              		.loc 1 361 0
 1286 004a 7060     		str	r0, [r6, #4]
 1287              		.loc 1 362 0
 1288 004c 0332     		adds	r2, r2, #3
 1289 004e 1846     		mov	r0, r3
 1290 0050 4FF4A471 		mov	r1, #328
 1291 0054 254B     		ldr	r3, .L47+4
 1292 0056 0094     		str	r4, [sp]
 1293 0058 FFF7FEFF 		bl	chThdCreateStatic
 1294              	.LVL130:
 1295              	.LBB257:
 1296              	.LBB258:
 1297              		.loc 2 189 0
ARM GAS  /tmp/cc7UhJBb.s 			page 24


 1298 005c D8F81820 		ldr	r2, [r8, #24]
 1299              	.LBE258:
 1300              	.LBE257:
 1301              		.loc 1 363 0
 1302 0060 FB68     		ldr	r3, [r7, #12]
 1303 0062 9268     		ldr	r2, [r2, #8]
 1304              		.loc 1 362 0
 1305 0064 B060     		str	r0, [r6, #8]
 1306              		.loc 1 363 0
 1307 0066 0232     		adds	r2, r2, #2
 1308 0068 1846     		mov	r0, r3
 1309 006a 4FF4A471 		mov	r1, #328
 1310 006e 1F4B     		ldr	r3, .L47+4
 1311 0070 0094     		str	r4, [sp]
 1312 0072 FFF7FEFF 		bl	chThdCreateStatic
 1313              	.LVL131:
 1314              	.LBB259:
 1315              	.LBB260:
 1316              		.loc 2 189 0
 1317 0076 D8F81820 		ldr	r2, [r8, #24]
 1318              	.LBE260:
 1319              	.LBE259:
 1320              		.loc 1 364 0
 1321 007a 3B69     		ldr	r3, [r7, #16]
 1322 007c 9268     		ldr	r2, [r2, #8]
 1323              		.loc 1 363 0
 1324 007e F060     		str	r0, [r6, #12]
 1325              		.loc 1 364 0
 1326 0080 0132     		adds	r2, r2, #1
 1327 0082 1846     		mov	r0, r3
 1328 0084 4FF4A471 		mov	r1, #328
 1329 0088 184B     		ldr	r3, .L47+4
 1330 008a 0094     		str	r4, [sp]
 1331 008c FFF7FEFF 		bl	chThdCreateStatic
 1332              	.LVL132:
 1333 0090 3061     		str	r0, [r6, #16]
 1334              	.LVL133:
 1335              		.loc 1 367 0
 1336 0092 FFF7FEFF 		bl	test_wait_tick
 1337              	.LVL134:
 1338              		.loc 1 368 0
 1339 0096 4FF47A70 		mov	r0, #1000
 1340 009a FFF7FEFF 		bl	test_start_timer
 1341              	.LVL135:
 1342              	.L46:
 1343              		.loc 1 370 0 discriminator 1
 1344 009e 1648     		ldr	r0, .L47+16
 1345 00a0 0021     		movs	r1, #0
 1346 00a2 FFF7FEFF 		bl	chSemReset
 1347              	.LVL136:
 1348              		.loc 1 375 0 discriminator 1
 1349 00a6 2B78     		ldrb	r3, [r5]	@ zero_extendqisi2
 1350              		.loc 1 371 0 discriminator 1
 1351 00a8 0134     		adds	r4, r4, #1
 1352              	.LVL137:
 1353              		.loc 1 375 0 discriminator 1
 1354 00aa 002B     		cmp	r3, #0
ARM GAS  /tmp/cc7UhJBb.s 			page 25


 1355 00ac F7D0     		beq	.L46
 1356              		.loc 1 376 0
 1357 00ae FFF7FEFF 		bl	test_terminate_threads
 1358              	.LVL138:
 1359              		.loc 1 377 0
 1360 00b2 0021     		movs	r1, #0
 1361 00b4 1048     		ldr	r0, .L47+16
 1362 00b6 FFF7FEFF 		bl	chSemReset
 1363              	.LVL139:
 1364              		.loc 1 378 0
 1365 00ba FFF7FEFF 		bl	test_wait_threads
 1366              	.LVL140:
 1367              		.loc 1 380 0
 1368 00be 0F48     		ldr	r0, .L47+20
 1369 00c0 FFF7FEFF 		bl	test_print
 1370              	.LVL141:
 1371              		.loc 1 381 0
 1372 00c4 2046     		mov	r0, r4
 1373 00c6 FFF7FEFF 		bl	test_printn
 1374              	.LVL142:
 1375              		.loc 1 382 0
 1376 00ca 0D48     		ldr	r0, .L47+24
 1377 00cc FFF7FEFF 		bl	test_print
 1378              	.LVL143:
 1379              		.loc 1 383 0
 1380 00d0 04EB4400 		add	r0, r4, r4, lsl #1
 1381 00d4 4000     		lsls	r0, r0, #1
 1382 00d6 FFF7FEFF 		bl	test_printn
 1383              	.LVL144:
 1384              		.loc 1 384 0
 1385 00da 0A48     		ldr	r0, .L47+28
 1386              		.loc 1 385 0
 1387 00dc 02B0     		add	sp, sp, #8
 1388              		@ sp needed
 1389 00de BDE8F041 		pop	{r4, r5, r6, r7, r8, lr}
 1390              	.LVL145:
 1391              		.loc 1 384 0
 1392 00e2 FFF7FEBF 		b	test_println
 1393              	.LVL146:
 1394              	.L48:
 1395 00e6 00BF     		.align	2
 1396              	.L47:
 1397 00e8 00000000 		.word	wa
 1398 00ec 00000000 		.word	thread3
 1399 00f0 00000000 		.word	threads
 1400 00f4 00000000 		.word	test_timer_done
 1401 00f8 00000000 		.word	.LANCHOR0
 1402 00fc A8000000 		.word	.LC11
 1403 0100 DC000000 		.word	.LC15
 1404 0104 D0000000 		.word	.LC14
 1405 0108 00000000 		.word	ch
 1406              		.cfi_endproc
 1407              	.LFE253:
 1408              		.size	bmk7_execute, .-bmk7_execute
 1409 010c AFF30080 		.section	.text.thread3,"ax",%progbits
 1410              		.align	2
 1411              		.p2align 4,,15
ARM GAS  /tmp/cc7UhJBb.s 			page 26


 1412              		.thumb
 1413              		.thumb_func
 1414              		.type	thread3, %function
 1415              	thread3:
 1416              	.LFB251:
 1417              		.loc 1 345 0
 1418              		.cfi_startproc
 1419              		@ args = 0, pretend = 0, frame = 0
 1420              		@ frame_needed = 0, uses_anonymous_args = 0
 1421              	.LVL147:
 1422 0000 10B5     		push	{r4, lr}
 1423              		.cfi_def_cfa_offset 8
 1424              		.cfi_offset 4, -8
 1425              		.cfi_offset 14, -4
 1426              	.LBB261:
 1427              	.LBB262:
 1428              	.LBB263:
 1429              	.LBB264:
 1430              		.loc 2 176 0
 1431 0002 064C     		ldr	r4, .L53
 1432              	.LBE264:
 1433              	.LBE263:
 1434              		.loc 2 233 0
 1435 0004 A369     		ldr	r3, [r4, #24]
 1436 0006 5B7F     		ldrb	r3, [r3, #29]	@ zero_extendqisi2
 1437              	.LBE262:
 1438              	.LBE261:
 1439              		.loc 1 348 0
 1440 0008 5A07     		lsls	r2, r3, #29
 1441 000a 06D4     		bmi	.L49
 1442              	.LVL148:
 1443              	.L52:
 1444              		.loc 1 349 0
 1445 000c 0448     		ldr	r0, .L53+4
 1446 000e FFF7FEFF 		bl	chSemWait
 1447              	.LVL149:
 1448              	.LBB266:
 1449              	.LBB265:
 1450              		.loc 2 233 0
 1451 0012 A369     		ldr	r3, [r4, #24]
 1452 0014 5B7F     		ldrb	r3, [r3, #29]	@ zero_extendqisi2
 1453              	.LBE265:
 1454              	.LBE266:
 1455              		.loc 1 348 0
 1456 0016 5B07     		lsls	r3, r3, #29
 1457 0018 F8D5     		bpl	.L52
 1458              	.L49:
 1459 001a 10BD     		pop	{r4, pc}
 1460              	.L54:
 1461              		.align	2
 1462              	.L53:
 1463 001c 00000000 		.word	ch
 1464 0020 00000000 		.word	.LANCHOR0
 1465              		.cfi_endproc
 1466              	.LFE251:
 1467              		.size	thread3, .-thread3
 1468 0024 AFF30080 		.section	.text.bmk7_setup,"ax",%progbits
ARM GAS  /tmp/cc7UhJBb.s 			page 27


 1468      AFF30080 
 1468      AFF30080 
 1469              		.align	2
 1470              		.p2align 4,,15
 1471              		.thumb
 1472              		.thumb_func
 1473              		.type	bmk7_setup, %function
 1474              	bmk7_setup:
 1475              	.LFB252:
 1476              		.loc 1 352 0
 1477              		.cfi_startproc
 1478              		@ args = 0, pretend = 0, frame = 0
 1479              		@ frame_needed = 0, uses_anonymous_args = 0
 1480              		@ link register save eliminated.
 1481              		.loc 1 354 0
 1482 0000 0148     		ldr	r0, .L56
 1483 0002 0021     		movs	r1, #0
 1484 0004 FFF7FEBF 		b	chSemObjectInit
 1485              	.LVL150:
 1486              	.L57:
 1487              		.align	2
 1488              	.L56:
 1489 0008 00000000 		.word	.LANCHOR0
 1490              		.cfi_endproc
 1491              	.LFE252:
 1492              		.size	bmk7_setup, .-bmk7_setup
 1493 000c AFF30080 		.section	.text.bmk11_setup,"ax",%progbits
 1494              		.align	2
 1495              		.p2align 4,,15
 1496              		.thumb
 1497              		.thumb_func
 1498              		.type	bmk11_setup, %function
 1499              	bmk11_setup:
 1500              	.LFB259:
 1501              		.loc 1 548 0
 1502              		.cfi_startproc
 1503              		@ args = 0, pretend = 0, frame = 0
 1504              		@ frame_needed = 0, uses_anonymous_args = 0
 1505              		@ link register save eliminated.
 1506              		.loc 1 550 0
 1507 0000 0148     		ldr	r0, .L59
 1508 0002 0121     		movs	r1, #1
 1509 0004 FFF7FEBF 		b	chSemObjectInit
 1510              	.LVL151:
 1511              	.L60:
 1512              		.align	2
 1513              	.L59:
 1514 0008 00000000 		.word	.LANCHOR0
 1515              		.cfi_endproc
 1516              	.LFE259:
 1517              		.size	bmk11_setup, .-bmk11_setup
 1518 000c AFF30080 		.section	.text.bmk8_execute,"ax",%progbits
 1519              		.align	2
 1520              		.p2align 4,,15
 1521              		.thumb
 1522              		.thumb_func
 1523              		.type	bmk8_execute, %function
ARM GAS  /tmp/cc7UhJBb.s 			page 28


 1524              	bmk8_execute:
 1525              	.LFB255:
 1526              		.loc 1 419 0
 1527              		.cfi_startproc
 1528              		@ args = 0, pretend = 0, frame = 8
 1529              		@ frame_needed = 0, uses_anonymous_args = 0
 1530 0000 2DE9F041 		push	{r4, r5, r6, r7, r8, lr}
 1531              		.cfi_def_cfa_offset 24
 1532              		.cfi_offset 4, -24
 1533              		.cfi_offset 5, -20
 1534              		.cfi_offset 6, -16
 1535              		.cfi_offset 7, -12
 1536              		.cfi_offset 8, -8
 1537              		.cfi_offset 14, -4
 1538 0004 84B0     		sub	sp, sp, #16
 1539              		.cfi_def_cfa_offset 40
 1540              		.loc 1 422 0
 1541 0006 04AC     		add	r4, sp, #16
 1542              	.LBB267:
 1543              	.LBB268:
 1544              	.LBB269:
 1545              	.LBB270:
 1546              		.loc 2 176 0
 1547 0008 DFF8CC80 		ldr	r8, .L62+20
 1548              	.LBE270:
 1549              	.LBE269:
 1550              	.LBE268:
 1551              	.LBE267:
 1552              		.loc 1 425 0
 1553 000c 2D4F     		ldr	r7, .L62
 1554 000e 2E4E     		ldr	r6, .L62+4
 1555 0010 2E4D     		ldr	r5, .L62+8
 1556              		.loc 1 422 0
 1557 0012 0023     		movs	r3, #0
 1558 0014 44F8043D 		str	r3, [r4, #-4]!
 1559              		.loc 1 423 0
 1560 0018 FFF7FEFF 		bl	test_wait_tick
 1561              	.LVL152:
 1562              	.LBB272:
 1563              	.LBB271:
 1564              		.loc 2 189 0
 1565 001c D8F81830 		ldr	r3, [r8, #24]
 1566              	.LBE271:
 1567              	.LBE272:
 1568              		.loc 1 425 0
 1569 0020 3868     		ldr	r0, [r7]
 1570 0022 9A68     		ldr	r2, [r3, #8]
 1571 0024 0094     		str	r4, [sp]
 1572 0026 3346     		mov	r3, r6
 1573 0028 013A     		subs	r2, r2, #1
 1574 002a 4FF4A471 		mov	r1, #328
 1575 002e FFF7FEFF 		bl	chThdCreateStatic
 1576              	.LVL153:
 1577              	.LBB273:
 1578              	.LBB274:
 1579              		.loc 2 189 0
 1580 0032 D8F81820 		ldr	r2, [r8, #24]
ARM GAS  /tmp/cc7UhJBb.s 			page 29


 1581              	.LBE274:
 1582              	.LBE273:
 1583              		.loc 1 426 0
 1584 0036 7B68     		ldr	r3, [r7, #4]
 1585 0038 9268     		ldr	r2, [r2, #8]
 1586              		.loc 1 425 0
 1587 003a 2860     		str	r0, [r5]
 1588              		.loc 1 426 0
 1589 003c 013A     		subs	r2, r2, #1
 1590 003e 0094     		str	r4, [sp]
 1591 0040 1846     		mov	r0, r3
 1592 0042 4FF4A471 		mov	r1, #328
 1593 0046 3346     		mov	r3, r6
 1594 0048 FFF7FEFF 		bl	chThdCreateStatic
 1595              	.LVL154:
 1596              	.LBB275:
 1597              	.LBB276:
 1598              		.loc 2 189 0
 1599 004c D8F81820 		ldr	r2, [r8, #24]
 1600              	.LBE276:
 1601              	.LBE275:
 1602              		.loc 1 427 0
 1603 0050 BB68     		ldr	r3, [r7, #8]
 1604 0052 9268     		ldr	r2, [r2, #8]
 1605              		.loc 1 426 0
 1606 0054 6860     		str	r0, [r5, #4]
 1607              		.loc 1 427 0
 1608 0056 013A     		subs	r2, r2, #1
 1609 0058 0094     		str	r4, [sp]
 1610 005a 1846     		mov	r0, r3
 1611 005c 4FF4A471 		mov	r1, #328
 1612 0060 3346     		mov	r3, r6
 1613 0062 FFF7FEFF 		bl	chThdCreateStatic
 1614              	.LVL155:
 1615              	.LBB277:
 1616              	.LBB278:
 1617              		.loc 2 189 0
 1618 0066 D8F81820 		ldr	r2, [r8, #24]
 1619              	.LBE278:
 1620              	.LBE277:
 1621              		.loc 1 428 0
 1622 006a FB68     		ldr	r3, [r7, #12]
 1623 006c 9268     		ldr	r2, [r2, #8]
 1624              		.loc 1 427 0
 1625 006e A860     		str	r0, [r5, #8]
 1626              		.loc 1 428 0
 1627 0070 013A     		subs	r2, r2, #1
 1628 0072 0094     		str	r4, [sp]
 1629 0074 1846     		mov	r0, r3
 1630 0076 4FF4A471 		mov	r1, #328
 1631 007a 3346     		mov	r3, r6
 1632 007c FFF7FEFF 		bl	chThdCreateStatic
 1633              	.LVL156:
 1634              	.LBB279:
 1635              	.LBB280:
 1636              		.loc 2 189 0
 1637 0080 D8F81820 		ldr	r2, [r8, #24]
ARM GAS  /tmp/cc7UhJBb.s 			page 30


 1638              	.LBE280:
 1639              	.LBE279:
 1640              		.loc 1 429 0
 1641 0084 3B69     		ldr	r3, [r7, #16]
 1642 0086 9268     		ldr	r2, [r2, #8]
 1643              		.loc 1 428 0
 1644 0088 E860     		str	r0, [r5, #12]
 1645              		.loc 1 429 0
 1646 008a 013A     		subs	r2, r2, #1
 1647 008c 4FF4A471 		mov	r1, #328
 1648 0090 0094     		str	r4, [sp]
 1649 0092 1846     		mov	r0, r3
 1650 0094 3346     		mov	r3, r6
 1651 0096 FFF7FEFF 		bl	chThdCreateStatic
 1652              	.LVL157:
 1653 009a 2861     		str	r0, [r5, #16]
 1654              		.loc 1 431 0
 1655 009c 42F21070 		movw	r0, #10000
 1656 00a0 FFF7FEFF 		bl	chThdSleep
 1657              	.LVL158:
 1658              		.loc 1 432 0
 1659 00a4 FFF7FEFF 		bl	test_terminate_threads
 1660              	.LVL159:
 1661              		.loc 1 433 0
 1662 00a8 FFF7FEFF 		bl	test_wait_threads
 1663              	.LVL160:
 1664              		.loc 1 435 0
 1665 00ac 0848     		ldr	r0, .L62+12
 1666 00ae FFF7FEFF 		bl	test_print
 1667              	.LVL161:
 1668              		.loc 1 436 0
 1669 00b2 0398     		ldr	r0, [sp, #12]
 1670 00b4 FFF7FEFF 		bl	test_printn
 1671              	.LVL162:
 1672              		.loc 1 437 0
 1673 00b8 0648     		ldr	r0, .L62+16
 1674 00ba FFF7FEFF 		bl	test_println
 1675              	.LVL163:
 1676              		.loc 1 438 0
 1677 00be 04B0     		add	sp, sp, #16
 1678              		@ sp needed
 1679 00c0 BDE8F081 		pop	{r4, r5, r6, r7, r8, pc}
 1680              	.L63:
 1681              		.align	2
 1682              	.L62:
 1683 00c4 00000000 		.word	wa
 1684 00c8 00000000 		.word	thread8
 1685 00cc 00000000 		.word	threads
 1686 00d0 A8000000 		.word	.LC11
 1687 00d4 D0000000 		.word	.LC14
 1688 00d8 00000000 		.word	ch
 1689              		.cfi_endproc
 1690              	.LFE255:
 1691              		.size	bmk8_execute, .-bmk8_execute
 1692 00dc AFF30080 		.section	.text.thread8,"ax",%progbits
 1693              		.align	2
 1694              		.p2align 4,,15
ARM GAS  /tmp/cc7UhJBb.s 			page 31


 1695              		.thumb
 1696              		.thumb_func
 1697              		.type	thread8, %function
 1698              	thread8:
 1699              	.LFB254:
 1700              		.loc 1 405 0
 1701              		.cfi_startproc
 1702              		@ args = 0, pretend = 0, frame = 0
 1703              		@ frame_needed = 0, uses_anonymous_args = 0
 1704              	.LVL164:
 1705 0000 38B5     		push	{r3, r4, r5, lr}
 1706              		.cfi_def_cfa_offset 16
 1707              		.cfi_offset 3, -16
 1708              		.cfi_offset 4, -12
 1709              		.cfi_offset 5, -8
 1710              		.cfi_offset 14, -4
 1711 0002 094D     		ldr	r5, .L67
 1712              		.loc 1 405 0
 1713 0004 0446     		mov	r4, r0
 1714              	.LVL165:
 1715              	.L66:
 1716              		.loc 1 408 0 discriminator 1
 1717 0006 FFF7FEFF 		bl	chThdYield
 1718              	.LVL166:
 1719              		.loc 1 409 0 discriminator 1
 1720 000a FFF7FEFF 		bl	chThdYield
 1721              	.LVL167:
 1722              		.loc 1 410 0 discriminator 1
 1723 000e FFF7FEFF 		bl	chThdYield
 1724              	.LVL168:
 1725              		.loc 1 411 0 discriminator 1
 1726 0012 FFF7FEFF 		bl	chThdYield
 1727              	.LVL169:
 1728              		.loc 1 412 0 discriminator 1
 1729 0016 2368     		ldr	r3, [r4]
 1730              	.LBB281:
 1731              	.LBB282:
 1732              		.loc 2 233 0 discriminator 1
 1733 0018 AA69     		ldr	r2, [r5, #24]
 1734              	.LBE282:
 1735              	.LBE281:
 1736              		.loc 1 412 0 discriminator 1
 1737 001a 0433     		adds	r3, r3, #4
 1738 001c 2360     		str	r3, [r4]
 1739              	.LBB284:
 1740              	.LBB283:
 1741              		.loc 2 233 0 discriminator 1
 1742 001e 537F     		ldrb	r3, [r2, #29]	@ zero_extendqisi2
 1743              	.LBE283:
 1744              	.LBE284:
 1745              		.loc 1 416 0 discriminator 1
 1746 0020 5B07     		lsls	r3, r3, #29
 1747 0022 F0D5     		bpl	.L66
 1748              		.loc 1 417 0
 1749 0024 38BD     		pop	{r3, r4, r5, pc}
 1750              	.LVL170:
 1751              	.L68:
ARM GAS  /tmp/cc7UhJBb.s 			page 32


 1752 0026 00BF     		.align	2
 1753              	.L67:
 1754 0028 00000000 		.word	ch
 1755              		.cfi_endproc
 1756              	.LFE254:
 1757              		.size	thread8, .-thread8
 1758 002c AFF30080 		.section	.text.bmk9_execute,"ax",%progbits
 1759              		.align	2
 1760              		.p2align 4,,15
 1761              		.thumb
 1762              		.thumb_func
 1763              		.type	bmk9_execute, %function
 1764              	bmk9_execute:
 1765              	.LFB256:
 1766              		.loc 1 458 0
 1767              		.cfi_startproc
 1768              		@ args = 0, pretend = 0, frame = 0
 1769              		@ frame_needed = 0, uses_anonymous_args = 0
 1770 0000 F0B5     		push	{r4, r5, r6, r7, lr}
 1771              		.cfi_def_cfa_offset 20
 1772              		.cfi_offset 4, -20
 1773              		.cfi_offset 5, -16
 1774              		.cfi_offset 6, -12
 1775              		.cfi_offset 7, -8
 1776              		.cfi_offset 14, -4
 1777 0002 83B0     		sub	sp, sp, #12
 1778              		.cfi_def_cfa_offset 32
 1779              		.loc 1 463 0
 1780 0004 0024     		movs	r4, #0
 1781 0006 2346     		mov	r3, r4
 1782 0008 2349     		ldr	r1, .L72
 1783 000a 2448     		ldr	r0, .L72+4
 1784 000c 0094     		str	r4, [sp]
 1785 000e 1022     		movs	r2, #16
 1786 0010 FFF7FEFF 		bl	chIQObjectInit
 1787              	.LVL171:
 1788              		.loc 1 465 0
 1789 0014 FFF7FEFF 		bl	test_wait_tick
 1790              	.LVL172:
 1791              		.loc 1 466 0
 1792 0018 4FF47A70 		mov	r0, #1000
 1793 001c FFF7FEFF 		bl	test_start_timer
 1794              	.LVL173:
 1795 0020 1F4F     		ldr	r7, .L72+8
 1796              		.loc 1 469 0
 1797 0022 2646     		mov	r6, r4
 1798              	.LBB285:
 1799              	.LBB286:
 1800              	.LBB287:
 1801              	.LBB288:
 1802              		.loc 3 548 0
 1803 0024 2025     		movs	r5, #32
 1804              	.LVL174:
 1805              	.L71:
 1806              		.loc 3 548 0 is_stmt 0 discriminator 1
 1807              	@ 548 "../ChibiOS/os/ext/CMSIS/include/core_cmFunc.h" 1
 1808 0026 85F31188 		MSR basepri, r5
ARM GAS  /tmp/cc7UhJBb.s 			page 33


 1809              	@ 0 "" 2
 1810              		.thumb
 1811              	.LBE288:
 1812              	.LBE287:
 1813              	.LBE286:
 1814              	.LBE285:
 1815              		.loc 1 469 0 is_stmt 1 discriminator 1
 1816 002a 0021     		movs	r1, #0
 1817 002c 1B48     		ldr	r0, .L72+4
 1818 002e FFF7FEFF 		bl	chIQPutI
 1819              	.LVL175:
 1820              		.loc 1 470 0 discriminator 1
 1821 0032 0121     		movs	r1, #1
 1822 0034 1948     		ldr	r0, .L72+4
 1823 0036 FFF7FEFF 		bl	chIQPutI
 1824              	.LVL176:
 1825              		.loc 1 471 0 discriminator 1
 1826 003a 0221     		movs	r1, #2
 1827 003c 1748     		ldr	r0, .L72+4
 1828 003e FFF7FEFF 		bl	chIQPutI
 1829              	.LVL177:
 1830              		.loc 1 472 0 discriminator 1
 1831 0042 0321     		movs	r1, #3
 1832 0044 1548     		ldr	r0, .L72+4
 1833 0046 FFF7FEFF 		bl	chIQPutI
 1834              	.LVL178:
 1835              	.LBB289:
 1836              	.LBB290:
 1837              	.LBB291:
 1838              	.LBB292:
 1839              	.LBB293:
 1840              		.loc 3 548 0 discriminator 1
 1841              	@ 548 "../ChibiOS/os/ext/CMSIS/include/core_cmFunc.h" 1
 1842 004a 86F31188 		MSR basepri, r6
 1843              	@ 0 "" 2
 1844              	.LVL179:
 1845              		.thumb
 1846              	.LBE293:
 1847              	.LBE292:
 1848              	.LBE291:
 1849              	.LBE290:
 1850              	.LBE289:
 1851              	.LBB294:
 1852              	.LBB295:
 1853              		.file 4 "../ChibiOS/os/rt/include/chqueues.h"
 1854              		.loc 4 343 0 discriminator 1
 1855 004e 4FF0FF31 		mov	r1, #-1
 1856 0052 1248     		ldr	r0, .L72+4
 1857 0054 FFF7FEFF 		bl	chIQGetTimeout
 1858              	.LVL180:
 1859              	.LBE295:
 1860              	.LBE294:
 1861              	.LBB296:
 1862              	.LBB297:
 1863 0058 4FF0FF31 		mov	r1, #-1
 1864 005c 0F48     		ldr	r0, .L72+4
 1865 005e FFF7FEFF 		bl	chIQGetTimeout
ARM GAS  /tmp/cc7UhJBb.s 			page 34


 1866              	.LVL181:
 1867              	.LBE297:
 1868              	.LBE296:
 1869              	.LBB298:
 1870              	.LBB299:
 1871 0062 4FF0FF31 		mov	r1, #-1
 1872 0066 0D48     		ldr	r0, .L72+4
 1873 0068 FFF7FEFF 		bl	chIQGetTimeout
 1874              	.LVL182:
 1875              	.LBE299:
 1876              	.LBE298:
 1877              	.LBB300:
 1878              	.LBB301:
 1879 006c 0B48     		ldr	r0, .L72+4
 1880 006e 4FF0FF31 		mov	r1, #-1
 1881 0072 FFF7FEFF 		bl	chIQGetTimeout
 1882              	.LVL183:
 1883              	.LBE301:
 1884              	.LBE300:
 1885              		.loc 1 482 0 discriminator 1
 1886 0076 3B78     		ldrb	r3, [r7]	@ zero_extendqisi2
 1887              		.loc 1 478 0 discriminator 1
 1888 0078 0134     		adds	r4, r4, #1
 1889              	.LVL184:
 1890              		.loc 1 482 0 discriminator 1
 1891 007a 002B     		cmp	r3, #0
 1892 007c D3D0     		beq	.L71
 1893              		.loc 1 483 0
 1894 007e 0948     		ldr	r0, .L72+12
 1895 0080 FFF7FEFF 		bl	test_print
 1896              	.LVL185:
 1897              		.loc 1 484 0
 1898 0084 A000     		lsls	r0, r4, #2
 1899 0086 FFF7FEFF 		bl	test_printn
 1900              	.LVL186:
 1901              		.loc 1 485 0
 1902 008a 0748     		ldr	r0, .L72+16
 1903              		.loc 1 486 0
 1904 008c 03B0     		add	sp, sp, #12
 1905              		@ sp needed
 1906 008e BDE8F040 		pop	{r4, r5, r6, r7, lr}
 1907              	.LVL187:
 1908              		.loc 1 485 0
 1909 0092 FFF7FEBF 		b	test_println
 1910              	.LVL188:
 1911              	.L73:
 1912 0096 00BF     		.align	2
 1913              	.L72:
 1914 0098 00000000 		.word	.LANCHOR2
 1915 009c 00000000 		.word	.LANCHOR1
 1916 00a0 00000000 		.word	test_timer_done
 1917 00a4 A8000000 		.word	.LC11
 1918 00a8 F0000000 		.word	.LC16
 1919              		.cfi_endproc
 1920              	.LFE256:
 1921              		.size	bmk9_execute, .-bmk9_execute
 1922 00ac AFF30080 		.section	.text.bmk10_execute,"ax",%progbits
ARM GAS  /tmp/cc7UhJBb.s 			page 35


 1923              		.align	2
 1924              		.p2align 4,,15
 1925              		.thumb
 1926              		.thumb_func
 1927              		.type	bmk10_execute, %function
 1928              	bmk10_execute:
 1929              	.LFB258:
 1930              		.loc 1 507 0
 1931              		.cfi_startproc
 1932              		@ args = 0, pretend = 0, frame = 0
 1933              		@ frame_needed = 0, uses_anonymous_args = 0
 1934              	.LVL189:
 1935 0000 38B5     		push	{r3, r4, r5, lr}
 1936              		.cfi_def_cfa_offset 16
 1937              		.cfi_offset 3, -16
 1938              		.cfi_offset 4, -12
 1939              		.cfi_offset 5, -8
 1940              		.cfi_offset 14, -4
 1941              		.loc 1 511 0
 1942 0002 FFF7FEFF 		bl	test_wait_tick
 1943              	.LVL190:
 1944              		.loc 1 512 0
 1945 0006 4FF47A70 		mov	r0, #1000
 1946 000a FFF7FEFF 		bl	test_start_timer
 1947              	.LVL191:
 1948 000e 154D     		ldr	r5, .L77
 1949              		.loc 1 509 0
 1950 0010 0024     		movs	r4, #0
 1951              	.LVL192:
 1952              	.L76:
 1953              	.LBB302:
 1954              	.LBB303:
 1955              	.LBB304:
 1956              	.LBB305:
 1957              		.loc 3 548 0 discriminator 1
 1958 0012 2023     		movs	r3, #32
 1959              	@ 548 "../ChibiOS/os/ext/CMSIS/include/core_cmFunc.h" 1
 1960 0014 83F31188 		MSR basepri, r3
 1961              	@ 0 "" 2
 1962              		.thumb
 1963              	.LBE305:
 1964              	.LBE304:
 1965              	.LBE303:
 1966              	.LBE302:
 1967              		.loc 1 515 0 discriminator 1
 1968 0018 1348     		ldr	r0, .L77+4
 1969 001a 144A     		ldr	r2, .L77+8
 1970 001c 0121     		movs	r1, #1
 1971 001e 0023     		movs	r3, #0
 1972 0020 FFF7FEFF 		bl	chVTDoSetI
 1973              	.LVL193:
 1974              		.loc 1 516 0 discriminator 1
 1975 0024 114A     		ldr	r2, .L77+8
 1976 0026 1248     		ldr	r0, .L77+12
 1977 0028 42F21071 		movw	r1, #10000
 1978 002c 0023     		movs	r3, #0
 1979 002e FFF7FEFF 		bl	chVTDoSetI
ARM GAS  /tmp/cc7UhJBb.s 			page 36


 1980              	.LVL194:
 1981              		.loc 1 517 0 discriminator 1
 1982 0032 0D48     		ldr	r0, .L77+4
 1983 0034 FFF7FEFF 		bl	chVTDoResetI
 1984              	.LVL195:
 1985              		.loc 1 518 0 discriminator 1
 1986 0038 0D48     		ldr	r0, .L77+12
 1987 003a FFF7FEFF 		bl	chVTDoResetI
 1988              	.LVL196:
 1989              	.LBB306:
 1990              	.LBB307:
 1991              	.LBB308:
 1992              	.LBB309:
 1993              	.LBB310:
 1994              		.loc 3 548 0 discriminator 1
 1995 003e 0023     		movs	r3, #0
 1996              	@ 548 "../ChibiOS/os/ext/CMSIS/include/core_cmFunc.h" 1
 1997 0040 83F31188 		MSR basepri, r3
 1998              	@ 0 "" 2
 1999              		.thumb
 2000              	.LBE310:
 2001              	.LBE309:
 2002              	.LBE308:
 2003              	.LBE307:
 2004              	.LBE306:
 2005              		.loc 1 524 0 discriminator 1
 2006 0044 2B78     		ldrb	r3, [r5]	@ zero_extendqisi2
 2007              		.loc 1 520 0 discriminator 1
 2008 0046 0134     		adds	r4, r4, #1
 2009              	.LVL197:
 2010              		.loc 1 524 0 discriminator 1
 2011 0048 002B     		cmp	r3, #0
 2012 004a E2D0     		beq	.L76
 2013              		.loc 1 525 0
 2014 004c 0948     		ldr	r0, .L77+16
 2015 004e FFF7FEFF 		bl	test_print
 2016              	.LVL198:
 2017              		.loc 1 526 0
 2018 0052 6000     		lsls	r0, r4, #1
 2019 0054 FFF7FEFF 		bl	test_printn
 2020              	.LVL199:
 2021              		.loc 1 527 0
 2022 0058 0748     		ldr	r0, .L77+20
 2023              		.loc 1 528 0
 2024 005a BDE83840 		pop	{r3, r4, r5, lr}
 2025              	.LVL200:
 2026              		.loc 1 527 0
 2027 005e FFF7FEBF 		b	test_println
 2028              	.LVL201:
 2029              	.L78:
 2030 0062 00BF     		.align	2
 2031              	.L77:
 2032 0064 00000000 		.word	test_timer_done
 2033 0068 00000000 		.word	.LANCHOR3
 2034 006c 00000000 		.word	tmo
 2035 0070 00000000 		.word	.LANCHOR4
 2036 0074 A8000000 		.word	.LC11
ARM GAS  /tmp/cc7UhJBb.s 			page 37


 2037 0078 FC000000 		.word	.LC17
 2038              		.cfi_endproc
 2039              	.LFE258:
 2040              		.size	bmk10_execute, .-bmk10_execute
 2041 007c AFF30080 		.section	.text.bmk11_execute,"ax",%progbits
 2042              		.align	2
 2043              		.p2align 4,,15
 2044              		.thumb
 2045              		.thumb_func
 2046              		.type	bmk11_execute, %function
 2047              	bmk11_execute:
 2048              	.LFB260:
 2049              		.loc 1 553 0
 2050              		.cfi_startproc
 2051              		@ args = 0, pretend = 0, frame = 0
 2052              		@ frame_needed = 0, uses_anonymous_args = 0
 2053              	.LVL202:
 2054 0000 38B5     		push	{r3, r4, r5, lr}
 2055              		.cfi_def_cfa_offset 16
 2056              		.cfi_offset 3, -16
 2057              		.cfi_offset 4, -12
 2058              		.cfi_offset 5, -8
 2059              		.cfi_offset 14, -4
 2060              		.loc 1 556 0
 2061 0002 FFF7FEFF 		bl	test_wait_tick
 2062              	.LVL203:
 2063              		.loc 1 557 0
 2064 0006 4FF47A70 		mov	r0, #1000
 2065 000a FFF7FEFF 		bl	test_start_timer
 2066              	.LVL204:
 2067 000e 144D     		ldr	r5, .L82
 2068              		.loc 1 554 0
 2069 0010 0024     		movs	r4, #0
 2070              	.LVL205:
 2071              	.L81:
 2072              		.loc 1 559 0 discriminator 1
 2073 0012 1448     		ldr	r0, .L82+4
 2074 0014 FFF7FEFF 		bl	chSemWait
 2075              	.LVL206:
 2076              		.loc 1 560 0 discriminator 1
 2077 0018 1248     		ldr	r0, .L82+4
 2078 001a FFF7FEFF 		bl	chSemSignal
 2079              	.LVL207:
 2080              		.loc 1 561 0 discriminator 1
 2081 001e 1148     		ldr	r0, .L82+4
 2082 0020 FFF7FEFF 		bl	chSemWait
 2083              	.LVL208:
 2084              		.loc 1 562 0 discriminator 1
 2085 0024 0F48     		ldr	r0, .L82+4
 2086 0026 FFF7FEFF 		bl	chSemSignal
 2087              	.LVL209:
 2088              		.loc 1 563 0 discriminator 1
 2089 002a 0E48     		ldr	r0, .L82+4
 2090 002c FFF7FEFF 		bl	chSemWait
 2091              	.LVL210:
 2092              		.loc 1 564 0 discriminator 1
 2093 0030 0C48     		ldr	r0, .L82+4
ARM GAS  /tmp/cc7UhJBb.s 			page 38


 2094 0032 FFF7FEFF 		bl	chSemSignal
 2095              	.LVL211:
 2096              		.loc 1 565 0 discriminator 1
 2097 0036 0B48     		ldr	r0, .L82+4
 2098 0038 FFF7FEFF 		bl	chSemWait
 2099              	.LVL212:
 2100              		.loc 1 566 0 discriminator 1
 2101 003c 0948     		ldr	r0, .L82+4
 2102 003e FFF7FEFF 		bl	chSemSignal
 2103              	.LVL213:
 2104              		.loc 1 571 0 discriminator 1
 2105 0042 2B78     		ldrb	r3, [r5]	@ zero_extendqisi2
 2106              		.loc 1 567 0 discriminator 1
 2107 0044 0134     		adds	r4, r4, #1
 2108              	.LVL214:
 2109              		.loc 1 571 0 discriminator 1
 2110 0046 002B     		cmp	r3, #0
 2111 0048 E3D0     		beq	.L81
 2112              		.loc 1 572 0
 2113 004a 0748     		ldr	r0, .L82+8
 2114 004c FFF7FEFF 		bl	test_print
 2115              	.LVL215:
 2116              		.loc 1 573 0
 2117 0050 A000     		lsls	r0, r4, #2
 2118 0052 FFF7FEFF 		bl	test_printn
 2119              	.LVL216:
 2120              		.loc 1 574 0
 2121 0056 0548     		ldr	r0, .L82+12
 2122              		.loc 1 575 0
 2123 0058 BDE83840 		pop	{r3, r4, r5, lr}
 2124              	.LVL217:
 2125              		.loc 1 574 0
 2126 005c FFF7FEBF 		b	test_println
 2127              	.LVL218:
 2128              	.L83:
 2129              		.align	2
 2130              	.L82:
 2131 0060 00000000 		.word	test_timer_done
 2132 0064 00000000 		.word	.LANCHOR0
 2133 0068 A8000000 		.word	.LC11
 2134 006c 08010000 		.word	.LC18
 2135              		.cfi_endproc
 2136              	.LFE260:
 2137              		.size	bmk11_execute, .-bmk11_execute
 2138              		.section	.text.bmk12_execute,"ax",%progbits
 2139              		.align	2
 2140              		.p2align 4,,15
 2141              		.thumb
 2142              		.thumb_func
 2143              		.type	bmk12_execute, %function
 2144              	bmk12_execute:
 2145              	.LFB262:
 2146              		.loc 1 601 0
 2147              		.cfi_startproc
 2148              		@ args = 0, pretend = 0, frame = 0
 2149              		@ frame_needed = 0, uses_anonymous_args = 0
 2150              	.LVL219:
ARM GAS  /tmp/cc7UhJBb.s 			page 39


 2151 0000 38B5     		push	{r3, r4, r5, lr}
 2152              		.cfi_def_cfa_offset 16
 2153              		.cfi_offset 3, -16
 2154              		.cfi_offset 4, -12
 2155              		.cfi_offset 5, -8
 2156              		.cfi_offset 14, -4
 2157              		.loc 1 604 0
 2158 0002 FFF7FEFF 		bl	test_wait_tick
 2159              	.LVL220:
 2160              		.loc 1 605 0
 2161 0006 4FF47A70 		mov	r0, #1000
 2162 000a FFF7FEFF 		bl	test_start_timer
 2163              	.LVL221:
 2164 000e 144D     		ldr	r5, .L87
 2165              		.loc 1 602 0
 2166 0010 0024     		movs	r4, #0
 2167              	.LVL222:
 2168              	.L86:
 2169              		.loc 1 607 0 discriminator 1
 2170 0012 1448     		ldr	r0, .L87+4
 2171 0014 FFF7FEFF 		bl	chMtxLock
 2172              	.LVL223:
 2173              		.loc 1 608 0 discriminator 1
 2174 0018 1248     		ldr	r0, .L87+4
 2175 001a FFF7FEFF 		bl	chMtxUnlock
 2176              	.LVL224:
 2177              		.loc 1 609 0 discriminator 1
 2178 001e 1148     		ldr	r0, .L87+4
 2179 0020 FFF7FEFF 		bl	chMtxLock
 2180              	.LVL225:
 2181              		.loc 1 610 0 discriminator 1
 2182 0024 0F48     		ldr	r0, .L87+4
 2183 0026 FFF7FEFF 		bl	chMtxUnlock
 2184              	.LVL226:
 2185              		.loc 1 611 0 discriminator 1
 2186 002a 0E48     		ldr	r0, .L87+4
 2187 002c FFF7FEFF 		bl	chMtxLock
 2188              	.LVL227:
 2189              		.loc 1 612 0 discriminator 1
 2190 0030 0C48     		ldr	r0, .L87+4
 2191 0032 FFF7FEFF 		bl	chMtxUnlock
 2192              	.LVL228:
 2193              		.loc 1 613 0 discriminator 1
 2194 0036 0B48     		ldr	r0, .L87+4
 2195 0038 FFF7FEFF 		bl	chMtxLock
 2196              	.LVL229:
 2197              		.loc 1 614 0 discriminator 1
 2198 003c 0948     		ldr	r0, .L87+4
 2199 003e FFF7FEFF 		bl	chMtxUnlock
 2200              	.LVL230:
 2201              		.loc 1 619 0 discriminator 1
 2202 0042 2B78     		ldrb	r3, [r5]	@ zero_extendqisi2
 2203              		.loc 1 615 0 discriminator 1
 2204 0044 0134     		adds	r4, r4, #1
 2205              	.LVL231:
 2206              		.loc 1 619 0 discriminator 1
 2207 0046 002B     		cmp	r3, #0
ARM GAS  /tmp/cc7UhJBb.s 			page 40


 2208 0048 E3D0     		beq	.L86
 2209              		.loc 1 620 0
 2210 004a 0748     		ldr	r0, .L87+8
 2211 004c FFF7FEFF 		bl	test_print
 2212              	.LVL232:
 2213              		.loc 1 621 0
 2214 0050 A000     		lsls	r0, r4, #2
 2215 0052 FFF7FEFF 		bl	test_printn
 2216              	.LVL233:
 2217              		.loc 1 622 0
 2218 0056 0548     		ldr	r0, .L87+12
 2219              		.loc 1 623 0
 2220 0058 BDE83840 		pop	{r3, r4, r5, lr}
 2221              	.LVL234:
 2222              		.loc 1 622 0
 2223 005c FFF7FEBF 		b	test_println
 2224              	.LVL235:
 2225              	.L88:
 2226              		.align	2
 2227              	.L87:
 2228 0060 00000000 		.word	test_timer_done
 2229 0064 00000000 		.word	.LANCHOR5
 2230 0068 A8000000 		.word	.LC11
 2231 006c 18010000 		.word	.LC19
 2232              		.cfi_endproc
 2233              	.LFE262:
 2234              		.size	bmk12_execute, .-bmk12_execute
 2235              		.section	.text.bmk12_setup,"ax",%progbits
 2236              		.align	2
 2237              		.p2align 4,,15
 2238              		.thumb
 2239              		.thumb_func
 2240              		.type	bmk12_setup, %function
 2241              	bmk12_setup:
 2242              	.LFB261:
 2243              		.loc 1 596 0
 2244              		.cfi_startproc
 2245              		@ args = 0, pretend = 0, frame = 0
 2246              		@ frame_needed = 0, uses_anonymous_args = 0
 2247              		@ link register save eliminated.
 2248              		.loc 1 598 0
 2249 0000 0148     		ldr	r0, .L90
 2250 0002 FFF7FEBF 		b	chMtxObjectInit
 2251              	.LVL236:
 2252              	.L91:
 2253 0006 00BF     		.align	2
 2254              	.L90:
 2255 0008 00000000 		.word	.LANCHOR5
 2256              		.cfi_endproc
 2257              	.LFE261:
 2258              		.size	bmk12_setup, .-bmk12_setup
 2259              		.global	patternbmk
 2260              		.global	testbmk13
 2261              		.global	testbmk12
 2262              		.global	testbmk11
 2263              		.global	testbmk10
 2264              		.global	testbmk9
ARM GAS  /tmp/cc7UhJBb.s 			page 41


 2265              		.global	testbmk8
 2266              		.global	testbmk7
 2267              		.global	testbmk6
 2268              		.global	testbmk5
 2269              		.global	testbmk4
 2270              		.global	testbmk3
 2271              		.global	testbmk2
 2272              		.global	testbmk1
 2273 000c AFF30080 		.section	.bss.vt1.6551,"aw",%nobits
 2274              		.align	2
 2275              		.set	.LANCHOR3,. + 0
 2276              		.type	vt1.6551, %object
 2277              		.size	vt1.6551, 20
 2278              	vt1.6551:
 2279 0000 00000000 		.space	20
 2279      00000000 
 2279      00000000 
 2279      00000000 
 2279      00000000 
 2280              		.section	.rodata.patternbmk,"a",%progbits
 2281              		.align	2
 2282              		.type	patternbmk, %object
 2283              		.size	patternbmk, 56
 2284              	patternbmk:
 2285 0000 00000000 		.word	testbmk1
 2286 0004 00000000 		.word	testbmk2
 2287 0008 00000000 		.word	testbmk3
 2288 000c 00000000 		.word	testbmk4
 2289 0010 00000000 		.word	testbmk5
 2290 0014 00000000 		.word	testbmk6
 2291 0018 00000000 		.word	testbmk7
 2292 001c 00000000 		.word	testbmk8
 2293 0020 00000000 		.word	testbmk9
 2294 0024 00000000 		.word	testbmk10
 2295 0028 00000000 		.word	testbmk11
 2296 002c 00000000 		.word	testbmk12
 2297 0030 00000000 		.word	testbmk13
 2298 0034 00000000 		.word	0
 2299              		.section	.rodata.testbmk8,"a",%progbits
 2300              		.align	2
 2301              		.type	testbmk8, %object
 2302              		.size	testbmk8, 16
 2303              	testbmk8:
 2304 0000 D0010000 		.word	.LC25
 2305 0004 00000000 		.word	0
 2306 0008 00000000 		.word	0
 2307 000c 00000000 		.word	bmk8_execute
 2308              		.section	.rodata.testbmk3,"a",%progbits
 2309              		.align	2
 2310              		.type	testbmk3, %object
 2311              		.size	testbmk3, 16
 2312              	testbmk3:
 2313 0000 80020000 		.word	.LC30
 2314 0004 00000000 		.word	0
 2315 0008 00000000 		.word	0
 2316 000c 00000000 		.word	bmk3_execute
 2317              		.section	.rodata.testbmk10,"a",%progbits
ARM GAS  /tmp/cc7UhJBb.s 			page 42


 2318              		.align	2
 2319              		.type	testbmk10, %object
 2320              		.size	testbmk10, 16
 2321              	testbmk10:
 2322 0000 88010000 		.word	.LC23
 2323 0004 00000000 		.word	0
 2324 0008 00000000 		.word	0
 2325 000c 00000000 		.word	bmk10_execute
 2326              		.section	.rodata.testbmk4,"a",%progbits
 2327              		.align	2
 2328              		.type	testbmk4, %object
 2329              		.size	testbmk4, 16
 2330              	testbmk4:
 2331 0000 64020000 		.word	.LC29
 2332 0004 00000000 		.word	0
 2333 0008 00000000 		.word	0
 2334 000c 00000000 		.word	bmk4_execute
 2335              		.section	.bss.iq.6541,"aw",%nobits
 2336              		.align	2
 2337              		.set	.LANCHOR1,. + 0
 2338              		.type	iq.6541, %object
 2339              		.size	iq.6541, 36
 2340              	iq.6541:
 2341 0000 00000000 		.space	36
 2341      00000000 
 2341      00000000 
 2341      00000000 
 2341      00000000 
 2342              		.section	.bss.mtx1,"aw",%nobits
 2343              		.align	2
 2344              		.set	.LANCHOR5,. + 0
 2345              		.type	mtx1, %object
 2346              		.size	mtx1, 16
 2347              	mtx1:
 2348 0000 00000000 		.space	16
 2348      00000000 
 2348      00000000 
 2348      00000000 
 2349              		.section	.rodata.testbmk12,"a",%progbits
 2350              		.align	2
 2351              		.type	testbmk12, %object
 2352              		.size	testbmk12, 16
 2353              	testbmk12:
 2354 0000 44010000 		.word	.LC21
 2355 0004 00000000 		.word	bmk12_setup
 2356 0008 00000000 		.word	0
 2357 000c 00000000 		.word	bmk12_execute
 2358              		.section	.rodata.testbmk2,"a",%progbits
 2359              		.align	2
 2360              		.type	testbmk2, %object
 2361              		.size	testbmk2, 16
 2362              	testbmk2:
 2363 0000 98020000 		.word	.LC31
 2364 0004 00000000 		.word	0
 2365 0008 00000000 		.word	0
 2366 000c 00000000 		.word	bmk2_execute
 2367              		.section	.rodata.str1.4,"aMS",%progbits,1
ARM GAS  /tmp/cc7UhJBb.s 			page 43


 2368              		.align	2
 2369              	.LC0:
 2370 0000 2D2D2D20 		.ascii	"--- System: \000"
 2370      53797374 
 2370      656D3A20 
 2370      00
 2371 000d 000000   		.space	3
 2372              	.LC1:
 2373 0010 20627974 		.ascii	" bytes\000"
 2373      657300
 2374 0017 00       		.space	1
 2375              	.LC2:
 2376 0018 2D2D2D20 		.ascii	"--- Thread: \000"
 2376      54687265 
 2376      61643A20 
 2376      00
 2377 0025 000000   		.space	3
 2378              	.LC3:
 2379 0028 2D2D2D20 		.ascii	"--- Timer : \000"
 2379      54696D65 
 2379      72203A20 
 2379      00
 2380 0035 000000   		.space	3
 2381              	.LC4:
 2382 0038 2D2D2D20 		.ascii	"--- Semaph: \000"
 2382      53656D61 
 2382      70683A20 
 2382      00
 2383 0045 000000   		.space	3
 2384              	.LC5:
 2385 0048 2D2D2D20 		.ascii	"--- EventS: \000"
 2385      4576656E 
 2385      74533A20 
 2385      00
 2386 0055 000000   		.space	3
 2387              	.LC6:
 2388 0058 2D2D2D20 		.ascii	"--- EventL: \000"
 2388      4576656E 
 2388      744C3A20 
 2388      00
 2389 0065 000000   		.space	3
 2390              	.LC7:
 2391 0068 2D2D2D20 		.ascii	"--- Mutex : \000"
 2391      4D757465 
 2391      78203A20 
 2391      00
 2392 0075 000000   		.space	3
 2393              	.LC8:
 2394 0078 2D2D2D20 		.ascii	"--- CondV.: \000"
 2394      436F6E64 
 2394      562E3A20 
 2394      00
 2395 0085 000000   		.space	3
 2396              	.LC9:
 2397 0088 2D2D2D20 		.ascii	"--- Queue : \000"
 2397      51756575 
 2397      65203A20 
ARM GAS  /tmp/cc7UhJBb.s 			page 44


 2397      00
 2398 0095 000000   		.space	3
 2399              	.LC10:
 2400 0098 2D2D2D20 		.ascii	"--- MailB.: \000"
 2400      4D61696C 
 2400      422E3A20 
 2400      00
 2401 00a5 000000   		.space	3
 2402              	.LC11:
 2403 00a8 2D2D2D20 		.ascii	"--- Score : \000"
 2403      53636F72 
 2403      65203A20 
 2403      00
 2404 00b5 000000   		.space	3
 2405              	.LC12:
 2406 00b8 20746872 		.ascii	" threads/S\000"
 2406      65616473 
 2406      2F5300
 2407 00c3 00       		.space	1
 2408              	.LC13:
 2409 00c4 206D7367 		.ascii	" msgs/S, \000"
 2409      732F532C 
 2409      2000
 2410 00ce 0000     		.space	2
 2411              	.LC14:
 2412 00d0 20637478 		.ascii	" ctxswc/S\000"
 2412      7377632F 
 2412      5300
 2413 00da 0000     		.space	2
 2414              	.LC15:
 2415 00dc 20726573 		.ascii	" reschedules/S, \000"
 2415      63686564 
 2415      756C6573 
 2415      2F532C20 
 2415      00
 2416 00ed 000000   		.space	3
 2417              	.LC16:
 2418 00f0 20627974 		.ascii	" bytes/S\000"
 2418      65732F53 
 2418      00
 2419 00f9 000000   		.space	3
 2420              	.LC17:
 2421 00fc 2074696D 		.ascii	" timers/S\000"
 2421      6572732F 
 2421      5300
 2422 0106 0000     		.space	2
 2423              	.LC18:
 2424 0108 20776169 		.ascii	" wait+signal/S\000"
 2424      742B7369 
 2424      676E616C 
 2424      2F5300
 2425 0117 00       		.space	1
 2426              	.LC19:
 2427 0118 206C6F63 		.ascii	" lock+unlock/S\000"
 2427      6B2B756E 
 2427      6C6F636B 
 2427      2F5300
ARM GAS  /tmp/cc7UhJBb.s 			page 45


 2428 0127 00       		.space	1
 2429              	.LC20:
 2430 0128 42656E63 		.ascii	"Benchmark, RAM footprint\000"
 2430      686D6172 
 2430      6B2C2052 
 2430      414D2066 
 2430      6F6F7470 
 2431 0141 000000   		.space	3
 2432              	.LC21:
 2433 0144 42656E63 		.ascii	"Benchmark, mutexes lock/unlock\000"
 2433      686D6172 
 2433      6B2C206D 
 2433      75746578 
 2433      6573206C 
 2434 0163 00       		.space	1
 2435              	.LC22:
 2436 0164 42656E63 		.ascii	"Benchmark, semaphores wait/signal\000"
 2436      686D6172 
 2436      6B2C2073 
 2436      656D6170 
 2436      686F7265 
 2437 0186 0000     		.space	2
 2438              	.LC23:
 2439 0188 42656E63 		.ascii	"Benchmark, virtual timers set/reset\000"
 2439      686D6172 
 2439      6B2C2076 
 2439      69727475 
 2439      616C2074 
 2440              	.LC24:
 2441 01ac 42656E63 		.ascii	"Benchmark, I/O Queues throughput\000"
 2441      686D6172 
 2441      6B2C2049 
 2441      2F4F2051 
 2441      75657565 
 2442 01cd 000000   		.space	3
 2443              	.LC25:
 2444 01d0 42656E63 		.ascii	"Benchmark, round robin context switching\000"
 2444      686D6172 
 2444      6B2C2072 
 2444      6F756E64 
 2444      20726F62 
 2445 01f9 000000   		.space	3
 2446              	.LC26:
 2447 01fc 42656E63 		.ascii	"Benchmark, mass reschedule, 5 threads\000"
 2447      686D6172 
 2447      6B2C206D 
 2447      61737320 
 2447      72657363 
 2448 0222 0000     		.space	2
 2449              	.LC27:
 2450 0224 42656E63 		.ascii	"Benchmark, threads, create only\000"
 2450      686D6172 
 2450      6B2C2074 
 2450      68726561 
 2450      64732C20 
 2451              	.LC28:
 2452 0244 42656E63 		.ascii	"Benchmark, threads, full cycle\000"
ARM GAS  /tmp/cc7UhJBb.s 			page 46


 2452      686D6172 
 2452      6B2C2074 
 2452      68726561 
 2452      64732C20 
 2453 0263 00       		.space	1
 2454              	.LC29:
 2455 0264 42656E63 		.ascii	"Benchmark, context switch\000"
 2455      686D6172 
 2455      6B2C2063 
 2455      6F6E7465 
 2455      78742073 
 2456 027e 0000     		.space	2
 2457              	.LC30:
 2458 0280 42656E63 		.ascii	"Benchmark, messages #3\000"
 2458      686D6172 
 2458      6B2C206D 
 2458      65737361 
 2458      67657320 
 2459 0297 00       		.space	1
 2460              	.LC31:
 2461 0298 42656E63 		.ascii	"Benchmark, messages #2\000"
 2461      686D6172 
 2461      6B2C206D 
 2461      65737361 
 2461      67657320 
 2462 02af 00       		.space	1
 2463              	.LC32:
 2464 02b0 42656E63 		.ascii	"Benchmark, messages #1\000"
 2464      686D6172 
 2464      6B2C206D 
 2464      65737361 
 2464      67657320 
 2465 02c7 00       		.section	.bss.vt2.6552,"aw",%nobits
 2466              		.align	2
 2467              		.set	.LANCHOR4,. + 0
 2468              		.type	vt2.6552, %object
 2469              		.size	vt2.6552, 20
 2470              	vt2.6552:
 2471 0000 00000000 		.space	20
 2471      00000000 
 2471      00000000 
 2471      00000000 
 2471      00000000 
 2472              		.section	.rodata.testbmk9,"a",%progbits
 2473              		.align	2
 2474              		.type	testbmk9, %object
 2475              		.size	testbmk9, 16
 2476              	testbmk9:
 2477 0000 AC010000 		.word	.LC24
 2478 0004 00000000 		.word	0
 2479 0008 00000000 		.word	0
 2480 000c 00000000 		.word	bmk9_execute
 2481              		.section	.bss.sem1,"aw",%nobits
 2482              		.align	2
 2483              		.set	.LANCHOR0,. + 0
 2484              		.type	sem1, %object
 2485              		.size	sem1, 12
ARM GAS  /tmp/cc7UhJBb.s 			page 47


 2486              	sem1:
 2487 0000 00000000 		.space	12
 2487      00000000 
 2487      00000000 
 2488              		.section	.rodata.testbmk1,"a",%progbits
 2489              		.align	2
 2490              		.type	testbmk1, %object
 2491              		.size	testbmk1, 16
 2492              	testbmk1:
 2493 0000 B0020000 		.word	.LC32
 2494 0004 00000000 		.word	0
 2495 0008 00000000 		.word	0
 2496 000c 00000000 		.word	bmk1_execute
 2497              		.section	.rodata.testbmk11,"a",%progbits
 2498              		.align	2
 2499              		.type	testbmk11, %object
 2500              		.size	testbmk11, 16
 2501              	testbmk11:
 2502 0000 64010000 		.word	.LC22
 2503 0004 00000000 		.word	bmk11_setup
 2504 0008 00000000 		.word	0
 2505 000c 00000000 		.word	bmk11_execute
 2506              		.section	.bss.ib.6540,"aw",%nobits
 2507              		.align	2
 2508              		.set	.LANCHOR2,. + 0
 2509              		.type	ib.6540, %object
 2510              		.size	ib.6540, 16
 2511              	ib.6540:
 2512 0000 00000000 		.space	16
 2512      00000000 
 2512      00000000 
 2512      00000000 
 2513              		.section	.rodata.testbmk13,"a",%progbits
 2514              		.align	2
 2515              		.type	testbmk13, %object
 2516              		.size	testbmk13, 16
 2517              	testbmk13:
 2518 0000 28010000 		.word	.LC20
 2519 0004 00000000 		.word	0
 2520 0008 00000000 		.word	0
 2521 000c 00000000 		.word	bmk13_execute
 2522              		.section	.rodata.testbmk5,"a",%progbits
 2523              		.align	2
 2524              		.type	testbmk5, %object
 2525              		.size	testbmk5, 16
 2526              	testbmk5:
 2527 0000 44020000 		.word	.LC28
 2528 0004 00000000 		.word	0
 2529 0008 00000000 		.word	0
 2530 000c 00000000 		.word	bmk5_execute
 2531              		.section	.rodata.testbmk6,"a",%progbits
 2532              		.align	2
 2533              		.type	testbmk6, %object
 2534              		.size	testbmk6, 16
 2535              	testbmk6:
 2536 0000 24020000 		.word	.LC27
 2537 0004 00000000 		.word	0
ARM GAS  /tmp/cc7UhJBb.s 			page 48


 2538 0008 00000000 		.word	0
 2539 000c 00000000 		.word	bmk6_execute
 2540              		.section	.rodata.testbmk7,"a",%progbits
 2541              		.align	2
 2542              		.type	testbmk7, %object
 2543              		.size	testbmk7, 16
 2544              	testbmk7:
 2545 0000 FC010000 		.word	.LC26
 2546 0004 00000000 		.word	bmk7_setup
 2547 0008 00000000 		.word	0
 2548 000c 00000000 		.word	bmk7_execute
 2549              		.text
 2550              	.Letext0:
 2551              		.file 5 "/nfs/nfs5/home/research/hardware/arm2/gcc-arm-embedded/gcc-arm-none-eabi-4_8-2014q2/lib/g
 2552              		.file 6 "/nfs/nfs5/home/research/hardware/arm2/gcc-arm-embedded/gcc-arm-none-eabi-4_8-2014q2/arm-n
 2553              		.file 7 "/nfs/nfs5/home/research/hardware/arm2/gcc-arm-embedded/gcc-arm-none-eabi-4_8-2014q2/arm-n
 2554              		.file 8 "../ChibiOS/os/rt/ports/ARMCMx/compilers/GCC/chtypes.h"
 2555              		.file 9 "../ChibiOS/os/rt/include/chsystypes.h"
 2556              		.file 10 "../ChibiOS/os/rt/include/chschd.h"
 2557              		.file 11 "../ChibiOS/os/rt/ports/ARMCMx/chcore.h"
 2558              		.file 12 "../ChibiOS/os/rt/ports/ARMCMx/chcore_v7m.h"
 2559              		.file 13 "../ChibiOS/os/rt/include/chtm.h"
 2560              		.file 14 "../ChibiOS/os/rt/include/chsem.h"
 2561              		.file 15 "../ChibiOS/os/rt/include/chmtx.h"
 2562              		.file 16 "../ChibiOS/test/rt/test.h"
 2563              		.file 17 "../ChibiOS/os/rt/include/chsys.h"
 2564              		.file 18 "../ChibiOS/os/rt/include/chmsg.h"
 2565              		.file 19 "../ChibiOS/os/ext/CMSIS/include/core_cm4.h"
 2566              		.file 20 "../ChibiOS/os/rt/include/chvt.h"